ARM GAS  /var/folders/8c/gyvcglfx7f97kbqb2h83mm_r0000gn/T//ccO7mGw3.s 			page 1


   1              		.cpu cortex-m4
   2              		.eabi_attribute 27, 1
   3              		.eabi_attribute 28, 1
   4              		.eabi_attribute 20, 1
   5              		.eabi_attribute 21, 1
   6              		.eabi_attribute 23, 3
   7              		.eabi_attribute 24, 1
   8              		.eabi_attribute 25, 1
   9              		.eabi_attribute 26, 1
  10              		.eabi_attribute 30, 4
  11              		.eabi_attribute 34, 1
  12              		.eabi_attribute 18, 4
  13              		.file	"main.c"
  14              		.text
  15              	.Ltext0:
  16              		.cfi_sections	.debug_frame
  17              		.section	.text.SystemClock_Config,"ax",%progbits
  18              		.align	1
  19              		.global	SystemClock_Config
  20              		.arch armv7e-m
  21              		.syntax unified
  22              		.thumb
  23              		.thumb_func
  24              		.fpu fpv4-sp-d16
  26              	SystemClock_Config:
  27              	.LFB127:
  28              		.file 1 "Src/main.c"
   1:Src/main.c    **** /* USER CODE BEGIN Header */
   2:Src/main.c    **** /**
   3:Src/main.c    ****  ******************************************************************************
   4:Src/main.c    ****  * @file           : main.c
   5:Src/main.c    ****  * @brief          : Main program body
   6:Src/main.c    ****  ******************************************************************************
   7:Src/main.c    ****  ** This notice applies to any and all portions of this file
   8:Src/main.c    ****  * that are not between comment pairs USER CODE BEGIN and
   9:Src/main.c    ****  * USER CODE END. Other portions of this file, whether
  10:Src/main.c    ****  * inserted by the user or by software development tools
  11:Src/main.c    ****  * are owned by their respective copyright owners.
  12:Src/main.c    ****  *
  13:Src/main.c    ****  * COPYRIGHT(c) 2019 STMicroelectronics
  14:Src/main.c    ****  *
  15:Src/main.c    ****  * Redistribution and use in source and binary forms, with or without
  16:Src/main.c    ****  *modification, are permitted provided that the following conditions are met:
  17:Src/main.c    ****  *   1. Redistributions of source code must retain the above copyright notice,
  18:Src/main.c    ****  *      this list of conditions and the following disclaimer.
  19:Src/main.c    ****  *   2. Redistributions in binary form must reproduce the above copyright
  20:Src/main.c    ****  *notice, this list of conditions and the following disclaimer in the
  21:Src/main.c    ****  *documentation and/or other materials provided with the distribution.
  22:Src/main.c    ****  *   3. Neither the name of STMicroelectronics nor the names of its contributors
  23:Src/main.c    ****  *      may be used to endorse or promote products derived from this software
  24:Src/main.c    ****  *      without specific prior written permission.
  25:Src/main.c    ****  *
  26:Src/main.c    ****  * THIS SOFTWARE IS PROVIDED BY THE COPYRIGHT HOLDERS AND CONTRIBUTORS "AS IS"
  27:Src/main.c    ****  * AND ANY EXPRESS OR IMPLIED WARRANTIES, INCLUDING, BUT NOT LIMITED TO, THE
  28:Src/main.c    ****  * IMPLIED WARRANTIES OF MERCHANTABILITY AND FITNESS FOR A PARTICULAR PURPOSE
  29:Src/main.c    ****  *ARE DISCLAIMED. IN NO EVENT SHALL THE COPYRIGHT HOLDER OR CONTRIBUTORS BE
  30:Src/main.c    ****  *LIABLE FOR ANY DIRECT, INDIRECT, INCIDENTAL, SPECIAL, EXEMPLARY, OR
ARM GAS  /var/folders/8c/gyvcglfx7f97kbqb2h83mm_r0000gn/T//ccO7mGw3.s 			page 2


  31:Src/main.c    ****  *CONSEQUENTIAL DAMAGES (INCLUDING, BUT NOT LIMITED TO, PROCUREMENT OF
  32:Src/main.c    ****  *SUBSTITUTE GOODS OR SERVICES; LOSS OF USE, DATA, OR PROFITS; OR BUSINESS
  33:Src/main.c    ****  *INTERRUPTION) HOWEVER CAUSED AND ON ANY THEORY OF LIABILITY, WHETHER IN
  34:Src/main.c    ****  *CONTRACT, STRICT LIABILITY, OR TORT (INCLUDING NEGLIGENCE OR OTHERWISE)
  35:Src/main.c    ****  *ARISING IN ANY WAY OUT OF THE USE OF THIS SOFTWARE, EVEN IF ADVISED OF THE
  36:Src/main.c    ****  *POSSIBILITY OF SUCH DAMAGE.
  37:Src/main.c    ****  *
  38:Src/main.c    ****  ******************************************************************************
  39:Src/main.c    ****  */
  40:Src/main.c    **** /* USER CODE END Header */
  41:Src/main.c    **** 
  42:Src/main.c    **** /* Includes ------------------------------------------------------------------*/
  43:Src/main.c    **** #include "main.h"
  44:Src/main.c    **** #include "gpio.h"
  45:Src/main.c    **** #include "spi.h"
  46:Src/main.c    **** #include "usart.h"
  47:Src/main.c    **** 
  48:Src/main.c    **** /* Private includes ----------------------------------------------------------*/
  49:Src/main.c    **** /* USER CODE BEGIN Includes */
  50:Src/main.c    **** #include "RFM69.h"
  51:Src/main.c    **** #include "RFM69_externs.h"
  52:Src/main.c    **** #include <stdint.h>
  53:Src/main.c    **** 
  54:Src/main.c    **** /* USER CODE END Includes */
  55:Src/main.c    **** 
  56:Src/main.c    **** /* Private typedef -----------------------------------------------------------*/
  57:Src/main.c    **** /* USER CODE BEGIN PTD */
  58:Src/main.c    **** 
  59:Src/main.c    **** /* USER CODE END PTD */
  60:Src/main.c    **** 
  61:Src/main.c    **** /* Private define ------------------------------------------------------------*/
  62:Src/main.c    **** /* USER CODE BEGIN PD */
  63:Src/main.c    **** 
  64:Src/main.c    **** /* USER CODE END PD */
  65:Src/main.c    **** 
  66:Src/main.c    **** /* Private macro -------------------------------------------------------------*/
  67:Src/main.c    **** /* USER CODE BEGIN PM */
  68:Src/main.c    **** 
  69:Src/main.c    **** /* USER CODE END PM */
  70:Src/main.c    **** 
  71:Src/main.c    **** /* Private variables ---------------------------------------------------------*/
  72:Src/main.c    **** 
  73:Src/main.c    **** /* USER CODE BEGIN PV */
  74:Src/main.c    **** /* Private variables ---------------------------------------------------------*/
  75:Src/main.c    **** char log_buffer[150];
  76:Src/main.c    **** uint16_t networkID = 210; // a.k.a. Network Group
  77:Src/main.c    **** uint8_t nodeID = 1;
  78:Src/main.c    **** uint16_t freqBand = 433;
  79:Src/main.c    ****   /*
  80:Src/main.c    ****   // available frequency bands
  81:Src/main.c    ****   #define RF69_315MHZ            315
  82:Src/main.c    ****   #define RF69_433MHZ            433
  83:Src/main.c    ****   #define RF69_868MHZ            868
  84:Src/main.c    ****   #define RF69_915MHZ            915
  85:Src/main.c    ****   see registers.h for more.
  86:Src/main.c    ****   */
  87:Src/main.c    **** uint8_t toAddress = 1;
ARM GAS  /var/folders/8c/gyvcglfx7f97kbqb2h83mm_r0000gn/T//ccO7mGw3.s 			page 3


  88:Src/main.c    **** bool requestACK = false;
  89:Src/main.c    **** 
  90:Src/main.c    **** typedef struct {
  91:Src/main.c    ****   unsigned long nodeId; //store this nodeId
  92:Src/main.c    ****   unsigned long uptime; //uptime in ms
  93:Src/main.c    ****   //float         temp;   //temperature maybe?
  94:Src/main.c    **** } Payload;
  95:Src/main.c    **** Payload bufferdata;
  96:Src/main.c    **** 
  97:Src/main.c    **** 
  98:Src/main.c    **** 
  99:Src/main.c    **** 
 100:Src/main.c    **** /* USER CODE END PV */
 101:Src/main.c    **** 
 102:Src/main.c    **** 
 103:Src/main.c    **** /* Private function prototypes -----------------------------------------------*/
 104:Src/main.c    **** void SystemClock_Config(void);
 105:Src/main.c    **** /* USER CODE BEGIN PFP */
 106:Src/main.c    **** /* Private function prototypes -----------------------------------------------*/
 107:Src/main.c    **** 
 108:Src/main.c    **** /* USER CODE END PFP */
 109:Src/main.c    **** 
 110:Src/main.c    **** /* Private user code ---------------------------------------------------------*/
 111:Src/main.c    **** /* USER CODE BEGIN 0 */
 112:Src/main.c    **** //#define NELEMS(x) (sizeof(x) / sizeof((x)[0]))
 113:Src/main.c    **** // size_t ni = NELEMS(data);
 114:Src/main.c    **** 
 115:Src/main.c    **** /* USER CODE END 0 */
 116:Src/main.c    **** 
 117:Src/main.c    **** /**
 118:Src/main.c    ****  * @brief  The application entry point.
 119:Src/main.c    ****  * @retval int
 120:Src/main.c    ****  */
 121:Src/main.c    **** int main(void) {
 122:Src/main.c    ****   /* USER CODE BEGIN 1 */
 123:Src/main.c    **** 
 124:Src/main.c    ****   /* USER CODE END 1 */
 125:Src/main.c    **** 
 126:Src/main.c    ****   /* MCU Configuration--------------------------------------------------------*/
 127:Src/main.c    **** 
 128:Src/main.c    ****   /* Reset of all peripherals, Initializes the Flash interface and the Systick.
 129:Src/main.c    ****    */
 130:Src/main.c    ****   HAL_Init();
 131:Src/main.c    **** 
 132:Src/main.c    ****   /* USER CODE BEGIN Init */
 133:Src/main.c    **** 
 134:Src/main.c    ****   /* USER CODE END Init */
 135:Src/main.c    **** 
 136:Src/main.c    ****   /* Configure the system clock */
 137:Src/main.c    ****   SystemClock_Config();
 138:Src/main.c    **** 
 139:Src/main.c    ****   /* USER CODE BEGIN SysInit */
 140:Src/main.c    **** 
 141:Src/main.c    ****   /* USER CODE END SysInit */
 142:Src/main.c    **** 
 143:Src/main.c    ****   /* Initialize all configured peripherals */
 144:Src/main.c    ****   MX_GPIO_Init();
ARM GAS  /var/folders/8c/gyvcglfx7f97kbqb2h83mm_r0000gn/T//ccO7mGw3.s 			page 4


 145:Src/main.c    ****   MX_USART2_UART_Init();
 146:Src/main.c    ****   MX_SPI2_Init();
 147:Src/main.c    ****   /* USER CODE BEGIN 2 */
 148:Src/main.c    ****   RFM69_RST();
 149:Src/main.c    ****   HAL_Delay(10);
 150:Src/main.c    ****   if (RFM69_initialize(freqBand, nodeID, networkID)) {
 151:Src/main.c    ****     sprintf(log_buffer, "RFM69 Initialized. Freq %dMHz. Node %d. Group %d.\r\n", freqBand, nodeID, 
 152:Src/main.c    ****     debug_printf(log_buffer);
 153:Src/main.c    ****   }
 154:Src/main.c    ****   else {
 155:Src/main.c    ****     sprintf(log_buffer, "RFM69 not connected.\r\n");
 156:Src/main.c    ****     debug_printf(log_buffer);
 157:Src/main.c    ****   }
 158:Src/main.c    **** 
 159:Src/main.c    ****   //RFM69_readAllRegs();
 160:Src/main.c    **** 
 161:Src/main.c    ****   /* USER CODE END 2 */
 162:Src/main.c    **** 
 163:Src/main.c    ****   /* Infinite loop */
 164:Src/main.c    ****   /* USER CODE BEGIN WHILE */
 165:Src/main.c    ****   while (1) {
 166:Src/main.c    **** /*
 167:Src/main.c    ****     // sample receiving code
 168:Src/main.c    ****     if (RFM69_ReadDIO0Pin()) {
 169:Src/main.c    ****       HAL_GPIO_WritePin(GPIOA, GPIO_PIN_5, 1); // turn on LED
 170:Src/main.c    ****       RFM69_interruptHandler();
 171:Src/main.c    ****     }
 172:Src/main.c    ****     if (RFM69_receiveDone()) {
 173:Src/main.c    ****       debug_printf("Payload Received!\r\n");
 174:Src/main.c    ****       PrintRawBytes();
 175:Src/main.c    ****       PrintStruct();
 176:Src/main.c    ****       PrintByteByByte();
 177:Src/main.c    ****       HAL_GPIO_WritePin(GPIOA, GPIO_PIN_5, 0); // turn off LED
 178:Src/main.c    ****     }
 179:Src/main.c    **** 
 180:Src/main.c    ****     // sample sending code
 181:Src/main.c    ****     bufferdata.nodeId = 20;
 182:Src/main.c    ****     bufferdata.uptime = HAL_GetTick();
 183:Src/main.c    ****     RFM69_send(toAddress, (const void *)(&bufferdata), sizeof(bufferdata), requestACK);
 184:Src/main.c    ****     HAL_GPIO_WritePin(GPIOA, GPIO_PIN_5, 1); // turn on LED
 185:Src/main.c    ****     HAL_Delay(1);
 186:Src/main.c    ****     HAL_GPIO_WritePin(GPIOA, GPIO_PIN_5, 0); // turn off LED
 187:Src/main.c    ****     HAL_Delay(2000);                         // send every ____ milliseconds.
 188:Src/main.c    ****     debug_printf("Payload Sent!\r\n");
 189:Src/main.c    **** */
 190:Src/main.c    **** 
 191:Src/main.c    ****     /* USER CODE END WHILE */
 192:Src/main.c    **** 
 193:Src/main.c    ****     /* USER CODE BEGIN 3 */
 194:Src/main.c    ****   }
 195:Src/main.c    ****   /* USER CODE END 3 */
 196:Src/main.c    **** }
 197:Src/main.c    **** 
 198:Src/main.c    **** /**
 199:Src/main.c    ****  * @brief System Clock Configuration
 200:Src/main.c    ****  * @retval None
 201:Src/main.c    ****  */
ARM GAS  /var/folders/8c/gyvcglfx7f97kbqb2h83mm_r0000gn/T//ccO7mGw3.s 			page 5


 202:Src/main.c    **** void SystemClock_Config(void) {
  29              		.loc 1 202 31 view -0
  30              		.cfi_startproc
  31              		@ args = 0, pretend = 0, frame = 152
  32              		@ frame_needed = 0, uses_anonymous_args = 0
 203:Src/main.c    ****   RCC_OscInitTypeDef RCC_OscInitStruct = {0};
  33              		.loc 1 203 3 view .LVU1
 202:Src/main.c    ****   RCC_OscInitTypeDef RCC_OscInitStruct = {0};
  34              		.loc 1 202 31 is_stmt 0 view .LVU2
  35 0000 10B5     		push	{r4, lr}
  36              	.LCFI0:
  37              		.cfi_def_cfa_offset 8
  38              		.cfi_offset 4, -8
  39              		.cfi_offset 14, -4
  40 0002 A6B0     		sub	sp, sp, #152
  41              	.LCFI1:
  42              		.cfi_def_cfa_offset 160
  43              		.loc 1 203 22 view .LVU3
  44 0004 2422     		movs	r2, #36
  45 0006 0021     		movs	r1, #0
  46 0008 07A8     		add	r0, sp, #28
  47 000a FFF7FEFF 		bl	memset
  48              	.LVL0:
 204:Src/main.c    ****   RCC_ClkInitTypeDef RCC_ClkInitStruct = {0};
  49              		.loc 1 204 3 is_stmt 1 view .LVU4
  50              		.loc 1 204 22 is_stmt 0 view .LVU5
  51 000e 1422     		movs	r2, #20
  52 0010 0021     		movs	r1, #0
  53 0012 01A8     		add	r0, sp, #4
  54 0014 FFF7FEFF 		bl	memset
  55              	.LVL1:
 205:Src/main.c    ****   RCC_PeriphCLKInitTypeDef PeriphClkInit = {0};
  56              		.loc 1 205 3 is_stmt 1 view .LVU6
  57              		.loc 1 205 28 is_stmt 0 view .LVU7
  58 0018 5822     		movs	r2, #88
  59 001a 0021     		movs	r1, #0
  60 001c 10A8     		add	r0, sp, #64
  61 001e FFF7FEFF 		bl	memset
  62              	.LVL2:
 206:Src/main.c    **** 
 207:Src/main.c    ****   /**Initializes the CPU, AHB and APB busses clocks
 208:Src/main.c    ****    */
 209:Src/main.c    ****   RCC_OscInitStruct.OscillatorType = RCC_OSCILLATORTYPE_HSI;
  63              		.loc 1 209 3 is_stmt 1 view .LVU8
 210:Src/main.c    ****   RCC_OscInitStruct.HSIState = RCC_HSI_ON;
 211:Src/main.c    ****   RCC_OscInitStruct.HSICalibrationValue = RCC_HSICALIBRATION_DEFAULT;
  64              		.loc 1 211 41 is_stmt 0 view .LVU9
  65 0022 1023     		movs	r3, #16
  66 0024 0122     		movs	r2, #1
 209:Src/main.c    ****   RCC_OscInitStruct.HSIState = RCC_HSI_ON;
  67              		.loc 1 209 36 view .LVU10
  68 0026 0224     		movs	r4, #2
  69              		.loc 1 211 41 view .LVU11
  70 0028 CDE90923 		strd	r2, r3, [sp, #36]
 212:Src/main.c    ****   RCC_OscInitStruct.PLL.PLLState = RCC_PLL_ON;
 213:Src/main.c    ****   RCC_OscInitStruct.PLL.PLLSource = RCC_PLLSOURCE_HSI;
 214:Src/main.c    ****   RCC_OscInitStruct.PLL.PLLMUL = RCC_PLL_MUL9;
ARM GAS  /var/folders/8c/gyvcglfx7f97kbqb2h83mm_r0000gn/T//ccO7mGw3.s 			page 6


  71              		.loc 1 214 32 view .LVU12
  72 002c 4FF40041 		mov	r1, #32768
  73 0030 4FF4E013 		mov	r3, #1835008
 215:Src/main.c    ****   RCC_OscInitStruct.PLL.PREDIV = RCC_PREDIV_DIV1;
 216:Src/main.c    ****   if (HAL_RCC_OscConfig(&RCC_OscInitStruct) != HAL_OK) {
  74              		.loc 1 216 7 view .LVU13
  75 0034 06A8     		add	r0, sp, #24
 209:Src/main.c    ****   RCC_OscInitStruct.HSIState = RCC_HSI_ON;
  76              		.loc 1 209 36 view .LVU14
  77 0036 0694     		str	r4, [sp, #24]
 210:Src/main.c    ****   RCC_OscInitStruct.HSICalibrationValue = RCC_HSICALIBRATION_DEFAULT;
  78              		.loc 1 210 3 is_stmt 1 view .LVU15
 212:Src/main.c    ****   RCC_OscInitStruct.PLL.PLLSource = RCC_PLLSOURCE_HSI;
  79              		.loc 1 212 3 view .LVU16
 212:Src/main.c    ****   RCC_OscInitStruct.PLL.PLLSource = RCC_PLLSOURCE_HSI;
  80              		.loc 1 212 34 is_stmt 0 view .LVU17
  81 0038 0C94     		str	r4, [sp, #48]
 213:Src/main.c    ****   RCC_OscInitStruct.PLL.PLLMUL = RCC_PLL_MUL9;
  82              		.loc 1 213 3 is_stmt 1 view .LVU18
 214:Src/main.c    ****   RCC_OscInitStruct.PLL.PREDIV = RCC_PREDIV_DIV1;
  83              		.loc 1 214 32 is_stmt 0 view .LVU19
  84 003a CDE90D13 		strd	r1, r3, [sp, #52]
 215:Src/main.c    ****   if (HAL_RCC_OscConfig(&RCC_OscInitStruct) != HAL_OK) {
  85              		.loc 1 215 3 is_stmt 1 view .LVU20
  86              		.loc 1 216 3 view .LVU21
  87              		.loc 1 216 7 is_stmt 0 view .LVU22
  88 003e FFF7FEFF 		bl	HAL_RCC_OscConfig
  89              	.LVL3:
  90              		.loc 1 216 6 view .LVU23
  91 0042 00B1     		cbz	r0, .L2
  92              	.L3:
 217:Src/main.c    ****     Error_Handler();
 218:Src/main.c    ****   }
 219:Src/main.c    ****   /**Initializes the CPU, AHB and APB busses clocks
 220:Src/main.c    ****    */
 221:Src/main.c    ****   RCC_ClkInitStruct.ClockType = RCC_CLOCKTYPE_HCLK | RCC_CLOCKTYPE_SYSCLK |
 222:Src/main.c    ****                                 RCC_CLOCKTYPE_PCLK1 | RCC_CLOCKTYPE_PCLK2;
 223:Src/main.c    ****   RCC_ClkInitStruct.SYSCLKSource = RCC_SYSCLKSOURCE_PLLCLK;
 224:Src/main.c    ****   RCC_ClkInitStruct.AHBCLKDivider = RCC_SYSCLK_DIV1;
 225:Src/main.c    ****   RCC_ClkInitStruct.APB1CLKDivider = RCC_HCLK_DIV2;
 226:Src/main.c    ****   RCC_ClkInitStruct.APB2CLKDivider = RCC_HCLK_DIV1;
 227:Src/main.c    **** 
 228:Src/main.c    ****   if (HAL_RCC_ClockConfig(&RCC_ClkInitStruct, FLASH_LATENCY_2) != HAL_OK) {
 229:Src/main.c    ****     Error_Handler();
 230:Src/main.c    ****   }
 231:Src/main.c    ****   PeriphClkInit.PeriphClockSelection = RCC_PERIPHCLK_USART2;
 232:Src/main.c    ****   PeriphClkInit.Usart2ClockSelection = RCC_USART2CLKSOURCE_PCLK1;
 233:Src/main.c    ****   if (HAL_RCCEx_PeriphCLKConfig(&PeriphClkInit) != HAL_OK) {
 234:Src/main.c    ****     Error_Handler();
 235:Src/main.c    ****   }
 236:Src/main.c    **** }
 237:Src/main.c    **** 
 238:Src/main.c    **** /* USER CODE BEGIN 4 */
 239:Src/main.c    **** 
 240:Src/main.c    **** /* USER CODE END 4 */
 241:Src/main.c    **** 
 242:Src/main.c    **** /**
ARM GAS  /var/folders/8c/gyvcglfx7f97kbqb2h83mm_r0000gn/T//ccO7mGw3.s 			page 7


 243:Src/main.c    ****  * @brief  This function is executed in case of error occurrence.
 244:Src/main.c    ****  * @retval None
 245:Src/main.c    ****  */
 246:Src/main.c    **** void Error_Handler(void) {
 247:Src/main.c    ****   /* USER CODE BEGIN Error_Handler_Debug */
 248:Src/main.c    ****   /* User can add his own implementation to report the HAL error return state */
 249:Src/main.c    ****   while (1) {
  93              		.loc 1 249 3 is_stmt 1 view .LVU24
 250:Src/main.c    ****   }
  94              		.loc 1 250 3 view .LVU25
  95 0044 FEE7     		b	.L3
  96              	.L2:
 221:Src/main.c    ****                                 RCC_CLOCKTYPE_PCLK1 | RCC_CLOCKTYPE_PCLK2;
  97              		.loc 1 221 3 view .LVU26
 221:Src/main.c    ****                                 RCC_CLOCKTYPE_PCLK1 | RCC_CLOCKTYPE_PCLK2;
  98              		.loc 1 221 31 is_stmt 0 view .LVU27
  99 0046 0F23     		movs	r3, #15
 223:Src/main.c    ****   RCC_ClkInitStruct.AHBCLKDivider = RCC_SYSCLK_DIV1;
 100              		.loc 1 223 34 view .LVU28
 101 0048 CDE90134 		strd	r3, r4, [sp, #4]
 224:Src/main.c    ****   RCC_ClkInitStruct.APB1CLKDivider = RCC_HCLK_DIV2;
 102              		.loc 1 224 3 is_stmt 1 view .LVU29
 225:Src/main.c    ****   RCC_ClkInitStruct.APB2CLKDivider = RCC_HCLK_DIV1;
 103              		.loc 1 225 36 is_stmt 0 view .LVU30
 104 004c 4FF48063 		mov	r3, #1024
 224:Src/main.c    ****   RCC_ClkInitStruct.APB1CLKDivider = RCC_HCLK_DIV2;
 105              		.loc 1 224 35 view .LVU31
 106 0050 0390     		str	r0, [sp, #12]
 225:Src/main.c    ****   RCC_ClkInitStruct.APB2CLKDivider = RCC_HCLK_DIV1;
 107              		.loc 1 225 3 is_stmt 1 view .LVU32
 226:Src/main.c    **** 
 108              		.loc 1 226 36 is_stmt 0 view .LVU33
 109 0052 CDE90430 		strd	r3, r0, [sp, #16]
 228:Src/main.c    ****     Error_Handler();
 110              		.loc 1 228 3 is_stmt 1 view .LVU34
 228:Src/main.c    ****     Error_Handler();
 111              		.loc 1 228 7 is_stmt 0 view .LVU35
 112 0056 2146     		mov	r1, r4
 113 0058 01A8     		add	r0, sp, #4
 114 005a FFF7FEFF 		bl	HAL_RCC_ClockConfig
 115              	.LVL4:
 228:Src/main.c    ****     Error_Handler();
 116              		.loc 1 228 6 view .LVU36
 117 005e 00B1     		cbz	r0, .L4
 118              	.L5:
 249:Src/main.c    ****   }
 119              		.loc 1 249 3 is_stmt 1 view .LVU37
 120              		.loc 1 250 3 view .LVU38
 121 0060 FEE7     		b	.L5
 122              	.L4:
 231:Src/main.c    ****   PeriphClkInit.Usart2ClockSelection = RCC_USART2CLKSOURCE_PCLK1;
 123              		.loc 1 231 3 view .LVU39
 232:Src/main.c    ****   if (HAL_RCCEx_PeriphCLKConfig(&PeriphClkInit) != HAL_OK) {
 124              		.loc 1 232 38 is_stmt 0 view .LVU40
 125 0062 1390     		str	r0, [sp, #76]
 233:Src/main.c    ****     Error_Handler();
 126              		.loc 1 233 7 view .LVU41
ARM GAS  /var/folders/8c/gyvcglfx7f97kbqb2h83mm_r0000gn/T//ccO7mGw3.s 			page 8


 127 0064 10A8     		add	r0, sp, #64
 231:Src/main.c    ****   PeriphClkInit.Usart2ClockSelection = RCC_USART2CLKSOURCE_PCLK1;
 128              		.loc 1 231 38 view .LVU42
 129 0066 1094     		str	r4, [sp, #64]
 232:Src/main.c    ****   if (HAL_RCCEx_PeriphCLKConfig(&PeriphClkInit) != HAL_OK) {
 130              		.loc 1 232 3 is_stmt 1 view .LVU43
 233:Src/main.c    ****     Error_Handler();
 131              		.loc 1 233 3 view .LVU44
 233:Src/main.c    ****     Error_Handler();
 132              		.loc 1 233 7 is_stmt 0 view .LVU45
 133 0068 FFF7FEFF 		bl	HAL_RCCEx_PeriphCLKConfig
 134              	.LVL5:
 233:Src/main.c    ****     Error_Handler();
 135              		.loc 1 233 6 view .LVU46
 136 006c 00B1     		cbz	r0, .L1
 137              	.L7:
 249:Src/main.c    ****   }
 138              		.loc 1 249 3 is_stmt 1 view .LVU47
 139              		.loc 1 250 3 view .LVU48
 140 006e FEE7     		b	.L7
 141              	.L1:
 236:Src/main.c    **** 
 142              		.loc 1 236 1 is_stmt 0 view .LVU49
 143 0070 26B0     		add	sp, sp, #152
 144              	.LCFI2:
 145              		.cfi_def_cfa_offset 8
 146              		@ sp needed
 147 0072 10BD     		pop	{r4, pc}
 148              		.cfi_endproc
 149              	.LFE127:
 151              		.section	.text.startup.main,"ax",%progbits
 152              		.align	1
 153              		.global	main
 154              		.syntax unified
 155              		.thumb
 156              		.thumb_func
 157              		.fpu fpv4-sp-d16
 159              	main:
 160              	.LFB126:
 121:Src/main.c    ****   /* USER CODE BEGIN 1 */
 161              		.loc 1 121 16 is_stmt 1 view -0
 162              		.cfi_startproc
 163              		@ Volatile: function does not return.
 164              		@ args = 0, pretend = 0, frame = 0
 165              		@ frame_needed = 0, uses_anonymous_args = 0
 130:Src/main.c    **** 
 166              		.loc 1 130 3 view .LVU51
 121:Src/main.c    ****   /* USER CODE BEGIN 1 */
 167              		.loc 1 121 16 is_stmt 0 view .LVU52
 168 0000 07B5     		push	{r0, r1, r2, lr}
 169              	.LCFI3:
 170              		.cfi_def_cfa_offset 16
 171              		.cfi_offset 14, -4
 150:Src/main.c    ****     sprintf(log_buffer, "RFM69 Initialized. Freq %dMHz. Node %d. Group %d.\r\n", freqBand, nodeID, 
 172              		.loc 1 150 7 view .LVU53
 173 0002 164E     		ldr	r6, .L12
 174 0004 164D     		ldr	r5, .L12+4
ARM GAS  /var/folders/8c/gyvcglfx7f97kbqb2h83mm_r0000gn/T//ccO7mGw3.s 			page 9


 175 0006 174C     		ldr	r4, .L12+8
 130:Src/main.c    **** 
 176              		.loc 1 130 3 view .LVU54
 177 0008 FFF7FEFF 		bl	HAL_Init
 178              	.LVL6:
 137:Src/main.c    **** 
 179              		.loc 1 137 3 is_stmt 1 view .LVU55
 180 000c FFF7FEFF 		bl	SystemClock_Config
 181              	.LVL7:
 144:Src/main.c    ****   MX_USART2_UART_Init();
 182              		.loc 1 144 3 view .LVU56
 183 0010 FFF7FEFF 		bl	MX_GPIO_Init
 184              	.LVL8:
 145:Src/main.c    ****   MX_SPI2_Init();
 185              		.loc 1 145 3 view .LVU57
 186 0014 FFF7FEFF 		bl	MX_USART2_UART_Init
 187              	.LVL9:
 146:Src/main.c    ****   /* USER CODE BEGIN 2 */
 188              		.loc 1 146 3 view .LVU58
 189 0018 FFF7FEFF 		bl	MX_SPI2_Init
 190              	.LVL10:
 148:Src/main.c    ****   HAL_Delay(10);
 191              		.loc 1 148 3 view .LVU59
 192 001c FFF7FEFF 		bl	RFM69_RST
 193              	.LVL11:
 149:Src/main.c    ****   if (RFM69_initialize(freqBand, nodeID, networkID)) {
 194              		.loc 1 149 3 view .LVU60
 195 0020 0A20     		movs	r0, #10
 196 0022 FFF7FEFF 		bl	HAL_Delay
 197              	.LVL12:
 150:Src/main.c    ****     sprintf(log_buffer, "RFM69 Initialized. Freq %dMHz. Node %d. Group %d.\r\n", freqBand, nodeID, 
 198              		.loc 1 150 3 view .LVU61
 150:Src/main.c    ****     sprintf(log_buffer, "RFM69 Initialized. Freq %dMHz. Node %d. Group %d.\r\n", freqBand, nodeID, 
 199              		.loc 1 150 7 is_stmt 0 view .LVU62
 200 0026 3288     		ldrh	r2, [r6]
 201 0028 2978     		ldrb	r1, [r5]	@ zero_extendqisi2
 202 002a 2088     		ldrh	r0, [r4]
 203 002c FFF7FEFF 		bl	RFM69_initialize
 204              	.LVL13:
 150:Src/main.c    ****     sprintf(log_buffer, "RFM69 Initialized. Freq %dMHz. Node %d. Group %d.\r\n", freqBand, nodeID, 
 205              		.loc 1 150 6 view .LVU63
 206 0030 58B1     		cbz	r0, .L9
 151:Src/main.c    ****     debug_printf(log_buffer);
 207              		.loc 1 151 5 is_stmt 1 view .LVU64
 208 0032 3388     		ldrh	r3, [r6]
 209 0034 0093     		str	r3, [sp]
 210 0036 2288     		ldrh	r2, [r4]
 211 0038 2B78     		ldrb	r3, [r5]	@ zero_extendqisi2
 212 003a 0B49     		ldr	r1, .L12+12
 213 003c 0B48     		ldr	r0, .L12+16
 214 003e FFF7FEFF 		bl	sprintf
 215              	.LVL14:
 152:Src/main.c    ****   }
 216              		.loc 1 152 5 view .LVU65
 217 0042 0A48     		ldr	r0, .L12+16
 218 0044 FFF7FEFF 		bl	debug_printf
 219              	.LVL15:
ARM GAS  /var/folders/8c/gyvcglfx7f97kbqb2h83mm_r0000gn/T//ccO7mGw3.s 			page 10


 220              	.L10:
 221              	.L11:
 165:Src/main.c    **** /*
 222              		.loc 1 165 3 discriminator 1 view .LVU66
 194:Src/main.c    ****   /* USER CODE END 3 */
 223              		.loc 1 194 3 discriminator 1 view .LVU67
 224 0048 FEE7     		b	.L11
 225              	.L9:
 155:Src/main.c    ****     debug_printf(log_buffer);
 226              		.loc 1 155 5 view .LVU68
 227 004a 0949     		ldr	r1, .L12+20
 228 004c 0748     		ldr	r0, .L12+16
 229 004e FFF7FEFF 		bl	strcpy
 230              	.LVL16:
 156:Src/main.c    ****   }
 231              		.loc 1 156 5 view .LVU69
 232 0052 0648     		ldr	r0, .L12+16
 233 0054 FFF7FEFF 		bl	debug_printf
 234              	.LVL17:
 235 0058 F6E7     		b	.L10
 236              	.L13:
 237 005a 00BF     		.align	2
 238              	.L12:
 239 005c 00000000 		.word	.LANCHOR0
 240 0060 00000000 		.word	.LANCHOR1
 241 0064 00000000 		.word	.LANCHOR2
 242 0068 00000000 		.word	.LC0
 243 006c 00000000 		.word	log_buffer
 244 0070 34000000 		.word	.LC1
 245              		.cfi_endproc
 246              	.LFE126:
 248              		.section	.text.Error_Handler,"ax",%progbits
 249              		.align	1
 250              		.global	Error_Handler
 251              		.syntax unified
 252              		.thumb
 253              		.thumb_func
 254              		.fpu fpv4-sp-d16
 256              	Error_Handler:
 257              	.LFB128:
 246:Src/main.c    ****   /* USER CODE BEGIN Error_Handler_Debug */
 258              		.loc 1 246 26 view -0
 259              		.cfi_startproc
 260              		@ Volatile: function does not return.
 261              		@ args = 0, pretend = 0, frame = 0
 262              		@ frame_needed = 0, uses_anonymous_args = 0
 263              		@ link register save eliminated.
 264              	.L15:
 249:Src/main.c    ****   }
 265              		.loc 1 249 3 discriminator 1 view .LVU71
 266              		.loc 1 250 3 discriminator 1 view .LVU72
 267 0000 FEE7     		b	.L15
 268              		.cfi_endproc
 269              	.LFE128:
 271              		.comm	bufferdata,8,4
 272              		.global	requestACK
 273              		.global	toAddress
ARM GAS  /var/folders/8c/gyvcglfx7f97kbqb2h83mm_r0000gn/T//ccO7mGw3.s 			page 11


 274              		.global	freqBand
 275              		.global	nodeID
 276              		.global	networkID
 277              		.comm	log_buffer,150,1
 278              		.section	.bss.requestACK,"aw",%nobits
 281              	requestACK:
 282 0000 00       		.space	1
 283              		.section	.data.freqBand,"aw"
 284              		.align	1
 285              		.set	.LANCHOR2,. + 0
 288              	freqBand:
 289 0000 B101     		.short	433
 290              		.section	.data.networkID,"aw"
 291              		.align	1
 292              		.set	.LANCHOR0,. + 0
 295              	networkID:
 296 0000 D200     		.short	210
 297              		.section	.data.nodeID,"aw"
 298              		.set	.LANCHOR1,. + 0
 301              	nodeID:
 302 0000 01       		.byte	1
 303              		.section	.data.toAddress,"aw"
 306              	toAddress:
 307 0000 01       		.byte	1
 308              		.section	.rodata.main.str1.1,"aMS",%progbits,1
 309              	.LC0:
 310 0000 52464D36 		.ascii	"RFM69 Initialized. Freq %dMHz. Node %d. Group %d.\015"
 310      3920496E 
 310      69746961 
 310      6C697A65 
 310      642E2046 
 311 0032 0A00     		.ascii	"\012\000"
 312              	.LC1:
 313 0034 52464D36 		.ascii	"RFM69 not connected.\015\012\000"
 313      39206E6F 
 313      7420636F 
 313      6E6E6563 
 313      7465642E 
 314              		.text
 315              	.Letext0:
 316              		.file 2 "/usr/local/gcc-arm-none-eabi-8-2018-q4-major/arm-none-eabi/include/machine/_default_types
 317              		.file 3 "/usr/local/gcc-arm-none-eabi-8-2018-q4-major/arm-none-eabi/include/sys/_stdint.h"
 318              		.file 4 "Drivers/CMSIS/Include/core_cm4.h"
 319              		.file 5 "Drivers/CMSIS/Device/ST/STM32F3xx/Include/system_stm32f3xx.h"
 320              		.file 6 "Drivers/CMSIS/Device/ST/STM32F3xx/Include/stm32f303xe.h"
 321              		.file 7 "/usr/local/gcc-arm-none-eabi-8-2018-q4-major/arm-none-eabi/include/sys/lock.h"
 322              		.file 8 "/usr/local/gcc-arm-none-eabi-8-2018-q4-major/arm-none-eabi/include/sys/_types.h"
 323              		.file 9 "/usr/local/gcc-arm-none-eabi-8-2018-q4-major/lib/gcc/arm-none-eabi/8.2.1/include/stddef.h
 324              		.file 10 "/usr/local/gcc-arm-none-eabi-8-2018-q4-major/arm-none-eabi/include/sys/reent.h"
 325              		.file 11 "Drivers/STM32F3xx_HAL_Driver/Inc/stm32f3xx_hal_def.h"
 326              		.file 12 "Drivers/STM32F3xx_HAL_Driver/Inc/stm32f3xx_hal_rcc.h"
 327              		.file 13 "Drivers/STM32F3xx_HAL_Driver/Inc/stm32f3xx_hal_rcc_ex.h"
 328              		.file 14 "Drivers/STM32F3xx_HAL_Driver/Inc/stm32f3xx_hal_dma.h"
 329              		.file 15 "Drivers/STM32F3xx_HAL_Driver/Inc/stm32f3xx_hal_spi.h"
 330              		.file 16 "Drivers/STM32F3xx_HAL_Driver/Inc/stm32f3xx_hal_uart.h"
 331              		.file 17 "Drivers/STM32F3xx_HAL_Driver/Inc/stm32f3xx_hal.h"
 332              		.file 18 "Inc/spi.h"
ARM GAS  /var/folders/8c/gyvcglfx7f97kbqb2h83mm_r0000gn/T//ccO7mGw3.s 			page 12


 333              		.file 19 "Inc/usart.h"
 334              		.file 20 "Inc/gpio.h"
 335              		.file 21 "Inc/RFM69_externs.h"
 336              		.file 22 "Inc/RFM69.h"
 337              		.file 23 "/usr/local/gcc-arm-none-eabi-8-2018-q4-major/arm-none-eabi/include/stdio.h"
 338              		.file 24 "<built-in>"
ARM GAS  /var/folders/8c/gyvcglfx7f97kbqb2h83mm_r0000gn/T//ccO7mGw3.s 			page 13

