ARM GAS  /var/folders/8c/gyvcglfx7f97kbqb2h83mm_r0000gn/T//cc46LtQr.s 			page 1


   1              		.cpu cortex-m4
   2              		.eabi_attribute 27, 1
   3              		.eabi_attribute 28, 1
   4              		.eabi_attribute 20, 1
   5              		.eabi_attribute 21, 1
   6              		.eabi_attribute 23, 3
   7              		.eabi_attribute 24, 1
   8              		.eabi_attribute 25, 1
   9              		.eabi_attribute 26, 1
  10              		.eabi_attribute 30, 4
  11              		.eabi_attribute 34, 1
  12              		.eabi_attribute 18, 4
  13              		.file	"RFM69_externs.c"
  14              		.text
  15              	.Ltext0:
  16              		.cfi_sections	.debug_frame
  17              		.section	.text.RFM69_RST,"ax",%progbits
  18              		.align	1
  19              		.global	RFM69_RST
  20              		.arch armv7e-m
  21              		.syntax unified
  22              		.thumb
  23              		.thumb_func
  24              		.fpu fpv4-sp-d16
  26              	RFM69_RST:
  27              	.LFB126:
  28              		.file 1 "Src/RFM69_externs.c"
   1:Src/RFM69_externs.c **** #include "RFM69_externs.h"
   2:Src/RFM69_externs.c **** #include "gpio.h"
   3:Src/RFM69_externs.c **** #include "usart.h"
   4:Src/RFM69_externs.c **** #include <stdbool.h>
   5:Src/RFM69_externs.c **** #include <stdint.h>
   6:Src/RFM69_externs.c **** 
   7:Src/RFM69_externs.c **** bool GO_AHEAD_READ_RFM69;
   8:Src/RFM69_externs.c **** bool rststate;
   9:Src/RFM69_externs.c **** char log_buffer[30];
  10:Src/RFM69_externs.c **** 
  11:Src/RFM69_externs.c **** 
  12:Src/RFM69_externs.c **** void RFM69_RST(void) {
  29              		.loc 1 12 22 view -0
  30              		.cfi_startproc
  31              		@ args = 0, pretend = 0, frame = 0
  32              		@ frame_needed = 0, uses_anonymous_args = 0
  13:Src/RFM69_externs.c ****   HAL_GPIO_WritePin(GPIOA, GPIO_PIN_10, 1);
  33              		.loc 1 13 3 view .LVU1
  12:Src/RFM69_externs.c ****   HAL_GPIO_WritePin(GPIOA, GPIO_PIN_10, 1);
  34              		.loc 1 12 22 is_stmt 0 view .LVU2
  35 0000 08B5     		push	{r3, lr}
  36              	.LCFI0:
  37              		.cfi_def_cfa_offset 8
  38              		.cfi_offset 3, -8
  39              		.cfi_offset 14, -4
  40              		.loc 1 13 3 view .LVU3
  41 0002 0122     		movs	r2, #1
  42 0004 4FF48061 		mov	r1, #1024
  43 0008 4FF09040 		mov	r0, #1207959552
  44 000c FFF7FEFF 		bl	HAL_GPIO_WritePin
ARM GAS  /var/folders/8c/gyvcglfx7f97kbqb2h83mm_r0000gn/T//cc46LtQr.s 			page 2


  45              	.LVL0:
  14:Src/RFM69_externs.c ****   HAL_Delay(1);
  46              		.loc 1 14 3 is_stmt 1 view .LVU4
  47 0010 0120     		movs	r0, #1
  48 0012 FFF7FEFF 		bl	HAL_Delay
  49              	.LVL1:
  15:Src/RFM69_externs.c ****   HAL_GPIO_WritePin(GPIOA, GPIO_PIN_10, 0);
  50              		.loc 1 15 3 view .LVU5
  51 0016 4FF09040 		mov	r0, #1207959552
  52 001a 0022     		movs	r2, #0
  53 001c 4FF48061 		mov	r1, #1024
  54 0020 FFF7FEFF 		bl	HAL_GPIO_WritePin
  55              	.LVL2:
  16:Src/RFM69_externs.c ****   HAL_Delay(50);
  56              		.loc 1 16 3 view .LVU6
  57 0024 3220     		movs	r0, #50
  17:Src/RFM69_externs.c **** }
  58              		.loc 1 17 1 is_stmt 0 view .LVU7
  59 0026 BDE80840 		pop	{r3, lr}
  60              	.LCFI1:
  61              		.cfi_restore 14
  62              		.cfi_restore 3
  63              		.cfi_def_cfa_offset 0
  16:Src/RFM69_externs.c ****   HAL_Delay(50);
  64              		.loc 1 16 3 view .LVU8
  65 002a FFF7FEBF 		b	HAL_Delay
  66              	.LVL3:
  67              		.cfi_endproc
  68              	.LFE126:
  70              		.section	.text.noInterrupts,"ax",%progbits
  71              		.align	1
  72              		.global	noInterrupts
  73              		.syntax unified
  74              		.thumb
  75              		.thumb_func
  76              		.fpu fpv4-sp-d16
  78              	noInterrupts:
  79              	.LFB127:
  18:Src/RFM69_externs.c **** 
  19:Src/RFM69_externs.c **** // extern functions
  20:Src/RFM69_externs.c **** bool noInterrupts()                // function to disable interrupts
  21:Src/RFM69_externs.c **** {
  80              		.loc 1 21 1 is_stmt 1 view -0
  81              		.cfi_startproc
  82              		@ args = 0, pretend = 0, frame = 0
  83              		@ frame_needed = 0, uses_anonymous_args = 0
  84              		@ link register save eliminated.
  22:Src/RFM69_externs.c **** GO_AHEAD_READ_RFM69 = 0;
  85              		.loc 1 22 1 view .LVU10
  86              		.loc 1 22 21 is_stmt 0 view .LVU11
  87 0000 024B     		ldr	r3, .L3
  88 0002 0022     		movs	r2, #0
  89 0004 1A70     		strb	r2, [r3]
  23:Src/RFM69_externs.c **** return true;
  90              		.loc 1 23 1 is_stmt 1 view .LVU12
  24:Src/RFM69_externs.c **** }
  91              		.loc 1 24 1 is_stmt 0 view .LVU13
ARM GAS  /var/folders/8c/gyvcglfx7f97kbqb2h83mm_r0000gn/T//cc46LtQr.s 			page 3


  92 0006 0120     		movs	r0, #1
  93 0008 7047     		bx	lr
  94              	.L4:
  95 000a 00BF     		.align	2
  96              	.L3:
  97 000c 00000000 		.word	GO_AHEAD_READ_RFM69
  98              		.cfi_endproc
  99              	.LFE127:
 101              		.section	.text.interrupts,"ax",%progbits
 102              		.align	1
 103              		.global	interrupts
 104              		.syntax unified
 105              		.thumb
 106              		.thumb_func
 107              		.fpu fpv4-sp-d16
 109              	interrupts:
 110              	.LFB128:
  25:Src/RFM69_externs.c **** 
  26:Src/RFM69_externs.c **** bool interrupts()                  // function to enable interrupts
  27:Src/RFM69_externs.c **** {
 111              		.loc 1 27 1 is_stmt 1 view -0
 112              		.cfi_startproc
 113              		@ args = 0, pretend = 0, frame = 0
 114              		@ frame_needed = 0, uses_anonymous_args = 0
 115              		@ link register save eliminated.
  28:Src/RFM69_externs.c **** GO_AHEAD_READ_RFM69 = 1;
 116              		.loc 1 28 1 view .LVU15
 117              		.loc 1 28 21 is_stmt 0 view .LVU16
 118 0000 014B     		ldr	r3, .L6
 119 0002 0120     		movs	r0, #1
 120 0004 1870     		strb	r0, [r3]
  29:Src/RFM69_externs.c **** return true;
 121              		.loc 1 29 1 is_stmt 1 view .LVU17
  30:Src/RFM69_externs.c **** }
 122              		.loc 1 30 1 is_stmt 0 view .LVU18
 123 0006 7047     		bx	lr
 124              	.L7:
 125              		.align	2
 126              	.L6:
 127 0008 00000000 		.word	GO_AHEAD_READ_RFM69
 128              		.cfi_endproc
 129              	.LFE128:
 131              		.section	.text.RFM69_SetCSPin,"ax",%progbits
 132              		.align	1
 133              		.global	RFM69_SetCSPin
 134              		.syntax unified
 135              		.thumb
 136              		.thumb_func
 137              		.fpu fpv4-sp-d16
 139              	RFM69_SetCSPin:
 140              	.LVL4:
 141              	.LFB129:
  31:Src/RFM69_externs.c **** 
  32:Src/RFM69_externs.c **** void RFM69_SetCSPin(bool SetCSValue)          // function to control the GPIO tied to RFM69 chip se
  33:Src/RFM69_externs.c **** {
 142              		.loc 1 33 1 is_stmt 1 view -0
 143              		.cfi_startproc
ARM GAS  /var/folders/8c/gyvcglfx7f97kbqb2h83mm_r0000gn/T//cc46LtQr.s 			page 4


 144              		@ args = 0, pretend = 0, frame = 0
 145              		@ frame_needed = 0, uses_anonymous_args = 0
 146              		@ link register save eliminated.
  34:Src/RFM69_externs.c **** HAL_GPIO_WritePin(GPIOB, GPIO_PIN_3, SetCSValue); //GPIOA, GPIO_PIN_5 is LED on Nucleao, for testin
 147              		.loc 1 34 1 view .LVU20
 148 0000 0246     		mov	r2, r0
 149 0002 0821     		movs	r1, #8
 150 0004 0148     		ldr	r0, .L9
 151              	.LVL5:
 152              		.loc 1 34 1 is_stmt 0 view .LVU21
 153 0006 FFF7FEBF 		b	HAL_GPIO_WritePin
 154              	.LVL6:
 155              	.L10:
 156 000a 00BF     		.align	2
 157              	.L9:
 158 000c 00040048 		.word	1207960576
 159              		.cfi_endproc
 160              	.LFE129:
 162              		.section	.text.RFM69_ReadDIO0Pin,"ax",%progbits
 163              		.align	1
 164              		.global	RFM69_ReadDIO0Pin
 165              		.syntax unified
 166              		.thumb
 167              		.thumb_func
 168              		.fpu fpv4-sp-d16
 170              	RFM69_ReadDIO0Pin:
 171              	.LFB130:
  35:Src/RFM69_externs.c **** }
  36:Src/RFM69_externs.c **** 
  37:Src/RFM69_externs.c **** bool RFM69_ReadDIO0Pin(void)       // function to read GPIO connected to RFM69 DIO0 (RFM69 interrup
  38:Src/RFM69_externs.c **** {
 172              		.loc 1 38 1 is_stmt 1 view -0
 173              		.cfi_startproc
 174              		@ args = 0, pretend = 0, frame = 0
 175              		@ frame_needed = 0, uses_anonymous_args = 0
  39:Src/RFM69_externs.c ****   if (GO_AHEAD_READ_RFM69 == 1 && HAL_GPIO_ReadPin(GPIOA, GPIO_PIN_9) == 1)
 176              		.loc 1 39 3 view .LVU23
  38:Src/RFM69_externs.c ****   if (GO_AHEAD_READ_RFM69 == 1 && HAL_GPIO_ReadPin(GPIOA, GPIO_PIN_9) == 1)
 177              		.loc 1 38 1 is_stmt 0 view .LVU24
 178 0000 08B5     		push	{r3, lr}
 179              	.LCFI2:
 180              		.cfi_def_cfa_offset 8
 181              		.cfi_offset 3, -8
 182              		.cfi_offset 14, -4
 183              		.loc 1 39 27 view .LVU25
 184 0002 064B     		ldr	r3, .L16
 185 0004 1878     		ldrb	r0, [r3]	@ zero_extendqisi2
 186              		.loc 1 39 6 view .LVU26
 187 0006 40B1     		cbz	r0, .L12
 188              		.loc 1 39 35 discriminator 1 view .LVU27
 189 0008 4FF40071 		mov	r1, #512
 190 000c 4FF09040 		mov	r0, #1207959552
 191 0010 FFF7FEFF 		bl	HAL_GPIO_ReadPin
 192              	.LVL7:
 193              		.loc 1 39 32 discriminator 1 view .LVU28
 194 0014 431E     		subs	r3, r0, #1
 195 0016 5842     		rsbs	r0, r3, #0
ARM GAS  /var/folders/8c/gyvcglfx7f97kbqb2h83mm_r0000gn/T//cc46LtQr.s 			page 5


 196 0018 5841     		adcs	r0, r0, r3
 197              	.L12:
  40:Src/RFM69_externs.c ****   {
  41:Src/RFM69_externs.c ****     return true;
  42:Src/RFM69_externs.c ****   }
  43:Src/RFM69_externs.c ****   else
  44:Src/RFM69_externs.c ****   {
  45:Src/RFM69_externs.c ****     return false;
  46:Src/RFM69_externs.c ****   }
  47:Src/RFM69_externs.c **** }
 198              		.loc 1 47 1 view .LVU29
 199 001a 08BD     		pop	{r3, pc}
 200              	.L17:
 201              		.align	2
 202              	.L16:
 203 001c 00000000 		.word	GO_AHEAD_READ_RFM69
 204              		.cfi_endproc
 205              	.LFE130:
 207              		.section	.text.Timeout_IsTimeout1,"ax",%progbits
 208              		.align	1
 209              		.global	Timeout_IsTimeout1
 210              		.syntax unified
 211              		.thumb
 212              		.thumb_func
 213              		.fpu fpv4-sp-d16
 215              	Timeout_IsTimeout1:
 216              	.LFB131:
  48:Src/RFM69_externs.c **** 
  49:Src/RFM69_externs.c **** /*
  50:Src/RFM69_externs.c **** //functions below provided elsewhere.
  51:Src/RFM69_externs.c **** uint8_t SPI_transfer8(uint8_t)     // function to transfer 1byte on SPI with readback
  52:Src/RFM69_externs.c **** {
  53:Src/RFM69_externs.c **** 
  54:Src/RFM69_externs.c **** }
  55:Src/RFM69_externs.c **** 
  56:Src/RFM69_externs.c **** 
  57:Src/RFM69_externs.c **** void SerialPrint(char*)            // function to print to serial port a string
  58:Src/RFM69_externs.c **** {
  59:Src/RFM69_externs.c **** 
  60:Src/RFM69_externs.c **** }
  61:Src/RFM69_externs.c **** */
  62:Src/RFM69_externs.c **** static uint32_t thistimeout1;
  63:Src/RFM69_externs.c **** static uint32_t thistimeout2;
  64:Src/RFM69_externs.c **** 
  65:Src/RFM69_externs.c **** bool Timeout_IsTimeout1(void)      // function for timeout handling, checks if previously set timeo
  66:Src/RFM69_externs.c **** {
 217              		.loc 1 66 1 is_stmt 1 view -0
 218              		.cfi_startproc
 219              		@ args = 0, pretend = 0, frame = 0
 220              		@ frame_needed = 0, uses_anonymous_args = 0
  67:Src/RFM69_externs.c ****   if(HAL_GetTick() >= thistimeout1)
 221              		.loc 1 67 3 view .LVU31
  66:Src/RFM69_externs.c ****   if(HAL_GetTick() >= thistimeout1)
 222              		.loc 1 66 1 is_stmt 0 view .LVU32
 223 0000 08B5     		push	{r3, lr}
 224              	.LCFI3:
 225              		.cfi_def_cfa_offset 8
ARM GAS  /var/folders/8c/gyvcglfx7f97kbqb2h83mm_r0000gn/T//cc46LtQr.s 			page 6


 226              		.cfi_offset 3, -8
 227              		.cfi_offset 14, -4
 228              		.loc 1 67 6 view .LVU33
 229 0002 FFF7FEFF 		bl	HAL_GetTick
 230              	.LVL8:
 231              		.loc 1 67 20 view .LVU34
 232 0006 074B     		ldr	r3, .L21
 233              		.loc 1 67 5 view .LVU35
 234 0008 1B68     		ldr	r3, [r3]
 235 000a 9842     		cmp	r0, r3
 236 000c 08D3     		bcc	.L20
  68:Src/RFM69_externs.c ****     {
  69:Src/RFM69_externs.c ****       sprintf(log_buffer,"TimeOut1!\r\n");
 237              		.loc 1 69 7 is_stmt 1 view .LVU36
 238 000e 0649     		ldr	r1, .L21+4
 239 0010 0648     		ldr	r0, .L21+8
 240 0012 FFF7FEFF 		bl	strcpy
 241              	.LVL9:
  70:Src/RFM69_externs.c ****       debug_printf(log_buffer);
 242              		.loc 1 70 7 view .LVU37
 243 0016 0548     		ldr	r0, .L21+8
 244 0018 FFF7FEFF 		bl	debug_printf
 245              	.LVL10:
  71:Src/RFM69_externs.c ****       return true;
 246              		.loc 1 71 7 view .LVU38
 247              		.loc 1 71 14 is_stmt 0 view .LVU39
 248 001c 0120     		movs	r0, #1
 249              	.L19:
  72:Src/RFM69_externs.c ****     }
  73:Src/RFM69_externs.c ****   else
  74:Src/RFM69_externs.c ****   {
  75:Src/RFM69_externs.c ****     return false;
  76:Src/RFM69_externs.c ****   }
  77:Src/RFM69_externs.c **** }
 250              		.loc 1 77 1 view .LVU40
 251 001e 08BD     		pop	{r3, pc}
 252              	.L20:
  75:Src/RFM69_externs.c ****   }
 253              		.loc 1 75 12 view .LVU41
 254 0020 0020     		movs	r0, #0
 255 0022 FCE7     		b	.L19
 256              	.L22:
 257              		.align	2
 258              	.L21:
 259 0024 00000000 		.word	.LANCHOR0
 260 0028 00000000 		.word	.LC0
 261 002c 00000000 		.word	log_buffer
 262              		.cfi_endproc
 263              	.LFE131:
 265              		.section	.text.Timeout_SetTimeout1,"ax",%progbits
 266              		.align	1
 267              		.global	Timeout_SetTimeout1
 268              		.syntax unified
 269              		.thumb
 270              		.thumb_func
 271              		.fpu fpv4-sp-d16
 273              	Timeout_SetTimeout1:
ARM GAS  /var/folders/8c/gyvcglfx7f97kbqb2h83mm_r0000gn/T//cc46LtQr.s 			page 7


 274              	.LVL11:
 275              	.LFB132:
  78:Src/RFM69_externs.c **** 
  79:Src/RFM69_externs.c **** void Timeout_SetTimeout1(uint16_t settimeoutvalue) // function for timeout handling, sets a timeout
  80:Src/RFM69_externs.c **** {
 276              		.loc 1 80 1 is_stmt 1 view -0
 277              		.cfi_startproc
 278              		@ args = 0, pretend = 0, frame = 0
 279              		@ frame_needed = 0, uses_anonymous_args = 0
  81:Src/RFM69_externs.c ****   thistimeout1 = HAL_GetTick() + settimeoutvalue;
 280              		.loc 1 81 3 view .LVU43
  80:Src/RFM69_externs.c ****   thistimeout1 = HAL_GetTick() + settimeoutvalue;
 281              		.loc 1 80 1 is_stmt 0 view .LVU44
 282 0000 10B5     		push	{r4, lr}
 283              	.LCFI4:
 284              		.cfi_def_cfa_offset 8
 285              		.cfi_offset 4, -8
 286              		.cfi_offset 14, -4
  80:Src/RFM69_externs.c ****   thistimeout1 = HAL_GetTick() + settimeoutvalue;
 287              		.loc 1 80 1 view .LVU45
 288 0002 0446     		mov	r4, r0
 289              		.loc 1 81 18 view .LVU46
 290 0004 FFF7FEFF 		bl	HAL_GetTick
 291              	.LVL12:
 292              		.loc 1 81 16 view .LVU47
 293 0008 014B     		ldr	r3, .L24
 294              		.loc 1 81 32 view .LVU48
 295 000a 2044     		add	r0, r0, r4
 296              		.loc 1 81 16 view .LVU49
 297 000c 1860     		str	r0, [r3]
  82:Src/RFM69_externs.c ****   //sprintf(log_buffer,"TimeOutSet %d and Millis = %d\r\n",thistimeout1, HAL_GetTick());
  83:Src/RFM69_externs.c ****   //debug_printf(log_buffer);
  84:Src/RFM69_externs.c **** }
 298              		.loc 1 84 1 view .LVU50
 299 000e 10BD     		pop	{r4, pc}
 300              	.L25:
 301              		.align	2
 302              	.L24:
 303 0010 00000000 		.word	.LANCHOR0
 304              		.cfi_endproc
 305              	.LFE132:
 307              		.section	.text.Timeout_IsTimeout2,"ax",%progbits
 308              		.align	1
 309              		.global	Timeout_IsTimeout2
 310              		.syntax unified
 311              		.thumb
 312              		.thumb_func
 313              		.fpu fpv4-sp-d16
 315              	Timeout_IsTimeout2:
 316              	.LFB133:
  85:Src/RFM69_externs.c **** 
  86:Src/RFM69_externs.c **** 
  87:Src/RFM69_externs.c **** 
  88:Src/RFM69_externs.c **** bool Timeout_IsTimeout2(void)      // function for timeout handling, checks if previously set timeo
  89:Src/RFM69_externs.c **** {
 317              		.loc 1 89 1 is_stmt 1 view -0
 318              		.cfi_startproc
ARM GAS  /var/folders/8c/gyvcglfx7f97kbqb2h83mm_r0000gn/T//cc46LtQr.s 			page 8


 319              		@ args = 0, pretend = 0, frame = 0
 320              		@ frame_needed = 0, uses_anonymous_args = 0
  90:Src/RFM69_externs.c ****   if(HAL_GetTick() >= thistimeout2)
 321              		.loc 1 90 3 view .LVU52
  89:Src/RFM69_externs.c ****   if(HAL_GetTick() >= thistimeout2)
 322              		.loc 1 89 1 is_stmt 0 view .LVU53
 323 0000 08B5     		push	{r3, lr}
 324              	.LCFI5:
 325              		.cfi_def_cfa_offset 8
 326              		.cfi_offset 3, -8
 327              		.cfi_offset 14, -4
 328              		.loc 1 90 6 view .LVU54
 329 0002 FFF7FEFF 		bl	HAL_GetTick
 330              	.LVL13:
 331              		.loc 1 90 20 view .LVU55
 332 0006 074B     		ldr	r3, .L29
 333              		.loc 1 90 5 view .LVU56
 334 0008 1B68     		ldr	r3, [r3]
 335 000a 9842     		cmp	r0, r3
 336 000c 08D3     		bcc	.L28
  91:Src/RFM69_externs.c ****     {
  92:Src/RFM69_externs.c ****       sprintf(log_buffer,"TimeOut2!\r\n");
 337              		.loc 1 92 7 is_stmt 1 view .LVU57
 338 000e 0649     		ldr	r1, .L29+4
 339 0010 0648     		ldr	r0, .L29+8
 340 0012 FFF7FEFF 		bl	strcpy
 341              	.LVL14:
  93:Src/RFM69_externs.c ****       debug_printf(log_buffer);
 342              		.loc 1 93 7 view .LVU58
 343 0016 0548     		ldr	r0, .L29+8
 344 0018 FFF7FEFF 		bl	debug_printf
 345              	.LVL15:
  94:Src/RFM69_externs.c ****       return true;
 346              		.loc 1 94 7 view .LVU59
 347              		.loc 1 94 14 is_stmt 0 view .LVU60
 348 001c 0120     		movs	r0, #1
 349              	.L27:
  95:Src/RFM69_externs.c ****     }
  96:Src/RFM69_externs.c ****   else
  97:Src/RFM69_externs.c ****   {
  98:Src/RFM69_externs.c ****     return false;
  99:Src/RFM69_externs.c ****   }
 100:Src/RFM69_externs.c **** }
 350              		.loc 1 100 1 view .LVU61
 351 001e 08BD     		pop	{r3, pc}
 352              	.L28:
  98:Src/RFM69_externs.c ****   }
 353              		.loc 1 98 12 view .LVU62
 354 0020 0020     		movs	r0, #0
 355 0022 FCE7     		b	.L27
 356              	.L30:
 357              		.align	2
 358              	.L29:
 359 0024 00000000 		.word	.LANCHOR1
 360 0028 00000000 		.word	.LC1
 361 002c 00000000 		.word	log_buffer
 362              		.cfi_endproc
ARM GAS  /var/folders/8c/gyvcglfx7f97kbqb2h83mm_r0000gn/T//cc46LtQr.s 			page 9


 363              	.LFE133:
 365              		.section	.text.Timeout_SetTimeout2,"ax",%progbits
 366              		.align	1
 367              		.global	Timeout_SetTimeout2
 368              		.syntax unified
 369              		.thumb
 370              		.thumb_func
 371              		.fpu fpv4-sp-d16
 373              	Timeout_SetTimeout2:
 374              	.LVL16:
 375              	.LFB134:
 101:Src/RFM69_externs.c **** 
 102:Src/RFM69_externs.c **** void Timeout_SetTimeout2(uint16_t settimeoutvalue) // function for timeout handling, sets a timeout
 103:Src/RFM69_externs.c **** {
 376              		.loc 1 103 1 is_stmt 1 view -0
 377              		.cfi_startproc
 378              		@ args = 0, pretend = 0, frame = 0
 379              		@ frame_needed = 0, uses_anonymous_args = 0
 104:Src/RFM69_externs.c ****   thistimeout2 = HAL_GetTick() + settimeoutvalue;
 380              		.loc 1 104 3 view .LVU64
 103:Src/RFM69_externs.c ****   thistimeout2 = HAL_GetTick() + settimeoutvalue;
 381              		.loc 1 103 1 is_stmt 0 view .LVU65
 382 0000 10B5     		push	{r4, lr}
 383              	.LCFI6:
 384              		.cfi_def_cfa_offset 8
 385              		.cfi_offset 4, -8
 386              		.cfi_offset 14, -4
 103:Src/RFM69_externs.c ****   thistimeout2 = HAL_GetTick() + settimeoutvalue;
 387              		.loc 1 103 1 view .LVU66
 388 0002 0446     		mov	r4, r0
 389              		.loc 1 104 18 view .LVU67
 390 0004 FFF7FEFF 		bl	HAL_GetTick
 391              	.LVL17:
 392              		.loc 1 104 16 view .LVU68
 393 0008 014B     		ldr	r3, .L32
 394              		.loc 1 104 32 view .LVU69
 395 000a 2044     		add	r0, r0, r4
 396              		.loc 1 104 16 view .LVU70
 397 000c 1860     		str	r0, [r3]
 105:Src/RFM69_externs.c **** }
 398              		.loc 1 105 1 view .LVU71
 399 000e 10BD     		pop	{r4, pc}
 400              	.L33:
 401              		.align	2
 402              	.L32:
 403 0010 00000000 		.word	.LANCHOR1
 404              		.cfi_endproc
 405              	.LFE134:
 407              		.comm	log_buffer,30,1
 408              		.comm	rststate,1,1
 409              		.comm	GO_AHEAD_READ_RFM69,1,1
 410              		.section	.bss.thistimeout1,"aw",%nobits
 411              		.align	2
 412              		.set	.LANCHOR0,. + 0
 415              	thistimeout1:
 416 0000 00000000 		.space	4
 417              		.section	.bss.thistimeout2,"aw",%nobits
ARM GAS  /var/folders/8c/gyvcglfx7f97kbqb2h83mm_r0000gn/T//cc46LtQr.s 			page 10


 418              		.align	2
 419              		.set	.LANCHOR1,. + 0
 422              	thistimeout2:
 423 0000 00000000 		.space	4
 424              		.section	.rodata.Timeout_IsTimeout1.str1.1,"aMS",%progbits,1
 425              	.LC0:
 426 0000 54696D65 		.ascii	"TimeOut1!\015\012\000"
 426      4F757431 
 426      210D0A00 
 427              		.section	.rodata.Timeout_IsTimeout2.str1.1,"aMS",%progbits,1
 428              	.LC1:
 429 0000 54696D65 		.ascii	"TimeOut2!\015\012\000"
 429      4F757432 
 429      210D0A00 
 430              		.text
 431              	.Letext0:
 432              		.file 2 "/usr/local/gcc-arm-none-eabi-8-2018-q4-major/arm-none-eabi/include/machine/_default_types
 433              		.file 3 "/usr/local/gcc-arm-none-eabi-8-2018-q4-major/arm-none-eabi/include/sys/_stdint.h"
 434              		.file 4 "Drivers/CMSIS/Include/core_cm4.h"
 435              		.file 5 "Drivers/CMSIS/Device/ST/STM32F3xx/Include/system_stm32f3xx.h"
 436              		.file 6 "Drivers/CMSIS/Device/ST/STM32F3xx/Include/stm32f303xe.h"
 437              		.file 7 "/usr/local/gcc-arm-none-eabi-8-2018-q4-major/arm-none-eabi/include/sys/lock.h"
 438              		.file 8 "/usr/local/gcc-arm-none-eabi-8-2018-q4-major/arm-none-eabi/include/sys/_types.h"
 439              		.file 9 "/usr/local/gcc-arm-none-eabi-8-2018-q4-major/lib/gcc/arm-none-eabi/8.2.1/include/stddef.h
 440              		.file 10 "/usr/local/gcc-arm-none-eabi-8-2018-q4-major/arm-none-eabi/include/sys/reent.h"
 441              		.file 11 "Drivers/STM32F3xx_HAL_Driver/Inc/stm32f3xx_hal_def.h"
 442              		.file 12 "Drivers/STM32F3xx_HAL_Driver/Inc/stm32f3xx_hal_dma.h"
 443              		.file 13 "Drivers/STM32F3xx_HAL_Driver/Inc/stm32f3xx_hal_uart.h"
 444              		.file 14 "Drivers/STM32F3xx_HAL_Driver/Inc/stm32f3xx_hal.h"
 445              		.file 15 "Inc/usart.h"
 446              		.file 16 "Drivers/STM32F3xx_HAL_Driver/Inc/stm32f3xx_hal_gpio.h"
 447              		.file 17 "<built-in>"
ARM GAS  /var/folders/8c/gyvcglfx7f97kbqb2h83mm_r0000gn/T//cc46LtQr.s 			page 11

