ARM GAS  /var/folders/8c/gyvcglfx7f97kbqb2h83mm_r0000gn/T//ccZyiauy.s 			page 1


   1              		.cpu cortex-m4
   2              		.eabi_attribute 27, 1
   3              		.eabi_attribute 28, 1
   4              		.eabi_attribute 20, 1
   5              		.eabi_attribute 21, 1
   6              		.eabi_attribute 23, 3
   7              		.eabi_attribute 24, 1
   8              		.eabi_attribute 25, 1
   9              		.eabi_attribute 26, 1
  10              		.eabi_attribute 30, 4
  11              		.eabi_attribute 34, 1
  12              		.eabi_attribute 18, 4
  13              		.file	"stm32f3xx_hal_rcc.c"
  14              		.text
  15              	.Ltext0:
  16              		.cfi_sections	.debug_frame
  17              		.section	.text.HAL_RCC_DeInit,"ax",%progbits
  18              		.align	1
  19              		.global	HAL_RCC_DeInit
  20              		.arch armv7e-m
  21              		.syntax unified
  22              		.thumb
  23              		.thumb_func
  24              		.fpu fpv4-sp-d16
  26              	HAL_RCC_DeInit:
  27              	.LFB126:
  28              		.file 1 "Drivers/STM32F3xx_HAL_Driver/Src/stm32f3xx_hal_rcc.c"
   1:Drivers/STM32F3xx_HAL_Driver/Src/stm32f3xx_hal_rcc.c **** /**
   2:Drivers/STM32F3xx_HAL_Driver/Src/stm32f3xx_hal_rcc.c ****   ******************************************************************************
   3:Drivers/STM32F3xx_HAL_Driver/Src/stm32f3xx_hal_rcc.c ****   * @file    stm32f3xx_hal_rcc.c
   4:Drivers/STM32F3xx_HAL_Driver/Src/stm32f3xx_hal_rcc.c ****   * @author  MCD Application Team
   5:Drivers/STM32F3xx_HAL_Driver/Src/stm32f3xx_hal_rcc.c ****   * @brief   RCC HAL module driver.
   6:Drivers/STM32F3xx_HAL_Driver/Src/stm32f3xx_hal_rcc.c ****   *          This file provides firmware functions to manage the following 
   7:Drivers/STM32F3xx_HAL_Driver/Src/stm32f3xx_hal_rcc.c ****   *          functionalities of the Reset and Clock Control (RCC) peripheral:
   8:Drivers/STM32F3xx_HAL_Driver/Src/stm32f3xx_hal_rcc.c ****   *           + Initialization and de-initialization functions
   9:Drivers/STM32F3xx_HAL_Driver/Src/stm32f3xx_hal_rcc.c ****   *           + Peripheral Control functions
  10:Drivers/STM32F3xx_HAL_Driver/Src/stm32f3xx_hal_rcc.c ****   *       
  11:Drivers/STM32F3xx_HAL_Driver/Src/stm32f3xx_hal_rcc.c ****   @verbatim                
  12:Drivers/STM32F3xx_HAL_Driver/Src/stm32f3xx_hal_rcc.c ****   ==============================================================================
  13:Drivers/STM32F3xx_HAL_Driver/Src/stm32f3xx_hal_rcc.c ****                       ##### RCC specific features #####
  14:Drivers/STM32F3xx_HAL_Driver/Src/stm32f3xx_hal_rcc.c ****   ==============================================================================
  15:Drivers/STM32F3xx_HAL_Driver/Src/stm32f3xx_hal_rcc.c ****     [..]  
  16:Drivers/STM32F3xx_HAL_Driver/Src/stm32f3xx_hal_rcc.c ****       After reset the device is running from Internal High Speed oscillator
  17:Drivers/STM32F3xx_HAL_Driver/Src/stm32f3xx_hal_rcc.c ****       (HSI 8MHz) with Flash 0 wait state, Flash prefetch buffer is enabled, 
  18:Drivers/STM32F3xx_HAL_Driver/Src/stm32f3xx_hal_rcc.c ****       and all peripherals are off except internal SRAM, Flash and JTAG.
  19:Drivers/STM32F3xx_HAL_Driver/Src/stm32f3xx_hal_rcc.c ****       (+) There is no prescaler on High speed (AHB) and Low speed (APB) buses;
  20:Drivers/STM32F3xx_HAL_Driver/Src/stm32f3xx_hal_rcc.c ****           all peripherals mapped on these buses are running at HSI speed.
  21:Drivers/STM32F3xx_HAL_Driver/Src/stm32f3xx_hal_rcc.c ****       (+) The clock for all peripherals is switched off, except the SRAM and FLASH.
  22:Drivers/STM32F3xx_HAL_Driver/Src/stm32f3xx_hal_rcc.c ****       (+) All GPIOs are in input floating state, except the JTAG pins which
  23:Drivers/STM32F3xx_HAL_Driver/Src/stm32f3xx_hal_rcc.c ****           are assigned to be used for debug purpose.
  24:Drivers/STM32F3xx_HAL_Driver/Src/stm32f3xx_hal_rcc.c ****     [..] Once the device started from reset, the user application has to:
  25:Drivers/STM32F3xx_HAL_Driver/Src/stm32f3xx_hal_rcc.c ****       (+) Configure the clock source to be used to drive the System clock
  26:Drivers/STM32F3xx_HAL_Driver/Src/stm32f3xx_hal_rcc.c ****           (if the application needs higher frequency/performance)
  27:Drivers/STM32F3xx_HAL_Driver/Src/stm32f3xx_hal_rcc.c ****       (+) Configure the System clock frequency and Flash settings  
  28:Drivers/STM32F3xx_HAL_Driver/Src/stm32f3xx_hal_rcc.c ****       (+) Configure the AHB and APB buses prescalers
  29:Drivers/STM32F3xx_HAL_Driver/Src/stm32f3xx_hal_rcc.c ****       (+) Enable the clock for the peripheral(s) to be used
  30:Drivers/STM32F3xx_HAL_Driver/Src/stm32f3xx_hal_rcc.c ****       (+) Configure the clock source(s) for peripherals whose clocks are not
ARM GAS  /var/folders/8c/gyvcglfx7f97kbqb2h83mm_r0000gn/T//ccZyiauy.s 			page 2


  31:Drivers/STM32F3xx_HAL_Driver/Src/stm32f3xx_hal_rcc.c ****           derived from the System clock (RTC, ADC, I2C, I2S, TIM, USB FS)
  32:Drivers/STM32F3xx_HAL_Driver/Src/stm32f3xx_hal_rcc.c **** 
  33:Drivers/STM32F3xx_HAL_Driver/Src/stm32f3xx_hal_rcc.c ****                       ##### RCC Limitations #####
  34:Drivers/STM32F3xx_HAL_Driver/Src/stm32f3xx_hal_rcc.c ****   ==============================================================================
  35:Drivers/STM32F3xx_HAL_Driver/Src/stm32f3xx_hal_rcc.c ****     [..]  
  36:Drivers/STM32F3xx_HAL_Driver/Src/stm32f3xx_hal_rcc.c ****       A delay between an RCC peripheral clock enable and the effective peripheral 
  37:Drivers/STM32F3xx_HAL_Driver/Src/stm32f3xx_hal_rcc.c ****       enabling should be taken into account in order to manage the peripheral read/write 
  38:Drivers/STM32F3xx_HAL_Driver/Src/stm32f3xx_hal_rcc.c ****       from/to registers.
  39:Drivers/STM32F3xx_HAL_Driver/Src/stm32f3xx_hal_rcc.c ****       (+) This delay depends on the peripheral mapping.
  40:Drivers/STM32F3xx_HAL_Driver/Src/stm32f3xx_hal_rcc.c ****         (++) AHB & APB peripherals, 1 dummy read is necessary
  41:Drivers/STM32F3xx_HAL_Driver/Src/stm32f3xx_hal_rcc.c **** 
  42:Drivers/STM32F3xx_HAL_Driver/Src/stm32f3xx_hal_rcc.c ****     [..]  
  43:Drivers/STM32F3xx_HAL_Driver/Src/stm32f3xx_hal_rcc.c ****       Workarounds:
  44:Drivers/STM32F3xx_HAL_Driver/Src/stm32f3xx_hal_rcc.c ****       (#) For AHB & APB peripherals, a dummy read to the peripheral register has been
  45:Drivers/STM32F3xx_HAL_Driver/Src/stm32f3xx_hal_rcc.c ****           inserted in each __HAL_RCC_PPP_CLK_ENABLE() macro.
  46:Drivers/STM32F3xx_HAL_Driver/Src/stm32f3xx_hal_rcc.c **** 
  47:Drivers/STM32F3xx_HAL_Driver/Src/stm32f3xx_hal_rcc.c ****   @endverbatim
  48:Drivers/STM32F3xx_HAL_Driver/Src/stm32f3xx_hal_rcc.c ****   ******************************************************************************
  49:Drivers/STM32F3xx_HAL_Driver/Src/stm32f3xx_hal_rcc.c ****   * @attention
  50:Drivers/STM32F3xx_HAL_Driver/Src/stm32f3xx_hal_rcc.c ****   *
  51:Drivers/STM32F3xx_HAL_Driver/Src/stm32f3xx_hal_rcc.c ****   * <h2><center>&copy; COPYRIGHT(c) 2016 STMicroelectronics</center></h2>
  52:Drivers/STM32F3xx_HAL_Driver/Src/stm32f3xx_hal_rcc.c ****   *
  53:Drivers/STM32F3xx_HAL_Driver/Src/stm32f3xx_hal_rcc.c ****   * Redistribution and use in source and binary forms, with or without modification,
  54:Drivers/STM32F3xx_HAL_Driver/Src/stm32f3xx_hal_rcc.c ****   * are permitted provided that the following conditions are met:
  55:Drivers/STM32F3xx_HAL_Driver/Src/stm32f3xx_hal_rcc.c ****   *   1. Redistributions of source code must retain the above copyright notice,
  56:Drivers/STM32F3xx_HAL_Driver/Src/stm32f3xx_hal_rcc.c ****   *      this list of conditions and the following disclaimer.
  57:Drivers/STM32F3xx_HAL_Driver/Src/stm32f3xx_hal_rcc.c ****   *   2. Redistributions in binary form must reproduce the above copyright notice,
  58:Drivers/STM32F3xx_HAL_Driver/Src/stm32f3xx_hal_rcc.c ****   *      this list of conditions and the following disclaimer in the documentation
  59:Drivers/STM32F3xx_HAL_Driver/Src/stm32f3xx_hal_rcc.c ****   *      and/or other materials provided with the distribution.
  60:Drivers/STM32F3xx_HAL_Driver/Src/stm32f3xx_hal_rcc.c ****   *   3. Neither the name of STMicroelectronics nor the names of its contributors
  61:Drivers/STM32F3xx_HAL_Driver/Src/stm32f3xx_hal_rcc.c ****   *      may be used to endorse or promote products derived from this software
  62:Drivers/STM32F3xx_HAL_Driver/Src/stm32f3xx_hal_rcc.c ****   *      without specific prior written permission.
  63:Drivers/STM32F3xx_HAL_Driver/Src/stm32f3xx_hal_rcc.c ****   *
  64:Drivers/STM32F3xx_HAL_Driver/Src/stm32f3xx_hal_rcc.c ****   * THIS SOFTWARE IS PROVIDED BY THE COPYRIGHT HOLDERS AND CONTRIBUTORS "AS IS"
  65:Drivers/STM32F3xx_HAL_Driver/Src/stm32f3xx_hal_rcc.c ****   * AND ANY EXPRESS OR IMPLIED WARRANTIES, INCLUDING, BUT NOT LIMITED TO, THE
  66:Drivers/STM32F3xx_HAL_Driver/Src/stm32f3xx_hal_rcc.c ****   * IMPLIED WARRANTIES OF MERCHANTABILITY AND FITNESS FOR A PARTICULAR PURPOSE ARE
  67:Drivers/STM32F3xx_HAL_Driver/Src/stm32f3xx_hal_rcc.c ****   * DISCLAIMED. IN NO EVENT SHALL THE COPYRIGHT HOLDER OR CONTRIBUTORS BE LIABLE
  68:Drivers/STM32F3xx_HAL_Driver/Src/stm32f3xx_hal_rcc.c ****   * FOR ANY DIRECT, INDIRECT, INCIDENTAL, SPECIAL, EXEMPLARY, OR CONSEQUENTIAL
  69:Drivers/STM32F3xx_HAL_Driver/Src/stm32f3xx_hal_rcc.c ****   * DAMAGES (INCLUDING, BUT NOT LIMITED TO, PROCUREMENT OF SUBSTITUTE GOODS OR
  70:Drivers/STM32F3xx_HAL_Driver/Src/stm32f3xx_hal_rcc.c ****   * SERVICES; LOSS OF USE, DATA, OR PROFITS; OR BUSINESS INTERRUPTION) HOWEVER
  71:Drivers/STM32F3xx_HAL_Driver/Src/stm32f3xx_hal_rcc.c ****   * CAUSED AND ON ANY THEORY OF LIABILITY, WHETHER IN CONTRACT, STRICT LIABILITY,
  72:Drivers/STM32F3xx_HAL_Driver/Src/stm32f3xx_hal_rcc.c ****   * OR TORT (INCLUDING NEGLIGENCE OR OTHERWISE) ARISING IN ANY WAY OUT OF THE USE
  73:Drivers/STM32F3xx_HAL_Driver/Src/stm32f3xx_hal_rcc.c ****   * OF THIS SOFTWARE, EVEN IF ADVISED OF THE POSSIBILITY OF SUCH DAMAGE.
  74:Drivers/STM32F3xx_HAL_Driver/Src/stm32f3xx_hal_rcc.c ****   *
  75:Drivers/STM32F3xx_HAL_Driver/Src/stm32f3xx_hal_rcc.c ****   ******************************************************************************  
  76:Drivers/STM32F3xx_HAL_Driver/Src/stm32f3xx_hal_rcc.c **** */
  77:Drivers/STM32F3xx_HAL_Driver/Src/stm32f3xx_hal_rcc.c **** 
  78:Drivers/STM32F3xx_HAL_Driver/Src/stm32f3xx_hal_rcc.c **** /* Includes ------------------------------------------------------------------*/
  79:Drivers/STM32F3xx_HAL_Driver/Src/stm32f3xx_hal_rcc.c **** #include "stm32f3xx_hal.h"
  80:Drivers/STM32F3xx_HAL_Driver/Src/stm32f3xx_hal_rcc.c **** 
  81:Drivers/STM32F3xx_HAL_Driver/Src/stm32f3xx_hal_rcc.c **** /** @addtogroup STM32F3xx_HAL_Driver
  82:Drivers/STM32F3xx_HAL_Driver/Src/stm32f3xx_hal_rcc.c ****   * @{
  83:Drivers/STM32F3xx_HAL_Driver/Src/stm32f3xx_hal_rcc.c ****   */
  84:Drivers/STM32F3xx_HAL_Driver/Src/stm32f3xx_hal_rcc.c **** 
  85:Drivers/STM32F3xx_HAL_Driver/Src/stm32f3xx_hal_rcc.c **** /** @defgroup RCC RCC
  86:Drivers/STM32F3xx_HAL_Driver/Src/stm32f3xx_hal_rcc.c **** * @brief RCC HAL module driver
  87:Drivers/STM32F3xx_HAL_Driver/Src/stm32f3xx_hal_rcc.c ****   * @{
ARM GAS  /var/folders/8c/gyvcglfx7f97kbqb2h83mm_r0000gn/T//ccZyiauy.s 			page 3


  88:Drivers/STM32F3xx_HAL_Driver/Src/stm32f3xx_hal_rcc.c ****   */
  89:Drivers/STM32F3xx_HAL_Driver/Src/stm32f3xx_hal_rcc.c **** 
  90:Drivers/STM32F3xx_HAL_Driver/Src/stm32f3xx_hal_rcc.c **** #ifdef HAL_RCC_MODULE_ENABLED
  91:Drivers/STM32F3xx_HAL_Driver/Src/stm32f3xx_hal_rcc.c **** 
  92:Drivers/STM32F3xx_HAL_Driver/Src/stm32f3xx_hal_rcc.c **** /* Private typedef -----------------------------------------------------------*/
  93:Drivers/STM32F3xx_HAL_Driver/Src/stm32f3xx_hal_rcc.c **** /* Private define ------------------------------------------------------------*/
  94:Drivers/STM32F3xx_HAL_Driver/Src/stm32f3xx_hal_rcc.c **** /** @defgroup RCC_Private_Constants RCC Private Constants
  95:Drivers/STM32F3xx_HAL_Driver/Src/stm32f3xx_hal_rcc.c ****  * @{
  96:Drivers/STM32F3xx_HAL_Driver/Src/stm32f3xx_hal_rcc.c ****  */
  97:Drivers/STM32F3xx_HAL_Driver/Src/stm32f3xx_hal_rcc.c **** /* Bits position in  in the CFGR register */
  98:Drivers/STM32F3xx_HAL_Driver/Src/stm32f3xx_hal_rcc.c **** #define RCC_CFGR_HPRE_BITNUMBER           POSITION_VAL(RCC_CFGR_HPRE)
  99:Drivers/STM32F3xx_HAL_Driver/Src/stm32f3xx_hal_rcc.c **** #define RCC_CFGR_PPRE1_BITNUMBER          POSITION_VAL(RCC_CFGR_PPRE1)
 100:Drivers/STM32F3xx_HAL_Driver/Src/stm32f3xx_hal_rcc.c **** #define RCC_CFGR_PPRE2_BITNUMBER          POSITION_VAL(RCC_CFGR_PPRE2)
 101:Drivers/STM32F3xx_HAL_Driver/Src/stm32f3xx_hal_rcc.c **** /**
 102:Drivers/STM32F3xx_HAL_Driver/Src/stm32f3xx_hal_rcc.c ****   * @}
 103:Drivers/STM32F3xx_HAL_Driver/Src/stm32f3xx_hal_rcc.c ****   */
 104:Drivers/STM32F3xx_HAL_Driver/Src/stm32f3xx_hal_rcc.c **** /* Private macro -------------------------------------------------------------*/
 105:Drivers/STM32F3xx_HAL_Driver/Src/stm32f3xx_hal_rcc.c **** /** @defgroup RCC_Private_Macros RCC Private Macros
 106:Drivers/STM32F3xx_HAL_Driver/Src/stm32f3xx_hal_rcc.c ****   * @{
 107:Drivers/STM32F3xx_HAL_Driver/Src/stm32f3xx_hal_rcc.c ****   */
 108:Drivers/STM32F3xx_HAL_Driver/Src/stm32f3xx_hal_rcc.c **** 
 109:Drivers/STM32F3xx_HAL_Driver/Src/stm32f3xx_hal_rcc.c **** #define MCO1_CLK_ENABLE()     __HAL_RCC_GPIOA_CLK_ENABLE()
 110:Drivers/STM32F3xx_HAL_Driver/Src/stm32f3xx_hal_rcc.c **** #define MCO1_GPIO_PORT        GPIOA
 111:Drivers/STM32F3xx_HAL_Driver/Src/stm32f3xx_hal_rcc.c **** #define MCO1_PIN              GPIO_PIN_8
 112:Drivers/STM32F3xx_HAL_Driver/Src/stm32f3xx_hal_rcc.c **** 
 113:Drivers/STM32F3xx_HAL_Driver/Src/stm32f3xx_hal_rcc.c **** /**
 114:Drivers/STM32F3xx_HAL_Driver/Src/stm32f3xx_hal_rcc.c ****   * @}
 115:Drivers/STM32F3xx_HAL_Driver/Src/stm32f3xx_hal_rcc.c ****   */
 116:Drivers/STM32F3xx_HAL_Driver/Src/stm32f3xx_hal_rcc.c **** 
 117:Drivers/STM32F3xx_HAL_Driver/Src/stm32f3xx_hal_rcc.c **** /* Private variables ---------------------------------------------------------*/
 118:Drivers/STM32F3xx_HAL_Driver/Src/stm32f3xx_hal_rcc.c **** /** @defgroup RCC_Private_Variables RCC Private Variables
 119:Drivers/STM32F3xx_HAL_Driver/Src/stm32f3xx_hal_rcc.c ****   * @{
 120:Drivers/STM32F3xx_HAL_Driver/Src/stm32f3xx_hal_rcc.c ****   */
 121:Drivers/STM32F3xx_HAL_Driver/Src/stm32f3xx_hal_rcc.c **** const uint8_t aPLLMULFactorTable[16] = { 2U,  3U,  4U,  5U,  6U,  7U,  8U,  9U,
 122:Drivers/STM32F3xx_HAL_Driver/Src/stm32f3xx_hal_rcc.c ****                                        10U, 11U, 12U, 13U, 14U, 15U, 16U, 16U};
 123:Drivers/STM32F3xx_HAL_Driver/Src/stm32f3xx_hal_rcc.c **** const uint8_t aPredivFactorTable[16] = { 1U, 2U,  3U,  4U,  5U,  6U,  7U,  8U,
 124:Drivers/STM32F3xx_HAL_Driver/Src/stm32f3xx_hal_rcc.c ****                                          9U,10U, 11U, 12U, 13U, 14U, 15U, 16U};
 125:Drivers/STM32F3xx_HAL_Driver/Src/stm32f3xx_hal_rcc.c **** /**
 126:Drivers/STM32F3xx_HAL_Driver/Src/stm32f3xx_hal_rcc.c ****   * @}
 127:Drivers/STM32F3xx_HAL_Driver/Src/stm32f3xx_hal_rcc.c ****   */
 128:Drivers/STM32F3xx_HAL_Driver/Src/stm32f3xx_hal_rcc.c **** 
 129:Drivers/STM32F3xx_HAL_Driver/Src/stm32f3xx_hal_rcc.c **** /* Private function prototypes -----------------------------------------------*/
 130:Drivers/STM32F3xx_HAL_Driver/Src/stm32f3xx_hal_rcc.c **** /* Exported functions ---------------------------------------------------------*/
 131:Drivers/STM32F3xx_HAL_Driver/Src/stm32f3xx_hal_rcc.c **** 
 132:Drivers/STM32F3xx_HAL_Driver/Src/stm32f3xx_hal_rcc.c **** /** @defgroup RCC_Exported_Functions RCC Exported Functions
 133:Drivers/STM32F3xx_HAL_Driver/Src/stm32f3xx_hal_rcc.c ****   * @{
 134:Drivers/STM32F3xx_HAL_Driver/Src/stm32f3xx_hal_rcc.c ****   */
 135:Drivers/STM32F3xx_HAL_Driver/Src/stm32f3xx_hal_rcc.c **** 
 136:Drivers/STM32F3xx_HAL_Driver/Src/stm32f3xx_hal_rcc.c **** /** @defgroup RCC_Exported_Functions_Group1 Initialization and de-initialization functions 
 137:Drivers/STM32F3xx_HAL_Driver/Src/stm32f3xx_hal_rcc.c ****   *  @brief    Initialization and Configuration functions 
 138:Drivers/STM32F3xx_HAL_Driver/Src/stm32f3xx_hal_rcc.c ****   *
 139:Drivers/STM32F3xx_HAL_Driver/Src/stm32f3xx_hal_rcc.c ****   @verbatim    
 140:Drivers/STM32F3xx_HAL_Driver/Src/stm32f3xx_hal_rcc.c ****   ===============================================================================
 141:Drivers/STM32F3xx_HAL_Driver/Src/stm32f3xx_hal_rcc.c ****            ##### Initialization and de-initialization functions #####
 142:Drivers/STM32F3xx_HAL_Driver/Src/stm32f3xx_hal_rcc.c ****   ===============================================================================
 143:Drivers/STM32F3xx_HAL_Driver/Src/stm32f3xx_hal_rcc.c ****     [..]
 144:Drivers/STM32F3xx_HAL_Driver/Src/stm32f3xx_hal_rcc.c ****       This section provides functions allowing to configure the internal/external oscillators
ARM GAS  /var/folders/8c/gyvcglfx7f97kbqb2h83mm_r0000gn/T//ccZyiauy.s 			page 4


 145:Drivers/STM32F3xx_HAL_Driver/Src/stm32f3xx_hal_rcc.c ****       (HSE, HSI, LSE, LSI, PLL, CSS and MCO) and the System buses clocks (SYSCLK, AHB, APB1
 146:Drivers/STM32F3xx_HAL_Driver/Src/stm32f3xx_hal_rcc.c ****       and APB2).
 147:Drivers/STM32F3xx_HAL_Driver/Src/stm32f3xx_hal_rcc.c **** 
 148:Drivers/STM32F3xx_HAL_Driver/Src/stm32f3xx_hal_rcc.c ****     [..] Internal/external clock and PLL configuration
 149:Drivers/STM32F3xx_HAL_Driver/Src/stm32f3xx_hal_rcc.c ****       (#) HSI (high-speed internal), 8 MHz factory-trimmed RC used directly or through
 150:Drivers/STM32F3xx_HAL_Driver/Src/stm32f3xx_hal_rcc.c ****           the PLL as System clock source.
 151:Drivers/STM32F3xx_HAL_Driver/Src/stm32f3xx_hal_rcc.c ****           The HSI clock can be used also to clock the USART and I2C peripherals.
 152:Drivers/STM32F3xx_HAL_Driver/Src/stm32f3xx_hal_rcc.c **** 
 153:Drivers/STM32F3xx_HAL_Driver/Src/stm32f3xx_hal_rcc.c ****       (#) LSI (low-speed internal), ~40 KHz low consumption RC used as IWDG and/or RTC
 154:Drivers/STM32F3xx_HAL_Driver/Src/stm32f3xx_hal_rcc.c ****           clock source.
 155:Drivers/STM32F3xx_HAL_Driver/Src/stm32f3xx_hal_rcc.c **** 
 156:Drivers/STM32F3xx_HAL_Driver/Src/stm32f3xx_hal_rcc.c ****       (#) HSE (high-speed external), 4 to 32 MHz crystal oscillator used directly or
 157:Drivers/STM32F3xx_HAL_Driver/Src/stm32f3xx_hal_rcc.c ****           through the PLL as System clock source. Can be used also as RTC clock source.
 158:Drivers/STM32F3xx_HAL_Driver/Src/stm32f3xx_hal_rcc.c **** 
 159:Drivers/STM32F3xx_HAL_Driver/Src/stm32f3xx_hal_rcc.c ****       (#) LSE (low-speed external), 32 KHz oscillator used as RTC clock source.   
 160:Drivers/STM32F3xx_HAL_Driver/Src/stm32f3xx_hal_rcc.c **** 
 161:Drivers/STM32F3xx_HAL_Driver/Src/stm32f3xx_hal_rcc.c ****       (#) PLL (clocked by HSI or HSE), featuring different output clocks:
 162:Drivers/STM32F3xx_HAL_Driver/Src/stm32f3xx_hal_rcc.c ****         (++) The first output is used to generate the high speed system clock (up to 72 MHz)
 163:Drivers/STM32F3xx_HAL_Driver/Src/stm32f3xx_hal_rcc.c ****         (++) The second output is used to generate the clock for the USB FS (48 MHz)
 164:Drivers/STM32F3xx_HAL_Driver/Src/stm32f3xx_hal_rcc.c ****         (++) The third output may be used to generate the clock for the ADC peripherals (up to 72 M
 165:Drivers/STM32F3xx_HAL_Driver/Src/stm32f3xx_hal_rcc.c ****         (++) The fourth output may be used to generate the clock for the TIM peripherals (144 MHz)
 166:Drivers/STM32F3xx_HAL_Driver/Src/stm32f3xx_hal_rcc.c **** 
 167:Drivers/STM32F3xx_HAL_Driver/Src/stm32f3xx_hal_rcc.c ****       (#) CSS (Clock security system), once enable using the macro __HAL_RCC_CSS_ENABLE()
 168:Drivers/STM32F3xx_HAL_Driver/Src/stm32f3xx_hal_rcc.c ****           and if a HSE clock failure occurs(HSE used directly or through PLL as System 
 169:Drivers/STM32F3xx_HAL_Driver/Src/stm32f3xx_hal_rcc.c ****           clock source), the System clocks automatically switched to HSI and an interrupt
 170:Drivers/STM32F3xx_HAL_Driver/Src/stm32f3xx_hal_rcc.c ****           is generated if enabled. The interrupt is linked to the Cortex-M4 NMI 
 171:Drivers/STM32F3xx_HAL_Driver/Src/stm32f3xx_hal_rcc.c ****           (Non-Maskable Interrupt) exception vector.   
 172:Drivers/STM32F3xx_HAL_Driver/Src/stm32f3xx_hal_rcc.c **** 
 173:Drivers/STM32F3xx_HAL_Driver/Src/stm32f3xx_hal_rcc.c ****       (#) MCO (microcontroller clock output), used to output SYSCLK, HSI, HSE, LSI, LSE or PLL
 174:Drivers/STM32F3xx_HAL_Driver/Src/stm32f3xx_hal_rcc.c ****           clock (divided by 2) output on pin (such as PA8 pin).
 175:Drivers/STM32F3xx_HAL_Driver/Src/stm32f3xx_hal_rcc.c **** 
 176:Drivers/STM32F3xx_HAL_Driver/Src/stm32f3xx_hal_rcc.c ****     [..] System, AHB and APB buses clocks configuration
 177:Drivers/STM32F3xx_HAL_Driver/Src/stm32f3xx_hal_rcc.c ****       (#) Several clock sources can be used to drive the System clock (SYSCLK): HSI,
 178:Drivers/STM32F3xx_HAL_Driver/Src/stm32f3xx_hal_rcc.c ****           HSE and PLL.
 179:Drivers/STM32F3xx_HAL_Driver/Src/stm32f3xx_hal_rcc.c ****           The AHB clock (HCLK) is derived from System clock through configurable
 180:Drivers/STM32F3xx_HAL_Driver/Src/stm32f3xx_hal_rcc.c ****           prescaler and used to clock the CPU, memory and peripherals mapped
 181:Drivers/STM32F3xx_HAL_Driver/Src/stm32f3xx_hal_rcc.c ****           on AHB bus (DMA, GPIO...). APB1 (PCLK1) and APB2 (PCLK2) clocks are derived
 182:Drivers/STM32F3xx_HAL_Driver/Src/stm32f3xx_hal_rcc.c ****           from AHB clock through configurable prescalers and used to clock
 183:Drivers/STM32F3xx_HAL_Driver/Src/stm32f3xx_hal_rcc.c ****           the peripherals mapped on these buses. You can use
 184:Drivers/STM32F3xx_HAL_Driver/Src/stm32f3xx_hal_rcc.c ****           "@ref HAL_RCC_GetSysClockFreq()" function to retrieve the frequencies of these clocks.
 185:Drivers/STM32F3xx_HAL_Driver/Src/stm32f3xx_hal_rcc.c **** 
 186:Drivers/STM32F3xx_HAL_Driver/Src/stm32f3xx_hal_rcc.c ****       (#) All the peripheral clocks are derived from the System clock (SYSCLK) except:
 187:Drivers/STM32F3xx_HAL_Driver/Src/stm32f3xx_hal_rcc.c ****         (++) The FLASH program/erase clock  which is always HSI 8MHz clock.
 188:Drivers/STM32F3xx_HAL_Driver/Src/stm32f3xx_hal_rcc.c ****         (++) The USB 48 MHz clock which is derived from the PLL VCO clock.
 189:Drivers/STM32F3xx_HAL_Driver/Src/stm32f3xx_hal_rcc.c ****         (++) The USART clock which can be derived as well from HSI 8MHz, LSI or LSE.
 190:Drivers/STM32F3xx_HAL_Driver/Src/stm32f3xx_hal_rcc.c ****         (++) The I2C clock which can be derived as well from HSI 8MHz clock.
 191:Drivers/STM32F3xx_HAL_Driver/Src/stm32f3xx_hal_rcc.c ****         (++) The ADC clock which is derived from PLL output.
 192:Drivers/STM32F3xx_HAL_Driver/Src/stm32f3xx_hal_rcc.c ****         (++) The RTC clock which is derived from the LSE, LSI or 1 MHz HSE_RTC
 193:Drivers/STM32F3xx_HAL_Driver/Src/stm32f3xx_hal_rcc.c ****              (HSE divided by a programmable prescaler). The System clock (SYSCLK)
 194:Drivers/STM32F3xx_HAL_Driver/Src/stm32f3xx_hal_rcc.c ****              frequency must be higher or equal to the RTC clock frequency.
 195:Drivers/STM32F3xx_HAL_Driver/Src/stm32f3xx_hal_rcc.c ****         (++) IWDG clock which is always the LSI clock.
 196:Drivers/STM32F3xx_HAL_Driver/Src/stm32f3xx_hal_rcc.c **** 
 197:Drivers/STM32F3xx_HAL_Driver/Src/stm32f3xx_hal_rcc.c ****          (#) For the STM32F3xx devices, the maximum frequency of the SYSCLK, HCLK, PCLK1 and PCLK2 
 198:Drivers/STM32F3xx_HAL_Driver/Src/stm32f3xx_hal_rcc.c ****              Depending on the SYSCLK frequency, the flash latency should be adapted accordingly.
 199:Drivers/STM32F3xx_HAL_Driver/Src/stm32f3xx_hal_rcc.c **** 
 200:Drivers/STM32F3xx_HAL_Driver/Src/stm32f3xx_hal_rcc.c ****          (#) After reset, the System clock source is the HSI (8 MHz) with 0 WS and
 201:Drivers/STM32F3xx_HAL_Driver/Src/stm32f3xx_hal_rcc.c ****              prefetch is disabled.
ARM GAS  /var/folders/8c/gyvcglfx7f97kbqb2h83mm_r0000gn/T//ccZyiauy.s 			page 5


 202:Drivers/STM32F3xx_HAL_Driver/Src/stm32f3xx_hal_rcc.c ****   @endverbatim
 203:Drivers/STM32F3xx_HAL_Driver/Src/stm32f3xx_hal_rcc.c ****   * @{
 204:Drivers/STM32F3xx_HAL_Driver/Src/stm32f3xx_hal_rcc.c ****   */
 205:Drivers/STM32F3xx_HAL_Driver/Src/stm32f3xx_hal_rcc.c ****   
 206:Drivers/STM32F3xx_HAL_Driver/Src/stm32f3xx_hal_rcc.c **** /*
 207:Drivers/STM32F3xx_HAL_Driver/Src/stm32f3xx_hal_rcc.c ****   Additional consideration on the SYSCLK based on Latency settings:
 208:Drivers/STM32F3xx_HAL_Driver/Src/stm32f3xx_hal_rcc.c ****         +-----------------------------------------------+
 209:Drivers/STM32F3xx_HAL_Driver/Src/stm32f3xx_hal_rcc.c ****         | Latency       | SYSCLK clock frequency (MHz)  |
 210:Drivers/STM32F3xx_HAL_Driver/Src/stm32f3xx_hal_rcc.c ****         |---------------|-------------------------------|
 211:Drivers/STM32F3xx_HAL_Driver/Src/stm32f3xx_hal_rcc.c ****         |0WS(1CPU cycle)|       0 < SYSCLK <= 24        |
 212:Drivers/STM32F3xx_HAL_Driver/Src/stm32f3xx_hal_rcc.c ****         |---------------|-------------------------------|
 213:Drivers/STM32F3xx_HAL_Driver/Src/stm32f3xx_hal_rcc.c ****         |1WS(2CPU cycle)|      24 < SYSCLK <= 48        |
 214:Drivers/STM32F3xx_HAL_Driver/Src/stm32f3xx_hal_rcc.c ****         |---------------|-------------------------------|
 215:Drivers/STM32F3xx_HAL_Driver/Src/stm32f3xx_hal_rcc.c ****         |2WS(3CPU cycle)|      48 < SYSCLK <= 72        |
 216:Drivers/STM32F3xx_HAL_Driver/Src/stm32f3xx_hal_rcc.c ****         +-----------------------------------------------+
 217:Drivers/STM32F3xx_HAL_Driver/Src/stm32f3xx_hal_rcc.c ****   */
 218:Drivers/STM32F3xx_HAL_Driver/Src/stm32f3xx_hal_rcc.c **** 
 219:Drivers/STM32F3xx_HAL_Driver/Src/stm32f3xx_hal_rcc.c **** /**
 220:Drivers/STM32F3xx_HAL_Driver/Src/stm32f3xx_hal_rcc.c ****   * @brief  Resets the RCC clock configuration to the default reset state.
 221:Drivers/STM32F3xx_HAL_Driver/Src/stm32f3xx_hal_rcc.c ****   * @note   The default reset state of the clock configuration is given below:
 222:Drivers/STM32F3xx_HAL_Driver/Src/stm32f3xx_hal_rcc.c ****   *            - HSI ON and used as system clock source
 223:Drivers/STM32F3xx_HAL_Driver/Src/stm32f3xx_hal_rcc.c ****   *            - HSE and PLL OFF
 224:Drivers/STM32F3xx_HAL_Driver/Src/stm32f3xx_hal_rcc.c ****   *            - AHB, APB1 and APB2 prescaler set to 1.
 225:Drivers/STM32F3xx_HAL_Driver/Src/stm32f3xx_hal_rcc.c ****   *            - CSS and MCO1 OFF
 226:Drivers/STM32F3xx_HAL_Driver/Src/stm32f3xx_hal_rcc.c ****   *            - All interrupts disabled
 227:Drivers/STM32F3xx_HAL_Driver/Src/stm32f3xx_hal_rcc.c ****   * @note   This function does not modify the configuration of the
 228:Drivers/STM32F3xx_HAL_Driver/Src/stm32f3xx_hal_rcc.c ****   *            - Peripheral clocks
 229:Drivers/STM32F3xx_HAL_Driver/Src/stm32f3xx_hal_rcc.c ****   *            - LSI, LSE and RTC clocks
 230:Drivers/STM32F3xx_HAL_Driver/Src/stm32f3xx_hal_rcc.c ****   * @retval HAL status
 231:Drivers/STM32F3xx_HAL_Driver/Src/stm32f3xx_hal_rcc.c ****   */
 232:Drivers/STM32F3xx_HAL_Driver/Src/stm32f3xx_hal_rcc.c **** HAL_StatusTypeDef HAL_RCC_DeInit(void)
 233:Drivers/STM32F3xx_HAL_Driver/Src/stm32f3xx_hal_rcc.c **** {
  29              		.loc 1 233 1 view -0
  30              		.cfi_startproc
  31              		@ args = 0, pretend = 0, frame = 0
  32              		@ frame_needed = 0, uses_anonymous_args = 0
 234:Drivers/STM32F3xx_HAL_Driver/Src/stm32f3xx_hal_rcc.c ****   uint32_t tickstart = 0;
  33              		.loc 1 234 3 view .LVU1
  34              	.LVL0:
 235:Drivers/STM32F3xx_HAL_Driver/Src/stm32f3xx_hal_rcc.c **** 
 236:Drivers/STM32F3xx_HAL_Driver/Src/stm32f3xx_hal_rcc.c ****   /* Set HSION bit */
 237:Drivers/STM32F3xx_HAL_Driver/Src/stm32f3xx_hal_rcc.c ****   SET_BIT(RCC->CR, RCC_CR_HSION);
  35              		.loc 1 237 3 view .LVU2
 233:Drivers/STM32F3xx_HAL_Driver/Src/stm32f3xx_hal_rcc.c ****   uint32_t tickstart = 0;
  36              		.loc 1 233 1 is_stmt 0 view .LVU3
  37 0000 70B5     		push	{r4, r5, r6, lr}
  38              	.LCFI0:
  39              		.cfi_def_cfa_offset 16
  40              		.cfi_offset 4, -16
  41              		.cfi_offset 5, -12
  42              		.cfi_offset 6, -8
  43              		.cfi_offset 14, -4
  44              		.loc 1 237 3 view .LVU4
  45 0002 304C     		ldr	r4, .L12
  46 0004 2368     		ldr	r3, [r4]
  47 0006 43F00103 		orr	r3, r3, #1
  48 000a 2360     		str	r3, [r4]
ARM GAS  /var/folders/8c/gyvcglfx7f97kbqb2h83mm_r0000gn/T//ccZyiauy.s 			page 6


 238:Drivers/STM32F3xx_HAL_Driver/Src/stm32f3xx_hal_rcc.c **** 
 239:Drivers/STM32F3xx_HAL_Driver/Src/stm32f3xx_hal_rcc.c ****   /* Insure HSIRDY bit is set before writing default HSITRIM value */
 240:Drivers/STM32F3xx_HAL_Driver/Src/stm32f3xx_hal_rcc.c ****   /* Get start tick */
 241:Drivers/STM32F3xx_HAL_Driver/Src/stm32f3xx_hal_rcc.c ****   tickstart = HAL_GetTick();
  49              		.loc 1 241 3 is_stmt 1 view .LVU5
  50              		.loc 1 241 15 is_stmt 0 view .LVU6
  51 000c FFF7FEFF 		bl	HAL_GetTick
  52              	.LVL1:
  53 0010 0546     		mov	r5, r0
  54              	.LVL2:
 242:Drivers/STM32F3xx_HAL_Driver/Src/stm32f3xx_hal_rcc.c **** 
 243:Drivers/STM32F3xx_HAL_Driver/Src/stm32f3xx_hal_rcc.c ****   /* Wait till HSI is ready */
 244:Drivers/STM32F3xx_HAL_Driver/Src/stm32f3xx_hal_rcc.c ****   while(READ_BIT(RCC->CR, RCC_CR_HSIRDY) == RESET)
  55              		.loc 1 244 3 is_stmt 1 view .LVU7
  56              	.L2:
  57              		.loc 1 244 9 is_stmt 0 view .LVU8
  58 0012 2368     		ldr	r3, [r4]
  59              		.loc 1 244 8 view .LVU9
  60 0014 9B07     		lsls	r3, r3, #30
  61 0016 3FD5     		bpl	.L4
 245:Drivers/STM32F3xx_HAL_Driver/Src/stm32f3xx_hal_rcc.c ****   {
 246:Drivers/STM32F3xx_HAL_Driver/Src/stm32f3xx_hal_rcc.c ****     if((HAL_GetTick() - tickstart) > HSI_TIMEOUT_VALUE)
 247:Drivers/STM32F3xx_HAL_Driver/Src/stm32f3xx_hal_rcc.c ****     {
 248:Drivers/STM32F3xx_HAL_Driver/Src/stm32f3xx_hal_rcc.c ****       return HAL_TIMEOUT;
 249:Drivers/STM32F3xx_HAL_Driver/Src/stm32f3xx_hal_rcc.c ****     }
 250:Drivers/STM32F3xx_HAL_Driver/Src/stm32f3xx_hal_rcc.c ****   }
 251:Drivers/STM32F3xx_HAL_Driver/Src/stm32f3xx_hal_rcc.c **** 
 252:Drivers/STM32F3xx_HAL_Driver/Src/stm32f3xx_hal_rcc.c ****   /* Set HSITRIM default value */
 253:Drivers/STM32F3xx_HAL_Driver/Src/stm32f3xx_hal_rcc.c ****   MODIFY_REG(RCC->CR, RCC_CR_HSITRIM, RCC_CR_HSITRIM_4);
  62              		.loc 1 253 3 is_stmt 1 view .LVU10
  63 0018 2368     		ldr	r3, [r4]
  64 001a 23F0F803 		bic	r3, r3, #248
  65 001e 43F08003 		orr	r3, r3, #128
  66 0022 2360     		str	r3, [r4]
 254:Drivers/STM32F3xx_HAL_Driver/Src/stm32f3xx_hal_rcc.c **** 
 255:Drivers/STM32F3xx_HAL_Driver/Src/stm32f3xx_hal_rcc.c ****   /* Reset SW[1:0], HPRE[3:0], PPRE1[2:0], PPRE2[2:0] and MCOSEL[2:0] bits */
 256:Drivers/STM32F3xx_HAL_Driver/Src/stm32f3xx_hal_rcc.c ****   CLEAR_BIT(RCC->CFGR, RCC_CFGR_SW | RCC_CFGR_HPRE | RCC_CFGR_PPRE1 | RCC_CFGR_PPRE2 | RCC_CFGR_MCO
  67              		.loc 1 256 3 view .LVU11
  68 0024 6268     		ldr	r2, [r4, #4]
  69 0026 284B     		ldr	r3, .L12+4
  70 0028 1340     		ands	r3, r3, r2
  71 002a 6360     		str	r3, [r4, #4]
 257:Drivers/STM32F3xx_HAL_Driver/Src/stm32f3xx_hal_rcc.c **** 
 258:Drivers/STM32F3xx_HAL_Driver/Src/stm32f3xx_hal_rcc.c ****   /* Insure HSI selected as system clock source */
 259:Drivers/STM32F3xx_HAL_Driver/Src/stm32f3xx_hal_rcc.c ****   /* Get start tick */
 260:Drivers/STM32F3xx_HAL_Driver/Src/stm32f3xx_hal_rcc.c ****   tickstart = HAL_GetTick();
  72              		.loc 1 260 3 view .LVU12
  73              		.loc 1 260 15 is_stmt 0 view .LVU13
  74 002c FFF7FEFF 		bl	HAL_GetTick
  75              	.LVL3:
 261:Drivers/STM32F3xx_HAL_Driver/Src/stm32f3xx_hal_rcc.c **** 
 262:Drivers/STM32F3xx_HAL_Driver/Src/stm32f3xx_hal_rcc.c ****   /* Wait till system clock source is ready */
 263:Drivers/STM32F3xx_HAL_Driver/Src/stm32f3xx_hal_rcc.c ****   while(READ_BIT(RCC->CFGR, RCC_CFGR_SWS) != RCC_CFGR_SWS_HSI)
 264:Drivers/STM32F3xx_HAL_Driver/Src/stm32f3xx_hal_rcc.c ****   {
 265:Drivers/STM32F3xx_HAL_Driver/Src/stm32f3xx_hal_rcc.c ****     if((HAL_GetTick() - tickstart) > CLOCKSWITCH_TIMEOUT_VALUE)
  76              		.loc 1 265 7 view .LVU14
  77 0030 41F28836 		movw	r6, #5000
ARM GAS  /var/folders/8c/gyvcglfx7f97kbqb2h83mm_r0000gn/T//ccZyiauy.s 			page 7


 260:Drivers/STM32F3xx_HAL_Driver/Src/stm32f3xx_hal_rcc.c **** 
  78              		.loc 1 260 15 view .LVU15
  79 0034 0546     		mov	r5, r0
  80              	.LVL4:
 263:Drivers/STM32F3xx_HAL_Driver/Src/stm32f3xx_hal_rcc.c ****   {
  81              		.loc 1 263 3 is_stmt 1 view .LVU16
  82              	.L5:
 263:Drivers/STM32F3xx_HAL_Driver/Src/stm32f3xx_hal_rcc.c ****   {
  83              		.loc 1 263 9 is_stmt 0 view .LVU17
  84 0036 6068     		ldr	r0, [r4, #4]
 263:Drivers/STM32F3xx_HAL_Driver/Src/stm32f3xx_hal_rcc.c ****   {
  85              		.loc 1 263 8 view .LVU18
  86 0038 10F00C00 		ands	r0, r0, #12
  87 003c 34D1     		bne	.L7
 266:Drivers/STM32F3xx_HAL_Driver/Src/stm32f3xx_hal_rcc.c ****     {
 267:Drivers/STM32F3xx_HAL_Driver/Src/stm32f3xx_hal_rcc.c ****       return HAL_TIMEOUT;
 268:Drivers/STM32F3xx_HAL_Driver/Src/stm32f3xx_hal_rcc.c ****     }
 269:Drivers/STM32F3xx_HAL_Driver/Src/stm32f3xx_hal_rcc.c ****   }
 270:Drivers/STM32F3xx_HAL_Driver/Src/stm32f3xx_hal_rcc.c **** 
 271:Drivers/STM32F3xx_HAL_Driver/Src/stm32f3xx_hal_rcc.c ****   /* Update the SystemCoreClock global variable for HSI as system clock source */
 272:Drivers/STM32F3xx_HAL_Driver/Src/stm32f3xx_hal_rcc.c ****   SystemCoreClock = HSI_VALUE;
  88              		.loc 1 272 3 is_stmt 1 view .LVU19
  89              		.loc 1 272 19 is_stmt 0 view .LVU20
  90 003e 234B     		ldr	r3, .L12+8
  91 0040 234A     		ldr	r2, .L12+12
  92 0042 1A60     		str	r2, [r3]
 273:Drivers/STM32F3xx_HAL_Driver/Src/stm32f3xx_hal_rcc.c **** 
 274:Drivers/STM32F3xx_HAL_Driver/Src/stm32f3xx_hal_rcc.c ****   /* Configure the source of time base considering new system clock settings  */
 275:Drivers/STM32F3xx_HAL_Driver/Src/stm32f3xx_hal_rcc.c ****   if(HAL_InitTick(TICK_INT_PRIORITY) != HAL_OK)
  93              		.loc 1 275 3 is_stmt 1 view .LVU21
  94              		.loc 1 275 6 is_stmt 0 view .LVU22
  95 0044 FFF7FEFF 		bl	HAL_InitTick
  96              	.LVL5:
  97              		.loc 1 275 5 view .LVU23
  98 0048 0546     		mov	r5, r0
  99              	.LVL6:
 100              		.loc 1 275 5 view .LVU24
 101 004a 0028     		cmp	r0, #0
 102 004c 38D1     		bne	.L10
 276:Drivers/STM32F3xx_HAL_Driver/Src/stm32f3xx_hal_rcc.c ****   {
 277:Drivers/STM32F3xx_HAL_Driver/Src/stm32f3xx_hal_rcc.c ****     return HAL_ERROR;
 278:Drivers/STM32F3xx_HAL_Driver/Src/stm32f3xx_hal_rcc.c ****   }
 279:Drivers/STM32F3xx_HAL_Driver/Src/stm32f3xx_hal_rcc.c **** 
 280:Drivers/STM32F3xx_HAL_Driver/Src/stm32f3xx_hal_rcc.c ****   /* Reset HSEON, CSSON, PLLON bits */
 281:Drivers/STM32F3xx_HAL_Driver/Src/stm32f3xx_hal_rcc.c ****   CLEAR_BIT(RCC->CR, RCC_CR_PLLON | RCC_CR_CSSON | RCC_CR_HSEON);
 103              		.loc 1 281 3 is_stmt 1 view .LVU25
 104 004e 2368     		ldr	r3, [r4]
 105 0050 23F08473 		bic	r3, r3, #17301504
 106 0054 23F48033 		bic	r3, r3, #65536
 107 0058 2360     		str	r3, [r4]
 282:Drivers/STM32F3xx_HAL_Driver/Src/stm32f3xx_hal_rcc.c **** 
 283:Drivers/STM32F3xx_HAL_Driver/Src/stm32f3xx_hal_rcc.c ****   /* Reset HSEBYP bit */
 284:Drivers/STM32F3xx_HAL_Driver/Src/stm32f3xx_hal_rcc.c ****   CLEAR_BIT(RCC->CR, RCC_CR_HSEBYP);
 108              		.loc 1 284 3 view .LVU26
 109 005a 2368     		ldr	r3, [r4]
 110 005c 23F48023 		bic	r3, r3, #262144
 111 0060 2360     		str	r3, [r4]
ARM GAS  /var/folders/8c/gyvcglfx7f97kbqb2h83mm_r0000gn/T//ccZyiauy.s 			page 8


 285:Drivers/STM32F3xx_HAL_Driver/Src/stm32f3xx_hal_rcc.c **** 
 286:Drivers/STM32F3xx_HAL_Driver/Src/stm32f3xx_hal_rcc.c ****   /* Insure PLLRDY is reset */
 287:Drivers/STM32F3xx_HAL_Driver/Src/stm32f3xx_hal_rcc.c ****   /* Get start tick */
 288:Drivers/STM32F3xx_HAL_Driver/Src/stm32f3xx_hal_rcc.c ****   tickstart = HAL_GetTick();
 112              		.loc 1 288 3 view .LVU27
 113              		.loc 1 288 15 is_stmt 0 view .LVU28
 114 0062 FFF7FEFF 		bl	HAL_GetTick
 115              	.LVL7:
 116 0066 0646     		mov	r6, r0
 117              	.LVL8:
 289:Drivers/STM32F3xx_HAL_Driver/Src/stm32f3xx_hal_rcc.c ****   while(READ_BIT(RCC->CR, RCC_CR_PLLRDY) != 0U)
 118              		.loc 1 289 3 is_stmt 1 view .LVU29
 119              	.L8:
 120              		.loc 1 289 9 is_stmt 0 view .LVU30
 121 0068 2368     		ldr	r3, [r4]
 122              		.loc 1 289 8 view .LVU31
 123 006a 13F00073 		ands	r3, r3, #33554432
 124 006e 21D1     		bne	.L9
 290:Drivers/STM32F3xx_HAL_Driver/Src/stm32f3xx_hal_rcc.c ****   {
 291:Drivers/STM32F3xx_HAL_Driver/Src/stm32f3xx_hal_rcc.c ****     if((HAL_GetTick() - tickstart) > PLL_TIMEOUT_VALUE)
 292:Drivers/STM32F3xx_HAL_Driver/Src/stm32f3xx_hal_rcc.c ****     {
 293:Drivers/STM32F3xx_HAL_Driver/Src/stm32f3xx_hal_rcc.c ****       return HAL_TIMEOUT;
 294:Drivers/STM32F3xx_HAL_Driver/Src/stm32f3xx_hal_rcc.c ****     }
 295:Drivers/STM32F3xx_HAL_Driver/Src/stm32f3xx_hal_rcc.c ****   }
 296:Drivers/STM32F3xx_HAL_Driver/Src/stm32f3xx_hal_rcc.c **** 
 297:Drivers/STM32F3xx_HAL_Driver/Src/stm32f3xx_hal_rcc.c ****   /* Reset CFGR register */
 298:Drivers/STM32F3xx_HAL_Driver/Src/stm32f3xx_hal_rcc.c ****   CLEAR_REG(RCC->CFGR);
 125              		.loc 1 298 3 is_stmt 1 view .LVU32
 126 0070 6360     		str	r3, [r4, #4]
 299:Drivers/STM32F3xx_HAL_Driver/Src/stm32f3xx_hal_rcc.c **** 
 300:Drivers/STM32F3xx_HAL_Driver/Src/stm32f3xx_hal_rcc.c ****   /* Reset CFGR2 register */
 301:Drivers/STM32F3xx_HAL_Driver/Src/stm32f3xx_hal_rcc.c ****   CLEAR_REG(RCC->CFGR2);
 127              		.loc 1 301 3 view .LVU33
 128 0072 E362     		str	r3, [r4, #44]
 302:Drivers/STM32F3xx_HAL_Driver/Src/stm32f3xx_hal_rcc.c **** 
 303:Drivers/STM32F3xx_HAL_Driver/Src/stm32f3xx_hal_rcc.c ****   /* Reset CFGR3 register */
 304:Drivers/STM32F3xx_HAL_Driver/Src/stm32f3xx_hal_rcc.c ****   CLEAR_REG(RCC->CFGR3);
 129              		.loc 1 304 3 view .LVU34
 130 0074 2363     		str	r3, [r4, #48]
 305:Drivers/STM32F3xx_HAL_Driver/Src/stm32f3xx_hal_rcc.c **** 
 306:Drivers/STM32F3xx_HAL_Driver/Src/stm32f3xx_hal_rcc.c ****   /* Clear all interrupt flags */
 307:Drivers/STM32F3xx_HAL_Driver/Src/stm32f3xx_hal_rcc.c ****   SET_BIT(RCC->CIR, RCC_CIR_LSIRDYC | RCC_CIR_LSERDYC | RCC_CIR_HSIRDYC | RCC_CIR_HSERDYC | RCC_CIR
 131              		.loc 1 307 3 view .LVU35
 132 0076 A268     		ldr	r2, [r4, #8]
 133 0078 42F41F02 		orr	r2, r2, #10420224
 134 007c A260     		str	r2, [r4, #8]
 308:Drivers/STM32F3xx_HAL_Driver/Src/stm32f3xx_hal_rcc.c **** 
 309:Drivers/STM32F3xx_HAL_Driver/Src/stm32f3xx_hal_rcc.c ****   /* Disable all interrupts */
 310:Drivers/STM32F3xx_HAL_Driver/Src/stm32f3xx_hal_rcc.c ****   CLEAR_REG(RCC->CIR);
 135              		.loc 1 310 3 view .LVU36
 136 007e A360     		str	r3, [r4, #8]
 311:Drivers/STM32F3xx_HAL_Driver/Src/stm32f3xx_hal_rcc.c **** 
 312:Drivers/STM32F3xx_HAL_Driver/Src/stm32f3xx_hal_rcc.c ****   /* Reset all CSR flags */
 313:Drivers/STM32F3xx_HAL_Driver/Src/stm32f3xx_hal_rcc.c ****   __HAL_RCC_CLEAR_RESET_FLAGS();
 137              		.loc 1 313 3 view .LVU37
 138              	.LVL9:
 139              	.LBB176:
ARM GAS  /var/folders/8c/gyvcglfx7f97kbqb2h83mm_r0000gn/T//ccZyiauy.s 			page 9


 140              	.LBI176:
 141              		.file 2 "Drivers/CMSIS/Include/cmsis_gcc.h"
   1:Drivers/CMSIS/Include/cmsis_gcc.h **** /**************************************************************************//**
   2:Drivers/CMSIS/Include/cmsis_gcc.h ****  * @file     cmsis_gcc.h
   3:Drivers/CMSIS/Include/cmsis_gcc.h ****  * @brief    CMSIS Cortex-M Core Function/Instruction Header File
   4:Drivers/CMSIS/Include/cmsis_gcc.h ****  * @version  V4.30
   5:Drivers/CMSIS/Include/cmsis_gcc.h ****  * @date     20. October 2015
   6:Drivers/CMSIS/Include/cmsis_gcc.h ****  ******************************************************************************/
   7:Drivers/CMSIS/Include/cmsis_gcc.h **** /* Copyright (c) 2009 - 2015 ARM LIMITED
   8:Drivers/CMSIS/Include/cmsis_gcc.h **** 
   9:Drivers/CMSIS/Include/cmsis_gcc.h ****    All rights reserved.
  10:Drivers/CMSIS/Include/cmsis_gcc.h ****    Redistribution and use in source and binary forms, with or without
  11:Drivers/CMSIS/Include/cmsis_gcc.h ****    modification, are permitted provided that the following conditions are met:
  12:Drivers/CMSIS/Include/cmsis_gcc.h ****    - Redistributions of source code must retain the above copyright
  13:Drivers/CMSIS/Include/cmsis_gcc.h ****      notice, this list of conditions and the following disclaimer.
  14:Drivers/CMSIS/Include/cmsis_gcc.h ****    - Redistributions in binary form must reproduce the above copyright
  15:Drivers/CMSIS/Include/cmsis_gcc.h ****      notice, this list of conditions and the following disclaimer in the
  16:Drivers/CMSIS/Include/cmsis_gcc.h ****      documentation and/or other materials provided with the distribution.
  17:Drivers/CMSIS/Include/cmsis_gcc.h ****    - Neither the name of ARM nor the names of its contributors may be used
  18:Drivers/CMSIS/Include/cmsis_gcc.h ****      to endorse or promote products derived from this software without
  19:Drivers/CMSIS/Include/cmsis_gcc.h ****      specific prior written permission.
  20:Drivers/CMSIS/Include/cmsis_gcc.h ****    *
  21:Drivers/CMSIS/Include/cmsis_gcc.h ****    THIS SOFTWARE IS PROVIDED BY THE COPYRIGHT HOLDERS AND CONTRIBUTORS "AS IS"
  22:Drivers/CMSIS/Include/cmsis_gcc.h ****    AND ANY EXPRESS OR IMPLIED WARRANTIES, INCLUDING, BUT NOT LIMITED TO, THE
  23:Drivers/CMSIS/Include/cmsis_gcc.h ****    IMPLIED WARRANTIES OF MERCHANTABILITY AND FITNESS FOR A PARTICULAR PURPOSE
  24:Drivers/CMSIS/Include/cmsis_gcc.h ****    ARE DISCLAIMED. IN NO EVENT SHALL COPYRIGHT HOLDERS AND CONTRIBUTORS BE
  25:Drivers/CMSIS/Include/cmsis_gcc.h ****    LIABLE FOR ANY DIRECT, INDIRECT, INCIDENTAL, SPECIAL, EXEMPLARY, OR
  26:Drivers/CMSIS/Include/cmsis_gcc.h ****    CONSEQUENTIAL DAMAGES (INCLUDING, BUT NOT LIMITED TO, PROCUREMENT OF
  27:Drivers/CMSIS/Include/cmsis_gcc.h ****    SUBSTITUTE GOODS OR SERVICES; LOSS OF USE, DATA, OR PROFITS; OR BUSINESS
  28:Drivers/CMSIS/Include/cmsis_gcc.h ****    INTERRUPTION) HOWEVER CAUSED AND ON ANY THEORY OF LIABILITY, WHETHER IN
  29:Drivers/CMSIS/Include/cmsis_gcc.h ****    CONTRACT, STRICT LIABILITY, OR TORT (INCLUDING NEGLIGENCE OR OTHERWISE)
  30:Drivers/CMSIS/Include/cmsis_gcc.h ****    ARISING IN ANY WAY OUT OF THE USE OF THIS SOFTWARE, EVEN IF ADVISED OF THE
  31:Drivers/CMSIS/Include/cmsis_gcc.h ****    POSSIBILITY OF SUCH DAMAGE.
  32:Drivers/CMSIS/Include/cmsis_gcc.h ****    ---------------------------------------------------------------------------*/
  33:Drivers/CMSIS/Include/cmsis_gcc.h **** 
  34:Drivers/CMSIS/Include/cmsis_gcc.h **** 
  35:Drivers/CMSIS/Include/cmsis_gcc.h **** #ifndef __CMSIS_GCC_H
  36:Drivers/CMSIS/Include/cmsis_gcc.h **** #define __CMSIS_GCC_H
  37:Drivers/CMSIS/Include/cmsis_gcc.h **** 
  38:Drivers/CMSIS/Include/cmsis_gcc.h **** /* ignore some GCC warnings */
  39:Drivers/CMSIS/Include/cmsis_gcc.h **** #if defined ( __GNUC__ )
  40:Drivers/CMSIS/Include/cmsis_gcc.h **** #pragma GCC diagnostic push
  41:Drivers/CMSIS/Include/cmsis_gcc.h **** #pragma GCC diagnostic ignored "-Wsign-conversion"
  42:Drivers/CMSIS/Include/cmsis_gcc.h **** #pragma GCC diagnostic ignored "-Wconversion"
  43:Drivers/CMSIS/Include/cmsis_gcc.h **** #pragma GCC diagnostic ignored "-Wunused-parameter"
  44:Drivers/CMSIS/Include/cmsis_gcc.h **** #endif
  45:Drivers/CMSIS/Include/cmsis_gcc.h **** 
  46:Drivers/CMSIS/Include/cmsis_gcc.h **** 
  47:Drivers/CMSIS/Include/cmsis_gcc.h **** /* ###########################  Core Function Access  ########################### */
  48:Drivers/CMSIS/Include/cmsis_gcc.h **** /** \ingroup  CMSIS_Core_FunctionInterface
  49:Drivers/CMSIS/Include/cmsis_gcc.h ****     \defgroup CMSIS_Core_RegAccFunctions CMSIS Core Register Access Functions
  50:Drivers/CMSIS/Include/cmsis_gcc.h ****   @{
  51:Drivers/CMSIS/Include/cmsis_gcc.h ****  */
  52:Drivers/CMSIS/Include/cmsis_gcc.h **** 
  53:Drivers/CMSIS/Include/cmsis_gcc.h **** /**
  54:Drivers/CMSIS/Include/cmsis_gcc.h ****   \brief   Enable IRQ Interrupts
  55:Drivers/CMSIS/Include/cmsis_gcc.h ****   \details Enables IRQ interrupts by clearing the I-bit in the CPSR.
ARM GAS  /var/folders/8c/gyvcglfx7f97kbqb2h83mm_r0000gn/T//ccZyiauy.s 			page 10


  56:Drivers/CMSIS/Include/cmsis_gcc.h ****            Can only be executed in Privileged modes.
  57:Drivers/CMSIS/Include/cmsis_gcc.h ****  */
  58:Drivers/CMSIS/Include/cmsis_gcc.h **** __attribute__( ( always_inline ) ) __STATIC_INLINE void __enable_irq(void)
  59:Drivers/CMSIS/Include/cmsis_gcc.h **** {
  60:Drivers/CMSIS/Include/cmsis_gcc.h ****   __ASM volatile ("cpsie i" : : : "memory");
  61:Drivers/CMSIS/Include/cmsis_gcc.h **** }
  62:Drivers/CMSIS/Include/cmsis_gcc.h **** 
  63:Drivers/CMSIS/Include/cmsis_gcc.h **** 
  64:Drivers/CMSIS/Include/cmsis_gcc.h **** /**
  65:Drivers/CMSIS/Include/cmsis_gcc.h ****   \brief   Disable IRQ Interrupts
  66:Drivers/CMSIS/Include/cmsis_gcc.h ****   \details Disables IRQ interrupts by setting the I-bit in the CPSR.
  67:Drivers/CMSIS/Include/cmsis_gcc.h ****   Can only be executed in Privileged modes.
  68:Drivers/CMSIS/Include/cmsis_gcc.h ****  */
  69:Drivers/CMSIS/Include/cmsis_gcc.h **** __attribute__( ( always_inline ) ) __STATIC_INLINE void __disable_irq(void)
  70:Drivers/CMSIS/Include/cmsis_gcc.h **** {
  71:Drivers/CMSIS/Include/cmsis_gcc.h ****   __ASM volatile ("cpsid i" : : : "memory");
  72:Drivers/CMSIS/Include/cmsis_gcc.h **** }
  73:Drivers/CMSIS/Include/cmsis_gcc.h **** 
  74:Drivers/CMSIS/Include/cmsis_gcc.h **** 
  75:Drivers/CMSIS/Include/cmsis_gcc.h **** /**
  76:Drivers/CMSIS/Include/cmsis_gcc.h ****   \brief   Get Control Register
  77:Drivers/CMSIS/Include/cmsis_gcc.h ****   \details Returns the content of the Control Register.
  78:Drivers/CMSIS/Include/cmsis_gcc.h ****   \return               Control Register value
  79:Drivers/CMSIS/Include/cmsis_gcc.h ****  */
  80:Drivers/CMSIS/Include/cmsis_gcc.h **** __attribute__( ( always_inline ) ) __STATIC_INLINE uint32_t __get_CONTROL(void)
  81:Drivers/CMSIS/Include/cmsis_gcc.h **** {
  82:Drivers/CMSIS/Include/cmsis_gcc.h ****   uint32_t result;
  83:Drivers/CMSIS/Include/cmsis_gcc.h **** 
  84:Drivers/CMSIS/Include/cmsis_gcc.h ****   __ASM volatile ("MRS %0, control" : "=r" (result) );
  85:Drivers/CMSIS/Include/cmsis_gcc.h ****   return(result);
  86:Drivers/CMSIS/Include/cmsis_gcc.h **** }
  87:Drivers/CMSIS/Include/cmsis_gcc.h **** 
  88:Drivers/CMSIS/Include/cmsis_gcc.h **** 
  89:Drivers/CMSIS/Include/cmsis_gcc.h **** /**
  90:Drivers/CMSIS/Include/cmsis_gcc.h ****   \brief   Set Control Register
  91:Drivers/CMSIS/Include/cmsis_gcc.h ****   \details Writes the given value to the Control Register.
  92:Drivers/CMSIS/Include/cmsis_gcc.h ****   \param [in]    control  Control Register value to set
  93:Drivers/CMSIS/Include/cmsis_gcc.h ****  */
  94:Drivers/CMSIS/Include/cmsis_gcc.h **** __attribute__( ( always_inline ) ) __STATIC_INLINE void __set_CONTROL(uint32_t control)
  95:Drivers/CMSIS/Include/cmsis_gcc.h **** {
  96:Drivers/CMSIS/Include/cmsis_gcc.h ****   __ASM volatile ("MSR control, %0" : : "r" (control) : "memory");
  97:Drivers/CMSIS/Include/cmsis_gcc.h **** }
  98:Drivers/CMSIS/Include/cmsis_gcc.h **** 
  99:Drivers/CMSIS/Include/cmsis_gcc.h **** 
 100:Drivers/CMSIS/Include/cmsis_gcc.h **** /**
 101:Drivers/CMSIS/Include/cmsis_gcc.h ****   \brief   Get IPSR Register
 102:Drivers/CMSIS/Include/cmsis_gcc.h ****   \details Returns the content of the IPSR Register.
 103:Drivers/CMSIS/Include/cmsis_gcc.h ****   \return               IPSR Register value
 104:Drivers/CMSIS/Include/cmsis_gcc.h ****  */
 105:Drivers/CMSIS/Include/cmsis_gcc.h **** __attribute__( ( always_inline ) ) __STATIC_INLINE uint32_t __get_IPSR(void)
 106:Drivers/CMSIS/Include/cmsis_gcc.h **** {
 107:Drivers/CMSIS/Include/cmsis_gcc.h ****   uint32_t result;
 108:Drivers/CMSIS/Include/cmsis_gcc.h **** 
 109:Drivers/CMSIS/Include/cmsis_gcc.h ****   __ASM volatile ("MRS %0, ipsr" : "=r" (result) );
 110:Drivers/CMSIS/Include/cmsis_gcc.h ****   return(result);
 111:Drivers/CMSIS/Include/cmsis_gcc.h **** }
 112:Drivers/CMSIS/Include/cmsis_gcc.h **** 
ARM GAS  /var/folders/8c/gyvcglfx7f97kbqb2h83mm_r0000gn/T//ccZyiauy.s 			page 11


 113:Drivers/CMSIS/Include/cmsis_gcc.h **** 
 114:Drivers/CMSIS/Include/cmsis_gcc.h **** /**
 115:Drivers/CMSIS/Include/cmsis_gcc.h ****   \brief   Get APSR Register
 116:Drivers/CMSIS/Include/cmsis_gcc.h ****   \details Returns the content of the APSR Register.
 117:Drivers/CMSIS/Include/cmsis_gcc.h ****   \return               APSR Register value
 118:Drivers/CMSIS/Include/cmsis_gcc.h ****  */
 119:Drivers/CMSIS/Include/cmsis_gcc.h **** __attribute__( ( always_inline ) ) __STATIC_INLINE uint32_t __get_APSR(void)
 120:Drivers/CMSIS/Include/cmsis_gcc.h **** {
 121:Drivers/CMSIS/Include/cmsis_gcc.h ****   uint32_t result;
 122:Drivers/CMSIS/Include/cmsis_gcc.h **** 
 123:Drivers/CMSIS/Include/cmsis_gcc.h ****   __ASM volatile ("MRS %0, apsr" : "=r" (result) );
 124:Drivers/CMSIS/Include/cmsis_gcc.h ****   return(result);
 125:Drivers/CMSIS/Include/cmsis_gcc.h **** }
 126:Drivers/CMSIS/Include/cmsis_gcc.h **** 
 127:Drivers/CMSIS/Include/cmsis_gcc.h **** 
 128:Drivers/CMSIS/Include/cmsis_gcc.h **** /**
 129:Drivers/CMSIS/Include/cmsis_gcc.h ****   \brief   Get xPSR Register
 130:Drivers/CMSIS/Include/cmsis_gcc.h ****   \details Returns the content of the xPSR Register.
 131:Drivers/CMSIS/Include/cmsis_gcc.h **** 
 132:Drivers/CMSIS/Include/cmsis_gcc.h ****     \return               xPSR Register value
 133:Drivers/CMSIS/Include/cmsis_gcc.h ****  */
 134:Drivers/CMSIS/Include/cmsis_gcc.h **** __attribute__( ( always_inline ) ) __STATIC_INLINE uint32_t __get_xPSR(void)
 135:Drivers/CMSIS/Include/cmsis_gcc.h **** {
 136:Drivers/CMSIS/Include/cmsis_gcc.h ****   uint32_t result;
 137:Drivers/CMSIS/Include/cmsis_gcc.h **** 
 138:Drivers/CMSIS/Include/cmsis_gcc.h ****   __ASM volatile ("MRS %0, xpsr" : "=r" (result) );
 139:Drivers/CMSIS/Include/cmsis_gcc.h ****   return(result);
 140:Drivers/CMSIS/Include/cmsis_gcc.h **** }
 141:Drivers/CMSIS/Include/cmsis_gcc.h **** 
 142:Drivers/CMSIS/Include/cmsis_gcc.h **** 
 143:Drivers/CMSIS/Include/cmsis_gcc.h **** /**
 144:Drivers/CMSIS/Include/cmsis_gcc.h ****   \brief   Get Process Stack Pointer
 145:Drivers/CMSIS/Include/cmsis_gcc.h ****   \details Returns the current value of the Process Stack Pointer (PSP).
 146:Drivers/CMSIS/Include/cmsis_gcc.h ****   \return               PSP Register value
 147:Drivers/CMSIS/Include/cmsis_gcc.h ****  */
 148:Drivers/CMSIS/Include/cmsis_gcc.h **** __attribute__( ( always_inline ) ) __STATIC_INLINE uint32_t __get_PSP(void)
 149:Drivers/CMSIS/Include/cmsis_gcc.h **** {
 150:Drivers/CMSIS/Include/cmsis_gcc.h ****   register uint32_t result;
 151:Drivers/CMSIS/Include/cmsis_gcc.h **** 
 152:Drivers/CMSIS/Include/cmsis_gcc.h ****   __ASM volatile ("MRS %0, psp\n"  : "=r" (result) );
 153:Drivers/CMSIS/Include/cmsis_gcc.h ****   return(result);
 154:Drivers/CMSIS/Include/cmsis_gcc.h **** }
 155:Drivers/CMSIS/Include/cmsis_gcc.h **** 
 156:Drivers/CMSIS/Include/cmsis_gcc.h **** 
 157:Drivers/CMSIS/Include/cmsis_gcc.h **** /**
 158:Drivers/CMSIS/Include/cmsis_gcc.h ****   \brief   Set Process Stack Pointer
 159:Drivers/CMSIS/Include/cmsis_gcc.h ****   \details Assigns the given value to the Process Stack Pointer (PSP).
 160:Drivers/CMSIS/Include/cmsis_gcc.h ****   \param [in]    topOfProcStack  Process Stack Pointer value to set
 161:Drivers/CMSIS/Include/cmsis_gcc.h ****  */
 162:Drivers/CMSIS/Include/cmsis_gcc.h **** __attribute__( ( always_inline ) ) __STATIC_INLINE void __set_PSP(uint32_t topOfProcStack)
 163:Drivers/CMSIS/Include/cmsis_gcc.h **** {
 164:Drivers/CMSIS/Include/cmsis_gcc.h ****   __ASM volatile ("MSR psp, %0\n" : : "r" (topOfProcStack) : "sp");
 165:Drivers/CMSIS/Include/cmsis_gcc.h **** }
 166:Drivers/CMSIS/Include/cmsis_gcc.h **** 
 167:Drivers/CMSIS/Include/cmsis_gcc.h **** 
 168:Drivers/CMSIS/Include/cmsis_gcc.h **** /**
 169:Drivers/CMSIS/Include/cmsis_gcc.h ****   \brief   Get Main Stack Pointer
ARM GAS  /var/folders/8c/gyvcglfx7f97kbqb2h83mm_r0000gn/T//ccZyiauy.s 			page 12


 170:Drivers/CMSIS/Include/cmsis_gcc.h ****   \details Returns the current value of the Main Stack Pointer (MSP).
 171:Drivers/CMSIS/Include/cmsis_gcc.h ****   \return               MSP Register value
 172:Drivers/CMSIS/Include/cmsis_gcc.h ****  */
 173:Drivers/CMSIS/Include/cmsis_gcc.h **** __attribute__( ( always_inline ) ) __STATIC_INLINE uint32_t __get_MSP(void)
 174:Drivers/CMSIS/Include/cmsis_gcc.h **** {
 175:Drivers/CMSIS/Include/cmsis_gcc.h ****   register uint32_t result;
 176:Drivers/CMSIS/Include/cmsis_gcc.h **** 
 177:Drivers/CMSIS/Include/cmsis_gcc.h ****   __ASM volatile ("MRS %0, msp\n" : "=r" (result) );
 178:Drivers/CMSIS/Include/cmsis_gcc.h ****   return(result);
 179:Drivers/CMSIS/Include/cmsis_gcc.h **** }
 180:Drivers/CMSIS/Include/cmsis_gcc.h **** 
 181:Drivers/CMSIS/Include/cmsis_gcc.h **** 
 182:Drivers/CMSIS/Include/cmsis_gcc.h **** /**
 183:Drivers/CMSIS/Include/cmsis_gcc.h ****   \brief   Set Main Stack Pointer
 184:Drivers/CMSIS/Include/cmsis_gcc.h ****   \details Assigns the given value to the Main Stack Pointer (MSP).
 185:Drivers/CMSIS/Include/cmsis_gcc.h **** 
 186:Drivers/CMSIS/Include/cmsis_gcc.h ****     \param [in]    topOfMainStack  Main Stack Pointer value to set
 187:Drivers/CMSIS/Include/cmsis_gcc.h ****  */
 188:Drivers/CMSIS/Include/cmsis_gcc.h **** __attribute__( ( always_inline ) ) __STATIC_INLINE void __set_MSP(uint32_t topOfMainStack)
 189:Drivers/CMSIS/Include/cmsis_gcc.h **** {
 190:Drivers/CMSIS/Include/cmsis_gcc.h ****   __ASM volatile ("MSR msp, %0\n" : : "r" (topOfMainStack) : "sp");
 191:Drivers/CMSIS/Include/cmsis_gcc.h **** }
 192:Drivers/CMSIS/Include/cmsis_gcc.h **** 
 193:Drivers/CMSIS/Include/cmsis_gcc.h **** 
 194:Drivers/CMSIS/Include/cmsis_gcc.h **** /**
 195:Drivers/CMSIS/Include/cmsis_gcc.h ****   \brief   Get Priority Mask
 196:Drivers/CMSIS/Include/cmsis_gcc.h ****   \details Returns the current state of the priority mask bit from the Priority Mask Register.
 197:Drivers/CMSIS/Include/cmsis_gcc.h ****   \return               Priority Mask value
 198:Drivers/CMSIS/Include/cmsis_gcc.h ****  */
 199:Drivers/CMSIS/Include/cmsis_gcc.h **** __attribute__( ( always_inline ) ) __STATIC_INLINE uint32_t __get_PRIMASK(void)
 200:Drivers/CMSIS/Include/cmsis_gcc.h **** {
 201:Drivers/CMSIS/Include/cmsis_gcc.h ****   uint32_t result;
 202:Drivers/CMSIS/Include/cmsis_gcc.h **** 
 203:Drivers/CMSIS/Include/cmsis_gcc.h ****   __ASM volatile ("MRS %0, primask" : "=r" (result) );
 204:Drivers/CMSIS/Include/cmsis_gcc.h ****   return(result);
 205:Drivers/CMSIS/Include/cmsis_gcc.h **** }
 206:Drivers/CMSIS/Include/cmsis_gcc.h **** 
 207:Drivers/CMSIS/Include/cmsis_gcc.h **** 
 208:Drivers/CMSIS/Include/cmsis_gcc.h **** /**
 209:Drivers/CMSIS/Include/cmsis_gcc.h ****   \brief   Set Priority Mask
 210:Drivers/CMSIS/Include/cmsis_gcc.h ****   \details Assigns the given value to the Priority Mask Register.
 211:Drivers/CMSIS/Include/cmsis_gcc.h ****   \param [in]    priMask  Priority Mask
 212:Drivers/CMSIS/Include/cmsis_gcc.h ****  */
 213:Drivers/CMSIS/Include/cmsis_gcc.h **** __attribute__( ( always_inline ) ) __STATIC_INLINE void __set_PRIMASK(uint32_t priMask)
 214:Drivers/CMSIS/Include/cmsis_gcc.h **** {
 215:Drivers/CMSIS/Include/cmsis_gcc.h ****   __ASM volatile ("MSR primask, %0" : : "r" (priMask) : "memory");
 216:Drivers/CMSIS/Include/cmsis_gcc.h **** }
 217:Drivers/CMSIS/Include/cmsis_gcc.h **** 
 218:Drivers/CMSIS/Include/cmsis_gcc.h **** 
 219:Drivers/CMSIS/Include/cmsis_gcc.h **** #if       (__CORTEX_M >= 0x03U)
 220:Drivers/CMSIS/Include/cmsis_gcc.h **** 
 221:Drivers/CMSIS/Include/cmsis_gcc.h **** /**
 222:Drivers/CMSIS/Include/cmsis_gcc.h ****   \brief   Enable FIQ
 223:Drivers/CMSIS/Include/cmsis_gcc.h ****   \details Enables FIQ interrupts by clearing the F-bit in the CPSR.
 224:Drivers/CMSIS/Include/cmsis_gcc.h ****            Can only be executed in Privileged modes.
 225:Drivers/CMSIS/Include/cmsis_gcc.h ****  */
 226:Drivers/CMSIS/Include/cmsis_gcc.h **** __attribute__( ( always_inline ) ) __STATIC_INLINE void __enable_fault_irq(void)
ARM GAS  /var/folders/8c/gyvcglfx7f97kbqb2h83mm_r0000gn/T//ccZyiauy.s 			page 13


 227:Drivers/CMSIS/Include/cmsis_gcc.h **** {
 228:Drivers/CMSIS/Include/cmsis_gcc.h ****   __ASM volatile ("cpsie f" : : : "memory");
 229:Drivers/CMSIS/Include/cmsis_gcc.h **** }
 230:Drivers/CMSIS/Include/cmsis_gcc.h **** 
 231:Drivers/CMSIS/Include/cmsis_gcc.h **** 
 232:Drivers/CMSIS/Include/cmsis_gcc.h **** /**
 233:Drivers/CMSIS/Include/cmsis_gcc.h ****   \brief   Disable FIQ
 234:Drivers/CMSIS/Include/cmsis_gcc.h ****   \details Disables FIQ interrupts by setting the F-bit in the CPSR.
 235:Drivers/CMSIS/Include/cmsis_gcc.h ****            Can only be executed in Privileged modes.
 236:Drivers/CMSIS/Include/cmsis_gcc.h ****  */
 237:Drivers/CMSIS/Include/cmsis_gcc.h **** __attribute__( ( always_inline ) ) __STATIC_INLINE void __disable_fault_irq(void)
 238:Drivers/CMSIS/Include/cmsis_gcc.h **** {
 239:Drivers/CMSIS/Include/cmsis_gcc.h ****   __ASM volatile ("cpsid f" : : : "memory");
 240:Drivers/CMSIS/Include/cmsis_gcc.h **** }
 241:Drivers/CMSIS/Include/cmsis_gcc.h **** 
 242:Drivers/CMSIS/Include/cmsis_gcc.h **** 
 243:Drivers/CMSIS/Include/cmsis_gcc.h **** /**
 244:Drivers/CMSIS/Include/cmsis_gcc.h ****   \brief   Get Base Priority
 245:Drivers/CMSIS/Include/cmsis_gcc.h ****   \details Returns the current value of the Base Priority register.
 246:Drivers/CMSIS/Include/cmsis_gcc.h ****   \return               Base Priority register value
 247:Drivers/CMSIS/Include/cmsis_gcc.h ****  */
 248:Drivers/CMSIS/Include/cmsis_gcc.h **** __attribute__( ( always_inline ) ) __STATIC_INLINE uint32_t __get_BASEPRI(void)
 249:Drivers/CMSIS/Include/cmsis_gcc.h **** {
 250:Drivers/CMSIS/Include/cmsis_gcc.h ****   uint32_t result;
 251:Drivers/CMSIS/Include/cmsis_gcc.h **** 
 252:Drivers/CMSIS/Include/cmsis_gcc.h ****   __ASM volatile ("MRS %0, basepri" : "=r" (result) );
 253:Drivers/CMSIS/Include/cmsis_gcc.h ****   return(result);
 254:Drivers/CMSIS/Include/cmsis_gcc.h **** }
 255:Drivers/CMSIS/Include/cmsis_gcc.h **** 
 256:Drivers/CMSIS/Include/cmsis_gcc.h **** 
 257:Drivers/CMSIS/Include/cmsis_gcc.h **** /**
 258:Drivers/CMSIS/Include/cmsis_gcc.h ****   \brief   Set Base Priority
 259:Drivers/CMSIS/Include/cmsis_gcc.h ****   \details Assigns the given value to the Base Priority register.
 260:Drivers/CMSIS/Include/cmsis_gcc.h ****   \param [in]    basePri  Base Priority value to set
 261:Drivers/CMSIS/Include/cmsis_gcc.h ****  */
 262:Drivers/CMSIS/Include/cmsis_gcc.h **** __attribute__( ( always_inline ) ) __STATIC_INLINE void __set_BASEPRI(uint32_t value)
 263:Drivers/CMSIS/Include/cmsis_gcc.h **** {
 264:Drivers/CMSIS/Include/cmsis_gcc.h ****   __ASM volatile ("MSR basepri, %0" : : "r" (value) : "memory");
 265:Drivers/CMSIS/Include/cmsis_gcc.h **** }
 266:Drivers/CMSIS/Include/cmsis_gcc.h **** 
 267:Drivers/CMSIS/Include/cmsis_gcc.h **** 
 268:Drivers/CMSIS/Include/cmsis_gcc.h **** /**
 269:Drivers/CMSIS/Include/cmsis_gcc.h ****   \brief   Set Base Priority with condition
 270:Drivers/CMSIS/Include/cmsis_gcc.h ****   \details Assigns the given value to the Base Priority register only if BASEPRI masking is disable
 271:Drivers/CMSIS/Include/cmsis_gcc.h ****            or the new value increases the BASEPRI priority level.
 272:Drivers/CMSIS/Include/cmsis_gcc.h ****   \param [in]    basePri  Base Priority value to set
 273:Drivers/CMSIS/Include/cmsis_gcc.h ****  */
 274:Drivers/CMSIS/Include/cmsis_gcc.h **** __attribute__( ( always_inline ) ) __STATIC_INLINE void __set_BASEPRI_MAX(uint32_t value)
 275:Drivers/CMSIS/Include/cmsis_gcc.h **** {
 276:Drivers/CMSIS/Include/cmsis_gcc.h ****   __ASM volatile ("MSR basepri_max, %0" : : "r" (value) : "memory");
 277:Drivers/CMSIS/Include/cmsis_gcc.h **** }
 278:Drivers/CMSIS/Include/cmsis_gcc.h **** 
 279:Drivers/CMSIS/Include/cmsis_gcc.h **** 
 280:Drivers/CMSIS/Include/cmsis_gcc.h **** /**
 281:Drivers/CMSIS/Include/cmsis_gcc.h ****   \brief   Get Fault Mask
 282:Drivers/CMSIS/Include/cmsis_gcc.h ****   \details Returns the current value of the Fault Mask register.
 283:Drivers/CMSIS/Include/cmsis_gcc.h ****   \return               Fault Mask register value
ARM GAS  /var/folders/8c/gyvcglfx7f97kbqb2h83mm_r0000gn/T//ccZyiauy.s 			page 14


 284:Drivers/CMSIS/Include/cmsis_gcc.h ****  */
 285:Drivers/CMSIS/Include/cmsis_gcc.h **** __attribute__( ( always_inline ) ) __STATIC_INLINE uint32_t __get_FAULTMASK(void)
 286:Drivers/CMSIS/Include/cmsis_gcc.h **** {
 287:Drivers/CMSIS/Include/cmsis_gcc.h ****   uint32_t result;
 288:Drivers/CMSIS/Include/cmsis_gcc.h **** 
 289:Drivers/CMSIS/Include/cmsis_gcc.h ****   __ASM volatile ("MRS %0, faultmask" : "=r" (result) );
 290:Drivers/CMSIS/Include/cmsis_gcc.h ****   return(result);
 291:Drivers/CMSIS/Include/cmsis_gcc.h **** }
 292:Drivers/CMSIS/Include/cmsis_gcc.h **** 
 293:Drivers/CMSIS/Include/cmsis_gcc.h **** 
 294:Drivers/CMSIS/Include/cmsis_gcc.h **** /**
 295:Drivers/CMSIS/Include/cmsis_gcc.h ****   \brief   Set Fault Mask
 296:Drivers/CMSIS/Include/cmsis_gcc.h ****   \details Assigns the given value to the Fault Mask register.
 297:Drivers/CMSIS/Include/cmsis_gcc.h ****   \param [in]    faultMask  Fault Mask value to set
 298:Drivers/CMSIS/Include/cmsis_gcc.h ****  */
 299:Drivers/CMSIS/Include/cmsis_gcc.h **** __attribute__( ( always_inline ) ) __STATIC_INLINE void __set_FAULTMASK(uint32_t faultMask)
 300:Drivers/CMSIS/Include/cmsis_gcc.h **** {
 301:Drivers/CMSIS/Include/cmsis_gcc.h ****   __ASM volatile ("MSR faultmask, %0" : : "r" (faultMask) : "memory");
 302:Drivers/CMSIS/Include/cmsis_gcc.h **** }
 303:Drivers/CMSIS/Include/cmsis_gcc.h **** 
 304:Drivers/CMSIS/Include/cmsis_gcc.h **** #endif /* (__CORTEX_M >= 0x03U) */
 305:Drivers/CMSIS/Include/cmsis_gcc.h **** 
 306:Drivers/CMSIS/Include/cmsis_gcc.h **** 
 307:Drivers/CMSIS/Include/cmsis_gcc.h **** #if       (__CORTEX_M == 0x04U) || (__CORTEX_M == 0x07U)
 308:Drivers/CMSIS/Include/cmsis_gcc.h **** 
 309:Drivers/CMSIS/Include/cmsis_gcc.h **** /**
 310:Drivers/CMSIS/Include/cmsis_gcc.h ****   \brief   Get FPSCR
 311:Drivers/CMSIS/Include/cmsis_gcc.h ****   \details Returns the current value of the Floating Point Status/Control register.
 312:Drivers/CMSIS/Include/cmsis_gcc.h ****   \return               Floating Point Status/Control register value
 313:Drivers/CMSIS/Include/cmsis_gcc.h ****  */
 314:Drivers/CMSIS/Include/cmsis_gcc.h **** __attribute__( ( always_inline ) ) __STATIC_INLINE uint32_t __get_FPSCR(void)
 315:Drivers/CMSIS/Include/cmsis_gcc.h **** {
 316:Drivers/CMSIS/Include/cmsis_gcc.h **** #if (__FPU_PRESENT == 1U) && (__FPU_USED == 1U)
 317:Drivers/CMSIS/Include/cmsis_gcc.h ****   uint32_t result;
 318:Drivers/CMSIS/Include/cmsis_gcc.h **** 
 319:Drivers/CMSIS/Include/cmsis_gcc.h ****   /* Empty asm statement works as a scheduling barrier */
 320:Drivers/CMSIS/Include/cmsis_gcc.h ****   __ASM volatile ("");
 321:Drivers/CMSIS/Include/cmsis_gcc.h ****   __ASM volatile ("VMRS %0, fpscr" : "=r" (result) );
 322:Drivers/CMSIS/Include/cmsis_gcc.h ****   __ASM volatile ("");
 323:Drivers/CMSIS/Include/cmsis_gcc.h ****   return(result);
 324:Drivers/CMSIS/Include/cmsis_gcc.h **** #else
 325:Drivers/CMSIS/Include/cmsis_gcc.h ****    return(0);
 326:Drivers/CMSIS/Include/cmsis_gcc.h **** #endif
 327:Drivers/CMSIS/Include/cmsis_gcc.h **** }
 328:Drivers/CMSIS/Include/cmsis_gcc.h **** 
 329:Drivers/CMSIS/Include/cmsis_gcc.h **** 
 330:Drivers/CMSIS/Include/cmsis_gcc.h **** /**
 331:Drivers/CMSIS/Include/cmsis_gcc.h ****   \brief   Set FPSCR
 332:Drivers/CMSIS/Include/cmsis_gcc.h ****   \details Assigns the given value to the Floating Point Status/Control register.
 333:Drivers/CMSIS/Include/cmsis_gcc.h ****   \param [in]    fpscr  Floating Point Status/Control value to set
 334:Drivers/CMSIS/Include/cmsis_gcc.h ****  */
 335:Drivers/CMSIS/Include/cmsis_gcc.h **** __attribute__( ( always_inline ) ) __STATIC_INLINE void __set_FPSCR(uint32_t fpscr)
 336:Drivers/CMSIS/Include/cmsis_gcc.h **** {
 337:Drivers/CMSIS/Include/cmsis_gcc.h **** #if (__FPU_PRESENT == 1U) && (__FPU_USED == 1U)
 338:Drivers/CMSIS/Include/cmsis_gcc.h ****   /* Empty asm statement works as a scheduling barrier */
 339:Drivers/CMSIS/Include/cmsis_gcc.h ****   __ASM volatile ("");
 340:Drivers/CMSIS/Include/cmsis_gcc.h ****   __ASM volatile ("VMSR fpscr, %0" : : "r" (fpscr) : "vfpcc");
ARM GAS  /var/folders/8c/gyvcglfx7f97kbqb2h83mm_r0000gn/T//ccZyiauy.s 			page 15


 341:Drivers/CMSIS/Include/cmsis_gcc.h ****   __ASM volatile ("");
 342:Drivers/CMSIS/Include/cmsis_gcc.h **** #endif
 343:Drivers/CMSIS/Include/cmsis_gcc.h **** }
 344:Drivers/CMSIS/Include/cmsis_gcc.h **** 
 345:Drivers/CMSIS/Include/cmsis_gcc.h **** #endif /* (__CORTEX_M == 0x04U) || (__CORTEX_M == 0x07U) */
 346:Drivers/CMSIS/Include/cmsis_gcc.h **** 
 347:Drivers/CMSIS/Include/cmsis_gcc.h **** 
 348:Drivers/CMSIS/Include/cmsis_gcc.h **** 
 349:Drivers/CMSIS/Include/cmsis_gcc.h **** /*@} end of CMSIS_Core_RegAccFunctions */
 350:Drivers/CMSIS/Include/cmsis_gcc.h **** 
 351:Drivers/CMSIS/Include/cmsis_gcc.h **** 
 352:Drivers/CMSIS/Include/cmsis_gcc.h **** /* ##########################  Core Instruction Access  ######################### */
 353:Drivers/CMSIS/Include/cmsis_gcc.h **** /** \defgroup CMSIS_Core_InstructionInterface CMSIS Core Instruction Interface
 354:Drivers/CMSIS/Include/cmsis_gcc.h ****   Access to dedicated instructions
 355:Drivers/CMSIS/Include/cmsis_gcc.h ****   @{
 356:Drivers/CMSIS/Include/cmsis_gcc.h **** */
 357:Drivers/CMSIS/Include/cmsis_gcc.h **** 
 358:Drivers/CMSIS/Include/cmsis_gcc.h **** /* Define macros for porting to both thumb1 and thumb2.
 359:Drivers/CMSIS/Include/cmsis_gcc.h ****  * For thumb1, use low register (r0-r7), specified by constraint "l"
 360:Drivers/CMSIS/Include/cmsis_gcc.h ****  * Otherwise, use general registers, specified by constraint "r" */
 361:Drivers/CMSIS/Include/cmsis_gcc.h **** #if defined (__thumb__) && !defined (__thumb2__)
 362:Drivers/CMSIS/Include/cmsis_gcc.h **** #define __CMSIS_GCC_OUT_REG(r) "=l" (r)
 363:Drivers/CMSIS/Include/cmsis_gcc.h **** #define __CMSIS_GCC_USE_REG(r) "l" (r)
 364:Drivers/CMSIS/Include/cmsis_gcc.h **** #else
 365:Drivers/CMSIS/Include/cmsis_gcc.h **** #define __CMSIS_GCC_OUT_REG(r) "=r" (r)
 366:Drivers/CMSIS/Include/cmsis_gcc.h **** #define __CMSIS_GCC_USE_REG(r) "r" (r)
 367:Drivers/CMSIS/Include/cmsis_gcc.h **** #endif
 368:Drivers/CMSIS/Include/cmsis_gcc.h **** 
 369:Drivers/CMSIS/Include/cmsis_gcc.h **** /**
 370:Drivers/CMSIS/Include/cmsis_gcc.h ****   \brief   No Operation
 371:Drivers/CMSIS/Include/cmsis_gcc.h ****   \details No Operation does nothing. This instruction can be used for code alignment purposes.
 372:Drivers/CMSIS/Include/cmsis_gcc.h ****  */
 373:Drivers/CMSIS/Include/cmsis_gcc.h **** __attribute__((always_inline)) __STATIC_INLINE void __NOP(void)
 374:Drivers/CMSIS/Include/cmsis_gcc.h **** {
 375:Drivers/CMSIS/Include/cmsis_gcc.h ****   __ASM volatile ("nop");
 376:Drivers/CMSIS/Include/cmsis_gcc.h **** }
 377:Drivers/CMSIS/Include/cmsis_gcc.h **** 
 378:Drivers/CMSIS/Include/cmsis_gcc.h **** 
 379:Drivers/CMSIS/Include/cmsis_gcc.h **** /**
 380:Drivers/CMSIS/Include/cmsis_gcc.h ****   \brief   Wait For Interrupt
 381:Drivers/CMSIS/Include/cmsis_gcc.h ****   \details Wait For Interrupt is a hint instruction that suspends execution until one of a number o
 382:Drivers/CMSIS/Include/cmsis_gcc.h ****  */
 383:Drivers/CMSIS/Include/cmsis_gcc.h **** __attribute__((always_inline)) __STATIC_INLINE void __WFI(void)
 384:Drivers/CMSIS/Include/cmsis_gcc.h **** {
 385:Drivers/CMSIS/Include/cmsis_gcc.h ****   __ASM volatile ("wfi");
 386:Drivers/CMSIS/Include/cmsis_gcc.h **** }
 387:Drivers/CMSIS/Include/cmsis_gcc.h **** 
 388:Drivers/CMSIS/Include/cmsis_gcc.h **** 
 389:Drivers/CMSIS/Include/cmsis_gcc.h **** /**
 390:Drivers/CMSIS/Include/cmsis_gcc.h ****   \brief   Wait For Event
 391:Drivers/CMSIS/Include/cmsis_gcc.h ****   \details Wait For Event is a hint instruction that permits the processor to enter
 392:Drivers/CMSIS/Include/cmsis_gcc.h ****     a low-power state until one of a number of events occurs.
 393:Drivers/CMSIS/Include/cmsis_gcc.h ****  */
 394:Drivers/CMSIS/Include/cmsis_gcc.h **** __attribute__((always_inline)) __STATIC_INLINE void __WFE(void)
 395:Drivers/CMSIS/Include/cmsis_gcc.h **** {
 396:Drivers/CMSIS/Include/cmsis_gcc.h ****   __ASM volatile ("wfe");
 397:Drivers/CMSIS/Include/cmsis_gcc.h **** }
ARM GAS  /var/folders/8c/gyvcglfx7f97kbqb2h83mm_r0000gn/T//ccZyiauy.s 			page 16


 398:Drivers/CMSIS/Include/cmsis_gcc.h **** 
 399:Drivers/CMSIS/Include/cmsis_gcc.h **** 
 400:Drivers/CMSIS/Include/cmsis_gcc.h **** /**
 401:Drivers/CMSIS/Include/cmsis_gcc.h ****   \brief   Send Event
 402:Drivers/CMSIS/Include/cmsis_gcc.h ****   \details Send Event is a hint instruction. It causes an event to be signaled to the CPU.
 403:Drivers/CMSIS/Include/cmsis_gcc.h ****  */
 404:Drivers/CMSIS/Include/cmsis_gcc.h **** __attribute__((always_inline)) __STATIC_INLINE void __SEV(void)
 405:Drivers/CMSIS/Include/cmsis_gcc.h **** {
 406:Drivers/CMSIS/Include/cmsis_gcc.h ****   __ASM volatile ("sev");
 407:Drivers/CMSIS/Include/cmsis_gcc.h **** }
 408:Drivers/CMSIS/Include/cmsis_gcc.h **** 
 409:Drivers/CMSIS/Include/cmsis_gcc.h **** 
 410:Drivers/CMSIS/Include/cmsis_gcc.h **** /**
 411:Drivers/CMSIS/Include/cmsis_gcc.h ****   \brief   Instruction Synchronization Barrier
 412:Drivers/CMSIS/Include/cmsis_gcc.h ****   \details Instruction Synchronization Barrier flushes the pipeline in the processor,
 413:Drivers/CMSIS/Include/cmsis_gcc.h ****            so that all instructions following the ISB are fetched from cache or memory,
 414:Drivers/CMSIS/Include/cmsis_gcc.h ****            after the instruction has been completed.
 415:Drivers/CMSIS/Include/cmsis_gcc.h ****  */
 416:Drivers/CMSIS/Include/cmsis_gcc.h **** __attribute__((always_inline)) __STATIC_INLINE void __ISB(void)
 417:Drivers/CMSIS/Include/cmsis_gcc.h **** {
 418:Drivers/CMSIS/Include/cmsis_gcc.h ****   __ASM volatile ("isb 0xF":::"memory");
 419:Drivers/CMSIS/Include/cmsis_gcc.h **** }
 420:Drivers/CMSIS/Include/cmsis_gcc.h **** 
 421:Drivers/CMSIS/Include/cmsis_gcc.h **** 
 422:Drivers/CMSIS/Include/cmsis_gcc.h **** /**
 423:Drivers/CMSIS/Include/cmsis_gcc.h ****   \brief   Data Synchronization Barrier
 424:Drivers/CMSIS/Include/cmsis_gcc.h ****   \details Acts as a special kind of Data Memory Barrier.
 425:Drivers/CMSIS/Include/cmsis_gcc.h ****            It completes when all explicit memory accesses before this instruction complete.
 426:Drivers/CMSIS/Include/cmsis_gcc.h ****  */
 427:Drivers/CMSIS/Include/cmsis_gcc.h **** __attribute__((always_inline)) __STATIC_INLINE void __DSB(void)
 428:Drivers/CMSIS/Include/cmsis_gcc.h **** {
 429:Drivers/CMSIS/Include/cmsis_gcc.h ****   __ASM volatile ("dsb 0xF":::"memory");
 430:Drivers/CMSIS/Include/cmsis_gcc.h **** }
 431:Drivers/CMSIS/Include/cmsis_gcc.h **** 
 432:Drivers/CMSIS/Include/cmsis_gcc.h **** 
 433:Drivers/CMSIS/Include/cmsis_gcc.h **** /**
 434:Drivers/CMSIS/Include/cmsis_gcc.h ****   \brief   Data Memory Barrier
 435:Drivers/CMSIS/Include/cmsis_gcc.h ****   \details Ensures the apparent order of the explicit memory operations before
 436:Drivers/CMSIS/Include/cmsis_gcc.h ****            and after the instruction, without ensuring their completion.
 437:Drivers/CMSIS/Include/cmsis_gcc.h ****  */
 438:Drivers/CMSIS/Include/cmsis_gcc.h **** __attribute__((always_inline)) __STATIC_INLINE void __DMB(void)
 439:Drivers/CMSIS/Include/cmsis_gcc.h **** {
 440:Drivers/CMSIS/Include/cmsis_gcc.h ****   __ASM volatile ("dmb 0xF":::"memory");
 441:Drivers/CMSIS/Include/cmsis_gcc.h **** }
 442:Drivers/CMSIS/Include/cmsis_gcc.h **** 
 443:Drivers/CMSIS/Include/cmsis_gcc.h **** 
 444:Drivers/CMSIS/Include/cmsis_gcc.h **** /**
 445:Drivers/CMSIS/Include/cmsis_gcc.h ****   \brief   Reverse byte order (32 bit)
 446:Drivers/CMSIS/Include/cmsis_gcc.h ****   \details Reverses the byte order in integer value.
 447:Drivers/CMSIS/Include/cmsis_gcc.h ****   \param [in]    value  Value to reverse
 448:Drivers/CMSIS/Include/cmsis_gcc.h ****   \return               Reversed value
 449:Drivers/CMSIS/Include/cmsis_gcc.h ****  */
 450:Drivers/CMSIS/Include/cmsis_gcc.h **** __attribute__((always_inline)) __STATIC_INLINE uint32_t __REV(uint32_t value)
 451:Drivers/CMSIS/Include/cmsis_gcc.h **** {
 452:Drivers/CMSIS/Include/cmsis_gcc.h **** #if (__GNUC__ > 4) || (__GNUC__ == 4 && __GNUC_MINOR__ >= 5)
 453:Drivers/CMSIS/Include/cmsis_gcc.h ****   return __builtin_bswap32(value);
 454:Drivers/CMSIS/Include/cmsis_gcc.h **** #else
ARM GAS  /var/folders/8c/gyvcglfx7f97kbqb2h83mm_r0000gn/T//ccZyiauy.s 			page 17


 455:Drivers/CMSIS/Include/cmsis_gcc.h ****   uint32_t result;
 456:Drivers/CMSIS/Include/cmsis_gcc.h **** 
 457:Drivers/CMSIS/Include/cmsis_gcc.h ****   __ASM volatile ("rev %0, %1" : __CMSIS_GCC_OUT_REG (result) : __CMSIS_GCC_USE_REG (value) );
 458:Drivers/CMSIS/Include/cmsis_gcc.h ****   return(result);
 459:Drivers/CMSIS/Include/cmsis_gcc.h **** #endif
 460:Drivers/CMSIS/Include/cmsis_gcc.h **** }
 461:Drivers/CMSIS/Include/cmsis_gcc.h **** 
 462:Drivers/CMSIS/Include/cmsis_gcc.h **** 
 463:Drivers/CMSIS/Include/cmsis_gcc.h **** /**
 464:Drivers/CMSIS/Include/cmsis_gcc.h ****   \brief   Reverse byte order (16 bit)
 465:Drivers/CMSIS/Include/cmsis_gcc.h ****   \details Reverses the byte order in two unsigned short values.
 466:Drivers/CMSIS/Include/cmsis_gcc.h ****   \param [in]    value  Value to reverse
 467:Drivers/CMSIS/Include/cmsis_gcc.h ****   \return               Reversed value
 468:Drivers/CMSIS/Include/cmsis_gcc.h ****  */
 469:Drivers/CMSIS/Include/cmsis_gcc.h **** __attribute__((always_inline)) __STATIC_INLINE uint32_t __REV16(uint32_t value)
 470:Drivers/CMSIS/Include/cmsis_gcc.h **** {
 471:Drivers/CMSIS/Include/cmsis_gcc.h ****   uint32_t result;
 472:Drivers/CMSIS/Include/cmsis_gcc.h **** 
 473:Drivers/CMSIS/Include/cmsis_gcc.h ****   __ASM volatile ("rev16 %0, %1" : __CMSIS_GCC_OUT_REG (result) : __CMSIS_GCC_USE_REG (value) );
 474:Drivers/CMSIS/Include/cmsis_gcc.h ****   return(result);
 475:Drivers/CMSIS/Include/cmsis_gcc.h **** }
 476:Drivers/CMSIS/Include/cmsis_gcc.h **** 
 477:Drivers/CMSIS/Include/cmsis_gcc.h **** 
 478:Drivers/CMSIS/Include/cmsis_gcc.h **** /**
 479:Drivers/CMSIS/Include/cmsis_gcc.h ****   \brief   Reverse byte order in signed short value
 480:Drivers/CMSIS/Include/cmsis_gcc.h ****   \details Reverses the byte order in a signed short value with sign extension to integer.
 481:Drivers/CMSIS/Include/cmsis_gcc.h ****   \param [in]    value  Value to reverse
 482:Drivers/CMSIS/Include/cmsis_gcc.h ****   \return               Reversed value
 483:Drivers/CMSIS/Include/cmsis_gcc.h ****  */
 484:Drivers/CMSIS/Include/cmsis_gcc.h **** __attribute__((always_inline)) __STATIC_INLINE int32_t __REVSH(int32_t value)
 485:Drivers/CMSIS/Include/cmsis_gcc.h **** {
 486:Drivers/CMSIS/Include/cmsis_gcc.h **** #if (__GNUC__ > 4) || (__GNUC__ == 4 && __GNUC_MINOR__ >= 8)
 487:Drivers/CMSIS/Include/cmsis_gcc.h ****   return (short)__builtin_bswap16(value);
 488:Drivers/CMSIS/Include/cmsis_gcc.h **** #else
 489:Drivers/CMSIS/Include/cmsis_gcc.h ****   int32_t result;
 490:Drivers/CMSIS/Include/cmsis_gcc.h **** 
 491:Drivers/CMSIS/Include/cmsis_gcc.h ****   __ASM volatile ("revsh %0, %1" : __CMSIS_GCC_OUT_REG (result) : __CMSIS_GCC_USE_REG (value) );
 492:Drivers/CMSIS/Include/cmsis_gcc.h ****   return(result);
 493:Drivers/CMSIS/Include/cmsis_gcc.h **** #endif
 494:Drivers/CMSIS/Include/cmsis_gcc.h **** }
 495:Drivers/CMSIS/Include/cmsis_gcc.h **** 
 496:Drivers/CMSIS/Include/cmsis_gcc.h **** 
 497:Drivers/CMSIS/Include/cmsis_gcc.h **** /**
 498:Drivers/CMSIS/Include/cmsis_gcc.h ****   \brief   Rotate Right in unsigned value (32 bit)
 499:Drivers/CMSIS/Include/cmsis_gcc.h ****   \details Rotate Right (immediate) provides the value of the contents of a register rotated by a v
 500:Drivers/CMSIS/Include/cmsis_gcc.h ****   \param [in]    value  Value to rotate
 501:Drivers/CMSIS/Include/cmsis_gcc.h ****   \param [in]    value  Number of Bits to rotate
 502:Drivers/CMSIS/Include/cmsis_gcc.h ****   \return               Rotated value
 503:Drivers/CMSIS/Include/cmsis_gcc.h ****  */
 504:Drivers/CMSIS/Include/cmsis_gcc.h **** __attribute__((always_inline)) __STATIC_INLINE uint32_t __ROR(uint32_t op1, uint32_t op2)
 505:Drivers/CMSIS/Include/cmsis_gcc.h **** {
 506:Drivers/CMSIS/Include/cmsis_gcc.h ****   return (op1 >> op2) | (op1 << (32U - op2));
 507:Drivers/CMSIS/Include/cmsis_gcc.h **** }
 508:Drivers/CMSIS/Include/cmsis_gcc.h **** 
 509:Drivers/CMSIS/Include/cmsis_gcc.h **** 
 510:Drivers/CMSIS/Include/cmsis_gcc.h **** /**
 511:Drivers/CMSIS/Include/cmsis_gcc.h ****   \brief   Breakpoint
ARM GAS  /var/folders/8c/gyvcglfx7f97kbqb2h83mm_r0000gn/T//ccZyiauy.s 			page 18


 512:Drivers/CMSIS/Include/cmsis_gcc.h ****   \details Causes the processor to enter Debug state.
 513:Drivers/CMSIS/Include/cmsis_gcc.h ****            Debug tools can use this to investigate system state when the instruction at a particula
 514:Drivers/CMSIS/Include/cmsis_gcc.h ****   \param [in]    value  is ignored by the processor.
 515:Drivers/CMSIS/Include/cmsis_gcc.h ****                  If required, a debugger can use it to store additional information about the break
 516:Drivers/CMSIS/Include/cmsis_gcc.h ****  */
 517:Drivers/CMSIS/Include/cmsis_gcc.h **** #define __BKPT(value)                       __ASM volatile ("bkpt "#value)
 518:Drivers/CMSIS/Include/cmsis_gcc.h **** 
 519:Drivers/CMSIS/Include/cmsis_gcc.h **** 
 520:Drivers/CMSIS/Include/cmsis_gcc.h **** /**
 521:Drivers/CMSIS/Include/cmsis_gcc.h ****   \brief   Reverse bit order of value
 522:Drivers/CMSIS/Include/cmsis_gcc.h ****   \details Reverses the bit order of the given value.
 523:Drivers/CMSIS/Include/cmsis_gcc.h ****   \param [in]    value  Value to reverse
 524:Drivers/CMSIS/Include/cmsis_gcc.h ****   \return               Reversed value
 525:Drivers/CMSIS/Include/cmsis_gcc.h ****  */
 526:Drivers/CMSIS/Include/cmsis_gcc.h **** __attribute__((always_inline)) __STATIC_INLINE uint32_t __RBIT(uint32_t value)
 142              		.loc 2 526 57 view .LVU38
 143              	.LBB177:
 527:Drivers/CMSIS/Include/cmsis_gcc.h **** {
 528:Drivers/CMSIS/Include/cmsis_gcc.h ****   uint32_t result;
 144              		.loc 2 528 3 view .LVU39
 529:Drivers/CMSIS/Include/cmsis_gcc.h **** 
 530:Drivers/CMSIS/Include/cmsis_gcc.h **** #if       (__CORTEX_M >= 0x03U) || (__CORTEX_SC >= 300U)
 531:Drivers/CMSIS/Include/cmsis_gcc.h ****    __ASM volatile ("rbit %0, %1" : "=r" (result) : "r" (value) );
 145              		.loc 2 531 4 view .LVU40
 146 0080 4FF08072 		mov	r2, #16777216
 147              		.syntax unified
 148              	@ 531 "Drivers/CMSIS/Include/cmsis_gcc.h" 1
 149 0084 92FAA2F2 		rbit r2, r2
 150              	@ 0 "" 2
 151              	.LVL10:
 532:Drivers/CMSIS/Include/cmsis_gcc.h **** #else
 533:Drivers/CMSIS/Include/cmsis_gcc.h ****   int32_t s = 4 /*sizeof(v)*/ * 8 - 1; /* extra shift needed at end */
 534:Drivers/CMSIS/Include/cmsis_gcc.h **** 
 535:Drivers/CMSIS/Include/cmsis_gcc.h ****   result = value;                      /* r will be reversed bits of v; first get LSB of v */
 536:Drivers/CMSIS/Include/cmsis_gcc.h ****   for (value >>= 1U; value; value >>= 1U)
 537:Drivers/CMSIS/Include/cmsis_gcc.h ****   {
 538:Drivers/CMSIS/Include/cmsis_gcc.h ****     result <<= 1U;
 539:Drivers/CMSIS/Include/cmsis_gcc.h ****     result |= value & 1U;
 540:Drivers/CMSIS/Include/cmsis_gcc.h ****     s--;
 541:Drivers/CMSIS/Include/cmsis_gcc.h ****   }
 542:Drivers/CMSIS/Include/cmsis_gcc.h ****   result <<= s;                        /* shift when v's highest bits are zero */
 543:Drivers/CMSIS/Include/cmsis_gcc.h **** #endif
 544:Drivers/CMSIS/Include/cmsis_gcc.h ****   return(result);
 152              		.loc 2 544 3 view .LVU41
 153              		.loc 2 544 3 is_stmt 0 view .LVU42
 154              		.thumb
 155              		.syntax unified
 156              	.LBE177:
 157              	.LBE176:
 158              		.loc 1 313 3 view .LVU43
 159 0088 124B     		ldr	r3, .L12+16
 160 008a B2FA82F2 		clz	r2, r2
 161 008e 1344     		add	r3, r3, r2
 162 0090 9B00     		lsls	r3, r3, #2
 163 0092 0122     		movs	r2, #1
 164 0094 1A60     		str	r2, [r3]
 314:Drivers/STM32F3xx_HAL_Driver/Src/stm32f3xx_hal_rcc.c **** 
ARM GAS  /var/folders/8c/gyvcglfx7f97kbqb2h83mm_r0000gn/T//ccZyiauy.s 			page 19


 315:Drivers/STM32F3xx_HAL_Driver/Src/stm32f3xx_hal_rcc.c ****   return HAL_OK;
 165              		.loc 1 315 3 is_stmt 1 view .LVU44
 166              		.loc 1 315 10 is_stmt 0 view .LVU45
 167 0096 05E0     		b	.L3
 168              	.LVL11:
 169              	.L4:
 246:Drivers/STM32F3xx_HAL_Driver/Src/stm32f3xx_hal_rcc.c ****     {
 170              		.loc 1 246 5 is_stmt 1 view .LVU46
 246:Drivers/STM32F3xx_HAL_Driver/Src/stm32f3xx_hal_rcc.c ****     {
 171              		.loc 1 246 9 is_stmt 0 view .LVU47
 172 0098 FFF7FEFF 		bl	HAL_GetTick
 173              	.LVL12:
 246:Drivers/STM32F3xx_HAL_Driver/Src/stm32f3xx_hal_rcc.c ****     {
 174              		.loc 1 246 23 view .LVU48
 175 009c 401B     		subs	r0, r0, r5
 246:Drivers/STM32F3xx_HAL_Driver/Src/stm32f3xx_hal_rcc.c ****     {
 176              		.loc 1 246 7 view .LVU49
 177 009e 0228     		cmp	r0, #2
 178 00a0 B7D9     		bls	.L2
 179              	.LVL13:
 180              	.L6:
 248:Drivers/STM32F3xx_HAL_Driver/Src/stm32f3xx_hal_rcc.c ****     }
 181              		.loc 1 248 14 view .LVU50
 182 00a2 0325     		movs	r5, #3
 183              	.L3:
 316:Drivers/STM32F3xx_HAL_Driver/Src/stm32f3xx_hal_rcc.c **** }
 184              		.loc 1 316 1 view .LVU51
 185 00a4 2846     		mov	r0, r5
 186 00a6 70BD     		pop	{r4, r5, r6, pc}
 187              	.LVL14:
 188              	.L7:
 265:Drivers/STM32F3xx_HAL_Driver/Src/stm32f3xx_hal_rcc.c ****     {
 189              		.loc 1 265 5 is_stmt 1 view .LVU52
 265:Drivers/STM32F3xx_HAL_Driver/Src/stm32f3xx_hal_rcc.c ****     {
 190              		.loc 1 265 9 is_stmt 0 view .LVU53
 191 00a8 FFF7FEFF 		bl	HAL_GetTick
 192              	.LVL15:
 265:Drivers/STM32F3xx_HAL_Driver/Src/stm32f3xx_hal_rcc.c ****     {
 193              		.loc 1 265 23 view .LVU54
 194 00ac 401B     		subs	r0, r0, r5
 265:Drivers/STM32F3xx_HAL_Driver/Src/stm32f3xx_hal_rcc.c ****     {
 195              		.loc 1 265 7 view .LVU55
 196 00ae B042     		cmp	r0, r6
 197 00b0 C1D9     		bls	.L5
 198 00b2 F6E7     		b	.L6
 199              	.LVL16:
 200              	.L9:
 291:Drivers/STM32F3xx_HAL_Driver/Src/stm32f3xx_hal_rcc.c ****     {
 201              		.loc 1 291 5 is_stmt 1 view .LVU56
 291:Drivers/STM32F3xx_HAL_Driver/Src/stm32f3xx_hal_rcc.c ****     {
 202              		.loc 1 291 9 is_stmt 0 view .LVU57
 203 00b4 FFF7FEFF 		bl	HAL_GetTick
 204              	.LVL17:
 291:Drivers/STM32F3xx_HAL_Driver/Src/stm32f3xx_hal_rcc.c ****     {
 205              		.loc 1 291 23 view .LVU58
 206 00b8 801B     		subs	r0, r0, r6
 291:Drivers/STM32F3xx_HAL_Driver/Src/stm32f3xx_hal_rcc.c ****     {
ARM GAS  /var/folders/8c/gyvcglfx7f97kbqb2h83mm_r0000gn/T//ccZyiauy.s 			page 20


 207              		.loc 1 291 7 view .LVU59
 208 00ba 0228     		cmp	r0, #2
 209 00bc D4D9     		bls	.L8
 210 00be F0E7     		b	.L6
 211              	.LVL18:
 212              	.L10:
 277:Drivers/STM32F3xx_HAL_Driver/Src/stm32f3xx_hal_rcc.c ****   }
 213              		.loc 1 277 12 view .LVU60
 214 00c0 0125     		movs	r5, #1
 215 00c2 EFE7     		b	.L3
 216              	.L13:
 217              		.align	2
 218              	.L12:
 219 00c4 00100240 		.word	1073876992
 220 00c8 0CC0FFF8 		.word	-117456884
 221 00cc 00000000 		.word	SystemCoreClock
 222 00d0 00127A00 		.word	8000000
 223 00d4 20819010 		.word	277905696
 224              		.cfi_endproc
 225              	.LFE126:
 227              		.section	.text.HAL_RCC_OscConfig,"ax",%progbits
 228              		.align	1
 229              		.global	HAL_RCC_OscConfig
 230              		.syntax unified
 231              		.thumb
 232              		.thumb_func
 233              		.fpu fpv4-sp-d16
 235              	HAL_RCC_OscConfig:
 236              	.LVL19:
 237              	.LFB127:
 317:Drivers/STM32F3xx_HAL_Driver/Src/stm32f3xx_hal_rcc.c **** 
 318:Drivers/STM32F3xx_HAL_Driver/Src/stm32f3xx_hal_rcc.c **** /**
 319:Drivers/STM32F3xx_HAL_Driver/Src/stm32f3xx_hal_rcc.c ****   * @brief  Initializes the RCC Oscillators according to the specified parameters in the
 320:Drivers/STM32F3xx_HAL_Driver/Src/stm32f3xx_hal_rcc.c ****   *         RCC_OscInitTypeDef.
 321:Drivers/STM32F3xx_HAL_Driver/Src/stm32f3xx_hal_rcc.c ****   * @param  RCC_OscInitStruct pointer to an RCC_OscInitTypeDef structure that
 322:Drivers/STM32F3xx_HAL_Driver/Src/stm32f3xx_hal_rcc.c ****   *         contains the configuration information for the RCC Oscillators.
 323:Drivers/STM32F3xx_HAL_Driver/Src/stm32f3xx_hal_rcc.c ****   * @note   The PLL is not disabled when used as system clock.
 324:Drivers/STM32F3xx_HAL_Driver/Src/stm32f3xx_hal_rcc.c ****   * @note   Transitions LSE Bypass to LSE On and LSE On to LSE Bypass are not
 325:Drivers/STM32F3xx_HAL_Driver/Src/stm32f3xx_hal_rcc.c ****   *         supported by this macro. User should request a transition to LSE Off
 326:Drivers/STM32F3xx_HAL_Driver/Src/stm32f3xx_hal_rcc.c ****   *         first and then LSE On or LSE Bypass.
 327:Drivers/STM32F3xx_HAL_Driver/Src/stm32f3xx_hal_rcc.c ****   * @note   Transition HSE Bypass to HSE On and HSE On to HSE Bypass are not
 328:Drivers/STM32F3xx_HAL_Driver/Src/stm32f3xx_hal_rcc.c ****   *         supported by this macro. User should request a transition to HSE Off
 329:Drivers/STM32F3xx_HAL_Driver/Src/stm32f3xx_hal_rcc.c ****   *         first and then HSE On or HSE Bypass.
 330:Drivers/STM32F3xx_HAL_Driver/Src/stm32f3xx_hal_rcc.c ****   * @retval HAL status
 331:Drivers/STM32F3xx_HAL_Driver/Src/stm32f3xx_hal_rcc.c ****   */
 332:Drivers/STM32F3xx_HAL_Driver/Src/stm32f3xx_hal_rcc.c **** HAL_StatusTypeDef HAL_RCC_OscConfig(RCC_OscInitTypeDef  *RCC_OscInitStruct)
 333:Drivers/STM32F3xx_HAL_Driver/Src/stm32f3xx_hal_rcc.c **** {
 238              		.loc 1 333 1 is_stmt 1 view -0
 239              		.cfi_startproc
 240              		@ args = 0, pretend = 0, frame = 8
 241              		@ frame_needed = 0, uses_anonymous_args = 0
 334:Drivers/STM32F3xx_HAL_Driver/Src/stm32f3xx_hal_rcc.c ****   uint32_t tickstart;
 242              		.loc 1 334 3 view .LVU62
 335:Drivers/STM32F3xx_HAL_Driver/Src/stm32f3xx_hal_rcc.c **** 
 336:Drivers/STM32F3xx_HAL_Driver/Src/stm32f3xx_hal_rcc.c ****   /* Check Null pointer */
 337:Drivers/STM32F3xx_HAL_Driver/Src/stm32f3xx_hal_rcc.c ****   if(RCC_OscInitStruct == NULL)
 243              		.loc 1 337 3 view .LVU63
ARM GAS  /var/folders/8c/gyvcglfx7f97kbqb2h83mm_r0000gn/T//ccZyiauy.s 			page 21


 333:Drivers/STM32F3xx_HAL_Driver/Src/stm32f3xx_hal_rcc.c ****   uint32_t tickstart;
 244              		.loc 1 333 1 is_stmt 0 view .LVU64
 245 0000 2DE9F347 		push	{r0, r1, r4, r5, r6, r7, r8, r9, r10, lr}
 246              	.LCFI1:
 247              		.cfi_def_cfa_offset 40
 248              		.cfi_offset 4, -32
 249              		.cfi_offset 5, -28
 250              		.cfi_offset 6, -24
 251              		.cfi_offset 7, -20
 252              		.cfi_offset 8, -16
 253              		.cfi_offset 9, -12
 254              		.cfi_offset 10, -8
 255              		.cfi_offset 14, -4
 256              		.loc 1 337 5 view .LVU65
 257 0004 0546     		mov	r5, r0
 258 0006 18B9     		cbnz	r0, .L15
 259              	.LVL20:
 260              	.L23:
 338:Drivers/STM32F3xx_HAL_Driver/Src/stm32f3xx_hal_rcc.c ****   {
 339:Drivers/STM32F3xx_HAL_Driver/Src/stm32f3xx_hal_rcc.c ****     return HAL_ERROR;
 261              		.loc 1 339 12 view .LVU66
 262 0008 0120     		movs	r0, #1
 263              	.LVL21:
 264              	.L102:
 340:Drivers/STM32F3xx_HAL_Driver/Src/stm32f3xx_hal_rcc.c ****   }
 341:Drivers/STM32F3xx_HAL_Driver/Src/stm32f3xx_hal_rcc.c **** 
 342:Drivers/STM32F3xx_HAL_Driver/Src/stm32f3xx_hal_rcc.c ****   /* Check the parameters */
 343:Drivers/STM32F3xx_HAL_Driver/Src/stm32f3xx_hal_rcc.c ****   assert_param(IS_RCC_OSCILLATORTYPE(RCC_OscInitStruct->OscillatorType));
 344:Drivers/STM32F3xx_HAL_Driver/Src/stm32f3xx_hal_rcc.c **** 
 345:Drivers/STM32F3xx_HAL_Driver/Src/stm32f3xx_hal_rcc.c ****   /*------------------------------- HSE Configuration ------------------------*/ 
 346:Drivers/STM32F3xx_HAL_Driver/Src/stm32f3xx_hal_rcc.c ****   if(((RCC_OscInitStruct->OscillatorType) & RCC_OSCILLATORTYPE_HSE) == RCC_OSCILLATORTYPE_HSE)
 347:Drivers/STM32F3xx_HAL_Driver/Src/stm32f3xx_hal_rcc.c ****   {
 348:Drivers/STM32F3xx_HAL_Driver/Src/stm32f3xx_hal_rcc.c ****     /* Check the parameters */
 349:Drivers/STM32F3xx_HAL_Driver/Src/stm32f3xx_hal_rcc.c ****     assert_param(IS_RCC_HSE(RCC_OscInitStruct->HSEState));
 350:Drivers/STM32F3xx_HAL_Driver/Src/stm32f3xx_hal_rcc.c **** 
 351:Drivers/STM32F3xx_HAL_Driver/Src/stm32f3xx_hal_rcc.c ****     /* When the HSE is used as system clock or clock source for PLL in these cases it is not allowe
 352:Drivers/STM32F3xx_HAL_Driver/Src/stm32f3xx_hal_rcc.c ****     if((__HAL_RCC_GET_SYSCLK_SOURCE() == RCC_SYSCLKSOURCE_STATUS_HSE) 
 353:Drivers/STM32F3xx_HAL_Driver/Src/stm32f3xx_hal_rcc.c ****        || ((__HAL_RCC_GET_SYSCLK_SOURCE() == RCC_SYSCLKSOURCE_STATUS_PLLCLK) && (__HAL_RCC_GET_PLL_
 354:Drivers/STM32F3xx_HAL_Driver/Src/stm32f3xx_hal_rcc.c ****     {
 355:Drivers/STM32F3xx_HAL_Driver/Src/stm32f3xx_hal_rcc.c ****       if((__HAL_RCC_GET_FLAG(RCC_FLAG_HSERDY) != RESET) && (RCC_OscInitStruct->HSEState == RCC_HSE_
 356:Drivers/STM32F3xx_HAL_Driver/Src/stm32f3xx_hal_rcc.c ****       {
 357:Drivers/STM32F3xx_HAL_Driver/Src/stm32f3xx_hal_rcc.c ****         return HAL_ERROR;
 358:Drivers/STM32F3xx_HAL_Driver/Src/stm32f3xx_hal_rcc.c ****       }
 359:Drivers/STM32F3xx_HAL_Driver/Src/stm32f3xx_hal_rcc.c ****     }
 360:Drivers/STM32F3xx_HAL_Driver/Src/stm32f3xx_hal_rcc.c ****     else
 361:Drivers/STM32F3xx_HAL_Driver/Src/stm32f3xx_hal_rcc.c ****     {
 362:Drivers/STM32F3xx_HAL_Driver/Src/stm32f3xx_hal_rcc.c ****       /* Set the new HSE configuration ---------------------------------------*/
 363:Drivers/STM32F3xx_HAL_Driver/Src/stm32f3xx_hal_rcc.c ****       __HAL_RCC_HSE_CONFIG(RCC_OscInitStruct->HSEState);
 364:Drivers/STM32F3xx_HAL_Driver/Src/stm32f3xx_hal_rcc.c ****       
 365:Drivers/STM32F3xx_HAL_Driver/Src/stm32f3xx_hal_rcc.c **** #if defined(RCC_CFGR_PLLSRC_HSI_DIV2)
 366:Drivers/STM32F3xx_HAL_Driver/Src/stm32f3xx_hal_rcc.c ****       /* Configure the HSE predivision factor --------------------------------*/
 367:Drivers/STM32F3xx_HAL_Driver/Src/stm32f3xx_hal_rcc.c ****       __HAL_RCC_HSE_PREDIV_CONFIG(RCC_OscInitStruct->HSEPredivValue);
 368:Drivers/STM32F3xx_HAL_Driver/Src/stm32f3xx_hal_rcc.c **** #endif /* RCC_CFGR_PLLSRC_HSI_DIV2 */
 369:Drivers/STM32F3xx_HAL_Driver/Src/stm32f3xx_hal_rcc.c **** 
 370:Drivers/STM32F3xx_HAL_Driver/Src/stm32f3xx_hal_rcc.c ****        /* Check the HSE State */
 371:Drivers/STM32F3xx_HAL_Driver/Src/stm32f3xx_hal_rcc.c ****       if(RCC_OscInitStruct->HSEState != RCC_HSE_OFF)
 372:Drivers/STM32F3xx_HAL_Driver/Src/stm32f3xx_hal_rcc.c ****       {
ARM GAS  /var/folders/8c/gyvcglfx7f97kbqb2h83mm_r0000gn/T//ccZyiauy.s 			page 22


 373:Drivers/STM32F3xx_HAL_Driver/Src/stm32f3xx_hal_rcc.c ****         /* Get Start Tick */
 374:Drivers/STM32F3xx_HAL_Driver/Src/stm32f3xx_hal_rcc.c ****         tickstart = HAL_GetTick();
 375:Drivers/STM32F3xx_HAL_Driver/Src/stm32f3xx_hal_rcc.c ****         
 376:Drivers/STM32F3xx_HAL_Driver/Src/stm32f3xx_hal_rcc.c ****         /* Wait till HSE is ready */
 377:Drivers/STM32F3xx_HAL_Driver/Src/stm32f3xx_hal_rcc.c ****         while(__HAL_RCC_GET_FLAG(RCC_FLAG_HSERDY) == RESET)
 378:Drivers/STM32F3xx_HAL_Driver/Src/stm32f3xx_hal_rcc.c ****         {
 379:Drivers/STM32F3xx_HAL_Driver/Src/stm32f3xx_hal_rcc.c ****           if((HAL_GetTick() - tickstart ) > HSE_TIMEOUT_VALUE)
 380:Drivers/STM32F3xx_HAL_Driver/Src/stm32f3xx_hal_rcc.c ****           {
 381:Drivers/STM32F3xx_HAL_Driver/Src/stm32f3xx_hal_rcc.c ****             return HAL_TIMEOUT;
 382:Drivers/STM32F3xx_HAL_Driver/Src/stm32f3xx_hal_rcc.c ****           }
 383:Drivers/STM32F3xx_HAL_Driver/Src/stm32f3xx_hal_rcc.c ****         }
 384:Drivers/STM32F3xx_HAL_Driver/Src/stm32f3xx_hal_rcc.c ****       }
 385:Drivers/STM32F3xx_HAL_Driver/Src/stm32f3xx_hal_rcc.c ****       else
 386:Drivers/STM32F3xx_HAL_Driver/Src/stm32f3xx_hal_rcc.c ****       {
 387:Drivers/STM32F3xx_HAL_Driver/Src/stm32f3xx_hal_rcc.c ****         /* Get Start Tick */
 388:Drivers/STM32F3xx_HAL_Driver/Src/stm32f3xx_hal_rcc.c ****         tickstart = HAL_GetTick();
 389:Drivers/STM32F3xx_HAL_Driver/Src/stm32f3xx_hal_rcc.c ****         
 390:Drivers/STM32F3xx_HAL_Driver/Src/stm32f3xx_hal_rcc.c ****         /* Wait till HSE is disabled */
 391:Drivers/STM32F3xx_HAL_Driver/Src/stm32f3xx_hal_rcc.c ****         while(__HAL_RCC_GET_FLAG(RCC_FLAG_HSERDY) != RESET)
 392:Drivers/STM32F3xx_HAL_Driver/Src/stm32f3xx_hal_rcc.c ****         {
 393:Drivers/STM32F3xx_HAL_Driver/Src/stm32f3xx_hal_rcc.c ****            if((HAL_GetTick() - tickstart ) > HSE_TIMEOUT_VALUE)
 394:Drivers/STM32F3xx_HAL_Driver/Src/stm32f3xx_hal_rcc.c ****           {
 395:Drivers/STM32F3xx_HAL_Driver/Src/stm32f3xx_hal_rcc.c ****             return HAL_TIMEOUT;
 396:Drivers/STM32F3xx_HAL_Driver/Src/stm32f3xx_hal_rcc.c ****           }
 397:Drivers/STM32F3xx_HAL_Driver/Src/stm32f3xx_hal_rcc.c ****         }
 398:Drivers/STM32F3xx_HAL_Driver/Src/stm32f3xx_hal_rcc.c ****       }
 399:Drivers/STM32F3xx_HAL_Driver/Src/stm32f3xx_hal_rcc.c ****     }
 400:Drivers/STM32F3xx_HAL_Driver/Src/stm32f3xx_hal_rcc.c ****   }
 401:Drivers/STM32F3xx_HAL_Driver/Src/stm32f3xx_hal_rcc.c ****   /*----------------------------- HSI Configuration --------------------------*/ 
 402:Drivers/STM32F3xx_HAL_Driver/Src/stm32f3xx_hal_rcc.c ****   if(((RCC_OscInitStruct->OscillatorType) & RCC_OSCILLATORTYPE_HSI) == RCC_OSCILLATORTYPE_HSI)
 403:Drivers/STM32F3xx_HAL_Driver/Src/stm32f3xx_hal_rcc.c ****   {
 404:Drivers/STM32F3xx_HAL_Driver/Src/stm32f3xx_hal_rcc.c ****     /* Check the parameters */
 405:Drivers/STM32F3xx_HAL_Driver/Src/stm32f3xx_hal_rcc.c ****     assert_param(IS_RCC_HSI(RCC_OscInitStruct->HSIState));
 406:Drivers/STM32F3xx_HAL_Driver/Src/stm32f3xx_hal_rcc.c ****     assert_param(IS_RCC_CALIBRATION_VALUE(RCC_OscInitStruct->HSICalibrationValue));
 407:Drivers/STM32F3xx_HAL_Driver/Src/stm32f3xx_hal_rcc.c ****     
 408:Drivers/STM32F3xx_HAL_Driver/Src/stm32f3xx_hal_rcc.c ****     /* Check if HSI is used as system clock or as PLL source when PLL is selected as system clock *
 409:Drivers/STM32F3xx_HAL_Driver/Src/stm32f3xx_hal_rcc.c ****     if((__HAL_RCC_GET_SYSCLK_SOURCE() == RCC_SYSCLKSOURCE_STATUS_HSI) 
 410:Drivers/STM32F3xx_HAL_Driver/Src/stm32f3xx_hal_rcc.c ****        || ((__HAL_RCC_GET_SYSCLK_SOURCE() == RCC_SYSCLKSOURCE_STATUS_PLLCLK) && (__HAL_RCC_GET_PLL_
 411:Drivers/STM32F3xx_HAL_Driver/Src/stm32f3xx_hal_rcc.c ****     {
 412:Drivers/STM32F3xx_HAL_Driver/Src/stm32f3xx_hal_rcc.c ****       /* When HSI is used as system clock it will not disabled */
 413:Drivers/STM32F3xx_HAL_Driver/Src/stm32f3xx_hal_rcc.c ****       if((__HAL_RCC_GET_FLAG(RCC_FLAG_HSIRDY) != RESET) && (RCC_OscInitStruct->HSIState != RCC_HSI_
 414:Drivers/STM32F3xx_HAL_Driver/Src/stm32f3xx_hal_rcc.c ****       {
 415:Drivers/STM32F3xx_HAL_Driver/Src/stm32f3xx_hal_rcc.c ****         return HAL_ERROR;
 416:Drivers/STM32F3xx_HAL_Driver/Src/stm32f3xx_hal_rcc.c ****       }
 417:Drivers/STM32F3xx_HAL_Driver/Src/stm32f3xx_hal_rcc.c ****       /* Otherwise, just the calibration is allowed */
 418:Drivers/STM32F3xx_HAL_Driver/Src/stm32f3xx_hal_rcc.c ****       else
 419:Drivers/STM32F3xx_HAL_Driver/Src/stm32f3xx_hal_rcc.c ****       {
 420:Drivers/STM32F3xx_HAL_Driver/Src/stm32f3xx_hal_rcc.c ****         /* Adjusts the Internal High Speed oscillator (HSI) calibration value.*/
 421:Drivers/STM32F3xx_HAL_Driver/Src/stm32f3xx_hal_rcc.c ****         __HAL_RCC_HSI_CALIBRATIONVALUE_ADJUST(RCC_OscInitStruct->HSICalibrationValue);
 422:Drivers/STM32F3xx_HAL_Driver/Src/stm32f3xx_hal_rcc.c ****       }
 423:Drivers/STM32F3xx_HAL_Driver/Src/stm32f3xx_hal_rcc.c ****     }
 424:Drivers/STM32F3xx_HAL_Driver/Src/stm32f3xx_hal_rcc.c ****     else
 425:Drivers/STM32F3xx_HAL_Driver/Src/stm32f3xx_hal_rcc.c ****     {
 426:Drivers/STM32F3xx_HAL_Driver/Src/stm32f3xx_hal_rcc.c ****       /* Check the HSI State */
 427:Drivers/STM32F3xx_HAL_Driver/Src/stm32f3xx_hal_rcc.c ****       if(RCC_OscInitStruct->HSIState != RCC_HSI_OFF)
 428:Drivers/STM32F3xx_HAL_Driver/Src/stm32f3xx_hal_rcc.c ****       {
 429:Drivers/STM32F3xx_HAL_Driver/Src/stm32f3xx_hal_rcc.c ****        /* Enable the Internal High Speed oscillator (HSI). */
ARM GAS  /var/folders/8c/gyvcglfx7f97kbqb2h83mm_r0000gn/T//ccZyiauy.s 			page 23


 430:Drivers/STM32F3xx_HAL_Driver/Src/stm32f3xx_hal_rcc.c ****         __HAL_RCC_HSI_ENABLE();
 431:Drivers/STM32F3xx_HAL_Driver/Src/stm32f3xx_hal_rcc.c ****         
 432:Drivers/STM32F3xx_HAL_Driver/Src/stm32f3xx_hal_rcc.c ****         /* Get Start Tick */
 433:Drivers/STM32F3xx_HAL_Driver/Src/stm32f3xx_hal_rcc.c ****         tickstart = HAL_GetTick();
 434:Drivers/STM32F3xx_HAL_Driver/Src/stm32f3xx_hal_rcc.c ****         
 435:Drivers/STM32F3xx_HAL_Driver/Src/stm32f3xx_hal_rcc.c ****         /* Wait till HSI is ready */
 436:Drivers/STM32F3xx_HAL_Driver/Src/stm32f3xx_hal_rcc.c ****         while(__HAL_RCC_GET_FLAG(RCC_FLAG_HSIRDY) == RESET)
 437:Drivers/STM32F3xx_HAL_Driver/Src/stm32f3xx_hal_rcc.c ****         {
 438:Drivers/STM32F3xx_HAL_Driver/Src/stm32f3xx_hal_rcc.c ****           if((HAL_GetTick() - tickstart ) > HSI_TIMEOUT_VALUE)
 439:Drivers/STM32F3xx_HAL_Driver/Src/stm32f3xx_hal_rcc.c ****           {
 440:Drivers/STM32F3xx_HAL_Driver/Src/stm32f3xx_hal_rcc.c ****             return HAL_TIMEOUT;
 441:Drivers/STM32F3xx_HAL_Driver/Src/stm32f3xx_hal_rcc.c ****           }
 442:Drivers/STM32F3xx_HAL_Driver/Src/stm32f3xx_hal_rcc.c ****         }
 443:Drivers/STM32F3xx_HAL_Driver/Src/stm32f3xx_hal_rcc.c ****                 
 444:Drivers/STM32F3xx_HAL_Driver/Src/stm32f3xx_hal_rcc.c ****         /* Adjusts the Internal High Speed oscillator (HSI) calibration value.*/
 445:Drivers/STM32F3xx_HAL_Driver/Src/stm32f3xx_hal_rcc.c ****         __HAL_RCC_HSI_CALIBRATIONVALUE_ADJUST(RCC_OscInitStruct->HSICalibrationValue);
 446:Drivers/STM32F3xx_HAL_Driver/Src/stm32f3xx_hal_rcc.c ****       }
 447:Drivers/STM32F3xx_HAL_Driver/Src/stm32f3xx_hal_rcc.c ****       else
 448:Drivers/STM32F3xx_HAL_Driver/Src/stm32f3xx_hal_rcc.c ****       {
 449:Drivers/STM32F3xx_HAL_Driver/Src/stm32f3xx_hal_rcc.c ****         /* Disable the Internal High Speed oscillator (HSI). */
 450:Drivers/STM32F3xx_HAL_Driver/Src/stm32f3xx_hal_rcc.c ****         __HAL_RCC_HSI_DISABLE();
 451:Drivers/STM32F3xx_HAL_Driver/Src/stm32f3xx_hal_rcc.c ****         
 452:Drivers/STM32F3xx_HAL_Driver/Src/stm32f3xx_hal_rcc.c ****         /* Get Start Tick */
 453:Drivers/STM32F3xx_HAL_Driver/Src/stm32f3xx_hal_rcc.c ****         tickstart = HAL_GetTick();
 454:Drivers/STM32F3xx_HAL_Driver/Src/stm32f3xx_hal_rcc.c ****         
 455:Drivers/STM32F3xx_HAL_Driver/Src/stm32f3xx_hal_rcc.c ****         /* Wait till HSI is disabled */
 456:Drivers/STM32F3xx_HAL_Driver/Src/stm32f3xx_hal_rcc.c ****         while(__HAL_RCC_GET_FLAG(RCC_FLAG_HSIRDY) != RESET)
 457:Drivers/STM32F3xx_HAL_Driver/Src/stm32f3xx_hal_rcc.c ****         {
 458:Drivers/STM32F3xx_HAL_Driver/Src/stm32f3xx_hal_rcc.c ****           if((HAL_GetTick() - tickstart ) > HSI_TIMEOUT_VALUE)
 459:Drivers/STM32F3xx_HAL_Driver/Src/stm32f3xx_hal_rcc.c ****           {
 460:Drivers/STM32F3xx_HAL_Driver/Src/stm32f3xx_hal_rcc.c ****             return HAL_TIMEOUT;
 461:Drivers/STM32F3xx_HAL_Driver/Src/stm32f3xx_hal_rcc.c ****           }
 462:Drivers/STM32F3xx_HAL_Driver/Src/stm32f3xx_hal_rcc.c ****         }
 463:Drivers/STM32F3xx_HAL_Driver/Src/stm32f3xx_hal_rcc.c ****       }
 464:Drivers/STM32F3xx_HAL_Driver/Src/stm32f3xx_hal_rcc.c ****     }
 465:Drivers/STM32F3xx_HAL_Driver/Src/stm32f3xx_hal_rcc.c ****   }
 466:Drivers/STM32F3xx_HAL_Driver/Src/stm32f3xx_hal_rcc.c ****   /*------------------------------ LSI Configuration -------------------------*/ 
 467:Drivers/STM32F3xx_HAL_Driver/Src/stm32f3xx_hal_rcc.c ****   if(((RCC_OscInitStruct->OscillatorType) & RCC_OSCILLATORTYPE_LSI) == RCC_OSCILLATORTYPE_LSI)
 468:Drivers/STM32F3xx_HAL_Driver/Src/stm32f3xx_hal_rcc.c ****   {
 469:Drivers/STM32F3xx_HAL_Driver/Src/stm32f3xx_hal_rcc.c ****     /* Check the parameters */
 470:Drivers/STM32F3xx_HAL_Driver/Src/stm32f3xx_hal_rcc.c ****     assert_param(IS_RCC_LSI(RCC_OscInitStruct->LSIState));
 471:Drivers/STM32F3xx_HAL_Driver/Src/stm32f3xx_hal_rcc.c ****     
 472:Drivers/STM32F3xx_HAL_Driver/Src/stm32f3xx_hal_rcc.c ****     /* Check the LSI State */
 473:Drivers/STM32F3xx_HAL_Driver/Src/stm32f3xx_hal_rcc.c ****     if(RCC_OscInitStruct->LSIState != RCC_LSI_OFF)
 474:Drivers/STM32F3xx_HAL_Driver/Src/stm32f3xx_hal_rcc.c ****     {
 475:Drivers/STM32F3xx_HAL_Driver/Src/stm32f3xx_hal_rcc.c ****       /* Enable the Internal Low Speed oscillator (LSI). */
 476:Drivers/STM32F3xx_HAL_Driver/Src/stm32f3xx_hal_rcc.c ****       __HAL_RCC_LSI_ENABLE();
 477:Drivers/STM32F3xx_HAL_Driver/Src/stm32f3xx_hal_rcc.c ****       
 478:Drivers/STM32F3xx_HAL_Driver/Src/stm32f3xx_hal_rcc.c ****       /* Get Start Tick */
 479:Drivers/STM32F3xx_HAL_Driver/Src/stm32f3xx_hal_rcc.c ****       tickstart = HAL_GetTick();
 480:Drivers/STM32F3xx_HAL_Driver/Src/stm32f3xx_hal_rcc.c ****       
 481:Drivers/STM32F3xx_HAL_Driver/Src/stm32f3xx_hal_rcc.c ****       /* Wait till LSI is ready */  
 482:Drivers/STM32F3xx_HAL_Driver/Src/stm32f3xx_hal_rcc.c ****       while(__HAL_RCC_GET_FLAG(RCC_FLAG_LSIRDY) == RESET)
 483:Drivers/STM32F3xx_HAL_Driver/Src/stm32f3xx_hal_rcc.c ****       {
 484:Drivers/STM32F3xx_HAL_Driver/Src/stm32f3xx_hal_rcc.c ****         if((HAL_GetTick() - tickstart ) > LSI_TIMEOUT_VALUE)
 485:Drivers/STM32F3xx_HAL_Driver/Src/stm32f3xx_hal_rcc.c ****         {
 486:Drivers/STM32F3xx_HAL_Driver/Src/stm32f3xx_hal_rcc.c ****           return HAL_TIMEOUT;
ARM GAS  /var/folders/8c/gyvcglfx7f97kbqb2h83mm_r0000gn/T//ccZyiauy.s 			page 24


 487:Drivers/STM32F3xx_HAL_Driver/Src/stm32f3xx_hal_rcc.c ****         }
 488:Drivers/STM32F3xx_HAL_Driver/Src/stm32f3xx_hal_rcc.c ****       }
 489:Drivers/STM32F3xx_HAL_Driver/Src/stm32f3xx_hal_rcc.c ****     }
 490:Drivers/STM32F3xx_HAL_Driver/Src/stm32f3xx_hal_rcc.c ****     else
 491:Drivers/STM32F3xx_HAL_Driver/Src/stm32f3xx_hal_rcc.c ****     {
 492:Drivers/STM32F3xx_HAL_Driver/Src/stm32f3xx_hal_rcc.c ****       /* Disable the Internal Low Speed oscillator (LSI). */
 493:Drivers/STM32F3xx_HAL_Driver/Src/stm32f3xx_hal_rcc.c ****       __HAL_RCC_LSI_DISABLE();
 494:Drivers/STM32F3xx_HAL_Driver/Src/stm32f3xx_hal_rcc.c ****       
 495:Drivers/STM32F3xx_HAL_Driver/Src/stm32f3xx_hal_rcc.c ****       /* Get Start Tick */
 496:Drivers/STM32F3xx_HAL_Driver/Src/stm32f3xx_hal_rcc.c ****       tickstart = HAL_GetTick();
 497:Drivers/STM32F3xx_HAL_Driver/Src/stm32f3xx_hal_rcc.c ****       
 498:Drivers/STM32F3xx_HAL_Driver/Src/stm32f3xx_hal_rcc.c ****       /* Wait till LSI is disabled */  
 499:Drivers/STM32F3xx_HAL_Driver/Src/stm32f3xx_hal_rcc.c ****       while(__HAL_RCC_GET_FLAG(RCC_FLAG_LSIRDY) != RESET)
 500:Drivers/STM32F3xx_HAL_Driver/Src/stm32f3xx_hal_rcc.c ****       {
 501:Drivers/STM32F3xx_HAL_Driver/Src/stm32f3xx_hal_rcc.c ****         if((HAL_GetTick() - tickstart ) > LSI_TIMEOUT_VALUE)
 502:Drivers/STM32F3xx_HAL_Driver/Src/stm32f3xx_hal_rcc.c ****         {
 503:Drivers/STM32F3xx_HAL_Driver/Src/stm32f3xx_hal_rcc.c ****           return HAL_TIMEOUT;
 504:Drivers/STM32F3xx_HAL_Driver/Src/stm32f3xx_hal_rcc.c ****         }
 505:Drivers/STM32F3xx_HAL_Driver/Src/stm32f3xx_hal_rcc.c ****       }
 506:Drivers/STM32F3xx_HAL_Driver/Src/stm32f3xx_hal_rcc.c ****     }
 507:Drivers/STM32F3xx_HAL_Driver/Src/stm32f3xx_hal_rcc.c ****   }
 508:Drivers/STM32F3xx_HAL_Driver/Src/stm32f3xx_hal_rcc.c ****   /*------------------------------ LSE Configuration -------------------------*/ 
 509:Drivers/STM32F3xx_HAL_Driver/Src/stm32f3xx_hal_rcc.c ****   if(((RCC_OscInitStruct->OscillatorType) & RCC_OSCILLATORTYPE_LSE) == RCC_OSCILLATORTYPE_LSE)
 510:Drivers/STM32F3xx_HAL_Driver/Src/stm32f3xx_hal_rcc.c ****   {
 511:Drivers/STM32F3xx_HAL_Driver/Src/stm32f3xx_hal_rcc.c ****     FlagStatus       pwrclkchanged = RESET;
 512:Drivers/STM32F3xx_HAL_Driver/Src/stm32f3xx_hal_rcc.c ****     
 513:Drivers/STM32F3xx_HAL_Driver/Src/stm32f3xx_hal_rcc.c ****     /* Check the parameters */
 514:Drivers/STM32F3xx_HAL_Driver/Src/stm32f3xx_hal_rcc.c ****     assert_param(IS_RCC_LSE(RCC_OscInitStruct->LSEState));
 515:Drivers/STM32F3xx_HAL_Driver/Src/stm32f3xx_hal_rcc.c **** 
 516:Drivers/STM32F3xx_HAL_Driver/Src/stm32f3xx_hal_rcc.c ****     /* Update LSE configuration in Backup Domain control register    */
 517:Drivers/STM32F3xx_HAL_Driver/Src/stm32f3xx_hal_rcc.c ****     /* Requires to enable write access to Backup Domain of necessary */
 518:Drivers/STM32F3xx_HAL_Driver/Src/stm32f3xx_hal_rcc.c ****     if(__HAL_RCC_PWR_IS_CLK_DISABLED())
 519:Drivers/STM32F3xx_HAL_Driver/Src/stm32f3xx_hal_rcc.c ****     {
 520:Drivers/STM32F3xx_HAL_Driver/Src/stm32f3xx_hal_rcc.c ****       __HAL_RCC_PWR_CLK_ENABLE();
 521:Drivers/STM32F3xx_HAL_Driver/Src/stm32f3xx_hal_rcc.c ****       pwrclkchanged = SET;
 522:Drivers/STM32F3xx_HAL_Driver/Src/stm32f3xx_hal_rcc.c ****     }
 523:Drivers/STM32F3xx_HAL_Driver/Src/stm32f3xx_hal_rcc.c ****     
 524:Drivers/STM32F3xx_HAL_Driver/Src/stm32f3xx_hal_rcc.c ****     if(HAL_IS_BIT_CLR(PWR->CR, PWR_CR_DBP))
 525:Drivers/STM32F3xx_HAL_Driver/Src/stm32f3xx_hal_rcc.c ****     {
 526:Drivers/STM32F3xx_HAL_Driver/Src/stm32f3xx_hal_rcc.c ****       /* Enable write access to Backup domain */
 527:Drivers/STM32F3xx_HAL_Driver/Src/stm32f3xx_hal_rcc.c ****       SET_BIT(PWR->CR, PWR_CR_DBP);
 528:Drivers/STM32F3xx_HAL_Driver/Src/stm32f3xx_hal_rcc.c ****       
 529:Drivers/STM32F3xx_HAL_Driver/Src/stm32f3xx_hal_rcc.c ****       /* Wait for Backup domain Write protection disable */
 530:Drivers/STM32F3xx_HAL_Driver/Src/stm32f3xx_hal_rcc.c ****       tickstart = HAL_GetTick();
 531:Drivers/STM32F3xx_HAL_Driver/Src/stm32f3xx_hal_rcc.c **** 
 532:Drivers/STM32F3xx_HAL_Driver/Src/stm32f3xx_hal_rcc.c ****       while(HAL_IS_BIT_CLR(PWR->CR, PWR_CR_DBP))
 533:Drivers/STM32F3xx_HAL_Driver/Src/stm32f3xx_hal_rcc.c ****       {
 534:Drivers/STM32F3xx_HAL_Driver/Src/stm32f3xx_hal_rcc.c ****         if((HAL_GetTick() - tickstart) > RCC_DBP_TIMEOUT_VALUE)
 535:Drivers/STM32F3xx_HAL_Driver/Src/stm32f3xx_hal_rcc.c ****         {
 536:Drivers/STM32F3xx_HAL_Driver/Src/stm32f3xx_hal_rcc.c ****           return HAL_TIMEOUT;
 537:Drivers/STM32F3xx_HAL_Driver/Src/stm32f3xx_hal_rcc.c ****         }
 538:Drivers/STM32F3xx_HAL_Driver/Src/stm32f3xx_hal_rcc.c ****       }
 539:Drivers/STM32F3xx_HAL_Driver/Src/stm32f3xx_hal_rcc.c ****     }
 540:Drivers/STM32F3xx_HAL_Driver/Src/stm32f3xx_hal_rcc.c **** 
 541:Drivers/STM32F3xx_HAL_Driver/Src/stm32f3xx_hal_rcc.c ****     /* Set the new LSE configuration -----------------------------------------*/
 542:Drivers/STM32F3xx_HAL_Driver/Src/stm32f3xx_hal_rcc.c ****     __HAL_RCC_LSE_CONFIG(RCC_OscInitStruct->LSEState);
 543:Drivers/STM32F3xx_HAL_Driver/Src/stm32f3xx_hal_rcc.c ****     /* Check the LSE State */
ARM GAS  /var/folders/8c/gyvcglfx7f97kbqb2h83mm_r0000gn/T//ccZyiauy.s 			page 25


 544:Drivers/STM32F3xx_HAL_Driver/Src/stm32f3xx_hal_rcc.c ****     if(RCC_OscInitStruct->LSEState != RCC_LSE_OFF)
 545:Drivers/STM32F3xx_HAL_Driver/Src/stm32f3xx_hal_rcc.c ****     {
 546:Drivers/STM32F3xx_HAL_Driver/Src/stm32f3xx_hal_rcc.c ****       /* Get Start Tick */
 547:Drivers/STM32F3xx_HAL_Driver/Src/stm32f3xx_hal_rcc.c ****       tickstart = HAL_GetTick();
 548:Drivers/STM32F3xx_HAL_Driver/Src/stm32f3xx_hal_rcc.c ****       
 549:Drivers/STM32F3xx_HAL_Driver/Src/stm32f3xx_hal_rcc.c ****       /* Wait till LSE is ready */  
 550:Drivers/STM32F3xx_HAL_Driver/Src/stm32f3xx_hal_rcc.c ****       while(__HAL_RCC_GET_FLAG(RCC_FLAG_LSERDY) == RESET)
 551:Drivers/STM32F3xx_HAL_Driver/Src/stm32f3xx_hal_rcc.c ****       {
 552:Drivers/STM32F3xx_HAL_Driver/Src/stm32f3xx_hal_rcc.c ****         if((HAL_GetTick() - tickstart ) > RCC_LSE_TIMEOUT_VALUE)
 553:Drivers/STM32F3xx_HAL_Driver/Src/stm32f3xx_hal_rcc.c ****         {
 554:Drivers/STM32F3xx_HAL_Driver/Src/stm32f3xx_hal_rcc.c ****           return HAL_TIMEOUT;
 555:Drivers/STM32F3xx_HAL_Driver/Src/stm32f3xx_hal_rcc.c ****         }
 556:Drivers/STM32F3xx_HAL_Driver/Src/stm32f3xx_hal_rcc.c ****       }
 557:Drivers/STM32F3xx_HAL_Driver/Src/stm32f3xx_hal_rcc.c ****     }
 558:Drivers/STM32F3xx_HAL_Driver/Src/stm32f3xx_hal_rcc.c ****     else
 559:Drivers/STM32F3xx_HAL_Driver/Src/stm32f3xx_hal_rcc.c ****     {
 560:Drivers/STM32F3xx_HAL_Driver/Src/stm32f3xx_hal_rcc.c ****       /* Get Start Tick */
 561:Drivers/STM32F3xx_HAL_Driver/Src/stm32f3xx_hal_rcc.c ****       tickstart = HAL_GetTick();
 562:Drivers/STM32F3xx_HAL_Driver/Src/stm32f3xx_hal_rcc.c ****       
 563:Drivers/STM32F3xx_HAL_Driver/Src/stm32f3xx_hal_rcc.c ****       /* Wait till LSE is disabled */  
 564:Drivers/STM32F3xx_HAL_Driver/Src/stm32f3xx_hal_rcc.c ****       while(__HAL_RCC_GET_FLAG(RCC_FLAG_LSERDY) != RESET)
 565:Drivers/STM32F3xx_HAL_Driver/Src/stm32f3xx_hal_rcc.c ****       {
 566:Drivers/STM32F3xx_HAL_Driver/Src/stm32f3xx_hal_rcc.c ****         if((HAL_GetTick() - tickstart ) > RCC_LSE_TIMEOUT_VALUE)
 567:Drivers/STM32F3xx_HAL_Driver/Src/stm32f3xx_hal_rcc.c ****         {
 568:Drivers/STM32F3xx_HAL_Driver/Src/stm32f3xx_hal_rcc.c ****           return HAL_TIMEOUT;
 569:Drivers/STM32F3xx_HAL_Driver/Src/stm32f3xx_hal_rcc.c ****         }
 570:Drivers/STM32F3xx_HAL_Driver/Src/stm32f3xx_hal_rcc.c ****       }
 571:Drivers/STM32F3xx_HAL_Driver/Src/stm32f3xx_hal_rcc.c ****     }
 572:Drivers/STM32F3xx_HAL_Driver/Src/stm32f3xx_hal_rcc.c **** 
 573:Drivers/STM32F3xx_HAL_Driver/Src/stm32f3xx_hal_rcc.c ****     /* Require to disable power clock if necessary */
 574:Drivers/STM32F3xx_HAL_Driver/Src/stm32f3xx_hal_rcc.c ****     if(pwrclkchanged == SET)
 575:Drivers/STM32F3xx_HAL_Driver/Src/stm32f3xx_hal_rcc.c ****     {
 576:Drivers/STM32F3xx_HAL_Driver/Src/stm32f3xx_hal_rcc.c ****       __HAL_RCC_PWR_CLK_DISABLE();
 577:Drivers/STM32F3xx_HAL_Driver/Src/stm32f3xx_hal_rcc.c ****     }
 578:Drivers/STM32F3xx_HAL_Driver/Src/stm32f3xx_hal_rcc.c ****   }
 579:Drivers/STM32F3xx_HAL_Driver/Src/stm32f3xx_hal_rcc.c **** 
 580:Drivers/STM32F3xx_HAL_Driver/Src/stm32f3xx_hal_rcc.c ****   /*-------------------------------- PLL Configuration -----------------------*/
 581:Drivers/STM32F3xx_HAL_Driver/Src/stm32f3xx_hal_rcc.c ****   /* Check the parameters */
 582:Drivers/STM32F3xx_HAL_Driver/Src/stm32f3xx_hal_rcc.c ****   assert_param(IS_RCC_PLL(RCC_OscInitStruct->PLL.PLLState));
 583:Drivers/STM32F3xx_HAL_Driver/Src/stm32f3xx_hal_rcc.c ****   if ((RCC_OscInitStruct->PLL.PLLState) != RCC_PLL_NONE)
 584:Drivers/STM32F3xx_HAL_Driver/Src/stm32f3xx_hal_rcc.c ****   {
 585:Drivers/STM32F3xx_HAL_Driver/Src/stm32f3xx_hal_rcc.c ****     /* Check if the PLL is used as system clock or not */
 586:Drivers/STM32F3xx_HAL_Driver/Src/stm32f3xx_hal_rcc.c ****     if(__HAL_RCC_GET_SYSCLK_SOURCE() != RCC_SYSCLKSOURCE_STATUS_PLLCLK)
 587:Drivers/STM32F3xx_HAL_Driver/Src/stm32f3xx_hal_rcc.c ****     { 
 588:Drivers/STM32F3xx_HAL_Driver/Src/stm32f3xx_hal_rcc.c ****       if((RCC_OscInitStruct->PLL.PLLState) == RCC_PLL_ON)
 589:Drivers/STM32F3xx_HAL_Driver/Src/stm32f3xx_hal_rcc.c ****       {
 590:Drivers/STM32F3xx_HAL_Driver/Src/stm32f3xx_hal_rcc.c ****         /* Check the parameters */
 591:Drivers/STM32F3xx_HAL_Driver/Src/stm32f3xx_hal_rcc.c ****         assert_param(IS_RCC_PLLSOURCE(RCC_OscInitStruct->PLL.PLLSource));
 592:Drivers/STM32F3xx_HAL_Driver/Src/stm32f3xx_hal_rcc.c ****         assert_param(IS_RCC_PLL_MUL(RCC_OscInitStruct->PLL.PLLMUL));
 593:Drivers/STM32F3xx_HAL_Driver/Src/stm32f3xx_hal_rcc.c **** #if   defined(RCC_CFGR_PLLSRC_HSI_PREDIV)
 594:Drivers/STM32F3xx_HAL_Driver/Src/stm32f3xx_hal_rcc.c ****         assert_param(IS_RCC_PREDIV(RCC_OscInitStruct->PLL.PREDIV));
 595:Drivers/STM32F3xx_HAL_Driver/Src/stm32f3xx_hal_rcc.c **** #endif
 596:Drivers/STM32F3xx_HAL_Driver/Src/stm32f3xx_hal_rcc.c ****   
 597:Drivers/STM32F3xx_HAL_Driver/Src/stm32f3xx_hal_rcc.c ****         /* Disable the main PLL. */
 598:Drivers/STM32F3xx_HAL_Driver/Src/stm32f3xx_hal_rcc.c ****         __HAL_RCC_PLL_DISABLE();
 599:Drivers/STM32F3xx_HAL_Driver/Src/stm32f3xx_hal_rcc.c ****         
 600:Drivers/STM32F3xx_HAL_Driver/Src/stm32f3xx_hal_rcc.c ****         /* Get Start Tick */
ARM GAS  /var/folders/8c/gyvcglfx7f97kbqb2h83mm_r0000gn/T//ccZyiauy.s 			page 26


 601:Drivers/STM32F3xx_HAL_Driver/Src/stm32f3xx_hal_rcc.c ****         tickstart = HAL_GetTick();
 602:Drivers/STM32F3xx_HAL_Driver/Src/stm32f3xx_hal_rcc.c ****         
 603:Drivers/STM32F3xx_HAL_Driver/Src/stm32f3xx_hal_rcc.c ****         /* Wait till PLL is disabled */
 604:Drivers/STM32F3xx_HAL_Driver/Src/stm32f3xx_hal_rcc.c ****         while(__HAL_RCC_GET_FLAG(RCC_FLAG_PLLRDY)  != RESET)
 605:Drivers/STM32F3xx_HAL_Driver/Src/stm32f3xx_hal_rcc.c ****         {
 606:Drivers/STM32F3xx_HAL_Driver/Src/stm32f3xx_hal_rcc.c ****           if((HAL_GetTick() - tickstart ) > PLL_TIMEOUT_VALUE)
 607:Drivers/STM32F3xx_HAL_Driver/Src/stm32f3xx_hal_rcc.c ****           {
 608:Drivers/STM32F3xx_HAL_Driver/Src/stm32f3xx_hal_rcc.c ****             return HAL_TIMEOUT;
 609:Drivers/STM32F3xx_HAL_Driver/Src/stm32f3xx_hal_rcc.c ****           }
 610:Drivers/STM32F3xx_HAL_Driver/Src/stm32f3xx_hal_rcc.c ****         }
 611:Drivers/STM32F3xx_HAL_Driver/Src/stm32f3xx_hal_rcc.c **** 
 612:Drivers/STM32F3xx_HAL_Driver/Src/stm32f3xx_hal_rcc.c **** #if defined(RCC_CFGR_PLLSRC_HSI_PREDIV)
 613:Drivers/STM32F3xx_HAL_Driver/Src/stm32f3xx_hal_rcc.c ****         /* Configure the main PLL clock source, predivider and multiplication factor. */
 614:Drivers/STM32F3xx_HAL_Driver/Src/stm32f3xx_hal_rcc.c ****         __HAL_RCC_PLL_CONFIG(RCC_OscInitStruct->PLL.PLLSource,
 615:Drivers/STM32F3xx_HAL_Driver/Src/stm32f3xx_hal_rcc.c ****                              RCC_OscInitStruct->PLL.PREDIV,
 616:Drivers/STM32F3xx_HAL_Driver/Src/stm32f3xx_hal_rcc.c ****                              RCC_OscInitStruct->PLL.PLLMUL);
 617:Drivers/STM32F3xx_HAL_Driver/Src/stm32f3xx_hal_rcc.c **** #else
 618:Drivers/STM32F3xx_HAL_Driver/Src/stm32f3xx_hal_rcc.c ****       /* Configure the main PLL clock source and multiplication factor. */
 619:Drivers/STM32F3xx_HAL_Driver/Src/stm32f3xx_hal_rcc.c ****       __HAL_RCC_PLL_CONFIG(RCC_OscInitStruct->PLL.PLLSource,
 620:Drivers/STM32F3xx_HAL_Driver/Src/stm32f3xx_hal_rcc.c ****                            RCC_OscInitStruct->PLL.PLLMUL);
 621:Drivers/STM32F3xx_HAL_Driver/Src/stm32f3xx_hal_rcc.c **** #endif /* RCC_CFGR_PLLSRC_HSI_PREDIV */
 622:Drivers/STM32F3xx_HAL_Driver/Src/stm32f3xx_hal_rcc.c ****         /* Enable the main PLL. */
 623:Drivers/STM32F3xx_HAL_Driver/Src/stm32f3xx_hal_rcc.c ****         __HAL_RCC_PLL_ENABLE();
 624:Drivers/STM32F3xx_HAL_Driver/Src/stm32f3xx_hal_rcc.c ****         
 625:Drivers/STM32F3xx_HAL_Driver/Src/stm32f3xx_hal_rcc.c ****         /* Get Start Tick */
 626:Drivers/STM32F3xx_HAL_Driver/Src/stm32f3xx_hal_rcc.c ****         tickstart = HAL_GetTick();
 627:Drivers/STM32F3xx_HAL_Driver/Src/stm32f3xx_hal_rcc.c ****         
 628:Drivers/STM32F3xx_HAL_Driver/Src/stm32f3xx_hal_rcc.c ****         /* Wait till PLL is ready */
 629:Drivers/STM32F3xx_HAL_Driver/Src/stm32f3xx_hal_rcc.c ****         while(__HAL_RCC_GET_FLAG(RCC_FLAG_PLLRDY)  == RESET)
 630:Drivers/STM32F3xx_HAL_Driver/Src/stm32f3xx_hal_rcc.c ****         {
 631:Drivers/STM32F3xx_HAL_Driver/Src/stm32f3xx_hal_rcc.c ****           if((HAL_GetTick() - tickstart ) > PLL_TIMEOUT_VALUE)
 632:Drivers/STM32F3xx_HAL_Driver/Src/stm32f3xx_hal_rcc.c ****           {
 633:Drivers/STM32F3xx_HAL_Driver/Src/stm32f3xx_hal_rcc.c ****             return HAL_TIMEOUT;
 634:Drivers/STM32F3xx_HAL_Driver/Src/stm32f3xx_hal_rcc.c ****           }
 635:Drivers/STM32F3xx_HAL_Driver/Src/stm32f3xx_hal_rcc.c ****         }
 636:Drivers/STM32F3xx_HAL_Driver/Src/stm32f3xx_hal_rcc.c ****       }
 637:Drivers/STM32F3xx_HAL_Driver/Src/stm32f3xx_hal_rcc.c ****       else
 638:Drivers/STM32F3xx_HAL_Driver/Src/stm32f3xx_hal_rcc.c ****       {
 639:Drivers/STM32F3xx_HAL_Driver/Src/stm32f3xx_hal_rcc.c ****         /* Disable the main PLL. */
 640:Drivers/STM32F3xx_HAL_Driver/Src/stm32f3xx_hal_rcc.c ****         __HAL_RCC_PLL_DISABLE();
 641:Drivers/STM32F3xx_HAL_Driver/Src/stm32f3xx_hal_rcc.c ****  
 642:Drivers/STM32F3xx_HAL_Driver/Src/stm32f3xx_hal_rcc.c ****         /* Get Start Tick */
 643:Drivers/STM32F3xx_HAL_Driver/Src/stm32f3xx_hal_rcc.c ****         tickstart = HAL_GetTick();
 644:Drivers/STM32F3xx_HAL_Driver/Src/stm32f3xx_hal_rcc.c ****         
 645:Drivers/STM32F3xx_HAL_Driver/Src/stm32f3xx_hal_rcc.c ****         /* Wait till PLL is disabled */  
 646:Drivers/STM32F3xx_HAL_Driver/Src/stm32f3xx_hal_rcc.c ****         while(__HAL_RCC_GET_FLAG(RCC_FLAG_PLLRDY)  != RESET)
 647:Drivers/STM32F3xx_HAL_Driver/Src/stm32f3xx_hal_rcc.c ****         {
 648:Drivers/STM32F3xx_HAL_Driver/Src/stm32f3xx_hal_rcc.c ****           if((HAL_GetTick() - tickstart ) > PLL_TIMEOUT_VALUE)
 649:Drivers/STM32F3xx_HAL_Driver/Src/stm32f3xx_hal_rcc.c ****           {
 650:Drivers/STM32F3xx_HAL_Driver/Src/stm32f3xx_hal_rcc.c ****             return HAL_TIMEOUT;
 651:Drivers/STM32F3xx_HAL_Driver/Src/stm32f3xx_hal_rcc.c ****           }
 652:Drivers/STM32F3xx_HAL_Driver/Src/stm32f3xx_hal_rcc.c ****         }
 653:Drivers/STM32F3xx_HAL_Driver/Src/stm32f3xx_hal_rcc.c ****       }
 654:Drivers/STM32F3xx_HAL_Driver/Src/stm32f3xx_hal_rcc.c ****     }
 655:Drivers/STM32F3xx_HAL_Driver/Src/stm32f3xx_hal_rcc.c ****     else
 656:Drivers/STM32F3xx_HAL_Driver/Src/stm32f3xx_hal_rcc.c ****     {
 657:Drivers/STM32F3xx_HAL_Driver/Src/stm32f3xx_hal_rcc.c ****       return HAL_ERROR;
ARM GAS  /var/folders/8c/gyvcglfx7f97kbqb2h83mm_r0000gn/T//ccZyiauy.s 			page 27


 658:Drivers/STM32F3xx_HAL_Driver/Src/stm32f3xx_hal_rcc.c ****     }
 659:Drivers/STM32F3xx_HAL_Driver/Src/stm32f3xx_hal_rcc.c ****   }
 660:Drivers/STM32F3xx_HAL_Driver/Src/stm32f3xx_hal_rcc.c ****   
 661:Drivers/STM32F3xx_HAL_Driver/Src/stm32f3xx_hal_rcc.c ****   return HAL_OK;
 662:Drivers/STM32F3xx_HAL_Driver/Src/stm32f3xx_hal_rcc.c **** }
 265              		.loc 1 662 1 view .LVU67
 266 000a 02B0     		add	sp, sp, #8
 267              	.LCFI2:
 268              		.cfi_remember_state
 269              		.cfi_def_cfa_offset 32
 270              		@ sp needed
 271 000c BDE8F087 		pop	{r4, r5, r6, r7, r8, r9, r10, pc}
 272              	.LVL22:
 273              	.L15:
 274              	.LCFI3:
 275              		.cfi_restore_state
 343:Drivers/STM32F3xx_HAL_Driver/Src/stm32f3xx_hal_rcc.c **** 
 276              		.loc 1 343 3 is_stmt 1 view .LVU68
 346:Drivers/STM32F3xx_HAL_Driver/Src/stm32f3xx_hal_rcc.c ****   {
 277              		.loc 1 346 3 view .LVU69
 346:Drivers/STM32F3xx_HAL_Driver/Src/stm32f3xx_hal_rcc.c ****   {
 278              		.loc 1 346 43 is_stmt 0 view .LVU70
 279 0010 0368     		ldr	r3, [r0]
 346:Drivers/STM32F3xx_HAL_Driver/Src/stm32f3xx_hal_rcc.c ****   {
 280              		.loc 1 346 5 view .LVU71
 281 0012 DF07     		lsls	r7, r3, #31
 282 0014 11D4     		bmi	.L17
 283              	.LVL23:
 284              	.L22:
 402:Drivers/STM32F3xx_HAL_Driver/Src/stm32f3xx_hal_rcc.c ****   {
 285              		.loc 1 402 3 is_stmt 1 view .LVU72
 402:Drivers/STM32F3xx_HAL_Driver/Src/stm32f3xx_hal_rcc.c ****   {
 286              		.loc 1 402 43 is_stmt 0 view .LVU73
 287 0016 2B68     		ldr	r3, [r5]
 402:Drivers/STM32F3xx_HAL_Driver/Src/stm32f3xx_hal_rcc.c ****   {
 288              		.loc 1 402 5 view .LVU74
 289 0018 9E07     		lsls	r6, r3, #30
 290 001a 00F18880 		bmi	.L18
 291              	.L34:
 467:Drivers/STM32F3xx_HAL_Driver/Src/stm32f3xx_hal_rcc.c ****   {
 292              		.loc 1 467 3 is_stmt 1 view .LVU75
 467:Drivers/STM32F3xx_HAL_Driver/Src/stm32f3xx_hal_rcc.c ****   {
 293              		.loc 1 467 43 is_stmt 0 view .LVU76
 294 001e 2B68     		ldr	r3, [r5]
 467:Drivers/STM32F3xx_HAL_Driver/Src/stm32f3xx_hal_rcc.c ****   {
 295              		.loc 1 467 5 view .LVU77
 296 0020 1C07     		lsls	r4, r3, #28
 297 0022 00F1FC80 		bmi	.L43
 298              	.L49:
 509:Drivers/STM32F3xx_HAL_Driver/Src/stm32f3xx_hal_rcc.c ****   {
 299              		.loc 1 509 3 is_stmt 1 view .LVU78
 509:Drivers/STM32F3xx_HAL_Driver/Src/stm32f3xx_hal_rcc.c ****   {
 300              		.loc 1 509 43 is_stmt 0 view .LVU79
 301 0026 2B68     		ldr	r3, [r5]
 509:Drivers/STM32F3xx_HAL_Driver/Src/stm32f3xx_hal_rcc.c ****   {
 302              		.loc 1 509 5 view .LVU80
 303 0028 5807     		lsls	r0, r3, #29
ARM GAS  /var/folders/8c/gyvcglfx7f97kbqb2h83mm_r0000gn/T//ccZyiauy.s 			page 28


 304 002a 00F14581 		bmi	.L44
 305              	.L52:
 582:Drivers/STM32F3xx_HAL_Driver/Src/stm32f3xx_hal_rcc.c ****   if ((RCC_OscInitStruct->PLL.PLLState) != RCC_PLL_NONE)
 306              		.loc 1 582 3 is_stmt 1 view .LVU81
 583:Drivers/STM32F3xx_HAL_Driver/Src/stm32f3xx_hal_rcc.c ****   {
 307              		.loc 1 583 3 view .LVU82
 583:Drivers/STM32F3xx_HAL_Driver/Src/stm32f3xx_hal_rcc.c ****   {
 308              		.loc 1 583 30 is_stmt 0 view .LVU83
 309 002e AA69     		ldr	r2, [r5, #24]
 583:Drivers/STM32F3xx_HAL_Driver/Src/stm32f3xx_hal_rcc.c ****   {
 310              		.loc 1 583 6 view .LVU84
 311 0030 002A     		cmp	r2, #0
 312 0032 40F0DC81 		bne	.L72
 313              	.LVL24:
 314              	.L78:
 661:Drivers/STM32F3xx_HAL_Driver/Src/stm32f3xx_hal_rcc.c **** }
 315              		.loc 1 661 10 view .LVU85
 316 0036 0020     		movs	r0, #0
 317 0038 E7E7     		b	.L102
 318              	.LVL25:
 319              	.L17:
 349:Drivers/STM32F3xx_HAL_Driver/Src/stm32f3xx_hal_rcc.c **** 
 320              		.loc 1 349 5 is_stmt 1 view .LVU86
 352:Drivers/STM32F3xx_HAL_Driver/Src/stm32f3xx_hal_rcc.c ****        || ((__HAL_RCC_GET_SYSCLK_SOURCE() == RCC_SYSCLKSOURCE_STATUS_PLLCLK) && (__HAL_RCC_GET_PLL_
 321              		.loc 1 352 5 view .LVU87
 352:Drivers/STM32F3xx_HAL_Driver/Src/stm32f3xx_hal_rcc.c ****        || ((__HAL_RCC_GET_SYSCLK_SOURCE() == RCC_SYSCLKSOURCE_STATUS_PLLCLK) && (__HAL_RCC_GET_PLL_
 322              		.loc 1 352 9 is_stmt 0 view .LVU88
 323 003a BD4C     		ldr	r4, .L109
 324 003c 6368     		ldr	r3, [r4, #4]
 325 003e 03F00C03 		and	r3, r3, #12
 352:Drivers/STM32F3xx_HAL_Driver/Src/stm32f3xx_hal_rcc.c ****        || ((__HAL_RCC_GET_SYSCLK_SOURCE() == RCC_SYSCLKSOURCE_STATUS_PLLCLK) && (__HAL_RCC_GET_PLL_
 326              		.loc 1 352 7 view .LVU89
 327 0042 042B     		cmp	r3, #4
 328 0044 0AD0     		beq	.L20
 353:Drivers/STM32F3xx_HAL_Driver/Src/stm32f3xx_hal_rcc.c ****     {
 329              		.loc 1 353 13 view .LVU90
 330 0046 6368     		ldr	r3, [r4, #4]
 331 0048 03F00C03 		and	r3, r3, #12
 353:Drivers/STM32F3xx_HAL_Driver/Src/stm32f3xx_hal_rcc.c ****     {
 332              		.loc 1 353 8 view .LVU91
 333 004c 082B     		cmp	r3, #8
 334 004e 19D1     		bne	.L21
 353:Drivers/STM32F3xx_HAL_Driver/Src/stm32f3xx_hal_rcc.c ****     {
 335              		.loc 1 353 82 discriminator 1 view .LVU92
 336 0050 6368     		ldr	r3, [r4, #4]
 337 0052 03F4C033 		and	r3, r3, #98304
 353:Drivers/STM32F3xx_HAL_Driver/Src/stm32f3xx_hal_rcc.c ****     {
 338              		.loc 1 353 78 discriminator 1 view .LVU93
 339 0056 B3F5803F 		cmp	r3, #65536
 340 005a 13D1     		bne	.L21
 341              	.L20:
 355:Drivers/STM32F3xx_HAL_Driver/Src/stm32f3xx_hal_rcc.c ****       {
 342              		.loc 1 355 7 is_stmt 1 view .LVU94
 343              	.LVL26:
 344              	.LBB178:
 345              	.LBI178:
 526:Drivers/CMSIS/Include/cmsis_gcc.h **** {
ARM GAS  /var/folders/8c/gyvcglfx7f97kbqb2h83mm_r0000gn/T//ccZyiauy.s 			page 29


 346              		.loc 2 526 57 view .LVU95
 347              	.LBB179:
 528:Drivers/CMSIS/Include/cmsis_gcc.h **** 
 348              		.loc 2 528 3 view .LVU96
 531:Drivers/CMSIS/Include/cmsis_gcc.h **** #else
 349              		.loc 2 531 4 view .LVU97
 350 005c 4FF40033 		mov	r3, #131072
 351              		.syntax unified
 352              	@ 531 "Drivers/CMSIS/Include/cmsis_gcc.h" 1
 353 0060 93FAA3F2 		rbit r2, r3
 354              	@ 0 "" 2
 355              	.LVL27:
 356              		.loc 2 544 3 view .LVU98
 357              		.loc 2 544 3 is_stmt 0 view .LVU99
 358              		.thumb
 359              		.syntax unified
 360              	.LBE179:
 361              	.LBE178:
 355:Drivers/STM32F3xx_HAL_Driver/Src/stm32f3xx_hal_rcc.c ****       {
 362              		.loc 1 355 11 view .LVU100
 363 0064 2168     		ldr	r1, [r4]
 364              	.LVL28:
 365              	.LBB180:
 366              	.LBI180:
 526:Drivers/CMSIS/Include/cmsis_gcc.h **** {
 367              		.loc 2 526 57 is_stmt 1 view .LVU101
 368              	.LBB181:
 528:Drivers/CMSIS/Include/cmsis_gcc.h **** 
 369              		.loc 2 528 3 view .LVU102
 531:Drivers/CMSIS/Include/cmsis_gcc.h **** #else
 370              		.loc 2 531 4 view .LVU103
 371              		.syntax unified
 372              	@ 531 "Drivers/CMSIS/Include/cmsis_gcc.h" 1
 373 0066 93FAA3F3 		rbit r3, r3
 374              	@ 0 "" 2
 375              	.LVL29:
 376              		.loc 2 544 3 view .LVU104
 377              		.loc 2 544 3 is_stmt 0 view .LVU105
 378              		.thumb
 379              		.syntax unified
 380              	.LBE181:
 381              	.LBE180:
 355:Drivers/STM32F3xx_HAL_Driver/Src/stm32f3xx_hal_rcc.c ****       {
 382              		.loc 1 355 11 view .LVU106
 383 006a B3FA83F3 		clz	r3, r3
 384 006e 03F01F03 		and	r3, r3, #31
 385 0072 0122     		movs	r2, #1
 386 0074 02FA03F3 		lsl	r3, r2, r3
 355:Drivers/STM32F3xx_HAL_Driver/Src/stm32f3xx_hal_rcc.c ****       {
 387              		.loc 1 355 9 view .LVU107
 388 0078 0B42     		tst	r3, r1
 389 007a CCD0     		beq	.L22
 355:Drivers/STM32F3xx_HAL_Driver/Src/stm32f3xx_hal_rcc.c ****       {
 390              		.loc 1 355 57 discriminator 13 view .LVU108
 391 007c 6B68     		ldr	r3, [r5, #4]
 392 007e 002B     		cmp	r3, #0
 393 0080 C9D1     		bne	.L22
ARM GAS  /var/folders/8c/gyvcglfx7f97kbqb2h83mm_r0000gn/T//ccZyiauy.s 			page 30


 394 0082 C1E7     		b	.L23
 395              	.L21:
 363:Drivers/STM32F3xx_HAL_Driver/Src/stm32f3xx_hal_rcc.c ****       
 396              		.loc 1 363 7 is_stmt 1 view .LVU109
 363:Drivers/STM32F3xx_HAL_Driver/Src/stm32f3xx_hal_rcc.c ****       
 397              		.loc 1 363 7 view .LVU110
 398 0084 6B68     		ldr	r3, [r5, #4]
 399 0086 B3F5803F 		cmp	r3, #65536
 400 008a 1ED1     		bne	.L24
 401              	.L107:
 363:Drivers/STM32F3xx_HAL_Driver/Src/stm32f3xx_hal_rcc.c ****       
 402              		.loc 1 363 7 discriminator 5 view .LVU111
 403 008c 2368     		ldr	r3, [r4]
 404 008e 43F48033 		orr	r3, r3, #65536
 405              	.L104:
 363:Drivers/STM32F3xx_HAL_Driver/Src/stm32f3xx_hal_rcc.c ****       
 406              		.loc 1 363 7 is_stmt 0 discriminator 6 view .LVU112
 407 0092 2360     		str	r3, [r4]
 374:Drivers/STM32F3xx_HAL_Driver/Src/stm32f3xx_hal_rcc.c ****         
 408              		.loc 1 374 9 is_stmt 1 discriminator 6 view .LVU113
 374:Drivers/STM32F3xx_HAL_Driver/Src/stm32f3xx_hal_rcc.c ****         
 409              		.loc 1 374 21 is_stmt 0 discriminator 6 view .LVU114
 410 0094 FFF7FEFF 		bl	HAL_GetTick
 411              	.LVL30:
 412              	.LBB182:
 413              	.LBB183:
 531:Drivers/CMSIS/Include/cmsis_gcc.h **** #else
 414              		.loc 2 531 4 discriminator 6 view .LVU115
 415 0098 4FF40036 		mov	r6, #131072
 416              	.LBE183:
 417              	.LBE182:
 374:Drivers/STM32F3xx_HAL_Driver/Src/stm32f3xx_hal_rcc.c ****         
 418              		.loc 1 374 21 discriminator 6 view .LVU116
 419 009c 8046     		mov	r8, r0
 420              	.LVL31:
 377:Drivers/STM32F3xx_HAL_Driver/Src/stm32f3xx_hal_rcc.c ****         {
 421              		.loc 1 377 9 is_stmt 1 discriminator 6 view .LVU117
 377:Drivers/STM32F3xx_HAL_Driver/Src/stm32f3xx_hal_rcc.c ****         {
 422              		.loc 1 377 15 is_stmt 0 discriminator 6 view .LVU118
 423 009e 0127     		movs	r7, #1
 424              	.LVL32:
 425              	.L30:
 426              	.LBB185:
 427              	.LBI182:
 526:Drivers/CMSIS/Include/cmsis_gcc.h **** {
 428              		.loc 2 526 57 is_stmt 1 view .LVU119
 429              	.LBB184:
 528:Drivers/CMSIS/Include/cmsis_gcc.h **** 
 430              		.loc 2 528 3 view .LVU120
 531:Drivers/CMSIS/Include/cmsis_gcc.h **** #else
 431              		.loc 2 531 4 view .LVU121
 432              		.syntax unified
 433              	@ 531 "Drivers/CMSIS/Include/cmsis_gcc.h" 1
 434 00a0 96FAA6F3 		rbit r3, r6
 435              	@ 0 "" 2
 436              	.LVL33:
 437              		.loc 2 544 3 view .LVU122
ARM GAS  /var/folders/8c/gyvcglfx7f97kbqb2h83mm_r0000gn/T//ccZyiauy.s 			page 31


 438              		.loc 2 544 3 is_stmt 0 view .LVU123
 439              		.thumb
 440              		.syntax unified
 441              	.LBE184:
 442              	.LBE185:
 377:Drivers/STM32F3xx_HAL_Driver/Src/stm32f3xx_hal_rcc.c ****         {
 443              		.loc 1 377 15 view .LVU124
 444 00a4 2268     		ldr	r2, [r4]
 445              	.LVL34:
 446              	.LBB186:
 447              	.LBI186:
 526:Drivers/CMSIS/Include/cmsis_gcc.h **** {
 448              		.loc 2 526 57 is_stmt 1 view .LVU125
 449              	.LBB187:
 528:Drivers/CMSIS/Include/cmsis_gcc.h **** 
 450              		.loc 2 528 3 view .LVU126
 531:Drivers/CMSIS/Include/cmsis_gcc.h **** #else
 451              		.loc 2 531 4 view .LVU127
 452              		.syntax unified
 453              	@ 531 "Drivers/CMSIS/Include/cmsis_gcc.h" 1
 454 00a6 96FAA6F3 		rbit r3, r6
 455              	@ 0 "" 2
 456              	.LVL35:
 457              		.loc 2 544 3 view .LVU128
 458              		.loc 2 544 3 is_stmt 0 view .LVU129
 459              		.thumb
 460              		.syntax unified
 461              	.LBE187:
 462              	.LBE186:
 377:Drivers/STM32F3xx_HAL_Driver/Src/stm32f3xx_hal_rcc.c ****         {
 463              		.loc 1 377 15 view .LVU130
 464 00aa B3FA83F3 		clz	r3, r3
 465 00ae 03F01F03 		and	r3, r3, #31
 466 00b2 07FA03F3 		lsl	r3, r7, r3
 377:Drivers/STM32F3xx_HAL_Driver/Src/stm32f3xx_hal_rcc.c ****         {
 467              		.loc 1 377 14 view .LVU131
 468 00b6 1342     		tst	r3, r2
 469 00b8 ADD1     		bne	.L22
 379:Drivers/STM32F3xx_HAL_Driver/Src/stm32f3xx_hal_rcc.c ****           {
 470              		.loc 1 379 11 is_stmt 1 view .LVU132
 379:Drivers/STM32F3xx_HAL_Driver/Src/stm32f3xx_hal_rcc.c ****           {
 471              		.loc 1 379 15 is_stmt 0 view .LVU133
 472 00ba FFF7FEFF 		bl	HAL_GetTick
 473              	.LVL36:
 379:Drivers/STM32F3xx_HAL_Driver/Src/stm32f3xx_hal_rcc.c ****           {
 474              		.loc 1 379 29 view .LVU134
 475 00be A0EB0800 		sub	r0, r0, r8
 379:Drivers/STM32F3xx_HAL_Driver/Src/stm32f3xx_hal_rcc.c ****           {
 476              		.loc 1 379 13 view .LVU135
 477 00c2 6428     		cmp	r0, #100
 478 00c4 ECD9     		bls	.L30
 479              	.LVL37:
 480              	.L32:
 381:Drivers/STM32F3xx_HAL_Driver/Src/stm32f3xx_hal_rcc.c ****           }
 481              		.loc 1 381 20 view .LVU136
 482 00c6 0320     		movs	r0, #3
 483 00c8 9FE7     		b	.L102
ARM GAS  /var/folders/8c/gyvcglfx7f97kbqb2h83mm_r0000gn/T//ccZyiauy.s 			page 32


 484              	.LVL38:
 485              	.L24:
 363:Drivers/STM32F3xx_HAL_Driver/Src/stm32f3xx_hal_rcc.c ****       
 486              		.loc 1 363 7 is_stmt 1 discriminator 2 view .LVU137
 487 00ca 0BBB     		cbnz	r3, .L26
 363:Drivers/STM32F3xx_HAL_Driver/Src/stm32f3xx_hal_rcc.c ****       
 488              		.loc 1 363 7 discriminator 3 view .LVU138
 489 00cc 2368     		ldr	r3, [r4]
 490 00ce 23F48033 		bic	r3, r3, #65536
 491 00d2 2360     		str	r3, [r4]
 363:Drivers/STM32F3xx_HAL_Driver/Src/stm32f3xx_hal_rcc.c ****       
 492              		.loc 1 363 7 discriminator 3 view .LVU139
 493 00d4 2368     		ldr	r3, [r4]
 494 00d6 23F48023 		bic	r3, r3, #262144
 495 00da 2360     		str	r3, [r4]
 371:Drivers/STM32F3xx_HAL_Driver/Src/stm32f3xx_hal_rcc.c ****       {
 496              		.loc 1 371 7 discriminator 3 view .LVU140
 388:Drivers/STM32F3xx_HAL_Driver/Src/stm32f3xx_hal_rcc.c ****         
 497              		.loc 1 388 9 discriminator 3 view .LVU141
 388:Drivers/STM32F3xx_HAL_Driver/Src/stm32f3xx_hal_rcc.c ****         
 498              		.loc 1 388 21 is_stmt 0 discriminator 3 view .LVU142
 499 00dc FFF7FEFF 		bl	HAL_GetTick
 500              	.LVL39:
 501              	.LBB188:
 502              	.LBB189:
 531:Drivers/CMSIS/Include/cmsis_gcc.h **** #else
 503              		.loc 2 531 4 discriminator 3 view .LVU143
 504 00e0 4FF40036 		mov	r6, #131072
 505              	.LBE189:
 506              	.LBE188:
 388:Drivers/STM32F3xx_HAL_Driver/Src/stm32f3xx_hal_rcc.c ****         
 507              		.loc 1 388 21 discriminator 3 view .LVU144
 508 00e4 8046     		mov	r8, r0
 509              	.LVL40:
 391:Drivers/STM32F3xx_HAL_Driver/Src/stm32f3xx_hal_rcc.c ****         {
 510              		.loc 1 391 9 is_stmt 1 discriminator 3 view .LVU145
 391:Drivers/STM32F3xx_HAL_Driver/Src/stm32f3xx_hal_rcc.c ****         {
 511              		.loc 1 391 15 is_stmt 0 discriminator 3 view .LVU146
 512 00e6 0127     		movs	r7, #1
 513              	.LVL41:
 514              	.L27:
 515              	.LBB191:
 516              	.LBI188:
 526:Drivers/CMSIS/Include/cmsis_gcc.h **** {
 517              		.loc 2 526 57 is_stmt 1 view .LVU147
 518              	.LBB190:
 528:Drivers/CMSIS/Include/cmsis_gcc.h **** 
 519              		.loc 2 528 3 view .LVU148
 531:Drivers/CMSIS/Include/cmsis_gcc.h **** #else
 520              		.loc 2 531 4 view .LVU149
 521              		.syntax unified
 522              	@ 531 "Drivers/CMSIS/Include/cmsis_gcc.h" 1
 523 00e8 96FAA6F3 		rbit r3, r6
 524              	@ 0 "" 2
 525              	.LVL42:
 526              		.loc 2 544 3 view .LVU150
 527              		.loc 2 544 3 is_stmt 0 view .LVU151
ARM GAS  /var/folders/8c/gyvcglfx7f97kbqb2h83mm_r0000gn/T//ccZyiauy.s 			page 33


 528              		.thumb
 529              		.syntax unified
 530              	.LBE190:
 531              	.LBE191:
 391:Drivers/STM32F3xx_HAL_Driver/Src/stm32f3xx_hal_rcc.c ****         {
 532              		.loc 1 391 15 view .LVU152
 533 00ec 2268     		ldr	r2, [r4]
 534              	.LVL43:
 535              	.LBB192:
 536              	.LBI192:
 526:Drivers/CMSIS/Include/cmsis_gcc.h **** {
 537              		.loc 2 526 57 is_stmt 1 view .LVU153
 538              	.LBB193:
 528:Drivers/CMSIS/Include/cmsis_gcc.h **** 
 539              		.loc 2 528 3 view .LVU154
 531:Drivers/CMSIS/Include/cmsis_gcc.h **** #else
 540              		.loc 2 531 4 view .LVU155
 541              		.syntax unified
 542              	@ 531 "Drivers/CMSIS/Include/cmsis_gcc.h" 1
 543 00ee 96FAA6F3 		rbit r3, r6
 544              	@ 0 "" 2
 545              	.LVL44:
 546              		.loc 2 544 3 view .LVU156
 547              		.loc 2 544 3 is_stmt 0 view .LVU157
 548              		.thumb
 549              		.syntax unified
 550              	.LBE193:
 551              	.LBE192:
 391:Drivers/STM32F3xx_HAL_Driver/Src/stm32f3xx_hal_rcc.c ****         {
 552              		.loc 1 391 15 view .LVU158
 553 00f2 B3FA83F3 		clz	r3, r3
 554 00f6 03F01F03 		and	r3, r3, #31
 555 00fa 07FA03F3 		lsl	r3, r7, r3
 391:Drivers/STM32F3xx_HAL_Driver/Src/stm32f3xx_hal_rcc.c ****         {
 556              		.loc 1 391 14 view .LVU159
 557 00fe 1342     		tst	r3, r2
 558 0100 89D0     		beq	.L22
 393:Drivers/STM32F3xx_HAL_Driver/Src/stm32f3xx_hal_rcc.c ****           {
 559              		.loc 1 393 12 is_stmt 1 view .LVU160
 393:Drivers/STM32F3xx_HAL_Driver/Src/stm32f3xx_hal_rcc.c ****           {
 560              		.loc 1 393 16 is_stmt 0 view .LVU161
 561 0102 FFF7FEFF 		bl	HAL_GetTick
 562              	.LVL45:
 393:Drivers/STM32F3xx_HAL_Driver/Src/stm32f3xx_hal_rcc.c ****           {
 563              		.loc 1 393 30 view .LVU162
 564 0106 A0EB0800 		sub	r0, r0, r8
 393:Drivers/STM32F3xx_HAL_Driver/Src/stm32f3xx_hal_rcc.c ****           {
 565              		.loc 1 393 14 view .LVU163
 566 010a 6428     		cmp	r0, #100
 567 010c ECD9     		bls	.L27
 568 010e DAE7     		b	.L32
 569              	.LVL46:
 570              	.L26:
 363:Drivers/STM32F3xx_HAL_Driver/Src/stm32f3xx_hal_rcc.c ****       
 571              		.loc 1 363 7 is_stmt 1 discriminator 4 view .LVU164
 572 0110 B3F5A02F 		cmp	r3, #327680
 573 0114 2368     		ldr	r3, [r4]
ARM GAS  /var/folders/8c/gyvcglfx7f97kbqb2h83mm_r0000gn/T//ccZyiauy.s 			page 34


 574 0116 03D1     		bne	.L28
 363:Drivers/STM32F3xx_HAL_Driver/Src/stm32f3xx_hal_rcc.c ****       
 575              		.loc 1 363 7 discriminator 5 view .LVU165
 576 0118 43F48023 		orr	r3, r3, #262144
 577 011c 2360     		str	r3, [r4]
 578 011e B5E7     		b	.L107
 579              	.L28:
 363:Drivers/STM32F3xx_HAL_Driver/Src/stm32f3xx_hal_rcc.c ****       
 580              		.loc 1 363 7 discriminator 6 view .LVU166
 581 0120 23F48033 		bic	r3, r3, #65536
 582 0124 2360     		str	r3, [r4]
 363:Drivers/STM32F3xx_HAL_Driver/Src/stm32f3xx_hal_rcc.c ****       
 583              		.loc 1 363 7 discriminator 6 view .LVU167
 584 0126 2368     		ldr	r3, [r4]
 585 0128 23F48023 		bic	r3, r3, #262144
 586 012c B1E7     		b	.L104
 587              	.LVL47:
 588              	.L18:
 405:Drivers/STM32F3xx_HAL_Driver/Src/stm32f3xx_hal_rcc.c ****     assert_param(IS_RCC_CALIBRATION_VALUE(RCC_OscInitStruct->HSICalibrationValue));
 589              		.loc 1 405 5 view .LVU168
 406:Drivers/STM32F3xx_HAL_Driver/Src/stm32f3xx_hal_rcc.c ****     
 590              		.loc 1 406 5 view .LVU169
 409:Drivers/STM32F3xx_HAL_Driver/Src/stm32f3xx_hal_rcc.c ****        || ((__HAL_RCC_GET_SYSCLK_SOURCE() == RCC_SYSCLKSOURCE_STATUS_PLLCLK) && (__HAL_RCC_GET_PLL_
 591              		.loc 1 409 5 view .LVU170
 409:Drivers/STM32F3xx_HAL_Driver/Src/stm32f3xx_hal_rcc.c ****        || ((__HAL_RCC_GET_SYSCLK_SOURCE() == RCC_SYSCLKSOURCE_STATUS_PLLCLK) && (__HAL_RCC_GET_PLL_
 592              		.loc 1 409 9 is_stmt 0 view .LVU171
 593 012e 804C     		ldr	r4, .L109
 594 0130 6368     		ldr	r3, [r4, #4]
 409:Drivers/STM32F3xx_HAL_Driver/Src/stm32f3xx_hal_rcc.c ****        || ((__HAL_RCC_GET_SYSCLK_SOURCE() == RCC_SYSCLKSOURCE_STATUS_PLLCLK) && (__HAL_RCC_GET_PLL_
 595              		.loc 1 409 7 view .LVU172
 596 0132 13F00C0F 		tst	r3, #12
 597 0136 0AD0     		beq	.L35
 410:Drivers/STM32F3xx_HAL_Driver/Src/stm32f3xx_hal_rcc.c ****     {
 598              		.loc 1 410 13 view .LVU173
 599 0138 6368     		ldr	r3, [r4, #4]
 600 013a 03F00C03 		and	r3, r3, #12
 410:Drivers/STM32F3xx_HAL_Driver/Src/stm32f3xx_hal_rcc.c ****     {
 601              		.loc 1 410 8 view .LVU174
 602 013e 082B     		cmp	r3, #8
 603 0140 25D1     		bne	.L36
 410:Drivers/STM32F3xx_HAL_Driver/Src/stm32f3xx_hal_rcc.c ****     {
 604              		.loc 1 410 82 discriminator 1 view .LVU175
 605 0142 6368     		ldr	r3, [r4, #4]
 606 0144 03F4C033 		and	r3, r3, #98304
 410:Drivers/STM32F3xx_HAL_Driver/Src/stm32f3xx_hal_rcc.c ****     {
 607              		.loc 1 410 78 discriminator 1 view .LVU176
 608 0148 B3F5004F 		cmp	r3, #32768
 609 014c 1FD1     		bne	.L36
 610              	.L35:
 413:Drivers/STM32F3xx_HAL_Driver/Src/stm32f3xx_hal_rcc.c ****       {
 611              		.loc 1 413 7 is_stmt 1 view .LVU177
 612              	.LVL48:
 613              	.LBB194:
 614              	.LBI194:
 526:Drivers/CMSIS/Include/cmsis_gcc.h **** {
 615              		.loc 2 526 57 view .LVU178
 616              	.LBB195:
ARM GAS  /var/folders/8c/gyvcglfx7f97kbqb2h83mm_r0000gn/T//ccZyiauy.s 			page 35


 528:Drivers/CMSIS/Include/cmsis_gcc.h **** 
 617              		.loc 2 528 3 view .LVU179
 531:Drivers/CMSIS/Include/cmsis_gcc.h **** #else
 618              		.loc 2 531 4 view .LVU180
 619 014e 0223     		movs	r3, #2
 620              		.syntax unified
 621              	@ 531 "Drivers/CMSIS/Include/cmsis_gcc.h" 1
 622 0150 93FAA3F2 		rbit r2, r3
 623              	@ 0 "" 2
 624              	.LVL49:
 625              		.loc 2 544 3 view .LVU181
 626              		.loc 2 544 3 is_stmt 0 view .LVU182
 627              		.thumb
 628              		.syntax unified
 629              	.LBE195:
 630              	.LBE194:
 413:Drivers/STM32F3xx_HAL_Driver/Src/stm32f3xx_hal_rcc.c ****       {
 631              		.loc 1 413 11 view .LVU183
 632 0154 2168     		ldr	r1, [r4]
 633              	.LVL50:
 634              	.LBB196:
 635              	.LBI196:
 526:Drivers/CMSIS/Include/cmsis_gcc.h **** {
 636              		.loc 2 526 57 is_stmt 1 view .LVU184
 637              	.LBB197:
 528:Drivers/CMSIS/Include/cmsis_gcc.h **** 
 638              		.loc 2 528 3 view .LVU185
 531:Drivers/CMSIS/Include/cmsis_gcc.h **** #else
 639              		.loc 2 531 4 view .LVU186
 640              		.syntax unified
 641              	@ 531 "Drivers/CMSIS/Include/cmsis_gcc.h" 1
 642 0156 93FAA3F3 		rbit r3, r3
 643              	@ 0 "" 2
 644              	.LVL51:
 645              		.loc 2 544 3 view .LVU187
 646              		.loc 2 544 3 is_stmt 0 view .LVU188
 647              		.thumb
 648              		.syntax unified
 649              	.LBE197:
 650              	.LBE196:
 413:Drivers/STM32F3xx_HAL_Driver/Src/stm32f3xx_hal_rcc.c ****       {
 651              		.loc 1 413 11 view .LVU189
 652 015a B3FA83F3 		clz	r3, r3
 653 015e 03F01F03 		and	r3, r3, #31
 654 0162 0122     		movs	r2, #1
 655 0164 02FA03F3 		lsl	r3, r2, r3
 413:Drivers/STM32F3xx_HAL_Driver/Src/stm32f3xx_hal_rcc.c ****       {
 656              		.loc 1 413 9 view .LVU190
 657 0168 0B42     		tst	r3, r1
 658 016a 03D0     		beq	.L105
 413:Drivers/STM32F3xx_HAL_Driver/Src/stm32f3xx_hal_rcc.c ****       {
 659              		.loc 1 413 57 discriminator 13 view .LVU191
 660 016c EB68     		ldr	r3, [r5, #12]
 661 016e 9342     		cmp	r3, r2
 662 0170 7FF44AAF 		bne	.L23
 663              	.L105:
 445:Drivers/STM32F3xx_HAL_Driver/Src/stm32f3xx_hal_rcc.c ****       }
ARM GAS  /var/folders/8c/gyvcglfx7f97kbqb2h83mm_r0000gn/T//ccZyiauy.s 			page 36


 664              		.loc 1 445 9 is_stmt 1 view .LVU192
 665 0174 2168     		ldr	r1, [r4]
 666              	.LVL52:
 667              	.LBB198:
 668              	.LBI198:
 526:Drivers/CMSIS/Include/cmsis_gcc.h **** {
 669              		.loc 2 526 57 view .LVU193
 670              	.LBB199:
 528:Drivers/CMSIS/Include/cmsis_gcc.h **** 
 671              		.loc 2 528 3 view .LVU194
 531:Drivers/CMSIS/Include/cmsis_gcc.h **** #else
 672              		.loc 2 531 4 view .LVU195
 673 0176 F823     		movs	r3, #248
 674              		.syntax unified
 675              	@ 531 "Drivers/CMSIS/Include/cmsis_gcc.h" 1
 676 0178 93FAA3F3 		rbit r3, r3
 677              	@ 0 "" 2
 678              	.LVL53:
 679              		.loc 2 544 3 view .LVU196
 680              		.loc 2 544 3 is_stmt 0 view .LVU197
 681              		.thumb
 682              		.syntax unified
 683              	.LBE199:
 684              	.LBE198:
 445:Drivers/STM32F3xx_HAL_Driver/Src/stm32f3xx_hal_rcc.c ****       }
 685              		.loc 1 445 9 view .LVU198
 686 017c B3FA83F2 		clz	r2, r3
 687 0180 2B69     		ldr	r3, [r5, #16]
 688 0182 9340     		lsls	r3, r3, r2
 689 0184 21F0F802 		bic	r2, r1, #248
 690 0188 1343     		orrs	r3, r3, r2
 691 018a 2360     		str	r3, [r4]
 692 018c 47E7     		b	.L34
 693              	.L36:
 427:Drivers/STM32F3xx_HAL_Driver/Src/stm32f3xx_hal_rcc.c ****       {
 694              		.loc 1 427 7 is_stmt 1 view .LVU199
 427:Drivers/STM32F3xx_HAL_Driver/Src/stm32f3xx_hal_rcc.c ****       {
 695              		.loc 1 427 9 is_stmt 0 view .LVU200
 696 018e EA68     		ldr	r2, [r5, #12]
 697 0190 0126     		movs	r6, #1
 698 0192 0AB3     		cbz	r2, .L38
 430:Drivers/STM32F3xx_HAL_Driver/Src/stm32f3xx_hal_rcc.c ****         
 699              		.loc 1 430 9 is_stmt 1 view .LVU201
 700              	.LVL54:
 701              	.LBB200:
 702              	.LBI200:
 526:Drivers/CMSIS/Include/cmsis_gcc.h **** {
 703              		.loc 2 526 57 view .LVU202
 704              	.LBB201:
 528:Drivers/CMSIS/Include/cmsis_gcc.h **** 
 705              		.loc 2 528 3 view .LVU203
 531:Drivers/CMSIS/Include/cmsis_gcc.h **** #else
 706              		.loc 2 531 4 view .LVU204
 707              		.syntax unified
 708              	@ 531 "Drivers/CMSIS/Include/cmsis_gcc.h" 1
 709 0194 96FAA6F3 		rbit r3, r6
 710              	@ 0 "" 2
ARM GAS  /var/folders/8c/gyvcglfx7f97kbqb2h83mm_r0000gn/T//ccZyiauy.s 			page 37


 711              	.LVL55:
 712              		.loc 2 544 3 view .LVU205
 713              		.loc 2 544 3 is_stmt 0 view .LVU206
 714              		.thumb
 715              		.syntax unified
 716              	.LBE201:
 717              	.LBE200:
 430:Drivers/STM32F3xx_HAL_Driver/Src/stm32f3xx_hal_rcc.c ****         
 718              		.loc 1 430 9 view .LVU207
 719 0198 B3FA83F3 		clz	r3, r3
 720 019c 03F18453 		add	r3, r3, #276824064
 721 01a0 03F58413 		add	r3, r3, #1081344
 722 01a4 9B00     		lsls	r3, r3, #2
 723              	.LBB202:
 724              	.LBB203:
 531:Drivers/CMSIS/Include/cmsis_gcc.h **** #else
 725              		.loc 2 531 4 view .LVU208
 726 01a6 0227     		movs	r7, #2
 727              	.LBE203:
 728              	.LBE202:
 430:Drivers/STM32F3xx_HAL_Driver/Src/stm32f3xx_hal_rcc.c ****         
 729              		.loc 1 430 9 view .LVU209
 730 01a8 1E60     		str	r6, [r3]
 433:Drivers/STM32F3xx_HAL_Driver/Src/stm32f3xx_hal_rcc.c ****         
 731              		.loc 1 433 9 is_stmt 1 view .LVU210
 433:Drivers/STM32F3xx_HAL_Driver/Src/stm32f3xx_hal_rcc.c ****         
 732              		.loc 1 433 21 is_stmt 0 view .LVU211
 733 01aa FFF7FEFF 		bl	HAL_GetTick
 734              	.LVL56:
 735 01ae 8046     		mov	r8, r0
 736              	.LVL57:
 436:Drivers/STM32F3xx_HAL_Driver/Src/stm32f3xx_hal_rcc.c ****         {
 737              		.loc 1 436 9 is_stmt 1 view .LVU212
 738              	.L39:
 739              	.LBB205:
 740              	.LBI202:
 526:Drivers/CMSIS/Include/cmsis_gcc.h **** {
 741              		.loc 2 526 57 view .LVU213
 742              	.LBB204:
 528:Drivers/CMSIS/Include/cmsis_gcc.h **** 
 743              		.loc 2 528 3 view .LVU214
 531:Drivers/CMSIS/Include/cmsis_gcc.h **** #else
 744              		.loc 2 531 4 view .LVU215
 745              		.syntax unified
 746              	@ 531 "Drivers/CMSIS/Include/cmsis_gcc.h" 1
 747 01b0 97FAA7F3 		rbit r3, r7
 748              	@ 0 "" 2
 749              	.LVL58:
 750              		.loc 2 544 3 view .LVU216
 751              		.loc 2 544 3 is_stmt 0 view .LVU217
 752              		.thumb
 753              		.syntax unified
 754              	.LBE204:
 755              	.LBE205:
 436:Drivers/STM32F3xx_HAL_Driver/Src/stm32f3xx_hal_rcc.c ****         {
 756              		.loc 1 436 15 view .LVU218
 757 01b4 2268     		ldr	r2, [r4]
ARM GAS  /var/folders/8c/gyvcglfx7f97kbqb2h83mm_r0000gn/T//ccZyiauy.s 			page 38


 758              	.LVL59:
 759              	.LBB206:
 760              	.LBI206:
 526:Drivers/CMSIS/Include/cmsis_gcc.h **** {
 761              		.loc 2 526 57 is_stmt 1 view .LVU219
 762              	.LBB207:
 528:Drivers/CMSIS/Include/cmsis_gcc.h **** 
 763              		.loc 2 528 3 view .LVU220
 531:Drivers/CMSIS/Include/cmsis_gcc.h **** #else
 764              		.loc 2 531 4 view .LVU221
 765              		.syntax unified
 766              	@ 531 "Drivers/CMSIS/Include/cmsis_gcc.h" 1
 767 01b6 97FAA7F3 		rbit r3, r7
 768              	@ 0 "" 2
 769              	.LVL60:
 770              		.loc 2 544 3 view .LVU222
 771              		.loc 2 544 3 is_stmt 0 view .LVU223
 772              		.thumb
 773              		.syntax unified
 774              	.LBE207:
 775              	.LBE206:
 436:Drivers/STM32F3xx_HAL_Driver/Src/stm32f3xx_hal_rcc.c ****         {
 776              		.loc 1 436 15 view .LVU224
 777 01ba B3FA83F3 		clz	r3, r3
 778 01be 03F01F03 		and	r3, r3, #31
 779 01c2 06FA03F3 		lsl	r3, r6, r3
 436:Drivers/STM32F3xx_HAL_Driver/Src/stm32f3xx_hal_rcc.c ****         {
 780              		.loc 1 436 14 view .LVU225
 781 01c6 1342     		tst	r3, r2
 782 01c8 D4D1     		bne	.L105
 438:Drivers/STM32F3xx_HAL_Driver/Src/stm32f3xx_hal_rcc.c ****           {
 783              		.loc 1 438 11 is_stmt 1 view .LVU226
 438:Drivers/STM32F3xx_HAL_Driver/Src/stm32f3xx_hal_rcc.c ****           {
 784              		.loc 1 438 15 is_stmt 0 view .LVU227
 785 01ca FFF7FEFF 		bl	HAL_GetTick
 786              	.LVL61:
 438:Drivers/STM32F3xx_HAL_Driver/Src/stm32f3xx_hal_rcc.c ****           {
 787              		.loc 1 438 29 view .LVU228
 788 01ce A0EB0800 		sub	r0, r0, r8
 438:Drivers/STM32F3xx_HAL_Driver/Src/stm32f3xx_hal_rcc.c ****           {
 789              		.loc 1 438 13 view .LVU229
 790 01d2 0228     		cmp	r0, #2
 791 01d4 ECD9     		bls	.L39
 792 01d6 76E7     		b	.L32
 793              	.LVL62:
 794              	.L38:
 450:Drivers/STM32F3xx_HAL_Driver/Src/stm32f3xx_hal_rcc.c ****         
 795              		.loc 1 450 9 is_stmt 1 view .LVU230
 796              	.LBB208:
 797              	.LBI208:
 526:Drivers/CMSIS/Include/cmsis_gcc.h **** {
 798              		.loc 2 526 57 view .LVU231
 799              	.LBB209:
 528:Drivers/CMSIS/Include/cmsis_gcc.h **** 
 800              		.loc 2 528 3 view .LVU232
 531:Drivers/CMSIS/Include/cmsis_gcc.h **** #else
 801              		.loc 2 531 4 view .LVU233
ARM GAS  /var/folders/8c/gyvcglfx7f97kbqb2h83mm_r0000gn/T//ccZyiauy.s 			page 39


 802              		.syntax unified
 803              	@ 531 "Drivers/CMSIS/Include/cmsis_gcc.h" 1
 804 01d8 96FAA6F3 		rbit r3, r6
 805              	@ 0 "" 2
 806              	.LVL63:
 807              		.loc 2 544 3 view .LVU234
 808              		.loc 2 544 3 is_stmt 0 view .LVU235
 809              		.thumb
 810              		.syntax unified
 811              	.LBE209:
 812              	.LBE208:
 450:Drivers/STM32F3xx_HAL_Driver/Src/stm32f3xx_hal_rcc.c ****         
 813              		.loc 1 450 9 view .LVU236
 814 01dc B3FA83F3 		clz	r3, r3
 815 01e0 03F18453 		add	r3, r3, #276824064
 816 01e4 03F58413 		add	r3, r3, #1081344
 817 01e8 9B00     		lsls	r3, r3, #2
 818              	.LBB210:
 819              	.LBB211:
 531:Drivers/CMSIS/Include/cmsis_gcc.h **** #else
 820              		.loc 2 531 4 view .LVU237
 821 01ea 0227     		movs	r7, #2
 822              	.LBE211:
 823              	.LBE210:
 450:Drivers/STM32F3xx_HAL_Driver/Src/stm32f3xx_hal_rcc.c ****         
 824              		.loc 1 450 9 view .LVU238
 825 01ec 1A60     		str	r2, [r3]
 453:Drivers/STM32F3xx_HAL_Driver/Src/stm32f3xx_hal_rcc.c ****         
 826              		.loc 1 453 9 is_stmt 1 view .LVU239
 453:Drivers/STM32F3xx_HAL_Driver/Src/stm32f3xx_hal_rcc.c ****         
 827              		.loc 1 453 21 is_stmt 0 view .LVU240
 828 01ee FFF7FEFF 		bl	HAL_GetTick
 829              	.LVL64:
 830 01f2 8046     		mov	r8, r0
 831              	.LVL65:
 456:Drivers/STM32F3xx_HAL_Driver/Src/stm32f3xx_hal_rcc.c ****         {
 832              		.loc 1 456 9 is_stmt 1 view .LVU241
 833              	.L41:
 834              	.LBB213:
 835              	.LBI210:
 526:Drivers/CMSIS/Include/cmsis_gcc.h **** {
 836              		.loc 2 526 57 view .LVU242
 837              	.LBB212:
 528:Drivers/CMSIS/Include/cmsis_gcc.h **** 
 838              		.loc 2 528 3 view .LVU243
 531:Drivers/CMSIS/Include/cmsis_gcc.h **** #else
 839              		.loc 2 531 4 view .LVU244
 840              		.syntax unified
 841              	@ 531 "Drivers/CMSIS/Include/cmsis_gcc.h" 1
 842 01f4 97FAA7F3 		rbit r3, r7
 843              	@ 0 "" 2
 844              	.LVL66:
 845              		.loc 2 544 3 view .LVU245
 846              		.loc 2 544 3 is_stmt 0 view .LVU246
 847              		.thumb
 848              		.syntax unified
 849              	.LBE212:
ARM GAS  /var/folders/8c/gyvcglfx7f97kbqb2h83mm_r0000gn/T//ccZyiauy.s 			page 40


 850              	.LBE213:
 456:Drivers/STM32F3xx_HAL_Driver/Src/stm32f3xx_hal_rcc.c ****         {
 851              		.loc 1 456 15 view .LVU247
 852 01f8 2268     		ldr	r2, [r4]
 853              	.LVL67:
 854              	.LBB214:
 855              	.LBI214:
 526:Drivers/CMSIS/Include/cmsis_gcc.h **** {
 856              		.loc 2 526 57 is_stmt 1 view .LVU248
 857              	.LBB215:
 528:Drivers/CMSIS/Include/cmsis_gcc.h **** 
 858              		.loc 2 528 3 view .LVU249
 531:Drivers/CMSIS/Include/cmsis_gcc.h **** #else
 859              		.loc 2 531 4 view .LVU250
 860              		.syntax unified
 861              	@ 531 "Drivers/CMSIS/Include/cmsis_gcc.h" 1
 862 01fa 97FAA7F3 		rbit r3, r7
 863              	@ 0 "" 2
 864              	.LVL68:
 865              		.loc 2 544 3 view .LVU251
 866              		.loc 2 544 3 is_stmt 0 view .LVU252
 867              		.thumb
 868              		.syntax unified
 869              	.LBE215:
 870              	.LBE214:
 456:Drivers/STM32F3xx_HAL_Driver/Src/stm32f3xx_hal_rcc.c ****         {
 871              		.loc 1 456 15 view .LVU253
 872 01fe B3FA83F3 		clz	r3, r3
 873 0202 03F01F03 		and	r3, r3, #31
 874 0206 06FA03F3 		lsl	r3, r6, r3
 456:Drivers/STM32F3xx_HAL_Driver/Src/stm32f3xx_hal_rcc.c ****         {
 875              		.loc 1 456 14 view .LVU254
 876 020a 1342     		tst	r3, r2
 877 020c 3FF407AF 		beq	.L34
 458:Drivers/STM32F3xx_HAL_Driver/Src/stm32f3xx_hal_rcc.c ****           {
 878              		.loc 1 458 11 is_stmt 1 view .LVU255
 458:Drivers/STM32F3xx_HAL_Driver/Src/stm32f3xx_hal_rcc.c ****           {
 879              		.loc 1 458 15 is_stmt 0 view .LVU256
 880 0210 FFF7FEFF 		bl	HAL_GetTick
 881              	.LVL69:
 458:Drivers/STM32F3xx_HAL_Driver/Src/stm32f3xx_hal_rcc.c ****           {
 882              		.loc 1 458 29 view .LVU257
 883 0214 A0EB0800 		sub	r0, r0, r8
 458:Drivers/STM32F3xx_HAL_Driver/Src/stm32f3xx_hal_rcc.c ****           {
 884              		.loc 1 458 13 view .LVU258
 885 0218 0228     		cmp	r0, #2
 886 021a EBD9     		bls	.L41
 887 021c 53E7     		b	.L32
 888              	.LVL70:
 889              	.L43:
 470:Drivers/STM32F3xx_HAL_Driver/Src/stm32f3xx_hal_rcc.c ****     
 890              		.loc 1 470 5 is_stmt 1 view .LVU259
 473:Drivers/STM32F3xx_HAL_Driver/Src/stm32f3xx_hal_rcc.c ****     {
 891              		.loc 1 473 5 view .LVU260
 473:Drivers/STM32F3xx_HAL_Driver/Src/stm32f3xx_hal_rcc.c ****     {
 892              		.loc 1 473 7 is_stmt 0 view .LVU261
 893 021e 6A69     		ldr	r2, [r5, #20]
ARM GAS  /var/folders/8c/gyvcglfx7f97kbqb2h83mm_r0000gn/T//ccZyiauy.s 			page 41


 894 0220 434E     		ldr	r6, .L109
 895 0222 4449     		ldr	r1, .L109+4
 896 0224 0124     		movs	r4, #1
 897 0226 1AB3     		cbz	r2, .L46
 476:Drivers/STM32F3xx_HAL_Driver/Src/stm32f3xx_hal_rcc.c ****       
 898              		.loc 1 476 7 is_stmt 1 view .LVU262
 899              	.LVL71:
 900              	.LBB216:
 901              	.LBI216:
 526:Drivers/CMSIS/Include/cmsis_gcc.h **** {
 902              		.loc 2 526 57 view .LVU263
 903              	.LBB217:
 528:Drivers/CMSIS/Include/cmsis_gcc.h **** 
 904              		.loc 2 528 3 view .LVU264
 531:Drivers/CMSIS/Include/cmsis_gcc.h **** #else
 905              		.loc 2 531 4 view .LVU265
 906              		.syntax unified
 907              	@ 531 "Drivers/CMSIS/Include/cmsis_gcc.h" 1
 908 0228 94FAA4F3 		rbit r3, r4
 909              	@ 0 "" 2
 910              	.LVL72:
 911              		.loc 2 544 3 view .LVU266
 912              		.loc 2 544 3 is_stmt 0 view .LVU267
 913              		.thumb
 914              		.syntax unified
 915              	.LBE217:
 916              	.LBE216:
 476:Drivers/STM32F3xx_HAL_Driver/Src/stm32f3xx_hal_rcc.c ****       
 917              		.loc 1 476 7 view .LVU268
 918 022c B3FA83F3 		clz	r3, r3
 919 0230 0B44     		add	r3, r3, r1
 920 0232 9B00     		lsls	r3, r3, #2
 921              	.LBB218:
 922              	.LBB219:
 531:Drivers/CMSIS/Include/cmsis_gcc.h **** #else
 923              		.loc 2 531 4 view .LVU269
 924 0234 0227     		movs	r7, #2
 925              	.LBE219:
 926              	.LBE218:
 476:Drivers/STM32F3xx_HAL_Driver/Src/stm32f3xx_hal_rcc.c ****       
 927              		.loc 1 476 7 view .LVU270
 928 0236 1C60     		str	r4, [r3]
 479:Drivers/STM32F3xx_HAL_Driver/Src/stm32f3xx_hal_rcc.c ****       
 929              		.loc 1 479 7 is_stmt 1 view .LVU271
 479:Drivers/STM32F3xx_HAL_Driver/Src/stm32f3xx_hal_rcc.c ****       
 930              		.loc 1 479 19 is_stmt 0 view .LVU272
 931 0238 FFF7FEFF 		bl	HAL_GetTick
 932              	.LVL73:
 933 023c 8046     		mov	r8, r0
 934              	.LVL74:
 482:Drivers/STM32F3xx_HAL_Driver/Src/stm32f3xx_hal_rcc.c ****       {
 935              		.loc 1 482 7 is_stmt 1 view .LVU273
 936              	.L47:
 937              	.LBB221:
 938              	.LBI218:
 526:Drivers/CMSIS/Include/cmsis_gcc.h **** {
 939              		.loc 2 526 57 view .LVU274
ARM GAS  /var/folders/8c/gyvcglfx7f97kbqb2h83mm_r0000gn/T//ccZyiauy.s 			page 42


 940              	.LBB220:
 528:Drivers/CMSIS/Include/cmsis_gcc.h **** 
 941              		.loc 2 528 3 view .LVU275
 531:Drivers/CMSIS/Include/cmsis_gcc.h **** #else
 942              		.loc 2 531 4 view .LVU276
 943              		.syntax unified
 944              	@ 531 "Drivers/CMSIS/Include/cmsis_gcc.h" 1
 945 023e 97FAA7F3 		rbit r3, r7
 946              	@ 0 "" 2
 947              	.LVL75:
 948              		.loc 2 544 3 view .LVU277
 949              		.loc 2 544 3 is_stmt 0 view .LVU278
 950              		.thumb
 951              		.syntax unified
 952              	.LBE220:
 953              	.LBE221:
 954              	.LBB222:
 955              	.LBI222:
 526:Drivers/CMSIS/Include/cmsis_gcc.h **** {
 956              		.loc 2 526 57 is_stmt 1 view .LVU279
 957              	.LBB223:
 528:Drivers/CMSIS/Include/cmsis_gcc.h **** 
 958              		.loc 2 528 3 view .LVU280
 531:Drivers/CMSIS/Include/cmsis_gcc.h **** #else
 959              		.loc 2 531 4 view .LVU281
 960              		.syntax unified
 961              	@ 531 "Drivers/CMSIS/Include/cmsis_gcc.h" 1
 962 0242 97FAA7F3 		rbit r3, r7
 963              	@ 0 "" 2
 964              	.LVL76:
 965              		.loc 2 544 3 view .LVU282
 966              		.loc 2 544 3 is_stmt 0 view .LVU283
 967              		.thumb
 968              		.syntax unified
 969              	.LBE223:
 970              	.LBE222:
 971              	.LBB224:
 972              	.LBI224:
 526:Drivers/CMSIS/Include/cmsis_gcc.h **** {
 973              		.loc 2 526 57 is_stmt 1 view .LVU284
 974              	.LBB225:
 528:Drivers/CMSIS/Include/cmsis_gcc.h **** 
 975              		.loc 2 528 3 view .LVU285
 531:Drivers/CMSIS/Include/cmsis_gcc.h **** #else
 976              		.loc 2 531 4 view .LVU286
 977              		.syntax unified
 978              	@ 531 "Drivers/CMSIS/Include/cmsis_gcc.h" 1
 979 0246 97FAA7F3 		rbit r3, r7
 980              	@ 0 "" 2
 981              	.LVL77:
 982              		.loc 2 544 3 view .LVU287
 983              		.loc 2 544 3 is_stmt 0 view .LVU288
 984              		.thumb
 985              		.syntax unified
 986              	.LBE225:
 987              	.LBE224:
 482:Drivers/STM32F3xx_HAL_Driver/Src/stm32f3xx_hal_rcc.c ****       {
ARM GAS  /var/folders/8c/gyvcglfx7f97kbqb2h83mm_r0000gn/T//ccZyiauy.s 			page 43


 988              		.loc 1 482 13 view .LVU289
 989 024a 726A     		ldr	r2, [r6, #36]
 990              	.LVL78:
 991              	.LBB226:
 992              	.LBI226:
 526:Drivers/CMSIS/Include/cmsis_gcc.h **** {
 993              		.loc 2 526 57 is_stmt 1 view .LVU290
 994              	.LBB227:
 528:Drivers/CMSIS/Include/cmsis_gcc.h **** 
 995              		.loc 2 528 3 view .LVU291
 531:Drivers/CMSIS/Include/cmsis_gcc.h **** #else
 996              		.loc 2 531 4 view .LVU292
 997              		.syntax unified
 998              	@ 531 "Drivers/CMSIS/Include/cmsis_gcc.h" 1
 999 024c 97FAA7F3 		rbit r3, r7
 1000              	@ 0 "" 2
 1001              	.LVL79:
 1002              		.loc 2 544 3 view .LVU293
 1003              		.loc 2 544 3 is_stmt 0 view .LVU294
 1004              		.thumb
 1005              		.syntax unified
 1006              	.LBE227:
 1007              	.LBE226:
 482:Drivers/STM32F3xx_HAL_Driver/Src/stm32f3xx_hal_rcc.c ****       {
 1008              		.loc 1 482 13 view .LVU295
 1009 0250 B3FA83F3 		clz	r3, r3
 1010 0254 03F01F03 		and	r3, r3, #31
 1011 0258 04FA03F3 		lsl	r3, r4, r3
 482:Drivers/STM32F3xx_HAL_Driver/Src/stm32f3xx_hal_rcc.c ****       {
 1012              		.loc 1 482 12 view .LVU296
 1013 025c 1342     		tst	r3, r2
 1014 025e 7FF4E2AE 		bne	.L49
 484:Drivers/STM32F3xx_HAL_Driver/Src/stm32f3xx_hal_rcc.c ****         {
 1015              		.loc 1 484 9 is_stmt 1 view .LVU297
 484:Drivers/STM32F3xx_HAL_Driver/Src/stm32f3xx_hal_rcc.c ****         {
 1016              		.loc 1 484 13 is_stmt 0 view .LVU298
 1017 0262 FFF7FEFF 		bl	HAL_GetTick
 1018              	.LVL80:
 484:Drivers/STM32F3xx_HAL_Driver/Src/stm32f3xx_hal_rcc.c ****         {
 1019              		.loc 1 484 27 view .LVU299
 1020 0266 A0EB0800 		sub	r0, r0, r8
 484:Drivers/STM32F3xx_HAL_Driver/Src/stm32f3xx_hal_rcc.c ****         {
 1021              		.loc 1 484 11 view .LVU300
 1022 026a 0228     		cmp	r0, #2
 1023 026c E7D9     		bls	.L47
 1024 026e 2AE7     		b	.L32
 1025              	.LVL81:
 1026              	.L46:
 493:Drivers/STM32F3xx_HAL_Driver/Src/stm32f3xx_hal_rcc.c ****       
 1027              		.loc 1 493 7 is_stmt 1 view .LVU301
 1028              	.LBB228:
 1029              	.LBI228:
 526:Drivers/CMSIS/Include/cmsis_gcc.h **** {
 1030              		.loc 2 526 57 view .LVU302
 1031              	.LBB229:
 528:Drivers/CMSIS/Include/cmsis_gcc.h **** 
 1032              		.loc 2 528 3 view .LVU303
ARM GAS  /var/folders/8c/gyvcglfx7f97kbqb2h83mm_r0000gn/T//ccZyiauy.s 			page 44


 531:Drivers/CMSIS/Include/cmsis_gcc.h **** #else
 1033              		.loc 2 531 4 view .LVU304
 1034              		.syntax unified
 1035              	@ 531 "Drivers/CMSIS/Include/cmsis_gcc.h" 1
 1036 0270 94FAA4F3 		rbit r3, r4
 1037              	@ 0 "" 2
 1038              	.LVL82:
 1039              		.loc 2 544 3 view .LVU305
 1040              		.loc 2 544 3 is_stmt 0 view .LVU306
 1041              		.thumb
 1042              		.syntax unified
 1043              	.LBE229:
 1044              	.LBE228:
 493:Drivers/STM32F3xx_HAL_Driver/Src/stm32f3xx_hal_rcc.c ****       
 1045              		.loc 1 493 7 view .LVU307
 1046 0274 B3FA83F3 		clz	r3, r3
 1047 0278 0B44     		add	r3, r3, r1
 1048 027a 9B00     		lsls	r3, r3, #2
 1049              	.LBB230:
 1050              	.LBB231:
 531:Drivers/CMSIS/Include/cmsis_gcc.h **** #else
 1051              		.loc 2 531 4 view .LVU308
 1052 027c 0227     		movs	r7, #2
 1053              	.LBE231:
 1054              	.LBE230:
 493:Drivers/STM32F3xx_HAL_Driver/Src/stm32f3xx_hal_rcc.c ****       
 1055              		.loc 1 493 7 view .LVU309
 1056 027e 1A60     		str	r2, [r3]
 496:Drivers/STM32F3xx_HAL_Driver/Src/stm32f3xx_hal_rcc.c ****       
 1057              		.loc 1 496 7 is_stmt 1 view .LVU310
 496:Drivers/STM32F3xx_HAL_Driver/Src/stm32f3xx_hal_rcc.c ****       
 1058              		.loc 1 496 19 is_stmt 0 view .LVU311
 1059 0280 FFF7FEFF 		bl	HAL_GetTick
 1060              	.LVL83:
 1061 0284 8046     		mov	r8, r0
 1062              	.LVL84:
 499:Drivers/STM32F3xx_HAL_Driver/Src/stm32f3xx_hal_rcc.c ****       {
 1063              		.loc 1 499 7 is_stmt 1 view .LVU312
 1064              	.L50:
 1065              	.LBB233:
 1066              	.LBI230:
 526:Drivers/CMSIS/Include/cmsis_gcc.h **** {
 1067              		.loc 2 526 57 view .LVU313
 1068              	.LBB232:
 528:Drivers/CMSIS/Include/cmsis_gcc.h **** 
 1069              		.loc 2 528 3 view .LVU314
 531:Drivers/CMSIS/Include/cmsis_gcc.h **** #else
 1070              		.loc 2 531 4 view .LVU315
 1071              		.syntax unified
 1072              	@ 531 "Drivers/CMSIS/Include/cmsis_gcc.h" 1
 1073 0286 97FAA7F3 		rbit r3, r7
 1074              	@ 0 "" 2
 1075              	.LVL85:
 1076              		.loc 2 544 3 view .LVU316
 1077              		.loc 2 544 3 is_stmt 0 view .LVU317
 1078              		.thumb
 1079              		.syntax unified
ARM GAS  /var/folders/8c/gyvcglfx7f97kbqb2h83mm_r0000gn/T//ccZyiauy.s 			page 45


 1080              	.LBE232:
 1081              	.LBE233:
 1082              	.LBB234:
 1083              	.LBI234:
 526:Drivers/CMSIS/Include/cmsis_gcc.h **** {
 1084              		.loc 2 526 57 is_stmt 1 view .LVU318
 1085              	.LBB235:
 528:Drivers/CMSIS/Include/cmsis_gcc.h **** 
 1086              		.loc 2 528 3 view .LVU319
 531:Drivers/CMSIS/Include/cmsis_gcc.h **** #else
 1087              		.loc 2 531 4 view .LVU320
 1088              		.syntax unified
 1089              	@ 531 "Drivers/CMSIS/Include/cmsis_gcc.h" 1
 1090 028a 97FAA7F3 		rbit r3, r7
 1091              	@ 0 "" 2
 1092              	.LVL86:
 1093              		.loc 2 544 3 view .LVU321
 1094              		.loc 2 544 3 is_stmt 0 view .LVU322
 1095              		.thumb
 1096              		.syntax unified
 1097              	.LBE235:
 1098              	.LBE234:
 1099              	.LBB236:
 1100              	.LBI236:
 526:Drivers/CMSIS/Include/cmsis_gcc.h **** {
 1101              		.loc 2 526 57 is_stmt 1 view .LVU323
 1102              	.LBB237:
 528:Drivers/CMSIS/Include/cmsis_gcc.h **** 
 1103              		.loc 2 528 3 view .LVU324
 531:Drivers/CMSIS/Include/cmsis_gcc.h **** #else
 1104              		.loc 2 531 4 view .LVU325
 1105              		.syntax unified
 1106              	@ 531 "Drivers/CMSIS/Include/cmsis_gcc.h" 1
 1107 028e 97FAA7F3 		rbit r3, r7
 1108              	@ 0 "" 2
 1109              	.LVL87:
 1110              		.loc 2 544 3 view .LVU326
 1111              		.loc 2 544 3 is_stmt 0 view .LVU327
 1112              		.thumb
 1113              		.syntax unified
 1114              	.LBE237:
 1115              	.LBE236:
 499:Drivers/STM32F3xx_HAL_Driver/Src/stm32f3xx_hal_rcc.c ****       {
 1116              		.loc 1 499 13 view .LVU328
 1117 0292 726A     		ldr	r2, [r6, #36]
 1118              	.LVL88:
 1119              	.LBB238:
 1120              	.LBI238:
 526:Drivers/CMSIS/Include/cmsis_gcc.h **** {
 1121              		.loc 2 526 57 is_stmt 1 view .LVU329
 1122              	.LBB239:
 528:Drivers/CMSIS/Include/cmsis_gcc.h **** 
 1123              		.loc 2 528 3 view .LVU330
 531:Drivers/CMSIS/Include/cmsis_gcc.h **** #else
 1124              		.loc 2 531 4 view .LVU331
 1125              		.syntax unified
 1126              	@ 531 "Drivers/CMSIS/Include/cmsis_gcc.h" 1
ARM GAS  /var/folders/8c/gyvcglfx7f97kbqb2h83mm_r0000gn/T//ccZyiauy.s 			page 46


 1127 0294 97FAA7F3 		rbit r3, r7
 1128              	@ 0 "" 2
 1129              	.LVL89:
 1130              		.loc 2 544 3 view .LVU332
 1131              		.loc 2 544 3 is_stmt 0 view .LVU333
 1132              		.thumb
 1133              		.syntax unified
 1134              	.LBE239:
 1135              	.LBE238:
 499:Drivers/STM32F3xx_HAL_Driver/Src/stm32f3xx_hal_rcc.c ****       {
 1136              		.loc 1 499 13 view .LVU334
 1137 0298 B3FA83F3 		clz	r3, r3
 1138 029c 03F01F03 		and	r3, r3, #31
 1139 02a0 04FA03F3 		lsl	r3, r4, r3
 499:Drivers/STM32F3xx_HAL_Driver/Src/stm32f3xx_hal_rcc.c ****       {
 1140              		.loc 1 499 12 view .LVU335
 1141 02a4 1342     		tst	r3, r2
 1142 02a6 3FF4BEAE 		beq	.L49
 501:Drivers/STM32F3xx_HAL_Driver/Src/stm32f3xx_hal_rcc.c ****         {
 1143              		.loc 1 501 9 is_stmt 1 view .LVU336
 501:Drivers/STM32F3xx_HAL_Driver/Src/stm32f3xx_hal_rcc.c ****         {
 1144              		.loc 1 501 13 is_stmt 0 view .LVU337
 1145 02aa FFF7FEFF 		bl	HAL_GetTick
 1146              	.LVL90:
 501:Drivers/STM32F3xx_HAL_Driver/Src/stm32f3xx_hal_rcc.c ****         {
 1147              		.loc 1 501 27 view .LVU338
 1148 02ae A0EB0800 		sub	r0, r0, r8
 501:Drivers/STM32F3xx_HAL_Driver/Src/stm32f3xx_hal_rcc.c ****         {
 1149              		.loc 1 501 11 view .LVU339
 1150 02b2 0228     		cmp	r0, #2
 1151 02b4 E7D9     		bls	.L50
 1152 02b6 06E7     		b	.L32
 1153              	.LVL91:
 1154              	.L44:
 1155              	.LBB240:
 511:Drivers/STM32F3xx_HAL_Driver/Src/stm32f3xx_hal_rcc.c ****     
 1156              		.loc 1 511 5 is_stmt 1 view .LVU340
 514:Drivers/STM32F3xx_HAL_Driver/Src/stm32f3xx_hal_rcc.c **** 
 1157              		.loc 1 514 5 view .LVU341
 518:Drivers/STM32F3xx_HAL_Driver/Src/stm32f3xx_hal_rcc.c ****     {
 1158              		.loc 1 518 5 view .LVU342
 518:Drivers/STM32F3xx_HAL_Driver/Src/stm32f3xx_hal_rcc.c ****     {
 1159              		.loc 1 518 8 is_stmt 0 view .LVU343
 1160 02b8 1D4C     		ldr	r4, .L109
 1161 02ba E369     		ldr	r3, [r4, #28]
 518:Drivers/STM32F3xx_HAL_Driver/Src/stm32f3xx_hal_rcc.c ****     {
 1162              		.loc 1 518 7 view .LVU344
 1163 02bc D900     		lsls	r1, r3, #3
 1164 02be 34D4     		bmi	.L82
 520:Drivers/STM32F3xx_HAL_Driver/Src/stm32f3xx_hal_rcc.c ****       pwrclkchanged = SET;
 1165              		.loc 1 520 7 is_stmt 1 view .LVU345
 1166              	.LBB241:
 520:Drivers/STM32F3xx_HAL_Driver/Src/stm32f3xx_hal_rcc.c ****       pwrclkchanged = SET;
 1167              		.loc 1 520 7 view .LVU346
 520:Drivers/STM32F3xx_HAL_Driver/Src/stm32f3xx_hal_rcc.c ****       pwrclkchanged = SET;
 1168              		.loc 1 520 7 view .LVU347
 1169 02c0 E369     		ldr	r3, [r4, #28]
ARM GAS  /var/folders/8c/gyvcglfx7f97kbqb2h83mm_r0000gn/T//ccZyiauy.s 			page 47


 1170 02c2 43F08053 		orr	r3, r3, #268435456
 1171 02c6 E361     		str	r3, [r4, #28]
 520:Drivers/STM32F3xx_HAL_Driver/Src/stm32f3xx_hal_rcc.c ****       pwrclkchanged = SET;
 1172              		.loc 1 520 7 view .LVU348
 1173 02c8 E369     		ldr	r3, [r4, #28]
 1174 02ca 03F08053 		and	r3, r3, #268435456
 1175 02ce 0193     		str	r3, [sp, #4]
 520:Drivers/STM32F3xx_HAL_Driver/Src/stm32f3xx_hal_rcc.c ****       pwrclkchanged = SET;
 1176              		.loc 1 520 7 view .LVU349
 1177 02d0 019B     		ldr	r3, [sp, #4]
 1178              	.LBE241:
 521:Drivers/STM32F3xx_HAL_Driver/Src/stm32f3xx_hal_rcc.c ****     }
 1179              		.loc 1 521 7 view .LVU350
 1180              	.LVL92:
 521:Drivers/STM32F3xx_HAL_Driver/Src/stm32f3xx_hal_rcc.c ****     }
 1181              		.loc 1 521 21 is_stmt 0 view .LVU351
 1182 02d2 0126     		movs	r6, #1
 1183              	.LVL93:
 1184              	.L53:
 524:Drivers/STM32F3xx_HAL_Driver/Src/stm32f3xx_hal_rcc.c ****     {
 1185              		.loc 1 524 5 is_stmt 1 view .LVU352
 524:Drivers/STM32F3xx_HAL_Driver/Src/stm32f3xx_hal_rcc.c ****     {
 1186              		.loc 1 524 8 is_stmt 0 view .LVU353
 1187 02d4 184F     		ldr	r7, .L109+8
 1188 02d6 3B68     		ldr	r3, [r7]
 524:Drivers/STM32F3xx_HAL_Driver/Src/stm32f3xx_hal_rcc.c ****     {
 1189              		.loc 1 524 7 view .LVU354
 1190 02d8 DA05     		lsls	r2, r3, #23
 1191 02da 2FD5     		bpl	.L54
 1192              	.L59:
 542:Drivers/STM32F3xx_HAL_Driver/Src/stm32f3xx_hal_rcc.c ****     /* Check the LSE State */
 1193              		.loc 1 542 5 is_stmt 1 view .LVU355
 542:Drivers/STM32F3xx_HAL_Driver/Src/stm32f3xx_hal_rcc.c ****     /* Check the LSE State */
 1194              		.loc 1 542 5 view .LVU356
 1195 02dc AB68     		ldr	r3, [r5, #8]
 1196 02de 012B     		cmp	r3, #1
 1197 02e0 3DD1     		bne	.L103
 1198              	.L108:
 542:Drivers/STM32F3xx_HAL_Driver/Src/stm32f3xx_hal_rcc.c ****     /* Check the LSE State */
 1199              		.loc 1 542 5 discriminator 5 view .LVU357
 1200 02e2 236A     		ldr	r3, [r4, #32]
 1201 02e4 43F00103 		orr	r3, r3, #1
 1202              	.L106:
 542:Drivers/STM32F3xx_HAL_Driver/Src/stm32f3xx_hal_rcc.c ****     /* Check the LSE State */
 1203              		.loc 1 542 5 is_stmt 0 discriminator 6 view .LVU358
 1204 02e8 2362     		str	r3, [r4, #32]
 544:Drivers/STM32F3xx_HAL_Driver/Src/stm32f3xx_hal_rcc.c ****     {
 1205              		.loc 1 544 5 is_stmt 1 discriminator 6 view .LVU359
 547:Drivers/STM32F3xx_HAL_Driver/Src/stm32f3xx_hal_rcc.c ****       
 1206              		.loc 1 547 7 discriminator 6 view .LVU360
 547:Drivers/STM32F3xx_HAL_Driver/Src/stm32f3xx_hal_rcc.c ****       
 1207              		.loc 1 547 19 is_stmt 0 discriminator 6 view .LVU361
 1208 02ea FFF7FEFF 		bl	HAL_GetTick
 1209              	.LVL94:
 1210              	.LBB242:
 1211              	.LBB243:
 531:Drivers/CMSIS/Include/cmsis_gcc.h **** #else
ARM GAS  /var/folders/8c/gyvcglfx7f97kbqb2h83mm_r0000gn/T//ccZyiauy.s 			page 48


 1212              		.loc 2 531 4 discriminator 6 view .LVU362
 1213 02ee 0227     		movs	r7, #2
 1214              	.LBE243:
 1215              	.LBE242:
 547:Drivers/STM32F3xx_HAL_Driver/Src/stm32f3xx_hal_rcc.c ****       
 1216              		.loc 1 547 19 discriminator 6 view .LVU363
 1217 02f0 8246     		mov	r10, r0
 1218              	.LVL95:
 550:Drivers/STM32F3xx_HAL_Driver/Src/stm32f3xx_hal_rcc.c ****       {
 1219              		.loc 1 550 7 is_stmt 1 discriminator 6 view .LVU364
 1220 02f2 B946     		mov	r9, r7
 550:Drivers/STM32F3xx_HAL_Driver/Src/stm32f3xx_hal_rcc.c ****       {
 1221              		.loc 1 550 13 is_stmt 0 discriminator 6 view .LVU365
 1222 02f4 4FF00108 		mov	r8, #1
 1223              	.LVL96:
 1224              	.L81:
 1225              	.LBB245:
 1226              	.LBI242:
 526:Drivers/CMSIS/Include/cmsis_gcc.h **** {
 1227              		.loc 2 526 57 is_stmt 1 view .LVU366
 1228              	.LBB244:
 528:Drivers/CMSIS/Include/cmsis_gcc.h **** 
 1229              		.loc 2 528 3 view .LVU367
 531:Drivers/CMSIS/Include/cmsis_gcc.h **** #else
 1230              		.loc 2 531 4 view .LVU368
 1231              		.syntax unified
 1232              	@ 531 "Drivers/CMSIS/Include/cmsis_gcc.h" 1
 1233 02f8 97FAA7F3 		rbit r3, r7
 1234              	@ 0 "" 2
 1235              	.LVL97:
 1236              		.loc 2 544 3 view .LVU369
 1237              		.loc 2 544 3 is_stmt 0 view .LVU370
 1238              		.thumb
 1239              		.syntax unified
 1240              	.LBE244:
 1241              	.LBE245:
 1242              	.LBB246:
 1243              	.LBI246:
 526:Drivers/CMSIS/Include/cmsis_gcc.h **** {
 1244              		.loc 2 526 57 is_stmt 1 view .LVU371
 1245              	.LBB247:
 528:Drivers/CMSIS/Include/cmsis_gcc.h **** 
 1246              		.loc 2 528 3 view .LVU372
 531:Drivers/CMSIS/Include/cmsis_gcc.h **** #else
 1247              		.loc 2 531 4 view .LVU373
 1248              		.syntax unified
 1249              	@ 531 "Drivers/CMSIS/Include/cmsis_gcc.h" 1
 1250 02fc 97FAA7F3 		rbit r3, r7
 1251              	@ 0 "" 2
 1252              	.LVL98:
 1253              		.loc 2 544 3 view .LVU374
 1254              		.loc 2 544 3 is_stmt 0 view .LVU375
 1255              		.thumb
 1256              		.syntax unified
 1257              	.LBE247:
 1258              	.LBE246:
 550:Drivers/STM32F3xx_HAL_Driver/Src/stm32f3xx_hal_rcc.c ****       {
ARM GAS  /var/folders/8c/gyvcglfx7f97kbqb2h83mm_r0000gn/T//ccZyiauy.s 			page 49


 1259              		.loc 1 550 13 view .LVU376
 1260 0300 002B     		cmp	r3, #0
 1261 0302 6CD0     		beq	.L64
 550:Drivers/STM32F3xx_HAL_Driver/Src/stm32f3xx_hal_rcc.c ****       {
 1262              		.loc 1 550 13 discriminator 4 view .LVU377
 1263 0304 226A     		ldr	r2, [r4, #32]
 1264              	.L65:
 1265              	.LVL99:
 1266              	.LBB248:
 1267              	.LBI248:
 526:Drivers/CMSIS/Include/cmsis_gcc.h **** {
 1268              		.loc 2 526 57 is_stmt 1 discriminator 11 view .LVU378
 1269              	.LBB249:
 528:Drivers/CMSIS/Include/cmsis_gcc.h **** 
 1270              		.loc 2 528 3 discriminator 11 view .LVU379
 531:Drivers/CMSIS/Include/cmsis_gcc.h **** #else
 1271              		.loc 2 531 4 discriminator 11 view .LVU380
 1272              		.syntax unified
 1273              	@ 531 "Drivers/CMSIS/Include/cmsis_gcc.h" 1
 1274 0306 99FAA9F3 		rbit r3, r9
 1275              	@ 0 "" 2
 1276              	.LVL100:
 1277              		.loc 2 544 3 discriminator 11 view .LVU381
 1278              		.loc 2 544 3 is_stmt 0 discriminator 11 view .LVU382
 1279              		.thumb
 1280              		.syntax unified
 1281              	.LBE249:
 1282              	.LBE248:
 550:Drivers/STM32F3xx_HAL_Driver/Src/stm32f3xx_hal_rcc.c ****       {
 1283              		.loc 1 550 13 discriminator 11 view .LVU383
 1284 030a B3FA83F3 		clz	r3, r3
 1285 030e 03F01F03 		and	r3, r3, #31
 1286 0312 08FA03F3 		lsl	r3, r8, r3
 550:Drivers/STM32F3xx_HAL_Driver/Src/stm32f3xx_hal_rcc.c ****       {
 1287              		.loc 1 550 12 discriminator 11 view .LVU384
 1288 0316 1342     		tst	r3, r2
 1289 0318 58D0     		beq	.L66
 1290              	.L71:
 574:Drivers/STM32F3xx_HAL_Driver/Src/stm32f3xx_hal_rcc.c ****     {
 1291              		.loc 1 574 5 is_stmt 1 view .LVU385
 574:Drivers/STM32F3xx_HAL_Driver/Src/stm32f3xx_hal_rcc.c ****     {
 1292              		.loc 1 574 7 is_stmt 0 view .LVU386
 1293 031a 002E     		cmp	r6, #0
 1294 031c 3FF487AE 		beq	.L52
 576:Drivers/STM32F3xx_HAL_Driver/Src/stm32f3xx_hal_rcc.c ****     }
 1295              		.loc 1 576 7 is_stmt 1 view .LVU387
 1296 0320 E369     		ldr	r3, [r4, #28]
 1297 0322 23F08053 		bic	r3, r3, #268435456
 1298 0326 E361     		str	r3, [r4, #28]
 1299 0328 81E6     		b	.L52
 1300              	.LVL101:
 1301              	.L82:
 511:Drivers/STM32F3xx_HAL_Driver/Src/stm32f3xx_hal_rcc.c ****     
 1302              		.loc 1 511 22 is_stmt 0 view .LVU388
 1303 032a 0026     		movs	r6, #0
 1304 032c D2E7     		b	.L53
 1305              	.L110:
ARM GAS  /var/folders/8c/gyvcglfx7f97kbqb2h83mm_r0000gn/T//ccZyiauy.s 			page 50


 1306 032e 00BF     		.align	2
 1307              	.L109:
 1308 0330 00100240 		.word	1073876992
 1309 0334 20819010 		.word	277905696
 1310 0338 00700040 		.word	1073770496
 1311              	.LVL102:
 1312              	.L54:
 527:Drivers/STM32F3xx_HAL_Driver/Src/stm32f3xx_hal_rcc.c ****       
 1313              		.loc 1 527 7 is_stmt 1 view .LVU389
 1314 033c 3B68     		ldr	r3, [r7]
 1315 033e 43F48073 		orr	r3, r3, #256
 1316 0342 3B60     		str	r3, [r7]
 530:Drivers/STM32F3xx_HAL_Driver/Src/stm32f3xx_hal_rcc.c **** 
 1317              		.loc 1 530 7 view .LVU390
 530:Drivers/STM32F3xx_HAL_Driver/Src/stm32f3xx_hal_rcc.c **** 
 1318              		.loc 1 530 19 is_stmt 0 view .LVU391
 1319 0344 FFF7FEFF 		bl	HAL_GetTick
 1320              	.LVL103:
 1321 0348 8046     		mov	r8, r0
 1322              	.LVL104:
 532:Drivers/STM32F3xx_HAL_Driver/Src/stm32f3xx_hal_rcc.c ****       {
 1323              		.loc 1 532 7 is_stmt 1 view .LVU392
 1324              	.L57:
 532:Drivers/STM32F3xx_HAL_Driver/Src/stm32f3xx_hal_rcc.c ****       {
 1325              		.loc 1 532 13 is_stmt 0 view .LVU393
 1326 034a 3B68     		ldr	r3, [r7]
 532:Drivers/STM32F3xx_HAL_Driver/Src/stm32f3xx_hal_rcc.c ****       {
 1327              		.loc 1 532 12 view .LVU394
 1328 034c DB05     		lsls	r3, r3, #23
 1329 034e C5D4     		bmi	.L59
 534:Drivers/STM32F3xx_HAL_Driver/Src/stm32f3xx_hal_rcc.c ****         {
 1330              		.loc 1 534 9 is_stmt 1 view .LVU395
 534:Drivers/STM32F3xx_HAL_Driver/Src/stm32f3xx_hal_rcc.c ****         {
 1331              		.loc 1 534 13 is_stmt 0 view .LVU396
 1332 0350 FFF7FEFF 		bl	HAL_GetTick
 1333              	.LVL105:
 534:Drivers/STM32F3xx_HAL_Driver/Src/stm32f3xx_hal_rcc.c ****         {
 1334              		.loc 1 534 27 view .LVU397
 1335 0354 A0EB0800 		sub	r0, r0, r8
 534:Drivers/STM32F3xx_HAL_Driver/Src/stm32f3xx_hal_rcc.c ****         {
 1336              		.loc 1 534 11 view .LVU398
 1337 0358 6428     		cmp	r0, #100
 1338 035a F6D9     		bls	.L57
 1339 035c B3E6     		b	.L32
 1340              	.LVL106:
 1341              	.L103:
 542:Drivers/STM32F3xx_HAL_Driver/Src/stm32f3xx_hal_rcc.c ****     /* Check the LSE State */
 1342              		.loc 1 542 5 is_stmt 1 discriminator 2 view .LVU399
 1343 035e 3BBB     		cbnz	r3, .L61
 542:Drivers/STM32F3xx_HAL_Driver/Src/stm32f3xx_hal_rcc.c ****     /* Check the LSE State */
 1344              		.loc 1 542 5 discriminator 3 view .LVU400
 1345 0360 236A     		ldr	r3, [r4, #32]
 1346 0362 23F00103 		bic	r3, r3, #1
 1347 0366 2362     		str	r3, [r4, #32]
 542:Drivers/STM32F3xx_HAL_Driver/Src/stm32f3xx_hal_rcc.c ****     /* Check the LSE State */
 1348              		.loc 1 542 5 discriminator 3 view .LVU401
 1349 0368 236A     		ldr	r3, [r4, #32]
ARM GAS  /var/folders/8c/gyvcglfx7f97kbqb2h83mm_r0000gn/T//ccZyiauy.s 			page 51


 1350 036a 23F00403 		bic	r3, r3, #4
 1351 036e 2362     		str	r3, [r4, #32]
 544:Drivers/STM32F3xx_HAL_Driver/Src/stm32f3xx_hal_rcc.c ****     {
 1352              		.loc 1 544 5 discriminator 3 view .LVU402
 561:Drivers/STM32F3xx_HAL_Driver/Src/stm32f3xx_hal_rcc.c ****       
 1353              		.loc 1 561 7 discriminator 3 view .LVU403
 561:Drivers/STM32F3xx_HAL_Driver/Src/stm32f3xx_hal_rcc.c ****       
 1354              		.loc 1 561 19 is_stmt 0 discriminator 3 view .LVU404
 1355 0370 FFF7FEFF 		bl	HAL_GetTick
 1356              	.LVL107:
 1357              	.LBB250:
 1358              	.LBB251:
 531:Drivers/CMSIS/Include/cmsis_gcc.h **** #else
 1359              		.loc 2 531 4 discriminator 3 view .LVU405
 1360 0374 0227     		movs	r7, #2
 1361              	.LBE251:
 1362              	.LBE250:
 561:Drivers/STM32F3xx_HAL_Driver/Src/stm32f3xx_hal_rcc.c ****       
 1363              		.loc 1 561 19 discriminator 3 view .LVU406
 1364 0376 8246     		mov	r10, r0
 1365              	.LVL108:
 564:Drivers/STM32F3xx_HAL_Driver/Src/stm32f3xx_hal_rcc.c ****       {
 1366              		.loc 1 564 7 is_stmt 1 discriminator 3 view .LVU407
 1367 0378 B946     		mov	r9, r7
 564:Drivers/STM32F3xx_HAL_Driver/Src/stm32f3xx_hal_rcc.c ****       {
 1368              		.loc 1 564 13 is_stmt 0 discriminator 3 view .LVU408
 1369 037a 4FF00108 		mov	r8, #1
 1370              	.LVL109:
 1371              	.L62:
 1372              	.LBB253:
 1373              	.LBI250:
 526:Drivers/CMSIS/Include/cmsis_gcc.h **** {
 1374              		.loc 2 526 57 is_stmt 1 view .LVU409
 1375              	.LBB252:
 528:Drivers/CMSIS/Include/cmsis_gcc.h **** 
 1376              		.loc 2 528 3 view .LVU410
 531:Drivers/CMSIS/Include/cmsis_gcc.h **** #else
 1377              		.loc 2 531 4 view .LVU411
 1378              		.syntax unified
 1379              	@ 531 "Drivers/CMSIS/Include/cmsis_gcc.h" 1
 1380 037e 97FAA7F3 		rbit r3, r7
 1381              	@ 0 "" 2
 1382              	.LVL110:
 1383              		.loc 2 544 3 view .LVU412
 1384              		.loc 2 544 3 is_stmt 0 view .LVU413
 1385              		.thumb
 1386              		.syntax unified
 1387              	.LBE252:
 1388              	.LBE253:
 1389              	.LBB254:
 1390              	.LBI254:
 526:Drivers/CMSIS/Include/cmsis_gcc.h **** {
 1391              		.loc 2 526 57 is_stmt 1 view .LVU414
 1392              	.LBB255:
 528:Drivers/CMSIS/Include/cmsis_gcc.h **** 
 1393              		.loc 2 528 3 view .LVU415
 531:Drivers/CMSIS/Include/cmsis_gcc.h **** #else
ARM GAS  /var/folders/8c/gyvcglfx7f97kbqb2h83mm_r0000gn/T//ccZyiauy.s 			page 52


 1394              		.loc 2 531 4 view .LVU416
 1395              		.syntax unified
 1396              	@ 531 "Drivers/CMSIS/Include/cmsis_gcc.h" 1
 1397 0382 97FAA7F3 		rbit r3, r7
 1398              	@ 0 "" 2
 1399              	.LVL111:
 1400              		.loc 2 544 3 view .LVU417
 1401              		.loc 2 544 3 is_stmt 0 view .LVU418
 1402              		.thumb
 1403              		.syntax unified
 1404              	.LBE255:
 1405              	.LBE254:
 564:Drivers/STM32F3xx_HAL_Driver/Src/stm32f3xx_hal_rcc.c ****       {
 1406              		.loc 1 564 13 view .LVU419
 1407 0386 73B3     		cbz	r3, .L68
 564:Drivers/STM32F3xx_HAL_Driver/Src/stm32f3xx_hal_rcc.c ****       {
 1408              		.loc 1 564 13 discriminator 4 view .LVU420
 1409 0388 226A     		ldr	r2, [r4, #32]
 1410              	.L69:
 1411              	.LVL112:
 1412              	.LBB256:
 1413              	.LBI256:
 526:Drivers/CMSIS/Include/cmsis_gcc.h **** {
 1414              		.loc 2 526 57 is_stmt 1 discriminator 11 view .LVU421
 1415              	.LBB257:
 528:Drivers/CMSIS/Include/cmsis_gcc.h **** 
 1416              		.loc 2 528 3 discriminator 11 view .LVU422
 531:Drivers/CMSIS/Include/cmsis_gcc.h **** #else
 1417              		.loc 2 531 4 discriminator 11 view .LVU423
 1418              		.syntax unified
 1419              	@ 531 "Drivers/CMSIS/Include/cmsis_gcc.h" 1
 1420 038a 99FAA9F3 		rbit r3, r9
 1421              	@ 0 "" 2
 1422              	.LVL113:
 1423              		.loc 2 544 3 discriminator 11 view .LVU424
 1424              		.loc 2 544 3 is_stmt 0 discriminator 11 view .LVU425
 1425              		.thumb
 1426              		.syntax unified
 1427              	.LBE257:
 1428              	.LBE256:
 564:Drivers/STM32F3xx_HAL_Driver/Src/stm32f3xx_hal_rcc.c ****       {
 1429              		.loc 1 564 13 discriminator 11 view .LVU426
 1430 038e B3FA83F3 		clz	r3, r3
 1431 0392 03F01F03 		and	r3, r3, #31
 1432 0396 08FA03F3 		lsl	r3, r8, r3
 564:Drivers/STM32F3xx_HAL_Driver/Src/stm32f3xx_hal_rcc.c ****       {
 1433              		.loc 1 564 12 discriminator 11 view .LVU427
 1434 039a 1342     		tst	r3, r2
 1435 039c BDD0     		beq	.L71
 566:Drivers/STM32F3xx_HAL_Driver/Src/stm32f3xx_hal_rcc.c ****         {
 1436              		.loc 1 566 9 is_stmt 1 view .LVU428
 566:Drivers/STM32F3xx_HAL_Driver/Src/stm32f3xx_hal_rcc.c ****         {
 1437              		.loc 1 566 13 is_stmt 0 view .LVU429
 1438 039e FFF7FEFF 		bl	HAL_GetTick
 1439              	.LVL114:
 566:Drivers/STM32F3xx_HAL_Driver/Src/stm32f3xx_hal_rcc.c ****         {
 1440              		.loc 1 566 11 view .LVU430
ARM GAS  /var/folders/8c/gyvcglfx7f97kbqb2h83mm_r0000gn/T//ccZyiauy.s 			page 53


 1441 03a2 41F28833 		movw	r3, #5000
 566:Drivers/STM32F3xx_HAL_Driver/Src/stm32f3xx_hal_rcc.c ****         {
 1442              		.loc 1 566 27 view .LVU431
 1443 03a6 A0EB0A00 		sub	r0, r0, r10
 566:Drivers/STM32F3xx_HAL_Driver/Src/stm32f3xx_hal_rcc.c ****         {
 1444              		.loc 1 566 11 view .LVU432
 1445 03aa 9842     		cmp	r0, r3
 1446 03ac E7D9     		bls	.L62
 1447 03ae 8AE6     		b	.L32
 1448              	.LVL115:
 1449              	.L61:
 542:Drivers/STM32F3xx_HAL_Driver/Src/stm32f3xx_hal_rcc.c ****     /* Check the LSE State */
 1450              		.loc 1 542 5 is_stmt 1 discriminator 4 view .LVU433
 1451 03b0 052B     		cmp	r3, #5
 1452 03b2 236A     		ldr	r3, [r4, #32]
 1453 03b4 03D1     		bne	.L63
 542:Drivers/STM32F3xx_HAL_Driver/Src/stm32f3xx_hal_rcc.c ****     /* Check the LSE State */
 1454              		.loc 1 542 5 discriminator 5 view .LVU434
 1455 03b6 43F00403 		orr	r3, r3, #4
 1456 03ba 2362     		str	r3, [r4, #32]
 1457 03bc 91E7     		b	.L108
 1458              	.L63:
 542:Drivers/STM32F3xx_HAL_Driver/Src/stm32f3xx_hal_rcc.c ****     /* Check the LSE State */
 1459              		.loc 1 542 5 discriminator 6 view .LVU435
 1460 03be 23F00103 		bic	r3, r3, #1
 1461 03c2 2362     		str	r3, [r4, #32]
 542:Drivers/STM32F3xx_HAL_Driver/Src/stm32f3xx_hal_rcc.c ****     /* Check the LSE State */
 1462              		.loc 1 542 5 discriminator 6 view .LVU436
 1463 03c4 236A     		ldr	r3, [r4, #32]
 1464 03c6 23F00403 		bic	r3, r3, #4
 1465 03ca 8DE7     		b	.L106
 1466              	.LVL116:
 1467              	.L66:
 552:Drivers/STM32F3xx_HAL_Driver/Src/stm32f3xx_hal_rcc.c ****         {
 1468              		.loc 1 552 9 view .LVU437
 552:Drivers/STM32F3xx_HAL_Driver/Src/stm32f3xx_hal_rcc.c ****         {
 1469              		.loc 1 552 13 is_stmt 0 view .LVU438
 1470 03cc FFF7FEFF 		bl	HAL_GetTick
 1471              	.LVL117:
 552:Drivers/STM32F3xx_HAL_Driver/Src/stm32f3xx_hal_rcc.c ****         {
 1472              		.loc 1 552 11 view .LVU439
 1473 03d0 41F28833 		movw	r3, #5000
 552:Drivers/STM32F3xx_HAL_Driver/Src/stm32f3xx_hal_rcc.c ****         {
 1474              		.loc 1 552 27 view .LVU440
 1475 03d4 A0EB0A00 		sub	r0, r0, r10
 552:Drivers/STM32F3xx_HAL_Driver/Src/stm32f3xx_hal_rcc.c ****         {
 1476              		.loc 1 552 11 view .LVU441
 1477 03d8 9842     		cmp	r0, r3
 1478 03da 8DD9     		bls	.L81
 1479 03dc 73E6     		b	.L32
 1480              	.L64:
 1481              	.LVL118:
 1482              	.LBB258:
 1483              	.LBI258:
 526:Drivers/CMSIS/Include/cmsis_gcc.h **** {
 1484              		.loc 2 526 57 is_stmt 1 view .LVU442
 1485              	.LBB259:
ARM GAS  /var/folders/8c/gyvcglfx7f97kbqb2h83mm_r0000gn/T//ccZyiauy.s 			page 54


 528:Drivers/CMSIS/Include/cmsis_gcc.h **** 
 1486              		.loc 2 528 3 view .LVU443
 531:Drivers/CMSIS/Include/cmsis_gcc.h **** #else
 1487              		.loc 2 531 4 view .LVU444
 1488              		.syntax unified
 1489              	@ 531 "Drivers/CMSIS/Include/cmsis_gcc.h" 1
 1490 03de 97FAA7F3 		rbit r3, r7
 1491              	@ 0 "" 2
 1492              	.LVL119:
 1493              		.loc 2 544 3 view .LVU445
 1494              		.loc 2 544 3 is_stmt 0 view .LVU446
 1495              		.thumb
 1496              		.syntax unified
 1497              	.LBE259:
 1498              	.LBE258:
 550:Drivers/STM32F3xx_HAL_Driver/Src/stm32f3xx_hal_rcc.c ****       {
 1499              		.loc 1 550 13 view .LVU447
 1500 03e2 626A     		ldr	r2, [r4, #36]
 1501 03e4 8FE7     		b	.L65
 1502              	.L68:
 1503              	.LVL120:
 1504              	.LBB260:
 1505              	.LBI260:
 526:Drivers/CMSIS/Include/cmsis_gcc.h **** {
 1506              		.loc 2 526 57 is_stmt 1 view .LVU448
 1507              	.LBB261:
 528:Drivers/CMSIS/Include/cmsis_gcc.h **** 
 1508              		.loc 2 528 3 view .LVU449
 531:Drivers/CMSIS/Include/cmsis_gcc.h **** #else
 1509              		.loc 2 531 4 view .LVU450
 1510              		.syntax unified
 1511              	@ 531 "Drivers/CMSIS/Include/cmsis_gcc.h" 1
 1512 03e6 97FAA7F3 		rbit r3, r7
 1513              	@ 0 "" 2
 1514              	.LVL121:
 1515              		.loc 2 544 3 view .LVU451
 1516              		.loc 2 544 3 is_stmt 0 view .LVU452
 1517              		.thumb
 1518              		.syntax unified
 1519              	.LBE261:
 1520              	.LBE260:
 564:Drivers/STM32F3xx_HAL_Driver/Src/stm32f3xx_hal_rcc.c ****       {
 1521              		.loc 1 564 13 view .LVU453
 1522 03ea 626A     		ldr	r2, [r4, #36]
 1523 03ec CDE7     		b	.L69
 1524              	.LVL122:
 1525              	.L72:
 564:Drivers/STM32F3xx_HAL_Driver/Src/stm32f3xx_hal_rcc.c ****       {
 1526              		.loc 1 564 13 view .LVU454
 1527              	.LBE240:
 586:Drivers/STM32F3xx_HAL_Driver/Src/stm32f3xx_hal_rcc.c ****     { 
 1528              		.loc 1 586 5 is_stmt 1 view .LVU455
 586:Drivers/STM32F3xx_HAL_Driver/Src/stm32f3xx_hal_rcc.c ****     { 
 1529              		.loc 1 586 8 is_stmt 0 view .LVU456
 1530 03ee 444C     		ldr	r4, .L111
 1531 03f0 6368     		ldr	r3, [r4, #4]
 1532 03f2 03F00C03 		and	r3, r3, #12
ARM GAS  /var/folders/8c/gyvcglfx7f97kbqb2h83mm_r0000gn/T//ccZyiauy.s 			page 55


 586:Drivers/STM32F3xx_HAL_Driver/Src/stm32f3xx_hal_rcc.c ****     { 
 1533              		.loc 1 586 7 view .LVU457
 1534 03f6 082B     		cmp	r3, #8
 1535 03f8 3FF406AE 		beq	.L23
 588:Drivers/STM32F3xx_HAL_Driver/Src/stm32f3xx_hal_rcc.c ****       {
 1536              		.loc 1 588 7 is_stmt 1 view .LVU458
 588:Drivers/STM32F3xx_HAL_Driver/Src/stm32f3xx_hal_rcc.c ****       {
 1537              		.loc 1 588 9 is_stmt 0 view .LVU459
 1538 03fc 022A     		cmp	r2, #2
 1539 03fe 4FF08073 		mov	r3, #16777216
 1540 0402 58D1     		bne	.L73
 591:Drivers/STM32F3xx_HAL_Driver/Src/stm32f3xx_hal_rcc.c ****         assert_param(IS_RCC_PLL_MUL(RCC_OscInitStruct->PLL.PLLMUL));
 1541              		.loc 1 591 9 is_stmt 1 view .LVU460
 592:Drivers/STM32F3xx_HAL_Driver/Src/stm32f3xx_hal_rcc.c **** #if   defined(RCC_CFGR_PLLSRC_HSI_PREDIV)
 1542              		.loc 1 592 9 view .LVU461
 594:Drivers/STM32F3xx_HAL_Driver/Src/stm32f3xx_hal_rcc.c **** #endif
 1543              		.loc 1 594 9 view .LVU462
 598:Drivers/STM32F3xx_HAL_Driver/Src/stm32f3xx_hal_rcc.c ****         
 1544              		.loc 1 598 9 view .LVU463
 1545              	.LVL123:
 1546              	.LBB262:
 1547              	.LBI262:
 526:Drivers/CMSIS/Include/cmsis_gcc.h **** {
 1548              		.loc 2 526 57 view .LVU464
 1549              	.LBB263:
 528:Drivers/CMSIS/Include/cmsis_gcc.h **** 
 1550              		.loc 2 528 3 view .LVU465
 531:Drivers/CMSIS/Include/cmsis_gcc.h **** #else
 1551              		.loc 2 531 4 view .LVU466
 1552              		.syntax unified
 1553              	@ 531 "Drivers/CMSIS/Include/cmsis_gcc.h" 1
 1554 0404 93FAA3F3 		rbit r3, r3
 1555              	@ 0 "" 2
 1556              	.LVL124:
 1557              		.loc 2 544 3 view .LVU467
 1558              		.loc 2 544 3 is_stmt 0 view .LVU468
 1559              		.thumb
 1560              		.syntax unified
 1561              	.LBE263:
 1562              	.LBE262:
 598:Drivers/STM32F3xx_HAL_Driver/Src/stm32f3xx_hal_rcc.c ****         
 1563              		.loc 1 598 9 view .LVU469
 1564 0408 B3FA83F3 		clz	r3, r3
 1565 040c 03F18453 		add	r3, r3, #276824064
 1566 0410 03F58413 		add	r3, r3, #1081344
 1567 0414 9B00     		lsls	r3, r3, #2
 1568 0416 0022     		movs	r2, #0
 1569 0418 1A60     		str	r2, [r3]
 601:Drivers/STM32F3xx_HAL_Driver/Src/stm32f3xx_hal_rcc.c ****         
 1570              		.loc 1 601 9 is_stmt 1 view .LVU470
 601:Drivers/STM32F3xx_HAL_Driver/Src/stm32f3xx_hal_rcc.c ****         
 1571              		.loc 1 601 21 is_stmt 0 view .LVU471
 1572 041a FFF7FEFF 		bl	HAL_GetTick
 1573              	.LVL125:
 1574              	.LBB264:
 1575              	.LBB265:
 531:Drivers/CMSIS/Include/cmsis_gcc.h **** #else
ARM GAS  /var/folders/8c/gyvcglfx7f97kbqb2h83mm_r0000gn/T//ccZyiauy.s 			page 56


 1576              		.loc 2 531 4 view .LVU472
 1577 041e 4FF00077 		mov	r7, #33554432
 1578              	.LBE265:
 1579              	.LBE264:
 601:Drivers/STM32F3xx_HAL_Driver/Src/stm32f3xx_hal_rcc.c ****         
 1580              		.loc 1 601 21 view .LVU473
 1581 0422 8046     		mov	r8, r0
 1582              	.LVL126:
 604:Drivers/STM32F3xx_HAL_Driver/Src/stm32f3xx_hal_rcc.c ****         {
 1583              		.loc 1 604 9 is_stmt 1 view .LVU474
 604:Drivers/STM32F3xx_HAL_Driver/Src/stm32f3xx_hal_rcc.c ****         {
 1584              		.loc 1 604 15 is_stmt 0 view .LVU475
 1585 0424 0126     		movs	r6, #1
 1586              	.LVL127:
 1587              	.L74:
 1588              	.LBB267:
 1589              	.LBI264:
 526:Drivers/CMSIS/Include/cmsis_gcc.h **** {
 1590              		.loc 2 526 57 is_stmt 1 view .LVU476
 1591              	.LBB266:
 528:Drivers/CMSIS/Include/cmsis_gcc.h **** 
 1592              		.loc 2 528 3 view .LVU477
 531:Drivers/CMSIS/Include/cmsis_gcc.h **** #else
 1593              		.loc 2 531 4 view .LVU478
 1594              		.syntax unified
 1595              	@ 531 "Drivers/CMSIS/Include/cmsis_gcc.h" 1
 1596 0426 97FAA7F3 		rbit r3, r7
 1597              	@ 0 "" 2
 1598              	.LVL128:
 1599              		.loc 2 544 3 view .LVU479
 1600              		.loc 2 544 3 is_stmt 0 view .LVU480
 1601              		.thumb
 1602              		.syntax unified
 1603              	.LBE266:
 1604              	.LBE267:
 604:Drivers/STM32F3xx_HAL_Driver/Src/stm32f3xx_hal_rcc.c ****         {
 1605              		.loc 1 604 15 view .LVU481
 1606 042a 2268     		ldr	r2, [r4]
 1607              	.LVL129:
 1608              	.LBB268:
 1609              	.LBI268:
 526:Drivers/CMSIS/Include/cmsis_gcc.h **** {
 1610              		.loc 2 526 57 is_stmt 1 view .LVU482
 1611              	.LBB269:
 528:Drivers/CMSIS/Include/cmsis_gcc.h **** 
 1612              		.loc 2 528 3 view .LVU483
 531:Drivers/CMSIS/Include/cmsis_gcc.h **** #else
 1613              		.loc 2 531 4 view .LVU484
 1614              		.syntax unified
 1615              	@ 531 "Drivers/CMSIS/Include/cmsis_gcc.h" 1
 1616 042c 97FAA7F3 		rbit r3, r7
 1617              	@ 0 "" 2
 1618              	.LVL130:
 1619              		.loc 2 544 3 view .LVU485
 1620              		.loc 2 544 3 is_stmt 0 view .LVU486
 1621              		.thumb
 1622              		.syntax unified
ARM GAS  /var/folders/8c/gyvcglfx7f97kbqb2h83mm_r0000gn/T//ccZyiauy.s 			page 57


 1623              	.LBE269:
 1624              	.LBE268:
 604:Drivers/STM32F3xx_HAL_Driver/Src/stm32f3xx_hal_rcc.c ****         {
 1625              		.loc 1 604 15 view .LVU487
 1626 0430 B3FA83F3 		clz	r3, r3
 1627 0434 03F01F03 		and	r3, r3, #31
 1628 0438 06FA03F3 		lsl	r3, r6, r3
 604:Drivers/STM32F3xx_HAL_Driver/Src/stm32f3xx_hal_rcc.c ****         {
 1629              		.loc 1 604 14 view .LVU488
 1630 043c 1342     		tst	r3, r2
 1631 043e 33D1     		bne	.L75
 614:Drivers/STM32F3xx_HAL_Driver/Src/stm32f3xx_hal_rcc.c ****                              RCC_OscInitStruct->PLL.PREDIV,
 1632              		.loc 1 614 9 is_stmt 1 view .LVU489
 614:Drivers/STM32F3xx_HAL_Driver/Src/stm32f3xx_hal_rcc.c ****                              RCC_OscInitStruct->PLL.PREDIV,
 1633              		.loc 1 614 9 view .LVU490
 1634 0440 E36A     		ldr	r3, [r4, #44]
 1635 0442 6A6A     		ldr	r2, [r5, #36]
 1636 0444 23F00F03 		bic	r3, r3, #15
 1637 0448 1343     		orrs	r3, r3, r2
 1638 044a E362     		str	r3, [r4, #44]
 614:Drivers/STM32F3xx_HAL_Driver/Src/stm32f3xx_hal_rcc.c ****                              RCC_OscInitStruct->PLL.PREDIV,
 1639              		.loc 1 614 9 view .LVU491
 1640 044c D5E90713 		ldrd	r1, r3, [r5, #28]
 1641 0450 6268     		ldr	r2, [r4, #4]
 1642 0452 0B43     		orrs	r3, r3, r1
 1643 0454 22F47612 		bic	r2, r2, #4030464
 1644 0458 1343     		orrs	r3, r3, r2
 1645 045a 6360     		str	r3, [r4, #4]
 623:Drivers/STM32F3xx_HAL_Driver/Src/stm32f3xx_hal_rcc.c ****         
 1646              		.loc 1 623 9 view .LVU492
 1647              	.LVL131:
 1648              	.LBB270:
 1649              	.LBI270:
 526:Drivers/CMSIS/Include/cmsis_gcc.h **** {
 1650              		.loc 2 526 57 view .LVU493
 1651              	.LBB271:
 528:Drivers/CMSIS/Include/cmsis_gcc.h **** 
 1652              		.loc 2 528 3 view .LVU494
 531:Drivers/CMSIS/Include/cmsis_gcc.h **** #else
 1653              		.loc 2 531 4 view .LVU495
 1654 045c 4FF08073 		mov	r3, #16777216
 1655              		.syntax unified
 1656              	@ 531 "Drivers/CMSIS/Include/cmsis_gcc.h" 1
 1657 0460 93FAA3F3 		rbit r3, r3
 1658              	@ 0 "" 2
 1659              	.LVL132:
 1660              		.loc 2 544 3 view .LVU496
 1661              		.loc 2 544 3 is_stmt 0 view .LVU497
 1662              		.thumb
 1663              		.syntax unified
 1664              	.LBE271:
 1665              	.LBE270:
 623:Drivers/STM32F3xx_HAL_Driver/Src/stm32f3xx_hal_rcc.c ****         
 1666              		.loc 1 623 9 view .LVU498
 1667 0464 B3FA83F3 		clz	r3, r3
 1668 0468 03F18453 		add	r3, r3, #276824064
 1669 046c 03F58413 		add	r3, r3, #1081344
ARM GAS  /var/folders/8c/gyvcglfx7f97kbqb2h83mm_r0000gn/T//ccZyiauy.s 			page 58


 1670 0470 9B00     		lsls	r3, r3, #2
 1671              	.LBB272:
 1672              	.LBB273:
 531:Drivers/CMSIS/Include/cmsis_gcc.h **** #else
 1673              		.loc 2 531 4 view .LVU499
 1674 0472 4FF00075 		mov	r5, #33554432
 1675              	.LVL133:
 531:Drivers/CMSIS/Include/cmsis_gcc.h **** #else
 1676              		.loc 2 531 4 view .LVU500
 1677              	.LBE273:
 1678              	.LBE272:
 623:Drivers/STM32F3xx_HAL_Driver/Src/stm32f3xx_hal_rcc.c ****         
 1679              		.loc 1 623 9 view .LVU501
 1680 0476 1E60     		str	r6, [r3]
 626:Drivers/STM32F3xx_HAL_Driver/Src/stm32f3xx_hal_rcc.c ****         
 1681              		.loc 1 626 9 is_stmt 1 view .LVU502
 626:Drivers/STM32F3xx_HAL_Driver/Src/stm32f3xx_hal_rcc.c ****         
 1682              		.loc 1 626 21 is_stmt 0 view .LVU503
 1683 0478 FFF7FEFF 		bl	HAL_GetTick
 1684              	.LVL134:
 629:Drivers/STM32F3xx_HAL_Driver/Src/stm32f3xx_hal_rcc.c ****         {
 1685              		.loc 1 629 15 view .LVU504
 1686 047c 0126     		movs	r6, #1
 626:Drivers/STM32F3xx_HAL_Driver/Src/stm32f3xx_hal_rcc.c ****         
 1687              		.loc 1 626 21 view .LVU505
 1688 047e 0746     		mov	r7, r0
 1689              	.LVL135:
 629:Drivers/STM32F3xx_HAL_Driver/Src/stm32f3xx_hal_rcc.c ****         {
 1690              		.loc 1 629 9 is_stmt 1 view .LVU506
 1691              	.L76:
 1692              	.LBB275:
 1693              	.LBI272:
 526:Drivers/CMSIS/Include/cmsis_gcc.h **** {
 1694              		.loc 2 526 57 view .LVU507
 1695              	.LBB274:
 528:Drivers/CMSIS/Include/cmsis_gcc.h **** 
 1696              		.loc 2 528 3 view .LVU508
 531:Drivers/CMSIS/Include/cmsis_gcc.h **** #else
 1697              		.loc 2 531 4 view .LVU509
 1698              		.syntax unified
 1699              	@ 531 "Drivers/CMSIS/Include/cmsis_gcc.h" 1
 1700 0480 95FAA5F3 		rbit r3, r5
 1701              	@ 0 "" 2
 1702              	.LVL136:
 1703              		.loc 2 544 3 view .LVU510
 1704              		.loc 2 544 3 is_stmt 0 view .LVU511
 1705              		.thumb
 1706              		.syntax unified
 1707              	.LBE274:
 1708              	.LBE275:
 629:Drivers/STM32F3xx_HAL_Driver/Src/stm32f3xx_hal_rcc.c ****         {
 1709              		.loc 1 629 15 view .LVU512
 1710 0484 2268     		ldr	r2, [r4]
 1711              	.LVL137:
 1712              	.LBB276:
 1713              	.LBI276:
 526:Drivers/CMSIS/Include/cmsis_gcc.h **** {
ARM GAS  /var/folders/8c/gyvcglfx7f97kbqb2h83mm_r0000gn/T//ccZyiauy.s 			page 59


 1714              		.loc 2 526 57 is_stmt 1 view .LVU513
 1715              	.LBB277:
 528:Drivers/CMSIS/Include/cmsis_gcc.h **** 
 1716              		.loc 2 528 3 view .LVU514
 531:Drivers/CMSIS/Include/cmsis_gcc.h **** #else
 1717              		.loc 2 531 4 view .LVU515
 1718              		.syntax unified
 1719              	@ 531 "Drivers/CMSIS/Include/cmsis_gcc.h" 1
 1720 0486 95FAA5F3 		rbit r3, r5
 1721              	@ 0 "" 2
 1722              	.LVL138:
 1723              		.loc 2 544 3 view .LVU516
 1724              		.loc 2 544 3 is_stmt 0 view .LVU517
 1725              		.thumb
 1726              		.syntax unified
 1727              	.LBE277:
 1728              	.LBE276:
 629:Drivers/STM32F3xx_HAL_Driver/Src/stm32f3xx_hal_rcc.c ****         {
 1729              		.loc 1 629 15 view .LVU518
 1730 048a B3FA83F3 		clz	r3, r3
 1731 048e 03F01F03 		and	r3, r3, #31
 1732 0492 06FA03F3 		lsl	r3, r6, r3
 629:Drivers/STM32F3xx_HAL_Driver/Src/stm32f3xx_hal_rcc.c ****         {
 1733              		.loc 1 629 14 view .LVU519
 1734 0496 1342     		tst	r3, r2
 1735 0498 7FF4CDAD 		bne	.L78
 631:Drivers/STM32F3xx_HAL_Driver/Src/stm32f3xx_hal_rcc.c ****           {
 1736              		.loc 1 631 11 is_stmt 1 view .LVU520
 631:Drivers/STM32F3xx_HAL_Driver/Src/stm32f3xx_hal_rcc.c ****           {
 1737              		.loc 1 631 15 is_stmt 0 view .LVU521
 1738 049c FFF7FEFF 		bl	HAL_GetTick
 1739              	.LVL139:
 631:Drivers/STM32F3xx_HAL_Driver/Src/stm32f3xx_hal_rcc.c ****           {
 1740              		.loc 1 631 29 view .LVU522
 1741 04a0 C01B     		subs	r0, r0, r7
 631:Drivers/STM32F3xx_HAL_Driver/Src/stm32f3xx_hal_rcc.c ****           {
 1742              		.loc 1 631 13 view .LVU523
 1743 04a2 0228     		cmp	r0, #2
 1744 04a4 ECD9     		bls	.L76
 1745 04a6 0EE6     		b	.L32
 1746              	.LVL140:
 1747              	.L75:
 606:Drivers/STM32F3xx_HAL_Driver/Src/stm32f3xx_hal_rcc.c ****           {
 1748              		.loc 1 606 11 is_stmt 1 view .LVU524
 606:Drivers/STM32F3xx_HAL_Driver/Src/stm32f3xx_hal_rcc.c ****           {
 1749              		.loc 1 606 15 is_stmt 0 view .LVU525
 1750 04a8 FFF7FEFF 		bl	HAL_GetTick
 1751              	.LVL141:
 606:Drivers/STM32F3xx_HAL_Driver/Src/stm32f3xx_hal_rcc.c ****           {
 1752              		.loc 1 606 29 view .LVU526
 1753 04ac A0EB0800 		sub	r0, r0, r8
 606:Drivers/STM32F3xx_HAL_Driver/Src/stm32f3xx_hal_rcc.c ****           {
 1754              		.loc 1 606 13 view .LVU527
 1755 04b0 0228     		cmp	r0, #2
 1756 04b2 B8D9     		bls	.L74
 1757 04b4 07E6     		b	.L32
 1758              	.LVL142:
ARM GAS  /var/folders/8c/gyvcglfx7f97kbqb2h83mm_r0000gn/T//ccZyiauy.s 			page 60


 1759              	.L73:
 640:Drivers/STM32F3xx_HAL_Driver/Src/stm32f3xx_hal_rcc.c ****  
 1760              		.loc 1 640 9 is_stmt 1 view .LVU528
 1761              	.LBB278:
 1762              	.LBI278:
 526:Drivers/CMSIS/Include/cmsis_gcc.h **** {
 1763              		.loc 2 526 57 view .LVU529
 1764              	.LBB279:
 528:Drivers/CMSIS/Include/cmsis_gcc.h **** 
 1765              		.loc 2 528 3 view .LVU530
 531:Drivers/CMSIS/Include/cmsis_gcc.h **** #else
 1766              		.loc 2 531 4 view .LVU531
 1767              		.syntax unified
 1768              	@ 531 "Drivers/CMSIS/Include/cmsis_gcc.h" 1
 1769 04b6 93FAA3F3 		rbit r3, r3
 1770              	@ 0 "" 2
 1771              	.LVL143:
 1772              		.loc 2 544 3 view .LVU532
 1773              		.loc 2 544 3 is_stmt 0 view .LVU533
 1774              		.thumb
 1775              		.syntax unified
 1776              	.LBE279:
 1777              	.LBE278:
 640:Drivers/STM32F3xx_HAL_Driver/Src/stm32f3xx_hal_rcc.c ****  
 1778              		.loc 1 640 9 view .LVU534
 1779 04ba B3FA83F3 		clz	r3, r3
 1780 04be 03F18453 		add	r3, r3, #276824064
 1781 04c2 03F58413 		add	r3, r3, #1081344
 1782 04c6 9B00     		lsls	r3, r3, #2
 1783 04c8 0022     		movs	r2, #0
 1784 04ca 1A60     		str	r2, [r3]
 643:Drivers/STM32F3xx_HAL_Driver/Src/stm32f3xx_hal_rcc.c ****         
 1785              		.loc 1 643 9 is_stmt 1 view .LVU535
 643:Drivers/STM32F3xx_HAL_Driver/Src/stm32f3xx_hal_rcc.c ****         
 1786              		.loc 1 643 21 is_stmt 0 view .LVU536
 1787 04cc FFF7FEFF 		bl	HAL_GetTick
 1788              	.LVL144:
 1789              	.LBB280:
 1790              	.LBB281:
 531:Drivers/CMSIS/Include/cmsis_gcc.h **** #else
 1791              		.loc 2 531 4 view .LVU537
 1792 04d0 4FF00075 		mov	r5, #33554432
 1793              	.LVL145:
 531:Drivers/CMSIS/Include/cmsis_gcc.h **** #else
 1794              		.loc 2 531 4 view .LVU538
 1795              	.LBE281:
 1796              	.LBE280:
 643:Drivers/STM32F3xx_HAL_Driver/Src/stm32f3xx_hal_rcc.c ****         
 1797              		.loc 1 643 21 view .LVU539
 1798 04d4 0746     		mov	r7, r0
 1799              	.LVL146:
 646:Drivers/STM32F3xx_HAL_Driver/Src/stm32f3xx_hal_rcc.c ****         {
 1800              		.loc 1 646 9 is_stmt 1 view .LVU540
 646:Drivers/STM32F3xx_HAL_Driver/Src/stm32f3xx_hal_rcc.c ****         {
 1801              		.loc 1 646 15 is_stmt 0 view .LVU541
 1802 04d6 0126     		movs	r6, #1
 1803              	.LVL147:
ARM GAS  /var/folders/8c/gyvcglfx7f97kbqb2h83mm_r0000gn/T//ccZyiauy.s 			page 61


 1804              	.L79:
 1805              	.LBB283:
 1806              	.LBI280:
 526:Drivers/CMSIS/Include/cmsis_gcc.h **** {
 1807              		.loc 2 526 57 is_stmt 1 view .LVU542
 1808              	.LBB282:
 528:Drivers/CMSIS/Include/cmsis_gcc.h **** 
 1809              		.loc 2 528 3 view .LVU543
 531:Drivers/CMSIS/Include/cmsis_gcc.h **** #else
 1810              		.loc 2 531 4 view .LVU544
 1811              		.syntax unified
 1812              	@ 531 "Drivers/CMSIS/Include/cmsis_gcc.h" 1
 1813 04d8 95FAA5F3 		rbit r3, r5
 1814              	@ 0 "" 2
 1815              	.LVL148:
 1816              		.loc 2 544 3 view .LVU545
 1817              		.loc 2 544 3 is_stmt 0 view .LVU546
 1818              		.thumb
 1819              		.syntax unified
 1820              	.LBE282:
 1821              	.LBE283:
 646:Drivers/STM32F3xx_HAL_Driver/Src/stm32f3xx_hal_rcc.c ****         {
 1822              		.loc 1 646 15 view .LVU547
 1823 04dc 2268     		ldr	r2, [r4]
 1824              	.LVL149:
 1825              	.LBB284:
 1826              	.LBI284:
 526:Drivers/CMSIS/Include/cmsis_gcc.h **** {
 1827              		.loc 2 526 57 is_stmt 1 view .LVU548
 1828              	.LBB285:
 528:Drivers/CMSIS/Include/cmsis_gcc.h **** 
 1829              		.loc 2 528 3 view .LVU549
 531:Drivers/CMSIS/Include/cmsis_gcc.h **** #else
 1830              		.loc 2 531 4 view .LVU550
 1831              		.syntax unified
 1832              	@ 531 "Drivers/CMSIS/Include/cmsis_gcc.h" 1
 1833 04de 95FAA5F3 		rbit r3, r5
 1834              	@ 0 "" 2
 1835              	.LVL150:
 1836              		.loc 2 544 3 view .LVU551
 1837              		.loc 2 544 3 is_stmt 0 view .LVU552
 1838              		.thumb
 1839              		.syntax unified
 1840              	.LBE285:
 1841              	.LBE284:
 646:Drivers/STM32F3xx_HAL_Driver/Src/stm32f3xx_hal_rcc.c ****         {
 1842              		.loc 1 646 15 view .LVU553
 1843 04e2 B3FA83F3 		clz	r3, r3
 1844 04e6 03F01F03 		and	r3, r3, #31
 1845 04ea 06FA03F3 		lsl	r3, r6, r3
 646:Drivers/STM32F3xx_HAL_Driver/Src/stm32f3xx_hal_rcc.c ****         {
 1846              		.loc 1 646 14 view .LVU554
 1847 04ee 1342     		tst	r3, r2
 1848 04f0 3FF4A1AD 		beq	.L78
 648:Drivers/STM32F3xx_HAL_Driver/Src/stm32f3xx_hal_rcc.c ****           {
 1849              		.loc 1 648 11 is_stmt 1 view .LVU555
 648:Drivers/STM32F3xx_HAL_Driver/Src/stm32f3xx_hal_rcc.c ****           {
ARM GAS  /var/folders/8c/gyvcglfx7f97kbqb2h83mm_r0000gn/T//ccZyiauy.s 			page 62


 1850              		.loc 1 648 15 is_stmt 0 view .LVU556
 1851 04f4 FFF7FEFF 		bl	HAL_GetTick
 1852              	.LVL151:
 648:Drivers/STM32F3xx_HAL_Driver/Src/stm32f3xx_hal_rcc.c ****           {
 1853              		.loc 1 648 29 view .LVU557
 1854 04f8 C01B     		subs	r0, r0, r7
 648:Drivers/STM32F3xx_HAL_Driver/Src/stm32f3xx_hal_rcc.c ****           {
 1855              		.loc 1 648 13 view .LVU558
 1856 04fa 0228     		cmp	r0, #2
 1857 04fc ECD9     		bls	.L79
 1858 04fe E2E5     		b	.L32
 1859              	.L112:
 1860              		.align	2
 1861              	.L111:
 1862 0500 00100240 		.word	1073876992
 1863              		.cfi_endproc
 1864              	.LFE127:
 1866              		.section	.text.HAL_RCC_MCOConfig,"ax",%progbits
 1867              		.align	1
 1868              		.global	HAL_RCC_MCOConfig
 1869              		.syntax unified
 1870              		.thumb
 1871              		.thumb_func
 1872              		.fpu fpv4-sp-d16
 1874              	HAL_RCC_MCOConfig:
 1875              	.LVL152:
 1876              	.LFB129:
 663:Drivers/STM32F3xx_HAL_Driver/Src/stm32f3xx_hal_rcc.c **** 
 664:Drivers/STM32F3xx_HAL_Driver/Src/stm32f3xx_hal_rcc.c **** /**
 665:Drivers/STM32F3xx_HAL_Driver/Src/stm32f3xx_hal_rcc.c ****   * @brief  Initializes the CPU, AHB and APB buses clocks according to the specified 
 666:Drivers/STM32F3xx_HAL_Driver/Src/stm32f3xx_hal_rcc.c ****   *         parameters in the RCC_ClkInitStruct.
 667:Drivers/STM32F3xx_HAL_Driver/Src/stm32f3xx_hal_rcc.c ****   * @param  RCC_ClkInitStruct pointer to an RCC_OscInitTypeDef structure that
 668:Drivers/STM32F3xx_HAL_Driver/Src/stm32f3xx_hal_rcc.c ****   *         contains the configuration information for the RCC peripheral.
 669:Drivers/STM32F3xx_HAL_Driver/Src/stm32f3xx_hal_rcc.c ****   * @param  FLatency FLASH Latency                   
 670:Drivers/STM32F3xx_HAL_Driver/Src/stm32f3xx_hal_rcc.c ****   *          The value of this parameter depend on device used within the same series
 671:Drivers/STM32F3xx_HAL_Driver/Src/stm32f3xx_hal_rcc.c ****   * @note   The SystemCoreClock CMSIS variable is used to store System Clock Frequency 
 672:Drivers/STM32F3xx_HAL_Driver/Src/stm32f3xx_hal_rcc.c ****   *         and updated by @ref HAL_RCC_GetHCLKFreq() function called within this function
 673:Drivers/STM32F3xx_HAL_Driver/Src/stm32f3xx_hal_rcc.c ****   *
 674:Drivers/STM32F3xx_HAL_Driver/Src/stm32f3xx_hal_rcc.c ****   * @note   The HSI is used (enabled by hardware) as system clock source after
 675:Drivers/STM32F3xx_HAL_Driver/Src/stm32f3xx_hal_rcc.c ****   *         start-up from Reset, wake-up from STOP and STANDBY mode, or in case
 676:Drivers/STM32F3xx_HAL_Driver/Src/stm32f3xx_hal_rcc.c ****   *         of failure of the HSE used directly or indirectly as system clock
 677:Drivers/STM32F3xx_HAL_Driver/Src/stm32f3xx_hal_rcc.c ****   *         (if the Clock Security System CSS is enabled).
 678:Drivers/STM32F3xx_HAL_Driver/Src/stm32f3xx_hal_rcc.c ****   *           
 679:Drivers/STM32F3xx_HAL_Driver/Src/stm32f3xx_hal_rcc.c ****   * @note   A switch from one clock source to another occurs only if the target
 680:Drivers/STM32F3xx_HAL_Driver/Src/stm32f3xx_hal_rcc.c ****   *         clock source is ready (clock stable after start-up delay or PLL locked). 
 681:Drivers/STM32F3xx_HAL_Driver/Src/stm32f3xx_hal_rcc.c ****   *         If a clock source which is not yet ready is selected, the switch will
 682:Drivers/STM32F3xx_HAL_Driver/Src/stm32f3xx_hal_rcc.c ****   *         occur when the clock source will be ready. 
 683:Drivers/STM32F3xx_HAL_Driver/Src/stm32f3xx_hal_rcc.c ****   *         You can use @ref HAL_RCC_GetClockConfig() function to know which clock is
 684:Drivers/STM32F3xx_HAL_Driver/Src/stm32f3xx_hal_rcc.c ****   *         currently used as system clock source.
 685:Drivers/STM32F3xx_HAL_Driver/Src/stm32f3xx_hal_rcc.c ****   * @retval HAL status
 686:Drivers/STM32F3xx_HAL_Driver/Src/stm32f3xx_hal_rcc.c ****   */
 687:Drivers/STM32F3xx_HAL_Driver/Src/stm32f3xx_hal_rcc.c **** HAL_StatusTypeDef HAL_RCC_ClockConfig(RCC_ClkInitTypeDef  *RCC_ClkInitStruct, uint32_t FLatency)
 688:Drivers/STM32F3xx_HAL_Driver/Src/stm32f3xx_hal_rcc.c **** {
 689:Drivers/STM32F3xx_HAL_Driver/Src/stm32f3xx_hal_rcc.c ****   uint32_t tickstart = 0U;
 690:Drivers/STM32F3xx_HAL_Driver/Src/stm32f3xx_hal_rcc.c **** 
 691:Drivers/STM32F3xx_HAL_Driver/Src/stm32f3xx_hal_rcc.c ****   /* Check Null pointer */
 692:Drivers/STM32F3xx_HAL_Driver/Src/stm32f3xx_hal_rcc.c ****   if(RCC_ClkInitStruct == NULL)
ARM GAS  /var/folders/8c/gyvcglfx7f97kbqb2h83mm_r0000gn/T//ccZyiauy.s 			page 63


 693:Drivers/STM32F3xx_HAL_Driver/Src/stm32f3xx_hal_rcc.c ****   {
 694:Drivers/STM32F3xx_HAL_Driver/Src/stm32f3xx_hal_rcc.c ****     return HAL_ERROR;
 695:Drivers/STM32F3xx_HAL_Driver/Src/stm32f3xx_hal_rcc.c ****   }
 696:Drivers/STM32F3xx_HAL_Driver/Src/stm32f3xx_hal_rcc.c **** 
 697:Drivers/STM32F3xx_HAL_Driver/Src/stm32f3xx_hal_rcc.c ****   /* Check the parameters */
 698:Drivers/STM32F3xx_HAL_Driver/Src/stm32f3xx_hal_rcc.c ****   assert_param(IS_RCC_CLOCKTYPE(RCC_ClkInitStruct->ClockType));
 699:Drivers/STM32F3xx_HAL_Driver/Src/stm32f3xx_hal_rcc.c ****   assert_param(IS_FLASH_LATENCY(FLatency));
 700:Drivers/STM32F3xx_HAL_Driver/Src/stm32f3xx_hal_rcc.c **** 
 701:Drivers/STM32F3xx_HAL_Driver/Src/stm32f3xx_hal_rcc.c ****   /* To correctly read data from FLASH memory, the number of wait states (LATENCY) 
 702:Drivers/STM32F3xx_HAL_Driver/Src/stm32f3xx_hal_rcc.c ****   must be correctly programmed according to the frequency of the CPU clock 
 703:Drivers/STM32F3xx_HAL_Driver/Src/stm32f3xx_hal_rcc.c ****     (HCLK) of the device. */
 704:Drivers/STM32F3xx_HAL_Driver/Src/stm32f3xx_hal_rcc.c **** 
 705:Drivers/STM32F3xx_HAL_Driver/Src/stm32f3xx_hal_rcc.c ****   /* Increasing the number of wait states because of higher CPU frequency */
 706:Drivers/STM32F3xx_HAL_Driver/Src/stm32f3xx_hal_rcc.c ****   if(FLatency > __HAL_FLASH_GET_LATENCY())
 707:Drivers/STM32F3xx_HAL_Driver/Src/stm32f3xx_hal_rcc.c ****   {    
 708:Drivers/STM32F3xx_HAL_Driver/Src/stm32f3xx_hal_rcc.c ****     /* Program the new number of wait states to the LATENCY bits in the FLASH_ACR register */
 709:Drivers/STM32F3xx_HAL_Driver/Src/stm32f3xx_hal_rcc.c ****     __HAL_FLASH_SET_LATENCY(FLatency);
 710:Drivers/STM32F3xx_HAL_Driver/Src/stm32f3xx_hal_rcc.c ****     
 711:Drivers/STM32F3xx_HAL_Driver/Src/stm32f3xx_hal_rcc.c ****     /* Check that the new number of wait states is taken into account to access the Flash
 712:Drivers/STM32F3xx_HAL_Driver/Src/stm32f3xx_hal_rcc.c ****     memory by reading the FLASH_ACR register */
 713:Drivers/STM32F3xx_HAL_Driver/Src/stm32f3xx_hal_rcc.c ****     if(__HAL_FLASH_GET_LATENCY() != FLatency)
 714:Drivers/STM32F3xx_HAL_Driver/Src/stm32f3xx_hal_rcc.c ****     {
 715:Drivers/STM32F3xx_HAL_Driver/Src/stm32f3xx_hal_rcc.c ****       return HAL_ERROR;
 716:Drivers/STM32F3xx_HAL_Driver/Src/stm32f3xx_hal_rcc.c ****     }
 717:Drivers/STM32F3xx_HAL_Driver/Src/stm32f3xx_hal_rcc.c ****   }
 718:Drivers/STM32F3xx_HAL_Driver/Src/stm32f3xx_hal_rcc.c **** 
 719:Drivers/STM32F3xx_HAL_Driver/Src/stm32f3xx_hal_rcc.c ****   /*-------------------------- HCLK Configuration --------------------------*/
 720:Drivers/STM32F3xx_HAL_Driver/Src/stm32f3xx_hal_rcc.c ****   if(((RCC_ClkInitStruct->ClockType) & RCC_CLOCKTYPE_HCLK) == RCC_CLOCKTYPE_HCLK)
 721:Drivers/STM32F3xx_HAL_Driver/Src/stm32f3xx_hal_rcc.c ****   {
 722:Drivers/STM32F3xx_HAL_Driver/Src/stm32f3xx_hal_rcc.c ****     assert_param(IS_RCC_HCLK(RCC_ClkInitStruct->AHBCLKDivider));
 723:Drivers/STM32F3xx_HAL_Driver/Src/stm32f3xx_hal_rcc.c ****     MODIFY_REG(RCC->CFGR, RCC_CFGR_HPRE, RCC_ClkInitStruct->AHBCLKDivider);
 724:Drivers/STM32F3xx_HAL_Driver/Src/stm32f3xx_hal_rcc.c ****   }
 725:Drivers/STM32F3xx_HAL_Driver/Src/stm32f3xx_hal_rcc.c **** 
 726:Drivers/STM32F3xx_HAL_Driver/Src/stm32f3xx_hal_rcc.c ****   /*------------------------- SYSCLK Configuration ---------------------------*/ 
 727:Drivers/STM32F3xx_HAL_Driver/Src/stm32f3xx_hal_rcc.c ****   if(((RCC_ClkInitStruct->ClockType) & RCC_CLOCKTYPE_SYSCLK) == RCC_CLOCKTYPE_SYSCLK)
 728:Drivers/STM32F3xx_HAL_Driver/Src/stm32f3xx_hal_rcc.c ****   {    
 729:Drivers/STM32F3xx_HAL_Driver/Src/stm32f3xx_hal_rcc.c ****     assert_param(IS_RCC_SYSCLKSOURCE(RCC_ClkInitStruct->SYSCLKSource));
 730:Drivers/STM32F3xx_HAL_Driver/Src/stm32f3xx_hal_rcc.c ****     
 731:Drivers/STM32F3xx_HAL_Driver/Src/stm32f3xx_hal_rcc.c ****     /* HSE is selected as System Clock Source */
 732:Drivers/STM32F3xx_HAL_Driver/Src/stm32f3xx_hal_rcc.c ****     if(RCC_ClkInitStruct->SYSCLKSource == RCC_SYSCLKSOURCE_HSE)
 733:Drivers/STM32F3xx_HAL_Driver/Src/stm32f3xx_hal_rcc.c ****     {
 734:Drivers/STM32F3xx_HAL_Driver/Src/stm32f3xx_hal_rcc.c ****       /* Check the HSE ready flag */  
 735:Drivers/STM32F3xx_HAL_Driver/Src/stm32f3xx_hal_rcc.c ****       if(__HAL_RCC_GET_FLAG(RCC_FLAG_HSERDY) == RESET)
 736:Drivers/STM32F3xx_HAL_Driver/Src/stm32f3xx_hal_rcc.c ****       {
 737:Drivers/STM32F3xx_HAL_Driver/Src/stm32f3xx_hal_rcc.c ****         return HAL_ERROR;
 738:Drivers/STM32F3xx_HAL_Driver/Src/stm32f3xx_hal_rcc.c ****       }
 739:Drivers/STM32F3xx_HAL_Driver/Src/stm32f3xx_hal_rcc.c ****     }
 740:Drivers/STM32F3xx_HAL_Driver/Src/stm32f3xx_hal_rcc.c ****     /* PLL is selected as System Clock Source */
 741:Drivers/STM32F3xx_HAL_Driver/Src/stm32f3xx_hal_rcc.c ****     else if(RCC_ClkInitStruct->SYSCLKSource == RCC_SYSCLKSOURCE_PLLCLK)
 742:Drivers/STM32F3xx_HAL_Driver/Src/stm32f3xx_hal_rcc.c ****     {
 743:Drivers/STM32F3xx_HAL_Driver/Src/stm32f3xx_hal_rcc.c ****       /* Check the PLL ready flag */  
 744:Drivers/STM32F3xx_HAL_Driver/Src/stm32f3xx_hal_rcc.c ****       if(__HAL_RCC_GET_FLAG(RCC_FLAG_PLLRDY) == RESET)
 745:Drivers/STM32F3xx_HAL_Driver/Src/stm32f3xx_hal_rcc.c ****       {
 746:Drivers/STM32F3xx_HAL_Driver/Src/stm32f3xx_hal_rcc.c ****         return HAL_ERROR;
 747:Drivers/STM32F3xx_HAL_Driver/Src/stm32f3xx_hal_rcc.c ****       }
 748:Drivers/STM32F3xx_HAL_Driver/Src/stm32f3xx_hal_rcc.c ****     }
 749:Drivers/STM32F3xx_HAL_Driver/Src/stm32f3xx_hal_rcc.c ****     /* HSI is selected as System Clock Source */
ARM GAS  /var/folders/8c/gyvcglfx7f97kbqb2h83mm_r0000gn/T//ccZyiauy.s 			page 64


 750:Drivers/STM32F3xx_HAL_Driver/Src/stm32f3xx_hal_rcc.c ****     else
 751:Drivers/STM32F3xx_HAL_Driver/Src/stm32f3xx_hal_rcc.c ****     {
 752:Drivers/STM32F3xx_HAL_Driver/Src/stm32f3xx_hal_rcc.c ****       /* Check the HSI ready flag */  
 753:Drivers/STM32F3xx_HAL_Driver/Src/stm32f3xx_hal_rcc.c ****       if(__HAL_RCC_GET_FLAG(RCC_FLAG_HSIRDY) == RESET)
 754:Drivers/STM32F3xx_HAL_Driver/Src/stm32f3xx_hal_rcc.c ****       {
 755:Drivers/STM32F3xx_HAL_Driver/Src/stm32f3xx_hal_rcc.c ****         return HAL_ERROR;
 756:Drivers/STM32F3xx_HAL_Driver/Src/stm32f3xx_hal_rcc.c ****       }
 757:Drivers/STM32F3xx_HAL_Driver/Src/stm32f3xx_hal_rcc.c ****     }
 758:Drivers/STM32F3xx_HAL_Driver/Src/stm32f3xx_hal_rcc.c **** 
 759:Drivers/STM32F3xx_HAL_Driver/Src/stm32f3xx_hal_rcc.c ****     __HAL_RCC_SYSCLK_CONFIG(RCC_ClkInitStruct->SYSCLKSource);
 760:Drivers/STM32F3xx_HAL_Driver/Src/stm32f3xx_hal_rcc.c **** 
 761:Drivers/STM32F3xx_HAL_Driver/Src/stm32f3xx_hal_rcc.c ****     /* Get Start Tick */
 762:Drivers/STM32F3xx_HAL_Driver/Src/stm32f3xx_hal_rcc.c ****     tickstart = HAL_GetTick();
 763:Drivers/STM32F3xx_HAL_Driver/Src/stm32f3xx_hal_rcc.c ****     
 764:Drivers/STM32F3xx_HAL_Driver/Src/stm32f3xx_hal_rcc.c ****     while (__HAL_RCC_GET_SYSCLK_SOURCE() != (RCC_ClkInitStruct->SYSCLKSource << RCC_CFGR_SWS_Pos))
 765:Drivers/STM32F3xx_HAL_Driver/Src/stm32f3xx_hal_rcc.c ****     {
 766:Drivers/STM32F3xx_HAL_Driver/Src/stm32f3xx_hal_rcc.c ****       if ((HAL_GetTick() - tickstart) > CLOCKSWITCH_TIMEOUT_VALUE)
 767:Drivers/STM32F3xx_HAL_Driver/Src/stm32f3xx_hal_rcc.c ****       {
 768:Drivers/STM32F3xx_HAL_Driver/Src/stm32f3xx_hal_rcc.c ****         return HAL_TIMEOUT;
 769:Drivers/STM32F3xx_HAL_Driver/Src/stm32f3xx_hal_rcc.c ****       }
 770:Drivers/STM32F3xx_HAL_Driver/Src/stm32f3xx_hal_rcc.c ****     }
 771:Drivers/STM32F3xx_HAL_Driver/Src/stm32f3xx_hal_rcc.c ****   }
 772:Drivers/STM32F3xx_HAL_Driver/Src/stm32f3xx_hal_rcc.c ****   /* Decreasing the number of wait states because of lower CPU frequency */
 773:Drivers/STM32F3xx_HAL_Driver/Src/stm32f3xx_hal_rcc.c ****   if(FLatency < __HAL_FLASH_GET_LATENCY())
 774:Drivers/STM32F3xx_HAL_Driver/Src/stm32f3xx_hal_rcc.c ****   {    
 775:Drivers/STM32F3xx_HAL_Driver/Src/stm32f3xx_hal_rcc.c ****     /* Program the new number of wait states to the LATENCY bits in the FLASH_ACR register */
 776:Drivers/STM32F3xx_HAL_Driver/Src/stm32f3xx_hal_rcc.c ****     __HAL_FLASH_SET_LATENCY(FLatency);
 777:Drivers/STM32F3xx_HAL_Driver/Src/stm32f3xx_hal_rcc.c ****     
 778:Drivers/STM32F3xx_HAL_Driver/Src/stm32f3xx_hal_rcc.c ****     /* Check that the new number of wait states is taken into account to access the Flash
 779:Drivers/STM32F3xx_HAL_Driver/Src/stm32f3xx_hal_rcc.c ****     memory by reading the FLASH_ACR register */
 780:Drivers/STM32F3xx_HAL_Driver/Src/stm32f3xx_hal_rcc.c ****     if(__HAL_FLASH_GET_LATENCY() != FLatency)
 781:Drivers/STM32F3xx_HAL_Driver/Src/stm32f3xx_hal_rcc.c ****     {
 782:Drivers/STM32F3xx_HAL_Driver/Src/stm32f3xx_hal_rcc.c ****       return HAL_ERROR;
 783:Drivers/STM32F3xx_HAL_Driver/Src/stm32f3xx_hal_rcc.c ****     }
 784:Drivers/STM32F3xx_HAL_Driver/Src/stm32f3xx_hal_rcc.c ****   }    
 785:Drivers/STM32F3xx_HAL_Driver/Src/stm32f3xx_hal_rcc.c **** 
 786:Drivers/STM32F3xx_HAL_Driver/Src/stm32f3xx_hal_rcc.c ****   /*-------------------------- PCLK1 Configuration ---------------------------*/ 
 787:Drivers/STM32F3xx_HAL_Driver/Src/stm32f3xx_hal_rcc.c ****   if(((RCC_ClkInitStruct->ClockType) & RCC_CLOCKTYPE_PCLK1) == RCC_CLOCKTYPE_PCLK1)
 788:Drivers/STM32F3xx_HAL_Driver/Src/stm32f3xx_hal_rcc.c ****   {
 789:Drivers/STM32F3xx_HAL_Driver/Src/stm32f3xx_hal_rcc.c ****     assert_param(IS_RCC_PCLK(RCC_ClkInitStruct->APB1CLKDivider));
 790:Drivers/STM32F3xx_HAL_Driver/Src/stm32f3xx_hal_rcc.c ****     MODIFY_REG(RCC->CFGR, RCC_CFGR_PPRE1, RCC_ClkInitStruct->APB1CLKDivider);
 791:Drivers/STM32F3xx_HAL_Driver/Src/stm32f3xx_hal_rcc.c ****   }
 792:Drivers/STM32F3xx_HAL_Driver/Src/stm32f3xx_hal_rcc.c ****   
 793:Drivers/STM32F3xx_HAL_Driver/Src/stm32f3xx_hal_rcc.c ****   /*-------------------------- PCLK2 Configuration ---------------------------*/ 
 794:Drivers/STM32F3xx_HAL_Driver/Src/stm32f3xx_hal_rcc.c ****   if(((RCC_ClkInitStruct->ClockType) & RCC_CLOCKTYPE_PCLK2) == RCC_CLOCKTYPE_PCLK2)
 795:Drivers/STM32F3xx_HAL_Driver/Src/stm32f3xx_hal_rcc.c ****   {
 796:Drivers/STM32F3xx_HAL_Driver/Src/stm32f3xx_hal_rcc.c ****     assert_param(IS_RCC_PCLK(RCC_ClkInitStruct->APB2CLKDivider));
 797:Drivers/STM32F3xx_HAL_Driver/Src/stm32f3xx_hal_rcc.c ****     MODIFY_REG(RCC->CFGR, RCC_CFGR_PPRE2, ((RCC_ClkInitStruct->APB2CLKDivider) << 3U));
 798:Drivers/STM32F3xx_HAL_Driver/Src/stm32f3xx_hal_rcc.c ****   }
 799:Drivers/STM32F3xx_HAL_Driver/Src/stm32f3xx_hal_rcc.c ****  
 800:Drivers/STM32F3xx_HAL_Driver/Src/stm32f3xx_hal_rcc.c ****   /* Update the SystemCoreClock global variable */
 801:Drivers/STM32F3xx_HAL_Driver/Src/stm32f3xx_hal_rcc.c ****   SystemCoreClock = HAL_RCC_GetSysClockFreq() >> AHBPrescTable[(RCC->CFGR & RCC_CFGR_HPRE)>> RCC_CF
 802:Drivers/STM32F3xx_HAL_Driver/Src/stm32f3xx_hal_rcc.c **** 
 803:Drivers/STM32F3xx_HAL_Driver/Src/stm32f3xx_hal_rcc.c ****   /* Configure the source of time base considering new system clocks settings*/
 804:Drivers/STM32F3xx_HAL_Driver/Src/stm32f3xx_hal_rcc.c ****   HAL_InitTick (TICK_INT_PRIORITY);
 805:Drivers/STM32F3xx_HAL_Driver/Src/stm32f3xx_hal_rcc.c ****   
 806:Drivers/STM32F3xx_HAL_Driver/Src/stm32f3xx_hal_rcc.c ****   return HAL_OK;
ARM GAS  /var/folders/8c/gyvcglfx7f97kbqb2h83mm_r0000gn/T//ccZyiauy.s 			page 65


 807:Drivers/STM32F3xx_HAL_Driver/Src/stm32f3xx_hal_rcc.c **** }
 808:Drivers/STM32F3xx_HAL_Driver/Src/stm32f3xx_hal_rcc.c **** 
 809:Drivers/STM32F3xx_HAL_Driver/Src/stm32f3xx_hal_rcc.c **** /**
 810:Drivers/STM32F3xx_HAL_Driver/Src/stm32f3xx_hal_rcc.c ****   * @}
 811:Drivers/STM32F3xx_HAL_Driver/Src/stm32f3xx_hal_rcc.c ****   */
 812:Drivers/STM32F3xx_HAL_Driver/Src/stm32f3xx_hal_rcc.c **** 
 813:Drivers/STM32F3xx_HAL_Driver/Src/stm32f3xx_hal_rcc.c **** /** @defgroup RCC_Exported_Functions_Group2 Peripheral Control functions
 814:Drivers/STM32F3xx_HAL_Driver/Src/stm32f3xx_hal_rcc.c ****   *  @brief   RCC clocks control functions
 815:Drivers/STM32F3xx_HAL_Driver/Src/stm32f3xx_hal_rcc.c ****   *
 816:Drivers/STM32F3xx_HAL_Driver/Src/stm32f3xx_hal_rcc.c ****   @verbatim   
 817:Drivers/STM32F3xx_HAL_Driver/Src/stm32f3xx_hal_rcc.c ****   ===============================================================================
 818:Drivers/STM32F3xx_HAL_Driver/Src/stm32f3xx_hal_rcc.c ****                   ##### Peripheral Control functions #####
 819:Drivers/STM32F3xx_HAL_Driver/Src/stm32f3xx_hal_rcc.c ****   ===============================================================================  
 820:Drivers/STM32F3xx_HAL_Driver/Src/stm32f3xx_hal_rcc.c ****     [..]
 821:Drivers/STM32F3xx_HAL_Driver/Src/stm32f3xx_hal_rcc.c ****     This subsection provides a set of functions allowing to control the RCC Clocks 
 822:Drivers/STM32F3xx_HAL_Driver/Src/stm32f3xx_hal_rcc.c ****     frequencies.
 823:Drivers/STM32F3xx_HAL_Driver/Src/stm32f3xx_hal_rcc.c **** 
 824:Drivers/STM32F3xx_HAL_Driver/Src/stm32f3xx_hal_rcc.c ****   @endverbatim
 825:Drivers/STM32F3xx_HAL_Driver/Src/stm32f3xx_hal_rcc.c ****   * @{
 826:Drivers/STM32F3xx_HAL_Driver/Src/stm32f3xx_hal_rcc.c ****   */
 827:Drivers/STM32F3xx_HAL_Driver/Src/stm32f3xx_hal_rcc.c **** 
 828:Drivers/STM32F3xx_HAL_Driver/Src/stm32f3xx_hal_rcc.c **** #if defined(RCC_CFGR_MCOPRE)
 829:Drivers/STM32F3xx_HAL_Driver/Src/stm32f3xx_hal_rcc.c **** /**
 830:Drivers/STM32F3xx_HAL_Driver/Src/stm32f3xx_hal_rcc.c ****   * @brief  Selects the clock source to output on MCO pin.
 831:Drivers/STM32F3xx_HAL_Driver/Src/stm32f3xx_hal_rcc.c ****   * @note   MCO pin should be configured in alternate function mode.
 832:Drivers/STM32F3xx_HAL_Driver/Src/stm32f3xx_hal_rcc.c ****   * @param  RCC_MCOx specifies the output direction for the clock source.
 833:Drivers/STM32F3xx_HAL_Driver/Src/stm32f3xx_hal_rcc.c ****   *          This parameter can be one of the following values:
 834:Drivers/STM32F3xx_HAL_Driver/Src/stm32f3xx_hal_rcc.c ****   *            @arg @ref RCC_MCO1 Clock source to output on MCO1 pin(PA8).
 835:Drivers/STM32F3xx_HAL_Driver/Src/stm32f3xx_hal_rcc.c ****   * @param  RCC_MCOSource specifies the clock source to output.
 836:Drivers/STM32F3xx_HAL_Driver/Src/stm32f3xx_hal_rcc.c ****   *          This parameter can be one of the following values:
 837:Drivers/STM32F3xx_HAL_Driver/Src/stm32f3xx_hal_rcc.c ****   *            @arg @ref RCC_MCO1SOURCE_NOCLOCK     No clock selected
 838:Drivers/STM32F3xx_HAL_Driver/Src/stm32f3xx_hal_rcc.c ****   *            @arg @ref RCC_MCO1SOURCE_SYSCLK      System Clock selected as MCO clock
 839:Drivers/STM32F3xx_HAL_Driver/Src/stm32f3xx_hal_rcc.c ****   *            @arg @ref RCC_MCO1SOURCE_HSI         HSI selected as MCO clock
 840:Drivers/STM32F3xx_HAL_Driver/Src/stm32f3xx_hal_rcc.c ****   *            @arg @ref RCC_MCO1SOURCE_HSE         HSE selected as MCO clock
 841:Drivers/STM32F3xx_HAL_Driver/Src/stm32f3xx_hal_rcc.c ****   *            @arg @ref RCC_MCO1SOURCE_LSI         LSI selected as MCO clock
 842:Drivers/STM32F3xx_HAL_Driver/Src/stm32f3xx_hal_rcc.c ****   *            @arg @ref RCC_MCO1SOURCE_LSE         LSE selected as MCO clock
 843:Drivers/STM32F3xx_HAL_Driver/Src/stm32f3xx_hal_rcc.c ****   *            @arg @ref RCC_MCO1SOURCE_PLLCLK      PLLCLK selected as MCO clock
 844:Drivers/STM32F3xx_HAL_Driver/Src/stm32f3xx_hal_rcc.c ****   *            @arg @ref RCC_MCO1SOURCE_PLLCLK_DIV2 PLLCLK Divided by 2 selected as MCO clock
 845:Drivers/STM32F3xx_HAL_Driver/Src/stm32f3xx_hal_rcc.c ****   * @param  RCC_MCODiv specifies the MCO DIV.
 846:Drivers/STM32F3xx_HAL_Driver/Src/stm32f3xx_hal_rcc.c ****   *          This parameter can be one of the following values:
 847:Drivers/STM32F3xx_HAL_Driver/Src/stm32f3xx_hal_rcc.c ****   *            @arg @ref RCC_MCODIV_1   no division applied to MCO clock
 848:Drivers/STM32F3xx_HAL_Driver/Src/stm32f3xx_hal_rcc.c ****   *            @arg @ref RCC_MCODIV_2   division by 2 applied to MCO clock
 849:Drivers/STM32F3xx_HAL_Driver/Src/stm32f3xx_hal_rcc.c ****   *            @arg @ref RCC_MCODIV_4   division by 4 applied to MCO clock
 850:Drivers/STM32F3xx_HAL_Driver/Src/stm32f3xx_hal_rcc.c ****   *            @arg @ref RCC_MCODIV_8   division by 8 applied to MCO clock
 851:Drivers/STM32F3xx_HAL_Driver/Src/stm32f3xx_hal_rcc.c ****   *            @arg @ref RCC_MCODIV_16  division by 16 applied to MCO clock
 852:Drivers/STM32F3xx_HAL_Driver/Src/stm32f3xx_hal_rcc.c ****   *            @arg @ref RCC_MCODIV_32  division by 32 applied to MCO clock
 853:Drivers/STM32F3xx_HAL_Driver/Src/stm32f3xx_hal_rcc.c ****   *            @arg @ref RCC_MCODIV_64  division by 64 applied to MCO clock
 854:Drivers/STM32F3xx_HAL_Driver/Src/stm32f3xx_hal_rcc.c ****   *            @arg @ref RCC_MCODIV_128 division by 128 applied to MCO clock
 855:Drivers/STM32F3xx_HAL_Driver/Src/stm32f3xx_hal_rcc.c ****   * @retval None
 856:Drivers/STM32F3xx_HAL_Driver/Src/stm32f3xx_hal_rcc.c ****   */
 857:Drivers/STM32F3xx_HAL_Driver/Src/stm32f3xx_hal_rcc.c **** #else
 858:Drivers/STM32F3xx_HAL_Driver/Src/stm32f3xx_hal_rcc.c **** /**
 859:Drivers/STM32F3xx_HAL_Driver/Src/stm32f3xx_hal_rcc.c ****   * @brief  Selects the clock source to output on MCO pin.
 860:Drivers/STM32F3xx_HAL_Driver/Src/stm32f3xx_hal_rcc.c ****   * @note   MCO pin should be configured in alternate function mode.
 861:Drivers/STM32F3xx_HAL_Driver/Src/stm32f3xx_hal_rcc.c ****   * @param  RCC_MCOx specifies the output direction for the clock source.
 862:Drivers/STM32F3xx_HAL_Driver/Src/stm32f3xx_hal_rcc.c ****   *          This parameter can be one of the following values:
 863:Drivers/STM32F3xx_HAL_Driver/Src/stm32f3xx_hal_rcc.c ****   *            @arg @ref RCC_MCO1 Clock source to output on MCO1 pin(PA8).
ARM GAS  /var/folders/8c/gyvcglfx7f97kbqb2h83mm_r0000gn/T//ccZyiauy.s 			page 66


 864:Drivers/STM32F3xx_HAL_Driver/Src/stm32f3xx_hal_rcc.c ****   * @param  RCC_MCOSource specifies the clock source to output.
 865:Drivers/STM32F3xx_HAL_Driver/Src/stm32f3xx_hal_rcc.c ****   *          This parameter can be one of the following values:
 866:Drivers/STM32F3xx_HAL_Driver/Src/stm32f3xx_hal_rcc.c ****   *            @arg @ref RCC_MCO1SOURCE_NOCLOCK     No clock selected as MCO clock
 867:Drivers/STM32F3xx_HAL_Driver/Src/stm32f3xx_hal_rcc.c ****   *            @arg @ref RCC_MCO1SOURCE_SYSCLK      System clock selected as MCO clock
 868:Drivers/STM32F3xx_HAL_Driver/Src/stm32f3xx_hal_rcc.c ****   *            @arg @ref RCC_MCO1SOURCE_HSI         HSI selected as MCO clock
 869:Drivers/STM32F3xx_HAL_Driver/Src/stm32f3xx_hal_rcc.c ****   *            @arg @ref RCC_MCO1SOURCE_HSE         HSE selected as MCO clock
 870:Drivers/STM32F3xx_HAL_Driver/Src/stm32f3xx_hal_rcc.c ****   *            @arg @ref RCC_MCO1SOURCE_LSI         LSI selected as MCO clock
 871:Drivers/STM32F3xx_HAL_Driver/Src/stm32f3xx_hal_rcc.c ****   *            @arg @ref RCC_MCO1SOURCE_LSE         LSE selected as MCO clock
 872:Drivers/STM32F3xx_HAL_Driver/Src/stm32f3xx_hal_rcc.c ****   *            @arg @ref RCC_MCO1SOURCE_PLLCLK_DIV2 PLLCLK Divided by 2 selected as MCO clock
 873:Drivers/STM32F3xx_HAL_Driver/Src/stm32f3xx_hal_rcc.c ****   * @param  RCC_MCODiv specifies the MCO DIV.
 874:Drivers/STM32F3xx_HAL_Driver/Src/stm32f3xx_hal_rcc.c ****   *          This parameter can be one of the following values:
 875:Drivers/STM32F3xx_HAL_Driver/Src/stm32f3xx_hal_rcc.c ****   *            @arg @ref RCC_MCODIV_1 no division applied to MCO clock
 876:Drivers/STM32F3xx_HAL_Driver/Src/stm32f3xx_hal_rcc.c ****   * @retval None
 877:Drivers/STM32F3xx_HAL_Driver/Src/stm32f3xx_hal_rcc.c ****   */
 878:Drivers/STM32F3xx_HAL_Driver/Src/stm32f3xx_hal_rcc.c **** #endif
 879:Drivers/STM32F3xx_HAL_Driver/Src/stm32f3xx_hal_rcc.c **** void HAL_RCC_MCOConfig(uint32_t RCC_MCOx, uint32_t RCC_MCOSource, uint32_t RCC_MCODiv)
 880:Drivers/STM32F3xx_HAL_Driver/Src/stm32f3xx_hal_rcc.c **** {
 1877              		.loc 1 880 1 is_stmt 1 view -0
 1878              		.cfi_startproc
 1879              		@ args = 0, pretend = 0, frame = 24
 1880              		@ frame_needed = 0, uses_anonymous_args = 0
 881:Drivers/STM32F3xx_HAL_Driver/Src/stm32f3xx_hal_rcc.c ****   GPIO_InitTypeDef gpio;
 1881              		.loc 1 881 3 view .LVU560
 882:Drivers/STM32F3xx_HAL_Driver/Src/stm32f3xx_hal_rcc.c **** 
 883:Drivers/STM32F3xx_HAL_Driver/Src/stm32f3xx_hal_rcc.c ****   /* Check the parameters */
 884:Drivers/STM32F3xx_HAL_Driver/Src/stm32f3xx_hal_rcc.c ****   assert_param(IS_RCC_MCO(RCC_MCOx));
 1882              		.loc 1 884 3 view .LVU561
 885:Drivers/STM32F3xx_HAL_Driver/Src/stm32f3xx_hal_rcc.c ****   assert_param(IS_RCC_MCODIV(RCC_MCODiv));
 1883              		.loc 1 885 3 view .LVU562
 886:Drivers/STM32F3xx_HAL_Driver/Src/stm32f3xx_hal_rcc.c ****   assert_param(IS_RCC_MCO1SOURCE(RCC_MCOSource));
 1884              		.loc 1 886 3 view .LVU563
 887:Drivers/STM32F3xx_HAL_Driver/Src/stm32f3xx_hal_rcc.c ****   
 888:Drivers/STM32F3xx_HAL_Driver/Src/stm32f3xx_hal_rcc.c ****   /* Configure the MCO1 pin in alternate function mode */
 889:Drivers/STM32F3xx_HAL_Driver/Src/stm32f3xx_hal_rcc.c ****   gpio.Mode      = GPIO_MODE_AF_PP;
 1885              		.loc 1 889 3 view .LVU564
 880:Drivers/STM32F3xx_HAL_Driver/Src/stm32f3xx_hal_rcc.c ****   GPIO_InitTypeDef gpio;
 1886              		.loc 1 880 1 is_stmt 0 view .LVU565
 1887 0000 70B5     		push	{r4, r5, r6, lr}
 1888              	.LCFI4:
 1889              		.cfi_def_cfa_offset 16
 1890              		.cfi_offset 4, -16
 1891              		.cfi_offset 5, -12
 1892              		.cfi_offset 6, -8
 1893              		.cfi_offset 14, -4
 1894 0002 86B0     		sub	sp, sp, #24
 1895              	.LCFI5:
 1896              		.cfi_def_cfa_offset 40
 1897              		.loc 1 889 18 view .LVU566
 1898 0004 0223     		movs	r3, #2
 1899 0006 0293     		str	r3, [sp, #8]
 890:Drivers/STM32F3xx_HAL_Driver/Src/stm32f3xx_hal_rcc.c ****   gpio.Speed     = GPIO_SPEED_FREQ_HIGH;
 1900              		.loc 1 890 3 is_stmt 1 view .LVU567
 880:Drivers/STM32F3xx_HAL_Driver/Src/stm32f3xx_hal_rcc.c ****   GPIO_InitTypeDef gpio;
 1901              		.loc 1 880 1 is_stmt 0 view .LVU568
 1902 0008 0D46     		mov	r5, r1
 891:Drivers/STM32F3xx_HAL_Driver/Src/stm32f3xx_hal_rcc.c ****   gpio.Pull      = GPIO_NOPULL;
 1903              		.loc 1 891 18 view .LVU569
ARM GAS  /var/folders/8c/gyvcglfx7f97kbqb2h83mm_r0000gn/T//ccZyiauy.s 			page 67


 1904 000a 0323     		movs	r3, #3
 1905 000c 0021     		movs	r1, #0
 1906              	.LVL153:
 1907              		.loc 1 891 18 view .LVU570
 1908 000e CDE90313 		strd	r1, r3, [sp, #12]
 892:Drivers/STM32F3xx_HAL_Driver/Src/stm32f3xx_hal_rcc.c ****   gpio.Pin       = MCO1_PIN;
 1909              		.loc 1 892 3 is_stmt 1 view .LVU571
 1910              	.LBB286:
 893:Drivers/STM32F3xx_HAL_Driver/Src/stm32f3xx_hal_rcc.c ****   gpio.Alternate = GPIO_AF0_MCO;
 894:Drivers/STM32F3xx_HAL_Driver/Src/stm32f3xx_hal_rcc.c **** 
 895:Drivers/STM32F3xx_HAL_Driver/Src/stm32f3xx_hal_rcc.c ****   /* MCO1 Clock Enable */
 896:Drivers/STM32F3xx_HAL_Driver/Src/stm32f3xx_hal_rcc.c ****   MCO1_CLK_ENABLE();
 1911              		.loc 1 896 3 is_stmt 0 view .LVU572
 1912 0012 0E4C     		ldr	r4, .L114
 1913              	.LBE286:
 893:Drivers/STM32F3xx_HAL_Driver/Src/stm32f3xx_hal_rcc.c ****   gpio.Alternate = GPIO_AF0_MCO;
 1914              		.loc 1 893 18 view .LVU573
 1915 0014 0591     		str	r1, [sp, #20]
 892:Drivers/STM32F3xx_HAL_Driver/Src/stm32f3xx_hal_rcc.c ****   gpio.Pin       = MCO1_PIN;
 1916              		.loc 1 892 18 view .LVU574
 1917 0016 4FF48073 		mov	r3, #256
 1918 001a 0193     		str	r3, [sp, #4]
 893:Drivers/STM32F3xx_HAL_Driver/Src/stm32f3xx_hal_rcc.c ****   gpio.Alternate = GPIO_AF0_MCO;
 1919              		.loc 1 893 3 is_stmt 1 view .LVU575
 1920              		.loc 1 896 3 view .LVU576
 1921              	.LBB287:
 1922              		.loc 1 896 3 view .LVU577
 1923              		.loc 1 896 3 view .LVU578
 1924 001c 6169     		ldr	r1, [r4, #20]
 1925 001e 41F40031 		orr	r1, r1, #131072
 1926 0022 6161     		str	r1, [r4, #20]
 1927              		.loc 1 896 3 view .LVU579
 1928 0024 6169     		ldr	r1, [r4, #20]
 1929 0026 01F40031 		and	r1, r1, #131072
 1930 002a 0091     		str	r1, [sp]
 1931              		.loc 1 896 3 view .LVU580
 1932              	.LBE287:
 897:Drivers/STM32F3xx_HAL_Driver/Src/stm32f3xx_hal_rcc.c ****   
 898:Drivers/STM32F3xx_HAL_Driver/Src/stm32f3xx_hal_rcc.c ****   HAL_GPIO_Init(MCO1_GPIO_PORT, &gpio);
 1933              		.loc 1 898 3 is_stmt 0 view .LVU581
 1934 002c 4FF09040 		mov	r0, #1207959552
 1935              	.LVL154:
 1936              		.loc 1 898 3 view .LVU582
 1937 0030 01A9     		add	r1, sp, #4
 880:Drivers/STM32F3xx_HAL_Driver/Src/stm32f3xx_hal_rcc.c ****   GPIO_InitTypeDef gpio;
 1938              		.loc 1 880 1 view .LVU583
 1939 0032 1646     		mov	r6, r2
 1940              	.LBB288:
 896:Drivers/STM32F3xx_HAL_Driver/Src/stm32f3xx_hal_rcc.c ****   
 1941              		.loc 1 896 3 view .LVU584
 1942 0034 009B     		ldr	r3, [sp]
 1943              	.LBE288:
 1944              		.loc 1 898 3 is_stmt 1 view .LVU585
 1945 0036 FFF7FEFF 		bl	HAL_GPIO_Init
 1946              	.LVL155:
 899:Drivers/STM32F3xx_HAL_Driver/Src/stm32f3xx_hal_rcc.c ****   
 900:Drivers/STM32F3xx_HAL_Driver/Src/stm32f3xx_hal_rcc.c ****   /* Configure the MCO clock source */
ARM GAS  /var/folders/8c/gyvcglfx7f97kbqb2h83mm_r0000gn/T//ccZyiauy.s 			page 68


 901:Drivers/STM32F3xx_HAL_Driver/Src/stm32f3xx_hal_rcc.c ****   __HAL_RCC_MCO1_CONFIG(RCC_MCOSource, RCC_MCODiv);
 1947              		.loc 1 901 3 view .LVU586
 1948 003a 6368     		ldr	r3, [r4, #4]
 1949 003c 23F0EE43 		bic	r3, r3, #1996488704
 1950 0040 3343     		orrs	r3, r3, r6
 1951 0042 2B43     		orrs	r3, r3, r5
 1952 0044 6360     		str	r3, [r4, #4]
 902:Drivers/STM32F3xx_HAL_Driver/Src/stm32f3xx_hal_rcc.c **** }
 1953              		.loc 1 902 1 is_stmt 0 view .LVU587
 1954 0046 06B0     		add	sp, sp, #24
 1955              	.LCFI6:
 1956              		.cfi_def_cfa_offset 16
 1957              		@ sp needed
 1958 0048 70BD     		pop	{r4, r5, r6, pc}
 1959              	.LVL156:
 1960              	.L115:
 1961              		.loc 1 902 1 view .LVU588
 1962 004a 00BF     		.align	2
 1963              	.L114:
 1964 004c 00100240 		.word	1073876992
 1965              		.cfi_endproc
 1966              	.LFE129:
 1968              		.section	.text.HAL_RCC_EnableCSS,"ax",%progbits
 1969              		.align	1
 1970              		.global	HAL_RCC_EnableCSS
 1971              		.syntax unified
 1972              		.thumb
 1973              		.thumb_func
 1974              		.fpu fpv4-sp-d16
 1976              	HAL_RCC_EnableCSS:
 1977              	.LFB130:
 903:Drivers/STM32F3xx_HAL_Driver/Src/stm32f3xx_hal_rcc.c **** 
 904:Drivers/STM32F3xx_HAL_Driver/Src/stm32f3xx_hal_rcc.c **** /**
 905:Drivers/STM32F3xx_HAL_Driver/Src/stm32f3xx_hal_rcc.c ****   * @brief  Enables the Clock Security System.
 906:Drivers/STM32F3xx_HAL_Driver/Src/stm32f3xx_hal_rcc.c ****   * @note   If a failure is detected on the HSE oscillator clock, this oscillator
 907:Drivers/STM32F3xx_HAL_Driver/Src/stm32f3xx_hal_rcc.c ****   *         is automatically disabled and an interrupt is generated to inform the
 908:Drivers/STM32F3xx_HAL_Driver/Src/stm32f3xx_hal_rcc.c ****   *         software about the failure (Clock Security System Interrupt, CSSI),
 909:Drivers/STM32F3xx_HAL_Driver/Src/stm32f3xx_hal_rcc.c ****   *         allowing the MCU to perform rescue operations. The CSSI is linked to 
 910:Drivers/STM32F3xx_HAL_Driver/Src/stm32f3xx_hal_rcc.c ****   *         the Cortex-M4 NMI (Non-Maskable Interrupt) exception vector.  
 911:Drivers/STM32F3xx_HAL_Driver/Src/stm32f3xx_hal_rcc.c ****   * @retval None
 912:Drivers/STM32F3xx_HAL_Driver/Src/stm32f3xx_hal_rcc.c ****   */
 913:Drivers/STM32F3xx_HAL_Driver/Src/stm32f3xx_hal_rcc.c **** void HAL_RCC_EnableCSS(void)
 914:Drivers/STM32F3xx_HAL_Driver/Src/stm32f3xx_hal_rcc.c **** {
 1978              		.loc 1 914 1 is_stmt 1 view -0
 1979              		.cfi_startproc
 1980              		@ args = 0, pretend = 0, frame = 0
 1981              		@ frame_needed = 0, uses_anonymous_args = 0
 1982              		@ link register save eliminated.
 915:Drivers/STM32F3xx_HAL_Driver/Src/stm32f3xx_hal_rcc.c ****   *(__IO uint32_t *) RCC_CR_CSSON_BB = (uint32_t)ENABLE;
 1983              		.loc 1 915 3 view .LVU590
 1984              	.LVL157:
 1985              	.LBB289:
 1986              	.LBI289:
 526:Drivers/CMSIS/Include/cmsis_gcc.h **** {
 1987              		.loc 2 526 57 view .LVU591
 1988              	.LBB290:
 528:Drivers/CMSIS/Include/cmsis_gcc.h **** 
ARM GAS  /var/folders/8c/gyvcglfx7f97kbqb2h83mm_r0000gn/T//ccZyiauy.s 			page 69


 1989              		.loc 2 528 3 view .LVU592
 531:Drivers/CMSIS/Include/cmsis_gcc.h **** #else
 1990              		.loc 2 531 4 view .LVU593
 1991 0000 4FF40023 		mov	r3, #524288
 1992              		.syntax unified
 1993              	@ 531 "Drivers/CMSIS/Include/cmsis_gcc.h" 1
 1994 0004 93FAA3F3 		rbit r3, r3
 1995              	@ 0 "" 2
 1996              	.LVL158:
 1997              		.loc 2 544 3 view .LVU594
 1998              		.loc 2 544 3 is_stmt 0 view .LVU595
 1999              		.thumb
 2000              		.syntax unified
 2001              	.LBE290:
 2002              	.LBE289:
 2003              		.loc 1 915 22 view .LVU596
 2004 0008 B3FA83F3 		clz	r3, r3
 2005 000c 03F18453 		add	r3, r3, #276824064
 2006 0010 03F58413 		add	r3, r3, #1081344
 2007 0014 9B00     		lsls	r3, r3, #2
 2008              		.loc 1 915 38 view .LVU597
 2009 0016 0122     		movs	r2, #1
 2010 0018 1A60     		str	r2, [r3]
 916:Drivers/STM32F3xx_HAL_Driver/Src/stm32f3xx_hal_rcc.c **** }
 2011              		.loc 1 916 1 view .LVU598
 2012 001a 7047     		bx	lr
 2013              		.cfi_endproc
 2014              	.LFE130:
 2016              		.section	.text.HAL_RCC_DisableCSS,"ax",%progbits
 2017              		.align	1
 2018              		.global	HAL_RCC_DisableCSS
 2019              		.syntax unified
 2020              		.thumb
 2021              		.thumb_func
 2022              		.fpu fpv4-sp-d16
 2024              	HAL_RCC_DisableCSS:
 2025              	.LFB131:
 917:Drivers/STM32F3xx_HAL_Driver/Src/stm32f3xx_hal_rcc.c **** 
 918:Drivers/STM32F3xx_HAL_Driver/Src/stm32f3xx_hal_rcc.c **** /**
 919:Drivers/STM32F3xx_HAL_Driver/Src/stm32f3xx_hal_rcc.c ****   * @brief  Disables the Clock Security System.
 920:Drivers/STM32F3xx_HAL_Driver/Src/stm32f3xx_hal_rcc.c ****   * @retval None
 921:Drivers/STM32F3xx_HAL_Driver/Src/stm32f3xx_hal_rcc.c ****   */
 922:Drivers/STM32F3xx_HAL_Driver/Src/stm32f3xx_hal_rcc.c **** void HAL_RCC_DisableCSS(void)
 923:Drivers/STM32F3xx_HAL_Driver/Src/stm32f3xx_hal_rcc.c **** {
 2026              		.loc 1 923 1 is_stmt 1 view -0
 2027              		.cfi_startproc
 2028              		@ args = 0, pretend = 0, frame = 0
 2029              		@ frame_needed = 0, uses_anonymous_args = 0
 2030              		@ link register save eliminated.
 924:Drivers/STM32F3xx_HAL_Driver/Src/stm32f3xx_hal_rcc.c ****   *(__IO uint32_t *) RCC_CR_CSSON_BB = (uint32_t)DISABLE;
 2031              		.loc 1 924 3 view .LVU600
 2032              	.LVL159:
 2033              	.LBB291:
 2034              	.LBI291:
 526:Drivers/CMSIS/Include/cmsis_gcc.h **** {
 2035              		.loc 2 526 57 view .LVU601
 2036              	.LBB292:
ARM GAS  /var/folders/8c/gyvcglfx7f97kbqb2h83mm_r0000gn/T//ccZyiauy.s 			page 70


 528:Drivers/CMSIS/Include/cmsis_gcc.h **** 
 2037              		.loc 2 528 3 view .LVU602
 531:Drivers/CMSIS/Include/cmsis_gcc.h **** #else
 2038              		.loc 2 531 4 view .LVU603
 2039 0000 4FF40023 		mov	r3, #524288
 2040              		.syntax unified
 2041              	@ 531 "Drivers/CMSIS/Include/cmsis_gcc.h" 1
 2042 0004 93FAA3F3 		rbit r3, r3
 2043              	@ 0 "" 2
 2044              	.LVL160:
 2045              		.loc 2 544 3 view .LVU604
 2046              		.loc 2 544 3 is_stmt 0 view .LVU605
 2047              		.thumb
 2048              		.syntax unified
 2049              	.LBE292:
 2050              	.LBE291:
 2051              		.loc 1 924 22 view .LVU606
 2052 0008 B3FA83F3 		clz	r3, r3
 2053 000c 03F18453 		add	r3, r3, #276824064
 2054 0010 03F58413 		add	r3, r3, #1081344
 2055 0014 9B00     		lsls	r3, r3, #2
 2056              		.loc 1 924 38 view .LVU607
 2057 0016 0022     		movs	r2, #0
 2058 0018 1A60     		str	r2, [r3]
 925:Drivers/STM32F3xx_HAL_Driver/Src/stm32f3xx_hal_rcc.c **** }
 2059              		.loc 1 925 1 view .LVU608
 2060 001a 7047     		bx	lr
 2061              		.cfi_endproc
 2062              	.LFE131:
 2064              		.section	.text.HAL_RCC_GetSysClockFreq,"ax",%progbits
 2065              		.align	1
 2066              		.global	HAL_RCC_GetSysClockFreq
 2067              		.syntax unified
 2068              		.thumb
 2069              		.thumb_func
 2070              		.fpu fpv4-sp-d16
 2072              	HAL_RCC_GetSysClockFreq:
 2073              	.LFB132:
 926:Drivers/STM32F3xx_HAL_Driver/Src/stm32f3xx_hal_rcc.c **** 
 927:Drivers/STM32F3xx_HAL_Driver/Src/stm32f3xx_hal_rcc.c **** /**
 928:Drivers/STM32F3xx_HAL_Driver/Src/stm32f3xx_hal_rcc.c ****   * @brief  Returns the SYSCLK frequency     
 929:Drivers/STM32F3xx_HAL_Driver/Src/stm32f3xx_hal_rcc.c ****   * @note   The system frequency computed by this function is not the real 
 930:Drivers/STM32F3xx_HAL_Driver/Src/stm32f3xx_hal_rcc.c ****   *         frequency in the chip. It is calculated based on the predefined 
 931:Drivers/STM32F3xx_HAL_Driver/Src/stm32f3xx_hal_rcc.c ****   *         constant and the selected clock source:
 932:Drivers/STM32F3xx_HAL_Driver/Src/stm32f3xx_hal_rcc.c ****   * @note     If SYSCLK source is HSI, function returns values based on HSI_VALUE(*)
 933:Drivers/STM32F3xx_HAL_Driver/Src/stm32f3xx_hal_rcc.c ****   * @note     If SYSCLK source is HSE, function returns a value based on HSE_VALUE
 934:Drivers/STM32F3xx_HAL_Driver/Src/stm32f3xx_hal_rcc.c ****   *           divided by PREDIV factor(**)
 935:Drivers/STM32F3xx_HAL_Driver/Src/stm32f3xx_hal_rcc.c ****   * @note     If SYSCLK source is PLL, function returns a value based on HSE_VALUE
