ARM GAS  /var/folders/8c/gyvcglfx7f97kbqb2h83mm_r0000gn/T//cc2rlUQt.s 			page 1


   1              		.cpu cortex-m4
   2              		.eabi_attribute 27, 1
   3              		.eabi_attribute 28, 1
   4              		.eabi_attribute 20, 1
   5              		.eabi_attribute 21, 1
   6              		.eabi_attribute 23, 3
   7              		.eabi_attribute 24, 1
   8              		.eabi_attribute 25, 1
   9              		.eabi_attribute 26, 1
  10              		.eabi_attribute 30, 4
  11              		.eabi_attribute 34, 1
  12              		.eabi_attribute 18, 4
  13              		.file	"stm32f3xx_hal_flash.c"
  14              		.text
  15              	.Ltext0:
  16              		.cfi_sections	.debug_frame
  17              		.section	.text.FLASH_SetErrorCode,"ax",%progbits
  18              		.align	1
  19              		.arch armv7e-m
  20              		.syntax unified
  21              		.thumb
  22              		.thumb_func
  23              		.fpu fpv4-sp-d16
  25              	FLASH_SetErrorCode:
  26              	.LFB139:
  27              		.file 1 "Drivers/STM32F3xx_HAL_Driver/Src/stm32f3xx_hal_flash.c"
   1:Drivers/STM32F3xx_HAL_Driver/Src/stm32f3xx_hal_flash.c **** /**
   2:Drivers/STM32F3xx_HAL_Driver/Src/stm32f3xx_hal_flash.c ****   ******************************************************************************
   3:Drivers/STM32F3xx_HAL_Driver/Src/stm32f3xx_hal_flash.c ****   * @file    stm32f3xx_hal_flash.c
   4:Drivers/STM32F3xx_HAL_Driver/Src/stm32f3xx_hal_flash.c ****   * @author  MCD Application Team
   5:Drivers/STM32F3xx_HAL_Driver/Src/stm32f3xx_hal_flash.c ****   * @brief   FLASH HAL module driver.
   6:Drivers/STM32F3xx_HAL_Driver/Src/stm32f3xx_hal_flash.c ****   *          This file provides firmware functions to manage the following 
   7:Drivers/STM32F3xx_HAL_Driver/Src/stm32f3xx_hal_flash.c ****   *          functionalities of the internal FLASH memory:
   8:Drivers/STM32F3xx_HAL_Driver/Src/stm32f3xx_hal_flash.c ****   *           + Program operations functions
   9:Drivers/STM32F3xx_HAL_Driver/Src/stm32f3xx_hal_flash.c ****   *           + Memory Control functions 
  10:Drivers/STM32F3xx_HAL_Driver/Src/stm32f3xx_hal_flash.c ****   *           + Peripheral State functions
  11:Drivers/STM32F3xx_HAL_Driver/Src/stm32f3xx_hal_flash.c ****   *         
  12:Drivers/STM32F3xx_HAL_Driver/Src/stm32f3xx_hal_flash.c ****   @verbatim
  13:Drivers/STM32F3xx_HAL_Driver/Src/stm32f3xx_hal_flash.c ****   ==============================================================================
  14:Drivers/STM32F3xx_HAL_Driver/Src/stm32f3xx_hal_flash.c ****                         ##### FLASH peripheral features #####
  15:Drivers/STM32F3xx_HAL_Driver/Src/stm32f3xx_hal_flash.c ****   ==============================================================================
  16:Drivers/STM32F3xx_HAL_Driver/Src/stm32f3xx_hal_flash.c ****   [..] The Flash memory interface manages CPU AHB I-Code and D-Code accesses 
  17:Drivers/STM32F3xx_HAL_Driver/Src/stm32f3xx_hal_flash.c ****        to the Flash memory. It implements the erase and program Flash memory operations 
  18:Drivers/STM32F3xx_HAL_Driver/Src/stm32f3xx_hal_flash.c ****        and the read and write protection mechanisms.
  19:Drivers/STM32F3xx_HAL_Driver/Src/stm32f3xx_hal_flash.c **** 
  20:Drivers/STM32F3xx_HAL_Driver/Src/stm32f3xx_hal_flash.c ****   [..] The Flash memory interface accelerates code execution with a system of instruction
  21:Drivers/STM32F3xx_HAL_Driver/Src/stm32f3xx_hal_flash.c ****       prefetch. 
  22:Drivers/STM32F3xx_HAL_Driver/Src/stm32f3xx_hal_flash.c **** 
  23:Drivers/STM32F3xx_HAL_Driver/Src/stm32f3xx_hal_flash.c ****   [..] The FLASH main features are:
  24:Drivers/STM32F3xx_HAL_Driver/Src/stm32f3xx_hal_flash.c ****       (+) Flash memory read operations
  25:Drivers/STM32F3xx_HAL_Driver/Src/stm32f3xx_hal_flash.c ****       (+) Flash memory program/erase operations
  26:Drivers/STM32F3xx_HAL_Driver/Src/stm32f3xx_hal_flash.c ****       (+) Read / write protections
  27:Drivers/STM32F3xx_HAL_Driver/Src/stm32f3xx_hal_flash.c ****       (+) Prefetch on I-Code
  28:Drivers/STM32F3xx_HAL_Driver/Src/stm32f3xx_hal_flash.c ****       (+) Option Bytes programming
  29:Drivers/STM32F3xx_HAL_Driver/Src/stm32f3xx_hal_flash.c **** 
  30:Drivers/STM32F3xx_HAL_Driver/Src/stm32f3xx_hal_flash.c **** 
  31:Drivers/STM32F3xx_HAL_Driver/Src/stm32f3xx_hal_flash.c ****                      ##### How to use this driver #####
ARM GAS  /var/folders/8c/gyvcglfx7f97kbqb2h83mm_r0000gn/T//cc2rlUQt.s 			page 2


  32:Drivers/STM32F3xx_HAL_Driver/Src/stm32f3xx_hal_flash.c ****   ==============================================================================
  33:Drivers/STM32F3xx_HAL_Driver/Src/stm32f3xx_hal_flash.c ****   [..]                             
  34:Drivers/STM32F3xx_HAL_Driver/Src/stm32f3xx_hal_flash.c ****       This driver provides functions and macros to configure and program the FLASH 
  35:Drivers/STM32F3xx_HAL_Driver/Src/stm32f3xx_hal_flash.c ****       memory of all STM32F3xx devices.
  36:Drivers/STM32F3xx_HAL_Driver/Src/stm32f3xx_hal_flash.c ****     
  37:Drivers/STM32F3xx_HAL_Driver/Src/stm32f3xx_hal_flash.c ****       (#) FLASH Memory I/O Programming functions: this group includes all needed
  38:Drivers/STM32F3xx_HAL_Driver/Src/stm32f3xx_hal_flash.c ****           functions to erase and program the main memory:
  39:Drivers/STM32F3xx_HAL_Driver/Src/stm32f3xx_hal_flash.c ****         (++) Lock and Unlock the FLASH interface
  40:Drivers/STM32F3xx_HAL_Driver/Src/stm32f3xx_hal_flash.c ****         (++) Erase function: Erase page, erase all pages
  41:Drivers/STM32F3xx_HAL_Driver/Src/stm32f3xx_hal_flash.c ****         (++) Program functions: half word, word and doubleword
  42:Drivers/STM32F3xx_HAL_Driver/Src/stm32f3xx_hal_flash.c ****       (#) FLASH Option Bytes Programming functions: this group includes all needed
  43:Drivers/STM32F3xx_HAL_Driver/Src/stm32f3xx_hal_flash.c ****           functions to manage the Option Bytes:
  44:Drivers/STM32F3xx_HAL_Driver/Src/stm32f3xx_hal_flash.c ****         (++) Lock and Unlock the Option Bytes
  45:Drivers/STM32F3xx_HAL_Driver/Src/stm32f3xx_hal_flash.c ****         (++) Set/Reset the write protection
  46:Drivers/STM32F3xx_HAL_Driver/Src/stm32f3xx_hal_flash.c ****         (++) Set the Read protection Level
  47:Drivers/STM32F3xx_HAL_Driver/Src/stm32f3xx_hal_flash.c ****         (++) Program the user Option Bytes
  48:Drivers/STM32F3xx_HAL_Driver/Src/stm32f3xx_hal_flash.c ****         (++) Launch the Option Bytes loader
  49:Drivers/STM32F3xx_HAL_Driver/Src/stm32f3xx_hal_flash.c ****         (++) Erase Option Bytes
  50:Drivers/STM32F3xx_HAL_Driver/Src/stm32f3xx_hal_flash.c ****         (++) Program the data Option Bytes
  51:Drivers/STM32F3xx_HAL_Driver/Src/stm32f3xx_hal_flash.c ****         (++) Get the Write protection.
  52:Drivers/STM32F3xx_HAL_Driver/Src/stm32f3xx_hal_flash.c ****         (++) Get the user option bytes.
  53:Drivers/STM32F3xx_HAL_Driver/Src/stm32f3xx_hal_flash.c ****     
  54:Drivers/STM32F3xx_HAL_Driver/Src/stm32f3xx_hal_flash.c ****       (#) Interrupts and flags management functions : this group 
  55:Drivers/STM32F3xx_HAL_Driver/Src/stm32f3xx_hal_flash.c ****           includes all needed functions to:
  56:Drivers/STM32F3xx_HAL_Driver/Src/stm32f3xx_hal_flash.c ****         (++) Handle FLASH interrupts
  57:Drivers/STM32F3xx_HAL_Driver/Src/stm32f3xx_hal_flash.c ****         (++) Wait for last FLASH operation according to its status
  58:Drivers/STM32F3xx_HAL_Driver/Src/stm32f3xx_hal_flash.c ****         (++) Get error flag status
  59:Drivers/STM32F3xx_HAL_Driver/Src/stm32f3xx_hal_flash.c **** 
  60:Drivers/STM32F3xx_HAL_Driver/Src/stm32f3xx_hal_flash.c ****   [..] In addition to these function, this driver includes a set of macros allowing
  61:Drivers/STM32F3xx_HAL_Driver/Src/stm32f3xx_hal_flash.c ****        to handle the following operations:
  62:Drivers/STM32F3xx_HAL_Driver/Src/stm32f3xx_hal_flash.c ****       
  63:Drivers/STM32F3xx_HAL_Driver/Src/stm32f3xx_hal_flash.c ****       (+) Set/Get the latency
  64:Drivers/STM32F3xx_HAL_Driver/Src/stm32f3xx_hal_flash.c ****       (+) Enable/Disable the prefetch buffer
  65:Drivers/STM32F3xx_HAL_Driver/Src/stm32f3xx_hal_flash.c ****       (+) Enable/Disable the half cycle access
  66:Drivers/STM32F3xx_HAL_Driver/Src/stm32f3xx_hal_flash.c ****       (+) Enable/Disable the FLASH interrupts
  67:Drivers/STM32F3xx_HAL_Driver/Src/stm32f3xx_hal_flash.c ****       (+) Monitor the FLASH flags status
  68:Drivers/STM32F3xx_HAL_Driver/Src/stm32f3xx_hal_flash.c ****           
  69:Drivers/STM32F3xx_HAL_Driver/Src/stm32f3xx_hal_flash.c ****   @endverbatim
  70:Drivers/STM32F3xx_HAL_Driver/Src/stm32f3xx_hal_flash.c ****   ******************************************************************************
  71:Drivers/STM32F3xx_HAL_Driver/Src/stm32f3xx_hal_flash.c ****   * @attention
  72:Drivers/STM32F3xx_HAL_Driver/Src/stm32f3xx_hal_flash.c ****   *
  73:Drivers/STM32F3xx_HAL_Driver/Src/stm32f3xx_hal_flash.c ****   * <h2><center>&copy; COPYRIGHT(c) 2016 STMicroelectronics</center></h2>
  74:Drivers/STM32F3xx_HAL_Driver/Src/stm32f3xx_hal_flash.c ****   *
  75:Drivers/STM32F3xx_HAL_Driver/Src/stm32f3xx_hal_flash.c ****   * Redistribution and use in source and binary forms, with or without modification,
  76:Drivers/STM32F3xx_HAL_Driver/Src/stm32f3xx_hal_flash.c ****   * are permitted provided that the following conditions are met:
  77:Drivers/STM32F3xx_HAL_Driver/Src/stm32f3xx_hal_flash.c ****   *   1. Redistributions of source code must retain the above copyright notice,
  78:Drivers/STM32F3xx_HAL_Driver/Src/stm32f3xx_hal_flash.c ****   *      this list of conditions and the following disclaimer.
  79:Drivers/STM32F3xx_HAL_Driver/Src/stm32f3xx_hal_flash.c ****   *   2. Redistributions in binary form must reproduce the above copyright notice,
  80:Drivers/STM32F3xx_HAL_Driver/Src/stm32f3xx_hal_flash.c ****   *      this list of conditions and the following disclaimer in the documentation
  81:Drivers/STM32F3xx_HAL_Driver/Src/stm32f3xx_hal_flash.c ****   *      and/or other materials provided with the distribution.
  82:Drivers/STM32F3xx_HAL_Driver/Src/stm32f3xx_hal_flash.c ****   *   3. Neither the name of STMicroelectronics nor the names of its contributors
  83:Drivers/STM32F3xx_HAL_Driver/Src/stm32f3xx_hal_flash.c ****   *      may be used to endorse or promote products derived from this software
  84:Drivers/STM32F3xx_HAL_Driver/Src/stm32f3xx_hal_flash.c ****   *      without specific prior written permission.
  85:Drivers/STM32F3xx_HAL_Driver/Src/stm32f3xx_hal_flash.c ****   *
  86:Drivers/STM32F3xx_HAL_Driver/Src/stm32f3xx_hal_flash.c ****   * THIS SOFTWARE IS PROVIDED BY THE COPYRIGHT HOLDERS AND CONTRIBUTORS "AS IS"
  87:Drivers/STM32F3xx_HAL_Driver/Src/stm32f3xx_hal_flash.c ****   * AND ANY EXPRESS OR IMPLIED WARRANTIES, INCLUDING, BUT NOT LIMITED TO, THE
  88:Drivers/STM32F3xx_HAL_Driver/Src/stm32f3xx_hal_flash.c ****   * IMPLIED WARRANTIES OF MERCHANTABILITY AND FITNESS FOR A PARTICULAR PURPOSE ARE
ARM GAS  /var/folders/8c/gyvcglfx7f97kbqb2h83mm_r0000gn/T//cc2rlUQt.s 			page 3


  89:Drivers/STM32F3xx_HAL_Driver/Src/stm32f3xx_hal_flash.c ****   * DISCLAIMED. IN NO EVENT SHALL THE COPYRIGHT HOLDER OR CONTRIBUTORS BE LIABLE
  90:Drivers/STM32F3xx_HAL_Driver/Src/stm32f3xx_hal_flash.c ****   * FOR ANY DIRECT, INDIRECT, INCIDENTAL, SPECIAL, EXEMPLARY, OR CONSEQUENTIAL
  91:Drivers/STM32F3xx_HAL_Driver/Src/stm32f3xx_hal_flash.c ****   * DAMAGES (INCLUDING, BUT NOT LIMITED TO, PROCUREMENT OF SUBSTITUTE GOODS OR
  92:Drivers/STM32F3xx_HAL_Driver/Src/stm32f3xx_hal_flash.c ****   * SERVICES; LOSS OF USE, DATA, OR PROFITS; OR BUSINESS INTERRUPTION) HOWEVER
  93:Drivers/STM32F3xx_HAL_Driver/Src/stm32f3xx_hal_flash.c ****   * CAUSED AND ON ANY THEORY OF LIABILITY, WHETHER IN CONTRACT, STRICT LIABILITY,
  94:Drivers/STM32F3xx_HAL_Driver/Src/stm32f3xx_hal_flash.c ****   * OR TORT (INCLUDING NEGLIGENCE OR OTHERWISE) ARISING IN ANY WAY OUT OF THE USE
  95:Drivers/STM32F3xx_HAL_Driver/Src/stm32f3xx_hal_flash.c ****   * OF THIS SOFTWARE, EVEN IF ADVISED OF THE POSSIBILITY OF SUCH DAMAGE.
  96:Drivers/STM32F3xx_HAL_Driver/Src/stm32f3xx_hal_flash.c ****   *
  97:Drivers/STM32F3xx_HAL_Driver/Src/stm32f3xx_hal_flash.c ****   ******************************************************************************  
  98:Drivers/STM32F3xx_HAL_Driver/Src/stm32f3xx_hal_flash.c ****   */
  99:Drivers/STM32F3xx_HAL_Driver/Src/stm32f3xx_hal_flash.c **** 
 100:Drivers/STM32F3xx_HAL_Driver/Src/stm32f3xx_hal_flash.c **** /* Includes ------------------------------------------------------------------*/
 101:Drivers/STM32F3xx_HAL_Driver/Src/stm32f3xx_hal_flash.c **** #include "stm32f3xx_hal.h"
 102:Drivers/STM32F3xx_HAL_Driver/Src/stm32f3xx_hal_flash.c **** 
 103:Drivers/STM32F3xx_HAL_Driver/Src/stm32f3xx_hal_flash.c **** /** @addtogroup STM32F3xx_HAL_Driver
 104:Drivers/STM32F3xx_HAL_Driver/Src/stm32f3xx_hal_flash.c ****   * @{
 105:Drivers/STM32F3xx_HAL_Driver/Src/stm32f3xx_hal_flash.c ****   */
 106:Drivers/STM32F3xx_HAL_Driver/Src/stm32f3xx_hal_flash.c **** 
 107:Drivers/STM32F3xx_HAL_Driver/Src/stm32f3xx_hal_flash.c **** #ifdef HAL_FLASH_MODULE_ENABLED
 108:Drivers/STM32F3xx_HAL_Driver/Src/stm32f3xx_hal_flash.c **** 
 109:Drivers/STM32F3xx_HAL_Driver/Src/stm32f3xx_hal_flash.c **** /** @defgroup FLASH FLASH
 110:Drivers/STM32F3xx_HAL_Driver/Src/stm32f3xx_hal_flash.c ****   * @brief FLASH HAL module driver
 111:Drivers/STM32F3xx_HAL_Driver/Src/stm32f3xx_hal_flash.c ****   * @{
 112:Drivers/STM32F3xx_HAL_Driver/Src/stm32f3xx_hal_flash.c ****   */
 113:Drivers/STM32F3xx_HAL_Driver/Src/stm32f3xx_hal_flash.c **** 
 114:Drivers/STM32F3xx_HAL_Driver/Src/stm32f3xx_hal_flash.c **** /* Private typedef -----------------------------------------------------------*/
 115:Drivers/STM32F3xx_HAL_Driver/Src/stm32f3xx_hal_flash.c **** /* Private define ------------------------------------------------------------*/
 116:Drivers/STM32F3xx_HAL_Driver/Src/stm32f3xx_hal_flash.c **** /** @defgroup FLASH_Private_Constants FLASH Private Constants
 117:Drivers/STM32F3xx_HAL_Driver/Src/stm32f3xx_hal_flash.c ****   * @{
 118:Drivers/STM32F3xx_HAL_Driver/Src/stm32f3xx_hal_flash.c ****   */
 119:Drivers/STM32F3xx_HAL_Driver/Src/stm32f3xx_hal_flash.c **** /**
 120:Drivers/STM32F3xx_HAL_Driver/Src/stm32f3xx_hal_flash.c ****   * @}
 121:Drivers/STM32F3xx_HAL_Driver/Src/stm32f3xx_hal_flash.c ****   */
 122:Drivers/STM32F3xx_HAL_Driver/Src/stm32f3xx_hal_flash.c **** 
 123:Drivers/STM32F3xx_HAL_Driver/Src/stm32f3xx_hal_flash.c **** /* Private macro ---------------------------- ---------------------------------*/
 124:Drivers/STM32F3xx_HAL_Driver/Src/stm32f3xx_hal_flash.c **** /** @defgroup FLASH_Private_Macros FLASH Private Macros
 125:Drivers/STM32F3xx_HAL_Driver/Src/stm32f3xx_hal_flash.c ****   * @{
 126:Drivers/STM32F3xx_HAL_Driver/Src/stm32f3xx_hal_flash.c ****   */
 127:Drivers/STM32F3xx_HAL_Driver/Src/stm32f3xx_hal_flash.c ****  
 128:Drivers/STM32F3xx_HAL_Driver/Src/stm32f3xx_hal_flash.c **** /**
 129:Drivers/STM32F3xx_HAL_Driver/Src/stm32f3xx_hal_flash.c ****   * @}
 130:Drivers/STM32F3xx_HAL_Driver/Src/stm32f3xx_hal_flash.c ****   */
 131:Drivers/STM32F3xx_HAL_Driver/Src/stm32f3xx_hal_flash.c **** 
 132:Drivers/STM32F3xx_HAL_Driver/Src/stm32f3xx_hal_flash.c **** /* Private variables ---------------------------------------------------------*/
 133:Drivers/STM32F3xx_HAL_Driver/Src/stm32f3xx_hal_flash.c **** /** @defgroup FLASH_Private_Variables FLASH Private Variables
 134:Drivers/STM32F3xx_HAL_Driver/Src/stm32f3xx_hal_flash.c ****   * @{
 135:Drivers/STM32F3xx_HAL_Driver/Src/stm32f3xx_hal_flash.c ****   */
 136:Drivers/STM32F3xx_HAL_Driver/Src/stm32f3xx_hal_flash.c **** /* Variables used for Erase pages under interruption*/
 137:Drivers/STM32F3xx_HAL_Driver/Src/stm32f3xx_hal_flash.c **** FLASH_ProcessTypeDef pFlash;
 138:Drivers/STM32F3xx_HAL_Driver/Src/stm32f3xx_hal_flash.c **** /**
 139:Drivers/STM32F3xx_HAL_Driver/Src/stm32f3xx_hal_flash.c ****   * @}
 140:Drivers/STM32F3xx_HAL_Driver/Src/stm32f3xx_hal_flash.c ****   */
 141:Drivers/STM32F3xx_HAL_Driver/Src/stm32f3xx_hal_flash.c **** 
 142:Drivers/STM32F3xx_HAL_Driver/Src/stm32f3xx_hal_flash.c **** /* Private function prototypes -----------------------------------------------*/
 143:Drivers/STM32F3xx_HAL_Driver/Src/stm32f3xx_hal_flash.c **** /** @defgroup FLASH_Private_Functions FLASH Private Functions
 144:Drivers/STM32F3xx_HAL_Driver/Src/stm32f3xx_hal_flash.c ****   * @{
 145:Drivers/STM32F3xx_HAL_Driver/Src/stm32f3xx_hal_flash.c ****   */
ARM GAS  /var/folders/8c/gyvcglfx7f97kbqb2h83mm_r0000gn/T//cc2rlUQt.s 			page 4


 146:Drivers/STM32F3xx_HAL_Driver/Src/stm32f3xx_hal_flash.c **** static  void   FLASH_Program_HalfWord(uint32_t Address, uint16_t Data);
 147:Drivers/STM32F3xx_HAL_Driver/Src/stm32f3xx_hal_flash.c **** static  void   FLASH_SetErrorCode(void);
 148:Drivers/STM32F3xx_HAL_Driver/Src/stm32f3xx_hal_flash.c **** extern void    FLASH_PageErase(uint32_t PageAddress);
 149:Drivers/STM32F3xx_HAL_Driver/Src/stm32f3xx_hal_flash.c **** /**
 150:Drivers/STM32F3xx_HAL_Driver/Src/stm32f3xx_hal_flash.c ****   * @}
 151:Drivers/STM32F3xx_HAL_Driver/Src/stm32f3xx_hal_flash.c ****   */
 152:Drivers/STM32F3xx_HAL_Driver/Src/stm32f3xx_hal_flash.c **** 
 153:Drivers/STM32F3xx_HAL_Driver/Src/stm32f3xx_hal_flash.c **** /* Exported functions ---------------------------------------------------------*/
 154:Drivers/STM32F3xx_HAL_Driver/Src/stm32f3xx_hal_flash.c **** /** @defgroup FLASH_Exported_Functions FLASH Exported Functions
 155:Drivers/STM32F3xx_HAL_Driver/Src/stm32f3xx_hal_flash.c ****   * @{
 156:Drivers/STM32F3xx_HAL_Driver/Src/stm32f3xx_hal_flash.c ****   */
 157:Drivers/STM32F3xx_HAL_Driver/Src/stm32f3xx_hal_flash.c ****   
 158:Drivers/STM32F3xx_HAL_Driver/Src/stm32f3xx_hal_flash.c **** /** @defgroup FLASH_Exported_Functions_Group1 Programming operation functions 
 159:Drivers/STM32F3xx_HAL_Driver/Src/stm32f3xx_hal_flash.c ****   *  @brief   Programming operation functions 
 160:Drivers/STM32F3xx_HAL_Driver/Src/stm32f3xx_hal_flash.c ****   *
 161:Drivers/STM32F3xx_HAL_Driver/Src/stm32f3xx_hal_flash.c **** @verbatim   
 162:Drivers/STM32F3xx_HAL_Driver/Src/stm32f3xx_hal_flash.c **** @endverbatim
 163:Drivers/STM32F3xx_HAL_Driver/Src/stm32f3xx_hal_flash.c ****   * @{
 164:Drivers/STM32F3xx_HAL_Driver/Src/stm32f3xx_hal_flash.c ****   */
 165:Drivers/STM32F3xx_HAL_Driver/Src/stm32f3xx_hal_flash.c **** 
 166:Drivers/STM32F3xx_HAL_Driver/Src/stm32f3xx_hal_flash.c **** /**
 167:Drivers/STM32F3xx_HAL_Driver/Src/stm32f3xx_hal_flash.c ****   * @brief  Program halfword, word or double word at a specified address
 168:Drivers/STM32F3xx_HAL_Driver/Src/stm32f3xx_hal_flash.c ****   * @note   The function HAL_FLASH_Unlock() should be called before to unlock the FLASH interface
 169:Drivers/STM32F3xx_HAL_Driver/Src/stm32f3xx_hal_flash.c ****   *         The function HAL_FLASH_Lock() should be called after to lock the FLASH interface
 170:Drivers/STM32F3xx_HAL_Driver/Src/stm32f3xx_hal_flash.c ****   *
 171:Drivers/STM32F3xx_HAL_Driver/Src/stm32f3xx_hal_flash.c ****   * @note   If an erase and a program operations are requested simultaneously,    
 172:Drivers/STM32F3xx_HAL_Driver/Src/stm32f3xx_hal_flash.c ****   *         the erase operation is performed before the program one.
 173:Drivers/STM32F3xx_HAL_Driver/Src/stm32f3xx_hal_flash.c ****   *  
 174:Drivers/STM32F3xx_HAL_Driver/Src/stm32f3xx_hal_flash.c ****   * @note   FLASH should be previously erased before new programming (only exception to this 
 175:Drivers/STM32F3xx_HAL_Driver/Src/stm32f3xx_hal_flash.c ****   *         is when 0x0000 is programmed)
 176:Drivers/STM32F3xx_HAL_Driver/Src/stm32f3xx_hal_flash.c ****   *
 177:Drivers/STM32F3xx_HAL_Driver/Src/stm32f3xx_hal_flash.c ****   * @param  TypeProgram   Indicate the way to program at a specified address.
 178:Drivers/STM32F3xx_HAL_Driver/Src/stm32f3xx_hal_flash.c ****   *                       This parameter can be a value of @ref FLASH_Type_Program
 179:Drivers/STM32F3xx_HAL_Driver/Src/stm32f3xx_hal_flash.c ****   * @param  Address       Specifie the address to be programmed.
 180:Drivers/STM32F3xx_HAL_Driver/Src/stm32f3xx_hal_flash.c ****   * @param  Data          Specifie the data to be programmed
 181:Drivers/STM32F3xx_HAL_Driver/Src/stm32f3xx_hal_flash.c ****   * 
 182:Drivers/STM32F3xx_HAL_Driver/Src/stm32f3xx_hal_flash.c ****   * @retval HAL_StatusTypeDef HAL Status
 183:Drivers/STM32F3xx_HAL_Driver/Src/stm32f3xx_hal_flash.c ****   */
 184:Drivers/STM32F3xx_HAL_Driver/Src/stm32f3xx_hal_flash.c **** HAL_StatusTypeDef HAL_FLASH_Program(uint32_t TypeProgram, uint32_t Address, uint64_t Data)
 185:Drivers/STM32F3xx_HAL_Driver/Src/stm32f3xx_hal_flash.c **** {
 186:Drivers/STM32F3xx_HAL_Driver/Src/stm32f3xx_hal_flash.c ****   HAL_StatusTypeDef status = HAL_ERROR;
 187:Drivers/STM32F3xx_HAL_Driver/Src/stm32f3xx_hal_flash.c ****   uint8_t index = 0U;
 188:Drivers/STM32F3xx_HAL_Driver/Src/stm32f3xx_hal_flash.c ****   uint8_t nbiterations = 0U;
 189:Drivers/STM32F3xx_HAL_Driver/Src/stm32f3xx_hal_flash.c ****   
 190:Drivers/STM32F3xx_HAL_Driver/Src/stm32f3xx_hal_flash.c ****   /* Process Locked */
 191:Drivers/STM32F3xx_HAL_Driver/Src/stm32f3xx_hal_flash.c ****   __HAL_LOCK(&pFlash);
 192:Drivers/STM32F3xx_HAL_Driver/Src/stm32f3xx_hal_flash.c **** 
 193:Drivers/STM32F3xx_HAL_Driver/Src/stm32f3xx_hal_flash.c ****   /* Check the parameters */
 194:Drivers/STM32F3xx_HAL_Driver/Src/stm32f3xx_hal_flash.c ****   assert_param(IS_FLASH_TYPEPROGRAM(TypeProgram));
 195:Drivers/STM32F3xx_HAL_Driver/Src/stm32f3xx_hal_flash.c ****   assert_param(IS_FLASH_PROGRAM_ADDRESS(Address));
 196:Drivers/STM32F3xx_HAL_Driver/Src/stm32f3xx_hal_flash.c **** 
 197:Drivers/STM32F3xx_HAL_Driver/Src/stm32f3xx_hal_flash.c ****     /* Wait for last operation to be completed */
 198:Drivers/STM32F3xx_HAL_Driver/Src/stm32f3xx_hal_flash.c ****     status = FLASH_WaitForLastOperation(FLASH_TIMEOUT_VALUE);
 199:Drivers/STM32F3xx_HAL_Driver/Src/stm32f3xx_hal_flash.c ****   
 200:Drivers/STM32F3xx_HAL_Driver/Src/stm32f3xx_hal_flash.c ****   if(status == HAL_OK)
 201:Drivers/STM32F3xx_HAL_Driver/Src/stm32f3xx_hal_flash.c ****   {
 202:Drivers/STM32F3xx_HAL_Driver/Src/stm32f3xx_hal_flash.c ****     if(TypeProgram == FLASH_TYPEPROGRAM_HALFWORD)
ARM GAS  /var/folders/8c/gyvcglfx7f97kbqb2h83mm_r0000gn/T//cc2rlUQt.s 			page 5


 203:Drivers/STM32F3xx_HAL_Driver/Src/stm32f3xx_hal_flash.c ****     {
 204:Drivers/STM32F3xx_HAL_Driver/Src/stm32f3xx_hal_flash.c ****       /* Program halfword (16-bit) at a specified address. */
 205:Drivers/STM32F3xx_HAL_Driver/Src/stm32f3xx_hal_flash.c ****       nbiterations = 1U;
 206:Drivers/STM32F3xx_HAL_Driver/Src/stm32f3xx_hal_flash.c ****     }
 207:Drivers/STM32F3xx_HAL_Driver/Src/stm32f3xx_hal_flash.c ****     else if(TypeProgram == FLASH_TYPEPROGRAM_WORD)
 208:Drivers/STM32F3xx_HAL_Driver/Src/stm32f3xx_hal_flash.c ****     {
 209:Drivers/STM32F3xx_HAL_Driver/Src/stm32f3xx_hal_flash.c ****       /* Program word (32-bit = 2*16-bit) at a specified address. */
 210:Drivers/STM32F3xx_HAL_Driver/Src/stm32f3xx_hal_flash.c ****       nbiterations = 2U;
 211:Drivers/STM32F3xx_HAL_Driver/Src/stm32f3xx_hal_flash.c ****     }
 212:Drivers/STM32F3xx_HAL_Driver/Src/stm32f3xx_hal_flash.c ****     else
 213:Drivers/STM32F3xx_HAL_Driver/Src/stm32f3xx_hal_flash.c ****     {
 214:Drivers/STM32F3xx_HAL_Driver/Src/stm32f3xx_hal_flash.c ****       /* Program double word (64-bit = 4*16-bit) at a specified address. */
 215:Drivers/STM32F3xx_HAL_Driver/Src/stm32f3xx_hal_flash.c ****       nbiterations = 4U;
 216:Drivers/STM32F3xx_HAL_Driver/Src/stm32f3xx_hal_flash.c ****     }
 217:Drivers/STM32F3xx_HAL_Driver/Src/stm32f3xx_hal_flash.c **** 
 218:Drivers/STM32F3xx_HAL_Driver/Src/stm32f3xx_hal_flash.c ****     for (index = 0U; index < nbiterations; index++)
 219:Drivers/STM32F3xx_HAL_Driver/Src/stm32f3xx_hal_flash.c ****     {
 220:Drivers/STM32F3xx_HAL_Driver/Src/stm32f3xx_hal_flash.c ****       FLASH_Program_HalfWord((Address + (2U*index)), (uint16_t)(Data >> (16U*index)));
 221:Drivers/STM32F3xx_HAL_Driver/Src/stm32f3xx_hal_flash.c **** 
 222:Drivers/STM32F3xx_HAL_Driver/Src/stm32f3xx_hal_flash.c ****         /* Wait for last operation to be completed */
 223:Drivers/STM32F3xx_HAL_Driver/Src/stm32f3xx_hal_flash.c ****         status = FLASH_WaitForLastOperation(FLASH_TIMEOUT_VALUE);
 224:Drivers/STM32F3xx_HAL_Driver/Src/stm32f3xx_hal_flash.c ****     
 225:Drivers/STM32F3xx_HAL_Driver/Src/stm32f3xx_hal_flash.c ****         /* If the program operation is completed, disable the PG Bit */
 226:Drivers/STM32F3xx_HAL_Driver/Src/stm32f3xx_hal_flash.c ****         CLEAR_BIT(FLASH->CR, FLASH_CR_PG);
 227:Drivers/STM32F3xx_HAL_Driver/Src/stm32f3xx_hal_flash.c ****       /* In case of error, stop programming procedure */
 228:Drivers/STM32F3xx_HAL_Driver/Src/stm32f3xx_hal_flash.c ****       if (status != HAL_OK)
 229:Drivers/STM32F3xx_HAL_Driver/Src/stm32f3xx_hal_flash.c ****       {
 230:Drivers/STM32F3xx_HAL_Driver/Src/stm32f3xx_hal_flash.c ****         break;
 231:Drivers/STM32F3xx_HAL_Driver/Src/stm32f3xx_hal_flash.c ****       }
 232:Drivers/STM32F3xx_HAL_Driver/Src/stm32f3xx_hal_flash.c ****     }
 233:Drivers/STM32F3xx_HAL_Driver/Src/stm32f3xx_hal_flash.c ****   }
 234:Drivers/STM32F3xx_HAL_Driver/Src/stm32f3xx_hal_flash.c **** 
 235:Drivers/STM32F3xx_HAL_Driver/Src/stm32f3xx_hal_flash.c ****   /* Process Unlocked */
 236:Drivers/STM32F3xx_HAL_Driver/Src/stm32f3xx_hal_flash.c ****   __HAL_UNLOCK(&pFlash);
 237:Drivers/STM32F3xx_HAL_Driver/Src/stm32f3xx_hal_flash.c **** 
 238:Drivers/STM32F3xx_HAL_Driver/Src/stm32f3xx_hal_flash.c ****   return status;
 239:Drivers/STM32F3xx_HAL_Driver/Src/stm32f3xx_hal_flash.c **** }
 240:Drivers/STM32F3xx_HAL_Driver/Src/stm32f3xx_hal_flash.c **** 
 241:Drivers/STM32F3xx_HAL_Driver/Src/stm32f3xx_hal_flash.c **** /**
 242:Drivers/STM32F3xx_HAL_Driver/Src/stm32f3xx_hal_flash.c ****   * @brief  Program halfword, word or double word at a specified address  with interrupt enabled.
 243:Drivers/STM32F3xx_HAL_Driver/Src/stm32f3xx_hal_flash.c ****   * @note   The function HAL_FLASH_Unlock() should be called before to unlock the FLASH interface
 244:Drivers/STM32F3xx_HAL_Driver/Src/stm32f3xx_hal_flash.c ****   *         The function HAL_FLASH_Lock() should be called after to lock the FLASH interface
 245:Drivers/STM32F3xx_HAL_Driver/Src/stm32f3xx_hal_flash.c ****   *
 246:Drivers/STM32F3xx_HAL_Driver/Src/stm32f3xx_hal_flash.c ****   * @note   If an erase and a program operations are requested simultaneously,    
 247:Drivers/STM32F3xx_HAL_Driver/Src/stm32f3xx_hal_flash.c ****   *         the erase operation is performed before the program one.
 248:Drivers/STM32F3xx_HAL_Driver/Src/stm32f3xx_hal_flash.c ****   *
 249:Drivers/STM32F3xx_HAL_Driver/Src/stm32f3xx_hal_flash.c ****   * @param  TypeProgram  Indicate the way to program at a specified address.
 250:Drivers/STM32F3xx_HAL_Driver/Src/stm32f3xx_hal_flash.c ****   *                      This parameter can be a value of @ref FLASH_Type_Program
 251:Drivers/STM32F3xx_HAL_Driver/Src/stm32f3xx_hal_flash.c ****   * @param  Address      Specifie the address to be programmed.
 252:Drivers/STM32F3xx_HAL_Driver/Src/stm32f3xx_hal_flash.c ****   * @param  Data         Specifie the data to be programmed
 253:Drivers/STM32F3xx_HAL_Driver/Src/stm32f3xx_hal_flash.c ****   * 
 254:Drivers/STM32F3xx_HAL_Driver/Src/stm32f3xx_hal_flash.c ****   * @retval HAL_StatusTypeDef HAL Status
 255:Drivers/STM32F3xx_HAL_Driver/Src/stm32f3xx_hal_flash.c ****   */
 256:Drivers/STM32F3xx_HAL_Driver/Src/stm32f3xx_hal_flash.c **** HAL_StatusTypeDef HAL_FLASH_Program_IT(uint32_t TypeProgram, uint32_t Address, uint64_t Data)
 257:Drivers/STM32F3xx_HAL_Driver/Src/stm32f3xx_hal_flash.c **** {
 258:Drivers/STM32F3xx_HAL_Driver/Src/stm32f3xx_hal_flash.c ****   HAL_StatusTypeDef status = HAL_OK;
 259:Drivers/STM32F3xx_HAL_Driver/Src/stm32f3xx_hal_flash.c ****   
ARM GAS  /var/folders/8c/gyvcglfx7f97kbqb2h83mm_r0000gn/T//cc2rlUQt.s 			page 6


 260:Drivers/STM32F3xx_HAL_Driver/Src/stm32f3xx_hal_flash.c ****   /* Process Locked */
 261:Drivers/STM32F3xx_HAL_Driver/Src/stm32f3xx_hal_flash.c ****   __HAL_LOCK(&pFlash);
 262:Drivers/STM32F3xx_HAL_Driver/Src/stm32f3xx_hal_flash.c **** 
 263:Drivers/STM32F3xx_HAL_Driver/Src/stm32f3xx_hal_flash.c ****   /* Check the parameters */
 264:Drivers/STM32F3xx_HAL_Driver/Src/stm32f3xx_hal_flash.c ****   assert_param(IS_FLASH_TYPEPROGRAM(TypeProgram));
 265:Drivers/STM32F3xx_HAL_Driver/Src/stm32f3xx_hal_flash.c ****   assert_param(IS_FLASH_PROGRAM_ADDRESS(Address));
 266:Drivers/STM32F3xx_HAL_Driver/Src/stm32f3xx_hal_flash.c **** 
 267:Drivers/STM32F3xx_HAL_Driver/Src/stm32f3xx_hal_flash.c ****   /* Enable End of FLASH Operation and Error source interrupts */
 268:Drivers/STM32F3xx_HAL_Driver/Src/stm32f3xx_hal_flash.c ****   __HAL_FLASH_ENABLE_IT(FLASH_IT_EOP | FLASH_IT_ERR);
 269:Drivers/STM32F3xx_HAL_Driver/Src/stm32f3xx_hal_flash.c ****   
 270:Drivers/STM32F3xx_HAL_Driver/Src/stm32f3xx_hal_flash.c ****   pFlash.Address = Address;
 271:Drivers/STM32F3xx_HAL_Driver/Src/stm32f3xx_hal_flash.c ****   pFlash.Data = Data;
 272:Drivers/STM32F3xx_HAL_Driver/Src/stm32f3xx_hal_flash.c **** 
 273:Drivers/STM32F3xx_HAL_Driver/Src/stm32f3xx_hal_flash.c ****   if(TypeProgram == FLASH_TYPEPROGRAM_HALFWORD)
 274:Drivers/STM32F3xx_HAL_Driver/Src/stm32f3xx_hal_flash.c ****   {
 275:Drivers/STM32F3xx_HAL_Driver/Src/stm32f3xx_hal_flash.c ****     pFlash.ProcedureOnGoing = FLASH_PROC_PROGRAMHALFWORD;
 276:Drivers/STM32F3xx_HAL_Driver/Src/stm32f3xx_hal_flash.c ****     /* Program halfword (16-bit) at a specified address. */
 277:Drivers/STM32F3xx_HAL_Driver/Src/stm32f3xx_hal_flash.c ****     pFlash.DataRemaining = 1U;
 278:Drivers/STM32F3xx_HAL_Driver/Src/stm32f3xx_hal_flash.c ****   }
 279:Drivers/STM32F3xx_HAL_Driver/Src/stm32f3xx_hal_flash.c ****   else if(TypeProgram == FLASH_TYPEPROGRAM_WORD)
 280:Drivers/STM32F3xx_HAL_Driver/Src/stm32f3xx_hal_flash.c ****   {
 281:Drivers/STM32F3xx_HAL_Driver/Src/stm32f3xx_hal_flash.c ****     pFlash.ProcedureOnGoing = FLASH_PROC_PROGRAMWORD;
 282:Drivers/STM32F3xx_HAL_Driver/Src/stm32f3xx_hal_flash.c ****     /* Program word (32-bit : 2*16-bit) at a specified address. */
 283:Drivers/STM32F3xx_HAL_Driver/Src/stm32f3xx_hal_flash.c ****     pFlash.DataRemaining = 2U;
 284:Drivers/STM32F3xx_HAL_Driver/Src/stm32f3xx_hal_flash.c ****   }
 285:Drivers/STM32F3xx_HAL_Driver/Src/stm32f3xx_hal_flash.c ****   else
 286:Drivers/STM32F3xx_HAL_Driver/Src/stm32f3xx_hal_flash.c ****   {
 287:Drivers/STM32F3xx_HAL_Driver/Src/stm32f3xx_hal_flash.c ****     pFlash.ProcedureOnGoing = FLASH_PROC_PROGRAMDOUBLEWORD;
 288:Drivers/STM32F3xx_HAL_Driver/Src/stm32f3xx_hal_flash.c ****     /* Program double word (64-bit : 4*16-bit) at a specified address. */
 289:Drivers/STM32F3xx_HAL_Driver/Src/stm32f3xx_hal_flash.c ****     pFlash.DataRemaining = 4U;
 290:Drivers/STM32F3xx_HAL_Driver/Src/stm32f3xx_hal_flash.c ****   }
 291:Drivers/STM32F3xx_HAL_Driver/Src/stm32f3xx_hal_flash.c **** 
 292:Drivers/STM32F3xx_HAL_Driver/Src/stm32f3xx_hal_flash.c ****   /* Program halfword (16-bit) at a specified address. */
 293:Drivers/STM32F3xx_HAL_Driver/Src/stm32f3xx_hal_flash.c ****   FLASH_Program_HalfWord(Address, (uint16_t)Data);
 294:Drivers/STM32F3xx_HAL_Driver/Src/stm32f3xx_hal_flash.c **** 
 295:Drivers/STM32F3xx_HAL_Driver/Src/stm32f3xx_hal_flash.c ****   return status;
 296:Drivers/STM32F3xx_HAL_Driver/Src/stm32f3xx_hal_flash.c **** }
 297:Drivers/STM32F3xx_HAL_Driver/Src/stm32f3xx_hal_flash.c **** 
 298:Drivers/STM32F3xx_HAL_Driver/Src/stm32f3xx_hal_flash.c **** /**
 299:Drivers/STM32F3xx_HAL_Driver/Src/stm32f3xx_hal_flash.c ****   * @brief This function handles FLASH interrupt request.
 300:Drivers/STM32F3xx_HAL_Driver/Src/stm32f3xx_hal_flash.c ****   * @retval None
 301:Drivers/STM32F3xx_HAL_Driver/Src/stm32f3xx_hal_flash.c ****   */
 302:Drivers/STM32F3xx_HAL_Driver/Src/stm32f3xx_hal_flash.c **** void HAL_FLASH_IRQHandler(void)
 303:Drivers/STM32F3xx_HAL_Driver/Src/stm32f3xx_hal_flash.c **** {
 304:Drivers/STM32F3xx_HAL_Driver/Src/stm32f3xx_hal_flash.c ****   uint32_t addresstmp = 0U;
 305:Drivers/STM32F3xx_HAL_Driver/Src/stm32f3xx_hal_flash.c ****   
 306:Drivers/STM32F3xx_HAL_Driver/Src/stm32f3xx_hal_flash.c ****   /* Check FLASH operation error flags */
 307:Drivers/STM32F3xx_HAL_Driver/Src/stm32f3xx_hal_flash.c ****   if(__HAL_FLASH_GET_FLAG(FLASH_FLAG_WRPERR) ||__HAL_FLASH_GET_FLAG(FLASH_FLAG_PGERR))
 308:Drivers/STM32F3xx_HAL_Driver/Src/stm32f3xx_hal_flash.c ****   {
 309:Drivers/STM32F3xx_HAL_Driver/Src/stm32f3xx_hal_flash.c ****     /* Return the faulty address */
 310:Drivers/STM32F3xx_HAL_Driver/Src/stm32f3xx_hal_flash.c ****     addresstmp = pFlash.Address;
 311:Drivers/STM32F3xx_HAL_Driver/Src/stm32f3xx_hal_flash.c ****     /* Reset address */
 312:Drivers/STM32F3xx_HAL_Driver/Src/stm32f3xx_hal_flash.c ****     pFlash.Address = 0xFFFFFFFFU;
 313:Drivers/STM32F3xx_HAL_Driver/Src/stm32f3xx_hal_flash.c ****   
 314:Drivers/STM32F3xx_HAL_Driver/Src/stm32f3xx_hal_flash.c ****     /* Save the Error code */
 315:Drivers/STM32F3xx_HAL_Driver/Src/stm32f3xx_hal_flash.c ****     FLASH_SetErrorCode();
 316:Drivers/STM32F3xx_HAL_Driver/Src/stm32f3xx_hal_flash.c ****     
ARM GAS  /var/folders/8c/gyvcglfx7f97kbqb2h83mm_r0000gn/T//cc2rlUQt.s 			page 7


 317:Drivers/STM32F3xx_HAL_Driver/Src/stm32f3xx_hal_flash.c ****     /* FLASH error interrupt user callback */
 318:Drivers/STM32F3xx_HAL_Driver/Src/stm32f3xx_hal_flash.c ****     HAL_FLASH_OperationErrorCallback(addresstmp);
 319:Drivers/STM32F3xx_HAL_Driver/Src/stm32f3xx_hal_flash.c **** 
 320:Drivers/STM32F3xx_HAL_Driver/Src/stm32f3xx_hal_flash.c ****     /* Stop the procedure ongoing */
 321:Drivers/STM32F3xx_HAL_Driver/Src/stm32f3xx_hal_flash.c ****     pFlash.ProcedureOnGoing = FLASH_PROC_NONE;
 322:Drivers/STM32F3xx_HAL_Driver/Src/stm32f3xx_hal_flash.c ****   }
 323:Drivers/STM32F3xx_HAL_Driver/Src/stm32f3xx_hal_flash.c **** 
 324:Drivers/STM32F3xx_HAL_Driver/Src/stm32f3xx_hal_flash.c ****   /* Check FLASH End of Operation flag  */
 325:Drivers/STM32F3xx_HAL_Driver/Src/stm32f3xx_hal_flash.c ****   if(__HAL_FLASH_GET_FLAG(FLASH_FLAG_EOP))
 326:Drivers/STM32F3xx_HAL_Driver/Src/stm32f3xx_hal_flash.c ****   {
 327:Drivers/STM32F3xx_HAL_Driver/Src/stm32f3xx_hal_flash.c ****     /* Clear FLASH End of Operation pending bit */
 328:Drivers/STM32F3xx_HAL_Driver/Src/stm32f3xx_hal_flash.c ****     __HAL_FLASH_CLEAR_FLAG(FLASH_FLAG_EOP);
 329:Drivers/STM32F3xx_HAL_Driver/Src/stm32f3xx_hal_flash.c ****     
 330:Drivers/STM32F3xx_HAL_Driver/Src/stm32f3xx_hal_flash.c ****     /* Process can continue only if no error detected */
 331:Drivers/STM32F3xx_HAL_Driver/Src/stm32f3xx_hal_flash.c ****     if(pFlash.ProcedureOnGoing != FLASH_PROC_NONE)
 332:Drivers/STM32F3xx_HAL_Driver/Src/stm32f3xx_hal_flash.c ****     {
 333:Drivers/STM32F3xx_HAL_Driver/Src/stm32f3xx_hal_flash.c ****       if(pFlash.ProcedureOnGoing == FLASH_PROC_PAGEERASE)
 334:Drivers/STM32F3xx_HAL_Driver/Src/stm32f3xx_hal_flash.c ****       {
 335:Drivers/STM32F3xx_HAL_Driver/Src/stm32f3xx_hal_flash.c ****         /* Nb of pages to erased can be decreased */
 336:Drivers/STM32F3xx_HAL_Driver/Src/stm32f3xx_hal_flash.c ****         pFlash.DataRemaining--;
 337:Drivers/STM32F3xx_HAL_Driver/Src/stm32f3xx_hal_flash.c **** 
 338:Drivers/STM32F3xx_HAL_Driver/Src/stm32f3xx_hal_flash.c ****         /* Check if there are still pages to erase */
 339:Drivers/STM32F3xx_HAL_Driver/Src/stm32f3xx_hal_flash.c ****         if(pFlash.DataRemaining != 0U)
 340:Drivers/STM32F3xx_HAL_Driver/Src/stm32f3xx_hal_flash.c ****         {
 341:Drivers/STM32F3xx_HAL_Driver/Src/stm32f3xx_hal_flash.c ****           addresstmp = pFlash.Address;
 342:Drivers/STM32F3xx_HAL_Driver/Src/stm32f3xx_hal_flash.c ****           /*Indicate user which sector has been erased */
 343:Drivers/STM32F3xx_HAL_Driver/Src/stm32f3xx_hal_flash.c ****           HAL_FLASH_EndOfOperationCallback(addresstmp);
 344:Drivers/STM32F3xx_HAL_Driver/Src/stm32f3xx_hal_flash.c **** 
 345:Drivers/STM32F3xx_HAL_Driver/Src/stm32f3xx_hal_flash.c ****           /*Increment sector number*/
 346:Drivers/STM32F3xx_HAL_Driver/Src/stm32f3xx_hal_flash.c ****           addresstmp = pFlash.Address + FLASH_PAGE_SIZE;
 347:Drivers/STM32F3xx_HAL_Driver/Src/stm32f3xx_hal_flash.c ****           pFlash.Address = addresstmp;
 348:Drivers/STM32F3xx_HAL_Driver/Src/stm32f3xx_hal_flash.c **** 
 349:Drivers/STM32F3xx_HAL_Driver/Src/stm32f3xx_hal_flash.c ****           /* If the erase operation is completed, disable the PER Bit */
 350:Drivers/STM32F3xx_HAL_Driver/Src/stm32f3xx_hal_flash.c ****           CLEAR_BIT(FLASH->CR, FLASH_CR_PER);
 351:Drivers/STM32F3xx_HAL_Driver/Src/stm32f3xx_hal_flash.c **** 
 352:Drivers/STM32F3xx_HAL_Driver/Src/stm32f3xx_hal_flash.c ****           FLASH_PageErase(addresstmp);
 353:Drivers/STM32F3xx_HAL_Driver/Src/stm32f3xx_hal_flash.c ****         }
 354:Drivers/STM32F3xx_HAL_Driver/Src/stm32f3xx_hal_flash.c ****         else
 355:Drivers/STM32F3xx_HAL_Driver/Src/stm32f3xx_hal_flash.c ****         {
 356:Drivers/STM32F3xx_HAL_Driver/Src/stm32f3xx_hal_flash.c ****           /* No more pages to Erase, user callback can be called. */
 357:Drivers/STM32F3xx_HAL_Driver/Src/stm32f3xx_hal_flash.c ****           /* Reset Sector and stop Erase pages procedure */
 358:Drivers/STM32F3xx_HAL_Driver/Src/stm32f3xx_hal_flash.c ****           pFlash.Address = addresstmp = 0xFFFFFFFFU;
 359:Drivers/STM32F3xx_HAL_Driver/Src/stm32f3xx_hal_flash.c ****           pFlash.ProcedureOnGoing = FLASH_PROC_NONE;
 360:Drivers/STM32F3xx_HAL_Driver/Src/stm32f3xx_hal_flash.c ****           /* FLASH EOP interrupt user callback */
 361:Drivers/STM32F3xx_HAL_Driver/Src/stm32f3xx_hal_flash.c ****           HAL_FLASH_EndOfOperationCallback(addresstmp);
 362:Drivers/STM32F3xx_HAL_Driver/Src/stm32f3xx_hal_flash.c ****         }
 363:Drivers/STM32F3xx_HAL_Driver/Src/stm32f3xx_hal_flash.c ****       }
 364:Drivers/STM32F3xx_HAL_Driver/Src/stm32f3xx_hal_flash.c ****       else if(pFlash.ProcedureOnGoing == FLASH_PROC_MASSERASE)
 365:Drivers/STM32F3xx_HAL_Driver/Src/stm32f3xx_hal_flash.c ****       {
 366:Drivers/STM32F3xx_HAL_Driver/Src/stm32f3xx_hal_flash.c ****         /* Operation is completed, disable the MER Bit */
 367:Drivers/STM32F3xx_HAL_Driver/Src/stm32f3xx_hal_flash.c ****         CLEAR_BIT(FLASH->CR, FLASH_CR_MER);
 368:Drivers/STM32F3xx_HAL_Driver/Src/stm32f3xx_hal_flash.c **** 
 369:Drivers/STM32F3xx_HAL_Driver/Src/stm32f3xx_hal_flash.c ****           /* MassErase ended. Return the selected bank */
 370:Drivers/STM32F3xx_HAL_Driver/Src/stm32f3xx_hal_flash.c ****           /* FLASH EOP interrupt user callback */
 371:Drivers/STM32F3xx_HAL_Driver/Src/stm32f3xx_hal_flash.c ****           HAL_FLASH_EndOfOperationCallback(0U);
 372:Drivers/STM32F3xx_HAL_Driver/Src/stm32f3xx_hal_flash.c **** 
 373:Drivers/STM32F3xx_HAL_Driver/Src/stm32f3xx_hal_flash.c ****           /* Stop Mass Erase procedure*/
ARM GAS  /var/folders/8c/gyvcglfx7f97kbqb2h83mm_r0000gn/T//cc2rlUQt.s 			page 8


 374:Drivers/STM32F3xx_HAL_Driver/Src/stm32f3xx_hal_flash.c ****           pFlash.ProcedureOnGoing = FLASH_PROC_NONE;
 375:Drivers/STM32F3xx_HAL_Driver/Src/stm32f3xx_hal_flash.c ****         }
 376:Drivers/STM32F3xx_HAL_Driver/Src/stm32f3xx_hal_flash.c ****       else
 377:Drivers/STM32F3xx_HAL_Driver/Src/stm32f3xx_hal_flash.c ****       {
 378:Drivers/STM32F3xx_HAL_Driver/Src/stm32f3xx_hal_flash.c ****         /* Nb of 16-bit data to program can be decreased */
 379:Drivers/STM32F3xx_HAL_Driver/Src/stm32f3xx_hal_flash.c ****         pFlash.DataRemaining--;
 380:Drivers/STM32F3xx_HAL_Driver/Src/stm32f3xx_hal_flash.c ****         
 381:Drivers/STM32F3xx_HAL_Driver/Src/stm32f3xx_hal_flash.c ****         /* Check if there are still 16-bit data to program */
 382:Drivers/STM32F3xx_HAL_Driver/Src/stm32f3xx_hal_flash.c ****         if(pFlash.DataRemaining != 0U)
 383:Drivers/STM32F3xx_HAL_Driver/Src/stm32f3xx_hal_flash.c ****         {
 384:Drivers/STM32F3xx_HAL_Driver/Src/stm32f3xx_hal_flash.c ****           /* Increment address to 16-bit */
 385:Drivers/STM32F3xx_HAL_Driver/Src/stm32f3xx_hal_flash.c ****           pFlash.Address += 2U;
 386:Drivers/STM32F3xx_HAL_Driver/Src/stm32f3xx_hal_flash.c ****           addresstmp = pFlash.Address;
 387:Drivers/STM32F3xx_HAL_Driver/Src/stm32f3xx_hal_flash.c ****           
 388:Drivers/STM32F3xx_HAL_Driver/Src/stm32f3xx_hal_flash.c ****           /* Shift to have next 16-bit data */
 389:Drivers/STM32F3xx_HAL_Driver/Src/stm32f3xx_hal_flash.c ****           pFlash.Data = (pFlash.Data >> 16U);
 390:Drivers/STM32F3xx_HAL_Driver/Src/stm32f3xx_hal_flash.c ****           
 391:Drivers/STM32F3xx_HAL_Driver/Src/stm32f3xx_hal_flash.c ****           /* Operation is completed, disable the PG Bit */
 392:Drivers/STM32F3xx_HAL_Driver/Src/stm32f3xx_hal_flash.c ****           CLEAR_BIT(FLASH->CR, FLASH_CR_PG);
 393:Drivers/STM32F3xx_HAL_Driver/Src/stm32f3xx_hal_flash.c **** 
 394:Drivers/STM32F3xx_HAL_Driver/Src/stm32f3xx_hal_flash.c ****           /*Program halfword (16-bit) at a specified address.*/
 395:Drivers/STM32F3xx_HAL_Driver/Src/stm32f3xx_hal_flash.c ****           FLASH_Program_HalfWord(addresstmp, (uint16_t)pFlash.Data);
 396:Drivers/STM32F3xx_HAL_Driver/Src/stm32f3xx_hal_flash.c ****         }
 397:Drivers/STM32F3xx_HAL_Driver/Src/stm32f3xx_hal_flash.c ****         else
 398:Drivers/STM32F3xx_HAL_Driver/Src/stm32f3xx_hal_flash.c ****         {
 399:Drivers/STM32F3xx_HAL_Driver/Src/stm32f3xx_hal_flash.c ****           /* Program ended. Return the selected address */
 400:Drivers/STM32F3xx_HAL_Driver/Src/stm32f3xx_hal_flash.c ****           /* FLASH EOP interrupt user callback */
 401:Drivers/STM32F3xx_HAL_Driver/Src/stm32f3xx_hal_flash.c ****           if (pFlash.ProcedureOnGoing == FLASH_PROC_PROGRAMHALFWORD)
 402:Drivers/STM32F3xx_HAL_Driver/Src/stm32f3xx_hal_flash.c ****           {
 403:Drivers/STM32F3xx_HAL_Driver/Src/stm32f3xx_hal_flash.c ****             HAL_FLASH_EndOfOperationCallback(pFlash.Address);
 404:Drivers/STM32F3xx_HAL_Driver/Src/stm32f3xx_hal_flash.c ****           }
 405:Drivers/STM32F3xx_HAL_Driver/Src/stm32f3xx_hal_flash.c ****           else if (pFlash.ProcedureOnGoing == FLASH_PROC_PROGRAMWORD)
 406:Drivers/STM32F3xx_HAL_Driver/Src/stm32f3xx_hal_flash.c ****           {
 407:Drivers/STM32F3xx_HAL_Driver/Src/stm32f3xx_hal_flash.c ****             HAL_FLASH_EndOfOperationCallback(pFlash.Address - 2U);
 408:Drivers/STM32F3xx_HAL_Driver/Src/stm32f3xx_hal_flash.c ****           }
 409:Drivers/STM32F3xx_HAL_Driver/Src/stm32f3xx_hal_flash.c ****           else 
 410:Drivers/STM32F3xx_HAL_Driver/Src/stm32f3xx_hal_flash.c ****           {
 411:Drivers/STM32F3xx_HAL_Driver/Src/stm32f3xx_hal_flash.c ****             HAL_FLASH_EndOfOperationCallback(pFlash.Address - 6U);
 412:Drivers/STM32F3xx_HAL_Driver/Src/stm32f3xx_hal_flash.c ****           }
 413:Drivers/STM32F3xx_HAL_Driver/Src/stm32f3xx_hal_flash.c ****         
 414:Drivers/STM32F3xx_HAL_Driver/Src/stm32f3xx_hal_flash.c ****           /* Reset Address and stop Program procedure */
 415:Drivers/STM32F3xx_HAL_Driver/Src/stm32f3xx_hal_flash.c ****           pFlash.Address = 0xFFFFFFFFU;
 416:Drivers/STM32F3xx_HAL_Driver/Src/stm32f3xx_hal_flash.c ****           pFlash.ProcedureOnGoing = FLASH_PROC_NONE;
 417:Drivers/STM32F3xx_HAL_Driver/Src/stm32f3xx_hal_flash.c ****         }
 418:Drivers/STM32F3xx_HAL_Driver/Src/stm32f3xx_hal_flash.c ****       }
 419:Drivers/STM32F3xx_HAL_Driver/Src/stm32f3xx_hal_flash.c ****     }
 420:Drivers/STM32F3xx_HAL_Driver/Src/stm32f3xx_hal_flash.c ****   }
 421:Drivers/STM32F3xx_HAL_Driver/Src/stm32f3xx_hal_flash.c ****   
 422:Drivers/STM32F3xx_HAL_Driver/Src/stm32f3xx_hal_flash.c **** 
 423:Drivers/STM32F3xx_HAL_Driver/Src/stm32f3xx_hal_flash.c ****   if(pFlash.ProcedureOnGoing == FLASH_PROC_NONE)
 424:Drivers/STM32F3xx_HAL_Driver/Src/stm32f3xx_hal_flash.c ****   {
 425:Drivers/STM32F3xx_HAL_Driver/Src/stm32f3xx_hal_flash.c ****     /* Operation is completed, disable the PG, PER and MER Bits */
 426:Drivers/STM32F3xx_HAL_Driver/Src/stm32f3xx_hal_flash.c ****     CLEAR_BIT(FLASH->CR, (FLASH_CR_PG | FLASH_CR_PER | FLASH_CR_MER));
 427:Drivers/STM32F3xx_HAL_Driver/Src/stm32f3xx_hal_flash.c **** 
 428:Drivers/STM32F3xx_HAL_Driver/Src/stm32f3xx_hal_flash.c ****     /* Disable End of FLASH Operation and Error source interrupts */
 429:Drivers/STM32F3xx_HAL_Driver/Src/stm32f3xx_hal_flash.c ****     __HAL_FLASH_DISABLE_IT(FLASH_IT_EOP | FLASH_IT_ERR);
 430:Drivers/STM32F3xx_HAL_Driver/Src/stm32f3xx_hal_flash.c **** 
ARM GAS  /var/folders/8c/gyvcglfx7f97kbqb2h83mm_r0000gn/T//cc2rlUQt.s 			page 9


 431:Drivers/STM32F3xx_HAL_Driver/Src/stm32f3xx_hal_flash.c ****     /* Process Unlocked */
 432:Drivers/STM32F3xx_HAL_Driver/Src/stm32f3xx_hal_flash.c ****     __HAL_UNLOCK(&pFlash);
 433:Drivers/STM32F3xx_HAL_Driver/Src/stm32f3xx_hal_flash.c ****   }
 434:Drivers/STM32F3xx_HAL_Driver/Src/stm32f3xx_hal_flash.c **** }
 435:Drivers/STM32F3xx_HAL_Driver/Src/stm32f3xx_hal_flash.c **** 
 436:Drivers/STM32F3xx_HAL_Driver/Src/stm32f3xx_hal_flash.c **** /**
 437:Drivers/STM32F3xx_HAL_Driver/Src/stm32f3xx_hal_flash.c ****   * @brief  FLASH end of operation interrupt callback
 438:Drivers/STM32F3xx_HAL_Driver/Src/stm32f3xx_hal_flash.c ****   * @param  ReturnValue The value saved in this parameter depends on the ongoing procedure
 439:Drivers/STM32F3xx_HAL_Driver/Src/stm32f3xx_hal_flash.c ****   *                 - Mass Erase: No return value expected
 440:Drivers/STM32F3xx_HAL_Driver/Src/stm32f3xx_hal_flash.c ****   *                 - Pages Erase: Address of the page which has been erased 
 441:Drivers/STM32F3xx_HAL_Driver/Src/stm32f3xx_hal_flash.c ****   *                    (if 0xFFFFFFFF, it means that all the selected pages have been erased)
 442:Drivers/STM32F3xx_HAL_Driver/Src/stm32f3xx_hal_flash.c ****   *                 - Program: Address which was selected for data program
 443:Drivers/STM32F3xx_HAL_Driver/Src/stm32f3xx_hal_flash.c ****   * @retval none
 444:Drivers/STM32F3xx_HAL_Driver/Src/stm32f3xx_hal_flash.c ****   */
 445:Drivers/STM32F3xx_HAL_Driver/Src/stm32f3xx_hal_flash.c **** __weak void HAL_FLASH_EndOfOperationCallback(uint32_t ReturnValue)
 446:Drivers/STM32F3xx_HAL_Driver/Src/stm32f3xx_hal_flash.c **** {
 447:Drivers/STM32F3xx_HAL_Driver/Src/stm32f3xx_hal_flash.c ****   /* Prevent unused argument(s) compilation warning */
 448:Drivers/STM32F3xx_HAL_Driver/Src/stm32f3xx_hal_flash.c ****   UNUSED(ReturnValue);
 449:Drivers/STM32F3xx_HAL_Driver/Src/stm32f3xx_hal_flash.c **** 
 450:Drivers/STM32F3xx_HAL_Driver/Src/stm32f3xx_hal_flash.c ****   /* NOTE : This function Should not be modified, when the callback is needed,
 451:Drivers/STM32F3xx_HAL_Driver/Src/stm32f3xx_hal_flash.c ****             the HAL_FLASH_EndOfOperationCallback could be implemented in the user file
 452:Drivers/STM32F3xx_HAL_Driver/Src/stm32f3xx_hal_flash.c ****    */ 
 453:Drivers/STM32F3xx_HAL_Driver/Src/stm32f3xx_hal_flash.c **** }
 454:Drivers/STM32F3xx_HAL_Driver/Src/stm32f3xx_hal_flash.c **** 
 455:Drivers/STM32F3xx_HAL_Driver/Src/stm32f3xx_hal_flash.c **** /**
 456:Drivers/STM32F3xx_HAL_Driver/Src/stm32f3xx_hal_flash.c ****   * @brief  FLASH operation error interrupt callback
 457:Drivers/STM32F3xx_HAL_Driver/Src/stm32f3xx_hal_flash.c ****   * @param  ReturnValue The value saved in this parameter depends on the ongoing procedure
 458:Drivers/STM32F3xx_HAL_Driver/Src/stm32f3xx_hal_flash.c ****   *                 - Mass Erase: No return value expected
 459:Drivers/STM32F3xx_HAL_Driver/Src/stm32f3xx_hal_flash.c ****   *                 - Pages Erase: Address of the page which returned an error
 460:Drivers/STM32F3xx_HAL_Driver/Src/stm32f3xx_hal_flash.c ****   *                 - Program: Address which was selected for data program
 461:Drivers/STM32F3xx_HAL_Driver/Src/stm32f3xx_hal_flash.c ****   * @retval none
 462:Drivers/STM32F3xx_HAL_Driver/Src/stm32f3xx_hal_flash.c ****   */
 463:Drivers/STM32F3xx_HAL_Driver/Src/stm32f3xx_hal_flash.c **** __weak void HAL_FLASH_OperationErrorCallback(uint32_t ReturnValue)
 464:Drivers/STM32F3xx_HAL_Driver/Src/stm32f3xx_hal_flash.c **** {
 465:Drivers/STM32F3xx_HAL_Driver/Src/stm32f3xx_hal_flash.c ****   /* Prevent unused argument(s) compilation warning */
 466:Drivers/STM32F3xx_HAL_Driver/Src/stm32f3xx_hal_flash.c ****   UNUSED(ReturnValue);
 467:Drivers/STM32F3xx_HAL_Driver/Src/stm32f3xx_hal_flash.c **** 
 468:Drivers/STM32F3xx_HAL_Driver/Src/stm32f3xx_hal_flash.c ****   /* NOTE : This function Should not be modified, when the callback is needed,
 469:Drivers/STM32F3xx_HAL_Driver/Src/stm32f3xx_hal_flash.c ****             the HAL_FLASH_OperationErrorCallback could be implemented in the user file
 470:Drivers/STM32F3xx_HAL_Driver/Src/stm32f3xx_hal_flash.c ****    */ 
 471:Drivers/STM32F3xx_HAL_Driver/Src/stm32f3xx_hal_flash.c **** }
 472:Drivers/STM32F3xx_HAL_Driver/Src/stm32f3xx_hal_flash.c **** 
 473:Drivers/STM32F3xx_HAL_Driver/Src/stm32f3xx_hal_flash.c **** /**
 474:Drivers/STM32F3xx_HAL_Driver/Src/stm32f3xx_hal_flash.c ****   * @}
 475:Drivers/STM32F3xx_HAL_Driver/Src/stm32f3xx_hal_flash.c ****   */
 476:Drivers/STM32F3xx_HAL_Driver/Src/stm32f3xx_hal_flash.c **** 
 477:Drivers/STM32F3xx_HAL_Driver/Src/stm32f3xx_hal_flash.c **** /** @defgroup FLASH_Exported_Functions_Group2 Peripheral Control functions 
 478:Drivers/STM32F3xx_HAL_Driver/Src/stm32f3xx_hal_flash.c ****  *  @brief   management functions 
 479:Drivers/STM32F3xx_HAL_Driver/Src/stm32f3xx_hal_flash.c ****  *
 480:Drivers/STM32F3xx_HAL_Driver/Src/stm32f3xx_hal_flash.c **** @verbatim   
 481:Drivers/STM32F3xx_HAL_Driver/Src/stm32f3xx_hal_flash.c ****  ===============================================================================
 482:Drivers/STM32F3xx_HAL_Driver/Src/stm32f3xx_hal_flash.c ****                       ##### Peripheral Control functions #####
 483:Drivers/STM32F3xx_HAL_Driver/Src/stm32f3xx_hal_flash.c ****  ===============================================================================  
 484:Drivers/STM32F3xx_HAL_Driver/Src/stm32f3xx_hal_flash.c ****     [..]
 485:Drivers/STM32F3xx_HAL_Driver/Src/stm32f3xx_hal_flash.c ****     This subsection provides a set of functions allowing to control the FLASH 
 486:Drivers/STM32F3xx_HAL_Driver/Src/stm32f3xx_hal_flash.c ****     memory operations.
 487:Drivers/STM32F3xx_HAL_Driver/Src/stm32f3xx_hal_flash.c **** 
ARM GAS  /var/folders/8c/gyvcglfx7f97kbqb2h83mm_r0000gn/T//cc2rlUQt.s 			page 10


 488:Drivers/STM32F3xx_HAL_Driver/Src/stm32f3xx_hal_flash.c **** @endverbatim
 489:Drivers/STM32F3xx_HAL_Driver/Src/stm32f3xx_hal_flash.c ****   * @{
 490:Drivers/STM32F3xx_HAL_Driver/Src/stm32f3xx_hal_flash.c ****   */
 491:Drivers/STM32F3xx_HAL_Driver/Src/stm32f3xx_hal_flash.c **** 
 492:Drivers/STM32F3xx_HAL_Driver/Src/stm32f3xx_hal_flash.c **** /**
 493:Drivers/STM32F3xx_HAL_Driver/Src/stm32f3xx_hal_flash.c ****   * @brief  Unlock the FLASH control register access
 494:Drivers/STM32F3xx_HAL_Driver/Src/stm32f3xx_hal_flash.c ****   * @retval HAL Status
 495:Drivers/STM32F3xx_HAL_Driver/Src/stm32f3xx_hal_flash.c ****   */
 496:Drivers/STM32F3xx_HAL_Driver/Src/stm32f3xx_hal_flash.c **** HAL_StatusTypeDef HAL_FLASH_Unlock(void)
 497:Drivers/STM32F3xx_HAL_Driver/Src/stm32f3xx_hal_flash.c **** {
 498:Drivers/STM32F3xx_HAL_Driver/Src/stm32f3xx_hal_flash.c ****   HAL_StatusTypeDef status = HAL_OK;
 499:Drivers/STM32F3xx_HAL_Driver/Src/stm32f3xx_hal_flash.c **** 
 500:Drivers/STM32F3xx_HAL_Driver/Src/stm32f3xx_hal_flash.c ****   if(READ_BIT(FLASH->CR, FLASH_CR_LOCK) != RESET)
 501:Drivers/STM32F3xx_HAL_Driver/Src/stm32f3xx_hal_flash.c ****   {
 502:Drivers/STM32F3xx_HAL_Driver/Src/stm32f3xx_hal_flash.c ****     /* Authorize the FLASH Registers access */
 503:Drivers/STM32F3xx_HAL_Driver/Src/stm32f3xx_hal_flash.c ****     WRITE_REG(FLASH->KEYR, FLASH_KEY1);
 504:Drivers/STM32F3xx_HAL_Driver/Src/stm32f3xx_hal_flash.c ****     WRITE_REG(FLASH->KEYR, FLASH_KEY2);
 505:Drivers/STM32F3xx_HAL_Driver/Src/stm32f3xx_hal_flash.c **** 
 506:Drivers/STM32F3xx_HAL_Driver/Src/stm32f3xx_hal_flash.c ****     /* Verify Flash is unlocked */
 507:Drivers/STM32F3xx_HAL_Driver/Src/stm32f3xx_hal_flash.c ****     if(READ_BIT(FLASH->CR, FLASH_CR_LOCK) != RESET)
 508:Drivers/STM32F3xx_HAL_Driver/Src/stm32f3xx_hal_flash.c ****     {
 509:Drivers/STM32F3xx_HAL_Driver/Src/stm32f3xx_hal_flash.c ****       status = HAL_ERROR;
 510:Drivers/STM32F3xx_HAL_Driver/Src/stm32f3xx_hal_flash.c ****     }
 511:Drivers/STM32F3xx_HAL_Driver/Src/stm32f3xx_hal_flash.c ****   }
 512:Drivers/STM32F3xx_HAL_Driver/Src/stm32f3xx_hal_flash.c **** 
 513:Drivers/STM32F3xx_HAL_Driver/Src/stm32f3xx_hal_flash.c ****   return status;
 514:Drivers/STM32F3xx_HAL_Driver/Src/stm32f3xx_hal_flash.c **** }
 515:Drivers/STM32F3xx_HAL_Driver/Src/stm32f3xx_hal_flash.c **** 
 516:Drivers/STM32F3xx_HAL_Driver/Src/stm32f3xx_hal_flash.c **** /**
 517:Drivers/STM32F3xx_HAL_Driver/Src/stm32f3xx_hal_flash.c ****   * @brief  Locks the FLASH control register access
 518:Drivers/STM32F3xx_HAL_Driver/Src/stm32f3xx_hal_flash.c ****   * @retval HAL Status
 519:Drivers/STM32F3xx_HAL_Driver/Src/stm32f3xx_hal_flash.c ****   */
 520:Drivers/STM32F3xx_HAL_Driver/Src/stm32f3xx_hal_flash.c **** HAL_StatusTypeDef HAL_FLASH_Lock(void)
 521:Drivers/STM32F3xx_HAL_Driver/Src/stm32f3xx_hal_flash.c **** {
 522:Drivers/STM32F3xx_HAL_Driver/Src/stm32f3xx_hal_flash.c ****   /* Set the LOCK Bit to lock the FLASH Registers access */
 523:Drivers/STM32F3xx_HAL_Driver/Src/stm32f3xx_hal_flash.c ****   SET_BIT(FLASH->CR, FLASH_CR_LOCK);
 524:Drivers/STM32F3xx_HAL_Driver/Src/stm32f3xx_hal_flash.c ****   
 525:Drivers/STM32F3xx_HAL_Driver/Src/stm32f3xx_hal_flash.c ****   return HAL_OK;  
 526:Drivers/STM32F3xx_HAL_Driver/Src/stm32f3xx_hal_flash.c **** }
 527:Drivers/STM32F3xx_HAL_Driver/Src/stm32f3xx_hal_flash.c **** 
 528:Drivers/STM32F3xx_HAL_Driver/Src/stm32f3xx_hal_flash.c **** /**
 529:Drivers/STM32F3xx_HAL_Driver/Src/stm32f3xx_hal_flash.c ****   * @brief  Unlock the FLASH Option Control Registers access.
 530:Drivers/STM32F3xx_HAL_Driver/Src/stm32f3xx_hal_flash.c ****   * @retval HAL Status
 531:Drivers/STM32F3xx_HAL_Driver/Src/stm32f3xx_hal_flash.c ****   */
 532:Drivers/STM32F3xx_HAL_Driver/Src/stm32f3xx_hal_flash.c **** HAL_StatusTypeDef HAL_FLASH_OB_Unlock(void)
 533:Drivers/STM32F3xx_HAL_Driver/Src/stm32f3xx_hal_flash.c **** {
 534:Drivers/STM32F3xx_HAL_Driver/Src/stm32f3xx_hal_flash.c ****   if (HAL_IS_BIT_CLR(FLASH->CR, FLASH_CR_OPTWRE))
 535:Drivers/STM32F3xx_HAL_Driver/Src/stm32f3xx_hal_flash.c ****   {
 536:Drivers/STM32F3xx_HAL_Driver/Src/stm32f3xx_hal_flash.c ****     /* Authorizes the Option Byte register programming */
 537:Drivers/STM32F3xx_HAL_Driver/Src/stm32f3xx_hal_flash.c ****     WRITE_REG(FLASH->OPTKEYR, FLASH_OPTKEY1);
 538:Drivers/STM32F3xx_HAL_Driver/Src/stm32f3xx_hal_flash.c ****     WRITE_REG(FLASH->OPTKEYR, FLASH_OPTKEY2);
 539:Drivers/STM32F3xx_HAL_Driver/Src/stm32f3xx_hal_flash.c ****   }
 540:Drivers/STM32F3xx_HAL_Driver/Src/stm32f3xx_hal_flash.c ****   else
 541:Drivers/STM32F3xx_HAL_Driver/Src/stm32f3xx_hal_flash.c ****   {
 542:Drivers/STM32F3xx_HAL_Driver/Src/stm32f3xx_hal_flash.c ****     return HAL_ERROR;
 543:Drivers/STM32F3xx_HAL_Driver/Src/stm32f3xx_hal_flash.c ****   }  
 544:Drivers/STM32F3xx_HAL_Driver/Src/stm32f3xx_hal_flash.c ****   
ARM GAS  /var/folders/8c/gyvcglfx7f97kbqb2h83mm_r0000gn/T//cc2rlUQt.s 			page 11


 545:Drivers/STM32F3xx_HAL_Driver/Src/stm32f3xx_hal_flash.c ****   return HAL_OK;  
 546:Drivers/STM32F3xx_HAL_Driver/Src/stm32f3xx_hal_flash.c **** }
 547:Drivers/STM32F3xx_HAL_Driver/Src/stm32f3xx_hal_flash.c **** 
 548:Drivers/STM32F3xx_HAL_Driver/Src/stm32f3xx_hal_flash.c **** /**
 549:Drivers/STM32F3xx_HAL_Driver/Src/stm32f3xx_hal_flash.c ****   * @brief  Lock the FLASH Option Control Registers access.
 550:Drivers/STM32F3xx_HAL_Driver/Src/stm32f3xx_hal_flash.c ****   * @retval HAL Status 
 551:Drivers/STM32F3xx_HAL_Driver/Src/stm32f3xx_hal_flash.c ****   */
 552:Drivers/STM32F3xx_HAL_Driver/Src/stm32f3xx_hal_flash.c **** HAL_StatusTypeDef HAL_FLASH_OB_Lock(void)
 553:Drivers/STM32F3xx_HAL_Driver/Src/stm32f3xx_hal_flash.c **** {
 554:Drivers/STM32F3xx_HAL_Driver/Src/stm32f3xx_hal_flash.c ****   /* Clear the OPTWRE Bit to lock the FLASH Option Byte Registers access */
 555:Drivers/STM32F3xx_HAL_Driver/Src/stm32f3xx_hal_flash.c ****   CLEAR_BIT(FLASH->CR, FLASH_CR_OPTWRE);
 556:Drivers/STM32F3xx_HAL_Driver/Src/stm32f3xx_hal_flash.c ****   
 557:Drivers/STM32F3xx_HAL_Driver/Src/stm32f3xx_hal_flash.c ****   return HAL_OK;  
 558:Drivers/STM32F3xx_HAL_Driver/Src/stm32f3xx_hal_flash.c **** }
 559:Drivers/STM32F3xx_HAL_Driver/Src/stm32f3xx_hal_flash.c ****   
 560:Drivers/STM32F3xx_HAL_Driver/Src/stm32f3xx_hal_flash.c **** /**
 561:Drivers/STM32F3xx_HAL_Driver/Src/stm32f3xx_hal_flash.c ****   * @brief  Launch the option byte loading.
 562:Drivers/STM32F3xx_HAL_Driver/Src/stm32f3xx_hal_flash.c ****   * @note   This function will reset automatically the MCU.
 563:Drivers/STM32F3xx_HAL_Driver/Src/stm32f3xx_hal_flash.c ****   * @retval HAL Status
 564:Drivers/STM32F3xx_HAL_Driver/Src/stm32f3xx_hal_flash.c ****   */
 565:Drivers/STM32F3xx_HAL_Driver/Src/stm32f3xx_hal_flash.c **** HAL_StatusTypeDef HAL_FLASH_OB_Launch(void)
 566:Drivers/STM32F3xx_HAL_Driver/Src/stm32f3xx_hal_flash.c **** {
 567:Drivers/STM32F3xx_HAL_Driver/Src/stm32f3xx_hal_flash.c ****   /* Set the OBL_Launch bit to launch the option byte loading */
 568:Drivers/STM32F3xx_HAL_Driver/Src/stm32f3xx_hal_flash.c ****   SET_BIT(FLASH->CR, FLASH_CR_OBL_LAUNCH);
 569:Drivers/STM32F3xx_HAL_Driver/Src/stm32f3xx_hal_flash.c ****   
 570:Drivers/STM32F3xx_HAL_Driver/Src/stm32f3xx_hal_flash.c ****   /* Wait for last operation to be completed */
 571:Drivers/STM32F3xx_HAL_Driver/Src/stm32f3xx_hal_flash.c ****   return(FLASH_WaitForLastOperation(FLASH_TIMEOUT_VALUE));
 572:Drivers/STM32F3xx_HAL_Driver/Src/stm32f3xx_hal_flash.c **** }
 573:Drivers/STM32F3xx_HAL_Driver/Src/stm32f3xx_hal_flash.c **** 
 574:Drivers/STM32F3xx_HAL_Driver/Src/stm32f3xx_hal_flash.c **** /**
 575:Drivers/STM32F3xx_HAL_Driver/Src/stm32f3xx_hal_flash.c ****   * @}
 576:Drivers/STM32F3xx_HAL_Driver/Src/stm32f3xx_hal_flash.c ****   */  
 577:Drivers/STM32F3xx_HAL_Driver/Src/stm32f3xx_hal_flash.c **** 
 578:Drivers/STM32F3xx_HAL_Driver/Src/stm32f3xx_hal_flash.c **** /** @defgroup FLASH_Exported_Functions_Group3 Peripheral errors functions 
 579:Drivers/STM32F3xx_HAL_Driver/Src/stm32f3xx_hal_flash.c ****  *  @brief    Peripheral errors functions 
 580:Drivers/STM32F3xx_HAL_Driver/Src/stm32f3xx_hal_flash.c ****  *
 581:Drivers/STM32F3xx_HAL_Driver/Src/stm32f3xx_hal_flash.c **** @verbatim   
 582:Drivers/STM32F3xx_HAL_Driver/Src/stm32f3xx_hal_flash.c ****  ===============================================================================
 583:Drivers/STM32F3xx_HAL_Driver/Src/stm32f3xx_hal_flash.c ****                       ##### Peripheral Errors functions #####
 584:Drivers/STM32F3xx_HAL_Driver/Src/stm32f3xx_hal_flash.c ****  ===============================================================================  
 585:Drivers/STM32F3xx_HAL_Driver/Src/stm32f3xx_hal_flash.c ****     [..]
 586:Drivers/STM32F3xx_HAL_Driver/Src/stm32f3xx_hal_flash.c ****     This subsection permit to get in run-time errors of  the FLASH peripheral.
 587:Drivers/STM32F3xx_HAL_Driver/Src/stm32f3xx_hal_flash.c **** 
 588:Drivers/STM32F3xx_HAL_Driver/Src/stm32f3xx_hal_flash.c **** @endverbatim
 589:Drivers/STM32F3xx_HAL_Driver/Src/stm32f3xx_hal_flash.c ****   * @{
 590:Drivers/STM32F3xx_HAL_Driver/Src/stm32f3xx_hal_flash.c ****   */
 591:Drivers/STM32F3xx_HAL_Driver/Src/stm32f3xx_hal_flash.c **** 
 592:Drivers/STM32F3xx_HAL_Driver/Src/stm32f3xx_hal_flash.c **** /**
 593:Drivers/STM32F3xx_HAL_Driver/Src/stm32f3xx_hal_flash.c ****   * @brief  Get the specific FLASH error flag.
 594:Drivers/STM32F3xx_HAL_Driver/Src/stm32f3xx_hal_flash.c ****   * @retval FLASH_ErrorCode The returned value can be:
 595:Drivers/STM32F3xx_HAL_Driver/Src/stm32f3xx_hal_flash.c ****   *            @ref FLASH_Error_Codes
 596:Drivers/STM32F3xx_HAL_Driver/Src/stm32f3xx_hal_flash.c ****   */
 597:Drivers/STM32F3xx_HAL_Driver/Src/stm32f3xx_hal_flash.c **** uint32_t HAL_FLASH_GetError(void)
 598:Drivers/STM32F3xx_HAL_Driver/Src/stm32f3xx_hal_flash.c **** {
 599:Drivers/STM32F3xx_HAL_Driver/Src/stm32f3xx_hal_flash.c ****    return pFlash.ErrorCode;
 600:Drivers/STM32F3xx_HAL_Driver/Src/stm32f3xx_hal_flash.c **** }
 601:Drivers/STM32F3xx_HAL_Driver/Src/stm32f3xx_hal_flash.c **** 
ARM GAS  /var/folders/8c/gyvcglfx7f97kbqb2h83mm_r0000gn/T//cc2rlUQt.s 			page 12


 602:Drivers/STM32F3xx_HAL_Driver/Src/stm32f3xx_hal_flash.c **** /**
 603:Drivers/STM32F3xx_HAL_Driver/Src/stm32f3xx_hal_flash.c ****   * @}
 604:Drivers/STM32F3xx_HAL_Driver/Src/stm32f3xx_hal_flash.c ****   */
 605:Drivers/STM32F3xx_HAL_Driver/Src/stm32f3xx_hal_flash.c **** 
 606:Drivers/STM32F3xx_HAL_Driver/Src/stm32f3xx_hal_flash.c **** /**
 607:Drivers/STM32F3xx_HAL_Driver/Src/stm32f3xx_hal_flash.c ****   * @}
 608:Drivers/STM32F3xx_HAL_Driver/Src/stm32f3xx_hal_flash.c ****   */
 609:Drivers/STM32F3xx_HAL_Driver/Src/stm32f3xx_hal_flash.c **** 
 610:Drivers/STM32F3xx_HAL_Driver/Src/stm32f3xx_hal_flash.c **** /** @addtogroup FLASH_Private_Functions
 611:Drivers/STM32F3xx_HAL_Driver/Src/stm32f3xx_hal_flash.c ****  * @{
 612:Drivers/STM32F3xx_HAL_Driver/Src/stm32f3xx_hal_flash.c ****  */
 613:Drivers/STM32F3xx_HAL_Driver/Src/stm32f3xx_hal_flash.c **** 
 614:Drivers/STM32F3xx_HAL_Driver/Src/stm32f3xx_hal_flash.c **** /**
 615:Drivers/STM32F3xx_HAL_Driver/Src/stm32f3xx_hal_flash.c ****   * @brief  Program a half-word (16-bit) at a specified address.
 616:Drivers/STM32F3xx_HAL_Driver/Src/stm32f3xx_hal_flash.c ****   * @param  Address specify the address to be programmed.
 617:Drivers/STM32F3xx_HAL_Driver/Src/stm32f3xx_hal_flash.c ****   * @param  Data    specify the data to be programmed.
 618:Drivers/STM32F3xx_HAL_Driver/Src/stm32f3xx_hal_flash.c ****   * @retval None
 619:Drivers/STM32F3xx_HAL_Driver/Src/stm32f3xx_hal_flash.c ****   */
 620:Drivers/STM32F3xx_HAL_Driver/Src/stm32f3xx_hal_flash.c **** static void FLASH_Program_HalfWord(uint32_t Address, uint16_t Data)
 621:Drivers/STM32F3xx_HAL_Driver/Src/stm32f3xx_hal_flash.c **** {
 622:Drivers/STM32F3xx_HAL_Driver/Src/stm32f3xx_hal_flash.c ****   /* Clean the error context */
 623:Drivers/STM32F3xx_HAL_Driver/Src/stm32f3xx_hal_flash.c ****   pFlash.ErrorCode = HAL_FLASH_ERROR_NONE;
 624:Drivers/STM32F3xx_HAL_Driver/Src/stm32f3xx_hal_flash.c ****   
 625:Drivers/STM32F3xx_HAL_Driver/Src/stm32f3xx_hal_flash.c ****     /* Proceed to program the new data */
 626:Drivers/STM32F3xx_HAL_Driver/Src/stm32f3xx_hal_flash.c ****     SET_BIT(FLASH->CR, FLASH_CR_PG);
 627:Drivers/STM32F3xx_HAL_Driver/Src/stm32f3xx_hal_flash.c **** 
 628:Drivers/STM32F3xx_HAL_Driver/Src/stm32f3xx_hal_flash.c ****   /* Write data in the address */
 629:Drivers/STM32F3xx_HAL_Driver/Src/stm32f3xx_hal_flash.c ****   *(__IO uint16_t*)Address = Data;
 630:Drivers/STM32F3xx_HAL_Driver/Src/stm32f3xx_hal_flash.c **** }
 631:Drivers/STM32F3xx_HAL_Driver/Src/stm32f3xx_hal_flash.c **** 
 632:Drivers/STM32F3xx_HAL_Driver/Src/stm32f3xx_hal_flash.c **** /**
 633:Drivers/STM32F3xx_HAL_Driver/Src/stm32f3xx_hal_flash.c ****   * @brief  Wait for a FLASH operation to complete.
 634:Drivers/STM32F3xx_HAL_Driver/Src/stm32f3xx_hal_flash.c ****   * @param  Timeout  maximum flash operation timeout
 635:Drivers/STM32F3xx_HAL_Driver/Src/stm32f3xx_hal_flash.c ****   * @retval HAL Status
 636:Drivers/STM32F3xx_HAL_Driver/Src/stm32f3xx_hal_flash.c ****   */
 637:Drivers/STM32F3xx_HAL_Driver/Src/stm32f3xx_hal_flash.c **** HAL_StatusTypeDef FLASH_WaitForLastOperation(uint32_t Timeout)
 638:Drivers/STM32F3xx_HAL_Driver/Src/stm32f3xx_hal_flash.c **** {
 639:Drivers/STM32F3xx_HAL_Driver/Src/stm32f3xx_hal_flash.c ****   /* Wait for the FLASH operation to complete by polling on BUSY flag to be reset.
 640:Drivers/STM32F3xx_HAL_Driver/Src/stm32f3xx_hal_flash.c ****      Even if the FLASH operation fails, the BUSY flag will be reset and an error
 641:Drivers/STM32F3xx_HAL_Driver/Src/stm32f3xx_hal_flash.c ****      flag will be set */
 642:Drivers/STM32F3xx_HAL_Driver/Src/stm32f3xx_hal_flash.c ****      
 643:Drivers/STM32F3xx_HAL_Driver/Src/stm32f3xx_hal_flash.c ****   uint32_t tickstart = HAL_GetTick();
 644:Drivers/STM32F3xx_HAL_Driver/Src/stm32f3xx_hal_flash.c ****      
 645:Drivers/STM32F3xx_HAL_Driver/Src/stm32f3xx_hal_flash.c ****   while(__HAL_FLASH_GET_FLAG(FLASH_FLAG_BSY)) 
 646:Drivers/STM32F3xx_HAL_Driver/Src/stm32f3xx_hal_flash.c ****   { 
 647:Drivers/STM32F3xx_HAL_Driver/Src/stm32f3xx_hal_flash.c ****     if (Timeout != HAL_MAX_DELAY)
 648:Drivers/STM32F3xx_HAL_Driver/Src/stm32f3xx_hal_flash.c ****     {
 649:Drivers/STM32F3xx_HAL_Driver/Src/stm32f3xx_hal_flash.c ****       if((Timeout == 0U) || ((HAL_GetTick()-tickstart) > Timeout))
 650:Drivers/STM32F3xx_HAL_Driver/Src/stm32f3xx_hal_flash.c ****       {
 651:Drivers/STM32F3xx_HAL_Driver/Src/stm32f3xx_hal_flash.c ****         return HAL_TIMEOUT;
 652:Drivers/STM32F3xx_HAL_Driver/Src/stm32f3xx_hal_flash.c ****       }
 653:Drivers/STM32F3xx_HAL_Driver/Src/stm32f3xx_hal_flash.c ****     }
 654:Drivers/STM32F3xx_HAL_Driver/Src/stm32f3xx_hal_flash.c ****   }
 655:Drivers/STM32F3xx_HAL_Driver/Src/stm32f3xx_hal_flash.c ****   
 656:Drivers/STM32F3xx_HAL_Driver/Src/stm32f3xx_hal_flash.c ****   /* Check FLASH End of Operation flag  */
 657:Drivers/STM32F3xx_HAL_Driver/Src/stm32f3xx_hal_flash.c ****   if (__HAL_FLASH_GET_FLAG(FLASH_FLAG_EOP))
 658:Drivers/STM32F3xx_HAL_Driver/Src/stm32f3xx_hal_flash.c ****   {
ARM GAS  /var/folders/8c/gyvcglfx7f97kbqb2h83mm_r0000gn/T//cc2rlUQt.s 			page 13


 659:Drivers/STM32F3xx_HAL_Driver/Src/stm32f3xx_hal_flash.c ****     /* Clear FLASH End of Operation pending bit */
 660:Drivers/STM32F3xx_HAL_Driver/Src/stm32f3xx_hal_flash.c ****     __HAL_FLASH_CLEAR_FLAG(FLASH_FLAG_EOP);
 661:Drivers/STM32F3xx_HAL_Driver/Src/stm32f3xx_hal_flash.c ****   }
 662:Drivers/STM32F3xx_HAL_Driver/Src/stm32f3xx_hal_flash.c ****   
 663:Drivers/STM32F3xx_HAL_Driver/Src/stm32f3xx_hal_flash.c ****   if(__HAL_FLASH_GET_FLAG(FLASH_FLAG_WRPERR)  || 
 664:Drivers/STM32F3xx_HAL_Driver/Src/stm32f3xx_hal_flash.c ****      __HAL_FLASH_GET_FLAG(FLASH_FLAG_PGERR))
 665:Drivers/STM32F3xx_HAL_Driver/Src/stm32f3xx_hal_flash.c ****   {
 666:Drivers/STM32F3xx_HAL_Driver/Src/stm32f3xx_hal_flash.c ****     /*Save the error code*/
 667:Drivers/STM32F3xx_HAL_Driver/Src/stm32f3xx_hal_flash.c ****     FLASH_SetErrorCode();
 668:Drivers/STM32F3xx_HAL_Driver/Src/stm32f3xx_hal_flash.c ****     return HAL_ERROR;
 669:Drivers/STM32F3xx_HAL_Driver/Src/stm32f3xx_hal_flash.c ****   }
 670:Drivers/STM32F3xx_HAL_Driver/Src/stm32f3xx_hal_flash.c **** 
 671:Drivers/STM32F3xx_HAL_Driver/Src/stm32f3xx_hal_flash.c ****   /* There is no error flag set */
 672:Drivers/STM32F3xx_HAL_Driver/Src/stm32f3xx_hal_flash.c ****   return HAL_OK;
 673:Drivers/STM32F3xx_HAL_Driver/Src/stm32f3xx_hal_flash.c **** }
 674:Drivers/STM32F3xx_HAL_Driver/Src/stm32f3xx_hal_flash.c **** 
 675:Drivers/STM32F3xx_HAL_Driver/Src/stm32f3xx_hal_flash.c **** 
 676:Drivers/STM32F3xx_HAL_Driver/Src/stm32f3xx_hal_flash.c **** /**
 677:Drivers/STM32F3xx_HAL_Driver/Src/stm32f3xx_hal_flash.c ****   * @brief  Set the specific FLASH error flag.
 678:Drivers/STM32F3xx_HAL_Driver/Src/stm32f3xx_hal_flash.c ****   * @retval None
 679:Drivers/STM32F3xx_HAL_Driver/Src/stm32f3xx_hal_flash.c ****   */
 680:Drivers/STM32F3xx_HAL_Driver/Src/stm32f3xx_hal_flash.c **** static void FLASH_SetErrorCode(void)
 681:Drivers/STM32F3xx_HAL_Driver/Src/stm32f3xx_hal_flash.c **** {
  28              		.loc 1 681 1 view -0
  29              		.cfi_startproc
  30              		@ args = 0, pretend = 0, frame = 0
  31              		@ frame_needed = 0, uses_anonymous_args = 0
  32              		@ link register save eliminated.
 682:Drivers/STM32F3xx_HAL_Driver/Src/stm32f3xx_hal_flash.c ****   uint32_t flags = 0U;
  33              		.loc 1 682 3 view .LVU1
  34              	.LVL0:
 683:Drivers/STM32F3xx_HAL_Driver/Src/stm32f3xx_hal_flash.c ****   
 684:Drivers/STM32F3xx_HAL_Driver/Src/stm32f3xx_hal_flash.c ****   if(__HAL_FLASH_GET_FLAG(FLASH_FLAG_WRPERR))
  35              		.loc 1 684 3 view .LVU2
  36              		.loc 1 684 6 is_stmt 0 view .LVU3
  37 0000 0B4A     		ldr	r2, .L8
  38 0002 D368     		ldr	r3, [r2, #12]
  39              		.loc 1 684 5 view .LVU4
  40 0004 13F01003 		ands	r3, r3, #16
  41 0008 05D0     		beq	.L2
 685:Drivers/STM32F3xx_HAL_Driver/Src/stm32f3xx_hal_flash.c ****   {
 686:Drivers/STM32F3xx_HAL_Driver/Src/stm32f3xx_hal_flash.c ****     pFlash.ErrorCode |= HAL_FLASH_ERROR_WRP;
  42              		.loc 1 686 5 is_stmt 1 view .LVU5
  43              		.loc 1 686 22 is_stmt 0 view .LVU6
  44 000a 0A49     		ldr	r1, .L8+4
  45 000c CB69     		ldr	r3, [r1, #28]
  46 000e 43F00203 		orr	r3, r3, #2
  47 0012 CB61     		str	r3, [r1, #28]
 687:Drivers/STM32F3xx_HAL_Driver/Src/stm32f3xx_hal_flash.c ****     flags |= FLASH_FLAG_WRPERR;
  48              		.loc 1 687 5 is_stmt 1 view .LVU7
  49              	.LVL1:
  50              		.loc 1 687 11 is_stmt 0 view .LVU8
  51 0014 1023     		movs	r3, #16
  52              	.LVL2:
  53              	.L2:
 688:Drivers/STM32F3xx_HAL_Driver/Src/stm32f3xx_hal_flash.c ****   }
 689:Drivers/STM32F3xx_HAL_Driver/Src/stm32f3xx_hal_flash.c ****   if(__HAL_FLASH_GET_FLAG(FLASH_FLAG_PGERR))
ARM GAS  /var/folders/8c/gyvcglfx7f97kbqb2h83mm_r0000gn/T//cc2rlUQt.s 			page 14


  54              		.loc 1 689 3 is_stmt 1 view .LVU9
  55              		.loc 1 689 6 is_stmt 0 view .LVU10
  56 0016 D268     		ldr	r2, [r2, #12]
  57              		.loc 1 689 5 view .LVU11
  58 0018 5207     		lsls	r2, r2, #29
  59 001a 06D5     		bpl	.L3
 690:Drivers/STM32F3xx_HAL_Driver/Src/stm32f3xx_hal_flash.c ****   {
 691:Drivers/STM32F3xx_HAL_Driver/Src/stm32f3xx_hal_flash.c ****     pFlash.ErrorCode |= HAL_FLASH_ERROR_PROG;
  60              		.loc 1 691 5 is_stmt 1 view .LVU12
  61              		.loc 1 691 22 is_stmt 0 view .LVU13
  62 001c 0549     		ldr	r1, .L8+4
  63 001e CA69     		ldr	r2, [r1, #28]
  64 0020 42F00102 		orr	r2, r2, #1
  65 0024 CA61     		str	r2, [r1, #28]
 692:Drivers/STM32F3xx_HAL_Driver/Src/stm32f3xx_hal_flash.c ****     flags |= FLASH_FLAG_PGERR;
  66              		.loc 1 692 5 is_stmt 1 view .LVU14
  67              		.loc 1 692 11 is_stmt 0 view .LVU15
  68 0026 43F00403 		orr	r3, r3, #4
  69              	.LVL3:
  70              	.L3:
 693:Drivers/STM32F3xx_HAL_Driver/Src/stm32f3xx_hal_flash.c ****   }
 694:Drivers/STM32F3xx_HAL_Driver/Src/stm32f3xx_hal_flash.c ****   /* Clear FLASH error pending bits */
 695:Drivers/STM32F3xx_HAL_Driver/Src/stm32f3xx_hal_flash.c ****   __HAL_FLASH_CLEAR_FLAG(flags);
  71              		.loc 1 695 3 is_stmt 1 view .LVU16
  72 002a 014A     		ldr	r2, .L8
  73 002c D360     		str	r3, [r2, #12]
 696:Drivers/STM32F3xx_HAL_Driver/Src/stm32f3xx_hal_flash.c **** }  
  74              		.loc 1 696 1 is_stmt 0 view .LVU17
  75 002e 7047     		bx	lr
  76              	.L9:
  77              		.align	2
  78              	.L8:
  79 0030 00200240 		.word	1073881088
  80 0034 00000000 		.word	pFlash
  81              		.cfi_endproc
  82              	.LFE139:
  84              		.section	.text.HAL_FLASH_Program_IT,"ax",%progbits
  85              		.align	1
  86              		.global	HAL_FLASH_Program_IT
  87              		.syntax unified
  88              		.thumb
  89              		.thumb_func
  90              		.fpu fpv4-sp-d16
  92              	HAL_FLASH_Program_IT:
  93              	.LVL4:
  94              	.LFB127:
 257:Drivers/STM32F3xx_HAL_Driver/Src/stm32f3xx_hal_flash.c ****   HAL_StatusTypeDef status = HAL_OK;
  95              		.loc 1 257 1 is_stmt 1 view -0
  96              		.cfi_startproc
  97              		@ args = 0, pretend = 0, frame = 0
  98              		@ frame_needed = 0, uses_anonymous_args = 0
 258:Drivers/STM32F3xx_HAL_Driver/Src/stm32f3xx_hal_flash.c ****   
  99              		.loc 1 258 3 view .LVU19
 261:Drivers/STM32F3xx_HAL_Driver/Src/stm32f3xx_hal_flash.c **** 
 100              		.loc 1 261 3 view .LVU20
 261:Drivers/STM32F3xx_HAL_Driver/Src/stm32f3xx_hal_flash.c **** 
 101              		.loc 1 261 3 view .LVU21
ARM GAS  /var/folders/8c/gyvcglfx7f97kbqb2h83mm_r0000gn/T//cc2rlUQt.s 			page 15


 257:Drivers/STM32F3xx_HAL_Driver/Src/stm32f3xx_hal_flash.c ****   HAL_StatusTypeDef status = HAL_OK;
 102              		.loc 1 257 1 is_stmt 0 view .LVU22
 103 0000 70B5     		push	{r4, r5, r6, lr}
 104              	.LCFI0:
 105              		.cfi_def_cfa_offset 16
 106              		.cfi_offset 4, -16
 107              		.cfi_offset 5, -12
 108              		.cfi_offset 6, -8
 109              		.cfi_offset 14, -4
 257:Drivers/STM32F3xx_HAL_Driver/Src/stm32f3xx_hal_flash.c ****   HAL_StatusTypeDef status = HAL_OK;
 110              		.loc 1 257 1 view .LVU23
 111 0002 1D46     		mov	r5, r3
 261:Drivers/STM32F3xx_HAL_Driver/Src/stm32f3xx_hal_flash.c **** 
 112              		.loc 1 261 3 view .LVU24
 113 0004 134B     		ldr	r3, .L17
 257:Drivers/STM32F3xx_HAL_Driver/Src/stm32f3xx_hal_flash.c ****   HAL_StatusTypeDef status = HAL_OK;
 114              		.loc 1 257 1 view .LVU25
 115 0006 1446     		mov	r4, r2
 261:Drivers/STM32F3xx_HAL_Driver/Src/stm32f3xx_hal_flash.c **** 
 116              		.loc 1 261 3 view .LVU26
 117 0008 1A7E     		ldrb	r2, [r3, #24]	@ zero_extendqisi2
 118              	.LVL5:
 261:Drivers/STM32F3xx_HAL_Driver/Src/stm32f3xx_hal_flash.c **** 
 119              		.loc 1 261 3 view .LVU27
 120 000a 012A     		cmp	r2, #1
 121 000c 20D0     		beq	.L15
 261:Drivers/STM32F3xx_HAL_Driver/Src/stm32f3xx_hal_flash.c **** 
 122              		.loc 1 261 3 is_stmt 1 discriminator 2 view .LVU28
 268:Drivers/STM32F3xx_HAL_Driver/Src/stm32f3xx_hal_flash.c ****   
 123              		.loc 1 268 3 is_stmt 0 discriminator 2 view .LVU29
 124 000e 124E     		ldr	r6, .L17+4
 261:Drivers/STM32F3xx_HAL_Driver/Src/stm32f3xx_hal_flash.c **** 
 125              		.loc 1 261 3 discriminator 2 view .LVU30
 126 0010 0122     		movs	r2, #1
 127 0012 1A76     		strb	r2, [r3, #24]
 264:Drivers/STM32F3xx_HAL_Driver/Src/stm32f3xx_hal_flash.c ****   assert_param(IS_FLASH_PROGRAM_ADDRESS(Address));
 128              		.loc 1 264 3 is_stmt 1 discriminator 2 view .LVU31
 265:Drivers/STM32F3xx_HAL_Driver/Src/stm32f3xx_hal_flash.c **** 
 129              		.loc 1 265 3 discriminator 2 view .LVU32
 268:Drivers/STM32F3xx_HAL_Driver/Src/stm32f3xx_hal_flash.c ****   
 130              		.loc 1 268 3 discriminator 2 view .LVU33
 131 0014 3269     		ldr	r2, [r6, #16]
 273:Drivers/STM32F3xx_HAL_Driver/Src/stm32f3xx_hal_flash.c ****   {
 132              		.loc 1 273 5 is_stmt 0 discriminator 2 view .LVU34
 133 0016 0128     		cmp	r0, #1
 268:Drivers/STM32F3xx_HAL_Driver/Src/stm32f3xx_hal_flash.c ****   
 134              		.loc 1 268 3 discriminator 2 view .LVU35
 135 0018 42F4A052 		orr	r2, r2, #5120
 136 001c 3261     		str	r2, [r6, #16]
 270:Drivers/STM32F3xx_HAL_Driver/Src/stm32f3xx_hal_flash.c ****   pFlash.Data = Data;
 137              		.loc 1 270 3 is_stmt 1 discriminator 2 view .LVU36
 270:Drivers/STM32F3xx_HAL_Driver/Src/stm32f3xx_hal_flash.c ****   pFlash.Data = Data;
 138              		.loc 1 270 18 is_stmt 0 discriminator 2 view .LVU37
 139 001e 9960     		str	r1, [r3, #8]
 271:Drivers/STM32F3xx_HAL_Driver/Src/stm32f3xx_hal_flash.c **** 
 140              		.loc 1 271 3 is_stmt 1 discriminator 2 view .LVU38
 271:Drivers/STM32F3xx_HAL_Driver/Src/stm32f3xx_hal_flash.c **** 
ARM GAS  /var/folders/8c/gyvcglfx7f97kbqb2h83mm_r0000gn/T//cc2rlUQt.s 			page 16


 141              		.loc 1 271 15 is_stmt 0 discriminator 2 view .LVU39
 142 0020 C3E90445 		strd	r4, [r3, #16]
 273:Drivers/STM32F3xx_HAL_Driver/Src/stm32f3xx_hal_flash.c ****   {
 143              		.loc 1 273 3 is_stmt 1 discriminator 2 view .LVU40
 273:Drivers/STM32F3xx_HAL_Driver/Src/stm32f3xx_hal_flash.c ****   {
 144              		.loc 1 273 5 is_stmt 0 discriminator 2 view .LVU41
 145 0024 0CD1     		bne	.L12
 275:Drivers/STM32F3xx_HAL_Driver/Src/stm32f3xx_hal_flash.c ****     /* Program halfword (16-bit) at a specified address. */
 146              		.loc 1 275 5 is_stmt 1 view .LVU42
 275:Drivers/STM32F3xx_HAL_Driver/Src/stm32f3xx_hal_flash.c ****     /* Program halfword (16-bit) at a specified address. */
 147              		.loc 1 275 29 is_stmt 0 view .LVU43
 148 0026 0322     		movs	r2, #3
 149              	.L16:
 281:Drivers/STM32F3xx_HAL_Driver/Src/stm32f3xx_hal_flash.c ****     /* Program word (32-bit : 2*16-bit) at a specified address. */
 150              		.loc 1 281 5 is_stmt 1 view .LVU44
 281:Drivers/STM32F3xx_HAL_Driver/Src/stm32f3xx_hal_flash.c ****     /* Program word (32-bit : 2*16-bit) at a specified address. */
 151              		.loc 1 281 29 is_stmt 0 view .LVU45
 152 0028 1A70     		strb	r2, [r3]
 283:Drivers/STM32F3xx_HAL_Driver/Src/stm32f3xx_hal_flash.c ****   }
 153              		.loc 1 283 5 is_stmt 1 view .LVU46
 283:Drivers/STM32F3xx_HAL_Driver/Src/stm32f3xx_hal_flash.c ****   }
 154              		.loc 1 283 26 is_stmt 0 view .LVU47
 155 002a 5860     		str	r0, [r3, #4]
 156              	.LVL6:
 157              	.L13:
 293:Drivers/STM32F3xx_HAL_Driver/Src/stm32f3xx_hal_flash.c **** 
 158              		.loc 1 293 3 is_stmt 1 view .LVU48
 159              	.LBB4:
 160              	.LBB5:
 626:Drivers/STM32F3xx_HAL_Driver/Src/stm32f3xx_hal_flash.c **** 
 161              		.loc 1 626 5 is_stmt 0 view .LVU49
 162 002c 0A4A     		ldr	r2, .L17+4
 623:Drivers/STM32F3xx_HAL_Driver/Src/stm32f3xx_hal_flash.c ****   
 163              		.loc 1 623 20 view .LVU50
 164 002e 0020     		movs	r0, #0
 165 0030 D861     		str	r0, [r3, #28]
 626:Drivers/STM32F3xx_HAL_Driver/Src/stm32f3xx_hal_flash.c **** 
 166              		.loc 1 626 5 view .LVU51
 167 0032 1369     		ldr	r3, [r2, #16]
 168              	.LBE5:
 169              	.LBE4:
 293:Drivers/STM32F3xx_HAL_Driver/Src/stm32f3xx_hal_flash.c **** 
 170              		.loc 1 293 3 view .LVU52
 171 0034 A4B2     		uxth	r4, r4
 172              	.LVL7:
 173              	.LBB7:
 174              	.LBI4:
 620:Drivers/STM32F3xx_HAL_Driver/Src/stm32f3xx_hal_flash.c **** {
 175              		.loc 1 620 13 is_stmt 1 view .LVU53
 176              	.LBB6:
 623:Drivers/STM32F3xx_HAL_Driver/Src/stm32f3xx_hal_flash.c ****   
 177              		.loc 1 623 3 view .LVU54
 626:Drivers/STM32F3xx_HAL_Driver/Src/stm32f3xx_hal_flash.c **** 
 178              		.loc 1 626 5 view .LVU55
 179 0036 43F00103 		orr	r3, r3, #1
 180 003a 1361     		str	r3, [r2, #16]
 629:Drivers/STM32F3xx_HAL_Driver/Src/stm32f3xx_hal_flash.c **** }
ARM GAS  /var/folders/8c/gyvcglfx7f97kbqb2h83mm_r0000gn/T//cc2rlUQt.s 			page 17


 181              		.loc 1 629 3 view .LVU56
 629:Drivers/STM32F3xx_HAL_Driver/Src/stm32f3xx_hal_flash.c **** }
 182              		.loc 1 629 28 is_stmt 0 view .LVU57
 183 003c 0C80     		strh	r4, [r1]	@ movhi
 184              	.LVL8:
 185              	.L11:
 629:Drivers/STM32F3xx_HAL_Driver/Src/stm32f3xx_hal_flash.c **** }
 186              		.loc 1 629 28 view .LVU58
 187              	.LBE6:
 188              	.LBE7:
 296:Drivers/STM32F3xx_HAL_Driver/Src/stm32f3xx_hal_flash.c **** 
 189              		.loc 1 296 1 view .LVU59
 190 003e 70BD     		pop	{r4, r5, r6, pc}
 191              	.LVL9:
 192              	.L12:
 279:Drivers/STM32F3xx_HAL_Driver/Src/stm32f3xx_hal_flash.c ****   {
 193              		.loc 1 279 8 is_stmt 1 view .LVU60
 279:Drivers/STM32F3xx_HAL_Driver/Src/stm32f3xx_hal_flash.c ****   {
 194              		.loc 1 279 10 is_stmt 0 view .LVU61
 195 0040 0228     		cmp	r0, #2
 196 0042 4FF00402 		mov	r2, #4
 197 0046 EFD0     		beq	.L16
 287:Drivers/STM32F3xx_HAL_Driver/Src/stm32f3xx_hal_flash.c ****     /* Program double word (64-bit : 4*16-bit) at a specified address. */
 198              		.loc 1 287 5 is_stmt 1 view .LVU62
 287:Drivers/STM32F3xx_HAL_Driver/Src/stm32f3xx_hal_flash.c ****     /* Program double word (64-bit : 4*16-bit) at a specified address. */
 199              		.loc 1 287 29 is_stmt 0 view .LVU63
 200 0048 0520     		movs	r0, #5
 201              	.LVL10:
 287:Drivers/STM32F3xx_HAL_Driver/Src/stm32f3xx_hal_flash.c ****     /* Program double word (64-bit : 4*16-bit) at a specified address. */
 202              		.loc 1 287 29 view .LVU64
 203 004a 1870     		strb	r0, [r3]
 289:Drivers/STM32F3xx_HAL_Driver/Src/stm32f3xx_hal_flash.c ****   }
 204              		.loc 1 289 5 is_stmt 1 view .LVU65
 289:Drivers/STM32F3xx_HAL_Driver/Src/stm32f3xx_hal_flash.c ****   }
 205              		.loc 1 289 26 is_stmt 0 view .LVU66
 206 004c 5A60     		str	r2, [r3, #4]
 207 004e EDE7     		b	.L13
 208              	.LVL11:
 209              	.L15:
 261:Drivers/STM32F3xx_HAL_Driver/Src/stm32f3xx_hal_flash.c **** 
 210              		.loc 1 261 3 view .LVU67
 211 0050 0220     		movs	r0, #2
 212              	.LVL12:
 261:Drivers/STM32F3xx_HAL_Driver/Src/stm32f3xx_hal_flash.c **** 
 213              		.loc 1 261 3 view .LVU68
 214 0052 F4E7     		b	.L11
 215              	.L18:
 216              		.align	2
 217              	.L17:
 218 0054 00000000 		.word	pFlash
 219 0058 00200240 		.word	1073881088
 220              		.cfi_endproc
 221              	.LFE127:
 223              		.section	.text.HAL_FLASH_EndOfOperationCallback,"ax",%progbits
 224              		.align	1
 225              		.weak	HAL_FLASH_EndOfOperationCallback
 226              		.syntax unified
ARM GAS  /var/folders/8c/gyvcglfx7f97kbqb2h83mm_r0000gn/T//cc2rlUQt.s 			page 18


 227              		.thumb
 228              		.thumb_func
 229              		.fpu fpv4-sp-d16
 231              	HAL_FLASH_EndOfOperationCallback:
 232              	.LVL13:
 233              	.LFB129:
 446:Drivers/STM32F3xx_HAL_Driver/Src/stm32f3xx_hal_flash.c ****   /* Prevent unused argument(s) compilation warning */
 234              		.loc 1 446 1 is_stmt 1 view -0
 235              		.cfi_startproc
 236              		@ args = 0, pretend = 0, frame = 0
 237              		@ frame_needed = 0, uses_anonymous_args = 0
 238              		@ link register save eliminated.
 448:Drivers/STM32F3xx_HAL_Driver/Src/stm32f3xx_hal_flash.c **** 
 239              		.loc 1 448 3 view .LVU70
 453:Drivers/STM32F3xx_HAL_Driver/Src/stm32f3xx_hal_flash.c **** 
 240              		.loc 1 453 1 is_stmt 0 view .LVU71
 241 0000 7047     		bx	lr
 242              		.cfi_endproc
 243              	.LFE129:
 245              		.section	.text.HAL_FLASH_OperationErrorCallback,"ax",%progbits
 246              		.align	1
 247              		.weak	HAL_FLASH_OperationErrorCallback
 248              		.syntax unified
 249              		.thumb
 250              		.thumb_func
 251              		.fpu fpv4-sp-d16
 253              	HAL_FLASH_OperationErrorCallback:
 254              	.LFB141:
 255              		.cfi_startproc
 256              		@ args = 0, pretend = 0, frame = 0
 257              		@ frame_needed = 0, uses_anonymous_args = 0
 258              		@ link register save eliminated.
 259 0000 7047     		bx	lr
 260              		.cfi_endproc
 261              	.LFE141:
 263              		.section	.text.HAL_FLASH_IRQHandler,"ax",%progbits
 264              		.align	1
 265              		.global	HAL_FLASH_IRQHandler
 266              		.syntax unified
 267              		.thumb
 268              		.thumb_func
 269              		.fpu fpv4-sp-d16
 271              	HAL_FLASH_IRQHandler:
 272              	.LFB128:
 303:Drivers/STM32F3xx_HAL_Driver/Src/stm32f3xx_hal_flash.c ****   uint32_t addresstmp = 0U;
 273              		.loc 1 303 1 is_stmt 1 view -0
 274              		.cfi_startproc
 275              		@ args = 0, pretend = 0, frame = 0
 276              		@ frame_needed = 0, uses_anonymous_args = 0
 304:Drivers/STM32F3xx_HAL_Driver/Src/stm32f3xx_hal_flash.c ****   
 277              		.loc 1 304 3 view .LVU73
 278              	.LVL14:
 307:Drivers/STM32F3xx_HAL_Driver/Src/stm32f3xx_hal_flash.c ****   {
 279              		.loc 1 307 3 view .LVU74
 307:Drivers/STM32F3xx_HAL_Driver/Src/stm32f3xx_hal_flash.c ****   {
 280              		.loc 1 307 6 is_stmt 0 view .LVU75
 281 0000 424B     		ldr	r3, .L43
ARM GAS  /var/folders/8c/gyvcglfx7f97kbqb2h83mm_r0000gn/T//cc2rlUQt.s 			page 19


 282 0002 DA68     		ldr	r2, [r3, #12]
 307:Drivers/STM32F3xx_HAL_Driver/Src/stm32f3xx_hal_flash.c ****   {
 283              		.loc 1 307 5 view .LVU76
 284 0004 12F0100F 		tst	r2, #16
 303:Drivers/STM32F3xx_HAL_Driver/Src/stm32f3xx_hal_flash.c ****   uint32_t addresstmp = 0U;
 285              		.loc 1 303 1 view .LVU77
 286 0008 70B5     		push	{r4, r5, r6, lr}
 287              	.LCFI1:
 288              		.cfi_def_cfa_offset 16
 289              		.cfi_offset 4, -16
 290              		.cfi_offset 5, -12
 291              		.cfi_offset 6, -8
 292              		.cfi_offset 14, -4
 293 000a 414C     		ldr	r4, .L43+4
 307:Drivers/STM32F3xx_HAL_Driver/Src/stm32f3xx_hal_flash.c ****   {
 294              		.loc 1 307 5 view .LVU78
 295 000c 02D1     		bne	.L22
 307:Drivers/STM32F3xx_HAL_Driver/Src/stm32f3xx_hal_flash.c ****   {
 296              		.loc 1 307 48 discriminator 1 view .LVU79
 297 000e DB68     		ldr	r3, [r3, #12]
 307:Drivers/STM32F3xx_HAL_Driver/Src/stm32f3xx_hal_flash.c ****   {
 298              		.loc 1 307 46 discriminator 1 view .LVU80
 299 0010 5A07     		lsls	r2, r3, #29
 300 0012 09D5     		bpl	.L23
 301              	.L22:
 310:Drivers/STM32F3xx_HAL_Driver/Src/stm32f3xx_hal_flash.c ****     /* Reset address */
 302              		.loc 1 310 5 is_stmt 1 view .LVU81
 312:Drivers/STM32F3xx_HAL_Driver/Src/stm32f3xx_hal_flash.c ****   
 303              		.loc 1 312 20 is_stmt 0 view .LVU82
 304 0014 4FF0FF33 		mov	r3, #-1
 310:Drivers/STM32F3xx_HAL_Driver/Src/stm32f3xx_hal_flash.c ****     /* Reset address */
 305              		.loc 1 310 16 view .LVU83
 306 0018 A068     		ldr	r0, [r4, #8]
 307              	.LVL15:
 312:Drivers/STM32F3xx_HAL_Driver/Src/stm32f3xx_hal_flash.c ****   
 308              		.loc 1 312 5 is_stmt 1 view .LVU84
 312:Drivers/STM32F3xx_HAL_Driver/Src/stm32f3xx_hal_flash.c ****   
 309              		.loc 1 312 20 is_stmt 0 view .LVU85
 310 001a A360     		str	r3, [r4, #8]
 315:Drivers/STM32F3xx_HAL_Driver/Src/stm32f3xx_hal_flash.c ****     
 311              		.loc 1 315 5 is_stmt 1 view .LVU86
 312 001c FFF7FEFF 		bl	FLASH_SetErrorCode
 313              	.LVL16:
 318:Drivers/STM32F3xx_HAL_Driver/Src/stm32f3xx_hal_flash.c **** 
 314              		.loc 1 318 5 view .LVU87
 315 0020 FFF7FEFF 		bl	HAL_FLASH_OperationErrorCallback
 316              	.LVL17:
 321:Drivers/STM32F3xx_HAL_Driver/Src/stm32f3xx_hal_flash.c ****   }
 317              		.loc 1 321 5 view .LVU88
 321:Drivers/STM32F3xx_HAL_Driver/Src/stm32f3xx_hal_flash.c ****   }
 318              		.loc 1 321 29 is_stmt 0 view .LVU89
 319 0024 0023     		movs	r3, #0
 320 0026 2370     		strb	r3, [r4]
 321              	.L23:
 325:Drivers/STM32F3xx_HAL_Driver/Src/stm32f3xx_hal_flash.c ****   {
 322              		.loc 1 325 3 is_stmt 1 view .LVU90
 325:Drivers/STM32F3xx_HAL_Driver/Src/stm32f3xx_hal_flash.c ****   {
ARM GAS  /var/folders/8c/gyvcglfx7f97kbqb2h83mm_r0000gn/T//cc2rlUQt.s 			page 20


 323              		.loc 1 325 6 is_stmt 0 view .LVU91
 324 0028 384D     		ldr	r5, .L43
 325 002a EB68     		ldr	r3, [r5, #12]
 325:Drivers/STM32F3xx_HAL_Driver/Src/stm32f3xx_hal_flash.c ****   {
 326              		.loc 1 325 5 view .LVU92
 327 002c 9B06     		lsls	r3, r3, #26
 328 002e 18D5     		bpl	.L25
 328:Drivers/STM32F3xx_HAL_Driver/Src/stm32f3xx_hal_flash.c ****     
 329              		.loc 1 328 5 is_stmt 1 view .LVU93
 330 0030 2023     		movs	r3, #32
 331 0032 EB60     		str	r3, [r5, #12]
 331:Drivers/STM32F3xx_HAL_Driver/Src/stm32f3xx_hal_flash.c ****     {
 332              		.loc 1 331 5 view .LVU94
 331:Drivers/STM32F3xx_HAL_Driver/Src/stm32f3xx_hal_flash.c ****     {
 333              		.loc 1 331 14 is_stmt 0 view .LVU95
 334 0034 2378     		ldrb	r3, [r4]	@ zero_extendqisi2
 331:Drivers/STM32F3xx_HAL_Driver/Src/stm32f3xx_hal_flash.c ****     {
 335              		.loc 1 331 7 view .LVU96
 336 0036 A3B1     		cbz	r3, .L25
 333:Drivers/STM32F3xx_HAL_Driver/Src/stm32f3xx_hal_flash.c ****       {
 337              		.loc 1 333 7 is_stmt 1 view .LVU97
 333:Drivers/STM32F3xx_HAL_Driver/Src/stm32f3xx_hal_flash.c ****       {
 338              		.loc 1 333 16 is_stmt 0 view .LVU98
 339 0038 2378     		ldrb	r3, [r4]	@ zero_extendqisi2
 333:Drivers/STM32F3xx_HAL_Driver/Src/stm32f3xx_hal_flash.c ****       {
 340              		.loc 1 333 9 view .LVU99
 341 003a 012B     		cmp	r3, #1
 342 003c 27D1     		bne	.L27
 336:Drivers/STM32F3xx_HAL_Driver/Src/stm32f3xx_hal_flash.c **** 
 343              		.loc 1 336 9 is_stmt 1 view .LVU100
 336:Drivers/STM32F3xx_HAL_Driver/Src/stm32f3xx_hal_flash.c **** 
 344              		.loc 1 336 15 is_stmt 0 view .LVU101
 345 003e 6368     		ldr	r3, [r4, #4]
 336:Drivers/STM32F3xx_HAL_Driver/Src/stm32f3xx_hal_flash.c **** 
 346              		.loc 1 336 29 view .LVU102
 347 0040 013B     		subs	r3, r3, #1
 348 0042 6360     		str	r3, [r4, #4]
 339:Drivers/STM32F3xx_HAL_Driver/Src/stm32f3xx_hal_flash.c ****         {
 349              		.loc 1 339 9 is_stmt 1 view .LVU103
 339:Drivers/STM32F3xx_HAL_Driver/Src/stm32f3xx_hal_flash.c ****         {
 350              		.loc 1 339 18 is_stmt 0 view .LVU104
 351 0044 6368     		ldr	r3, [r4, #4]
 339:Drivers/STM32F3xx_HAL_Driver/Src/stm32f3xx_hal_flash.c ****         {
 352              		.loc 1 339 11 view .LVU105
 353 0046 DBB1     		cbz	r3, .L28
 341:Drivers/STM32F3xx_HAL_Driver/Src/stm32f3xx_hal_flash.c ****           /*Indicate user which sector has been erased */
 354              		.loc 1 341 11 is_stmt 1 view .LVU106
 341:Drivers/STM32F3xx_HAL_Driver/Src/stm32f3xx_hal_flash.c ****           /*Indicate user which sector has been erased */
 355              		.loc 1 341 22 is_stmt 0 view .LVU107
 356 0048 A068     		ldr	r0, [r4, #8]
 357              	.LVL18:
 343:Drivers/STM32F3xx_HAL_Driver/Src/stm32f3xx_hal_flash.c **** 
 358              		.loc 1 343 11 is_stmt 1 view .LVU108
 359 004a FFF7FEFF 		bl	HAL_FLASH_EndOfOperationCallback
 360              	.LVL19:
 346:Drivers/STM32F3xx_HAL_Driver/Src/stm32f3xx_hal_flash.c ****           pFlash.Address = addresstmp;
 361              		.loc 1 346 11 view .LVU109
ARM GAS  /var/folders/8c/gyvcglfx7f97kbqb2h83mm_r0000gn/T//cc2rlUQt.s 			page 21


 346:Drivers/STM32F3xx_HAL_Driver/Src/stm32f3xx_hal_flash.c ****           pFlash.Address = addresstmp;
 362              		.loc 1 346 30 is_stmt 0 view .LVU110
 363 004e A068     		ldr	r0, [r4, #8]
 346:Drivers/STM32F3xx_HAL_Driver/Src/stm32f3xx_hal_flash.c ****           pFlash.Address = addresstmp;
 364              		.loc 1 346 22 view .LVU111
 365 0050 00F50060 		add	r0, r0, #2048
 366              	.LVL20:
 347:Drivers/STM32F3xx_HAL_Driver/Src/stm32f3xx_hal_flash.c **** 
 367              		.loc 1 347 11 is_stmt 1 view .LVU112
 347:Drivers/STM32F3xx_HAL_Driver/Src/stm32f3xx_hal_flash.c **** 
 368              		.loc 1 347 26 is_stmt 0 view .LVU113
 369 0054 A060     		str	r0, [r4, #8]
 350:Drivers/STM32F3xx_HAL_Driver/Src/stm32f3xx_hal_flash.c **** 
 370              		.loc 1 350 11 is_stmt 1 view .LVU114
 371 0056 2B69     		ldr	r3, [r5, #16]
 372 0058 23F00203 		bic	r3, r3, #2
 373 005c 2B61     		str	r3, [r5, #16]
 352:Drivers/STM32F3xx_HAL_Driver/Src/stm32f3xx_hal_flash.c ****         }
 374              		.loc 1 352 11 view .LVU115
 375 005e FFF7FEFF 		bl	FLASH_PageErase
 376              	.LVL21:
 377              	.L25:
 423:Drivers/STM32F3xx_HAL_Driver/Src/stm32f3xx_hal_flash.c ****   {
 378              		.loc 1 423 3 view .LVU116
 423:Drivers/STM32F3xx_HAL_Driver/Src/stm32f3xx_hal_flash.c ****   {
 379              		.loc 1 423 12 is_stmt 0 view .LVU117
 380 0062 2378     		ldrb	r3, [r4]	@ zero_extendqisi2
 423:Drivers/STM32F3xx_HAL_Driver/Src/stm32f3xx_hal_flash.c ****   {
 381              		.loc 1 423 5 view .LVU118
 382 0064 03F0FF01 		and	r1, r3, #255
 383 0068 4BB9     		cbnz	r3, .L21
 426:Drivers/STM32F3xx_HAL_Driver/Src/stm32f3xx_hal_flash.c **** 
 384              		.loc 1 426 5 is_stmt 1 view .LVU119
 385 006a 284B     		ldr	r3, .L43
 386 006c 1A69     		ldr	r2, [r3, #16]
 387 006e 22F00702 		bic	r2, r2, #7
 388 0072 1A61     		str	r2, [r3, #16]
 429:Drivers/STM32F3xx_HAL_Driver/Src/stm32f3xx_hal_flash.c **** 
 389              		.loc 1 429 5 view .LVU120
 390 0074 1A69     		ldr	r2, [r3, #16]
 391 0076 22F4A052 		bic	r2, r2, #5120
 392 007a 1A61     		str	r2, [r3, #16]
 432:Drivers/STM32F3xx_HAL_Driver/Src/stm32f3xx_hal_flash.c ****   }
 393              		.loc 1 432 5 view .LVU121
 432:Drivers/STM32F3xx_HAL_Driver/Src/stm32f3xx_hal_flash.c ****   }
 394              		.loc 1 432 5 view .LVU122
 395 007c 2176     		strb	r1, [r4, #24]
 396              	.L21:
 434:Drivers/STM32F3xx_HAL_Driver/Src/stm32f3xx_hal_flash.c **** 
 397              		.loc 1 434 1 is_stmt 0 view .LVU123
 398 007e 70BD     		pop	{r4, r5, r6, pc}
 399              	.L28:
 358:Drivers/STM32F3xx_HAL_Driver/Src/stm32f3xx_hal_flash.c ****           pFlash.ProcedureOnGoing = FLASH_PROC_NONE;
 400              		.loc 1 358 11 is_stmt 1 view .LVU124
 401              	.LVL22:
 358:Drivers/STM32F3xx_HAL_Driver/Src/stm32f3xx_hal_flash.c ****           pFlash.ProcedureOnGoing = FLASH_PROC_NONE;
 402              		.loc 1 358 26 is_stmt 0 view .LVU125
ARM GAS  /var/folders/8c/gyvcglfx7f97kbqb2h83mm_r0000gn/T//cc2rlUQt.s 			page 22


 403 0080 4FF0FF30 		mov	r0, #-1
 404 0084 A060     		str	r0, [r4, #8]
 359:Drivers/STM32F3xx_HAL_Driver/Src/stm32f3xx_hal_flash.c ****           /* FLASH EOP interrupt user callback */
 405              		.loc 1 359 11 is_stmt 1 view .LVU126
 359:Drivers/STM32F3xx_HAL_Driver/Src/stm32f3xx_hal_flash.c ****           /* FLASH EOP interrupt user callback */
 406              		.loc 1 359 35 is_stmt 0 view .LVU127
 407 0086 2370     		strb	r3, [r4]
 361:Drivers/STM32F3xx_HAL_Driver/Src/stm32f3xx_hal_flash.c ****         }
 408              		.loc 1 361 11 is_stmt 1 view .LVU128
 409 0088 FFF7FEFF 		bl	HAL_FLASH_EndOfOperationCallback
 410              	.LVL23:
 411 008c E9E7     		b	.L25
 412              	.LVL24:
 413              	.L27:
 364:Drivers/STM32F3xx_HAL_Driver/Src/stm32f3xx_hal_flash.c ****       {
 414              		.loc 1 364 12 view .LVU129
 364:Drivers/STM32F3xx_HAL_Driver/Src/stm32f3xx_hal_flash.c ****       {
 415              		.loc 1 364 21 is_stmt 0 view .LVU130
 416 008e 2378     		ldrb	r3, [r4]	@ zero_extendqisi2
 364:Drivers/STM32F3xx_HAL_Driver/Src/stm32f3xx_hal_flash.c ****       {
 417              		.loc 1 364 14 view .LVU131
 418 0090 022B     		cmp	r3, #2
 419 0092 09D1     		bne	.L29
 367:Drivers/STM32F3xx_HAL_Driver/Src/stm32f3xx_hal_flash.c **** 
 420              		.loc 1 367 9 is_stmt 1 view .LVU132
 421 0094 2B69     		ldr	r3, [r5, #16]
 422 0096 23F00403 		bic	r3, r3, #4
 423 009a 2B61     		str	r3, [r5, #16]
 371:Drivers/STM32F3xx_HAL_Driver/Src/stm32f3xx_hal_flash.c **** 
 424              		.loc 1 371 11 view .LVU133
 425 009c 0020     		movs	r0, #0
 426 009e FFF7FEFF 		bl	HAL_FLASH_EndOfOperationCallback
 427              	.LVL25:
 374:Drivers/STM32F3xx_HAL_Driver/Src/stm32f3xx_hal_flash.c ****         }
 428              		.loc 1 374 11 view .LVU134
 429              	.L42:
 416:Drivers/STM32F3xx_HAL_Driver/Src/stm32f3xx_hal_flash.c ****         }
 430              		.loc 1 416 11 view .LVU135
 416:Drivers/STM32F3xx_HAL_Driver/Src/stm32f3xx_hal_flash.c ****         }
 431              		.loc 1 416 35 is_stmt 0 view .LVU136
 432 00a2 0023     		movs	r3, #0
 433 00a4 2370     		strb	r3, [r4]
 434 00a6 DCE7     		b	.L25
 435              	.L29:
 379:Drivers/STM32F3xx_HAL_Driver/Src/stm32f3xx_hal_flash.c ****         
 436              		.loc 1 379 9 is_stmt 1 view .LVU137
 379:Drivers/STM32F3xx_HAL_Driver/Src/stm32f3xx_hal_flash.c ****         
 437              		.loc 1 379 15 is_stmt 0 view .LVU138
 438 00a8 6368     		ldr	r3, [r4, #4]
 379:Drivers/STM32F3xx_HAL_Driver/Src/stm32f3xx_hal_flash.c ****         
 439              		.loc 1 379 29 view .LVU139
 440 00aa 013B     		subs	r3, r3, #1
 441 00ac 6360     		str	r3, [r4, #4]
 382:Drivers/STM32F3xx_HAL_Driver/Src/stm32f3xx_hal_flash.c ****         {
 442              		.loc 1 382 9 is_stmt 1 view .LVU140
 382:Drivers/STM32F3xx_HAL_Driver/Src/stm32f3xx_hal_flash.c ****         {
 443              		.loc 1 382 18 is_stmt 0 view .LVU141
ARM GAS  /var/folders/8c/gyvcglfx7f97kbqb2h83mm_r0000gn/T//cc2rlUQt.s 			page 23


 444 00ae 6368     		ldr	r3, [r4, #4]
 382:Drivers/STM32F3xx_HAL_Driver/Src/stm32f3xx_hal_flash.c ****         {
 445              		.loc 1 382 11 view .LVU142
 446 00b0 D3B1     		cbz	r3, .L30
 385:Drivers/STM32F3xx_HAL_Driver/Src/stm32f3xx_hal_flash.c ****           addresstmp = pFlash.Address;
 447              		.loc 1 385 11 is_stmt 1 view .LVU143
 385:Drivers/STM32F3xx_HAL_Driver/Src/stm32f3xx_hal_flash.c ****           addresstmp = pFlash.Address;
 448              		.loc 1 385 26 is_stmt 0 view .LVU144
 449 00b2 A368     		ldr	r3, [r4, #8]
 450 00b4 0233     		adds	r3, r3, #2
 451 00b6 A360     		str	r3, [r4, #8]
 386:Drivers/STM32F3xx_HAL_Driver/Src/stm32f3xx_hal_flash.c ****           
 452              		.loc 1 386 11 is_stmt 1 view .LVU145
 386:Drivers/STM32F3xx_HAL_Driver/Src/stm32f3xx_hal_flash.c ****           
 453              		.loc 1 386 22 is_stmt 0 view .LVU146
 454 00b8 A668     		ldr	r6, [r4, #8]
 455              	.LVL26:
 389:Drivers/STM32F3xx_HAL_Driver/Src/stm32f3xx_hal_flash.c ****           
 456              		.loc 1 389 11 is_stmt 1 view .LVU147
 389:Drivers/STM32F3xx_HAL_Driver/Src/stm32f3xx_hal_flash.c ****           
 457              		.loc 1 389 32 is_stmt 0 view .LVU148
 458 00ba D4E90401 		ldrd	r0, [r4, #16]
 389:Drivers/STM32F3xx_HAL_Driver/Src/stm32f3xx_hal_flash.c ****           
 459              		.loc 1 389 38 view .LVU149
 460 00be 020C     		lsrs	r2, r0, #16
 461 00c0 42EA0142 		orr	r2, r2, r1, lsl #16
 462 00c4 0B0C     		lsrs	r3, r1, #16
 389:Drivers/STM32F3xx_HAL_Driver/Src/stm32f3xx_hal_flash.c ****           
 463              		.loc 1 389 23 view .LVU150
 464 00c6 C4E90423 		strd	r2, [r4, #16]
 392:Drivers/STM32F3xx_HAL_Driver/Src/stm32f3xx_hal_flash.c **** 
 465              		.loc 1 392 11 is_stmt 1 view .LVU151
 466 00ca 2B69     		ldr	r3, [r5, #16]
 467 00cc 23F00103 		bic	r3, r3, #1
 468 00d0 2B61     		str	r3, [r5, #16]
 395:Drivers/STM32F3xx_HAL_Driver/Src/stm32f3xx_hal_flash.c ****         }
 469              		.loc 1 395 11 view .LVU152
 395:Drivers/STM32F3xx_HAL_Driver/Src/stm32f3xx_hal_flash.c ****         }
 470              		.loc 1 395 62 is_stmt 0 view .LVU153
 471 00d2 D4E90423 		ldrd	r2, [r4, #16]
 472              	.LBB10:
 473              	.LBB11:
 623:Drivers/STM32F3xx_HAL_Driver/Src/stm32f3xx_hal_flash.c ****   
 474              		.loc 1 623 20 view .LVU154
 475 00d6 0023     		movs	r3, #0
 476 00d8 E361     		str	r3, [r4, #28]
 626:Drivers/STM32F3xx_HAL_Driver/Src/stm32f3xx_hal_flash.c **** 
 477              		.loc 1 626 5 view .LVU155
 478 00da 2B69     		ldr	r3, [r5, #16]
 479              	.LBE11:
 480              	.LBE10:
 395:Drivers/STM32F3xx_HAL_Driver/Src/stm32f3xx_hal_flash.c ****         }
 481              		.loc 1 395 11 view .LVU156
 482 00dc 92B2     		uxth	r2, r2
 483              	.LVL27:
 484              	.LBB13:
 485              	.LBI10:
ARM GAS  /var/folders/8c/gyvcglfx7f97kbqb2h83mm_r0000gn/T//cc2rlUQt.s 			page 24


 620:Drivers/STM32F3xx_HAL_Driver/Src/stm32f3xx_hal_flash.c **** {
 486              		.loc 1 620 13 is_stmt 1 view .LVU157
 487              	.LBB12:
 623:Drivers/STM32F3xx_HAL_Driver/Src/stm32f3xx_hal_flash.c ****   
 488              		.loc 1 623 3 view .LVU158
 626:Drivers/STM32F3xx_HAL_Driver/Src/stm32f3xx_hal_flash.c **** 
 489              		.loc 1 626 5 view .LVU159
 490 00de 43F00103 		orr	r3, r3, #1
 491 00e2 2B61     		str	r3, [r5, #16]
 629:Drivers/STM32F3xx_HAL_Driver/Src/stm32f3xx_hal_flash.c **** }
 492              		.loc 1 629 3 view .LVU160
 629:Drivers/STM32F3xx_HAL_Driver/Src/stm32f3xx_hal_flash.c **** }
 493              		.loc 1 629 28 is_stmt 0 view .LVU161
 494 00e4 3280     		strh	r2, [r6]	@ movhi
 495 00e6 BCE7     		b	.L25
 496              	.LVL28:
 497              	.L30:
 629:Drivers/STM32F3xx_HAL_Driver/Src/stm32f3xx_hal_flash.c **** }
 498              		.loc 1 629 28 view .LVU162
 499              	.LBE12:
 500              	.LBE13:
 401:Drivers/STM32F3xx_HAL_Driver/Src/stm32f3xx_hal_flash.c ****           {
 501              		.loc 1 401 11 is_stmt 1 view .LVU163
 401:Drivers/STM32F3xx_HAL_Driver/Src/stm32f3xx_hal_flash.c ****           {
 502              		.loc 1 401 21 is_stmt 0 view .LVU164
 503 00e8 2378     		ldrb	r3, [r4]	@ zero_extendqisi2
 401:Drivers/STM32F3xx_HAL_Driver/Src/stm32f3xx_hal_flash.c ****           {
 504              		.loc 1 401 14 view .LVU165
 505 00ea 032B     		cmp	r3, #3
 506 00ec 06D1     		bne	.L31
 403:Drivers/STM32F3xx_HAL_Driver/Src/stm32f3xx_hal_flash.c ****           }
 507              		.loc 1 403 13 is_stmt 1 view .LVU166
 508 00ee A068     		ldr	r0, [r4, #8]
 509              	.L41:
 411:Drivers/STM32F3xx_HAL_Driver/Src/stm32f3xx_hal_flash.c ****           }
 510              		.loc 1 411 13 is_stmt 0 view .LVU167
 511 00f0 FFF7FEFF 		bl	HAL_FLASH_EndOfOperationCallback
 512              	.LVL29:
 415:Drivers/STM32F3xx_HAL_Driver/Src/stm32f3xx_hal_flash.c ****           pFlash.ProcedureOnGoing = FLASH_PROC_NONE;
 513              		.loc 1 415 11 is_stmt 1 view .LVU168
 415:Drivers/STM32F3xx_HAL_Driver/Src/stm32f3xx_hal_flash.c ****           pFlash.ProcedureOnGoing = FLASH_PROC_NONE;
 514              		.loc 1 415 26 is_stmt 0 view .LVU169
 515 00f4 4FF0FF33 		mov	r3, #-1
 516 00f8 A360     		str	r3, [r4, #8]
 517 00fa D2E7     		b	.L42
 518              	.L31:
 405:Drivers/STM32F3xx_HAL_Driver/Src/stm32f3xx_hal_flash.c ****           {
 519              		.loc 1 405 16 is_stmt 1 view .LVU170
 405:Drivers/STM32F3xx_HAL_Driver/Src/stm32f3xx_hal_flash.c ****           {
 520              		.loc 1 405 26 is_stmt 0 view .LVU171
 521 00fc 2378     		ldrb	r3, [r4]	@ zero_extendqisi2
 407:Drivers/STM32F3xx_HAL_Driver/Src/stm32f3xx_hal_flash.c ****           }
 522              		.loc 1 407 52 view .LVU172
 523 00fe A068     		ldr	r0, [r4, #8]
 405:Drivers/STM32F3xx_HAL_Driver/Src/stm32f3xx_hal_flash.c ****           {
 524              		.loc 1 405 19 view .LVU173
 525 0100 042B     		cmp	r3, #4
ARM GAS  /var/folders/8c/gyvcglfx7f97kbqb2h83mm_r0000gn/T//cc2rlUQt.s 			page 25


 407:Drivers/STM32F3xx_HAL_Driver/Src/stm32f3xx_hal_flash.c ****           }
 526              		.loc 1 407 13 is_stmt 1 view .LVU174
 527 0102 0CBF     		ite	eq
 528 0104 0238     		subeq	r0, r0, #2
 411:Drivers/STM32F3xx_HAL_Driver/Src/stm32f3xx_hal_flash.c ****           }
 529              		.loc 1 411 13 view .LVU175
 530 0106 0638     		subne	r0, r0, #6
 531 0108 F2E7     		b	.L41
 532              	.L44:
 533 010a 00BF     		.align	2
 534              	.L43:
 535 010c 00200240 		.word	1073881088
 536 0110 00000000 		.word	pFlash
 537              		.cfi_endproc
 538              	.LFE128:
 540              		.section	.text.HAL_FLASH_Unlock,"ax",%progbits
 541              		.align	1
 542              		.global	HAL_FLASH_Unlock
 543              		.syntax unified
 544              		.thumb
 545              		.thumb_func
 546              		.fpu fpv4-sp-d16
 548              	HAL_FLASH_Unlock:
 549              	.LFB131:
 497:Drivers/STM32F3xx_HAL_Driver/Src/stm32f3xx_hal_flash.c ****   HAL_StatusTypeDef status = HAL_OK;
 550              		.loc 1 497 1 view -0
 551              		.cfi_startproc
 552              		@ args = 0, pretend = 0, frame = 0
 553              		@ frame_needed = 0, uses_anonymous_args = 0
 554              		@ link register save eliminated.
 498:Drivers/STM32F3xx_HAL_Driver/Src/stm32f3xx_hal_flash.c **** 
 555              		.loc 1 498 3 view .LVU177
 556              	.LVL30:
 500:Drivers/STM32F3xx_HAL_Driver/Src/stm32f3xx_hal_flash.c ****   {
 557              		.loc 1 500 3 view .LVU178
 500:Drivers/STM32F3xx_HAL_Driver/Src/stm32f3xx_hal_flash.c ****   {
 558              		.loc 1 500 6 is_stmt 0 view .LVU179
 559 0000 064B     		ldr	r3, .L48
 560 0002 1869     		ldr	r0, [r3, #16]
 500:Drivers/STM32F3xx_HAL_Driver/Src/stm32f3xx_hal_flash.c ****   {
 561              		.loc 1 500 5 view .LVU180
 562 0004 10F08000 		ands	r0, r0, #128
 563 0008 07D0     		beq	.L46
 503:Drivers/STM32F3xx_HAL_Driver/Src/stm32f3xx_hal_flash.c ****     WRITE_REG(FLASH->KEYR, FLASH_KEY2);
 564              		.loc 1 503 5 is_stmt 1 view .LVU181
 565 000a 054A     		ldr	r2, .L48+4
 566 000c 5A60     		str	r2, [r3, #4]
 504:Drivers/STM32F3xx_HAL_Driver/Src/stm32f3xx_hal_flash.c **** 
 567              		.loc 1 504 5 view .LVU182
 568 000e 02F18832 		add	r2, r2, #-2004318072
 569 0012 5A60     		str	r2, [r3, #4]
 507:Drivers/STM32F3xx_HAL_Driver/Src/stm32f3xx_hal_flash.c ****     {
 570              		.loc 1 507 5 view .LVU183
 507:Drivers/STM32F3xx_HAL_Driver/Src/stm32f3xx_hal_flash.c ****     {
 571              		.loc 1 507 8 is_stmt 0 view .LVU184
 572 0014 1869     		ldr	r0, [r3, #16]
 498:Drivers/STM32F3xx_HAL_Driver/Src/stm32f3xx_hal_flash.c **** 
ARM GAS  /var/folders/8c/gyvcglfx7f97kbqb2h83mm_r0000gn/T//cc2rlUQt.s 			page 26


 573              		.loc 1 498 21 view .LVU185
 574 0016 C0F3C010 		ubfx	r0, r0, #7, #1
 575              	.L46:
 576              	.LVL31:
 513:Drivers/STM32F3xx_HAL_Driver/Src/stm32f3xx_hal_flash.c **** }
 577              		.loc 1 513 3 is_stmt 1 view .LVU186
 514:Drivers/STM32F3xx_HAL_Driver/Src/stm32f3xx_hal_flash.c **** 
 578              		.loc 1 514 1 is_stmt 0 view .LVU187
 579 001a 7047     		bx	lr
 580              	.L49:
 581              		.align	2
 582              	.L48:
 583 001c 00200240 		.word	1073881088
 584 0020 23016745 		.word	1164378403
 585              		.cfi_endproc
 586              	.LFE131:
 588              		.section	.text.HAL_FLASH_Lock,"ax",%progbits
 589              		.align	1
 590              		.global	HAL_FLASH_Lock
 591              		.syntax unified
 592              		.thumb
 593              		.thumb_func
 594              		.fpu fpv4-sp-d16
 596              	HAL_FLASH_Lock:
 597              	.LFB132:
 521:Drivers/STM32F3xx_HAL_Driver/Src/stm32f3xx_hal_flash.c ****   /* Set the LOCK Bit to lock the FLASH Registers access */
 598              		.loc 1 521 1 is_stmt 1 view -0
 599              		.cfi_startproc
 600              		@ args = 0, pretend = 0, frame = 0
 601              		@ frame_needed = 0, uses_anonymous_args = 0
 602              		@ link register save eliminated.
 523:Drivers/STM32F3xx_HAL_Driver/Src/stm32f3xx_hal_flash.c ****   
 603              		.loc 1 523 3 view .LVU189
 604 0000 034A     		ldr	r2, .L51
 605 0002 1369     		ldr	r3, [r2, #16]
 606 0004 43F08003 		orr	r3, r3, #128
 607 0008 1361     		str	r3, [r2, #16]
 525:Drivers/STM32F3xx_HAL_Driver/Src/stm32f3xx_hal_flash.c **** }
 608              		.loc 1 525 3 view .LVU190
 526:Drivers/STM32F3xx_HAL_Driver/Src/stm32f3xx_hal_flash.c **** 
 609              		.loc 1 526 1 is_stmt 0 view .LVU191
 610 000a 0020     		movs	r0, #0
 611 000c 7047     		bx	lr
 612              	.L52:
 613 000e 00BF     		.align	2
 614              	.L51:
 615 0010 00200240 		.word	1073881088
 616              		.cfi_endproc
 617              	.LFE132:
 619              		.section	.text.HAL_FLASH_OB_Unlock,"ax",%progbits
 620              		.align	1
 621              		.global	HAL_FLASH_OB_Unlock
 622              		.syntax unified
 623              		.thumb
 624              		.thumb_func
 625              		.fpu fpv4-sp-d16
 627              	HAL_FLASH_OB_Unlock:
ARM GAS  /var/folders/8c/gyvcglfx7f97kbqb2h83mm_r0000gn/T//cc2rlUQt.s 			page 27


 628              	.LFB133:
 533:Drivers/STM32F3xx_HAL_Driver/Src/stm32f3xx_hal_flash.c ****   if (HAL_IS_BIT_CLR(FLASH->CR, FLASH_CR_OPTWRE))
 629              		.loc 1 533 1 is_stmt 1 view -0
 630              		.cfi_startproc
 631              		@ args = 0, pretend = 0, frame = 0
 632              		@ frame_needed = 0, uses_anonymous_args = 0
 633              		@ link register save eliminated.
 534:Drivers/STM32F3xx_HAL_Driver/Src/stm32f3xx_hal_flash.c ****   {
 634              		.loc 1 534 3 view .LVU193
 534:Drivers/STM32F3xx_HAL_Driver/Src/stm32f3xx_hal_flash.c ****   {
 635              		.loc 1 534 7 is_stmt 0 view .LVU194
 636 0000 064B     		ldr	r3, .L56
 637 0002 1869     		ldr	r0, [r3, #16]
 534:Drivers/STM32F3xx_HAL_Driver/Src/stm32f3xx_hal_flash.c ****   {
 638              		.loc 1 534 6 view .LVU195
 639 0004 10F40070 		ands	r0, r0, #512
 537:Drivers/STM32F3xx_HAL_Driver/Src/stm32f3xx_hal_flash.c ****     WRITE_REG(FLASH->OPTKEYR, FLASH_OPTKEY2);
 640              		.loc 1 537 5 is_stmt 1 view .LVU196
 641 0008 01BF     		itttt	eq
 642 000a 054A     		ldreq	r2, .L56+4
 643 000c 9A60     		streq	r2, [r3, #8]
 538:Drivers/STM32F3xx_HAL_Driver/Src/stm32f3xx_hal_flash.c ****   }
 644              		.loc 1 538 5 view .LVU197
 645 000e 02F18832 		addeq	r2, r2, #-2004318072
 646 0012 9A60     		streq	r2, [r3, #8]
 545:Drivers/STM32F3xx_HAL_Driver/Src/stm32f3xx_hal_flash.c **** }
 647              		.loc 1 545 3 view .LVU198
 542:Drivers/STM32F3xx_HAL_Driver/Src/stm32f3xx_hal_flash.c ****   }  
 648              		.loc 1 542 12 is_stmt 0 view .LVU199
 649 0014 18BF     		it	ne
 650 0016 0120     		movne	r0, #1
 546:Drivers/STM32F3xx_HAL_Driver/Src/stm32f3xx_hal_flash.c **** 
 651              		.loc 1 546 1 view .LVU200
 652 0018 7047     		bx	lr
 653              	.L57:
 654 001a 00BF     		.align	2
 655              	.L56:
 656 001c 00200240 		.word	1073881088
 657 0020 23016745 		.word	1164378403
 658              		.cfi_endproc
 659              	.LFE133:
 661              		.section	.text.HAL_FLASH_OB_Lock,"ax",%progbits
 662              		.align	1
 663              		.global	HAL_FLASH_OB_Lock
 664              		.syntax unified
 665              		.thumb
 666              		.thumb_func
 667              		.fpu fpv4-sp-d16
 669              	HAL_FLASH_OB_Lock:
 670              	.LFB134:
 553:Drivers/STM32F3xx_HAL_Driver/Src/stm32f3xx_hal_flash.c ****   /* Clear the OPTWRE Bit to lock the FLASH Option Byte Registers access */
 671              		.loc 1 553 1 is_stmt 1 view -0
 672              		.cfi_startproc
 673              		@ args = 0, pretend = 0, frame = 0
 674              		@ frame_needed = 0, uses_anonymous_args = 0
 675              		@ link register save eliminated.
 555:Drivers/STM32F3xx_HAL_Driver/Src/stm32f3xx_hal_flash.c ****   
ARM GAS  /var/folders/8c/gyvcglfx7f97kbqb2h83mm_r0000gn/T//cc2rlUQt.s 			page 28


 676              		.loc 1 555 3 view .LVU202
 677 0000 034A     		ldr	r2, .L59
 678 0002 1369     		ldr	r3, [r2, #16]
 679 0004 23F40073 		bic	r3, r3, #512
 680 0008 1361     		str	r3, [r2, #16]
 557:Drivers/STM32F3xx_HAL_Driver/Src/stm32f3xx_hal_flash.c **** }
 681              		.loc 1 557 3 view .LVU203
 558:Drivers/STM32F3xx_HAL_Driver/Src/stm32f3xx_hal_flash.c ****   
 682              		.loc 1 558 1 is_stmt 0 view .LVU204
 683 000a 0020     		movs	r0, #0
 684 000c 7047     		bx	lr
 685              	.L60:
 686 000e 00BF     		.align	2
 687              	.L59:
 688 0010 00200240 		.word	1073881088
 689              		.cfi_endproc
 690              	.LFE134:
 692              		.section	.text.HAL_FLASH_GetError,"ax",%progbits
 693              		.align	1
 694              		.global	HAL_FLASH_GetError
 695              		.syntax unified
 696              		.thumb
 697              		.thumb_func
 698              		.fpu fpv4-sp-d16
 700              	HAL_FLASH_GetError:
 701              	.LFB136:
 598:Drivers/STM32F3xx_HAL_Driver/Src/stm32f3xx_hal_flash.c ****    return pFlash.ErrorCode;
 702              		.loc 1 598 1 is_stmt 1 view -0
 703              		.cfi_startproc
 704              		@ args = 0, pretend = 0, frame = 0
 705              		@ frame_needed = 0, uses_anonymous_args = 0
 706              		@ link register save eliminated.
 599:Drivers/STM32F3xx_HAL_Driver/Src/stm32f3xx_hal_flash.c **** }
 707              		.loc 1 599 4 view .LVU206
 599:Drivers/STM32F3xx_HAL_Driver/Src/stm32f3xx_hal_flash.c **** }
 708              		.loc 1 599 17 is_stmt 0 view .LVU207
 709 0000 014B     		ldr	r3, .L62
 710 0002 D869     		ldr	r0, [r3, #28]
 600:Drivers/STM32F3xx_HAL_Driver/Src/stm32f3xx_hal_flash.c **** 
 711              		.loc 1 600 1 view .LVU208
 712 0004 7047     		bx	lr
 713              	.L63:
 714 0006 00BF     		.align	2
 715              	.L62:
 716 0008 00000000 		.word	pFlash
 717              		.cfi_endproc
 718              	.LFE136:
 720              		.section	.text.FLASH_WaitForLastOperation,"ax",%progbits
 721              		.align	1
 722              		.global	FLASH_WaitForLastOperation
 723              		.syntax unified
 724              		.thumb
 725              		.thumb_func
 726              		.fpu fpv4-sp-d16
 728              	FLASH_WaitForLastOperation:
 729              	.LVL32:
 730              	.LFB138:
ARM GAS  /var/folders/8c/gyvcglfx7f97kbqb2h83mm_r0000gn/T//cc2rlUQt.s 			page 29


 638:Drivers/STM32F3xx_HAL_Driver/Src/stm32f3xx_hal_flash.c ****   /* Wait for the FLASH operation to complete by polling on BUSY flag to be reset.
 731              		.loc 1 638 1 is_stmt 1 view -0
 732              		.cfi_startproc
 733              		@ args = 0, pretend = 0, frame = 0
 734              		@ frame_needed = 0, uses_anonymous_args = 0
 643:Drivers/STM32F3xx_HAL_Driver/Src/stm32f3xx_hal_flash.c ****      
 735              		.loc 1 643 3 view .LVU210
 638:Drivers/STM32F3xx_HAL_Driver/Src/stm32f3xx_hal_flash.c ****   /* Wait for the FLASH operation to complete by polling on BUSY flag to be reset.
 736              		.loc 1 638 1 is_stmt 0 view .LVU211
 737 0000 F8B5     		push	{r3, r4, r5, r6, r7, lr}
 738              	.LCFI2:
 739              		.cfi_def_cfa_offset 24
 740              		.cfi_offset 3, -24
 741              		.cfi_offset 4, -20
 742              		.cfi_offset 5, -16
 743              		.cfi_offset 6, -12
 744              		.cfi_offset 7, -8
 745              		.cfi_offset 14, -4
 638:Drivers/STM32F3xx_HAL_Driver/Src/stm32f3xx_hal_flash.c ****   /* Wait for the FLASH operation to complete by polling on BUSY flag to be reset.
 746              		.loc 1 638 1 view .LVU212
 747 0002 0546     		mov	r5, r0
 643:Drivers/STM32F3xx_HAL_Driver/Src/stm32f3xx_hal_flash.c ****      
 748              		.loc 1 643 24 view .LVU213
 749 0004 FFF7FEFF 		bl	HAL_GetTick
 750              	.LVL33:
 645:Drivers/STM32F3xx_HAL_Driver/Src/stm32f3xx_hal_flash.c ****   { 
 751              		.loc 1 645 9 view .LVU214
 752 0008 104C     		ldr	r4, .L79
 643:Drivers/STM32F3xx_HAL_Driver/Src/stm32f3xx_hal_flash.c ****      
 753              		.loc 1 643 24 view .LVU215
 754 000a 0746     		mov	r7, r0
 755              	.LVL34:
 645:Drivers/STM32F3xx_HAL_Driver/Src/stm32f3xx_hal_flash.c ****   { 
 756              		.loc 1 645 3 is_stmt 1 view .LVU216
 757 000c 2646     		mov	r6, r4
 758              	.LVL35:
 759              	.L66:
 645:Drivers/STM32F3xx_HAL_Driver/Src/stm32f3xx_hal_flash.c ****   { 
 760              		.loc 1 645 9 is_stmt 0 view .LVU217
 761 000e E368     		ldr	r3, [r4, #12]
 645:Drivers/STM32F3xx_HAL_Driver/Src/stm32f3xx_hal_flash.c ****   { 
 762              		.loc 1 645 8 view .LVU218
 763 0010 D907     		lsls	r1, r3, #31
 764 0012 0FD4     		bmi	.L70
 657:Drivers/STM32F3xx_HAL_Driver/Src/stm32f3xx_hal_flash.c ****   {
 765              		.loc 1 657 3 is_stmt 1 view .LVU219
 657:Drivers/STM32F3xx_HAL_Driver/Src/stm32f3xx_hal_flash.c ****   {
 766              		.loc 1 657 7 is_stmt 0 view .LVU220
 767 0014 E368     		ldr	r3, [r4, #12]
 657:Drivers/STM32F3xx_HAL_Driver/Src/stm32f3xx_hal_flash.c ****   {
 768              		.loc 1 657 6 view .LVU221
 769 0016 9A06     		lsls	r2, r3, #26
 660:Drivers/STM32F3xx_HAL_Driver/Src/stm32f3xx_hal_flash.c ****   }
 770              		.loc 1 660 5 is_stmt 1 view .LVU222
 771 0018 44BF     		itt	mi
 772 001a 2023     		movmi	r3, #32
 773 001c E360     		strmi	r3, [r4, #12]
ARM GAS  /var/folders/8c/gyvcglfx7f97kbqb2h83mm_r0000gn/T//cc2rlUQt.s 			page 30


 663:Drivers/STM32F3xx_HAL_Driver/Src/stm32f3xx_hal_flash.c ****      __HAL_FLASH_GET_FLAG(FLASH_FLAG_PGERR))
 774              		.loc 1 663 3 view .LVU223
 663:Drivers/STM32F3xx_HAL_Driver/Src/stm32f3xx_hal_flash.c ****      __HAL_FLASH_GET_FLAG(FLASH_FLAG_PGERR))
 775              		.loc 1 663 6 is_stmt 0 view .LVU224
 776 001e F368     		ldr	r3, [r6, #12]
 663:Drivers/STM32F3xx_HAL_Driver/Src/stm32f3xx_hal_flash.c ****      __HAL_FLASH_GET_FLAG(FLASH_FLAG_PGERR))
 777              		.loc 1 663 5 view .LVU225
 778 0020 DB06     		lsls	r3, r3, #27
 779 0022 03D4     		bmi	.L72
 664:Drivers/STM32F3xx_HAL_Driver/Src/stm32f3xx_hal_flash.c ****   {
 780              		.loc 1 664 6 discriminator 1 view .LVU226
 781 0024 F068     		ldr	r0, [r6, #12]
 663:Drivers/STM32F3xx_HAL_Driver/Src/stm32f3xx_hal_flash.c ****      __HAL_FLASH_GET_FLAG(FLASH_FLAG_PGERR))
 782              		.loc 1 663 47 discriminator 1 view .LVU227
 783 0026 10F00400 		ands	r0, r0, #4
 784 002a 07D0     		beq	.L68
 785              	.L72:
 667:Drivers/STM32F3xx_HAL_Driver/Src/stm32f3xx_hal_flash.c ****     return HAL_ERROR;
 786              		.loc 1 667 5 is_stmt 1 view .LVU228
 787 002c FFF7FEFF 		bl	FLASH_SetErrorCode
 788              	.LVL36:
 668:Drivers/STM32F3xx_HAL_Driver/Src/stm32f3xx_hal_flash.c ****   }
 789              		.loc 1 668 5 view .LVU229
 668:Drivers/STM32F3xx_HAL_Driver/Src/stm32f3xx_hal_flash.c ****   }
 790              		.loc 1 668 12 is_stmt 0 view .LVU230
 791 0030 0120     		movs	r0, #1
 792 0032 03E0     		b	.L68
 793              	.L70:
 647:Drivers/STM32F3xx_HAL_Driver/Src/stm32f3xx_hal_flash.c ****     {
 794              		.loc 1 647 5 is_stmt 1 view .LVU231
 647:Drivers/STM32F3xx_HAL_Driver/Src/stm32f3xx_hal_flash.c ****     {
 795              		.loc 1 647 8 is_stmt 0 view .LVU232
 796 0034 681C     		adds	r0, r5, #1
 797 0036 EAD0     		beq	.L66
 649:Drivers/STM32F3xx_HAL_Driver/Src/stm32f3xx_hal_flash.c ****       {
 798              		.loc 1 649 7 is_stmt 1 view .LVU233
 649:Drivers/STM32F3xx_HAL_Driver/Src/stm32f3xx_hal_flash.c ****       {
 799              		.loc 1 649 9 is_stmt 0 view .LVU234
 800 0038 0DB9     		cbnz	r5, .L67
 801              	.L69:
 651:Drivers/STM32F3xx_HAL_Driver/Src/stm32f3xx_hal_flash.c ****       }
 802              		.loc 1 651 16 view .LVU235
 803 003a 0320     		movs	r0, #3
 804              	.L68:
 673:Drivers/STM32F3xx_HAL_Driver/Src/stm32f3xx_hal_flash.c **** 
 805              		.loc 1 673 1 view .LVU236
 806 003c F8BD     		pop	{r3, r4, r5, r6, r7, pc}
 807              	.LVL37:
 808              	.L67:
 649:Drivers/STM32F3xx_HAL_Driver/Src/stm32f3xx_hal_flash.c ****       {
 809              		.loc 1 649 31 discriminator 1 view .LVU237
 810 003e FFF7FEFF 		bl	HAL_GetTick
 811              	.LVL38:
 649:Drivers/STM32F3xx_HAL_Driver/Src/stm32f3xx_hal_flash.c ****       {
 812              		.loc 1 649 44 discriminator 1 view .LVU238
 813 0042 C01B     		subs	r0, r0, r7
 649:Drivers/STM32F3xx_HAL_Driver/Src/stm32f3xx_hal_flash.c ****       {
ARM GAS  /var/folders/8c/gyvcglfx7f97kbqb2h83mm_r0000gn/T//cc2rlUQt.s 			page 31


 814              		.loc 1 649 26 discriminator 1 view .LVU239
 815 0044 A842     		cmp	r0, r5
 816 0046 E2D9     		bls	.L66
 817 0048 F7E7     		b	.L69
 818              	.L80:
 819 004a 00BF     		.align	2
 820              	.L79:
 821 004c 00200240 		.word	1073881088
 822              		.cfi_endproc
 823              	.LFE138:
 825              		.section	.text.HAL_FLASH_Program,"ax",%progbits
 826              		.align	1
 827              		.global	HAL_FLASH_Program
 828              		.syntax unified
 829              		.thumb
 830              		.thumb_func
 831              		.fpu fpv4-sp-d16
 833              	HAL_FLASH_Program:
 834              	.LVL39:
 835              	.LFB126:
 185:Drivers/STM32F3xx_HAL_Driver/Src/stm32f3xx_hal_flash.c ****   HAL_StatusTypeDef status = HAL_ERROR;
 836              		.loc 1 185 1 is_stmt 1 view -0
 837              		.cfi_startproc
 838              		@ args = 0, pretend = 0, frame = 0
 839              		@ frame_needed = 0, uses_anonymous_args = 0
 186:Drivers/STM32F3xx_HAL_Driver/Src/stm32f3xx_hal_flash.c ****   uint8_t index = 0U;
 840              		.loc 1 186 3 view .LVU241
 187:Drivers/STM32F3xx_HAL_Driver/Src/stm32f3xx_hal_flash.c ****   uint8_t nbiterations = 0U;
 841              		.loc 1 187 3 view .LVU242
 188:Drivers/STM32F3xx_HAL_Driver/Src/stm32f3xx_hal_flash.c ****   
 842              		.loc 1 188 3 view .LVU243
 191:Drivers/STM32F3xx_HAL_Driver/Src/stm32f3xx_hal_flash.c **** 
 843              		.loc 1 191 3 view .LVU244
 191:Drivers/STM32F3xx_HAL_Driver/Src/stm32f3xx_hal_flash.c **** 
 844              		.loc 1 191 3 view .LVU245
 185:Drivers/STM32F3xx_HAL_Driver/Src/stm32f3xx_hal_flash.c ****   HAL_StatusTypeDef status = HAL_ERROR;
 845              		.loc 1 185 1 is_stmt 0 view .LVU246
 846 0000 2DE9F84F 		push	{r3, r4, r5, r6, r7, r8, r9, r10, fp, lr}
 847              	.LCFI3:
 848              		.cfi_def_cfa_offset 40
 849              		.cfi_offset 3, -40
 850              		.cfi_offset 4, -36
 851              		.cfi_offset 5, -32
 852              		.cfi_offset 6, -28
 853              		.cfi_offset 7, -24
 854              		.cfi_offset 8, -20
 855              		.cfi_offset 9, -16
 856              		.cfi_offset 10, -12
 857              		.cfi_offset 11, -8
 858              		.cfi_offset 14, -4
 191:Drivers/STM32F3xx_HAL_Driver/Src/stm32f3xx_hal_flash.c **** 
 859              		.loc 1 191 3 view .LVU247
 860 0004 244C     		ldr	r4, .L90
 185:Drivers/STM32F3xx_HAL_Driver/Src/stm32f3xx_hal_flash.c ****   HAL_StatusTypeDef status = HAL_ERROR;
 861              		.loc 1 185 1 view .LVU248
 862 0006 1E46     		mov	r6, r3
 191:Drivers/STM32F3xx_HAL_Driver/Src/stm32f3xx_hal_flash.c **** 
ARM GAS  /var/folders/8c/gyvcglfx7f97kbqb2h83mm_r0000gn/T//cc2rlUQt.s 			page 32


 863              		.loc 1 191 3 view .LVU249
 864 0008 237E     		ldrb	r3, [r4, #24]	@ zero_extendqisi2
 865 000a 012B     		cmp	r3, #1
 185:Drivers/STM32F3xx_HAL_Driver/Src/stm32f3xx_hal_flash.c ****   HAL_StatusTypeDef status = HAL_ERROR;
 866              		.loc 1 185 1 view .LVU250
 867 000c 0546     		mov	r5, r0
 868 000e 0F46     		mov	r7, r1
 869 0010 9046     		mov	r8, r2
 191:Drivers/STM32F3xx_HAL_Driver/Src/stm32f3xx_hal_flash.c **** 
 870              		.loc 1 191 3 view .LVU251
 871 0012 3FD0     		beq	.L86
 191:Drivers/STM32F3xx_HAL_Driver/Src/stm32f3xx_hal_flash.c **** 
 872              		.loc 1 191 3 is_stmt 1 discriminator 2 view .LVU252
 873 0014 0123     		movs	r3, #1
 198:Drivers/STM32F3xx_HAL_Driver/Src/stm32f3xx_hal_flash.c ****   
 874              		.loc 1 198 14 is_stmt 0 discriminator 2 view .LVU253
 875 0016 4CF25030 		movw	r0, #50000
 876              	.LVL40:
 191:Drivers/STM32F3xx_HAL_Driver/Src/stm32f3xx_hal_flash.c **** 
 877              		.loc 1 191 3 discriminator 2 view .LVU254
 878 001a 2376     		strb	r3, [r4, #24]
 194:Drivers/STM32F3xx_HAL_Driver/Src/stm32f3xx_hal_flash.c ****   assert_param(IS_FLASH_PROGRAM_ADDRESS(Address));
 879              		.loc 1 194 3 is_stmt 1 discriminator 2 view .LVU255
 195:Drivers/STM32F3xx_HAL_Driver/Src/stm32f3xx_hal_flash.c **** 
 880              		.loc 1 195 3 discriminator 2 view .LVU256
 198:Drivers/STM32F3xx_HAL_Driver/Src/stm32f3xx_hal_flash.c ****   
 881              		.loc 1 198 5 discriminator 2 view .LVU257
 198:Drivers/STM32F3xx_HAL_Driver/Src/stm32f3xx_hal_flash.c ****   
 882              		.loc 1 198 14 is_stmt 0 discriminator 2 view .LVU258
 883 001c FFF7FEFF 		bl	FLASH_WaitForLastOperation
 884              	.LVL41:
 200:Drivers/STM32F3xx_HAL_Driver/Src/stm32f3xx_hal_flash.c ****   {
 885              		.loc 1 200 3 is_stmt 1 discriminator 2 view .LVU259
 200:Drivers/STM32F3xx_HAL_Driver/Src/stm32f3xx_hal_flash.c ****   {
 886              		.loc 1 200 5 is_stmt 0 discriminator 2 view .LVU260
 887 0020 A0BB     		cbnz	r0, .L83
 202:Drivers/STM32F3xx_HAL_Driver/Src/stm32f3xx_hal_flash.c ****     {
 888              		.loc 1 202 5 is_stmt 1 view .LVU261
 202:Drivers/STM32F3xx_HAL_Driver/Src/stm32f3xx_hal_flash.c ****     {
 889              		.loc 1 202 7 is_stmt 0 view .LVU262
 890 0022 012D     		cmp	r5, #1
 891 0024 03D0     		beq	.L84
 207:Drivers/STM32F3xx_HAL_Driver/Src/stm32f3xx_hal_flash.c ****     {
 892              		.loc 1 207 10 is_stmt 1 view .LVU263
 215:Drivers/STM32F3xx_HAL_Driver/Src/stm32f3xx_hal_flash.c ****     }
 893              		.loc 1 215 20 is_stmt 0 view .LVU264
 894 0026 022D     		cmp	r5, #2
 895 0028 0CBF     		ite	eq
 896 002a 0225     		moveq	r5, #2
 897              	.LVL42:
 215:Drivers/STM32F3xx_HAL_Driver/Src/stm32f3xx_hal_flash.c ****     }
 898              		.loc 1 215 20 view .LVU265
 899 002c 0425     		movne	r5, #4
 900              	.L84:
 901              	.LVL43:
 218:Drivers/STM32F3xx_HAL_Driver/Src/stm32f3xx_hal_flash.c ****     {
 902              		.loc 1 218 5 is_stmt 1 view .LVU266
ARM GAS  /var/folders/8c/gyvcglfx7f97kbqb2h83mm_r0000gn/T//cc2rlUQt.s 			page 33


 215:Drivers/STM32F3xx_HAL_Driver/Src/stm32f3xx_hal_flash.c ****     }
 903              		.loc 1 215 20 is_stmt 0 view .LVU267
 904 002e 4FF00009 		mov	r9, #0
 905              	.LBB16:
 906              	.LBB17:
 626:Drivers/STM32F3xx_HAL_Driver/Src/stm32f3xx_hal_flash.c **** 
 907              		.loc 1 626 5 view .LVU268
 908 0032 DFF868A0 		ldr	r10, .L90+4
 623:Drivers/STM32F3xx_HAL_Driver/Src/stm32f3xx_hal_flash.c ****   
 909              		.loc 1 623 20 view .LVU269
 910 0036 CB46     		mov	fp, r9
 911              	.LVL44:
 912              	.L85:
 623:Drivers/STM32F3xx_HAL_Driver/Src/stm32f3xx_hal_flash.c ****   
 913              		.loc 1 623 20 view .LVU270
 914              	.LBE17:
 915              	.LBE16:
 220:Drivers/STM32F3xx_HAL_Driver/Src/stm32f3xx_hal_flash.c **** 
 916              		.loc 1 220 7 is_stmt 1 view .LVU271
 220:Drivers/STM32F3xx_HAL_Driver/Src/stm32f3xx_hal_flash.c **** 
 917              		.loc 1 220 70 is_stmt 0 view .LVU272
 918 0038 4FEA0913 		lsl	r3, r9, #4
 919 003c C3F12001 		rsb	r1, r3, #32
 920 0040 A3F12002 		sub	r2, r3, #32
 921 0044 06FA01F1 		lsl	r1, r6, r1
 922 0048 28FA03F3 		lsr	r3, r8, r3
 923              	.LBB22:
 924              	.LBB18:
 623:Drivers/STM32F3xx_HAL_Driver/Src/stm32f3xx_hal_flash.c ****   
 925              		.loc 1 623 20 view .LVU273
 926 004c C4F81CB0 		str	fp, [r4, #28]
 927              	.LBE18:
 928              	.LBE22:
 220:Drivers/STM32F3xx_HAL_Driver/Src/stm32f3xx_hal_flash.c **** 
 929              		.loc 1 220 70 view .LVU274
 930 0050 0B43     		orrs	r3, r3, r1
 931 0052 26FA02F2 		lsr	r2, r6, r2
 932 0056 1343     		orrs	r3, r3, r2
 933              	.LBB23:
 934              	.LBB19:
 626:Drivers/STM32F3xx_HAL_Driver/Src/stm32f3xx_hal_flash.c **** 
 935              		.loc 1 626 5 view .LVU275
 936 0058 DAF81020 		ldr	r2, [r10, #16]
 937              	.LBE19:
 938              	.LBE23:
 220:Drivers/STM32F3xx_HAL_Driver/Src/stm32f3xx_hal_flash.c **** 
 939              		.loc 1 220 7 view .LVU276
 940 005c 9BB2     		uxth	r3, r3
 941              	.LVL45:
 942              	.LBB24:
 943              	.LBI16:
 620:Drivers/STM32F3xx_HAL_Driver/Src/stm32f3xx_hal_flash.c **** {
 944              		.loc 1 620 13 is_stmt 1 view .LVU277
 945              	.LBB20:
 623:Drivers/STM32F3xx_HAL_Driver/Src/stm32f3xx_hal_flash.c ****   
 946              		.loc 1 623 3 view .LVU278
 626:Drivers/STM32F3xx_HAL_Driver/Src/stm32f3xx_hal_flash.c **** 
ARM GAS  /var/folders/8c/gyvcglfx7f97kbqb2h83mm_r0000gn/T//cc2rlUQt.s 			page 34


 947              		.loc 1 626 5 view .LVU279
 948 005e 42F00102 		orr	r2, r2, #1
 949 0062 CAF81020 		str	r2, [r10, #16]
 629:Drivers/STM32F3xx_HAL_Driver/Src/stm32f3xx_hal_flash.c **** }
 950              		.loc 1 629 3 view .LVU280
 951              	.LBE20:
 952              	.LBE24:
 223:Drivers/STM32F3xx_HAL_Driver/Src/stm32f3xx_hal_flash.c ****     
 953              		.loc 1 223 18 is_stmt 0 view .LVU281
 954 0066 4CF25030 		movw	r0, #50000
 955              	.LBB25:
 956              	.LBB21:
 629:Drivers/STM32F3xx_HAL_Driver/Src/stm32f3xx_hal_flash.c **** }
 957              		.loc 1 629 28 view .LVU282
 958 006a 27F81930 		strh	r3, [r7, r9, lsl #1]	@ movhi
 959              	.LVL46:
 629:Drivers/STM32F3xx_HAL_Driver/Src/stm32f3xx_hal_flash.c **** }
 960              		.loc 1 629 28 view .LVU283
 961              	.LBE21:
 962              	.LBE25:
 223:Drivers/STM32F3xx_HAL_Driver/Src/stm32f3xx_hal_flash.c ****     
 963              		.loc 1 223 9 is_stmt 1 view .LVU284
 223:Drivers/STM32F3xx_HAL_Driver/Src/stm32f3xx_hal_flash.c ****     
 964              		.loc 1 223 18 is_stmt 0 view .LVU285
 965 006e FFF7FEFF 		bl	FLASH_WaitForLastOperation
 966              	.LVL47:
 226:Drivers/STM32F3xx_HAL_Driver/Src/stm32f3xx_hal_flash.c ****       /* In case of error, stop programming procedure */
 967              		.loc 1 226 9 is_stmt 1 view .LVU286
 968 0072 DAF81030 		ldr	r3, [r10, #16]
 969 0076 23F00103 		bic	r3, r3, #1
 970 007a CAF81030 		str	r3, [r10, #16]
 228:Drivers/STM32F3xx_HAL_Driver/Src/stm32f3xx_hal_flash.c ****       {
 971              		.loc 1 228 7 view .LVU287
 228:Drivers/STM32F3xx_HAL_Driver/Src/stm32f3xx_hal_flash.c ****       {
 972              		.loc 1 228 10 is_stmt 0 view .LVU288
 973 007e 28B9     		cbnz	r0, .L83
 974              	.LVL48:
 228:Drivers/STM32F3xx_HAL_Driver/Src/stm32f3xx_hal_flash.c ****       {
 975              		.loc 1 228 10 view .LVU289
 976 0080 09F10109 		add	r9, r9, #1
 977              	.LVL49:
 218:Drivers/STM32F3xx_HAL_Driver/Src/stm32f3xx_hal_flash.c ****     {
 978              		.loc 1 218 5 discriminator 2 view .LVU290
 979 0084 5FFA89F3 		uxtb	r3, r9
 980 0088 9D42     		cmp	r5, r3
 981 008a D5D8     		bhi	.L85
 982              	.LVL50:
 983              	.L83:
 236:Drivers/STM32F3xx_HAL_Driver/Src/stm32f3xx_hal_flash.c **** 
 984              		.loc 1 236 3 is_stmt 1 view .LVU291
 236:Drivers/STM32F3xx_HAL_Driver/Src/stm32f3xx_hal_flash.c **** 
 985              		.loc 1 236 3 view .LVU292
 986 008c 0023     		movs	r3, #0
 987 008e 2376     		strb	r3, [r4, #24]
 238:Drivers/STM32F3xx_HAL_Driver/Src/stm32f3xx_hal_flash.c **** }
 988              		.loc 1 238 3 view .LVU293
 989              	.LVL51:
ARM GAS  /var/folders/8c/gyvcglfx7f97kbqb2h83mm_r0000gn/T//cc2rlUQt.s 			page 35


 990              	.L82:
 239:Drivers/STM32F3xx_HAL_Driver/Src/stm32f3xx_hal_flash.c **** 
 991              		.loc 1 239 1 is_stmt 0 view .LVU294
 992 0090 BDE8F88F 		pop	{r3, r4, r5, r6, r7, r8, r9, r10, fp, pc}
 993              	.LVL52:
 994              	.L86:
 191:Drivers/STM32F3xx_HAL_Driver/Src/stm32f3xx_hal_flash.c **** 
 995              		.loc 1 191 3 view .LVU295
 996 0094 0220     		movs	r0, #2
 997              	.LVL53:
 191:Drivers/STM32F3xx_HAL_Driver/Src/stm32f3xx_hal_flash.c **** 
 998              		.loc 1 191 3 view .LVU296
 999 0096 FBE7     		b	.L82
 1000              	.L91:
 1001              		.align	2
 1002              	.L90:
 1003 0098 00000000 		.word	pFlash
 1004 009c 00200240 		.word	1073881088
 1005              		.cfi_endproc
 1006              	.LFE126:
 1008              		.section	.text.HAL_FLASH_OB_Launch,"ax",%progbits
 1009              		.align	1
 1010              		.global	HAL_FLASH_OB_Launch
 1011              		.syntax unified
 1012              		.thumb
 1013              		.thumb_func
 1014              		.fpu fpv4-sp-d16
 1016              	HAL_FLASH_OB_Launch:
 1017              	.LFB135:
 566:Drivers/STM32F3xx_HAL_Driver/Src/stm32f3xx_hal_flash.c ****   /* Set the OBL_Launch bit to launch the option byte loading */
 1018              		.loc 1 566 1 is_stmt 1 view -0
 1019              		.cfi_startproc
 1020              		@ args = 0, pretend = 0, frame = 0
 1021              		@ frame_needed = 0, uses_anonymous_args = 0
 1022              		@ link register save eliminated.
 568:Drivers/STM32F3xx_HAL_Driver/Src/stm32f3xx_hal_flash.c ****   
 1023              		.loc 1 568 3 view .LVU298
 1024 0000 044A     		ldr	r2, .L93
 1025 0002 1369     		ldr	r3, [r2, #16]
 1026 0004 43F40053 		orr	r3, r3, #8192
 1027 0008 1361     		str	r3, [r2, #16]
 571:Drivers/STM32F3xx_HAL_Driver/Src/stm32f3xx_hal_flash.c **** }
 1028              		.loc 1 571 3 view .LVU299
 571:Drivers/STM32F3xx_HAL_Driver/Src/stm32f3xx_hal_flash.c **** }
 1029              		.loc 1 571 10 is_stmt 0 view .LVU300
 1030 000a 4CF25030 		movw	r0, #50000
 1031 000e FFF7FEBF 		b	FLASH_WaitForLastOperation
 1032              	.LVL54:
 1033              	.L94:
 1034 0012 00BF     		.align	2
 1035              	.L93:
 1036 0014 00200240 		.word	1073881088
 1037              		.cfi_endproc
 1038              	.LFE135:
 1040              		.comm	pFlash,32,8
 1041              		.text
 1042              	.Letext0:
ARM GAS  /var/folders/8c/gyvcglfx7f97kbqb2h83mm_r0000gn/T//cc2rlUQt.s 			page 36


 1043              		.file 2 "/usr/local/gcc-arm-none-eabi-8-2018-q4-major/arm-none-eabi/include/machine/_default_types
 1044              		.file 3 "/usr/local/gcc-arm-none-eabi-8-2018-q4-major/arm-none-eabi/include/sys/_stdint.h"
 1045              		.file 4 "Drivers/CMSIS/Include/core_cm4.h"
 1046              		.file 5 "Drivers/CMSIS/Device/ST/STM32F3xx/Include/system_stm32f3xx.h"
 1047              		.file 6 "Drivers/CMSIS/Device/ST/STM32F3xx/Include/stm32f303xe.h"
 1048              		.file 7 "/usr/local/gcc-arm-none-eabi-8-2018-q4-major/arm-none-eabi/include/sys/lock.h"
 1049              		.file 8 "/usr/local/gcc-arm-none-eabi-8-2018-q4-major/arm-none-eabi/include/sys/_types.h"
 1050              		.file 9 "/usr/local/gcc-arm-none-eabi-8-2018-q4-major/lib/gcc/arm-none-eabi/8.2.1/include/stddef.h
 1051              		.file 10 "/usr/local/gcc-arm-none-eabi-8-2018-q4-major/arm-none-eabi/include/sys/reent.h"
 1052              		.file 11 "Drivers/CMSIS/Device/ST/STM32F3xx/Include/stm32f3xx.h"
 1053              		.file 12 "Drivers/STM32F3xx_HAL_Driver/Inc/stm32f3xx_hal_def.h"
 1054              		.file 13 "Drivers/STM32F3xx_HAL_Driver/Inc/stm32f3xx_hal_flash.h"
 1055              		.file 14 "Drivers/STM32F3xx_HAL_Driver/Inc/stm32f3xx_hal.h"
ARM GAS  /var/folders/8c/gyvcglfx7f97kbqb2h83mm_r0000gn/T//cc2rlUQt.s 			page 37

