ARM GAS  /var/folders/8c/gyvcglfx7f97kbqb2h83mm_r0000gn/T//ccc5ALYJ.s 			page 1


   1              		.cpu cortex-m4
   2              		.eabi_attribute 27, 1
   3              		.eabi_attribute 28, 1
   4              		.eabi_attribute 20, 1
   5              		.eabi_attribute 21, 1
   6              		.eabi_attribute 23, 3
   7              		.eabi_attribute 24, 1
   8              		.eabi_attribute 25, 1
   9              		.eabi_attribute 26, 1
  10              		.eabi_attribute 30, 1
  11              		.eabi_attribute 34, 1
  12              		.eabi_attribute 18, 4
  13              		.file	"main.c"
  14              		.text
  15              	.Ltext0:
  16              		.cfi_sections	.debug_frame
  17              		.section	.text._Error_Handler,"ax",%progbits
  18              		.align	1
  19              		.global	_Error_Handler
  20              		.arch armv7e-m
  21              		.syntax unified
  22              		.thumb
  23              		.thumb_func
  24              		.fpu fpv4-sp-d16
  26              	_Error_Handler:
  27              	.LFB128:
  28              		.file 1 "Src/main.c"
   1:Src/main.c    **** 
   2:Src/main.c    **** /**
   3:Src/main.c    ****   ******************************************************************************
   4:Src/main.c    ****   * @file           : main.c
   5:Src/main.c    ****   * @brief          : Main program body
   6:Src/main.c    ****   ******************************************************************************
   7:Src/main.c    ****   ** This notice applies to any and all portions of this file
   8:Src/main.c    ****   * that are not between comment pairs USER CODE BEGIN and
   9:Src/main.c    ****   * USER CODE END. Other portions of this file, whether
  10:Src/main.c    ****   * inserted by the user or by software development tools
  11:Src/main.c    ****   * are owned by their respective copyright owners.
  12:Src/main.c    ****   *
  13:Src/main.c    ****   * COPYRIGHT(c) 2019 STMicroelectronics
  14:Src/main.c    ****   *
  15:Src/main.c    ****   * Redistribution and use in source and binary forms, with or without modification,
  16:Src/main.c    ****   * are permitted provided that the following conditions are met:
  17:Src/main.c    ****   *   1. Redistributions of source code must retain the above copyright notice,
  18:Src/main.c    ****   *      this list of conditions and the following disclaimer.
  19:Src/main.c    ****   *   2. Redistributions in binary form must reproduce the above copyright notice,
  20:Src/main.c    ****   *      this list of conditions and the following disclaimer in the documentation
  21:Src/main.c    ****   *      and/or other materials provided with the distribution.
  22:Src/main.c    ****   *   3. Neither the name of STMicroelectronics nor the names of its contributors
  23:Src/main.c    ****   *      may be used to endorse or promote products derived from this software
  24:Src/main.c    ****   *      without specific prior written permission.
  25:Src/main.c    ****   *
  26:Src/main.c    ****   * THIS SOFTWARE IS PROVIDED BY THE COPYRIGHT HOLDERS AND CONTRIBUTORS "AS IS"
  27:Src/main.c    ****   * AND ANY EXPRESS OR IMPLIED WARRANTIES, INCLUDING, BUT NOT LIMITED TO, THE
  28:Src/main.c    ****   * IMPLIED WARRANTIES OF MERCHANTABILITY AND FITNESS FOR A PARTICULAR PURPOSE ARE
  29:Src/main.c    ****   * DISCLAIMED. IN NO EVENT SHALL THE COPYRIGHT HOLDER OR CONTRIBUTORS BE LIABLE
  30:Src/main.c    ****   * FOR ANY DIRECT, INDIRECT, INCIDENTAL, SPECIAL, EXEMPLARY, OR CONSEQUENTIAL
ARM GAS  /var/folders/8c/gyvcglfx7f97kbqb2h83mm_r0000gn/T//ccc5ALYJ.s 			page 2


  31:Src/main.c    ****   * DAMAGES (INCLUDING, BUT NOT LIMITED TO, PROCUREMENT OF SUBSTITUTE GOODS OR
  32:Src/main.c    ****   * SERVICES; LOSS OF USE, DATA, OR PROFITS; OR BUSINESS INTERRUPTION) HOWEVER
  33:Src/main.c    ****   * CAUSED AND ON ANY THEORY OF LIABILITY, WHETHER IN CONTRACT, STRICT LIABILITY,
  34:Src/main.c    ****   * OR TORT (INCLUDING NEGLIGENCE OR OTHERWISE) ARISING IN ANY WAY OUT OF THE USE
  35:Src/main.c    ****   * OF THIS SOFTWARE, EVEN IF ADVISED OF THE POSSIBILITY OF SUCH DAMAGE.
  36:Src/main.c    ****   *
  37:Src/main.c    ****   ******************************************************************************
  38:Src/main.c    ****   */
  39:Src/main.c    **** /* Includes ------------------------------------------------------------------*/
  40:Src/main.c    **** #include "main.h"
  41:Src/main.c    **** #include "stm32f3xx_hal.h"
  42:Src/main.c    **** #include "spi.h"
  43:Src/main.c    **** #include "usart.h"
  44:Src/main.c    **** #include "gpio.h"
  45:Src/main.c    **** 
  46:Src/main.c    **** /* USER CODE BEGIN Includes */
  47:Src/main.c    **** #include "RFM69.h"
  48:Src/main.c    **** #include "RFM69_ext.h"
  49:Src/main.c    **** /* USER CODE END Includes */
  50:Src/main.c    **** 
  51:Src/main.c    **** /* Private variables ---------------------------------------------------------*/
  52:Src/main.c    **** 
  53:Src/main.c    **** /* USER CODE BEGIN PV */
  54:Src/main.c    **** /* Private variables ---------------------------------------------------------*/
  55:Src/main.c    **** 
  56:Src/main.c    **** char log_buffer[150];
  57:Src/main.c    **** uint16_t networkID = 210; // a.k.a. Network Group
  58:Src/main.c    **** uint8_t nodeID = 1;
  59:Src/main.c    **** uint16_t freqBand = 433;
  60:Src/main.c    ****   /* available frequency bands
  61:Src/main.c    ****   #define RF69_315MHZ            315
  62:Src/main.c    ****   #define RF69_433MHZ            433
  63:Src/main.c    ****   #define RF69_868MHZ            868
  64:Src/main.c    ****   #define RF69_915MHZ            915
  65:Src/main.c    ****   see registers.h for even more.
  66:Src/main.c    ****   */
  67:Src/main.c    **** uint8_t toAddress = 1;
  68:Src/main.c    **** bool requestACK = false;
  69:Src/main.c    **** 
  70:Src/main.c    **** typedef struct {
  71:Src/main.c    ****   unsigned long nodeId; //store this nodeId
  72:Src/main.c    ****   unsigned long uptime; //uptime in ms
  73:Src/main.c    ****   //float         temp;   //temperature maybe?
  74:Src/main.c    **** } Payload;
  75:Src/main.c    **** Payload theData;
  76:Src/main.c    **** 
  77:Src/main.c    **** /* USER CODE END PV */
  78:Src/main.c    **** 
  79:Src/main.c    **** /* Private function prototypes -----------------------------------------------*/
  80:Src/main.c    **** void SystemClock_Config(void);
  81:Src/main.c    **** 
  82:Src/main.c    **** /* USER CODE BEGIN PFP */
  83:Src/main.c    **** /* Private function prototypes -----------------------------------------------*/
  84:Src/main.c    **** 
  85:Src/main.c    **** /* USER CODE END PFP */
  86:Src/main.c    **** 
  87:Src/main.c    **** /* USER CODE BEGIN 0 */
ARM GAS  /var/folders/8c/gyvcglfx7f97kbqb2h83mm_r0000gn/T//ccc5ALYJ.s 			page 3


  88:Src/main.c    **** 
  89:Src/main.c    **** /* USER CODE END 0 */
  90:Src/main.c    **** 
  91:Src/main.c    **** /**
  92:Src/main.c    ****   * @brief  The application entry point.
  93:Src/main.c    ****   *
  94:Src/main.c    ****   * @retval None
  95:Src/main.c    ****   */
  96:Src/main.c    **** int main(void)
  97:Src/main.c    **** {
  98:Src/main.c    ****   /* USER CODE BEGIN 1 */
  99:Src/main.c    **** 
 100:Src/main.c    ****   /* USER CODE END 1 */
 101:Src/main.c    **** 
 102:Src/main.c    ****   /* MCU Configuration----------------------------------------------------------*/
 103:Src/main.c    **** 
 104:Src/main.c    ****   /* Reset of all peripherals, Initializes the Flash interface and the Systick. */
 105:Src/main.c    ****   HAL_Init();
 106:Src/main.c    **** 
 107:Src/main.c    ****   /* USER CODE BEGIN Init */
 108:Src/main.c    **** 
 109:Src/main.c    ****   /* USER CODE END Init */
 110:Src/main.c    **** 
 111:Src/main.c    ****   /* Configure the system clock */
 112:Src/main.c    ****   SystemClock_Config();
 113:Src/main.c    **** 
 114:Src/main.c    ****   /* USER CODE BEGIN SysInit */
 115:Src/main.c    **** 
 116:Src/main.c    ****   /* USER CODE END SysInit */
 117:Src/main.c    **** 
 118:Src/main.c    ****   /* Initialize all configured peripherals */
 119:Src/main.c    ****   MX_GPIO_Init();
 120:Src/main.c    ****   MX_USART2_UART_Init();
 121:Src/main.c    ****   MX_SPI2_Init();
 122:Src/main.c    ****   /* USER CODE BEGIN 2 */
 123:Src/main.c    ****   HAL_Delay(10);
 124:Src/main.c    ****   RFM69_RST();
 125:Src/main.c    ****   HAL_Delay(10);
 126:Src/main.c    ****   if (RFM69_initialize(freqBand, nodeID, networkID)) {
 127:Src/main.c    ****     sprintf(log_buffer, "RFM69 Initialized. Freq %dMHz. Node %d. Group %d.\r\n", freqBand, nodeID, 
 128:Src/main.c    ****     debug_printf(log_buffer);
 129:Src/main.c    ****   }
 130:Src/main.c    ****   else {
 131:Src/main.c    ****     debug_printf("RFM69 not connected.\r\n");
 132:Src/main.c    ****   }
 133:Src/main.c    ****   RFM69_readAllRegs();
 134:Src/main.c    ****   /* USER CODE END 2 */
 135:Src/main.c    **** 
 136:Src/main.c    ****   /* Infinite loop */
 137:Src/main.c    ****   /* USER CODE BEGIN WHILE */
 138:Src/main.c    ****   while (1)
 139:Src/main.c    ****   {
 140:Src/main.c    **** 
 141:Src/main.c    ****         // SAMPLE RECEIVE CODE
 142:Src/main.c    ****         if (RFM69_ReadDIO0Pin()) {
 143:Src/main.c    ****           HAL_GPIO_WritePin(GPIOA, GPIO_PIN_5, 1); // turn on LED
 144:Src/main.c    ****           RFM69_interruptHandler();
ARM GAS  /var/folders/8c/gyvcglfx7f97kbqb2h83mm_r0000gn/T//ccc5ALYJ.s 			page 4


 145:Src/main.c    ****         }
 146:Src/main.c    ****         if (RFM69_receiveDone()) {
 147:Src/main.c    ****           debug_printf("Payload Received!\r\n");
 148:Src/main.c    ****           PrintRawBytes();
 149:Src/main.c    ****           PrintStruct();
 150:Src/main.c    ****           PrintByteByByte();
 151:Src/main.c    ****           HAL_GPIO_WritePin(GPIOA, GPIO_PIN_5, 0); // turn off LED
 152:Src/main.c    ****         }
 153:Src/main.c    ****     /*
 154:Src/main.c    ****         // SAMPLE TRANSMIT CODE
 155:Src/main.c    ****         theData.nodeId = 20;
 156:Src/main.c    ****         theData.uptime = HAL_GetTick();
 157:Src/main.c    ****         RFM69_send(toAddress, (const void *)(&theData), sizeof(theData), requestACK);
 158:Src/main.c    ****         HAL_GPIO_WritePin(GPIOA, GPIO_PIN_5, 1); // turn on LED
 159:Src/main.c    ****         HAL_Delay(1);
 160:Src/main.c    ****         HAL_GPIO_WritePin(GPIOA, GPIO_PIN_5, 0); // turn off LED
 161:Src/main.c    ****         HAL_Delay(2000);                         // send every ____ milliseconds.
 162:Src/main.c    ****         debug_printf("Payload Sent!\r\n");
 163:Src/main.c    ****     */
 164:Src/main.c    ****   /* USER CODE END WHILE */
 165:Src/main.c    **** 
 166:Src/main.c    ****   /* USER CODE BEGIN 3 */
 167:Src/main.c    **** 
 168:Src/main.c    ****   }
 169:Src/main.c    ****   /* USER CODE END 3 */
 170:Src/main.c    **** 
 171:Src/main.c    **** }
 172:Src/main.c    **** 
 173:Src/main.c    **** /**
 174:Src/main.c    ****   * @brief System Clock Configuration
 175:Src/main.c    ****   * @retval None
 176:Src/main.c    ****   */
 177:Src/main.c    **** void SystemClock_Config(void)
 178:Src/main.c    **** {
 179:Src/main.c    **** 
 180:Src/main.c    ****   RCC_OscInitTypeDef RCC_OscInitStruct;
 181:Src/main.c    ****   RCC_ClkInitTypeDef RCC_ClkInitStruct;
 182:Src/main.c    ****   RCC_PeriphCLKInitTypeDef PeriphClkInit;
 183:Src/main.c    **** 
 184:Src/main.c    ****     /**Initializes the CPU, AHB and APB busses clocks
 185:Src/main.c    ****     */
 186:Src/main.c    ****   RCC_OscInitStruct.OscillatorType = RCC_OSCILLATORTYPE_HSI;
 187:Src/main.c    ****   RCC_OscInitStruct.HSIState = RCC_HSI_ON;
 188:Src/main.c    ****   RCC_OscInitStruct.HSICalibrationValue = 16;
 189:Src/main.c    ****   RCC_OscInitStruct.PLL.PLLState = RCC_PLL_NONE;
 190:Src/main.c    ****   if (HAL_RCC_OscConfig(&RCC_OscInitStruct) != HAL_OK)
 191:Src/main.c    ****   {
 192:Src/main.c    ****     _Error_Handler(__FILE__, __LINE__);
 193:Src/main.c    ****   }
 194:Src/main.c    **** 
 195:Src/main.c    ****     /**Initializes the CPU, AHB and APB busses clocks
 196:Src/main.c    ****     */
 197:Src/main.c    ****   RCC_ClkInitStruct.ClockType = RCC_CLOCKTYPE_HCLK|RCC_CLOCKTYPE_SYSCLK
 198:Src/main.c    ****                               |RCC_CLOCKTYPE_PCLK1|RCC_CLOCKTYPE_PCLK2;
 199:Src/main.c    ****   RCC_ClkInitStruct.SYSCLKSource = RCC_SYSCLKSOURCE_HSI;
 200:Src/main.c    ****   RCC_ClkInitStruct.AHBCLKDivider = RCC_SYSCLK_DIV1;
 201:Src/main.c    ****   RCC_ClkInitStruct.APB1CLKDivider = RCC_HCLK_DIV1;
ARM GAS  /var/folders/8c/gyvcglfx7f97kbqb2h83mm_r0000gn/T//ccc5ALYJ.s 			page 5


 202:Src/main.c    ****   RCC_ClkInitStruct.APB2CLKDivider = RCC_HCLK_DIV1;
 203:Src/main.c    **** 
 204:Src/main.c    ****   if (HAL_RCC_ClockConfig(&RCC_ClkInitStruct, FLASH_LATENCY_0) != HAL_OK)
 205:Src/main.c    ****   {
 206:Src/main.c    ****     _Error_Handler(__FILE__, __LINE__);
 207:Src/main.c    ****   }
 208:Src/main.c    **** 
 209:Src/main.c    ****   PeriphClkInit.PeriphClockSelection = RCC_PERIPHCLK_USART2;
 210:Src/main.c    ****   PeriphClkInit.Usart2ClockSelection = RCC_USART2CLKSOURCE_PCLK1;
 211:Src/main.c    ****   if (HAL_RCCEx_PeriphCLKConfig(&PeriphClkInit) != HAL_OK)
 212:Src/main.c    ****   {
 213:Src/main.c    ****     _Error_Handler(__FILE__, __LINE__);
 214:Src/main.c    ****   }
 215:Src/main.c    **** 
 216:Src/main.c    ****     /**Configure the Systick interrupt time
 217:Src/main.c    ****     */
 218:Src/main.c    ****   HAL_SYSTICK_Config(HAL_RCC_GetHCLKFreq()/1000);
 219:Src/main.c    **** 
 220:Src/main.c    ****     /**Configure the Systick
 221:Src/main.c    ****     */
 222:Src/main.c    ****   HAL_SYSTICK_CLKSourceConfig(SYSTICK_CLKSOURCE_HCLK);
 223:Src/main.c    **** 
 224:Src/main.c    ****   /* SysTick_IRQn interrupt configuration */
 225:Src/main.c    ****   HAL_NVIC_SetPriority(SysTick_IRQn, 0, 0);
 226:Src/main.c    **** }
 227:Src/main.c    **** 
 228:Src/main.c    **** /* USER CODE BEGIN 4 */
 229:Src/main.c    **** 
 230:Src/main.c    **** /* USER CODE END 4 */
 231:Src/main.c    **** 
 232:Src/main.c    **** /**
 233:Src/main.c    ****   * @brief  This function is executed in case of error occurrence.
 234:Src/main.c    ****   * @param  file: The file name as string.
 235:Src/main.c    ****   * @param  line: The line in file as a number.
 236:Src/main.c    ****   * @retval None
 237:Src/main.c    ****   */
 238:Src/main.c    **** void _Error_Handler(char *file, int line)
 239:Src/main.c    **** {
  29              		.loc 1 239 1 view -0
  30              		.cfi_startproc
  31              		@ Volatile: function does not return.
  32              		@ args = 0, pretend = 0, frame = 0
  33              		@ frame_needed = 0, uses_anonymous_args = 0
  34              		@ link register save eliminated.
  35              	.LVL0:
  36              	.L2:
 240:Src/main.c    ****   /* USER CODE BEGIN Error_Handler_Debug */
 241:Src/main.c    ****   /* User can add his own implementation to report the HAL error return state */
 242:Src/main.c    ****   while(1)
  37              		.loc 1 242 3 discriminator 1 view .LVU1
 243:Src/main.c    ****   {
 244:Src/main.c    ****   }
  38              		.loc 1 244 3 discriminator 1 view .LVU2
  39 0000 FEE7     		b	.L2
  40              		.cfi_endproc
  41              	.LFE128:
  43              		.section	.text.SystemClock_Config,"ax",%progbits
ARM GAS  /var/folders/8c/gyvcglfx7f97kbqb2h83mm_r0000gn/T//ccc5ALYJ.s 			page 6


  44              		.align	1
  45              		.global	SystemClock_Config
  46              		.syntax unified
  47              		.thumb
  48              		.thumb_func
  49              		.fpu fpv4-sp-d16
  51              	SystemClock_Config:
  52              	.LFB127:
 178:Src/main.c    **** 
  53              		.loc 1 178 1 view -0
  54              		.cfi_startproc
  55              		@ args = 0, pretend = 0, frame = 152
  56              		@ frame_needed = 0, uses_anonymous_args = 0
  57 0000 00B5     		push	{lr}
  58              	.LCFI0:
  59              		.cfi_def_cfa_offset 4
  60              		.cfi_offset 14, -4
  61 0002 A7B0     		sub	sp, sp, #156
  62              	.LCFI1:
  63              		.cfi_def_cfa_offset 160
 180:Src/main.c    ****   RCC_ClkInitTypeDef RCC_ClkInitStruct;
  64              		.loc 1 180 3 view .LVU4
 181:Src/main.c    ****   RCC_PeriphCLKInitTypeDef PeriphClkInit;
  65              		.loc 1 181 3 view .LVU5
 182:Src/main.c    **** 
  66              		.loc 1 182 3 view .LVU6
 186:Src/main.c    ****   RCC_OscInitStruct.HSIState = RCC_HSI_ON;
  67              		.loc 1 186 3 view .LVU7
 186:Src/main.c    ****   RCC_OscInitStruct.HSIState = RCC_HSI_ON;
  68              		.loc 1 186 36 is_stmt 0 view .LVU8
  69 0004 0223     		movs	r3, #2
  70 0006 1C93     		str	r3, [sp, #112]
 187:Src/main.c    ****   RCC_OscInitStruct.HSICalibrationValue = 16;
  71              		.loc 1 187 3 is_stmt 1 view .LVU9
 187:Src/main.c    ****   RCC_OscInitStruct.HSICalibrationValue = 16;
  72              		.loc 1 187 30 is_stmt 0 view .LVU10
  73 0008 0123     		movs	r3, #1
  74 000a 1F93     		str	r3, [sp, #124]
 188:Src/main.c    ****   RCC_OscInitStruct.PLL.PLLState = RCC_PLL_NONE;
  75              		.loc 1 188 3 is_stmt 1 view .LVU11
 188:Src/main.c    ****   RCC_OscInitStruct.PLL.PLLState = RCC_PLL_NONE;
  76              		.loc 1 188 41 is_stmt 0 view .LVU12
  77 000c 1023     		movs	r3, #16
  78 000e 2093     		str	r3, [sp, #128]
 189:Src/main.c    ****   if (HAL_RCC_OscConfig(&RCC_OscInitStruct) != HAL_OK)
  79              		.loc 1 189 3 is_stmt 1 view .LVU13
 189:Src/main.c    ****   if (HAL_RCC_OscConfig(&RCC_OscInitStruct) != HAL_OK)
  80              		.loc 1 189 34 is_stmt 0 view .LVU14
  81 0010 0023     		movs	r3, #0
  82 0012 2293     		str	r3, [sp, #136]
 190:Src/main.c    ****   {
  83              		.loc 1 190 3 is_stmt 1 view .LVU15
 190:Src/main.c    ****   {
  84              		.loc 1 190 7 is_stmt 0 view .LVU16
  85 0014 1CA8     		add	r0, sp, #112
  86 0016 FFF7FEFF 		bl	HAL_RCC_OscConfig
  87              	.LVL1:
ARM GAS  /var/folders/8c/gyvcglfx7f97kbqb2h83mm_r0000gn/T//ccc5ALYJ.s 			page 7


 190:Src/main.c    ****   {
  88              		.loc 1 190 6 view .LVU17
  89 001a 30BB     		cbnz	r0, .L8
 197:Src/main.c    ****                               |RCC_CLOCKTYPE_PCLK1|RCC_CLOCKTYPE_PCLK2;
  90              		.loc 1 197 3 is_stmt 1 view .LVU18
 197:Src/main.c    ****                               |RCC_CLOCKTYPE_PCLK1|RCC_CLOCKTYPE_PCLK2;
  91              		.loc 1 197 31 is_stmt 0 view .LVU19
  92 001c 0F23     		movs	r3, #15
  93 001e 1793     		str	r3, [sp, #92]
 199:Src/main.c    ****   RCC_ClkInitStruct.AHBCLKDivider = RCC_SYSCLK_DIV1;
  94              		.loc 1 199 3 is_stmt 1 view .LVU20
 199:Src/main.c    ****   RCC_ClkInitStruct.AHBCLKDivider = RCC_SYSCLK_DIV1;
  95              		.loc 1 199 34 is_stmt 0 view .LVU21
  96 0020 0021     		movs	r1, #0
  97 0022 1891     		str	r1, [sp, #96]
 200:Src/main.c    ****   RCC_ClkInitStruct.APB1CLKDivider = RCC_HCLK_DIV1;
  98              		.loc 1 200 3 is_stmt 1 view .LVU22
 200:Src/main.c    ****   RCC_ClkInitStruct.APB1CLKDivider = RCC_HCLK_DIV1;
  99              		.loc 1 200 35 is_stmt 0 view .LVU23
 100 0024 1991     		str	r1, [sp, #100]
 201:Src/main.c    ****   RCC_ClkInitStruct.APB2CLKDivider = RCC_HCLK_DIV1;
 101              		.loc 1 201 3 is_stmt 1 view .LVU24
 201:Src/main.c    ****   RCC_ClkInitStruct.APB2CLKDivider = RCC_HCLK_DIV1;
 102              		.loc 1 201 36 is_stmt 0 view .LVU25
 103 0026 1A91     		str	r1, [sp, #104]
 202:Src/main.c    **** 
 104              		.loc 1 202 3 is_stmt 1 view .LVU26
 202:Src/main.c    **** 
 105              		.loc 1 202 36 is_stmt 0 view .LVU27
 106 0028 1B91     		str	r1, [sp, #108]
 204:Src/main.c    ****   {
 107              		.loc 1 204 3 is_stmt 1 view .LVU28
 204:Src/main.c    ****   {
 108              		.loc 1 204 7 is_stmt 0 view .LVU29
 109 002a 17A8     		add	r0, sp, #92
 110 002c FFF7FEFF 		bl	HAL_RCC_ClockConfig
 111              	.LVL2:
 204:Src/main.c    ****   {
 112              		.loc 1 204 6 view .LVU30
 113 0030 F8B9     		cbnz	r0, .L9
 209:Src/main.c    ****   PeriphClkInit.Usart2ClockSelection = RCC_USART2CLKSOURCE_PCLK1;
 114              		.loc 1 209 3 is_stmt 1 view .LVU31
 209:Src/main.c    ****   PeriphClkInit.Usart2ClockSelection = RCC_USART2CLKSOURCE_PCLK1;
 115              		.loc 1 209 38 is_stmt 0 view .LVU32
 116 0032 0223     		movs	r3, #2
 117 0034 0193     		str	r3, [sp, #4]
 210:Src/main.c    ****   if (HAL_RCCEx_PeriphCLKConfig(&PeriphClkInit) != HAL_OK)
 118              		.loc 1 210 3 is_stmt 1 view .LVU33
 210:Src/main.c    ****   if (HAL_RCCEx_PeriphCLKConfig(&PeriphClkInit) != HAL_OK)
 119              		.loc 1 210 38 is_stmt 0 view .LVU34
 120 0036 0023     		movs	r3, #0
 121 0038 0493     		str	r3, [sp, #16]
 211:Src/main.c    ****   {
 122              		.loc 1 211 3 is_stmt 1 view .LVU35
 211:Src/main.c    ****   {
 123              		.loc 1 211 7 is_stmt 0 view .LVU36
 124 003a 01A8     		add	r0, sp, #4
ARM GAS  /var/folders/8c/gyvcglfx7f97kbqb2h83mm_r0000gn/T//ccc5ALYJ.s 			page 8


 125 003c FFF7FEFF 		bl	HAL_RCCEx_PeriphCLKConfig
 126              	.LVL3:
 211:Src/main.c    ****   {
 127              		.loc 1 211 6 view .LVU37
 128 0040 D8B9     		cbnz	r0, .L10
 218:Src/main.c    **** 
 129              		.loc 1 218 3 is_stmt 1 view .LVU38
 218:Src/main.c    **** 
 130              		.loc 1 218 22 is_stmt 0 view .LVU39
 131 0042 FFF7FEFF 		bl	HAL_RCC_GetHCLKFreq
 132              	.LVL4:
 218:Src/main.c    **** 
 133              		.loc 1 218 3 view .LVU40
 134 0046 0F4B     		ldr	r3, .L11
 135 0048 A3FB0030 		umull	r3, r0, r3, r0
 136 004c 8009     		lsrs	r0, r0, #6
 137 004e FFF7FEFF 		bl	HAL_SYSTICK_Config
 138              	.LVL5:
 222:Src/main.c    **** 
 139              		.loc 1 222 3 is_stmt 1 view .LVU41
 140 0052 0420     		movs	r0, #4
 141 0054 FFF7FEFF 		bl	HAL_SYSTICK_CLKSourceConfig
 142              	.LVL6:
 225:Src/main.c    **** }
 143              		.loc 1 225 3 view .LVU42
 144 0058 0022     		movs	r2, #0
 145 005a 1146     		mov	r1, r2
 146 005c 4FF0FF30 		mov	r0, #-1
 147 0060 FFF7FEFF 		bl	HAL_NVIC_SetPriority
 148              	.LVL7:
 226:Src/main.c    **** 
 149              		.loc 1 226 1 is_stmt 0 view .LVU43
 150 0064 27B0     		add	sp, sp, #156
 151              	.LCFI2:
 152              		.cfi_remember_state
 153              		.cfi_def_cfa_offset 4
 154              		@ sp needed
 155 0066 5DF804FB 		ldr	pc, [sp], #4
 156              	.L8:
 157              	.LCFI3:
 158              		.cfi_restore_state
 192:Src/main.c    ****   }
 159              		.loc 1 192 5 is_stmt 1 view .LVU44
 160 006a C021     		movs	r1, #192
 161 006c 0648     		ldr	r0, .L11+4
 162 006e FFF7FEFF 		bl	_Error_Handler
 163              	.LVL8:
 164              	.L9:
 206:Src/main.c    ****   }
 165              		.loc 1 206 5 view .LVU45
 166 0072 CE21     		movs	r1, #206
 167 0074 0448     		ldr	r0, .L11+4
 168 0076 FFF7FEFF 		bl	_Error_Handler
 169              	.LVL9:
 170              	.L10:
 213:Src/main.c    ****   }
 171              		.loc 1 213 5 view .LVU46
ARM GAS  /var/folders/8c/gyvcglfx7f97kbqb2h83mm_r0000gn/T//ccc5ALYJ.s 			page 9


 172 007a D521     		movs	r1, #213
 173 007c 0248     		ldr	r0, .L11+4
 174 007e FFF7FEFF 		bl	_Error_Handler
 175              	.LVL10:
 176              	.L12:
 177 0082 00BF     		.align	2
 178              	.L11:
 179 0084 D34D6210 		.word	274877907
 180 0088 00000000 		.word	.LC0
 181              		.cfi_endproc
 182              	.LFE127:
 184              		.section	.text.main,"ax",%progbits
 185              		.align	1
 186              		.global	main
 187              		.syntax unified
 188              		.thumb
 189              		.thumb_func
 190              		.fpu fpv4-sp-d16
 192              	main:
 193              	.LFB126:
  97:Src/main.c    ****   /* USER CODE BEGIN 1 */
 194              		.loc 1 97 1 view -0
 195              		.cfi_startproc
 196              		@ Volatile: function does not return.
 197              		@ args = 0, pretend = 0, frame = 0
 198              		@ frame_needed = 0, uses_anonymous_args = 0
 199 0000 00B5     		push	{lr}
 200              	.LCFI4:
 201              		.cfi_def_cfa_offset 4
 202              		.cfi_offset 14, -4
 203 0002 83B0     		sub	sp, sp, #12
 204              	.LCFI5:
 205              		.cfi_def_cfa_offset 16
 105:Src/main.c    **** 
 206              		.loc 1 105 3 view .LVU48
 207 0004 FFF7FEFF 		bl	HAL_Init
 208              	.LVL11:
 112:Src/main.c    **** 
 209              		.loc 1 112 3 view .LVU49
 210 0008 FFF7FEFF 		bl	SystemClock_Config
 211              	.LVL12:
 119:Src/main.c    ****   MX_USART2_UART_Init();
 212              		.loc 1 119 3 view .LVU50
 213 000c FFF7FEFF 		bl	MX_GPIO_Init
 214              	.LVL13:
 120:Src/main.c    ****   MX_SPI2_Init();
 215              		.loc 1 120 3 view .LVU51
 216 0010 FFF7FEFF 		bl	MX_USART2_UART_Init
 217              	.LVL14:
 121:Src/main.c    ****   /* USER CODE BEGIN 2 */
 218              		.loc 1 121 3 view .LVU52
 219 0014 FFF7FEFF 		bl	MX_SPI2_Init
 220              	.LVL15:
 123:Src/main.c    ****   RFM69_RST();
 221              		.loc 1 123 3 view .LVU53
 222 0018 0A20     		movs	r0, #10
 223 001a FFF7FEFF 		bl	HAL_Delay
ARM GAS  /var/folders/8c/gyvcglfx7f97kbqb2h83mm_r0000gn/T//ccc5ALYJ.s 			page 10


 224              	.LVL16:
 124:Src/main.c    ****   HAL_Delay(10);
 225              		.loc 1 124 3 view .LVU54
 226 001e FFF7FEFF 		bl	RFM69_RST
 227              	.LVL17:
 125:Src/main.c    ****   if (RFM69_initialize(freqBand, nodeID, networkID)) {
 228              		.loc 1 125 3 view .LVU55
 229 0022 0A20     		movs	r0, #10
 230 0024 FFF7FEFF 		bl	HAL_Delay
 231              	.LVL18:
 126:Src/main.c    ****     sprintf(log_buffer, "RFM69 Initialized. Freq %dMHz. Node %d. Group %d.\r\n", freqBand, nodeID, 
 232              		.loc 1 126 3 view .LVU56
 126:Src/main.c    ****     sprintf(log_buffer, "RFM69 Initialized. Freq %dMHz. Node %d. Group %d.\r\n", freqBand, nodeID, 
 233              		.loc 1 126 7 is_stmt 0 view .LVU57
 234 0028 1F4B     		ldr	r3, .L22
 235 002a 1A88     		ldrh	r2, [r3]
 236 002c 1F4B     		ldr	r3, .L22+4
 237 002e 1978     		ldrb	r1, [r3]	@ zero_extendqisi2
 238 0030 1F4B     		ldr	r3, .L22+8
 239 0032 1888     		ldrh	r0, [r3]
 240 0034 FFF7FEFF 		bl	RFM69_initialize
 241              	.LVL19:
 126:Src/main.c    ****     sprintf(log_buffer, "RFM69 Initialized. Freq %dMHz. Node %d. Group %d.\r\n", freqBand, nodeID, 
 242              		.loc 1 126 6 view .LVU58
 243 0038 88B1     		cbz	r0, .L14
 127:Src/main.c    ****     debug_printf(log_buffer);
 244              		.loc 1 127 5 is_stmt 1 view .LVU59
 245 003a 1E4C     		ldr	r4, .L22+12
 246 003c 1A4B     		ldr	r3, .L22
 247 003e 1B88     		ldrh	r3, [r3]
 248 0040 0093     		str	r3, [sp]
 249 0042 1A4B     		ldr	r3, .L22+4
 250 0044 1B78     		ldrb	r3, [r3]	@ zero_extendqisi2
 251 0046 1A4A     		ldr	r2, .L22+8
 252 0048 1288     		ldrh	r2, [r2]
 253 004a 1B49     		ldr	r1, .L22+16
 254 004c 2046     		mov	r0, r4
 255 004e FFF7FEFF 		bl	sprintf
 256              	.LVL20:
 128:Src/main.c    ****   }
 257              		.loc 1 128 5 view .LVU60
 258 0052 2046     		mov	r0, r4
 259 0054 FFF7FEFF 		bl	debug_printf
 260              	.LVL21:
 261              	.L15:
 133:Src/main.c    ****   /* USER CODE END 2 */
 262              		.loc 1 133 3 view .LVU61
 263 0058 FFF7FEFF 		bl	RFM69_readAllRegs
 264              	.LVL22:
 265 005c 1BE0     		b	.L17
 266              	.L14:
 131:Src/main.c    ****   }
 267              		.loc 1 131 5 view .LVU62
 268 005e 1748     		ldr	r0, .L22+20
 269 0060 FFF7FEFF 		bl	debug_printf
 270              	.LVL23:
 271 0064 F8E7     		b	.L15
ARM GAS  /var/folders/8c/gyvcglfx7f97kbqb2h83mm_r0000gn/T//ccc5ALYJ.s 			page 11


 272              	.L20:
 143:Src/main.c    ****           RFM69_interruptHandler();
 273              		.loc 1 143 11 view .LVU63
 274 0066 0122     		movs	r2, #1
 275 0068 2021     		movs	r1, #32
 276 006a 4FF09040 		mov	r0, #1207959552
 277 006e FFF7FEFF 		bl	HAL_GPIO_WritePin
 278              	.LVL24:
 144:Src/main.c    ****         }
 279              		.loc 1 144 11 view .LVU64
 280 0072 FFF7FEFF 		bl	RFM69_interruptHandler
 281              	.LVL25:
 282 0076 12E0     		b	.L16
 283              	.L21:
 147:Src/main.c    ****           PrintRawBytes();
 284              		.loc 1 147 11 view .LVU65
 285 0078 1148     		ldr	r0, .L22+24
 286 007a FFF7FEFF 		bl	debug_printf
 287              	.LVL26:
 148:Src/main.c    ****           PrintStruct();
 288              		.loc 1 148 11 view .LVU66
 289 007e FFF7FEFF 		bl	PrintRawBytes
 290              	.LVL27:
 149:Src/main.c    ****           PrintByteByByte();
 291              		.loc 1 149 11 view .LVU67
 292 0082 FFF7FEFF 		bl	PrintStruct
 293              	.LVL28:
 150:Src/main.c    ****           HAL_GPIO_WritePin(GPIOA, GPIO_PIN_5, 0); // turn off LED
 294              		.loc 1 150 11 view .LVU68
 295 0086 FFF7FEFF 		bl	PrintByteByByte
 296              	.LVL29:
 151:Src/main.c    ****         }
 297              		.loc 1 151 11 view .LVU69
 298 008a 0022     		movs	r2, #0
 299 008c 2021     		movs	r1, #32
 300 008e 4FF09040 		mov	r0, #1207959552
 301 0092 FFF7FEFF 		bl	HAL_GPIO_WritePin
 302              	.LVL30:
 303              	.L17:
 138:Src/main.c    ****   {
 304              		.loc 1 138 3 view .LVU70
 142:Src/main.c    ****           HAL_GPIO_WritePin(GPIOA, GPIO_PIN_5, 1); // turn on LED
 305              		.loc 1 142 9 view .LVU71
 142:Src/main.c    ****           HAL_GPIO_WritePin(GPIOA, GPIO_PIN_5, 1); // turn on LED
 306              		.loc 1 142 13 is_stmt 0 view .LVU72
 307 0096 FFF7FEFF 		bl	RFM69_ReadDIO0Pin
 308              	.LVL31:
 142:Src/main.c    ****           HAL_GPIO_WritePin(GPIOA, GPIO_PIN_5, 1); // turn on LED
 309              		.loc 1 142 12 view .LVU73
 310 009a 0028     		cmp	r0, #0
 311 009c E3D1     		bne	.L20
 312              	.L16:
 146:Src/main.c    ****           debug_printf("Payload Received!\r\n");
 313              		.loc 1 146 9 is_stmt 1 view .LVU74
 146:Src/main.c    ****           debug_printf("Payload Received!\r\n");
 314              		.loc 1 146 13 is_stmt 0 view .LVU75
 315 009e FFF7FEFF 		bl	RFM69_receiveDone
ARM GAS  /var/folders/8c/gyvcglfx7f97kbqb2h83mm_r0000gn/T//ccc5ALYJ.s 			page 12


 316              	.LVL32:
 146:Src/main.c    ****           debug_printf("Payload Received!\r\n");
 317              		.loc 1 146 12 view .LVU76
 318 00a2 0028     		cmp	r0, #0
 319 00a4 F7D0     		beq	.L17
 320 00a6 E7E7     		b	.L21
 321              	.L23:
 322              		.align	2
 323              	.L22:
 324 00a8 00000000 		.word	.LANCHOR0
 325 00ac 00000000 		.word	.LANCHOR1
 326 00b0 00000000 		.word	.LANCHOR2
 327 00b4 00000000 		.word	log_buffer
 328 00b8 00000000 		.word	.LC1
 329 00bc 34000000 		.word	.LC2
 330 00c0 4C000000 		.word	.LC3
 331              		.cfi_endproc
 332              	.LFE126:
 334              		.comm	theData,8,4
 335              		.global	requestACK
 336              		.global	toAddress
 337              		.global	freqBand
 338              		.global	nodeID
 339              		.global	networkID
 340              		.comm	log_buffer,150,4
 341              		.section	.bss.requestACK,"aw",%nobits
 344              	requestACK:
 345 0000 00       		.space	1
 346              		.section	.data.freqBand,"aw"
 347              		.align	1
 348              		.set	.LANCHOR2,. + 0
 351              	freqBand:
 352 0000 B101     		.short	433
 353              		.section	.data.networkID,"aw"
 354              		.align	1
 355              		.set	.LANCHOR0,. + 0
 358              	networkID:
 359 0000 D200     		.short	210
 360              		.section	.data.nodeID,"aw"
 361              		.set	.LANCHOR1,. + 0
 364              	nodeID:
 365 0000 01       		.byte	1
 366              		.section	.data.toAddress,"aw"
 369              	toAddress:
 370 0000 01       		.byte	1
 371              		.section	.rodata.SystemClock_Config.str1.4,"aMS",%progbits,1
 372              		.align	2
 373              	.LC0:
 374 0000 5372632F 		.ascii	"Src/main.c\000"
 374      6D61696E 
 374      2E6300
 375              		.section	.rodata.main.str1.4,"aMS",%progbits,1
 376              		.align	2
 377              	.LC1:
 378 0000 52464D36 		.ascii	"RFM69 Initialized. Freq %dMHz. Node %d. Group %d.\015"
 378      3920496E 
 378      69746961 
ARM GAS  /var/folders/8c/gyvcglfx7f97kbqb2h83mm_r0000gn/T//ccc5ALYJ.s 			page 13


 378      6C697A65 
 378      642E2046 
 379 0032 0A00     		.ascii	"\012\000"
 380              	.LC2:
 381 0034 52464D36 		.ascii	"RFM69 not connected.\015\012\000"
 381      39206E6F 
 381      7420636F 
 381      6E6E6563 
 381      7465642E 
 382 004b 00       		.space	1
 383              	.LC3:
 384 004c 5061796C 		.ascii	"Payload Received!\015\012\000"
 384      6F616420 
 384      52656365 
 384      69766564 
 384      210D0A00 
 385              		.text
 386              	.Letext0:
 387              		.file 2 "/usr/local/gcc-arm-none-eabi-8-2018-q4-major/arm-none-eabi/include/machine/_default_types
 388              		.file 3 "/usr/local/gcc-arm-none-eabi-8-2018-q4-major/arm-none-eabi/include/sys/_stdint.h"
 389              		.file 4 "Drivers/CMSIS/Include/core_cm4.h"
 390              		.file 5 "Drivers/CMSIS/Device/ST/STM32F3xx/Include/system_stm32f3xx.h"
 391              		.file 6 "Drivers/CMSIS/Device/ST/STM32F3xx/Include/stm32f303xe.h"
 392              		.file 7 "/usr/local/gcc-arm-none-eabi-8-2018-q4-major/arm-none-eabi/include/sys/lock.h"
 393              		.file 8 "/usr/local/gcc-arm-none-eabi-8-2018-q4-major/arm-none-eabi/include/sys/_types.h"
 394              		.file 9 "/usr/local/gcc-arm-none-eabi-8-2018-q4-major/lib/gcc/arm-none-eabi/8.2.1/include/stddef.h
 395              		.file 10 "/usr/local/gcc-arm-none-eabi-8-2018-q4-major/arm-none-eabi/include/sys/reent.h"
 396              		.file 11 "Drivers/STM32F3xx_HAL_Driver/Inc/stm32f3xx_hal_def.h"
 397              		.file 12 "Drivers/STM32F3xx_HAL_Driver/Inc/stm32f3xx_hal_rcc.h"
 398              		.file 13 "Drivers/STM32F3xx_HAL_Driver/Inc/stm32f3xx_hal_rcc_ex.h"
 399              		.file 14 "Drivers/STM32F3xx_HAL_Driver/Inc/stm32f3xx_hal_dma.h"
 400              		.file 15 "Drivers/STM32F3xx_HAL_Driver/Inc/stm32f3xx_hal_spi.h"
 401              		.file 16 "Drivers/STM32F3xx_HAL_Driver/Inc/stm32f3xx_hal_uart.h"
 402              		.file 17 "Inc/spi.h"
 403              		.file 18 "Inc/usart.h"
 404              		.file 19 "Drivers/STM32F3xx_HAL_Driver/Inc/stm32f3xx_hal_cortex.h"
 405              		.file 20 "Drivers/STM32F3xx_HAL_Driver/Inc/stm32f3xx_hal.h"
 406              		.file 21 "Inc/gpio.h"
 407              		.file 22 "Inc/RFM69_ext.h"
 408              		.file 23 "Inc/RFM69.h"
 409              		.file 24 "/usr/local/gcc-arm-none-eabi-8-2018-q4-major/arm-none-eabi/include/stdio.h"
 410              		.file 25 "Drivers/STM32F3xx_HAL_Driver/Inc/stm32f3xx_hal_gpio.h"
ARM GAS  /var/folders/8c/gyvcglfx7f97kbqb2h83mm_r0000gn/T//ccc5ALYJ.s 			page 14

