ARM GAS  /var/folders/8c/gyvcglfx7f97kbqb2h83mm_r0000gn/T//cctYBETO.s 			page 1


   1              		.cpu cortex-m4
   2              		.eabi_attribute 27, 1
   3              		.eabi_attribute 28, 1
   4              		.eabi_attribute 20, 1
   5              		.eabi_attribute 21, 1
   6              		.eabi_attribute 23, 3
   7              		.eabi_attribute 24, 1
   8              		.eabi_attribute 25, 1
   9              		.eabi_attribute 26, 1
  10              		.eabi_attribute 30, 1
  11              		.eabi_attribute 34, 1
  12              		.eabi_attribute 18, 4
  13              		.file	"RFM69_ext.c"
  14              		.text
  15              	.Ltext0:
  16              		.cfi_sections	.debug_frame
  17              		.section	.text.RFM69_RST,"ax",%progbits
  18              		.align	1
  19              		.global	RFM69_RST
  20              		.arch armv7e-m
  21              		.syntax unified
  22              		.thumb
  23              		.thumb_func
  24              		.fpu fpv4-sp-d16
  26              	RFM69_RST:
  27              	.LFB126:
  28              		.file 1 "Src/RFM69_ext.c"
   1:Src/RFM69_ext.c **** // module interface, platform specific functions
   2:Src/RFM69_ext.c **** 
   3:Src/RFM69_ext.c **** #include "RFM69_ext.h"
   4:Src/RFM69_ext.c **** #include "gpio.h"
   5:Src/RFM69_ext.c **** #include "usart.h"
   6:Src/RFM69_ext.c **** #include <stdbool.h>
   7:Src/RFM69_ext.c **** #include <stdint.h>
   8:Src/RFM69_ext.c **** 
   9:Src/RFM69_ext.c **** bool GO_AHEAD_READ_RFM69;
  10:Src/RFM69_ext.c **** bool rststate;
  11:Src/RFM69_ext.c **** char log_buffer[30];
  12:Src/RFM69_ext.c **** 
  13:Src/RFM69_ext.c **** 
  14:Src/RFM69_ext.c **** void RFM69_RST(void) {
  29              		.loc 1 14 22 view -0
  30              		.cfi_startproc
  31              		@ args = 0, pretend = 0, frame = 0
  32              		@ frame_needed = 0, uses_anonymous_args = 0
  33 0000 08B5     		push	{r3, lr}
  34              	.LCFI0:
  35              		.cfi_def_cfa_offset 8
  36              		.cfi_offset 3, -8
  37              		.cfi_offset 14, -4
  15:Src/RFM69_ext.c ****   HAL_GPIO_WritePin(GPIOA, GPIO_PIN_10, 1);
  38              		.loc 1 15 3 view .LVU1
  39 0002 0122     		movs	r2, #1
  40 0004 4FF48061 		mov	r1, #1024
  41 0008 4FF09040 		mov	r0, #1207959552
  42 000c FFF7FEFF 		bl	HAL_GPIO_WritePin
  43              	.LVL0:
ARM GAS  /var/folders/8c/gyvcglfx7f97kbqb2h83mm_r0000gn/T//cctYBETO.s 			page 2


  16:Src/RFM69_ext.c ****   HAL_Delay(10);
  44              		.loc 1 16 3 view .LVU2
  45 0010 0A20     		movs	r0, #10
  46 0012 FFF7FEFF 		bl	HAL_Delay
  47              	.LVL1:
  17:Src/RFM69_ext.c ****   HAL_GPIO_WritePin(GPIOA, GPIO_PIN_10, 0);
  48              		.loc 1 17 3 view .LVU3
  49 0016 0022     		movs	r2, #0
  50 0018 4FF48061 		mov	r1, #1024
  51 001c 4FF09040 		mov	r0, #1207959552
  52 0020 FFF7FEFF 		bl	HAL_GPIO_WritePin
  53              	.LVL2:
  18:Src/RFM69_ext.c ****   HAL_Delay(50);
  54              		.loc 1 18 3 view .LVU4
  55 0024 3220     		movs	r0, #50
  56 0026 FFF7FEFF 		bl	HAL_Delay
  57              	.LVL3:
  19:Src/RFM69_ext.c **** }
  58              		.loc 1 19 1 is_stmt 0 view .LVU5
  59 002a 08BD     		pop	{r3, pc}
  60              		.cfi_endproc
  61              	.LFE126:
  63              		.section	.text.noInterrupts,"ax",%progbits
  64              		.align	1
  65              		.global	noInterrupts
  66              		.syntax unified
  67              		.thumb
  68              		.thumb_func
  69              		.fpu fpv4-sp-d16
  71              	noInterrupts:
  72              	.LFB127:
  20:Src/RFM69_ext.c **** 
  21:Src/RFM69_ext.c **** // extern functions
  22:Src/RFM69_ext.c **** bool noInterrupts()                // function to disable interrupts
  23:Src/RFM69_ext.c **** {
  73              		.loc 1 23 1 is_stmt 1 view -0
  74              		.cfi_startproc
  75              		@ args = 0, pretend = 0, frame = 0
  76              		@ frame_needed = 0, uses_anonymous_args = 0
  77              		@ link register save eliminated.
  24:Src/RFM69_ext.c **** GO_AHEAD_READ_RFM69 = 0;
  78              		.loc 1 24 1 view .LVU7
  79              		.loc 1 24 21 is_stmt 0 view .LVU8
  80 0000 024B     		ldr	r3, .L4
  81 0002 0022     		movs	r2, #0
  82 0004 1A70     		strb	r2, [r3]
  25:Src/RFM69_ext.c **** return true;
  83              		.loc 1 25 1 is_stmt 1 view .LVU9
  26:Src/RFM69_ext.c **** }
  84              		.loc 1 26 1 is_stmt 0 view .LVU10
  85 0006 0120     		movs	r0, #1
  86 0008 7047     		bx	lr
  87              	.L5:
  88 000a 00BF     		.align	2
  89              	.L4:
  90 000c 00000000 		.word	GO_AHEAD_READ_RFM69
  91              		.cfi_endproc
ARM GAS  /var/folders/8c/gyvcglfx7f97kbqb2h83mm_r0000gn/T//cctYBETO.s 			page 3


  92              	.LFE127:
  94              		.section	.text.interrupts,"ax",%progbits
  95              		.align	1
  96              		.global	interrupts
  97              		.syntax unified
  98              		.thumb
  99              		.thumb_func
 100              		.fpu fpv4-sp-d16
 102              	interrupts:
 103              	.LFB128:
  27:Src/RFM69_ext.c **** 
  28:Src/RFM69_ext.c **** bool interrupts()                  // function to enable interrupts
  29:Src/RFM69_ext.c **** {
 104              		.loc 1 29 1 is_stmt 1 view -0
 105              		.cfi_startproc
 106              		@ args = 0, pretend = 0, frame = 0
 107              		@ frame_needed = 0, uses_anonymous_args = 0
 108              		@ link register save eliminated.
  30:Src/RFM69_ext.c **** GO_AHEAD_READ_RFM69 = 1;
 109              		.loc 1 30 1 view .LVU12
 110              		.loc 1 30 21 is_stmt 0 view .LVU13
 111 0000 0120     		movs	r0, #1
 112 0002 014B     		ldr	r3, .L7
 113 0004 1870     		strb	r0, [r3]
  31:Src/RFM69_ext.c **** return true;
 114              		.loc 1 31 1 is_stmt 1 view .LVU14
  32:Src/RFM69_ext.c **** }
 115              		.loc 1 32 1 is_stmt 0 view .LVU15
 116 0006 7047     		bx	lr
 117              	.L8:
 118              		.align	2
 119              	.L7:
 120 0008 00000000 		.word	GO_AHEAD_READ_RFM69
 121              		.cfi_endproc
 122              	.LFE128:
 124              		.section	.text.RFM69_SetCSPin,"ax",%progbits
 125              		.align	1
 126              		.global	RFM69_SetCSPin
 127              		.syntax unified
 128              		.thumb
 129              		.thumb_func
 130              		.fpu fpv4-sp-d16
 132              	RFM69_SetCSPin:
 133              	.LVL4:
 134              	.LFB129:
  33:Src/RFM69_ext.c **** 
  34:Src/RFM69_ext.c **** void RFM69_SetCSPin(bool SetCSValue)          // function to control the GPIO tied to RFM69 chip se
  35:Src/RFM69_ext.c **** {
 135              		.loc 1 35 1 is_stmt 1 view -0
 136              		.cfi_startproc
 137              		@ args = 0, pretend = 0, frame = 0
 138              		@ frame_needed = 0, uses_anonymous_args = 0
 139              		.loc 1 35 1 is_stmt 0 view .LVU17
 140 0000 08B5     		push	{r3, lr}
 141              	.LCFI1:
 142              		.cfi_def_cfa_offset 8
 143              		.cfi_offset 3, -8
ARM GAS  /var/folders/8c/gyvcglfx7f97kbqb2h83mm_r0000gn/T//cctYBETO.s 			page 4


 144              		.cfi_offset 14, -4
  36:Src/RFM69_ext.c **** HAL_GPIO_WritePin(GPIOB, GPIO_PIN_3, SetCSValue); //GPIOA, GPIO_PIN_5 is LED on Nucleao, for testin
 145              		.loc 1 36 1 is_stmt 1 view .LVU18
 146 0002 0246     		mov	r2, r0
 147 0004 0821     		movs	r1, #8
 148 0006 0248     		ldr	r0, .L11
 149              	.LVL5:
 150              		.loc 1 36 1 is_stmt 0 view .LVU19
 151 0008 FFF7FEFF 		bl	HAL_GPIO_WritePin
 152              	.LVL6:
  37:Src/RFM69_ext.c **** }
 153              		.loc 1 37 1 view .LVU20
 154 000c 08BD     		pop	{r3, pc}
 155              	.L12:
 156 000e 00BF     		.align	2
 157              	.L11:
 158 0010 00040048 		.word	1207960576
 159              		.cfi_endproc
 160              	.LFE129:
 162              		.section	.text.RFM69_ReadDIO0Pin,"ax",%progbits
 163              		.align	1
 164              		.global	RFM69_ReadDIO0Pin
 165              		.syntax unified
 166              		.thumb
 167              		.thumb_func
 168              		.fpu fpv4-sp-d16
 170              	RFM69_ReadDIO0Pin:
 171              	.LFB130:
  38:Src/RFM69_ext.c **** 
  39:Src/RFM69_ext.c **** bool RFM69_ReadDIO0Pin(void)       // function to read GPIO connected to RFM69 DIO0 (RFM69 interrup
  40:Src/RFM69_ext.c **** {
 172              		.loc 1 40 1 is_stmt 1 view -0
 173              		.cfi_startproc
 174              		@ args = 0, pretend = 0, frame = 0
 175              		@ frame_needed = 0, uses_anonymous_args = 0
 176 0000 10B5     		push	{r4, lr}
 177              	.LCFI2:
 178              		.cfi_def_cfa_offset 8
 179              		.cfi_offset 4, -8
 180              		.cfi_offset 14, -4
  41:Src/RFM69_ext.c ****   if (GO_AHEAD_READ_RFM69 == 1 && HAL_GPIO_ReadPin(GPIOA, GPIO_PIN_9) == 1)
 181              		.loc 1 41 3 view .LVU22
 182              		.loc 1 41 27 is_stmt 0 view .LVU23
 183 0002 074B     		ldr	r3, .L18
 184 0004 1C78     		ldrb	r4, [r3]	@ zero_extendqisi2
 185              		.loc 1 41 6 view .LVU24
 186 0006 14B9     		cbnz	r4, .L17
 187              	.L14:
  42:Src/RFM69_ext.c ****   {
  43:Src/RFM69_ext.c ****     return true;
  44:Src/RFM69_ext.c ****   }
  45:Src/RFM69_ext.c ****   else
  46:Src/RFM69_ext.c ****   {
  47:Src/RFM69_ext.c ****     return false;
 188              		.loc 1 47 5 is_stmt 1 view .LVU25
 189              		.loc 1 47 12 is_stmt 0 view .LVU26
 190 0008 0024     		movs	r4, #0
ARM GAS  /var/folders/8c/gyvcglfx7f97kbqb2h83mm_r0000gn/T//cctYBETO.s 			page 5


 191              	.L15:
  48:Src/RFM69_ext.c ****   }
  49:Src/RFM69_ext.c **** }
 192              		.loc 1 49 1 view .LVU27
 193 000a 2046     		mov	r0, r4
 194 000c 10BD     		pop	{r4, pc}
 195              	.L17:
  41:Src/RFM69_ext.c ****   {
 196              		.loc 1 41 35 discriminator 1 view .LVU28
 197 000e 4FF40071 		mov	r1, #512
 198 0012 4FF09040 		mov	r0, #1207959552
 199 0016 FFF7FEFF 		bl	HAL_GPIO_ReadPin
 200              	.LVL7:
  41:Src/RFM69_ext.c ****   {
 201              		.loc 1 41 32 discriminator 1 view .LVU29
 202 001a 0128     		cmp	r0, #1
 203 001c F4D1     		bne	.L14
 204 001e F4E7     		b	.L15
 205              	.L19:
 206              		.align	2
 207              	.L18:
 208 0020 00000000 		.word	GO_AHEAD_READ_RFM69
 209              		.cfi_endproc
 210              	.LFE130:
 212              		.section	.text.Timeout_IsTimeout1,"ax",%progbits
 213              		.align	1
 214              		.global	Timeout_IsTimeout1
 215              		.syntax unified
 216              		.thumb
 217              		.thumb_func
 218              		.fpu fpv4-sp-d16
 220              	Timeout_IsTimeout1:
 221              	.LFB131:
  50:Src/RFM69_ext.c **** 
  51:Src/RFM69_ext.c **** /*
  52:Src/RFM69_ext.c **** //functions below provided elsewhere.
  53:Src/RFM69_ext.c **** uint8_t SPI_transfer8(uint8_t)     // function to transfer 1byte on SPI with readback
  54:Src/RFM69_ext.c **** {
  55:Src/RFM69_ext.c **** find me in spi.c
  56:Src/RFM69_ext.c **** }
  57:Src/RFM69_ext.c **** 
  58:Src/RFM69_ext.c **** 
  59:Src/RFM69_ext.c **** void SerialPrint(char*)            // function to print to serial port a string
  60:Src/RFM69_ext.c **** {
  61:Src/RFM69_ext.c **** find me in usart.c
  62:Src/RFM69_ext.c **** }
  63:Src/RFM69_ext.c **** */
  64:Src/RFM69_ext.c **** 
  65:Src/RFM69_ext.c **** static uint32_t thistimeout1;
  66:Src/RFM69_ext.c **** bool Timeout_IsTimeout1(void)      // function for timeout handling, checks if previously set timeo
  67:Src/RFM69_ext.c **** {
 222              		.loc 1 67 1 is_stmt 1 view -0
 223              		.cfi_startproc
 224              		@ args = 0, pretend = 0, frame = 0
 225              		@ frame_needed = 0, uses_anonymous_args = 0
 226 0000 10B5     		push	{r4, lr}
 227              	.LCFI3:
ARM GAS  /var/folders/8c/gyvcglfx7f97kbqb2h83mm_r0000gn/T//cctYBETO.s 			page 6


 228              		.cfi_def_cfa_offset 8
 229              		.cfi_offset 4, -8
 230              		.cfi_offset 14, -4
  68:Src/RFM69_ext.c ****   if(HAL_GetTick() >= thistimeout1)
 231              		.loc 1 68 3 view .LVU31
 232              		.loc 1 68 6 is_stmt 0 view .LVU32
 233 0002 FFF7FEFF 		bl	HAL_GetTick
 234              	.LVL8:
 235              		.loc 1 68 20 view .LVU33
 236 0006 084B     		ldr	r3, .L25
 237 0008 1B68     		ldr	r3, [r3]
 238              		.loc 1 68 5 view .LVU34
 239 000a 9842     		cmp	r0, r3
 240 000c 01D2     		bcs	.L24
  69:Src/RFM69_ext.c ****     {
  70:Src/RFM69_ext.c ****       sprintf(log_buffer,"TimeOut1!\r\n");
  71:Src/RFM69_ext.c ****       debug_printf(log_buffer);
  72:Src/RFM69_ext.c ****       return true;
  73:Src/RFM69_ext.c ****     }
  74:Src/RFM69_ext.c ****   else
  75:Src/RFM69_ext.c ****   {
  76:Src/RFM69_ext.c ****     return false;
 241              		.loc 1 76 12 view .LVU35
 242 000e 0020     		movs	r0, #0
 243              	.L21:
  77:Src/RFM69_ext.c ****   }
  78:Src/RFM69_ext.c **** }
 244              		.loc 1 78 1 view .LVU36
 245 0010 10BD     		pop	{r4, pc}
 246              	.L24:
  70:Src/RFM69_ext.c ****       debug_printf(log_buffer);
 247              		.loc 1 70 7 is_stmt 1 view .LVU37
 248 0012 064C     		ldr	r4, .L25+4
 249 0014 064B     		ldr	r3, .L25+8
 250 0016 07CB     		ldmia	r3!, {r0, r1, r2}
 251 0018 2060     		str	r0, [r4]	@ unaligned
 252 001a 6160     		str	r1, [r4, #4]	@ unaligned
 253 001c A260     		str	r2, [r4, #8]	@ unaligned
  71:Src/RFM69_ext.c ****       return true;
 254              		.loc 1 71 7 view .LVU38
 255 001e 2046     		mov	r0, r4
 256 0020 FFF7FEFF 		bl	debug_printf
 257              	.LVL9:
  72:Src/RFM69_ext.c ****     }
 258              		.loc 1 72 7 view .LVU39
  72:Src/RFM69_ext.c ****     }
 259              		.loc 1 72 14 is_stmt 0 view .LVU40
 260 0024 0120     		movs	r0, #1
 261 0026 F3E7     		b	.L21
 262              	.L26:
 263              		.align	2
 264              	.L25:
 265 0028 00000000 		.word	.LANCHOR0
 266 002c 00000000 		.word	log_buffer
 267 0030 00000000 		.word	.LC0
 268              		.cfi_endproc
 269              	.LFE131:
ARM GAS  /var/folders/8c/gyvcglfx7f97kbqb2h83mm_r0000gn/T//cctYBETO.s 			page 7


 271              		.section	.text.Timeout_SetTimeout1,"ax",%progbits
 272              		.align	1
 273              		.global	Timeout_SetTimeout1
 274              		.syntax unified
 275              		.thumb
 276              		.thumb_func
 277              		.fpu fpv4-sp-d16
 279              	Timeout_SetTimeout1:
 280              	.LVL10:
 281              	.LFB132:
  79:Src/RFM69_ext.c **** void Timeout_SetTimeout1(uint16_t settimeoutvalue) // function for timeout handling, sets a timeout
  80:Src/RFM69_ext.c **** {
 282              		.loc 1 80 1 is_stmt 1 view -0
 283              		.cfi_startproc
 284              		@ args = 0, pretend = 0, frame = 0
 285              		@ frame_needed = 0, uses_anonymous_args = 0
 286              		.loc 1 80 1 is_stmt 0 view .LVU42
 287 0000 10B5     		push	{r4, lr}
 288              	.LCFI4:
 289              		.cfi_def_cfa_offset 8
 290              		.cfi_offset 4, -8
 291              		.cfi_offset 14, -4
 292 0002 0446     		mov	r4, r0
  81:Src/RFM69_ext.c ****   thistimeout1 = HAL_GetTick() + settimeoutvalue;
 293              		.loc 1 81 3 is_stmt 1 view .LVU43
 294              		.loc 1 81 18 is_stmt 0 view .LVU44
 295 0004 FFF7FEFF 		bl	HAL_GetTick
 296              	.LVL11:
 297              		.loc 1 81 32 view .LVU45
 298 0008 2044     		add	r0, r0, r4
 299              		.loc 1 81 16 view .LVU46
 300 000a 014B     		ldr	r3, .L29
 301 000c 1860     		str	r0, [r3]
  82:Src/RFM69_ext.c **** }
 302              		.loc 1 82 1 view .LVU47
 303 000e 10BD     		pop	{r4, pc}
 304              	.L30:
 305              		.align	2
 306              	.L29:
 307 0010 00000000 		.word	.LANCHOR0
 308              		.cfi_endproc
 309              	.LFE132:
 311              		.comm	log_buffer,30,4
 312              		.comm	rststate,1,1
 313              		.comm	GO_AHEAD_READ_RFM69,1,1
 314              		.section	.bss.thistimeout1,"aw",%nobits
 315              		.align	2
 316              		.set	.LANCHOR0,. + 0
 319              	thistimeout1:
 320 0000 00000000 		.space	4
 321              		.section	.rodata.Timeout_IsTimeout1.str1.4,"aMS",%progbits,1
 322              		.align	2
 323              	.LC0:
 324 0000 54696D65 		.ascii	"TimeOut1!\015\012\000"
 324      4F757431 
 324      210D0A00 
 325              		.text
ARM GAS  /var/folders/8c/gyvcglfx7f97kbqb2h83mm_r0000gn/T//cctYBETO.s 			page 8


 326              	.Letext0:
 327              		.file 2 "/usr/local/gcc-arm-none-eabi-8-2018-q4-major/arm-none-eabi/include/machine/_default_types
 328              		.file 3 "/usr/local/gcc-arm-none-eabi-8-2018-q4-major/arm-none-eabi/include/sys/_stdint.h"
 329              		.file 4 "Drivers/CMSIS/Include/core_cm4.h"
 330              		.file 5 "Drivers/CMSIS/Device/ST/STM32F3xx/Include/system_stm32f3xx.h"
 331              		.file 6 "Drivers/CMSIS/Device/ST/STM32F3xx/Include/stm32f303xe.h"
 332              		.file 7 "/usr/local/gcc-arm-none-eabi-8-2018-q4-major/arm-none-eabi/include/sys/lock.h"
 333              		.file 8 "/usr/local/gcc-arm-none-eabi-8-2018-q4-major/arm-none-eabi/include/sys/_types.h"
 334              		.file 9 "/usr/local/gcc-arm-none-eabi-8-2018-q4-major/lib/gcc/arm-none-eabi/8.2.1/include/stddef.h
 335              		.file 10 "/usr/local/gcc-arm-none-eabi-8-2018-q4-major/arm-none-eabi/include/sys/reent.h"
 336              		.file 11 "Drivers/STM32F3xx_HAL_Driver/Inc/stm32f3xx_hal_def.h"
 337              		.file 12 "Drivers/STM32F3xx_HAL_Driver/Inc/stm32f3xx_hal_dma.h"
 338              		.file 13 "Drivers/STM32F3xx_HAL_Driver/Inc/stm32f3xx_hal_uart.h"
 339              		.file 14 "Inc/usart.h"
 340              		.file 15 "Drivers/STM32F3xx_HAL_Driver/Inc/stm32f3xx_hal.h"
 341              		.file 16 "Drivers/STM32F3xx_HAL_Driver/Inc/stm32f3xx_hal_gpio.h"
ARM GAS  /var/folders/8c/gyvcglfx7f97kbqb2h83mm_r0000gn/T//cctYBETO.s 			page 9

