ARM GAS  /var/folders/md/lgcc8l7571l9vt9sx0g0zflw0000gn/T//ccO9W1C5.s 			page 1


   1              		.cpu cortex-m3
   2              		.eabi_attribute 20, 1
   3              		.eabi_attribute 21, 1
   4              		.eabi_attribute 23, 3
   5              		.eabi_attribute 24, 1
   6              		.eabi_attribute 25, 1
   7              		.eabi_attribute 26, 1
   8              		.eabi_attribute 30, 1
   9              		.eabi_attribute 34, 1
  10              		.eabi_attribute 18, 4
  11              		.file	"usart.c"
  12              		.text
  13              	.Ltext0:
  14              		.cfi_sections	.debug_frame
  15              		.section	.text.MX_USART2_UART_Init,"ax",%progbits
  16              		.align	1
  17              		.global	MX_USART2_UART_Init
  18              		.arch armv7-m
  19              		.syntax unified
  20              		.thumb
  21              		.thumb_func
  22              		.fpu softvfp
  24              	MX_USART2_UART_Init:
  25              	.LFB66:
  26              		.file 1 "Src/usart.c"
   1:Src/usart.c   **** /**
   2:Src/usart.c   ****   ******************************************************************************
   3:Src/usart.c   ****   * File Name          : USART.c
   4:Src/usart.c   ****   * Description        : This file provides code for the configuration
   5:Src/usart.c   ****   *                      of the USART instances.
   6:Src/usart.c   ****   ******************************************************************************
   7:Src/usart.c   ****   * @attention
   8:Src/usart.c   ****   *
   9:Src/usart.c   ****   * <h2><center>&copy; Copyright (c) 2019 STMicroelectronics.
  10:Src/usart.c   ****   * All rights reserved.</center></h2>
  11:Src/usart.c   ****   *
  12:Src/usart.c   ****   * This software component is licensed by ST under BSD 3-Clause license,
  13:Src/usart.c   ****   * the "License"; You may not use this file except in compliance with the
  14:Src/usart.c   ****   * License. You may obtain a copy of the License at:
  15:Src/usart.c   ****   *                        opensource.org/licenses/BSD-3-Clause
  16:Src/usart.c   ****   *
  17:Src/usart.c   ****   ******************************************************************************
  18:Src/usart.c   ****   */
  19:Src/usart.c   **** 
  20:Src/usart.c   **** /* Includes ------------------------------------------------------------------*/
  21:Src/usart.c   **** #include "usart.h"
  22:Src/usart.c   **** 
  23:Src/usart.c   **** /* USER CODE BEGIN 0 */
  24:Src/usart.c   **** 
  25:Src/usart.c   **** /* USER CODE END 0 */
  26:Src/usart.c   **** 
  27:Src/usart.c   **** UART_HandleTypeDef huart2;
  28:Src/usart.c   **** 
  29:Src/usart.c   **** /* USART2 init function */
  30:Src/usart.c   **** 
  31:Src/usart.c   **** void MX_USART2_UART_Init(void)
  32:Src/usart.c   **** {
ARM GAS  /var/folders/md/lgcc8l7571l9vt9sx0g0zflw0000gn/T//ccO9W1C5.s 			page 2


  27              		.loc 1 32 1 view -0
  28              		.cfi_startproc
  29              		@ args = 0, pretend = 0, frame = 0
  30              		@ frame_needed = 0, uses_anonymous_args = 0
  31 0000 08B5     		push	{r3, lr}
  32              	.LCFI0:
  33              		.cfi_def_cfa_offset 8
  34              		.cfi_offset 3, -8
  35              		.cfi_offset 14, -4
  33:Src/usart.c   **** 
  34:Src/usart.c   ****   huart2.Instance = USART2;
  36              		.loc 1 34 3 view .LVU1
  37              		.loc 1 34 19 is_stmt 0 view .LVU2
  38 0002 0A48     		ldr	r0, .L5
  39 0004 0A4B     		ldr	r3, .L5+4
  40 0006 0360     		str	r3, [r0]
  35:Src/usart.c   ****   huart2.Init.BaudRate = 115200;
  41              		.loc 1 35 3 is_stmt 1 view .LVU3
  42              		.loc 1 35 24 is_stmt 0 view .LVU4
  43 0008 4FF4E133 		mov	r3, #115200
  44 000c 4360     		str	r3, [r0, #4]
  36:Src/usart.c   ****   huart2.Init.WordLength = UART_WORDLENGTH_8B;
  45              		.loc 1 36 3 is_stmt 1 view .LVU5
  46              		.loc 1 36 26 is_stmt 0 view .LVU6
  47 000e 0023     		movs	r3, #0
  48 0010 8360     		str	r3, [r0, #8]
  37:Src/usart.c   ****   huart2.Init.StopBits = UART_STOPBITS_1;
  49              		.loc 1 37 3 is_stmt 1 view .LVU7
  50              		.loc 1 37 24 is_stmt 0 view .LVU8
  51 0012 C360     		str	r3, [r0, #12]
  38:Src/usart.c   ****   huart2.Init.Parity = UART_PARITY_NONE;
  52              		.loc 1 38 3 is_stmt 1 view .LVU9
  53              		.loc 1 38 22 is_stmt 0 view .LVU10
  54 0014 0361     		str	r3, [r0, #16]
  39:Src/usart.c   ****   huart2.Init.Mode = UART_MODE_TX_RX;
  55              		.loc 1 39 3 is_stmt 1 view .LVU11
  56              		.loc 1 39 20 is_stmt 0 view .LVU12
  57 0016 0C22     		movs	r2, #12
  58 0018 4261     		str	r2, [r0, #20]
  40:Src/usart.c   ****   huart2.Init.HwFlowCtl = UART_HWCONTROL_NONE;
  59              		.loc 1 40 3 is_stmt 1 view .LVU13
  60              		.loc 1 40 25 is_stmt 0 view .LVU14
  61 001a 8361     		str	r3, [r0, #24]
  41:Src/usart.c   ****   huart2.Init.OverSampling = UART_OVERSAMPLING_16;
  62              		.loc 1 41 3 is_stmt 1 view .LVU15
  63              		.loc 1 41 28 is_stmt 0 view .LVU16
  64 001c C361     		str	r3, [r0, #28]
  42:Src/usart.c   ****   if (HAL_UART_Init(&huart2) != HAL_OK)
  65              		.loc 1 42 3 is_stmt 1 view .LVU17
  66              		.loc 1 42 7 is_stmt 0 view .LVU18
  67 001e FFF7FEFF 		bl	HAL_UART_Init
  68              	.LVL0:
  69              		.loc 1 42 6 view .LVU19
  70 0022 00B9     		cbnz	r0, .L4
  71              	.L1:
  43:Src/usart.c   ****   {
  44:Src/usart.c   ****     Error_Handler();
ARM GAS  /var/folders/md/lgcc8l7571l9vt9sx0g0zflw0000gn/T//ccO9W1C5.s 			page 3


  45:Src/usart.c   ****   }
  46:Src/usart.c   **** 
  47:Src/usart.c   **** }
  72              		.loc 1 47 1 view .LVU20
  73 0024 08BD     		pop	{r3, pc}
  74              	.L4:
  44:Src/usart.c   ****   }
  75              		.loc 1 44 5 is_stmt 1 view .LVU21
  76 0026 FFF7FEFF 		bl	Error_Handler
  77              	.LVL1:
  78              		.loc 1 47 1 is_stmt 0 view .LVU22
  79 002a FBE7     		b	.L1
  80              	.L6:
  81              		.align	2
  82              	.L5:
  83 002c 00000000 		.word	huart2
  84 0030 00440040 		.word	1073759232
  85              		.cfi_endproc
  86              	.LFE66:
  88              		.section	.text.HAL_UART_MspInit,"ax",%progbits
  89              		.align	1
  90              		.global	HAL_UART_MspInit
  91              		.syntax unified
  92              		.thumb
  93              		.thumb_func
  94              		.fpu softvfp
  96              	HAL_UART_MspInit:
  97              	.LVL2:
  98              	.LFB67:
  48:Src/usart.c   **** 
  49:Src/usart.c   **** void HAL_UART_MspInit(UART_HandleTypeDef* uartHandle)
  50:Src/usart.c   **** {
  99              		.loc 1 50 1 is_stmt 1 view -0
 100              		.cfi_startproc
 101              		@ args = 0, pretend = 0, frame = 24
 102              		@ frame_needed = 0, uses_anonymous_args = 0
 103              		.loc 1 50 1 is_stmt 0 view .LVU24
 104 0000 00B5     		push	{lr}
 105              	.LCFI1:
 106              		.cfi_def_cfa_offset 4
 107              		.cfi_offset 14, -4
 108 0002 87B0     		sub	sp, sp, #28
 109              	.LCFI2:
 110              		.cfi_def_cfa_offset 32
  51:Src/usart.c   **** 
  52:Src/usart.c   ****   GPIO_InitTypeDef GPIO_InitStruct = {0};
 111              		.loc 1 52 3 is_stmt 1 view .LVU25
 112              		.loc 1 52 20 is_stmt 0 view .LVU26
 113 0004 0023     		movs	r3, #0
 114 0006 0293     		str	r3, [sp, #8]
 115 0008 0393     		str	r3, [sp, #12]
 116 000a 0493     		str	r3, [sp, #16]
 117 000c 0593     		str	r3, [sp, #20]
  53:Src/usart.c   ****   if(uartHandle->Instance==USART2)
 118              		.loc 1 53 3 is_stmt 1 view .LVU27
 119              		.loc 1 53 16 is_stmt 0 view .LVU28
 120 000e 0268     		ldr	r2, [r0]
ARM GAS  /var/folders/md/lgcc8l7571l9vt9sx0g0zflw0000gn/T//ccO9W1C5.s 			page 4


 121              		.loc 1 53 5 view .LVU29
 122 0010 114B     		ldr	r3, .L11
 123 0012 9A42     		cmp	r2, r3
 124 0014 02D0     		beq	.L10
 125              	.LVL3:
 126              	.L7:
  54:Src/usart.c   ****   {
  55:Src/usart.c   ****   /* USER CODE BEGIN USART2_MspInit 0 */
  56:Src/usart.c   **** 
  57:Src/usart.c   ****   /* USER CODE END USART2_MspInit 0 */
  58:Src/usart.c   ****     /* USART2 clock enable */
  59:Src/usart.c   ****     __HAL_RCC_USART2_CLK_ENABLE();
  60:Src/usart.c   ****   
  61:Src/usart.c   ****     __HAL_RCC_GPIOA_CLK_ENABLE();
  62:Src/usart.c   ****     /**USART2 GPIO Configuration    
  63:Src/usart.c   ****     PA2     ------> USART2_TX
  64:Src/usart.c   ****     PA3     ------> USART2_RX 
  65:Src/usart.c   ****     */
  66:Src/usart.c   ****     GPIO_InitStruct.Pin = USART_TX_Pin|USART_RX_Pin;
  67:Src/usart.c   ****     GPIO_InitStruct.Mode = GPIO_MODE_AF_PP;
  68:Src/usart.c   ****     GPIO_InitStruct.Speed = GPIO_SPEED_FREQ_LOW;
  69:Src/usart.c   ****     HAL_GPIO_Init(GPIOA, &GPIO_InitStruct);
  70:Src/usart.c   **** 
  71:Src/usart.c   ****   /* USER CODE BEGIN USART2_MspInit 1 */
  72:Src/usart.c   **** 
  73:Src/usart.c   ****   /* USER CODE END USART2_MspInit 1 */
  74:Src/usart.c   ****   }
  75:Src/usart.c   **** }
 127              		.loc 1 75 1 view .LVU30
 128 0016 07B0     		add	sp, sp, #28
 129              	.LCFI3:
 130              		.cfi_remember_state
 131              		.cfi_def_cfa_offset 4
 132              		@ sp needed
 133 0018 5DF804FB 		ldr	pc, [sp], #4
 134              	.LVL4:
 135              	.L10:
 136              	.LCFI4:
 137              		.cfi_restore_state
  59:Src/usart.c   ****   
 138              		.loc 1 59 5 is_stmt 1 view .LVU31
 139              	.LBB2:
  59:Src/usart.c   ****   
 140              		.loc 1 59 5 view .LVU32
  59:Src/usart.c   ****   
 141              		.loc 1 59 5 view .LVU33
 142 001c 03F5E633 		add	r3, r3, #117760
 143 0020 DA69     		ldr	r2, [r3, #28]
 144 0022 42F40032 		orr	r2, r2, #131072
 145 0026 DA61     		str	r2, [r3, #28]
  59:Src/usart.c   ****   
 146              		.loc 1 59 5 view .LVU34
 147 0028 DA69     		ldr	r2, [r3, #28]
 148 002a 02F40032 		and	r2, r2, #131072
 149 002e 0092     		str	r2, [sp]
  59:Src/usart.c   ****   
 150              		.loc 1 59 5 view .LVU35
ARM GAS  /var/folders/md/lgcc8l7571l9vt9sx0g0zflw0000gn/T//ccO9W1C5.s 			page 5


 151 0030 009A     		ldr	r2, [sp]
 152              	.LBE2:
  61:Src/usart.c   ****     /**USART2 GPIO Configuration    
 153              		.loc 1 61 5 view .LVU36
 154              	.LBB3:
  61:Src/usart.c   ****     /**USART2 GPIO Configuration    
 155              		.loc 1 61 5 view .LVU37
  61:Src/usart.c   ****     /**USART2 GPIO Configuration    
 156              		.loc 1 61 5 view .LVU38
 157 0032 9A69     		ldr	r2, [r3, #24]
 158 0034 42F00402 		orr	r2, r2, #4
 159 0038 9A61     		str	r2, [r3, #24]
  61:Src/usart.c   ****     /**USART2 GPIO Configuration    
 160              		.loc 1 61 5 view .LVU39
 161 003a 9B69     		ldr	r3, [r3, #24]
 162 003c 03F00403 		and	r3, r3, #4
 163 0040 0193     		str	r3, [sp, #4]
  61:Src/usart.c   ****     /**USART2 GPIO Configuration    
 164              		.loc 1 61 5 view .LVU40
 165 0042 019B     		ldr	r3, [sp, #4]
 166              	.LBE3:
  66:Src/usart.c   ****     GPIO_InitStruct.Mode = GPIO_MODE_AF_PP;
 167              		.loc 1 66 5 view .LVU41
  66:Src/usart.c   ****     GPIO_InitStruct.Mode = GPIO_MODE_AF_PP;
 168              		.loc 1 66 25 is_stmt 0 view .LVU42
 169 0044 0C23     		movs	r3, #12
 170 0046 0293     		str	r3, [sp, #8]
  67:Src/usart.c   ****     GPIO_InitStruct.Speed = GPIO_SPEED_FREQ_LOW;
 171              		.loc 1 67 5 is_stmt 1 view .LVU43
  67:Src/usart.c   ****     GPIO_InitStruct.Speed = GPIO_SPEED_FREQ_LOW;
 172              		.loc 1 67 26 is_stmt 0 view .LVU44
 173 0048 0223     		movs	r3, #2
 174 004a 0393     		str	r3, [sp, #12]
  68:Src/usart.c   ****     HAL_GPIO_Init(GPIOA, &GPIO_InitStruct);
 175              		.loc 1 68 5 is_stmt 1 view .LVU45
  68:Src/usart.c   ****     HAL_GPIO_Init(GPIOA, &GPIO_InitStruct);
 176              		.loc 1 68 27 is_stmt 0 view .LVU46
 177 004c 0593     		str	r3, [sp, #20]
  69:Src/usart.c   **** 
 178              		.loc 1 69 5 is_stmt 1 view .LVU47
 179 004e 02A9     		add	r1, sp, #8
 180 0050 0248     		ldr	r0, .L11+4
 181              	.LVL5:
  69:Src/usart.c   **** 
 182              		.loc 1 69 5 is_stmt 0 view .LVU48
 183 0052 FFF7FEFF 		bl	HAL_GPIO_Init
 184              	.LVL6:
 185              		.loc 1 75 1 view .LVU49
 186 0056 DEE7     		b	.L7
 187              	.L12:
 188              		.align	2
 189              	.L11:
 190 0058 00440040 		.word	1073759232
 191 005c 00080140 		.word	1073809408
 192              		.cfi_endproc
 193              	.LFE67:
 195              		.section	.text.HAL_UART_MspDeInit,"ax",%progbits
ARM GAS  /var/folders/md/lgcc8l7571l9vt9sx0g0zflw0000gn/T//ccO9W1C5.s 			page 6


 196              		.align	1
 197              		.global	HAL_UART_MspDeInit
 198              		.syntax unified
 199              		.thumb
 200              		.thumb_func
 201              		.fpu softvfp
 203              	HAL_UART_MspDeInit:
 204              	.LVL7:
 205              	.LFB68:
  76:Src/usart.c   **** 
  77:Src/usart.c   **** void HAL_UART_MspDeInit(UART_HandleTypeDef* uartHandle)
  78:Src/usart.c   **** {
 206              		.loc 1 78 1 is_stmt 1 view -0
 207              		.cfi_startproc
 208              		@ args = 0, pretend = 0, frame = 0
 209              		@ frame_needed = 0, uses_anonymous_args = 0
 210              		.loc 1 78 1 is_stmt 0 view .LVU51
 211 0000 08B5     		push	{r3, lr}
 212              	.LCFI5:
 213              		.cfi_def_cfa_offset 8
 214              		.cfi_offset 3, -8
 215              		.cfi_offset 14, -4
  79:Src/usart.c   **** 
  80:Src/usart.c   ****   if(uartHandle->Instance==USART2)
 216              		.loc 1 80 3 is_stmt 1 view .LVU52
 217              		.loc 1 80 16 is_stmt 0 view .LVU53
 218 0002 0268     		ldr	r2, [r0]
 219              		.loc 1 80 5 view .LVU54
 220 0004 064B     		ldr	r3, .L17
 221 0006 9A42     		cmp	r2, r3
 222 0008 00D0     		beq	.L16
 223              	.LVL8:
 224              	.L13:
  81:Src/usart.c   ****   {
  82:Src/usart.c   ****   /* USER CODE BEGIN USART2_MspDeInit 0 */
  83:Src/usart.c   **** 
  84:Src/usart.c   ****   /* USER CODE END USART2_MspDeInit 0 */
  85:Src/usart.c   ****     /* Peripheral clock disable */
  86:Src/usart.c   ****     __HAL_RCC_USART2_CLK_DISABLE();
  87:Src/usart.c   ****   
  88:Src/usart.c   ****     /**USART2 GPIO Configuration    
  89:Src/usart.c   ****     PA2     ------> USART2_TX
  90:Src/usart.c   ****     PA3     ------> USART2_RX 
  91:Src/usart.c   ****     */
  92:Src/usart.c   ****     HAL_GPIO_DeInit(GPIOA, USART_TX_Pin|USART_RX_Pin);
  93:Src/usart.c   **** 
  94:Src/usart.c   ****   /* USER CODE BEGIN USART2_MspDeInit 1 */
  95:Src/usart.c   **** 
  96:Src/usart.c   ****   /* USER CODE END USART2_MspDeInit 1 */
  97:Src/usart.c   ****   }
  98:Src/usart.c   **** } 
 225              		.loc 1 98 1 view .LVU55
 226 000a 08BD     		pop	{r3, pc}
 227              	.LVL9:
 228              	.L16:
  86:Src/usart.c   ****   
 229              		.loc 1 86 5 is_stmt 1 view .LVU56
ARM GAS  /var/folders/md/lgcc8l7571l9vt9sx0g0zflw0000gn/T//ccO9W1C5.s 			page 7


 230 000c 054A     		ldr	r2, .L17+4
 231 000e D369     		ldr	r3, [r2, #28]
 232 0010 23F40033 		bic	r3, r3, #131072
 233 0014 D361     		str	r3, [r2, #28]
  92:Src/usart.c   **** 
 234              		.loc 1 92 5 view .LVU57
 235 0016 0C21     		movs	r1, #12
 236 0018 0348     		ldr	r0, .L17+8
 237              	.LVL10:
  92:Src/usart.c   **** 
 238              		.loc 1 92 5 is_stmt 0 view .LVU58
 239 001a FFF7FEFF 		bl	HAL_GPIO_DeInit
 240              	.LVL11:
 241              		.loc 1 98 1 view .LVU59
 242 001e F4E7     		b	.L13
 243              	.L18:
 244              		.align	2
 245              	.L17:
 246 0020 00440040 		.word	1073759232
 247 0024 00100240 		.word	1073876992
 248 0028 00080140 		.word	1073809408
 249              		.cfi_endproc
 250              	.LFE68:
 252              		.comm	huart2,64,4
 253              		.text
 254              	.Letext0:
 255              		.file 2 "/usr/local/gcc-arm-none-eabi-8-2019-q3-update/arm-none-eabi/include/machine/_default_type
 256              		.file 3 "/usr/local/gcc-arm-none-eabi-8-2019-q3-update/arm-none-eabi/include/sys/_stdint.h"
 257              		.file 4 "Drivers/CMSIS/Include/core_cm3.h"
 258              		.file 5 "Drivers/CMSIS/Device/ST/STM32F1xx/Include/system_stm32f1xx.h"
 259              		.file 6 "Drivers/CMSIS/Device/ST/STM32F1xx/Include/stm32f103xb.h"
 260              		.file 7 "/usr/local/gcc-arm-none-eabi-8-2019-q3-update/lib/gcc/arm-none-eabi/8.3.1/include/stddef.
 261              		.file 8 "/usr/local/gcc-arm-none-eabi-8-2019-q3-update/arm-none-eabi/include/sys/_types.h"
 262              		.file 9 "/usr/local/gcc-arm-none-eabi-8-2019-q3-update/arm-none-eabi/include/sys/reent.h"
 263              		.file 10 "/usr/local/gcc-arm-none-eabi-8-2019-q3-update/arm-none-eabi/include/sys/lock.h"
 264              		.file 11 "Drivers/STM32F1xx_HAL_Driver/Inc/stm32f1xx_hal_def.h"
 265              		.file 12 "Drivers/STM32F1xx_HAL_Driver/Inc/stm32f1xx_hal_gpio.h"
 266              		.file 13 "Drivers/STM32F1xx_HAL_Driver/Inc/stm32f1xx_hal_dma.h"
 267              		.file 14 "Drivers/STM32F1xx_HAL_Driver/Inc/stm32f1xx_hal_uart.h"
 268              		.file 15 "Drivers/STM32F1xx_HAL_Driver/Inc/stm32f1xx_hal.h"
 269              		.file 16 "Inc/usart.h"
 270              		.file 17 "Inc/main.h"
ARM GAS  /var/folders/md/lgcc8l7571l9vt9sx0g0zflw0000gn/T//ccO9W1C5.s 			page 8

