ARM GAS  /var/folders/8c/gyvcglfx7f97kbqb2h83mm_r0000gn/T//ccgkDwir.s 			page 1


   1              		.cpu cortex-m4
   2              		.eabi_attribute 27, 1
   3              		.eabi_attribute 28, 1
   4              		.eabi_attribute 20, 1
   5              		.eabi_attribute 21, 1
   6              		.eabi_attribute 23, 3
   7              		.eabi_attribute 24, 1
   8              		.eabi_attribute 25, 1
   9              		.eabi_attribute 26, 1
  10              		.eabi_attribute 30, 2
  11              		.eabi_attribute 34, 1
  12              		.eabi_attribute 18, 4
  13              		.file	"main.c"
  14              		.text
  15              	.Ltext0:
  16              		.cfi_sections	.debug_frame
  17              		.section	.text.SystemClock_Config,"ax",%progbits
  18              		.align	1
  19              		.p2align 2,,3
  20              		.global	SystemClock_Config
  21              		.arch armv7e-m
  22              		.syntax unified
  23              		.thumb
  24              		.thumb_func
  25              		.fpu fpv4-sp-d16
  27              	SystemClock_Config:
  28              	.LFB127:
  29              		.file 1 "Src/main.c"
   1:Src/main.c    **** 
   2:Src/main.c    **** /**
   3:Src/main.c    ****   ******************************************************************************
   4:Src/main.c    ****   * @file           : main.c
   5:Src/main.c    ****   * @brief          : Main program body
   6:Src/main.c    ****   ******************************************************************************
   7:Src/main.c    ****   ** This notice applies to any and all portions of this file
   8:Src/main.c    ****   * that are not between comment pairs USER CODE BEGIN and
   9:Src/main.c    ****   * USER CODE END. Other portions of this file, whether 
  10:Src/main.c    ****   * inserted by the user or by software development tools
  11:Src/main.c    ****   * are owned by their respective copyright owners.
  12:Src/main.c    ****   *
  13:Src/main.c    ****   * COPYRIGHT(c) 2019 STMicroelectronics
  14:Src/main.c    ****   *
  15:Src/main.c    ****   * Redistribution and use in source and binary forms, with or without modification,
  16:Src/main.c    ****   * are permitted provided that the following conditions are met:
  17:Src/main.c    ****   *   1. Redistributions of source code must retain the above copyright notice,
  18:Src/main.c    ****   *      this list of conditions and the following disclaimer.
  19:Src/main.c    ****   *   2. Redistributions in binary form must reproduce the above copyright notice,
  20:Src/main.c    ****   *      this list of conditions and the following disclaimer in the documentation
  21:Src/main.c    ****   *      and/or other materials provided with the distribution.
  22:Src/main.c    ****   *   3. Neither the name of STMicroelectronics nor the names of its contributors
  23:Src/main.c    ****   *      may be used to endorse or promote products derived from this software
  24:Src/main.c    ****   *      without specific prior written permission.
  25:Src/main.c    ****   *
  26:Src/main.c    ****   * THIS SOFTWARE IS PROVIDED BY THE COPYRIGHT HOLDERS AND CONTRIBUTORS "AS IS"
  27:Src/main.c    ****   * AND ANY EXPRESS OR IMPLIED WARRANTIES, INCLUDING, BUT NOT LIMITED TO, THE
  28:Src/main.c    ****   * IMPLIED WARRANTIES OF MERCHANTABILITY AND FITNESS FOR A PARTICULAR PURPOSE ARE
  29:Src/main.c    ****   * DISCLAIMED. IN NO EVENT SHALL THE COPYRIGHT HOLDER OR CONTRIBUTORS BE LIABLE
ARM GAS  /var/folders/8c/gyvcglfx7f97kbqb2h83mm_r0000gn/T//ccgkDwir.s 			page 2


  30:Src/main.c    ****   * FOR ANY DIRECT, INDIRECT, INCIDENTAL, SPECIAL, EXEMPLARY, OR CONSEQUENTIAL
  31:Src/main.c    ****   * DAMAGES (INCLUDING, BUT NOT LIMITED TO, PROCUREMENT OF SUBSTITUTE GOODS OR
  32:Src/main.c    ****   * SERVICES; LOSS OF USE, DATA, OR PROFITS; OR BUSINESS INTERRUPTION) HOWEVER
  33:Src/main.c    ****   * CAUSED AND ON ANY THEORY OF LIABILITY, WHETHER IN CONTRACT, STRICT LIABILITY,
  34:Src/main.c    ****   * OR TORT (INCLUDING NEGLIGENCE OR OTHERWISE) ARISING IN ANY WAY OUT OF THE USE
  35:Src/main.c    ****   * OF THIS SOFTWARE, EVEN IF ADVISED OF THE POSSIBILITY OF SUCH DAMAGE.
  36:Src/main.c    ****   *
  37:Src/main.c    ****   ******************************************************************************
  38:Src/main.c    ****   */
  39:Src/main.c    **** /* Includes ------------------------------------------------------------------*/
  40:Src/main.c    **** #include "main.h"
  41:Src/main.c    **** #include "stm32f3xx_hal.h"
  42:Src/main.c    **** #include "adc.h"
  43:Src/main.c    **** #include "usart.h"
  44:Src/main.c    **** #include "gpio.h"
  45:Src/main.c    **** 
  46:Src/main.c    **** /* USER CODE BEGIN Includes */
  47:Src/main.c    **** 
  48:Src/main.c    **** /* USER CODE END Includes */
  49:Src/main.c    **** 
  50:Src/main.c    **** /* Private variables ---------------------------------------------------------*/
  51:Src/main.c    **** 
  52:Src/main.c    **** /* USER CODE BEGIN PV */
  53:Src/main.c    **** /* Private variables ---------------------------------------------------------*/
  54:Src/main.c    **** 
  55:Src/main.c    **** /* USER CODE END PV */
  56:Src/main.c    **** 
  57:Src/main.c    **** /* Private function prototypes -----------------------------------------------*/
  58:Src/main.c    **** void SystemClock_Config(void);
  59:Src/main.c    **** 
  60:Src/main.c    **** /* USER CODE BEGIN PFP */
  61:Src/main.c    **** /* Private function prototypes -----------------------------------------------*/
  62:Src/main.c    **** 
  63:Src/main.c    **** /* USER CODE END PFP */
  64:Src/main.c    **** 
  65:Src/main.c    **** /* USER CODE BEGIN 0 */
  66:Src/main.c    **** 
  67:Src/main.c    **** /* USER CODE END 0 */
  68:Src/main.c    **** 
  69:Src/main.c    **** /**
  70:Src/main.c    ****   * @brief  The application entry point.
  71:Src/main.c    ****   *
  72:Src/main.c    ****   * @retval None
  73:Src/main.c    ****   */
  74:Src/main.c    **** int main(void)
  75:Src/main.c    **** {
  76:Src/main.c    ****   /* USER CODE BEGIN 1 */
  77:Src/main.c    **** 
  78:Src/main.c    ****   /* USER CODE END 1 */
  79:Src/main.c    **** 
  80:Src/main.c    ****   /* MCU Configuration----------------------------------------------------------*/
  81:Src/main.c    **** 
  82:Src/main.c    ****   /* Reset of all peripherals, Initializes the Flash interface and the Systick. */
  83:Src/main.c    ****   HAL_Init();
  84:Src/main.c    **** 
  85:Src/main.c    ****   /* USER CODE BEGIN Init */
  86:Src/main.c    **** 
ARM GAS  /var/folders/8c/gyvcglfx7f97kbqb2h83mm_r0000gn/T//ccgkDwir.s 			page 3


  87:Src/main.c    ****   /* USER CODE END Init */
  88:Src/main.c    **** 
  89:Src/main.c    ****   /* Configure the system clock */
  90:Src/main.c    ****   SystemClock_Config();
  91:Src/main.c    **** 
  92:Src/main.c    ****   /* USER CODE BEGIN SysInit */
  93:Src/main.c    **** 
  94:Src/main.c    ****   /* USER CODE END SysInit */
  95:Src/main.c    **** 
  96:Src/main.c    ****   /* Initialize all configured peripherals */
  97:Src/main.c    ****   MX_GPIO_Init();
  98:Src/main.c    ****   MX_USART2_UART_Init();
  99:Src/main.c    ****   MX_ADC1_Init();
 100:Src/main.c    ****   /* USER CODE BEGIN 2 */
 101:Src/main.c    **** 
 102:Src/main.c    ****   /* USER CODE END 2 */
 103:Src/main.c    **** 
 104:Src/main.c    ****   /* Infinite loop */
 105:Src/main.c    ****   /* USER CODE BEGIN WHILE */
 106:Src/main.c    ****   while (1)
 107:Src/main.c    ****   {
 108:Src/main.c    ****     HAL_ADC_Start_IT(&hadc1);
 109:Src/main.c    ****     HAL_GPIO_TogglePin(GPIOA, GPIO_PIN_5);
 110:Src/main.c    ****     HAL_Delay(200);
 111:Src/main.c    ****   /* USER CODE END WHILE */
 112:Src/main.c    **** 
 113:Src/main.c    ****   /* USER CODE BEGIN 3 */
 114:Src/main.c    **** 
 115:Src/main.c    ****   }
 116:Src/main.c    ****   /* USER CODE END 3 */
 117:Src/main.c    **** 
 118:Src/main.c    **** }
 119:Src/main.c    **** 
 120:Src/main.c    **** /**
 121:Src/main.c    ****   * @brief System Clock Configuration
 122:Src/main.c    ****   * @retval None
 123:Src/main.c    ****   */
 124:Src/main.c    **** void SystemClock_Config(void)
 125:Src/main.c    **** {
  30              		.loc 1 125 1 view -0
  31              		.cfi_startproc
  32              		@ args = 0, pretend = 0, frame = 152
  33              		@ frame_needed = 0, uses_anonymous_args = 0
 126:Src/main.c    **** 
 127:Src/main.c    ****   RCC_OscInitTypeDef RCC_OscInitStruct;
  34              		.loc 1 127 3 view .LVU1
 128:Src/main.c    ****   RCC_ClkInitTypeDef RCC_ClkInitStruct;
  35              		.loc 1 128 3 view .LVU2
 129:Src/main.c    ****   RCC_PeriphCLKInitTypeDef PeriphClkInit;
  36              		.loc 1 129 3 view .LVU3
 130:Src/main.c    **** 
 131:Src/main.c    ****     /**Initializes the CPU, AHB and APB busses clocks 
 132:Src/main.c    ****     */
 133:Src/main.c    ****   RCC_OscInitStruct.OscillatorType = RCC_OSCILLATORTYPE_HSI;
  37              		.loc 1 133 3 view .LVU4
 125:Src/main.c    **** 
  38              		.loc 1 125 1 is_stmt 0 view .LVU5
ARM GAS  /var/folders/8c/gyvcglfx7f97kbqb2h83mm_r0000gn/T//ccgkDwir.s 			page 4


  39 0000 30B5     		push	{r4, r5, lr}
  40              	.LCFI0:
  41              		.cfi_def_cfa_offset 12
  42              		.cfi_offset 4, -12
  43              		.cfi_offset 5, -8
  44              		.cfi_offset 14, -4
  45 0002 A7B0     		sub	sp, sp, #156
  46              	.LCFI1:
  47              		.cfi_def_cfa_offset 168
  48              		.loc 1 133 36 view .LVU6
  49 0004 0225     		movs	r5, #2
 134:Src/main.c    ****   RCC_OscInitStruct.HSIState = RCC_HSI_ON;
  50              		.loc 1 134 30 view .LVU7
  51 0006 0124     		movs	r4, #1
 135:Src/main.c    ****   RCC_OscInitStruct.HSICalibrationValue = 16;
  52              		.loc 1 135 41 view .LVU8
  53 0008 1021     		movs	r1, #16
 136:Src/main.c    ****   RCC_OscInitStruct.PLL.PLLState = RCC_PLL_ON;
  54              		.loc 1 136 34 view .LVU9
  55 000a 0222     		movs	r2, #2
  56 000c 4FF40043 		mov	r3, #32768
 133:Src/main.c    ****   RCC_OscInitStruct.HSIState = RCC_HSI_ON;
  57              		.loc 1 133 36 view .LVU10
  58 0010 0695     		str	r5, [sp, #24]
 134:Src/main.c    ****   RCC_OscInitStruct.HSICalibrationValue = 16;
  59              		.loc 1 134 3 is_stmt 1 view .LVU11
 134:Src/main.c    ****   RCC_OscInitStruct.HSICalibrationValue = 16;
  60              		.loc 1 134 30 is_stmt 0 view .LVU12
  61 0012 0994     		str	r4, [sp, #36]
 135:Src/main.c    ****   RCC_OscInitStruct.PLL.PLLState = RCC_PLL_ON;
  62              		.loc 1 135 3 is_stmt 1 view .LVU13
  63              		.loc 1 136 34 is_stmt 0 view .LVU14
  64 0014 0025     		movs	r5, #0
  65 0016 0024     		movs	r4, #0
 137:Src/main.c    ****   RCC_OscInitStruct.PLL.PLLSource = RCC_PLLSOURCE_HSI;
 138:Src/main.c    ****   RCC_OscInitStruct.PLL.PLLMUL = RCC_PLL_MUL2;
 139:Src/main.c    ****   RCC_OscInitStruct.PLL.PREDIV = RCC_PREDIV_DIV1;
 140:Src/main.c    ****   if (HAL_RCC_OscConfig(&RCC_OscInitStruct) != HAL_OK)
  66              		.loc 1 140 7 view .LVU15
  67 0018 06A8     		add	r0, sp, #24
 135:Src/main.c    ****   RCC_OscInitStruct.PLL.PLLState = RCC_PLL_ON;
  68              		.loc 1 135 41 view .LVU16
  69 001a 0A91     		str	r1, [sp, #40]
 136:Src/main.c    ****   RCC_OscInitStruct.PLL.PLLSource = RCC_PLLSOURCE_HSI;
  70              		.loc 1 136 3 is_stmt 1 view .LVU17
 137:Src/main.c    ****   RCC_OscInitStruct.PLL.PLLSource = RCC_PLLSOURCE_HSI;
  71              		.loc 1 137 3 view .LVU18
 138:Src/main.c    ****   RCC_OscInitStruct.PLL.PREDIV = RCC_PREDIV_DIV1;
  72              		.loc 1 138 3 view .LVU19
 139:Src/main.c    ****   if (HAL_RCC_OscConfig(&RCC_OscInitStruct) != HAL_OK)
  73              		.loc 1 139 3 view .LVU20
 136:Src/main.c    ****   RCC_OscInitStruct.PLL.PLLSource = RCC_PLLSOURCE_HSI;
  74              		.loc 1 136 34 is_stmt 0 view .LVU21
  75 001c CDE90C23 		strd	r2, [sp, #48]
  76 0020 CDE90E45 		strd	r4, [sp, #56]
  77              		.loc 1 140 3 is_stmt 1 view .LVU22
  78              		.loc 1 140 7 is_stmt 0 view .LVU23
ARM GAS  /var/folders/8c/gyvcglfx7f97kbqb2h83mm_r0000gn/T//ccgkDwir.s 			page 5


  79 0024 FFF7FEFF 		bl	HAL_RCC_OscConfig
  80              	.LVL0:
  81              		.loc 1 140 6 view .LVU24
  82 0028 00B1     		cbz	r0, .L2
  83              	.L3:
 141:Src/main.c    ****   {
 142:Src/main.c    ****     _Error_Handler(__FILE__, __LINE__);
 143:Src/main.c    ****   }
 144:Src/main.c    **** 
 145:Src/main.c    ****     /**Initializes the CPU, AHB and APB busses clocks 
 146:Src/main.c    ****     */
 147:Src/main.c    ****   RCC_ClkInitStruct.ClockType = RCC_CLOCKTYPE_HCLK|RCC_CLOCKTYPE_SYSCLK
 148:Src/main.c    ****                               |RCC_CLOCKTYPE_PCLK1|RCC_CLOCKTYPE_PCLK2;
 149:Src/main.c    ****   RCC_ClkInitStruct.SYSCLKSource = RCC_SYSCLKSOURCE_HSI;
 150:Src/main.c    ****   RCC_ClkInitStruct.AHBCLKDivider = RCC_SYSCLK_DIV1;
 151:Src/main.c    ****   RCC_ClkInitStruct.APB1CLKDivider = RCC_HCLK_DIV1;
 152:Src/main.c    ****   RCC_ClkInitStruct.APB2CLKDivider = RCC_HCLK_DIV1;
 153:Src/main.c    **** 
 154:Src/main.c    ****   if (HAL_RCC_ClockConfig(&RCC_ClkInitStruct, FLASH_LATENCY_0) != HAL_OK)
 155:Src/main.c    ****   {
 156:Src/main.c    ****     _Error_Handler(__FILE__, __LINE__);
 157:Src/main.c    ****   }
 158:Src/main.c    **** 
 159:Src/main.c    ****   PeriphClkInit.PeriphClockSelection = RCC_PERIPHCLK_USART2|RCC_PERIPHCLK_ADC12;
 160:Src/main.c    ****   PeriphClkInit.Usart2ClockSelection = RCC_USART2CLKSOURCE_PCLK1;
 161:Src/main.c    ****   PeriphClkInit.Adc12ClockSelection = RCC_ADC12PLLCLK_DIV1;
 162:Src/main.c    ****   if (HAL_RCCEx_PeriphCLKConfig(&PeriphClkInit) != HAL_OK)
 163:Src/main.c    ****   {
 164:Src/main.c    ****     _Error_Handler(__FILE__, __LINE__);
 165:Src/main.c    ****   }
 166:Src/main.c    **** 
 167:Src/main.c    ****     /**Configure the Systick interrupt time 
 168:Src/main.c    ****     */
 169:Src/main.c    ****   HAL_SYSTICK_Config(HAL_RCC_GetHCLKFreq()/1000);
 170:Src/main.c    **** 
 171:Src/main.c    ****     /**Configure the Systick 
 172:Src/main.c    ****     */
 173:Src/main.c    ****   HAL_SYSTICK_CLKSourceConfig(SYSTICK_CLKSOURCE_HCLK);
 174:Src/main.c    **** 
 175:Src/main.c    ****   /* SysTick_IRQn interrupt configuration */
 176:Src/main.c    ****   HAL_NVIC_SetPriority(SysTick_IRQn, 0, 0);
 177:Src/main.c    **** }
 178:Src/main.c    **** 
 179:Src/main.c    **** /* USER CODE BEGIN 4 */
 180:Src/main.c    **** 
 181:Src/main.c    **** /* USER CODE END 4 */
 182:Src/main.c    **** 
 183:Src/main.c    **** /**
 184:Src/main.c    ****   * @brief  This function is executed in case of error occurrence.
 185:Src/main.c    ****   * @param  file: The file name as string.
 186:Src/main.c    ****   * @param  line: The line in file as a number.
 187:Src/main.c    ****   * @retval None
 188:Src/main.c    ****   */
 189:Src/main.c    **** void _Error_Handler(char *file, int line)
 190:Src/main.c    **** {
 191:Src/main.c    ****   /* USER CODE BEGIN Error_Handler_Debug */
 192:Src/main.c    ****   /* User can add his own implementation to report the HAL error return state */
ARM GAS  /var/folders/8c/gyvcglfx7f97kbqb2h83mm_r0000gn/T//ccgkDwir.s 			page 6


 193:Src/main.c    ****   while(1)
  84              		.loc 1 193 3 is_stmt 1 view .LVU25
 194:Src/main.c    ****   {
 195:Src/main.c    ****   }
  85              		.loc 1 195 3 view .LVU26
 193:Src/main.c    ****   {
  86              		.loc 1 193 3 view .LVU27
  87              		.loc 1 195 3 view .LVU28
  88 002a FEE7     		b	.L3
  89              	.L2:
 147:Src/main.c    ****                               |RCC_CLOCKTYPE_PCLK1|RCC_CLOCKTYPE_PCLK2;
  90              		.loc 1 147 3 view .LVU29
 149:Src/main.c    ****   RCC_ClkInitStruct.AHBCLKDivider = RCC_SYSCLK_DIV1;
  91              		.loc 1 149 3 view .LVU30
 150:Src/main.c    ****   RCC_ClkInitStruct.APB1CLKDivider = RCC_HCLK_DIV1;
  92              		.loc 1 150 3 view .LVU31
 151:Src/main.c    ****   RCC_ClkInitStruct.APB2CLKDivider = RCC_HCLK_DIV1;
  93              		.loc 1 151 3 view .LVU32
  94 002c 0346     		mov	r3, r0
 147:Src/main.c    ****                               |RCC_CLOCKTYPE_PCLK1|RCC_CLOCKTYPE_PCLK2;
  95              		.loc 1 147 31 is_stmt 0 view .LVU33
  96 002e CDE90245 		strd	r4, [sp, #8]
 152:Src/main.c    **** 
  97              		.loc 1 152 3 is_stmt 1 view .LVU34
 154:Src/main.c    ****   {
  98              		.loc 1 154 7 is_stmt 0 view .LVU35
  99 0032 0146     		mov	r1, r0
 147:Src/main.c    ****                               |RCC_CLOCKTYPE_PCLK1|RCC_CLOCKTYPE_PCLK2;
 100              		.loc 1 147 31 view .LVU36
 101 0034 0F24     		movs	r4, #15
 154:Src/main.c    ****   {
 102              		.loc 1 154 7 view .LVU37
 103 0036 6846     		mov	r0, sp
 147:Src/main.c    ****                               |RCC_CLOCKTYPE_PCLK1|RCC_CLOCKTYPE_PCLK2;
 104              		.loc 1 147 31 view .LVU38
 105 0038 0025     		movs	r5, #0
 152:Src/main.c    **** 
 106              		.loc 1 152 36 view .LVU39
 107 003a 0493     		str	r3, [sp, #16]
 154:Src/main.c    ****   {
 108              		.loc 1 154 3 is_stmt 1 view .LVU40
 147:Src/main.c    ****                               |RCC_CLOCKTYPE_PCLK1|RCC_CLOCKTYPE_PCLK2;
 109              		.loc 1 147 31 is_stmt 0 view .LVU41
 110 003c CDE90045 		strd	r4, [sp]
 154:Src/main.c    ****   {
 111              		.loc 1 154 7 view .LVU42
 112 0040 FFF7FEFF 		bl	HAL_RCC_ClockConfig
 113              	.LVL1:
 154:Src/main.c    ****   {
 114              		.loc 1 154 6 view .LVU43
 115 0044 0346     		mov	r3, r0
 116 0046 00B1     		cbz	r0, .L4
 117              	.L5:
 193:Src/main.c    ****   {
 118              		.loc 1 193 3 is_stmt 1 view .LVU44
 119              		.loc 1 195 3 view .LVU45
 193:Src/main.c    ****   {
ARM GAS  /var/folders/8c/gyvcglfx7f97kbqb2h83mm_r0000gn/T//ccgkDwir.s 			page 7


 120              		.loc 1 193 3 view .LVU46
 121              		.loc 1 195 3 view .LVU47
 122 0048 FEE7     		b	.L5
 123              	.L4:
 159:Src/main.c    ****   PeriphClkInit.Usart2ClockSelection = RCC_USART2CLKSOURCE_PCLK1;
 124              		.loc 1 159 3 view .LVU48
 159:Src/main.c    ****   PeriphClkInit.Usart2ClockSelection = RCC_USART2CLKSOURCE_PCLK1;
 125              		.loc 1 159 38 is_stmt 0 view .LVU49
 126 004a 8221     		movs	r1, #130
 161:Src/main.c    ****   if (HAL_RCCEx_PeriphCLKConfig(&PeriphClkInit) != HAL_OK)
 127              		.loc 1 161 37 view .LVU50
 128 004c 4FF48072 		mov	r2, #256
 162:Src/main.c    ****   {
 129              		.loc 1 162 7 view .LVU51
 130 0050 10A8     		add	r0, sp, #64
 160:Src/main.c    ****   PeriphClkInit.Adc12ClockSelection = RCC_ADC12PLLCLK_DIV1;
 131              		.loc 1 160 38 view .LVU52
 132 0052 1393     		str	r3, [sp, #76]
 159:Src/main.c    ****   PeriphClkInit.Usart2ClockSelection = RCC_USART2CLKSOURCE_PCLK1;
 133              		.loc 1 159 38 view .LVU53
 134 0054 1091     		str	r1, [sp, #64]
 160:Src/main.c    ****   PeriphClkInit.Adc12ClockSelection = RCC_ADC12PLLCLK_DIV1;
 135              		.loc 1 160 3 is_stmt 1 view .LVU54
 161:Src/main.c    ****   if (HAL_RCCEx_PeriphCLKConfig(&PeriphClkInit) != HAL_OK)
 136              		.loc 1 161 3 view .LVU55
 161:Src/main.c    ****   if (HAL_RCCEx_PeriphCLKConfig(&PeriphClkInit) != HAL_OK)
 137              		.loc 1 161 37 is_stmt 0 view .LVU56
 138 0056 1A92     		str	r2, [sp, #104]
 162:Src/main.c    ****   {
 139              		.loc 1 162 3 is_stmt 1 view .LVU57
 162:Src/main.c    ****   {
 140              		.loc 1 162 7 is_stmt 0 view .LVU58
 141 0058 FFF7FEFF 		bl	HAL_RCCEx_PeriphCLKConfig
 142              	.LVL2:
 162:Src/main.c    ****   {
 143              		.loc 1 162 6 view .LVU59
 144 005c 0446     		mov	r4, r0
 145 005e 00B1     		cbz	r0, .L6
 146              	.L7:
 193:Src/main.c    ****   {
 147              		.loc 1 193 3 is_stmt 1 view .LVU60
 148              		.loc 1 195 3 view .LVU61
 193:Src/main.c    ****   {
 149              		.loc 1 193 3 view .LVU62
 150              		.loc 1 195 3 view .LVU63
 151 0060 FEE7     		b	.L7
 152              	.L6:
 153              	.LBB10:
 154              	.LBI10:
 124:Src/main.c    **** {
 155              		.loc 1 124 6 view .LVU64
 156              	.LBB11:
 169:Src/main.c    **** 
 157              		.loc 1 169 3 view .LVU65
 169:Src/main.c    **** 
 158              		.loc 1 169 22 is_stmt 0 view .LVU66
 159 0062 FFF7FEFF 		bl	HAL_RCC_GetHCLKFreq
ARM GAS  /var/folders/8c/gyvcglfx7f97kbqb2h83mm_r0000gn/T//ccgkDwir.s 			page 8


 160              	.LVL3:
 169:Src/main.c    **** 
 161              		.loc 1 169 3 view .LVU67
 162 0066 084B     		ldr	r3, .L10
 163 0068 A3FB0030 		umull	r3, r0, r3, r0
 164 006c 8009     		lsrs	r0, r0, #6
 165 006e FFF7FEFF 		bl	HAL_SYSTICK_Config
 166              	.LVL4:
 173:Src/main.c    **** 
 167              		.loc 1 173 3 is_stmt 1 view .LVU68
 168 0072 0420     		movs	r0, #4
 169 0074 FFF7FEFF 		bl	HAL_SYSTICK_CLKSourceConfig
 170              	.LVL5:
 176:Src/main.c    **** }
 171              		.loc 1 176 3 view .LVU69
 172 0078 2246     		mov	r2, r4
 173 007a 2146     		mov	r1, r4
 174 007c 4FF0FF30 		mov	r0, #-1
 175 0080 FFF7FEFF 		bl	HAL_NVIC_SetPriority
 176              	.LVL6:
 177              	.LBE11:
 178              	.LBE10:
 177:Src/main.c    **** 
 179              		.loc 1 177 1 is_stmt 0 view .LVU70
 180 0084 27B0     		add	sp, sp, #156
 181              	.LCFI2:
 182              		.cfi_def_cfa_offset 12
 183              		@ sp needed
 184 0086 30BD     		pop	{r4, r5, pc}
 185              	.L11:
 186              		.align	2
 187              	.L10:
 188 0088 D34D6210 		.word	274877907
 189              		.cfi_endproc
 190              	.LFE127:
 192              		.section	.text.startup.main,"ax",%progbits
 193              		.align	1
 194              		.p2align 2,,3
 195              		.global	main
 196              		.syntax unified
 197              		.thumb
 198              		.thumb_func
 199              		.fpu fpv4-sp-d16
 201              	main:
 202              	.LFB126:
  75:Src/main.c    ****   /* USER CODE BEGIN 1 */
 203              		.loc 1 75 1 is_stmt 1 view -0
 204              		.cfi_startproc
 205              		@ Volatile: function does not return.
 206              		@ args = 0, pretend = 0, frame = 0
 207              		@ frame_needed = 0, uses_anonymous_args = 0
  83:Src/main.c    **** 
 208              		.loc 1 83 3 view .LVU72
  75:Src/main.c    ****   /* USER CODE BEGIN 1 */
 209              		.loc 1 75 1 is_stmt 0 view .LVU73
 210 0000 08B5     		push	{r3, lr}
 211              	.LCFI3:
ARM GAS  /var/folders/8c/gyvcglfx7f97kbqb2h83mm_r0000gn/T//ccgkDwir.s 			page 9


 212              		.cfi_def_cfa_offset 8
 213              		.cfi_offset 3, -8
 214              		.cfi_offset 14, -4
  83:Src/main.c    **** 
 215              		.loc 1 83 3 view .LVU74
 216 0002 FFF7FEFF 		bl	HAL_Init
 217              	.LVL7:
  90:Src/main.c    **** 
 218              		.loc 1 90 3 is_stmt 1 view .LVU75
 219 0006 FFF7FEFF 		bl	SystemClock_Config
 220              	.LVL8:
  97:Src/main.c    ****   MX_USART2_UART_Init();
 221              		.loc 1 97 3 view .LVU76
 222 000a FFF7FEFF 		bl	MX_GPIO_Init
 223              	.LVL9:
  98:Src/main.c    ****   MX_ADC1_Init();
 224              		.loc 1 98 3 view .LVU77
 225 000e FFF7FEFF 		bl	MX_USART2_UART_Init
 226              	.LVL10:
  99:Src/main.c    ****   /* USER CODE BEGIN 2 */
 227              		.loc 1 99 3 view .LVU78
 228 0012 FFF7FEFF 		bl	MX_ADC1_Init
 229              	.LVL11:
 108:Src/main.c    ****     HAL_GPIO_TogglePin(GPIOA, GPIO_PIN_5);
 230              		.loc 1 108 5 is_stmt 0 view .LVU79
 231 0016 064C     		ldr	r4, .L15
 232              	.L13:
 106:Src/main.c    ****   {
 233              		.loc 1 106 3 is_stmt 1 discriminator 1 view .LVU80
 108:Src/main.c    ****     HAL_GPIO_TogglePin(GPIOA, GPIO_PIN_5);
 234              		.loc 1 108 5 discriminator 1 view .LVU81
 235 0018 2046     		mov	r0, r4
 236 001a FFF7FEFF 		bl	HAL_ADC_Start_IT
 237              	.LVL12:
 109:Src/main.c    ****     HAL_Delay(200);
 238              		.loc 1 109 5 discriminator 1 view .LVU82
 239 001e 2021     		movs	r1, #32
 240 0020 4FF09040 		mov	r0, #1207959552
 241 0024 FFF7FEFF 		bl	HAL_GPIO_TogglePin
 242              	.LVL13:
 110:Src/main.c    ****   /* USER CODE END WHILE */
 243              		.loc 1 110 5 discriminator 1 view .LVU83
 244 0028 C820     		movs	r0, #200
 245 002a FFF7FEFF 		bl	HAL_Delay
 246              	.LVL14:
 247 002e F3E7     		b	.L13
 248              	.L16:
 249              		.align	2
 250              	.L15:
 251 0030 00000000 		.word	hadc1
 252              		.cfi_endproc
 253              	.LFE126:
 255              		.section	.text._Error_Handler,"ax",%progbits
 256              		.align	1
 257              		.p2align 2,,3
 258              		.global	_Error_Handler
 259              		.syntax unified
ARM GAS  /var/folders/8c/gyvcglfx7f97kbqb2h83mm_r0000gn/T//ccgkDwir.s 			page 10


 260              		.thumb
 261              		.thumb_func
 262              		.fpu fpv4-sp-d16
 264              	_Error_Handler:
 265              	.LFB128:
 190:Src/main.c    ****   /* USER CODE BEGIN Error_Handler_Debug */
 266              		.loc 1 190 1 view -0
 267              		.cfi_startproc
 268              		@ Volatile: function does not return.
 269              		@ args = 0, pretend = 0, frame = 0
 270              		@ frame_needed = 0, uses_anonymous_args = 0
 271              		@ link register save eliminated.
 272              	.LVL15:
 273              	.L18:
 193:Src/main.c    ****   {
 274              		.loc 1 193 3 discriminator 1 view .LVU85
 275              		.loc 1 195 3 discriminator 1 view .LVU86
 276 0000 FEE7     		b	.L18
 277              		.cfi_endproc
 278              	.LFE128:
 280 0002 00BF     		.text
 281              	.Letext0:
 282              		.file 2 "/usr/local/gcc-arm-none-eabi-8-2018-q4-major/arm-none-eabi/include/machine/_default_types
 283              		.file 3 "/usr/local/gcc-arm-none-eabi-8-2018-q4-major/arm-none-eabi/include/sys/_stdint.h"
 284              		.file 4 "Drivers/CMSIS/Include/core_cm4.h"
 285              		.file 5 "Drivers/CMSIS/Device/ST/STM32F3xx/Include/system_stm32f3xx.h"
 286              		.file 6 "Drivers/CMSIS/Device/ST/STM32F3xx/Include/stm32f303xe.h"
 287              		.file 7 "/usr/local/gcc-arm-none-eabi-8-2018-q4-major/arm-none-eabi/include/sys/lock.h"
 288              		.file 8 "/usr/local/gcc-arm-none-eabi-8-2018-q4-major/arm-none-eabi/include/sys/_types.h"
 289              		.file 9 "/usr/local/gcc-arm-none-eabi-8-2018-q4-major/lib/gcc/arm-none-eabi/8.2.1/include/stddef.h
 290              		.file 10 "/usr/local/gcc-arm-none-eabi-8-2018-q4-major/arm-none-eabi/include/sys/reent.h"
 291              		.file 11 "Drivers/STM32F3xx_HAL_Driver/Inc/stm32f3xx_hal_def.h"
 292              		.file 12 "Drivers/STM32F3xx_HAL_Driver/Inc/stm32f3xx_hal_rcc.h"
 293              		.file 13 "Drivers/STM32F3xx_HAL_Driver/Inc/stm32f3xx_hal_rcc_ex.h"
 294              		.file 14 "Drivers/STM32F3xx_HAL_Driver/Inc/stm32f3xx_hal_dma.h"
 295              		.file 15 "Drivers/STM32F3xx_HAL_Driver/Inc/stm32f3xx_hal_adc_ex.h"
 296              		.file 16 "Drivers/STM32F3xx_HAL_Driver/Inc/stm32f3xx_hal_adc.h"
 297              		.file 17 "Drivers/STM32F3xx_HAL_Driver/Inc/stm32f3xx_hal_uart.h"
 298              		.file 18 "Inc/adc.h"
 299              		.file 19 "Inc/usart.h"
 300              		.file 20 "Drivers/STM32F3xx_HAL_Driver/Inc/stm32f3xx_hal.h"
 301              		.file 21 "Inc/gpio.h"
 302              		.file 22 "Drivers/STM32F3xx_HAL_Driver/Inc/stm32f3xx_hal_gpio.h"
 303              		.file 23 "Drivers/STM32F3xx_HAL_Driver/Inc/stm32f3xx_hal_cortex.h"
ARM GAS  /var/folders/8c/gyvcglfx7f97kbqb2h83mm_r0000gn/T//ccgkDwir.s 			page 11

