ARM GAS  /var/folders/8c/gyvcglfx7f97kbqb2h83mm_r0000gn/T//cczE2vDZ.s 			page 1


   1              		.cpu cortex-m4
   2              		.eabi_attribute 27, 1
   3              		.eabi_attribute 28, 1
   4              		.eabi_attribute 20, 1
   5              		.eabi_attribute 21, 1
   6              		.eabi_attribute 23, 3
   7              		.eabi_attribute 24, 1
   8              		.eabi_attribute 25, 1
   9              		.eabi_attribute 26, 1
  10              		.eabi_attribute 30, 2
  11              		.eabi_attribute 34, 1
  12              		.eabi_attribute 18, 4
  13              		.file	"stm32f3xx_hal_rcc_ex.c"
  14              		.text
  15              	.Ltext0:
  16              		.cfi_sections	.debug_frame
  17              		.section	.text.HAL_RCCEx_PeriphCLKConfig,"ax",%progbits
  18              		.align	1
  19              		.p2align 2,,3
  20              		.global	HAL_RCCEx_PeriphCLKConfig
  21              		.arch armv7e-m
  22              		.syntax unified
  23              		.thumb
  24              		.thumb_func
  25              		.fpu fpv4-sp-d16
  27              	HAL_RCCEx_PeriphCLKConfig:
  28              	.LVL0:
  29              	.LFB126:
  30              		.file 1 "Drivers/STM32F3xx_HAL_Driver/Src/stm32f3xx_hal_rcc_ex.c"
   1:Drivers/STM32F3xx_HAL_Driver/Src/stm32f3xx_hal_rcc_ex.c **** /**
   2:Drivers/STM32F3xx_HAL_Driver/Src/stm32f3xx_hal_rcc_ex.c ****   ******************************************************************************
   3:Drivers/STM32F3xx_HAL_Driver/Src/stm32f3xx_hal_rcc_ex.c ****   * @file    stm32f3xx_hal_rcc_ex.c
   4:Drivers/STM32F3xx_HAL_Driver/Src/stm32f3xx_hal_rcc_ex.c ****   * @author  MCD Application Team
   5:Drivers/STM32F3xx_HAL_Driver/Src/stm32f3xx_hal_rcc_ex.c ****   * @brief   Extended RCC HAL module driver.
   6:Drivers/STM32F3xx_HAL_Driver/Src/stm32f3xx_hal_rcc_ex.c ****   *          This file provides firmware functions to manage the following 
   7:Drivers/STM32F3xx_HAL_Driver/Src/stm32f3xx_hal_rcc_ex.c ****   *          functionalities RCC extension peripheral:
   8:Drivers/STM32F3xx_HAL_Driver/Src/stm32f3xx_hal_rcc_ex.c ****   *           + Extended Peripheral Control functions
   9:Drivers/STM32F3xx_HAL_Driver/Src/stm32f3xx_hal_rcc_ex.c ****   *  
  10:Drivers/STM32F3xx_HAL_Driver/Src/stm32f3xx_hal_rcc_ex.c ****   ******************************************************************************
  11:Drivers/STM32F3xx_HAL_Driver/Src/stm32f3xx_hal_rcc_ex.c ****   * @attention
  12:Drivers/STM32F3xx_HAL_Driver/Src/stm32f3xx_hal_rcc_ex.c ****   *
  13:Drivers/STM32F3xx_HAL_Driver/Src/stm32f3xx_hal_rcc_ex.c ****   * <h2><center>&copy; COPYRIGHT(c) 2016 STMicroelectronics</center></h2>
  14:Drivers/STM32F3xx_HAL_Driver/Src/stm32f3xx_hal_rcc_ex.c ****   *
  15:Drivers/STM32F3xx_HAL_Driver/Src/stm32f3xx_hal_rcc_ex.c ****   * Redistribution and use in source and binary forms, with or without modification,
  16:Drivers/STM32F3xx_HAL_Driver/Src/stm32f3xx_hal_rcc_ex.c ****   * are permitted provided that the following conditions are met:
  17:Drivers/STM32F3xx_HAL_Driver/Src/stm32f3xx_hal_rcc_ex.c ****   *   1. Redistributions of source code must retain the above copyright notice,
  18:Drivers/STM32F3xx_HAL_Driver/Src/stm32f3xx_hal_rcc_ex.c ****   *      this list of conditions and the following disclaimer.
  19:Drivers/STM32F3xx_HAL_Driver/Src/stm32f3xx_hal_rcc_ex.c ****   *   2. Redistributions in binary form must reproduce the above copyright notice,
  20:Drivers/STM32F3xx_HAL_Driver/Src/stm32f3xx_hal_rcc_ex.c ****   *      this list of conditions and the following disclaimer in the documentation
  21:Drivers/STM32F3xx_HAL_Driver/Src/stm32f3xx_hal_rcc_ex.c ****   *      and/or other materials provided with the distribution.
  22:Drivers/STM32F3xx_HAL_Driver/Src/stm32f3xx_hal_rcc_ex.c ****   *   3. Neither the name of STMicroelectronics nor the names of its contributors
  23:Drivers/STM32F3xx_HAL_Driver/Src/stm32f3xx_hal_rcc_ex.c ****   *      may be used to endorse or promote products derived from this software
  24:Drivers/STM32F3xx_HAL_Driver/Src/stm32f3xx_hal_rcc_ex.c ****   *      without specific prior written permission.
  25:Drivers/STM32F3xx_HAL_Driver/Src/stm32f3xx_hal_rcc_ex.c ****   *
  26:Drivers/STM32F3xx_HAL_Driver/Src/stm32f3xx_hal_rcc_ex.c ****   * THIS SOFTWARE IS PROVIDED BY THE COPYRIGHT HOLDERS AND CONTRIBUTORS "AS IS"
  27:Drivers/STM32F3xx_HAL_Driver/Src/stm32f3xx_hal_rcc_ex.c ****   * AND ANY EXPRESS OR IMPLIED WARRANTIES, INCLUDING, BUT NOT LIMITED TO, THE
  28:Drivers/STM32F3xx_HAL_Driver/Src/stm32f3xx_hal_rcc_ex.c ****   * IMPLIED WARRANTIES OF MERCHANTABILITY AND FITNESS FOR A PARTICULAR PURPOSE ARE
ARM GAS  /var/folders/8c/gyvcglfx7f97kbqb2h83mm_r0000gn/T//cczE2vDZ.s 			page 2


  29:Drivers/STM32F3xx_HAL_Driver/Src/stm32f3xx_hal_rcc_ex.c ****   * DISCLAIMED. IN NO EVENT SHALL THE COPYRIGHT HOLDER OR CONTRIBUTORS BE LIABLE
  30:Drivers/STM32F3xx_HAL_Driver/Src/stm32f3xx_hal_rcc_ex.c ****   * FOR ANY DIRECT, INDIRECT, INCIDENTAL, SPECIAL, EXEMPLARY, OR CONSEQUENTIAL
  31:Drivers/STM32F3xx_HAL_Driver/Src/stm32f3xx_hal_rcc_ex.c ****   * DAMAGES (INCLUDING, BUT NOT LIMITED TO, PROCUREMENT OF SUBSTITUTE GOODS OR
  32:Drivers/STM32F3xx_HAL_Driver/Src/stm32f3xx_hal_rcc_ex.c ****   * SERVICES; LOSS OF USE, DATA, OR PROFITS; OR BUSINESS INTERRUPTION) HOWEVER
  33:Drivers/STM32F3xx_HAL_Driver/Src/stm32f3xx_hal_rcc_ex.c ****   * CAUSED AND ON ANY THEORY OF LIABILITY, WHETHER IN CONTRACT, STRICT LIABILITY,
  34:Drivers/STM32F3xx_HAL_Driver/Src/stm32f3xx_hal_rcc_ex.c ****   * OR TORT (INCLUDING NEGLIGENCE OR OTHERWISE) ARISING IN ANY WAY OUT OF THE USE
  35:Drivers/STM32F3xx_HAL_Driver/Src/stm32f3xx_hal_rcc_ex.c ****   * OF THIS SOFTWARE, EVEN IF ADVISED OF THE POSSIBILITY OF SUCH DAMAGE.
  36:Drivers/STM32F3xx_HAL_Driver/Src/stm32f3xx_hal_rcc_ex.c ****   *
  37:Drivers/STM32F3xx_HAL_Driver/Src/stm32f3xx_hal_rcc_ex.c ****   ******************************************************************************
  38:Drivers/STM32F3xx_HAL_Driver/Src/stm32f3xx_hal_rcc_ex.c ****   */ 
  39:Drivers/STM32F3xx_HAL_Driver/Src/stm32f3xx_hal_rcc_ex.c **** 
  40:Drivers/STM32F3xx_HAL_Driver/Src/stm32f3xx_hal_rcc_ex.c **** /* Includes ------------------------------------------------------------------*/
  41:Drivers/STM32F3xx_HAL_Driver/Src/stm32f3xx_hal_rcc_ex.c **** #include "stm32f3xx_hal.h"
  42:Drivers/STM32F3xx_HAL_Driver/Src/stm32f3xx_hal_rcc_ex.c **** 
  43:Drivers/STM32F3xx_HAL_Driver/Src/stm32f3xx_hal_rcc_ex.c **** /** @addtogroup STM32F3xx_HAL_Driver
  44:Drivers/STM32F3xx_HAL_Driver/Src/stm32f3xx_hal_rcc_ex.c ****   * @{
  45:Drivers/STM32F3xx_HAL_Driver/Src/stm32f3xx_hal_rcc_ex.c ****   */
  46:Drivers/STM32F3xx_HAL_Driver/Src/stm32f3xx_hal_rcc_ex.c **** 
  47:Drivers/STM32F3xx_HAL_Driver/Src/stm32f3xx_hal_rcc_ex.c **** #ifdef HAL_RCC_MODULE_ENABLED
  48:Drivers/STM32F3xx_HAL_Driver/Src/stm32f3xx_hal_rcc_ex.c **** 
  49:Drivers/STM32F3xx_HAL_Driver/Src/stm32f3xx_hal_rcc_ex.c **** /** @defgroup RCCEx RCCEx
  50:Drivers/STM32F3xx_HAL_Driver/Src/stm32f3xx_hal_rcc_ex.c ****   * @brief RCC Extension HAL module driver.
  51:Drivers/STM32F3xx_HAL_Driver/Src/stm32f3xx_hal_rcc_ex.c ****   * @{
  52:Drivers/STM32F3xx_HAL_Driver/Src/stm32f3xx_hal_rcc_ex.c ****   */
  53:Drivers/STM32F3xx_HAL_Driver/Src/stm32f3xx_hal_rcc_ex.c **** 
  54:Drivers/STM32F3xx_HAL_Driver/Src/stm32f3xx_hal_rcc_ex.c **** /* Private typedef -----------------------------------------------------------*/
  55:Drivers/STM32F3xx_HAL_Driver/Src/stm32f3xx_hal_rcc_ex.c **** /* Private define ------------------------------------------------------------*/
  56:Drivers/STM32F3xx_HAL_Driver/Src/stm32f3xx_hal_rcc_ex.c **** /* Private macro -------------------------------------------------------------*/
  57:Drivers/STM32F3xx_HAL_Driver/Src/stm32f3xx_hal_rcc_ex.c **** /** @defgroup RCCEx_Private_Macros RCCEx Private Macros
  58:Drivers/STM32F3xx_HAL_Driver/Src/stm32f3xx_hal_rcc_ex.c ****  * @{
  59:Drivers/STM32F3xx_HAL_Driver/Src/stm32f3xx_hal_rcc_ex.c ****  */
  60:Drivers/STM32F3xx_HAL_Driver/Src/stm32f3xx_hal_rcc_ex.c **** /**
  61:Drivers/STM32F3xx_HAL_Driver/Src/stm32f3xx_hal_rcc_ex.c ****   * @}
  62:Drivers/STM32F3xx_HAL_Driver/Src/stm32f3xx_hal_rcc_ex.c ****   */
  63:Drivers/STM32F3xx_HAL_Driver/Src/stm32f3xx_hal_rcc_ex.c **** 
  64:Drivers/STM32F3xx_HAL_Driver/Src/stm32f3xx_hal_rcc_ex.c **** /* Private variables ---------------------------------------------------------*/
  65:Drivers/STM32F3xx_HAL_Driver/Src/stm32f3xx_hal_rcc_ex.c **** /* Private function prototypes -----------------------------------------------*/
  66:Drivers/STM32F3xx_HAL_Driver/Src/stm32f3xx_hal_rcc_ex.c **** /* Private functions ---------------------------------------------------------*/
  67:Drivers/STM32F3xx_HAL_Driver/Src/stm32f3xx_hal_rcc_ex.c **** #if defined(RCC_CFGR2_ADC1PRES) || defined(RCC_CFGR2_ADCPRE12) || defined(RCC_CFGR2_ADCPRE34) || de
  68:Drivers/STM32F3xx_HAL_Driver/Src/stm32f3xx_hal_rcc_ex.c ****  || defined(RCC_CFGR3_TIM1SW) || defined(RCC_CFGR3_TIM2SW) || defined(RCC_CFGR3_TIM8SW) || defined(
  69:Drivers/STM32F3xx_HAL_Driver/Src/stm32f3xx_hal_rcc_ex.c ****  || defined(RCC_CFGR3_TIM16SW) || defined(RCC_CFGR3_TIM17SW) || defined(RCC_CFGR3_TIM20SW) || defin
  70:Drivers/STM32F3xx_HAL_Driver/Src/stm32f3xx_hal_rcc_ex.c ****  || defined(RCC_CFGR3_HRTIM1SW)
  71:Drivers/STM32F3xx_HAL_Driver/Src/stm32f3xx_hal_rcc_ex.c **** /** @defgroup RCCEx_Private_Functions RCCEx Private Functions
  72:Drivers/STM32F3xx_HAL_Driver/Src/stm32f3xx_hal_rcc_ex.c ****   * @{
  73:Drivers/STM32F3xx_HAL_Driver/Src/stm32f3xx_hal_rcc_ex.c ****   */
  74:Drivers/STM32F3xx_HAL_Driver/Src/stm32f3xx_hal_rcc_ex.c **** static uint32_t RCC_GetPLLCLKFreq(void);
  75:Drivers/STM32F3xx_HAL_Driver/Src/stm32f3xx_hal_rcc_ex.c **** 
  76:Drivers/STM32F3xx_HAL_Driver/Src/stm32f3xx_hal_rcc_ex.c **** /**
  77:Drivers/STM32F3xx_HAL_Driver/Src/stm32f3xx_hal_rcc_ex.c ****   * @}
  78:Drivers/STM32F3xx_HAL_Driver/Src/stm32f3xx_hal_rcc_ex.c ****   */
  79:Drivers/STM32F3xx_HAL_Driver/Src/stm32f3xx_hal_rcc_ex.c **** #endif /* RCC_CFGR2_ADC1PRES || RCC_CFGR2_ADCPRExx || RCC_CFGR3_TIMxSW || RCC_CFGR3_HRTIM1SW || RCC
  80:Drivers/STM32F3xx_HAL_Driver/Src/stm32f3xx_hal_rcc_ex.c **** 
  81:Drivers/STM32F3xx_HAL_Driver/Src/stm32f3xx_hal_rcc_ex.c **** /** @defgroup RCCEx_Exported_Functions RCCEx Exported Functions
  82:Drivers/STM32F3xx_HAL_Driver/Src/stm32f3xx_hal_rcc_ex.c ****   * @{
  83:Drivers/STM32F3xx_HAL_Driver/Src/stm32f3xx_hal_rcc_ex.c ****   */
  84:Drivers/STM32F3xx_HAL_Driver/Src/stm32f3xx_hal_rcc_ex.c **** 
  85:Drivers/STM32F3xx_HAL_Driver/Src/stm32f3xx_hal_rcc_ex.c **** /** @defgroup RCCEx_Exported_Functions_Group1 Extended Peripheral Control functions 
ARM GAS  /var/folders/8c/gyvcglfx7f97kbqb2h83mm_r0000gn/T//cczE2vDZ.s 			page 3


  86:Drivers/STM32F3xx_HAL_Driver/Src/stm32f3xx_hal_rcc_ex.c ****   * @brief    Extended Peripheral Control functions
  87:Drivers/STM32F3xx_HAL_Driver/Src/stm32f3xx_hal_rcc_ex.c ****   *
  88:Drivers/STM32F3xx_HAL_Driver/Src/stm32f3xx_hal_rcc_ex.c **** @verbatim   
  89:Drivers/STM32F3xx_HAL_Driver/Src/stm32f3xx_hal_rcc_ex.c ****  ===============================================================================
  90:Drivers/STM32F3xx_HAL_Driver/Src/stm32f3xx_hal_rcc_ex.c ****                 ##### Extended Peripheral Control functions  #####
  91:Drivers/STM32F3xx_HAL_Driver/Src/stm32f3xx_hal_rcc_ex.c ****  ===============================================================================  
  92:Drivers/STM32F3xx_HAL_Driver/Src/stm32f3xx_hal_rcc_ex.c ****     [..]
  93:Drivers/STM32F3xx_HAL_Driver/Src/stm32f3xx_hal_rcc_ex.c ****     This subsection provides a set of functions allowing to control the RCC Clocks 
  94:Drivers/STM32F3xx_HAL_Driver/Src/stm32f3xx_hal_rcc_ex.c ****     frequencies.
  95:Drivers/STM32F3xx_HAL_Driver/Src/stm32f3xx_hal_rcc_ex.c ****     [..] 
  96:Drivers/STM32F3xx_HAL_Driver/Src/stm32f3xx_hal_rcc_ex.c ****     (@) Important note: Care must be taken when HAL_RCCEx_PeriphCLKConfig() is used to
  97:Drivers/STM32F3xx_HAL_Driver/Src/stm32f3xx_hal_rcc_ex.c ****         select the RTC clock source; in this case the Backup domain will be reset in  
  98:Drivers/STM32F3xx_HAL_Driver/Src/stm32f3xx_hal_rcc_ex.c ****         order to modify the RTC Clock source, as consequence RTC registers (including 
  99:Drivers/STM32F3xx_HAL_Driver/Src/stm32f3xx_hal_rcc_ex.c ****         the backup registers) are set to their reset values.
 100:Drivers/STM32F3xx_HAL_Driver/Src/stm32f3xx_hal_rcc_ex.c ****       
 101:Drivers/STM32F3xx_HAL_Driver/Src/stm32f3xx_hal_rcc_ex.c **** @endverbatim
 102:Drivers/STM32F3xx_HAL_Driver/Src/stm32f3xx_hal_rcc_ex.c ****   * @{
 103:Drivers/STM32F3xx_HAL_Driver/Src/stm32f3xx_hal_rcc_ex.c ****   */
 104:Drivers/STM32F3xx_HAL_Driver/Src/stm32f3xx_hal_rcc_ex.c **** 
 105:Drivers/STM32F3xx_HAL_Driver/Src/stm32f3xx_hal_rcc_ex.c **** /**
 106:Drivers/STM32F3xx_HAL_Driver/Src/stm32f3xx_hal_rcc_ex.c ****   * @brief  Initializes the RCC extended peripherals clocks according to the specified
 107:Drivers/STM32F3xx_HAL_Driver/Src/stm32f3xx_hal_rcc_ex.c ****   *         parameters in the RCC_PeriphCLKInitTypeDef.
 108:Drivers/STM32F3xx_HAL_Driver/Src/stm32f3xx_hal_rcc_ex.c ****   * @param  PeriphClkInit pointer to an RCC_PeriphCLKInitTypeDef structure that
 109:Drivers/STM32F3xx_HAL_Driver/Src/stm32f3xx_hal_rcc_ex.c ****   *         contains the configuration information for the Extended Peripherals clocks
 110:Drivers/STM32F3xx_HAL_Driver/Src/stm32f3xx_hal_rcc_ex.c ****   *         (ADC, CEC, I2C, I2S, SDADC, HRTIM, TIM, USART, RTC and USB).
 111:Drivers/STM32F3xx_HAL_Driver/Src/stm32f3xx_hal_rcc_ex.c ****   *
 112:Drivers/STM32F3xx_HAL_Driver/Src/stm32f3xx_hal_rcc_ex.c ****   * @note   Care must be taken when HAL_RCCEx_PeriphCLKConfig() is used to select 
 113:Drivers/STM32F3xx_HAL_Driver/Src/stm32f3xx_hal_rcc_ex.c ****   *         the RTC clock source; in this case the Backup domain will be reset in  
 114:Drivers/STM32F3xx_HAL_Driver/Src/stm32f3xx_hal_rcc_ex.c ****   *         order to modify the RTC Clock source, as consequence RTC registers (including 
 115:Drivers/STM32F3xx_HAL_Driver/Src/stm32f3xx_hal_rcc_ex.c ****   *         the backup registers) and RCC_BDCR register are set to their reset values.
 116:Drivers/STM32F3xx_HAL_Driver/Src/stm32f3xx_hal_rcc_ex.c ****   *
 117:Drivers/STM32F3xx_HAL_Driver/Src/stm32f3xx_hal_rcc_ex.c ****   * @retval HAL status
 118:Drivers/STM32F3xx_HAL_Driver/Src/stm32f3xx_hal_rcc_ex.c ****   */
 119:Drivers/STM32F3xx_HAL_Driver/Src/stm32f3xx_hal_rcc_ex.c **** HAL_StatusTypeDef HAL_RCCEx_PeriphCLKConfig(RCC_PeriphCLKInitTypeDef  *PeriphClkInit)
 120:Drivers/STM32F3xx_HAL_Driver/Src/stm32f3xx_hal_rcc_ex.c **** {
  31              		.loc 1 120 1 view -0
  32              		.cfi_startproc
  33              		@ args = 0, pretend = 0, frame = 8
  34              		@ frame_needed = 0, uses_anonymous_args = 0
 121:Drivers/STM32F3xx_HAL_Driver/Src/stm32f3xx_hal_rcc_ex.c ****   uint32_t tickstart = 0U;
  35              		.loc 1 121 3 view .LVU1
 122:Drivers/STM32F3xx_HAL_Driver/Src/stm32f3xx_hal_rcc_ex.c ****   uint32_t temp_reg = 0U;
  36              		.loc 1 122 3 view .LVU2
 123:Drivers/STM32F3xx_HAL_Driver/Src/stm32f3xx_hal_rcc_ex.c ****     
 124:Drivers/STM32F3xx_HAL_Driver/Src/stm32f3xx_hal_rcc_ex.c ****   /* Check the parameters */
 125:Drivers/STM32F3xx_HAL_Driver/Src/stm32f3xx_hal_rcc_ex.c ****   assert_param(IS_RCC_PERIPHCLOCK(PeriphClkInit->PeriphClockSelection));
  37              		.loc 1 125 3 view .LVU3
 126:Drivers/STM32F3xx_HAL_Driver/Src/stm32f3xx_hal_rcc_ex.c ****   
 127:Drivers/STM32F3xx_HAL_Driver/Src/stm32f3xx_hal_rcc_ex.c ****   /*---------------------------- RTC configuration -------------------------------*/
 128:Drivers/STM32F3xx_HAL_Driver/Src/stm32f3xx_hal_rcc_ex.c ****   if(((PeriphClkInit->PeriphClockSelection) & RCC_PERIPHCLK_RTC) == (RCC_PERIPHCLK_RTC))
  38              		.loc 1 128 3 view .LVU4
 120:Drivers/STM32F3xx_HAL_Driver/Src/stm32f3xx_hal_rcc_ex.c ****   uint32_t tickstart = 0U;
  39              		.loc 1 120 1 is_stmt 0 view .LVU5
  40 0000 2DE9F043 		push	{r4, r5, r6, r7, r8, r9, lr}
  41              	.LCFI0:
  42              		.cfi_def_cfa_offset 28
  43              		.cfi_offset 4, -28
ARM GAS  /var/folders/8c/gyvcglfx7f97kbqb2h83mm_r0000gn/T//cczE2vDZ.s 			page 4


  44              		.cfi_offset 5, -24
  45              		.cfi_offset 6, -20
  46              		.cfi_offset 7, -16
  47              		.cfi_offset 8, -12
  48              		.cfi_offset 9, -8
  49              		.cfi_offset 14, -4
  50 0004 0446     		mov	r4, r0
  51              		.loc 1 128 21 view .LVU6
  52 0006 0068     		ldr	r0, [r0]
  53              	.LVL1:
  54              		.loc 1 128 5 view .LVU7
  55 0008 C603     		lsls	r6, r0, #15
 120:Drivers/STM32F3xx_HAL_Driver/Src/stm32f3xx_hal_rcc_ex.c ****   uint32_t tickstart = 0U;
  56              		.loc 1 120 1 view .LVU8
  57 000a 83B0     		sub	sp, sp, #12
  58              	.LCFI1:
  59              		.cfi_def_cfa_offset 40
  60              		.loc 1 128 5 view .LVU9
  61 000c 3CD5     		bpl	.L2
  62              	.LBB48:
 129:Drivers/STM32F3xx_HAL_Driver/Src/stm32f3xx_hal_rcc_ex.c ****   {
 130:Drivers/STM32F3xx_HAL_Driver/Src/stm32f3xx_hal_rcc_ex.c ****     /* check for RTC Parameters used to output RTCCLK */
 131:Drivers/STM32F3xx_HAL_Driver/Src/stm32f3xx_hal_rcc_ex.c ****     assert_param(IS_RCC_RTCCLKSOURCE(PeriphClkInit->RTCClockSelection));
  63              		.loc 1 131 5 is_stmt 1 view .LVU10
 132:Drivers/STM32F3xx_HAL_Driver/Src/stm32f3xx_hal_rcc_ex.c **** 
 133:Drivers/STM32F3xx_HAL_Driver/Src/stm32f3xx_hal_rcc_ex.c ****     FlagStatus       pwrclkchanged = RESET;
  64              		.loc 1 133 5 view .LVU11
  65              	.LVL2:
 134:Drivers/STM32F3xx_HAL_Driver/Src/stm32f3xx_hal_rcc_ex.c **** 
 135:Drivers/STM32F3xx_HAL_Driver/Src/stm32f3xx_hal_rcc_ex.c ****     /* As soon as function is called to change RTC clock source, activation of the 
 136:Drivers/STM32F3xx_HAL_Driver/Src/stm32f3xx_hal_rcc_ex.c ****        power domain is done. */
 137:Drivers/STM32F3xx_HAL_Driver/Src/stm32f3xx_hal_rcc_ex.c ****     /* Requires to enable write access to Backup Domain of necessary */
 138:Drivers/STM32F3xx_HAL_Driver/Src/stm32f3xx_hal_rcc_ex.c ****     if(__HAL_RCC_PWR_IS_CLK_DISABLED())
  66              		.loc 1 138 5 view .LVU12
  67              		.loc 1 138 8 is_stmt 0 view .LVU13
  68 000e A34B     		ldr	r3, .L105
  69 0010 DA69     		ldr	r2, [r3, #28]
  70              		.loc 1 138 7 view .LVU14
  71 0012 D500     		lsls	r5, r2, #3
  72 0014 40F1F180 		bpl	.L102
 139:Drivers/STM32F3xx_HAL_Driver/Src/stm32f3xx_hal_rcc_ex.c ****     {
 140:Drivers/STM32F3xx_HAL_Driver/Src/stm32f3xx_hal_rcc_ex.c ****       __HAL_RCC_PWR_CLK_ENABLE();
 141:Drivers/STM32F3xx_HAL_Driver/Src/stm32f3xx_hal_rcc_ex.c ****       pwrclkchanged = SET;
 142:Drivers/STM32F3xx_HAL_Driver/Src/stm32f3xx_hal_rcc_ex.c ****     }
 143:Drivers/STM32F3xx_HAL_Driver/Src/stm32f3xx_hal_rcc_ex.c ****     
 144:Drivers/STM32F3xx_HAL_Driver/Src/stm32f3xx_hal_rcc_ex.c ****     if(HAL_IS_BIT_CLR(PWR->CR, PWR_CR_DBP))
  73              		.loc 1 144 8 view .LVU15
  74 0018 A14D     		ldr	r5, .L105+4
  75 001a 2B68     		ldr	r3, [r5]
  76              		.loc 1 144 7 view .LVU16
  77 001c D805     		lsls	r0, r3, #23
 133:Drivers/STM32F3xx_HAL_Driver/Src/stm32f3xx_hal_rcc_ex.c **** 
  78              		.loc 1 133 22 view .LVU17
  79 001e 4FF00006 		mov	r6, #0
  80              	.LVL3:
  81              		.loc 1 144 5 is_stmt 1 view .LVU18
  82              		.loc 1 144 7 is_stmt 0 view .LVU19
ARM GAS  /var/folders/8c/gyvcglfx7f97kbqb2h83mm_r0000gn/T//cczE2vDZ.s 			page 5


  83 0022 40F1FA80 		bpl	.L4
  84              	.LVL4:
  85              	.L10:
 145:Drivers/STM32F3xx_HAL_Driver/Src/stm32f3xx_hal_rcc_ex.c ****     {
 146:Drivers/STM32F3xx_HAL_Driver/Src/stm32f3xx_hal_rcc_ex.c ****       /* Enable write access to Backup domain */
 147:Drivers/STM32F3xx_HAL_Driver/Src/stm32f3xx_hal_rcc_ex.c ****       SET_BIT(PWR->CR, PWR_CR_DBP);
 148:Drivers/STM32F3xx_HAL_Driver/Src/stm32f3xx_hal_rcc_ex.c ****       
 149:Drivers/STM32F3xx_HAL_Driver/Src/stm32f3xx_hal_rcc_ex.c ****       /* Wait for Backup domain Write protection disable */
 150:Drivers/STM32F3xx_HAL_Driver/Src/stm32f3xx_hal_rcc_ex.c ****       tickstart = HAL_GetTick();
 151:Drivers/STM32F3xx_HAL_Driver/Src/stm32f3xx_hal_rcc_ex.c ****       
 152:Drivers/STM32F3xx_HAL_Driver/Src/stm32f3xx_hal_rcc_ex.c ****       while(HAL_IS_BIT_CLR(PWR->CR, PWR_CR_DBP))
 153:Drivers/STM32F3xx_HAL_Driver/Src/stm32f3xx_hal_rcc_ex.c ****       {
 154:Drivers/STM32F3xx_HAL_Driver/Src/stm32f3xx_hal_rcc_ex.c ****           if((HAL_GetTick() - tickstart) > RCC_DBP_TIMEOUT_VALUE)
 155:Drivers/STM32F3xx_HAL_Driver/Src/stm32f3xx_hal_rcc_ex.c ****         {
 156:Drivers/STM32F3xx_HAL_Driver/Src/stm32f3xx_hal_rcc_ex.c ****           return HAL_TIMEOUT;
 157:Drivers/STM32F3xx_HAL_Driver/Src/stm32f3xx_hal_rcc_ex.c ****         }
 158:Drivers/STM32F3xx_HAL_Driver/Src/stm32f3xx_hal_rcc_ex.c ****       }
 159:Drivers/STM32F3xx_HAL_Driver/Src/stm32f3xx_hal_rcc_ex.c ****     }
 160:Drivers/STM32F3xx_HAL_Driver/Src/stm32f3xx_hal_rcc_ex.c ****     
 161:Drivers/STM32F3xx_HAL_Driver/Src/stm32f3xx_hal_rcc_ex.c ****     /* Reset the Backup domain only if the RTC Clock source selection is modified from reset value 
 162:Drivers/STM32F3xx_HAL_Driver/Src/stm32f3xx_hal_rcc_ex.c ****     temp_reg = (RCC->BDCR & RCC_BDCR_RTCSEL);
  86              		.loc 1 162 5 is_stmt 1 view .LVU20
  87              		.loc 1 162 20 is_stmt 0 view .LVU21
  88 0026 9D4D     		ldr	r5, .L105
  89 0028 6168     		ldr	r1, [r4, #4]
  90 002a 2A6A     		ldr	r2, [r5, #32]
  91              	.LVL5:
 163:Drivers/STM32F3xx_HAL_Driver/Src/stm32f3xx_hal_rcc_ex.c ****     if((temp_reg != 0x00000000U) && (temp_reg != (PeriphClkInit->RTCClockSelection & RCC_BDCR_RTCSE
  92              		.loc 1 163 5 is_stmt 1 view .LVU22
  93              		.loc 1 163 7 is_stmt 0 view .LVU23
  94 002c 12F44072 		ands	r2, r2, #768
  95              	.LVL6:
  96              		.loc 1 163 7 view .LVU24
  97 0030 20D0     		beq	.L6
  98              		.loc 1 163 84 discriminator 1 view .LVU25
  99 0032 01F44073 		and	r3, r1, #768
 100              		.loc 1 163 34 discriminator 1 view .LVU26
 101 0036 9342     		cmp	r3, r2
 102 0038 1CD0     		beq	.L6
 164:Drivers/STM32F3xx_HAL_Driver/Src/stm32f3xx_hal_rcc_ex.c ****     {
 165:Drivers/STM32F3xx_HAL_Driver/Src/stm32f3xx_hal_rcc_ex.c ****       /* Store the content of BDCR register before the reset of Backup Domain */
 166:Drivers/STM32F3xx_HAL_Driver/Src/stm32f3xx_hal_rcc_ex.c ****       temp_reg = (RCC->BDCR & ~(RCC_BDCR_RTCSEL));
 103              		.loc 1 166 7 is_stmt 1 view .LVU27
 104              		.loc 1 166 22 is_stmt 0 view .LVU28
 105 003a 296A     		ldr	r1, [r5, #32]
 106              	.LBB49:
 107              	.LBB50:
 108              		.file 2 "Drivers/CMSIS/Include/cmsis_gcc.h"
   1:Drivers/CMSIS/Include/cmsis_gcc.h **** /**************************************************************************//**
   2:Drivers/CMSIS/Include/cmsis_gcc.h ****  * @file     cmsis_gcc.h
   3:Drivers/CMSIS/Include/cmsis_gcc.h ****  * @brief    CMSIS Cortex-M Core Function/Instruction Header File
   4:Drivers/CMSIS/Include/cmsis_gcc.h ****  * @version  V4.30
   5:Drivers/CMSIS/Include/cmsis_gcc.h ****  * @date     20. October 2015
   6:Drivers/CMSIS/Include/cmsis_gcc.h ****  ******************************************************************************/
   7:Drivers/CMSIS/Include/cmsis_gcc.h **** /* Copyright (c) 2009 - 2015 ARM LIMITED
   8:Drivers/CMSIS/Include/cmsis_gcc.h **** 
   9:Drivers/CMSIS/Include/cmsis_gcc.h ****    All rights reserved.
ARM GAS  /var/folders/8c/gyvcglfx7f97kbqb2h83mm_r0000gn/T//cczE2vDZ.s 			page 6


  10:Drivers/CMSIS/Include/cmsis_gcc.h ****    Redistribution and use in source and binary forms, with or without
  11:Drivers/CMSIS/Include/cmsis_gcc.h ****    modification, are permitted provided that the following conditions are met:
  12:Drivers/CMSIS/Include/cmsis_gcc.h ****    - Redistributions of source code must retain the above copyright
  13:Drivers/CMSIS/Include/cmsis_gcc.h ****      notice, this list of conditions and the following disclaimer.
  14:Drivers/CMSIS/Include/cmsis_gcc.h ****    - Redistributions in binary form must reproduce the above copyright
  15:Drivers/CMSIS/Include/cmsis_gcc.h ****      notice, this list of conditions and the following disclaimer in the
  16:Drivers/CMSIS/Include/cmsis_gcc.h ****      documentation and/or other materials provided with the distribution.
  17:Drivers/CMSIS/Include/cmsis_gcc.h ****    - Neither the name of ARM nor the names of its contributors may be used
  18:Drivers/CMSIS/Include/cmsis_gcc.h ****      to endorse or promote products derived from this software without
  19:Drivers/CMSIS/Include/cmsis_gcc.h ****      specific prior written permission.
  20:Drivers/CMSIS/Include/cmsis_gcc.h ****    *
  21:Drivers/CMSIS/Include/cmsis_gcc.h ****    THIS SOFTWARE IS PROVIDED BY THE COPYRIGHT HOLDERS AND CONTRIBUTORS "AS IS"
  22:Drivers/CMSIS/Include/cmsis_gcc.h ****    AND ANY EXPRESS OR IMPLIED WARRANTIES, INCLUDING, BUT NOT LIMITED TO, THE
  23:Drivers/CMSIS/Include/cmsis_gcc.h ****    IMPLIED WARRANTIES OF MERCHANTABILITY AND FITNESS FOR A PARTICULAR PURPOSE
  24:Drivers/CMSIS/Include/cmsis_gcc.h ****    ARE DISCLAIMED. IN NO EVENT SHALL COPYRIGHT HOLDERS AND CONTRIBUTORS BE
  25:Drivers/CMSIS/Include/cmsis_gcc.h ****    LIABLE FOR ANY DIRECT, INDIRECT, INCIDENTAL, SPECIAL, EXEMPLARY, OR
  26:Drivers/CMSIS/Include/cmsis_gcc.h ****    CONSEQUENTIAL DAMAGES (INCLUDING, BUT NOT LIMITED TO, PROCUREMENT OF
  27:Drivers/CMSIS/Include/cmsis_gcc.h ****    SUBSTITUTE GOODS OR SERVICES; LOSS OF USE, DATA, OR PROFITS; OR BUSINESS
  28:Drivers/CMSIS/Include/cmsis_gcc.h ****    INTERRUPTION) HOWEVER CAUSED AND ON ANY THEORY OF LIABILITY, WHETHER IN
  29:Drivers/CMSIS/Include/cmsis_gcc.h ****    CONTRACT, STRICT LIABILITY, OR TORT (INCLUDING NEGLIGENCE OR OTHERWISE)
  30:Drivers/CMSIS/Include/cmsis_gcc.h ****    ARISING IN ANY WAY OUT OF THE USE OF THIS SOFTWARE, EVEN IF ADVISED OF THE
  31:Drivers/CMSIS/Include/cmsis_gcc.h ****    POSSIBILITY OF SUCH DAMAGE.
  32:Drivers/CMSIS/Include/cmsis_gcc.h ****    ---------------------------------------------------------------------------*/
  33:Drivers/CMSIS/Include/cmsis_gcc.h **** 
  34:Drivers/CMSIS/Include/cmsis_gcc.h **** 
  35:Drivers/CMSIS/Include/cmsis_gcc.h **** #ifndef __CMSIS_GCC_H
  36:Drivers/CMSIS/Include/cmsis_gcc.h **** #define __CMSIS_GCC_H
  37:Drivers/CMSIS/Include/cmsis_gcc.h **** 
  38:Drivers/CMSIS/Include/cmsis_gcc.h **** /* ignore some GCC warnings */
  39:Drivers/CMSIS/Include/cmsis_gcc.h **** #if defined ( __GNUC__ )
  40:Drivers/CMSIS/Include/cmsis_gcc.h **** #pragma GCC diagnostic push
  41:Drivers/CMSIS/Include/cmsis_gcc.h **** #pragma GCC diagnostic ignored "-Wsign-conversion"
  42:Drivers/CMSIS/Include/cmsis_gcc.h **** #pragma GCC diagnostic ignored "-Wconversion"
  43:Drivers/CMSIS/Include/cmsis_gcc.h **** #pragma GCC diagnostic ignored "-Wunused-parameter"
  44:Drivers/CMSIS/Include/cmsis_gcc.h **** #endif
  45:Drivers/CMSIS/Include/cmsis_gcc.h **** 
  46:Drivers/CMSIS/Include/cmsis_gcc.h **** 
  47:Drivers/CMSIS/Include/cmsis_gcc.h **** /* ###########################  Core Function Access  ########################### */
  48:Drivers/CMSIS/Include/cmsis_gcc.h **** /** \ingroup  CMSIS_Core_FunctionInterface
  49:Drivers/CMSIS/Include/cmsis_gcc.h ****     \defgroup CMSIS_Core_RegAccFunctions CMSIS Core Register Access Functions
  50:Drivers/CMSIS/Include/cmsis_gcc.h ****   @{
  51:Drivers/CMSIS/Include/cmsis_gcc.h ****  */
  52:Drivers/CMSIS/Include/cmsis_gcc.h **** 
  53:Drivers/CMSIS/Include/cmsis_gcc.h **** /**
  54:Drivers/CMSIS/Include/cmsis_gcc.h ****   \brief   Enable IRQ Interrupts
  55:Drivers/CMSIS/Include/cmsis_gcc.h ****   \details Enables IRQ interrupts by clearing the I-bit in the CPSR.
  56:Drivers/CMSIS/Include/cmsis_gcc.h ****            Can only be executed in Privileged modes.
  57:Drivers/CMSIS/Include/cmsis_gcc.h ****  */
  58:Drivers/CMSIS/Include/cmsis_gcc.h **** __attribute__( ( always_inline ) ) __STATIC_INLINE void __enable_irq(void)
  59:Drivers/CMSIS/Include/cmsis_gcc.h **** {
  60:Drivers/CMSIS/Include/cmsis_gcc.h ****   __ASM volatile ("cpsie i" : : : "memory");
  61:Drivers/CMSIS/Include/cmsis_gcc.h **** }
  62:Drivers/CMSIS/Include/cmsis_gcc.h **** 
  63:Drivers/CMSIS/Include/cmsis_gcc.h **** 
  64:Drivers/CMSIS/Include/cmsis_gcc.h **** /**
  65:Drivers/CMSIS/Include/cmsis_gcc.h ****   \brief   Disable IRQ Interrupts
  66:Drivers/CMSIS/Include/cmsis_gcc.h ****   \details Disables IRQ interrupts by setting the I-bit in the CPSR.
ARM GAS  /var/folders/8c/gyvcglfx7f97kbqb2h83mm_r0000gn/T//cczE2vDZ.s 			page 7


  67:Drivers/CMSIS/Include/cmsis_gcc.h ****   Can only be executed in Privileged modes.
  68:Drivers/CMSIS/Include/cmsis_gcc.h ****  */
  69:Drivers/CMSIS/Include/cmsis_gcc.h **** __attribute__( ( always_inline ) ) __STATIC_INLINE void __disable_irq(void)
  70:Drivers/CMSIS/Include/cmsis_gcc.h **** {
  71:Drivers/CMSIS/Include/cmsis_gcc.h ****   __ASM volatile ("cpsid i" : : : "memory");
  72:Drivers/CMSIS/Include/cmsis_gcc.h **** }
  73:Drivers/CMSIS/Include/cmsis_gcc.h **** 
  74:Drivers/CMSIS/Include/cmsis_gcc.h **** 
  75:Drivers/CMSIS/Include/cmsis_gcc.h **** /**
  76:Drivers/CMSIS/Include/cmsis_gcc.h ****   \brief   Get Control Register
  77:Drivers/CMSIS/Include/cmsis_gcc.h ****   \details Returns the content of the Control Register.
  78:Drivers/CMSIS/Include/cmsis_gcc.h ****   \return               Control Register value
  79:Drivers/CMSIS/Include/cmsis_gcc.h ****  */
  80:Drivers/CMSIS/Include/cmsis_gcc.h **** __attribute__( ( always_inline ) ) __STATIC_INLINE uint32_t __get_CONTROL(void)
  81:Drivers/CMSIS/Include/cmsis_gcc.h **** {
  82:Drivers/CMSIS/Include/cmsis_gcc.h ****   uint32_t result;
  83:Drivers/CMSIS/Include/cmsis_gcc.h **** 
  84:Drivers/CMSIS/Include/cmsis_gcc.h ****   __ASM volatile ("MRS %0, control" : "=r" (result) );
  85:Drivers/CMSIS/Include/cmsis_gcc.h ****   return(result);
  86:Drivers/CMSIS/Include/cmsis_gcc.h **** }
  87:Drivers/CMSIS/Include/cmsis_gcc.h **** 
  88:Drivers/CMSIS/Include/cmsis_gcc.h **** 
  89:Drivers/CMSIS/Include/cmsis_gcc.h **** /**
  90:Drivers/CMSIS/Include/cmsis_gcc.h ****   \brief   Set Control Register
  91:Drivers/CMSIS/Include/cmsis_gcc.h ****   \details Writes the given value to the Control Register.
  92:Drivers/CMSIS/Include/cmsis_gcc.h ****   \param [in]    control  Control Register value to set
  93:Drivers/CMSIS/Include/cmsis_gcc.h ****  */
  94:Drivers/CMSIS/Include/cmsis_gcc.h **** __attribute__( ( always_inline ) ) __STATIC_INLINE void __set_CONTROL(uint32_t control)
  95:Drivers/CMSIS/Include/cmsis_gcc.h **** {
  96:Drivers/CMSIS/Include/cmsis_gcc.h ****   __ASM volatile ("MSR control, %0" : : "r" (control) : "memory");
  97:Drivers/CMSIS/Include/cmsis_gcc.h **** }
  98:Drivers/CMSIS/Include/cmsis_gcc.h **** 
  99:Drivers/CMSIS/Include/cmsis_gcc.h **** 
 100:Drivers/CMSIS/Include/cmsis_gcc.h **** /**
 101:Drivers/CMSIS/Include/cmsis_gcc.h ****   \brief   Get IPSR Register
 102:Drivers/CMSIS/Include/cmsis_gcc.h ****   \details Returns the content of the IPSR Register.
 103:Drivers/CMSIS/Include/cmsis_gcc.h ****   \return               IPSR Register value
 104:Drivers/CMSIS/Include/cmsis_gcc.h ****  */
 105:Drivers/CMSIS/Include/cmsis_gcc.h **** __attribute__( ( always_inline ) ) __STATIC_INLINE uint32_t __get_IPSR(void)
 106:Drivers/CMSIS/Include/cmsis_gcc.h **** {
 107:Drivers/CMSIS/Include/cmsis_gcc.h ****   uint32_t result;
 108:Drivers/CMSIS/Include/cmsis_gcc.h **** 
 109:Drivers/CMSIS/Include/cmsis_gcc.h ****   __ASM volatile ("MRS %0, ipsr" : "=r" (result) );
 110:Drivers/CMSIS/Include/cmsis_gcc.h ****   return(result);
 111:Drivers/CMSIS/Include/cmsis_gcc.h **** }
 112:Drivers/CMSIS/Include/cmsis_gcc.h **** 
 113:Drivers/CMSIS/Include/cmsis_gcc.h **** 
 114:Drivers/CMSIS/Include/cmsis_gcc.h **** /**
 115:Drivers/CMSIS/Include/cmsis_gcc.h ****   \brief   Get APSR Register
 116:Drivers/CMSIS/Include/cmsis_gcc.h ****   \details Returns the content of the APSR Register.
 117:Drivers/CMSIS/Include/cmsis_gcc.h ****   \return               APSR Register value
 118:Drivers/CMSIS/Include/cmsis_gcc.h ****  */
 119:Drivers/CMSIS/Include/cmsis_gcc.h **** __attribute__( ( always_inline ) ) __STATIC_INLINE uint32_t __get_APSR(void)
 120:Drivers/CMSIS/Include/cmsis_gcc.h **** {
 121:Drivers/CMSIS/Include/cmsis_gcc.h ****   uint32_t result;
 122:Drivers/CMSIS/Include/cmsis_gcc.h **** 
 123:Drivers/CMSIS/Include/cmsis_gcc.h ****   __ASM volatile ("MRS %0, apsr" : "=r" (result) );
ARM GAS  /var/folders/8c/gyvcglfx7f97kbqb2h83mm_r0000gn/T//cczE2vDZ.s 			page 8


 124:Drivers/CMSIS/Include/cmsis_gcc.h ****   return(result);
 125:Drivers/CMSIS/Include/cmsis_gcc.h **** }
 126:Drivers/CMSIS/Include/cmsis_gcc.h **** 
 127:Drivers/CMSIS/Include/cmsis_gcc.h **** 
 128:Drivers/CMSIS/Include/cmsis_gcc.h **** /**
 129:Drivers/CMSIS/Include/cmsis_gcc.h ****   \brief   Get xPSR Register
 130:Drivers/CMSIS/Include/cmsis_gcc.h ****   \details Returns the content of the xPSR Register.
 131:Drivers/CMSIS/Include/cmsis_gcc.h **** 
 132:Drivers/CMSIS/Include/cmsis_gcc.h ****     \return               xPSR Register value
 133:Drivers/CMSIS/Include/cmsis_gcc.h ****  */
 134:Drivers/CMSIS/Include/cmsis_gcc.h **** __attribute__( ( always_inline ) ) __STATIC_INLINE uint32_t __get_xPSR(void)
 135:Drivers/CMSIS/Include/cmsis_gcc.h **** {
 136:Drivers/CMSIS/Include/cmsis_gcc.h ****   uint32_t result;
 137:Drivers/CMSIS/Include/cmsis_gcc.h **** 
 138:Drivers/CMSIS/Include/cmsis_gcc.h ****   __ASM volatile ("MRS %0, xpsr" : "=r" (result) );
 139:Drivers/CMSIS/Include/cmsis_gcc.h ****   return(result);
 140:Drivers/CMSIS/Include/cmsis_gcc.h **** }
 141:Drivers/CMSIS/Include/cmsis_gcc.h **** 
 142:Drivers/CMSIS/Include/cmsis_gcc.h **** 
 143:Drivers/CMSIS/Include/cmsis_gcc.h **** /**
 144:Drivers/CMSIS/Include/cmsis_gcc.h ****   \brief   Get Process Stack Pointer
 145:Drivers/CMSIS/Include/cmsis_gcc.h ****   \details Returns the current value of the Process Stack Pointer (PSP).
 146:Drivers/CMSIS/Include/cmsis_gcc.h ****   \return               PSP Register value
 147:Drivers/CMSIS/Include/cmsis_gcc.h ****  */
 148:Drivers/CMSIS/Include/cmsis_gcc.h **** __attribute__( ( always_inline ) ) __STATIC_INLINE uint32_t __get_PSP(void)
 149:Drivers/CMSIS/Include/cmsis_gcc.h **** {
 150:Drivers/CMSIS/Include/cmsis_gcc.h ****   register uint32_t result;
 151:Drivers/CMSIS/Include/cmsis_gcc.h **** 
 152:Drivers/CMSIS/Include/cmsis_gcc.h ****   __ASM volatile ("MRS %0, psp\n"  : "=r" (result) );
 153:Drivers/CMSIS/Include/cmsis_gcc.h ****   return(result);
 154:Drivers/CMSIS/Include/cmsis_gcc.h **** }
 155:Drivers/CMSIS/Include/cmsis_gcc.h **** 
 156:Drivers/CMSIS/Include/cmsis_gcc.h **** 
 157:Drivers/CMSIS/Include/cmsis_gcc.h **** /**
 158:Drivers/CMSIS/Include/cmsis_gcc.h ****   \brief   Set Process Stack Pointer
 159:Drivers/CMSIS/Include/cmsis_gcc.h ****   \details Assigns the given value to the Process Stack Pointer (PSP).
 160:Drivers/CMSIS/Include/cmsis_gcc.h ****   \param [in]    topOfProcStack  Process Stack Pointer value to set
 161:Drivers/CMSIS/Include/cmsis_gcc.h ****  */
 162:Drivers/CMSIS/Include/cmsis_gcc.h **** __attribute__( ( always_inline ) ) __STATIC_INLINE void __set_PSP(uint32_t topOfProcStack)
 163:Drivers/CMSIS/Include/cmsis_gcc.h **** {
 164:Drivers/CMSIS/Include/cmsis_gcc.h ****   __ASM volatile ("MSR psp, %0\n" : : "r" (topOfProcStack) : "sp");
 165:Drivers/CMSIS/Include/cmsis_gcc.h **** }
 166:Drivers/CMSIS/Include/cmsis_gcc.h **** 
 167:Drivers/CMSIS/Include/cmsis_gcc.h **** 
 168:Drivers/CMSIS/Include/cmsis_gcc.h **** /**
 169:Drivers/CMSIS/Include/cmsis_gcc.h ****   \brief   Get Main Stack Pointer
 170:Drivers/CMSIS/Include/cmsis_gcc.h ****   \details Returns the current value of the Main Stack Pointer (MSP).
 171:Drivers/CMSIS/Include/cmsis_gcc.h ****   \return               MSP Register value
 172:Drivers/CMSIS/Include/cmsis_gcc.h ****  */
 173:Drivers/CMSIS/Include/cmsis_gcc.h **** __attribute__( ( always_inline ) ) __STATIC_INLINE uint32_t __get_MSP(void)
 174:Drivers/CMSIS/Include/cmsis_gcc.h **** {
 175:Drivers/CMSIS/Include/cmsis_gcc.h ****   register uint32_t result;
 176:Drivers/CMSIS/Include/cmsis_gcc.h **** 
 177:Drivers/CMSIS/Include/cmsis_gcc.h ****   __ASM volatile ("MRS %0, msp\n" : "=r" (result) );
 178:Drivers/CMSIS/Include/cmsis_gcc.h ****   return(result);
 179:Drivers/CMSIS/Include/cmsis_gcc.h **** }
 180:Drivers/CMSIS/Include/cmsis_gcc.h **** 
ARM GAS  /var/folders/8c/gyvcglfx7f97kbqb2h83mm_r0000gn/T//cczE2vDZ.s 			page 9


 181:Drivers/CMSIS/Include/cmsis_gcc.h **** 
 182:Drivers/CMSIS/Include/cmsis_gcc.h **** /**
 183:Drivers/CMSIS/Include/cmsis_gcc.h ****   \brief   Set Main Stack Pointer
 184:Drivers/CMSIS/Include/cmsis_gcc.h ****   \details Assigns the given value to the Main Stack Pointer (MSP).
 185:Drivers/CMSIS/Include/cmsis_gcc.h **** 
 186:Drivers/CMSIS/Include/cmsis_gcc.h ****     \param [in]    topOfMainStack  Main Stack Pointer value to set
 187:Drivers/CMSIS/Include/cmsis_gcc.h ****  */
 188:Drivers/CMSIS/Include/cmsis_gcc.h **** __attribute__( ( always_inline ) ) __STATIC_INLINE void __set_MSP(uint32_t topOfMainStack)
 189:Drivers/CMSIS/Include/cmsis_gcc.h **** {
 190:Drivers/CMSIS/Include/cmsis_gcc.h ****   __ASM volatile ("MSR msp, %0\n" : : "r" (topOfMainStack) : "sp");
 191:Drivers/CMSIS/Include/cmsis_gcc.h **** }
 192:Drivers/CMSIS/Include/cmsis_gcc.h **** 
 193:Drivers/CMSIS/Include/cmsis_gcc.h **** 
 194:Drivers/CMSIS/Include/cmsis_gcc.h **** /**
 195:Drivers/CMSIS/Include/cmsis_gcc.h ****   \brief   Get Priority Mask
 196:Drivers/CMSIS/Include/cmsis_gcc.h ****   \details Returns the current state of the priority mask bit from the Priority Mask Register.
 197:Drivers/CMSIS/Include/cmsis_gcc.h ****   \return               Priority Mask value
 198:Drivers/CMSIS/Include/cmsis_gcc.h ****  */
 199:Drivers/CMSIS/Include/cmsis_gcc.h **** __attribute__( ( always_inline ) ) __STATIC_INLINE uint32_t __get_PRIMASK(void)
 200:Drivers/CMSIS/Include/cmsis_gcc.h **** {
 201:Drivers/CMSIS/Include/cmsis_gcc.h ****   uint32_t result;
 202:Drivers/CMSIS/Include/cmsis_gcc.h **** 
 203:Drivers/CMSIS/Include/cmsis_gcc.h ****   __ASM volatile ("MRS %0, primask" : "=r" (result) );
 204:Drivers/CMSIS/Include/cmsis_gcc.h ****   return(result);
 205:Drivers/CMSIS/Include/cmsis_gcc.h **** }
 206:Drivers/CMSIS/Include/cmsis_gcc.h **** 
 207:Drivers/CMSIS/Include/cmsis_gcc.h **** 
 208:Drivers/CMSIS/Include/cmsis_gcc.h **** /**
 209:Drivers/CMSIS/Include/cmsis_gcc.h ****   \brief   Set Priority Mask
 210:Drivers/CMSIS/Include/cmsis_gcc.h ****   \details Assigns the given value to the Priority Mask Register.
 211:Drivers/CMSIS/Include/cmsis_gcc.h ****   \param [in]    priMask  Priority Mask
 212:Drivers/CMSIS/Include/cmsis_gcc.h ****  */
 213:Drivers/CMSIS/Include/cmsis_gcc.h **** __attribute__( ( always_inline ) ) __STATIC_INLINE void __set_PRIMASK(uint32_t priMask)
 214:Drivers/CMSIS/Include/cmsis_gcc.h **** {
 215:Drivers/CMSIS/Include/cmsis_gcc.h ****   __ASM volatile ("MSR primask, %0" : : "r" (priMask) : "memory");
 216:Drivers/CMSIS/Include/cmsis_gcc.h **** }
 217:Drivers/CMSIS/Include/cmsis_gcc.h **** 
 218:Drivers/CMSIS/Include/cmsis_gcc.h **** 
 219:Drivers/CMSIS/Include/cmsis_gcc.h **** #if       (__CORTEX_M >= 0x03U)
 220:Drivers/CMSIS/Include/cmsis_gcc.h **** 
 221:Drivers/CMSIS/Include/cmsis_gcc.h **** /**
 222:Drivers/CMSIS/Include/cmsis_gcc.h ****   \brief   Enable FIQ
 223:Drivers/CMSIS/Include/cmsis_gcc.h ****   \details Enables FIQ interrupts by clearing the F-bit in the CPSR.
 224:Drivers/CMSIS/Include/cmsis_gcc.h ****            Can only be executed in Privileged modes.
 225:Drivers/CMSIS/Include/cmsis_gcc.h ****  */
 226:Drivers/CMSIS/Include/cmsis_gcc.h **** __attribute__( ( always_inline ) ) __STATIC_INLINE void __enable_fault_irq(void)
 227:Drivers/CMSIS/Include/cmsis_gcc.h **** {
 228:Drivers/CMSIS/Include/cmsis_gcc.h ****   __ASM volatile ("cpsie f" : : : "memory");
 229:Drivers/CMSIS/Include/cmsis_gcc.h **** }
 230:Drivers/CMSIS/Include/cmsis_gcc.h **** 
 231:Drivers/CMSIS/Include/cmsis_gcc.h **** 
 232:Drivers/CMSIS/Include/cmsis_gcc.h **** /**
 233:Drivers/CMSIS/Include/cmsis_gcc.h ****   \brief   Disable FIQ
 234:Drivers/CMSIS/Include/cmsis_gcc.h ****   \details Disables FIQ interrupts by setting the F-bit in the CPSR.
 235:Drivers/CMSIS/Include/cmsis_gcc.h ****            Can only be executed in Privileged modes.
 236:Drivers/CMSIS/Include/cmsis_gcc.h ****  */
 237:Drivers/CMSIS/Include/cmsis_gcc.h **** __attribute__( ( always_inline ) ) __STATIC_INLINE void __disable_fault_irq(void)
ARM GAS  /var/folders/8c/gyvcglfx7f97kbqb2h83mm_r0000gn/T//cczE2vDZ.s 			page 10


 238:Drivers/CMSIS/Include/cmsis_gcc.h **** {
 239:Drivers/CMSIS/Include/cmsis_gcc.h ****   __ASM volatile ("cpsid f" : : : "memory");
 240:Drivers/CMSIS/Include/cmsis_gcc.h **** }
 241:Drivers/CMSIS/Include/cmsis_gcc.h **** 
 242:Drivers/CMSIS/Include/cmsis_gcc.h **** 
 243:Drivers/CMSIS/Include/cmsis_gcc.h **** /**
 244:Drivers/CMSIS/Include/cmsis_gcc.h ****   \brief   Get Base Priority
 245:Drivers/CMSIS/Include/cmsis_gcc.h ****   \details Returns the current value of the Base Priority register.
 246:Drivers/CMSIS/Include/cmsis_gcc.h ****   \return               Base Priority register value
 247:Drivers/CMSIS/Include/cmsis_gcc.h ****  */
 248:Drivers/CMSIS/Include/cmsis_gcc.h **** __attribute__( ( always_inline ) ) __STATIC_INLINE uint32_t __get_BASEPRI(void)
 249:Drivers/CMSIS/Include/cmsis_gcc.h **** {
 250:Drivers/CMSIS/Include/cmsis_gcc.h ****   uint32_t result;
 251:Drivers/CMSIS/Include/cmsis_gcc.h **** 
 252:Drivers/CMSIS/Include/cmsis_gcc.h ****   __ASM volatile ("MRS %0, basepri" : "=r" (result) );
 253:Drivers/CMSIS/Include/cmsis_gcc.h ****   return(result);
 254:Drivers/CMSIS/Include/cmsis_gcc.h **** }
 255:Drivers/CMSIS/Include/cmsis_gcc.h **** 
 256:Drivers/CMSIS/Include/cmsis_gcc.h **** 
 257:Drivers/CMSIS/Include/cmsis_gcc.h **** /**
 258:Drivers/CMSIS/Include/cmsis_gcc.h ****   \brief   Set Base Priority
 259:Drivers/CMSIS/Include/cmsis_gcc.h ****   \details Assigns the given value to the Base Priority register.
 260:Drivers/CMSIS/Include/cmsis_gcc.h ****   \param [in]    basePri  Base Priority value to set
 261:Drivers/CMSIS/Include/cmsis_gcc.h ****  */
 262:Drivers/CMSIS/Include/cmsis_gcc.h **** __attribute__( ( always_inline ) ) __STATIC_INLINE void __set_BASEPRI(uint32_t value)
 263:Drivers/CMSIS/Include/cmsis_gcc.h **** {
 264:Drivers/CMSIS/Include/cmsis_gcc.h ****   __ASM volatile ("MSR basepri, %0" : : "r" (value) : "memory");
 265:Drivers/CMSIS/Include/cmsis_gcc.h **** }
 266:Drivers/CMSIS/Include/cmsis_gcc.h **** 
 267:Drivers/CMSIS/Include/cmsis_gcc.h **** 
 268:Drivers/CMSIS/Include/cmsis_gcc.h **** /**
 269:Drivers/CMSIS/Include/cmsis_gcc.h ****   \brief   Set Base Priority with condition
 270:Drivers/CMSIS/Include/cmsis_gcc.h ****   \details Assigns the given value to the Base Priority register only if BASEPRI masking is disable
 271:Drivers/CMSIS/Include/cmsis_gcc.h ****            or the new value increases the BASEPRI priority level.
 272:Drivers/CMSIS/Include/cmsis_gcc.h ****   \param [in]    basePri  Base Priority value to set
 273:Drivers/CMSIS/Include/cmsis_gcc.h ****  */
 274:Drivers/CMSIS/Include/cmsis_gcc.h **** __attribute__( ( always_inline ) ) __STATIC_INLINE void __set_BASEPRI_MAX(uint32_t value)
 275:Drivers/CMSIS/Include/cmsis_gcc.h **** {
 276:Drivers/CMSIS/Include/cmsis_gcc.h ****   __ASM volatile ("MSR basepri_max, %0" : : "r" (value) : "memory");
 277:Drivers/CMSIS/Include/cmsis_gcc.h **** }
 278:Drivers/CMSIS/Include/cmsis_gcc.h **** 
 279:Drivers/CMSIS/Include/cmsis_gcc.h **** 
 280:Drivers/CMSIS/Include/cmsis_gcc.h **** /**
 281:Drivers/CMSIS/Include/cmsis_gcc.h ****   \brief   Get Fault Mask
 282:Drivers/CMSIS/Include/cmsis_gcc.h ****   \details Returns the current value of the Fault Mask register.
 283:Drivers/CMSIS/Include/cmsis_gcc.h ****   \return               Fault Mask register value
 284:Drivers/CMSIS/Include/cmsis_gcc.h ****  */
 285:Drivers/CMSIS/Include/cmsis_gcc.h **** __attribute__( ( always_inline ) ) __STATIC_INLINE uint32_t __get_FAULTMASK(void)
 286:Drivers/CMSIS/Include/cmsis_gcc.h **** {
 287:Drivers/CMSIS/Include/cmsis_gcc.h ****   uint32_t result;
 288:Drivers/CMSIS/Include/cmsis_gcc.h **** 
 289:Drivers/CMSIS/Include/cmsis_gcc.h ****   __ASM volatile ("MRS %0, faultmask" : "=r" (result) );
 290:Drivers/CMSIS/Include/cmsis_gcc.h ****   return(result);
 291:Drivers/CMSIS/Include/cmsis_gcc.h **** }
 292:Drivers/CMSIS/Include/cmsis_gcc.h **** 
 293:Drivers/CMSIS/Include/cmsis_gcc.h **** 
 294:Drivers/CMSIS/Include/cmsis_gcc.h **** /**
ARM GAS  /var/folders/8c/gyvcglfx7f97kbqb2h83mm_r0000gn/T//cczE2vDZ.s 			page 11


 295:Drivers/CMSIS/Include/cmsis_gcc.h ****   \brief   Set Fault Mask
 296:Drivers/CMSIS/Include/cmsis_gcc.h ****   \details Assigns the given value to the Fault Mask register.
 297:Drivers/CMSIS/Include/cmsis_gcc.h ****   \param [in]    faultMask  Fault Mask value to set
 298:Drivers/CMSIS/Include/cmsis_gcc.h ****  */
 299:Drivers/CMSIS/Include/cmsis_gcc.h **** __attribute__( ( always_inline ) ) __STATIC_INLINE void __set_FAULTMASK(uint32_t faultMask)
 300:Drivers/CMSIS/Include/cmsis_gcc.h **** {
 301:Drivers/CMSIS/Include/cmsis_gcc.h ****   __ASM volatile ("MSR faultmask, %0" : : "r" (faultMask) : "memory");
 302:Drivers/CMSIS/Include/cmsis_gcc.h **** }
 303:Drivers/CMSIS/Include/cmsis_gcc.h **** 
 304:Drivers/CMSIS/Include/cmsis_gcc.h **** #endif /* (__CORTEX_M >= 0x03U) */
 305:Drivers/CMSIS/Include/cmsis_gcc.h **** 
 306:Drivers/CMSIS/Include/cmsis_gcc.h **** 
 307:Drivers/CMSIS/Include/cmsis_gcc.h **** #if       (__CORTEX_M == 0x04U) || (__CORTEX_M == 0x07U)
 308:Drivers/CMSIS/Include/cmsis_gcc.h **** 
 309:Drivers/CMSIS/Include/cmsis_gcc.h **** /**
 310:Drivers/CMSIS/Include/cmsis_gcc.h ****   \brief   Get FPSCR
 311:Drivers/CMSIS/Include/cmsis_gcc.h ****   \details Returns the current value of the Floating Point Status/Control register.
 312:Drivers/CMSIS/Include/cmsis_gcc.h ****   \return               Floating Point Status/Control register value
 313:Drivers/CMSIS/Include/cmsis_gcc.h ****  */
 314:Drivers/CMSIS/Include/cmsis_gcc.h **** __attribute__( ( always_inline ) ) __STATIC_INLINE uint32_t __get_FPSCR(void)
 315:Drivers/CMSIS/Include/cmsis_gcc.h **** {
 316:Drivers/CMSIS/Include/cmsis_gcc.h **** #if (__FPU_PRESENT == 1U) && (__FPU_USED == 1U)
 317:Drivers/CMSIS/Include/cmsis_gcc.h ****   uint32_t result;
 318:Drivers/CMSIS/Include/cmsis_gcc.h **** 
 319:Drivers/CMSIS/Include/cmsis_gcc.h ****   /* Empty asm statement works as a scheduling barrier */
 320:Drivers/CMSIS/Include/cmsis_gcc.h ****   __ASM volatile ("");
 321:Drivers/CMSIS/Include/cmsis_gcc.h ****   __ASM volatile ("VMRS %0, fpscr" : "=r" (result) );
 322:Drivers/CMSIS/Include/cmsis_gcc.h ****   __ASM volatile ("");
 323:Drivers/CMSIS/Include/cmsis_gcc.h ****   return(result);
 324:Drivers/CMSIS/Include/cmsis_gcc.h **** #else
 325:Drivers/CMSIS/Include/cmsis_gcc.h ****    return(0);
 326:Drivers/CMSIS/Include/cmsis_gcc.h **** #endif
 327:Drivers/CMSIS/Include/cmsis_gcc.h **** }
 328:Drivers/CMSIS/Include/cmsis_gcc.h **** 
 329:Drivers/CMSIS/Include/cmsis_gcc.h **** 
 330:Drivers/CMSIS/Include/cmsis_gcc.h **** /**
 331:Drivers/CMSIS/Include/cmsis_gcc.h ****   \brief   Set FPSCR
 332:Drivers/CMSIS/Include/cmsis_gcc.h ****   \details Assigns the given value to the Floating Point Status/Control register.
 333:Drivers/CMSIS/Include/cmsis_gcc.h ****   \param [in]    fpscr  Floating Point Status/Control value to set
 334:Drivers/CMSIS/Include/cmsis_gcc.h ****  */
 335:Drivers/CMSIS/Include/cmsis_gcc.h **** __attribute__( ( always_inline ) ) __STATIC_INLINE void __set_FPSCR(uint32_t fpscr)
 336:Drivers/CMSIS/Include/cmsis_gcc.h **** {
 337:Drivers/CMSIS/Include/cmsis_gcc.h **** #if (__FPU_PRESENT == 1U) && (__FPU_USED == 1U)
 338:Drivers/CMSIS/Include/cmsis_gcc.h ****   /* Empty asm statement works as a scheduling barrier */
 339:Drivers/CMSIS/Include/cmsis_gcc.h ****   __ASM volatile ("");
 340:Drivers/CMSIS/Include/cmsis_gcc.h ****   __ASM volatile ("VMSR fpscr, %0" : : "r" (fpscr) : "vfpcc");
 341:Drivers/CMSIS/Include/cmsis_gcc.h ****   __ASM volatile ("");
 342:Drivers/CMSIS/Include/cmsis_gcc.h **** #endif
 343:Drivers/CMSIS/Include/cmsis_gcc.h **** }
 344:Drivers/CMSIS/Include/cmsis_gcc.h **** 
 345:Drivers/CMSIS/Include/cmsis_gcc.h **** #endif /* (__CORTEX_M == 0x04U) || (__CORTEX_M == 0x07U) */
 346:Drivers/CMSIS/Include/cmsis_gcc.h **** 
 347:Drivers/CMSIS/Include/cmsis_gcc.h **** 
 348:Drivers/CMSIS/Include/cmsis_gcc.h **** 
 349:Drivers/CMSIS/Include/cmsis_gcc.h **** /*@} end of CMSIS_Core_RegAccFunctions */
 350:Drivers/CMSIS/Include/cmsis_gcc.h **** 
 351:Drivers/CMSIS/Include/cmsis_gcc.h **** 
ARM GAS  /var/folders/8c/gyvcglfx7f97kbqb2h83mm_r0000gn/T//cczE2vDZ.s 			page 12


 352:Drivers/CMSIS/Include/cmsis_gcc.h **** /* ##########################  Core Instruction Access  ######################### */
 353:Drivers/CMSIS/Include/cmsis_gcc.h **** /** \defgroup CMSIS_Core_InstructionInterface CMSIS Core Instruction Interface
 354:Drivers/CMSIS/Include/cmsis_gcc.h ****   Access to dedicated instructions
 355:Drivers/CMSIS/Include/cmsis_gcc.h ****   @{
 356:Drivers/CMSIS/Include/cmsis_gcc.h **** */
 357:Drivers/CMSIS/Include/cmsis_gcc.h **** 
 358:Drivers/CMSIS/Include/cmsis_gcc.h **** /* Define macros for porting to both thumb1 and thumb2.
 359:Drivers/CMSIS/Include/cmsis_gcc.h ****  * For thumb1, use low register (r0-r7), specified by constraint "l"
 360:Drivers/CMSIS/Include/cmsis_gcc.h ****  * Otherwise, use general registers, specified by constraint "r" */
 361:Drivers/CMSIS/Include/cmsis_gcc.h **** #if defined (__thumb__) && !defined (__thumb2__)
 362:Drivers/CMSIS/Include/cmsis_gcc.h **** #define __CMSIS_GCC_OUT_REG(r) "=l" (r)
 363:Drivers/CMSIS/Include/cmsis_gcc.h **** #define __CMSIS_GCC_USE_REG(r) "l" (r)
 364:Drivers/CMSIS/Include/cmsis_gcc.h **** #else
 365:Drivers/CMSIS/Include/cmsis_gcc.h **** #define __CMSIS_GCC_OUT_REG(r) "=r" (r)
 366:Drivers/CMSIS/Include/cmsis_gcc.h **** #define __CMSIS_GCC_USE_REG(r) "r" (r)
 367:Drivers/CMSIS/Include/cmsis_gcc.h **** #endif
 368:Drivers/CMSIS/Include/cmsis_gcc.h **** 
 369:Drivers/CMSIS/Include/cmsis_gcc.h **** /**
 370:Drivers/CMSIS/Include/cmsis_gcc.h ****   \brief   No Operation
 371:Drivers/CMSIS/Include/cmsis_gcc.h ****   \details No Operation does nothing. This instruction can be used for code alignment purposes.
 372:Drivers/CMSIS/Include/cmsis_gcc.h ****  */
 373:Drivers/CMSIS/Include/cmsis_gcc.h **** __attribute__((always_inline)) __STATIC_INLINE void __NOP(void)
 374:Drivers/CMSIS/Include/cmsis_gcc.h **** {
 375:Drivers/CMSIS/Include/cmsis_gcc.h ****   __ASM volatile ("nop");
 376:Drivers/CMSIS/Include/cmsis_gcc.h **** }
 377:Drivers/CMSIS/Include/cmsis_gcc.h **** 
 378:Drivers/CMSIS/Include/cmsis_gcc.h **** 
 379:Drivers/CMSIS/Include/cmsis_gcc.h **** /**
 380:Drivers/CMSIS/Include/cmsis_gcc.h ****   \brief   Wait For Interrupt
 381:Drivers/CMSIS/Include/cmsis_gcc.h ****   \details Wait For Interrupt is a hint instruction that suspends execution until one of a number o
 382:Drivers/CMSIS/Include/cmsis_gcc.h ****  */
 383:Drivers/CMSIS/Include/cmsis_gcc.h **** __attribute__((always_inline)) __STATIC_INLINE void __WFI(void)
 384:Drivers/CMSIS/Include/cmsis_gcc.h **** {
 385:Drivers/CMSIS/Include/cmsis_gcc.h ****   __ASM volatile ("wfi");
 386:Drivers/CMSIS/Include/cmsis_gcc.h **** }
 387:Drivers/CMSIS/Include/cmsis_gcc.h **** 
 388:Drivers/CMSIS/Include/cmsis_gcc.h **** 
 389:Drivers/CMSIS/Include/cmsis_gcc.h **** /**
 390:Drivers/CMSIS/Include/cmsis_gcc.h ****   \brief   Wait For Event
 391:Drivers/CMSIS/Include/cmsis_gcc.h ****   \details Wait For Event is a hint instruction that permits the processor to enter
 392:Drivers/CMSIS/Include/cmsis_gcc.h ****     a low-power state until one of a number of events occurs.
 393:Drivers/CMSIS/Include/cmsis_gcc.h ****  */
 394:Drivers/CMSIS/Include/cmsis_gcc.h **** __attribute__((always_inline)) __STATIC_INLINE void __WFE(void)
 395:Drivers/CMSIS/Include/cmsis_gcc.h **** {
 396:Drivers/CMSIS/Include/cmsis_gcc.h ****   __ASM volatile ("wfe");
 397:Drivers/CMSIS/Include/cmsis_gcc.h **** }
 398:Drivers/CMSIS/Include/cmsis_gcc.h **** 
 399:Drivers/CMSIS/Include/cmsis_gcc.h **** 
 400:Drivers/CMSIS/Include/cmsis_gcc.h **** /**
 401:Drivers/CMSIS/Include/cmsis_gcc.h ****   \brief   Send Event
 402:Drivers/CMSIS/Include/cmsis_gcc.h ****   \details Send Event is a hint instruction. It causes an event to be signaled to the CPU.
 403:Drivers/CMSIS/Include/cmsis_gcc.h ****  */
 404:Drivers/CMSIS/Include/cmsis_gcc.h **** __attribute__((always_inline)) __STATIC_INLINE void __SEV(void)
 405:Drivers/CMSIS/Include/cmsis_gcc.h **** {
 406:Drivers/CMSIS/Include/cmsis_gcc.h ****   __ASM volatile ("sev");
 407:Drivers/CMSIS/Include/cmsis_gcc.h **** }
 408:Drivers/CMSIS/Include/cmsis_gcc.h **** 
ARM GAS  /var/folders/8c/gyvcglfx7f97kbqb2h83mm_r0000gn/T//cczE2vDZ.s 			page 13


 409:Drivers/CMSIS/Include/cmsis_gcc.h **** 
 410:Drivers/CMSIS/Include/cmsis_gcc.h **** /**
 411:Drivers/CMSIS/Include/cmsis_gcc.h ****   \brief   Instruction Synchronization Barrier
 412:Drivers/CMSIS/Include/cmsis_gcc.h ****   \details Instruction Synchronization Barrier flushes the pipeline in the processor,
 413:Drivers/CMSIS/Include/cmsis_gcc.h ****            so that all instructions following the ISB are fetched from cache or memory,
 414:Drivers/CMSIS/Include/cmsis_gcc.h ****            after the instruction has been completed.
 415:Drivers/CMSIS/Include/cmsis_gcc.h ****  */
 416:Drivers/CMSIS/Include/cmsis_gcc.h **** __attribute__((always_inline)) __STATIC_INLINE void __ISB(void)
 417:Drivers/CMSIS/Include/cmsis_gcc.h **** {
 418:Drivers/CMSIS/Include/cmsis_gcc.h ****   __ASM volatile ("isb 0xF":::"memory");
 419:Drivers/CMSIS/Include/cmsis_gcc.h **** }
 420:Drivers/CMSIS/Include/cmsis_gcc.h **** 
 421:Drivers/CMSIS/Include/cmsis_gcc.h **** 
 422:Drivers/CMSIS/Include/cmsis_gcc.h **** /**
 423:Drivers/CMSIS/Include/cmsis_gcc.h ****   \brief   Data Synchronization Barrier
 424:Drivers/CMSIS/Include/cmsis_gcc.h ****   \details Acts as a special kind of Data Memory Barrier.
 425:Drivers/CMSIS/Include/cmsis_gcc.h ****            It completes when all explicit memory accesses before this instruction complete.
 426:Drivers/CMSIS/Include/cmsis_gcc.h ****  */
 427:Drivers/CMSIS/Include/cmsis_gcc.h **** __attribute__((always_inline)) __STATIC_INLINE void __DSB(void)
 428:Drivers/CMSIS/Include/cmsis_gcc.h **** {
 429:Drivers/CMSIS/Include/cmsis_gcc.h ****   __ASM volatile ("dsb 0xF":::"memory");
 430:Drivers/CMSIS/Include/cmsis_gcc.h **** }
 431:Drivers/CMSIS/Include/cmsis_gcc.h **** 
 432:Drivers/CMSIS/Include/cmsis_gcc.h **** 
 433:Drivers/CMSIS/Include/cmsis_gcc.h **** /**
 434:Drivers/CMSIS/Include/cmsis_gcc.h ****   \brief   Data Memory Barrier
 435:Drivers/CMSIS/Include/cmsis_gcc.h ****   \details Ensures the apparent order of the explicit memory operations before
 436:Drivers/CMSIS/Include/cmsis_gcc.h ****            and after the instruction, without ensuring their completion.
 437:Drivers/CMSIS/Include/cmsis_gcc.h ****  */
 438:Drivers/CMSIS/Include/cmsis_gcc.h **** __attribute__((always_inline)) __STATIC_INLINE void __DMB(void)
 439:Drivers/CMSIS/Include/cmsis_gcc.h **** {
 440:Drivers/CMSIS/Include/cmsis_gcc.h ****   __ASM volatile ("dmb 0xF":::"memory");
 441:Drivers/CMSIS/Include/cmsis_gcc.h **** }
 442:Drivers/CMSIS/Include/cmsis_gcc.h **** 
 443:Drivers/CMSIS/Include/cmsis_gcc.h **** 
 444:Drivers/CMSIS/Include/cmsis_gcc.h **** /**
 445:Drivers/CMSIS/Include/cmsis_gcc.h ****   \brief   Reverse byte order (32 bit)
 446:Drivers/CMSIS/Include/cmsis_gcc.h ****   \details Reverses the byte order in integer value.
 447:Drivers/CMSIS/Include/cmsis_gcc.h ****   \param [in]    value  Value to reverse
 448:Drivers/CMSIS/Include/cmsis_gcc.h ****   \return               Reversed value
 449:Drivers/CMSIS/Include/cmsis_gcc.h ****  */
 450:Drivers/CMSIS/Include/cmsis_gcc.h **** __attribute__((always_inline)) __STATIC_INLINE uint32_t __REV(uint32_t value)
 451:Drivers/CMSIS/Include/cmsis_gcc.h **** {
 452:Drivers/CMSIS/Include/cmsis_gcc.h **** #if (__GNUC__ > 4) || (__GNUC__ == 4 && __GNUC_MINOR__ >= 5)
 453:Drivers/CMSIS/Include/cmsis_gcc.h ****   return __builtin_bswap32(value);
 454:Drivers/CMSIS/Include/cmsis_gcc.h **** #else
 455:Drivers/CMSIS/Include/cmsis_gcc.h ****   uint32_t result;
 456:Drivers/CMSIS/Include/cmsis_gcc.h **** 
 457:Drivers/CMSIS/Include/cmsis_gcc.h ****   __ASM volatile ("rev %0, %1" : __CMSIS_GCC_OUT_REG (result) : __CMSIS_GCC_USE_REG (value) );
 458:Drivers/CMSIS/Include/cmsis_gcc.h ****   return(result);
 459:Drivers/CMSIS/Include/cmsis_gcc.h **** #endif
 460:Drivers/CMSIS/Include/cmsis_gcc.h **** }
 461:Drivers/CMSIS/Include/cmsis_gcc.h **** 
 462:Drivers/CMSIS/Include/cmsis_gcc.h **** 
 463:Drivers/CMSIS/Include/cmsis_gcc.h **** /**
 464:Drivers/CMSIS/Include/cmsis_gcc.h ****   \brief   Reverse byte order (16 bit)
 465:Drivers/CMSIS/Include/cmsis_gcc.h ****   \details Reverses the byte order in two unsigned short values.
ARM GAS  /var/folders/8c/gyvcglfx7f97kbqb2h83mm_r0000gn/T//cczE2vDZ.s 			page 14


 466:Drivers/CMSIS/Include/cmsis_gcc.h ****   \param [in]    value  Value to reverse
 467:Drivers/CMSIS/Include/cmsis_gcc.h ****   \return               Reversed value
 468:Drivers/CMSIS/Include/cmsis_gcc.h ****  */
 469:Drivers/CMSIS/Include/cmsis_gcc.h **** __attribute__((always_inline)) __STATIC_INLINE uint32_t __REV16(uint32_t value)
 470:Drivers/CMSIS/Include/cmsis_gcc.h **** {
 471:Drivers/CMSIS/Include/cmsis_gcc.h ****   uint32_t result;
 472:Drivers/CMSIS/Include/cmsis_gcc.h **** 
 473:Drivers/CMSIS/Include/cmsis_gcc.h ****   __ASM volatile ("rev16 %0, %1" : __CMSIS_GCC_OUT_REG (result) : __CMSIS_GCC_USE_REG (value) );
 474:Drivers/CMSIS/Include/cmsis_gcc.h ****   return(result);
 475:Drivers/CMSIS/Include/cmsis_gcc.h **** }
 476:Drivers/CMSIS/Include/cmsis_gcc.h **** 
 477:Drivers/CMSIS/Include/cmsis_gcc.h **** 
 478:Drivers/CMSIS/Include/cmsis_gcc.h **** /**
 479:Drivers/CMSIS/Include/cmsis_gcc.h ****   \brief   Reverse byte order in signed short value
 480:Drivers/CMSIS/Include/cmsis_gcc.h ****   \details Reverses the byte order in a signed short value with sign extension to integer.
 481:Drivers/CMSIS/Include/cmsis_gcc.h ****   \param [in]    value  Value to reverse
 482:Drivers/CMSIS/Include/cmsis_gcc.h ****   \return               Reversed value
 483:Drivers/CMSIS/Include/cmsis_gcc.h ****  */
 484:Drivers/CMSIS/Include/cmsis_gcc.h **** __attribute__((always_inline)) __STATIC_INLINE int32_t __REVSH(int32_t value)
 485:Drivers/CMSIS/Include/cmsis_gcc.h **** {
 486:Drivers/CMSIS/Include/cmsis_gcc.h **** #if (__GNUC__ > 4) || (__GNUC__ == 4 && __GNUC_MINOR__ >= 8)
 487:Drivers/CMSIS/Include/cmsis_gcc.h ****   return (short)__builtin_bswap16(value);
 488:Drivers/CMSIS/Include/cmsis_gcc.h **** #else
 489:Drivers/CMSIS/Include/cmsis_gcc.h ****   int32_t result;
 490:Drivers/CMSIS/Include/cmsis_gcc.h **** 
 491:Drivers/CMSIS/Include/cmsis_gcc.h ****   __ASM volatile ("revsh %0, %1" : __CMSIS_GCC_OUT_REG (result) : __CMSIS_GCC_USE_REG (value) );
 492:Drivers/CMSIS/Include/cmsis_gcc.h ****   return(result);
 493:Drivers/CMSIS/Include/cmsis_gcc.h **** #endif
 494:Drivers/CMSIS/Include/cmsis_gcc.h **** }
 495:Drivers/CMSIS/Include/cmsis_gcc.h **** 
 496:Drivers/CMSIS/Include/cmsis_gcc.h **** 
 497:Drivers/CMSIS/Include/cmsis_gcc.h **** /**
 498:Drivers/CMSIS/Include/cmsis_gcc.h ****   \brief   Rotate Right in unsigned value (32 bit)
 499:Drivers/CMSIS/Include/cmsis_gcc.h ****   \details Rotate Right (immediate) provides the value of the contents of a register rotated by a v
 500:Drivers/CMSIS/Include/cmsis_gcc.h ****   \param [in]    value  Value to rotate
 501:Drivers/CMSIS/Include/cmsis_gcc.h ****   \param [in]    value  Number of Bits to rotate
 502:Drivers/CMSIS/Include/cmsis_gcc.h ****   \return               Rotated value
 503:Drivers/CMSIS/Include/cmsis_gcc.h ****  */
 504:Drivers/CMSIS/Include/cmsis_gcc.h **** __attribute__((always_inline)) __STATIC_INLINE uint32_t __ROR(uint32_t op1, uint32_t op2)
 505:Drivers/CMSIS/Include/cmsis_gcc.h **** {
 506:Drivers/CMSIS/Include/cmsis_gcc.h ****   return (op1 >> op2) | (op1 << (32U - op2));
 507:Drivers/CMSIS/Include/cmsis_gcc.h **** }
 508:Drivers/CMSIS/Include/cmsis_gcc.h **** 
 509:Drivers/CMSIS/Include/cmsis_gcc.h **** 
 510:Drivers/CMSIS/Include/cmsis_gcc.h **** /**
 511:Drivers/CMSIS/Include/cmsis_gcc.h ****   \brief   Breakpoint
 512:Drivers/CMSIS/Include/cmsis_gcc.h ****   \details Causes the processor to enter Debug state.
 513:Drivers/CMSIS/Include/cmsis_gcc.h ****            Debug tools can use this to investigate system state when the instruction at a particula
 514:Drivers/CMSIS/Include/cmsis_gcc.h ****   \param [in]    value  is ignored by the processor.
 515:Drivers/CMSIS/Include/cmsis_gcc.h ****                  If required, a debugger can use it to store additional information about the break
 516:Drivers/CMSIS/Include/cmsis_gcc.h ****  */
 517:Drivers/CMSIS/Include/cmsis_gcc.h **** #define __BKPT(value)                       __ASM volatile ("bkpt "#value)
 518:Drivers/CMSIS/Include/cmsis_gcc.h **** 
 519:Drivers/CMSIS/Include/cmsis_gcc.h **** 
 520:Drivers/CMSIS/Include/cmsis_gcc.h **** /**
 521:Drivers/CMSIS/Include/cmsis_gcc.h ****   \brief   Reverse bit order of value
 522:Drivers/CMSIS/Include/cmsis_gcc.h ****   \details Reverses the bit order of the given value.
ARM GAS  /var/folders/8c/gyvcglfx7f97kbqb2h83mm_r0000gn/T//cczE2vDZ.s 			page 15


 523:Drivers/CMSIS/Include/cmsis_gcc.h ****   \param [in]    value  Value to reverse
 524:Drivers/CMSIS/Include/cmsis_gcc.h ****   \return               Reversed value
 525:Drivers/CMSIS/Include/cmsis_gcc.h ****  */
 526:Drivers/CMSIS/Include/cmsis_gcc.h **** __attribute__((always_inline)) __STATIC_INLINE uint32_t __RBIT(uint32_t value)
 527:Drivers/CMSIS/Include/cmsis_gcc.h **** {
 528:Drivers/CMSIS/Include/cmsis_gcc.h ****   uint32_t result;
 529:Drivers/CMSIS/Include/cmsis_gcc.h **** 
 530:Drivers/CMSIS/Include/cmsis_gcc.h **** #if       (__CORTEX_M >= 0x03U) || (__CORTEX_SC >= 300U)
 531:Drivers/CMSIS/Include/cmsis_gcc.h ****    __ASM volatile ("rbit %0, %1" : "=r" (result) : "r" (value) );
 109              		.loc 2 531 4 view .LVU29
 110 003c 4FF48033 		mov	r3, #65536
 111              	.LBE50:
 112              	.LBE49:
 113              		.loc 1 166 16 view .LVU30
 114 0040 21F44070 		bic	r0, r1, #768
 115              	.LVL7:
 167:Drivers/STM32F3xx_HAL_Driver/Src/stm32f3xx_hal_rcc_ex.c ****       /* RTC Clock selection can be changed only if the Backup Domain is reset */
 168:Drivers/STM32F3xx_HAL_Driver/Src/stm32f3xx_hal_rcc_ex.c ****       __HAL_RCC_BACKUPRESET_FORCE();
 116              		.loc 1 168 7 is_stmt 1 view .LVU31
 117              	.LBB52:
 118              	.LBI49:
 526:Drivers/CMSIS/Include/cmsis_gcc.h **** {
 119              		.loc 2 526 57 view .LVU32
 120              	.LBB51:
 528:Drivers/CMSIS/Include/cmsis_gcc.h **** 
 121              		.loc 2 528 3 view .LVU33
 122              		.loc 2 531 4 view .LVU34
 123              		.syntax unified
 124              	@ 531 "Drivers/CMSIS/Include/cmsis_gcc.h" 1
 125 0044 93FAA3F2 		rbit r2, r3
 126              	@ 0 "" 2
 127              	.LVL8:
 532:Drivers/CMSIS/Include/cmsis_gcc.h **** #else
 533:Drivers/CMSIS/Include/cmsis_gcc.h ****   int32_t s = 4 /*sizeof(v)*/ * 8 - 1; /* extra shift needed at end */
 534:Drivers/CMSIS/Include/cmsis_gcc.h **** 
 535:Drivers/CMSIS/Include/cmsis_gcc.h ****   result = value;                      /* r will be reversed bits of v; first get LSB of v */
 536:Drivers/CMSIS/Include/cmsis_gcc.h ****   for (value >>= 1U; value; value >>= 1U)
 537:Drivers/CMSIS/Include/cmsis_gcc.h ****   {
 538:Drivers/CMSIS/Include/cmsis_gcc.h ****     result <<= 1U;
 539:Drivers/CMSIS/Include/cmsis_gcc.h ****     result |= value & 1U;
 540:Drivers/CMSIS/Include/cmsis_gcc.h ****     s--;
 541:Drivers/CMSIS/Include/cmsis_gcc.h ****   }
 542:Drivers/CMSIS/Include/cmsis_gcc.h ****   result <<= s;                        /* shift when v's highest bits are zero */
 543:Drivers/CMSIS/Include/cmsis_gcc.h **** #endif
 544:Drivers/CMSIS/Include/cmsis_gcc.h ****   return(result);
 128              		.loc 2 544 3 view .LVU35
 129              		.loc 2 544 3 is_stmt 0 view .LVU36
 130              		.thumb
 131              		.syntax unified
 132              	.LBE51:
 133              	.LBE52:
 134              		.loc 1 168 7 view .LVU37
 135 0048 964F     		ldr	r7, .L105+8
 136 004a B2FA82F2 		clz	r2, r2
 137 004e 3A44     		add	r2, r2, r7
 138 0050 9200     		lsls	r2, r2, #2
 139 0052 4FF0010C 		mov	ip, #1
ARM GAS  /var/folders/8c/gyvcglfx7f97kbqb2h83mm_r0000gn/T//cczE2vDZ.s 			page 16


 140 0056 C2F800C0 		str	ip, [r2]
 169:Drivers/STM32F3xx_HAL_Driver/Src/stm32f3xx_hal_rcc_ex.c ****       __HAL_RCC_BACKUPRESET_RELEASE();
 141              		.loc 1 169 7 is_stmt 1 view .LVU38
 142              	.LVL9:
 143              	.LBB53:
 144              	.LBI53:
 526:Drivers/CMSIS/Include/cmsis_gcc.h **** {
 145              		.loc 2 526 57 view .LVU39
 146              	.LBB54:
 528:Drivers/CMSIS/Include/cmsis_gcc.h **** 
 147              		.loc 2 528 3 view .LVU40
 531:Drivers/CMSIS/Include/cmsis_gcc.h **** #else
 148              		.loc 2 531 4 view .LVU41
 149              		.syntax unified
 150              	@ 531 "Drivers/CMSIS/Include/cmsis_gcc.h" 1
 151 005a 93FAA3F3 		rbit r3, r3
 152              	@ 0 "" 2
 153              	.LVL10:
 154              		.loc 2 544 3 view .LVU42
 155              		.loc 2 544 3 is_stmt 0 view .LVU43
 156              		.thumb
 157              		.syntax unified
 158              	.LBE54:
 159              	.LBE53:
 160              		.loc 1 169 7 view .LVU44
 161 005e B3FA83F3 		clz	r3, r3
 162 0062 3B44     		add	r3, r3, r7
 163 0064 9B00     		lsls	r3, r3, #2
 164 0066 0022     		movs	r2, #0
 165 0068 1A60     		str	r2, [r3]
 170:Drivers/STM32F3xx_HAL_Driver/Src/stm32f3xx_hal_rcc_ex.c ****       /* Restore the Content of BDCR register */
 171:Drivers/STM32F3xx_HAL_Driver/Src/stm32f3xx_hal_rcc_ex.c ****       RCC->BDCR = temp_reg;
 166              		.loc 1 171 7 is_stmt 1 view .LVU45
 172:Drivers/STM32F3xx_HAL_Driver/Src/stm32f3xx_hal_rcc_ex.c ****     
 173:Drivers/STM32F3xx_HAL_Driver/Src/stm32f3xx_hal_rcc_ex.c ****       /* Wait for LSERDY if LSE was enabled */
 174:Drivers/STM32F3xx_HAL_Driver/Src/stm32f3xx_hal_rcc_ex.c ****       if (HAL_IS_BIT_SET(temp_reg, RCC_BDCR_LSEON))
 167              		.loc 1 174 10 is_stmt 0 view .LVU46
 168 006a CA07     		lsls	r2, r1, #31
 171:Drivers/STM32F3xx_HAL_Driver/Src/stm32f3xx_hal_rcc_ex.c ****     
 169              		.loc 1 171 17 view .LVU47
 170 006c 2862     		str	r0, [r5, #32]
 171              		.loc 1 174 7 is_stmt 1 view .LVU48
 172              		.loc 1 174 10 is_stmt 0 view .LVU49
 173 006e 00F1F080 		bmi	.L11
 174              	.LVL11:
 175              	.L100:
 176              		.loc 1 174 10 view .LVU50
 177 0072 6168     		ldr	r1, [r4, #4]
 178              	.L6:
 175:Drivers/STM32F3xx_HAL_Driver/Src/stm32f3xx_hal_rcc_ex.c ****       {
 176:Drivers/STM32F3xx_HAL_Driver/Src/stm32f3xx_hal_rcc_ex.c ****         /* Get Start Tick */
 177:Drivers/STM32F3xx_HAL_Driver/Src/stm32f3xx_hal_rcc_ex.c ****         tickstart = HAL_GetTick();
 178:Drivers/STM32F3xx_HAL_Driver/Src/stm32f3xx_hal_rcc_ex.c ****         
 179:Drivers/STM32F3xx_HAL_Driver/Src/stm32f3xx_hal_rcc_ex.c ****         /* Wait till LSE is ready */  
 180:Drivers/STM32F3xx_HAL_Driver/Src/stm32f3xx_hal_rcc_ex.c ****         while(__HAL_RCC_GET_FLAG(RCC_FLAG_LSERDY) == RESET)
 181:Drivers/STM32F3xx_HAL_Driver/Src/stm32f3xx_hal_rcc_ex.c ****         {
 182:Drivers/STM32F3xx_HAL_Driver/Src/stm32f3xx_hal_rcc_ex.c ****             if((HAL_GetTick() - tickstart) > RCC_LSE_TIMEOUT_VALUE)
ARM GAS  /var/folders/8c/gyvcglfx7f97kbqb2h83mm_r0000gn/T//cczE2vDZ.s 			page 17


 183:Drivers/STM32F3xx_HAL_Driver/Src/stm32f3xx_hal_rcc_ex.c ****           {
 184:Drivers/STM32F3xx_HAL_Driver/Src/stm32f3xx_hal_rcc_ex.c ****             return HAL_TIMEOUT;
 185:Drivers/STM32F3xx_HAL_Driver/Src/stm32f3xx_hal_rcc_ex.c ****           }      
 186:Drivers/STM32F3xx_HAL_Driver/Src/stm32f3xx_hal_rcc_ex.c ****         }  
 187:Drivers/STM32F3xx_HAL_Driver/Src/stm32f3xx_hal_rcc_ex.c ****       }
 188:Drivers/STM32F3xx_HAL_Driver/Src/stm32f3xx_hal_rcc_ex.c ****     }
 189:Drivers/STM32F3xx_HAL_Driver/Src/stm32f3xx_hal_rcc_ex.c ****     __HAL_RCC_RTC_CONFIG(PeriphClkInit->RTCClockSelection); 
 179              		.loc 1 189 5 is_stmt 1 view .LVU51
 180 0074 894A     		ldr	r2, .L105
 181 0076 136A     		ldr	r3, [r2, #32]
 182 0078 23F44073 		bic	r3, r3, #768
 183 007c 0B43     		orrs	r3, r3, r1
 184 007e 1362     		str	r3, [r2, #32]
 190:Drivers/STM32F3xx_HAL_Driver/Src/stm32f3xx_hal_rcc_ex.c **** 
 191:Drivers/STM32F3xx_HAL_Driver/Src/stm32f3xx_hal_rcc_ex.c ****     /* Require to disable power clock if necessary */
 192:Drivers/STM32F3xx_HAL_Driver/Src/stm32f3xx_hal_rcc_ex.c ****     if(pwrclkchanged == SET)
 185              		.loc 1 192 5 view .LVU52
 186 0080 2068     		ldr	r0, [r4]
 187              		.loc 1 192 7 is_stmt 0 view .LVU53
 188 0082 002E     		cmp	r6, #0
 189 0084 40F0DD80 		bne	.L103
 190              	.LVL12:
 191              	.L2:
 192              		.loc 1 192 7 view .LVU54
 193              	.LBE48:
 193:Drivers/STM32F3xx_HAL_Driver/Src/stm32f3xx_hal_rcc_ex.c ****     {
 194:Drivers/STM32F3xx_HAL_Driver/Src/stm32f3xx_hal_rcc_ex.c ****       __HAL_RCC_PWR_CLK_DISABLE();
 195:Drivers/STM32F3xx_HAL_Driver/Src/stm32f3xx_hal_rcc_ex.c ****     }
 196:Drivers/STM32F3xx_HAL_Driver/Src/stm32f3xx_hal_rcc_ex.c ****   }
 197:Drivers/STM32F3xx_HAL_Driver/Src/stm32f3xx_hal_rcc_ex.c **** 
 198:Drivers/STM32F3xx_HAL_Driver/Src/stm32f3xx_hal_rcc_ex.c ****   /*------------------------------- USART1 Configuration ------------------------*/
 199:Drivers/STM32F3xx_HAL_Driver/Src/stm32f3xx_hal_rcc_ex.c ****   if(((PeriphClkInit->PeriphClockSelection) & RCC_PERIPHCLK_USART1) == RCC_PERIPHCLK_USART1)
 194              		.loc 1 199 3 is_stmt 1 view .LVU55
 195              		.loc 1 199 5 is_stmt 0 view .LVU56
 196 0088 C307     		lsls	r3, r0, #31
 197 008a 06D5     		bpl	.L17
 198              	.L104:
 200:Drivers/STM32F3xx_HAL_Driver/Src/stm32f3xx_hal_rcc_ex.c ****   {
 201:Drivers/STM32F3xx_HAL_Driver/Src/stm32f3xx_hal_rcc_ex.c ****     /* Check the parameters */
 202:Drivers/STM32F3xx_HAL_Driver/Src/stm32f3xx_hal_rcc_ex.c ****     assert_param(IS_RCC_USART1CLKSOURCE(PeriphClkInit->Usart1ClockSelection));
 199              		.loc 1 202 5 is_stmt 1 view .LVU57
 203:Drivers/STM32F3xx_HAL_Driver/Src/stm32f3xx_hal_rcc_ex.c ****     
 204:Drivers/STM32F3xx_HAL_Driver/Src/stm32f3xx_hal_rcc_ex.c ****     /* Configure the USART1 clock source */
 205:Drivers/STM32F3xx_HAL_Driver/Src/stm32f3xx_hal_rcc_ex.c ****     __HAL_RCC_USART1_CONFIG(PeriphClkInit->Usart1ClockSelection);
 200              		.loc 1 205 5 view .LVU58
 201 008c 834A     		ldr	r2, .L105
 202 008e A168     		ldr	r1, [r4, #8]
 203 0090 136B     		ldr	r3, [r2, #48]
 204 0092 23F00303 		bic	r3, r3, #3
 205 0096 0B43     		orrs	r3, r3, r1
 206 0098 1363     		str	r3, [r2, #48]
 207              	.L17:
 206:Drivers/STM32F3xx_HAL_Driver/Src/stm32f3xx_hal_rcc_ex.c ****   }
 207:Drivers/STM32F3xx_HAL_Driver/Src/stm32f3xx_hal_rcc_ex.c **** 
 208:Drivers/STM32F3xx_HAL_Driver/Src/stm32f3xx_hal_rcc_ex.c **** #if defined(RCC_CFGR3_USART2SW)
 209:Drivers/STM32F3xx_HAL_Driver/Src/stm32f3xx_hal_rcc_ex.c ****   /*----------------------------- USART2 Configuration --------------------------*/ 
 210:Drivers/STM32F3xx_HAL_Driver/Src/stm32f3xx_hal_rcc_ex.c ****   if(((PeriphClkInit->PeriphClockSelection) & RCC_PERIPHCLK_USART2) == RCC_PERIPHCLK_USART2)
ARM GAS  /var/folders/8c/gyvcglfx7f97kbqb2h83mm_r0000gn/T//cczE2vDZ.s 			page 18


 208              		.loc 1 210 3 view .LVU59
 209              		.loc 1 210 5 is_stmt 0 view .LVU60
 210 009a 8707     		lsls	r7, r0, #30
 211 009c 06D5     		bpl	.L18
 211:Drivers/STM32F3xx_HAL_Driver/Src/stm32f3xx_hal_rcc_ex.c ****   {
 212:Drivers/STM32F3xx_HAL_Driver/Src/stm32f3xx_hal_rcc_ex.c ****     /* Check the parameters */
 213:Drivers/STM32F3xx_HAL_Driver/Src/stm32f3xx_hal_rcc_ex.c ****     assert_param(IS_RCC_USART2CLKSOURCE(PeriphClkInit->Usart2ClockSelection));
 212              		.loc 1 213 5 is_stmt 1 view .LVU61
 214:Drivers/STM32F3xx_HAL_Driver/Src/stm32f3xx_hal_rcc_ex.c ****     
 215:Drivers/STM32F3xx_HAL_Driver/Src/stm32f3xx_hal_rcc_ex.c ****     /* Configure the USART2 clock source */
 216:Drivers/STM32F3xx_HAL_Driver/Src/stm32f3xx_hal_rcc_ex.c ****     __HAL_RCC_USART2_CONFIG(PeriphClkInit->Usart2ClockSelection);
 213              		.loc 1 216 5 view .LVU62
 214 009e 7F4A     		ldr	r2, .L105
 215 00a0 E168     		ldr	r1, [r4, #12]
 216 00a2 136B     		ldr	r3, [r2, #48]
 217 00a4 23F44033 		bic	r3, r3, #196608
 218 00a8 0B43     		orrs	r3, r3, r1
 219 00aa 1363     		str	r3, [r2, #48]
 220              	.L18:
 217:Drivers/STM32F3xx_HAL_Driver/Src/stm32f3xx_hal_rcc_ex.c ****   }
 218:Drivers/STM32F3xx_HAL_Driver/Src/stm32f3xx_hal_rcc_ex.c **** #endif /* RCC_CFGR3_USART2SW */
 219:Drivers/STM32F3xx_HAL_Driver/Src/stm32f3xx_hal_rcc_ex.c **** 
 220:Drivers/STM32F3xx_HAL_Driver/Src/stm32f3xx_hal_rcc_ex.c **** #if defined(RCC_CFGR3_USART3SW)
 221:Drivers/STM32F3xx_HAL_Driver/Src/stm32f3xx_hal_rcc_ex.c ****   /*------------------------------ USART3 Configuration ------------------------*/ 
 222:Drivers/STM32F3xx_HAL_Driver/Src/stm32f3xx_hal_rcc_ex.c ****   if(((PeriphClkInit->PeriphClockSelection) & RCC_PERIPHCLK_USART3) == RCC_PERIPHCLK_USART3)
 221              		.loc 1 222 3 view .LVU63
 222              		.loc 1 222 5 is_stmt 0 view .LVU64
 223 00ac 4607     		lsls	r6, r0, #29
 224 00ae 06D5     		bpl	.L19
 223:Drivers/STM32F3xx_HAL_Driver/Src/stm32f3xx_hal_rcc_ex.c ****   {
 224:Drivers/STM32F3xx_HAL_Driver/Src/stm32f3xx_hal_rcc_ex.c ****     /* Check the parameters */
 225:Drivers/STM32F3xx_HAL_Driver/Src/stm32f3xx_hal_rcc_ex.c ****     assert_param(IS_RCC_USART3CLKSOURCE(PeriphClkInit->Usart3ClockSelection));
 225              		.loc 1 225 5 is_stmt 1 view .LVU65
 226:Drivers/STM32F3xx_HAL_Driver/Src/stm32f3xx_hal_rcc_ex.c ****     
 227:Drivers/STM32F3xx_HAL_Driver/Src/stm32f3xx_hal_rcc_ex.c ****     /* Configure the USART3 clock source */
 228:Drivers/STM32F3xx_HAL_Driver/Src/stm32f3xx_hal_rcc_ex.c ****     __HAL_RCC_USART3_CONFIG(PeriphClkInit->Usart3ClockSelection);
 226              		.loc 1 228 5 view .LVU66
 227 00b0 7A4A     		ldr	r2, .L105
 228 00b2 2169     		ldr	r1, [r4, #16]
 229 00b4 136B     		ldr	r3, [r2, #48]
 230 00b6 23F44023 		bic	r3, r3, #786432
 231 00ba 0B43     		orrs	r3, r3, r1
 232 00bc 1363     		str	r3, [r2, #48]
 233              	.L19:
 229:Drivers/STM32F3xx_HAL_Driver/Src/stm32f3xx_hal_rcc_ex.c ****   }
 230:Drivers/STM32F3xx_HAL_Driver/Src/stm32f3xx_hal_rcc_ex.c **** #endif /* RCC_CFGR3_USART3SW */
 231:Drivers/STM32F3xx_HAL_Driver/Src/stm32f3xx_hal_rcc_ex.c **** 
 232:Drivers/STM32F3xx_HAL_Driver/Src/stm32f3xx_hal_rcc_ex.c ****   /*------------------------------ I2C1 Configuration ------------------------*/ 
 233:Drivers/STM32F3xx_HAL_Driver/Src/stm32f3xx_hal_rcc_ex.c ****   if(((PeriphClkInit->PeriphClockSelection) & RCC_PERIPHCLK_I2C1) == RCC_PERIPHCLK_I2C1)
 234              		.loc 1 233 3 view .LVU67
 235              		.loc 1 233 5 is_stmt 0 view .LVU68
 236 00be 8506     		lsls	r5, r0, #26
 237 00c0 06D5     		bpl	.L20
 234:Drivers/STM32F3xx_HAL_Driver/Src/stm32f3xx_hal_rcc_ex.c ****   {
 235:Drivers/STM32F3xx_HAL_Driver/Src/stm32f3xx_hal_rcc_ex.c ****     /* Check the parameters */
 236:Drivers/STM32F3xx_HAL_Driver/Src/stm32f3xx_hal_rcc_ex.c ****     assert_param(IS_RCC_I2C1CLKSOURCE(PeriphClkInit->I2c1ClockSelection));
 238              		.loc 1 236 5 is_stmt 1 view .LVU69
ARM GAS  /var/folders/8c/gyvcglfx7f97kbqb2h83mm_r0000gn/T//cczE2vDZ.s 			page 19


 237:Drivers/STM32F3xx_HAL_Driver/Src/stm32f3xx_hal_rcc_ex.c ****     
 238:Drivers/STM32F3xx_HAL_Driver/Src/stm32f3xx_hal_rcc_ex.c ****     /* Configure the I2C1 clock source */
 239:Drivers/STM32F3xx_HAL_Driver/Src/stm32f3xx_hal_rcc_ex.c ****     __HAL_RCC_I2C1_CONFIG(PeriphClkInit->I2c1ClockSelection);
 239              		.loc 1 239 5 view .LVU70
 240 00c2 764A     		ldr	r2, .L105
 241 00c4 E169     		ldr	r1, [r4, #28]
 242 00c6 136B     		ldr	r3, [r2, #48]
 243 00c8 23F01003 		bic	r3, r3, #16
 244 00cc 0B43     		orrs	r3, r3, r1
 245 00ce 1363     		str	r3, [r2, #48]
 246              	.L20:
 240:Drivers/STM32F3xx_HAL_Driver/Src/stm32f3xx_hal_rcc_ex.c ****   }
 241:Drivers/STM32F3xx_HAL_Driver/Src/stm32f3xx_hal_rcc_ex.c **** 
 242:Drivers/STM32F3xx_HAL_Driver/Src/stm32f3xx_hal_rcc_ex.c **** #if defined(STM32F302xE) || defined(STM32F303xE)\
 243:Drivers/STM32F3xx_HAL_Driver/Src/stm32f3xx_hal_rcc_ex.c ****  || defined(STM32F302xC) || defined(STM32F303xC)\
 244:Drivers/STM32F3xx_HAL_Driver/Src/stm32f3xx_hal_rcc_ex.c ****  || defined(STM32F302x8)                        \
 245:Drivers/STM32F3xx_HAL_Driver/Src/stm32f3xx_hal_rcc_ex.c ****  || defined(STM32F373xC)
 246:Drivers/STM32F3xx_HAL_Driver/Src/stm32f3xx_hal_rcc_ex.c ****   /*------------------------------ USB Configuration ------------------------*/ 
 247:Drivers/STM32F3xx_HAL_Driver/Src/stm32f3xx_hal_rcc_ex.c ****   if(((PeriphClkInit->PeriphClockSelection) & RCC_PERIPHCLK_USB) == RCC_PERIPHCLK_USB)
 247              		.loc 1 247 3 view .LVU71
 248              		.loc 1 247 5 is_stmt 0 view .LVU72
 249 00d0 8103     		lsls	r1, r0, #14
 250 00d2 06D5     		bpl	.L21
 248:Drivers/STM32F3xx_HAL_Driver/Src/stm32f3xx_hal_rcc_ex.c ****   {
 249:Drivers/STM32F3xx_HAL_Driver/Src/stm32f3xx_hal_rcc_ex.c ****     /* Check the parameters */
 250:Drivers/STM32F3xx_HAL_Driver/Src/stm32f3xx_hal_rcc_ex.c ****     assert_param(IS_RCC_USBCLKSOURCE(PeriphClkInit->USBClockSelection));
 251              		.loc 1 250 5 is_stmt 1 view .LVU73
 251:Drivers/STM32F3xx_HAL_Driver/Src/stm32f3xx_hal_rcc_ex.c ****     
 252:Drivers/STM32F3xx_HAL_Driver/Src/stm32f3xx_hal_rcc_ex.c ****     /* Configure the USB clock source */
 253:Drivers/STM32F3xx_HAL_Driver/Src/stm32f3xx_hal_rcc_ex.c ****     __HAL_RCC_USB_CONFIG(PeriphClkInit->USBClockSelection);
 252              		.loc 1 253 5 view .LVU74
 253 00d4 714A     		ldr	r2, .L105
 254 00d6 616D     		ldr	r1, [r4, #84]
 255 00d8 5368     		ldr	r3, [r2, #4]
 256 00da 23F48003 		bic	r3, r3, #4194304
 257 00de 0B43     		orrs	r3, r3, r1
 258 00e0 5360     		str	r3, [r2, #4]
 259              	.L21:
 254:Drivers/STM32F3xx_HAL_Driver/Src/stm32f3xx_hal_rcc_ex.c ****   }
 255:Drivers/STM32F3xx_HAL_Driver/Src/stm32f3xx_hal_rcc_ex.c **** 
 256:Drivers/STM32F3xx_HAL_Driver/Src/stm32f3xx_hal_rcc_ex.c **** #endif /* STM32F302xE || STM32F303xE || */
 257:Drivers/STM32F3xx_HAL_Driver/Src/stm32f3xx_hal_rcc_ex.c ****        /* STM32F302xC || STM32F303xC || */
 258:Drivers/STM32F3xx_HAL_Driver/Src/stm32f3xx_hal_rcc_ex.c ****        /* STM32F302x8                || */
 259:Drivers/STM32F3xx_HAL_Driver/Src/stm32f3xx_hal_rcc_ex.c ****        /* STM32F373xC                   */
 260:Drivers/STM32F3xx_HAL_Driver/Src/stm32f3xx_hal_rcc_ex.c **** 
 261:Drivers/STM32F3xx_HAL_Driver/Src/stm32f3xx_hal_rcc_ex.c **** #if defined(STM32F302xE) || defined(STM32F303xE) || defined(STM32F398xx)\
 262:Drivers/STM32F3xx_HAL_Driver/Src/stm32f3xx_hal_rcc_ex.c ****  || defined(STM32F302xC) || defined(STM32F303xC) || defined(STM32F358xx)\
 263:Drivers/STM32F3xx_HAL_Driver/Src/stm32f3xx_hal_rcc_ex.c ****  || defined(STM32F301x8) || defined(STM32F302x8) || defined(STM32F318xx)\
 264:Drivers/STM32F3xx_HAL_Driver/Src/stm32f3xx_hal_rcc_ex.c ****  || defined(STM32F373xC) || defined(STM32F378xx)
 265:Drivers/STM32F3xx_HAL_Driver/Src/stm32f3xx_hal_rcc_ex.c **** 
 266:Drivers/STM32F3xx_HAL_Driver/Src/stm32f3xx_hal_rcc_ex.c ****   /*------------------------------ I2C2 Configuration ------------------------*/ 
 267:Drivers/STM32F3xx_HAL_Driver/Src/stm32f3xx_hal_rcc_ex.c ****   if(((PeriphClkInit->PeriphClockSelection) & RCC_PERIPHCLK_I2C2) == RCC_PERIPHCLK_I2C2)
 260              		.loc 1 267 3 view .LVU75
 261              		.loc 1 267 5 is_stmt 0 view .LVU76
 262 00e2 4206     		lsls	r2, r0, #25
 263 00e4 06D5     		bpl	.L22
 268:Drivers/STM32F3xx_HAL_Driver/Src/stm32f3xx_hal_rcc_ex.c ****   {
ARM GAS  /var/folders/8c/gyvcglfx7f97kbqb2h83mm_r0000gn/T//cczE2vDZ.s 			page 20


 269:Drivers/STM32F3xx_HAL_Driver/Src/stm32f3xx_hal_rcc_ex.c ****     /* Check the parameters */
 270:Drivers/STM32F3xx_HAL_Driver/Src/stm32f3xx_hal_rcc_ex.c ****     assert_param(IS_RCC_I2C2CLKSOURCE(PeriphClkInit->I2c2ClockSelection));
 264              		.loc 1 270 5 is_stmt 1 view .LVU77
 271:Drivers/STM32F3xx_HAL_Driver/Src/stm32f3xx_hal_rcc_ex.c ****     
 272:Drivers/STM32F3xx_HAL_Driver/Src/stm32f3xx_hal_rcc_ex.c ****     /* Configure the I2C2 clock source */
 273:Drivers/STM32F3xx_HAL_Driver/Src/stm32f3xx_hal_rcc_ex.c ****     __HAL_RCC_I2C2_CONFIG(PeriphClkInit->I2c2ClockSelection);
 265              		.loc 1 273 5 view .LVU78
 266 00e6 6D4A     		ldr	r2, .L105
 267 00e8 216A     		ldr	r1, [r4, #32]
 268 00ea 136B     		ldr	r3, [r2, #48]
 269 00ec 23F02003 		bic	r3, r3, #32
 270 00f0 0B43     		orrs	r3, r3, r1
 271 00f2 1363     		str	r3, [r2, #48]
 272              	.L22:
 274:Drivers/STM32F3xx_HAL_Driver/Src/stm32f3xx_hal_rcc_ex.c ****   }
 275:Drivers/STM32F3xx_HAL_Driver/Src/stm32f3xx_hal_rcc_ex.c **** 
 276:Drivers/STM32F3xx_HAL_Driver/Src/stm32f3xx_hal_rcc_ex.c **** #endif /* STM32F302xE || STM32F303xE || STM32F398xx || */
 277:Drivers/STM32F3xx_HAL_Driver/Src/stm32f3xx_hal_rcc_ex.c ****        /* STM32F302xC || STM32F303xC || STM32F358xx || */
 278:Drivers/STM32F3xx_HAL_Driver/Src/stm32f3xx_hal_rcc_ex.c ****        /* STM32F301x8 || STM32F302x8 || STM32F318xx || */
 279:Drivers/STM32F3xx_HAL_Driver/Src/stm32f3xx_hal_rcc_ex.c ****        /* STM32F373xC || STM32F378xx                   */
 280:Drivers/STM32F3xx_HAL_Driver/Src/stm32f3xx_hal_rcc_ex.c ****   
 281:Drivers/STM32F3xx_HAL_Driver/Src/stm32f3xx_hal_rcc_ex.c **** #if defined(STM32F302xE) || defined(STM32F303xE) || defined(STM32F398xx)\
 282:Drivers/STM32F3xx_HAL_Driver/Src/stm32f3xx_hal_rcc_ex.c ****  || defined(STM32F301x8) || defined(STM32F302x8) || defined(STM32F318xx)
 283:Drivers/STM32F3xx_HAL_Driver/Src/stm32f3xx_hal_rcc_ex.c **** 
 284:Drivers/STM32F3xx_HAL_Driver/Src/stm32f3xx_hal_rcc_ex.c ****   /*------------------------------ I2C3 Configuration ------------------------*/ 
 285:Drivers/STM32F3xx_HAL_Driver/Src/stm32f3xx_hal_rcc_ex.c ****   if(((PeriphClkInit->PeriphClockSelection) & RCC_PERIPHCLK_I2C3) == RCC_PERIPHCLK_I2C3)
 273              		.loc 1 285 3 view .LVU79
 274              		.loc 1 285 5 is_stmt 0 view .LVU80
 275 00f4 4303     		lsls	r3, r0, #13
 276 00f6 06D5     		bpl	.L23
 286:Drivers/STM32F3xx_HAL_Driver/Src/stm32f3xx_hal_rcc_ex.c ****   {
 287:Drivers/STM32F3xx_HAL_Driver/Src/stm32f3xx_hal_rcc_ex.c ****     /* Check the parameters */
 288:Drivers/STM32F3xx_HAL_Driver/Src/stm32f3xx_hal_rcc_ex.c ****     assert_param(IS_RCC_I2C3CLKSOURCE(PeriphClkInit->I2c3ClockSelection));
 277              		.loc 1 288 5 is_stmt 1 view .LVU81
 289:Drivers/STM32F3xx_HAL_Driver/Src/stm32f3xx_hal_rcc_ex.c ****     
 290:Drivers/STM32F3xx_HAL_Driver/Src/stm32f3xx_hal_rcc_ex.c ****     /* Configure the I2C3 clock source */
 291:Drivers/STM32F3xx_HAL_Driver/Src/stm32f3xx_hal_rcc_ex.c ****     __HAL_RCC_I2C3_CONFIG(PeriphClkInit->I2c3ClockSelection);
 278              		.loc 1 291 5 view .LVU82
 279 00f8 684A     		ldr	r2, .L105
 280 00fa 616A     		ldr	r1, [r4, #36]
 281 00fc 136B     		ldr	r3, [r2, #48]
 282 00fe 23F04003 		bic	r3, r3, #64
 283 0102 0B43     		orrs	r3, r3, r1
 284 0104 1363     		str	r3, [r2, #48]
 285              	.L23:
 292:Drivers/STM32F3xx_HAL_Driver/Src/stm32f3xx_hal_rcc_ex.c ****   }
 293:Drivers/STM32F3xx_HAL_Driver/Src/stm32f3xx_hal_rcc_ex.c **** #endif /* STM32F302xE || STM32F303xE || STM32F398xx || */
 294:Drivers/STM32F3xx_HAL_Driver/Src/stm32f3xx_hal_rcc_ex.c ****        /* STM32F301x8 || STM32F302x8 || STM32F318xx    */
 295:Drivers/STM32F3xx_HAL_Driver/Src/stm32f3xx_hal_rcc_ex.c ****   
 296:Drivers/STM32F3xx_HAL_Driver/Src/stm32f3xx_hal_rcc_ex.c **** #if defined(STM32F302xE) || defined(STM32F303xE) || defined(STM32F398xx)\
 297:Drivers/STM32F3xx_HAL_Driver/Src/stm32f3xx_hal_rcc_ex.c ****  || defined(STM32F302xC) || defined(STM32F303xC) || defined(STM32F358xx)
 298:Drivers/STM32F3xx_HAL_Driver/Src/stm32f3xx_hal_rcc_ex.c **** 
 299:Drivers/STM32F3xx_HAL_Driver/Src/stm32f3xx_hal_rcc_ex.c ****   /*------------------------------ UART4 Configuration ------------------------*/ 
 300:Drivers/STM32F3xx_HAL_Driver/Src/stm32f3xx_hal_rcc_ex.c ****   if(((PeriphClkInit->PeriphClockSelection) & RCC_PERIPHCLK_UART4) == RCC_PERIPHCLK_UART4)
 286              		.loc 1 300 3 view .LVU83
 287              		.loc 1 300 5 is_stmt 0 view .LVU84
 288 0106 0707     		lsls	r7, r0, #28
ARM GAS  /var/folders/8c/gyvcglfx7f97kbqb2h83mm_r0000gn/T//cczE2vDZ.s 			page 21


 289 0108 06D5     		bpl	.L24
 301:Drivers/STM32F3xx_HAL_Driver/Src/stm32f3xx_hal_rcc_ex.c ****   {
 302:Drivers/STM32F3xx_HAL_Driver/Src/stm32f3xx_hal_rcc_ex.c ****     /* Check the parameters */
 303:Drivers/STM32F3xx_HAL_Driver/Src/stm32f3xx_hal_rcc_ex.c ****     assert_param(IS_RCC_UART4CLKSOURCE(PeriphClkInit->Uart4ClockSelection));
 290              		.loc 1 303 5 is_stmt 1 view .LVU85
 304:Drivers/STM32F3xx_HAL_Driver/Src/stm32f3xx_hal_rcc_ex.c ****     
 305:Drivers/STM32F3xx_HAL_Driver/Src/stm32f3xx_hal_rcc_ex.c ****     /* Configure the UART4 clock source */
 306:Drivers/STM32F3xx_HAL_Driver/Src/stm32f3xx_hal_rcc_ex.c ****     __HAL_RCC_UART4_CONFIG(PeriphClkInit->Uart4ClockSelection);
 291              		.loc 1 306 5 view .LVU86
 292 010a 644A     		ldr	r2, .L105
 293 010c 6169     		ldr	r1, [r4, #20]
 294 010e 136B     		ldr	r3, [r2, #48]
 295 0110 23F44013 		bic	r3, r3, #3145728
 296 0114 0B43     		orrs	r3, r3, r1
 297 0116 1363     		str	r3, [r2, #48]
 298              	.L24:
 307:Drivers/STM32F3xx_HAL_Driver/Src/stm32f3xx_hal_rcc_ex.c ****   }
 308:Drivers/STM32F3xx_HAL_Driver/Src/stm32f3xx_hal_rcc_ex.c **** 
 309:Drivers/STM32F3xx_HAL_Driver/Src/stm32f3xx_hal_rcc_ex.c ****   /*------------------------------ UART5 Configuration ------------------------*/ 
 310:Drivers/STM32F3xx_HAL_Driver/Src/stm32f3xx_hal_rcc_ex.c ****   if(((PeriphClkInit->PeriphClockSelection) & RCC_PERIPHCLK_UART5) == RCC_PERIPHCLK_UART5)
 299              		.loc 1 310 3 view .LVU87
 300              		.loc 1 310 5 is_stmt 0 view .LVU88
 301 0118 C606     		lsls	r6, r0, #27
 302 011a 06D5     		bpl	.L25
 311:Drivers/STM32F3xx_HAL_Driver/Src/stm32f3xx_hal_rcc_ex.c ****   {
 312:Drivers/STM32F3xx_HAL_Driver/Src/stm32f3xx_hal_rcc_ex.c ****     /* Check the parameters */
 313:Drivers/STM32F3xx_HAL_Driver/Src/stm32f3xx_hal_rcc_ex.c ****     assert_param(IS_RCC_UART5CLKSOURCE(PeriphClkInit->Uart5ClockSelection));
 303              		.loc 1 313 5 is_stmt 1 view .LVU89
 314:Drivers/STM32F3xx_HAL_Driver/Src/stm32f3xx_hal_rcc_ex.c ****     
 315:Drivers/STM32F3xx_HAL_Driver/Src/stm32f3xx_hal_rcc_ex.c ****     /* Configure the UART5 clock source */
 316:Drivers/STM32F3xx_HAL_Driver/Src/stm32f3xx_hal_rcc_ex.c ****     __HAL_RCC_UART5_CONFIG(PeriphClkInit->Uart5ClockSelection);
 304              		.loc 1 316 5 view .LVU90
 305 011c 5F4A     		ldr	r2, .L105
 306 011e A169     		ldr	r1, [r4, #24]
 307 0120 136B     		ldr	r3, [r2, #48]
 308 0122 23F44003 		bic	r3, r3, #12582912
 309 0126 0B43     		orrs	r3, r3, r1
 310 0128 1363     		str	r3, [r2, #48]
 311              	.L25:
 317:Drivers/STM32F3xx_HAL_Driver/Src/stm32f3xx_hal_rcc_ex.c ****   }
 318:Drivers/STM32F3xx_HAL_Driver/Src/stm32f3xx_hal_rcc_ex.c **** 
 319:Drivers/STM32F3xx_HAL_Driver/Src/stm32f3xx_hal_rcc_ex.c **** #endif /* STM32F302xE || STM32F303xE || STM32F398xx || */
 320:Drivers/STM32F3xx_HAL_Driver/Src/stm32f3xx_hal_rcc_ex.c ****        /* STM32F302xC || STM32F303xC || STM32F358xx    */
 321:Drivers/STM32F3xx_HAL_Driver/Src/stm32f3xx_hal_rcc_ex.c **** 
 322:Drivers/STM32F3xx_HAL_Driver/Src/stm32f3xx_hal_rcc_ex.c **** #if defined(STM32F302xE) || defined(STM32F303xE) || defined(STM32F398xx)\
 323:Drivers/STM32F3xx_HAL_Driver/Src/stm32f3xx_hal_rcc_ex.c ****  || defined(STM32F302xC) || defined(STM32F303xC) || defined(STM32F358xx)\
 324:Drivers/STM32F3xx_HAL_Driver/Src/stm32f3xx_hal_rcc_ex.c ****  || defined(STM32F301x8) || defined(STM32F302x8) || defined(STM32F318xx)
 325:Drivers/STM32F3xx_HAL_Driver/Src/stm32f3xx_hal_rcc_ex.c ****   /*------------------------------ I2S Configuration ------------------------*/ 
 326:Drivers/STM32F3xx_HAL_Driver/Src/stm32f3xx_hal_rcc_ex.c ****   if(((PeriphClkInit->PeriphClockSelection) & RCC_PERIPHCLK_I2S) == RCC_PERIPHCLK_I2S)
 312              		.loc 1 326 3 view .LVU91
 313              		.loc 1 326 5 is_stmt 0 view .LVU92
 314 012a 8505     		lsls	r5, r0, #22
 315 012c 06D5     		bpl	.L26
 327:Drivers/STM32F3xx_HAL_Driver/Src/stm32f3xx_hal_rcc_ex.c ****   {
 328:Drivers/STM32F3xx_HAL_Driver/Src/stm32f3xx_hal_rcc_ex.c ****     /* Check the parameters */
 329:Drivers/STM32F3xx_HAL_Driver/Src/stm32f3xx_hal_rcc_ex.c ****     assert_param(IS_RCC_I2SCLKSOURCE(PeriphClkInit->I2sClockSelection));
 316              		.loc 1 329 5 is_stmt 1 view .LVU93
ARM GAS  /var/folders/8c/gyvcglfx7f97kbqb2h83mm_r0000gn/T//cczE2vDZ.s 			page 22


 330:Drivers/STM32F3xx_HAL_Driver/Src/stm32f3xx_hal_rcc_ex.c ****     
 331:Drivers/STM32F3xx_HAL_Driver/Src/stm32f3xx_hal_rcc_ex.c ****     /* Configure the I2S clock source */
 332:Drivers/STM32F3xx_HAL_Driver/Src/stm32f3xx_hal_rcc_ex.c ****     __HAL_RCC_I2S_CONFIG(PeriphClkInit->I2sClockSelection);
 317              		.loc 1 332 5 view .LVU94
 318 012e 5B4A     		ldr	r2, .L105
 319 0130 216B     		ldr	r1, [r4, #48]
 320 0132 5368     		ldr	r3, [r2, #4]
 321 0134 23F40003 		bic	r3, r3, #8388608
 322 0138 0B43     		orrs	r3, r3, r1
 323 013a 5360     		str	r3, [r2, #4]
 324              	.L26:
 333:Drivers/STM32F3xx_HAL_Driver/Src/stm32f3xx_hal_rcc_ex.c ****   }
 334:Drivers/STM32F3xx_HAL_Driver/Src/stm32f3xx_hal_rcc_ex.c **** 
 335:Drivers/STM32F3xx_HAL_Driver/Src/stm32f3xx_hal_rcc_ex.c **** #endif /* STM32F302xE || STM32F303xE || STM32F398xx || */
 336:Drivers/STM32F3xx_HAL_Driver/Src/stm32f3xx_hal_rcc_ex.c ****        /* STM32F302xC || STM32F303xC || STM32F358xx || */
 337:Drivers/STM32F3xx_HAL_Driver/Src/stm32f3xx_hal_rcc_ex.c ****        /* STM32F301x8 || STM32F302x8 || STM32F318xx    */
 338:Drivers/STM32F3xx_HAL_Driver/Src/stm32f3xx_hal_rcc_ex.c ****   
 339:Drivers/STM32F3xx_HAL_Driver/Src/stm32f3xx_hal_rcc_ex.c **** #if defined(STM32F301x8) || defined(STM32F302x8) || defined(STM32F318xx)
 340:Drivers/STM32F3xx_HAL_Driver/Src/stm32f3xx_hal_rcc_ex.c ****       
 341:Drivers/STM32F3xx_HAL_Driver/Src/stm32f3xx_hal_rcc_ex.c ****   /*------------------------------ ADC1 clock Configuration ------------------*/ 
 342:Drivers/STM32F3xx_HAL_Driver/Src/stm32f3xx_hal_rcc_ex.c ****   if(((PeriphClkInit->PeriphClockSelection) & RCC_PERIPHCLK_ADC1) == RCC_PERIPHCLK_ADC1)
 343:Drivers/STM32F3xx_HAL_Driver/Src/stm32f3xx_hal_rcc_ex.c ****   {
 344:Drivers/STM32F3xx_HAL_Driver/Src/stm32f3xx_hal_rcc_ex.c ****     /* Check the parameters */
 345:Drivers/STM32F3xx_HAL_Driver/Src/stm32f3xx_hal_rcc_ex.c ****     assert_param(IS_RCC_ADC1PLLCLK_DIV(PeriphClkInit->Adc1ClockSelection));
 346:Drivers/STM32F3xx_HAL_Driver/Src/stm32f3xx_hal_rcc_ex.c ****     
 347:Drivers/STM32F3xx_HAL_Driver/Src/stm32f3xx_hal_rcc_ex.c ****     /* Configure the ADC1 clock source */
 348:Drivers/STM32F3xx_HAL_Driver/Src/stm32f3xx_hal_rcc_ex.c ****     __HAL_RCC_ADC1_CONFIG(PeriphClkInit->Adc1ClockSelection);
 349:Drivers/STM32F3xx_HAL_Driver/Src/stm32f3xx_hal_rcc_ex.c ****   }
 350:Drivers/STM32F3xx_HAL_Driver/Src/stm32f3xx_hal_rcc_ex.c **** 
 351:Drivers/STM32F3xx_HAL_Driver/Src/stm32f3xx_hal_rcc_ex.c **** #endif /* STM32F301x8 || STM32F302x8 || STM32F318xx */
 352:Drivers/STM32F3xx_HAL_Driver/Src/stm32f3xx_hal_rcc_ex.c ****   
 353:Drivers/STM32F3xx_HAL_Driver/Src/stm32f3xx_hal_rcc_ex.c **** #if defined(STM32F302xE) || defined(STM32F303xE) || defined(STM32F398xx)\
 354:Drivers/STM32F3xx_HAL_Driver/Src/stm32f3xx_hal_rcc_ex.c ****  || defined(STM32F302xC) || defined(STM32F303xC) || defined(STM32F358xx)\
 355:Drivers/STM32F3xx_HAL_Driver/Src/stm32f3xx_hal_rcc_ex.c ****  || defined(STM32F303x8) || defined(STM32F334x8) || defined(STM32F328xx)
 356:Drivers/STM32F3xx_HAL_Driver/Src/stm32f3xx_hal_rcc_ex.c ****       
 357:Drivers/STM32F3xx_HAL_Driver/Src/stm32f3xx_hal_rcc_ex.c ****   /*------------------------------ ADC1 & ADC2 clock Configuration -------------*/ 
 358:Drivers/STM32F3xx_HAL_Driver/Src/stm32f3xx_hal_rcc_ex.c ****   if(((PeriphClkInit->PeriphClockSelection) & RCC_PERIPHCLK_ADC12) == RCC_PERIPHCLK_ADC12)
 325              		.loc 1 358 3 view .LVU95
 326              		.loc 1 358 5 is_stmt 0 view .LVU96
 327 013c 0106     		lsls	r1, r0, #24
 328 013e 06D5     		bpl	.L27
 359:Drivers/STM32F3xx_HAL_Driver/Src/stm32f3xx_hal_rcc_ex.c ****   {
 360:Drivers/STM32F3xx_HAL_Driver/Src/stm32f3xx_hal_rcc_ex.c ****     /* Check the parameters */
 361:Drivers/STM32F3xx_HAL_Driver/Src/stm32f3xx_hal_rcc_ex.c ****     assert_param(IS_RCC_ADC12PLLCLK_DIV(PeriphClkInit->Adc12ClockSelection));
 329              		.loc 1 361 5 is_stmt 1 view .LVU97
 362:Drivers/STM32F3xx_HAL_Driver/Src/stm32f3xx_hal_rcc_ex.c ****     
 363:Drivers/STM32F3xx_HAL_Driver/Src/stm32f3xx_hal_rcc_ex.c ****     /* Configure the ADC12 clock source */
 364:Drivers/STM32F3xx_HAL_Driver/Src/stm32f3xx_hal_rcc_ex.c ****     __HAL_RCC_ADC12_CONFIG(PeriphClkInit->Adc12ClockSelection);
 330              		.loc 1 364 5 view .LVU98
 331 0140 564A     		ldr	r2, .L105
 332 0142 A16A     		ldr	r1, [r4, #40]
 333 0144 D36A     		ldr	r3, [r2, #44]
 334 0146 23F4F873 		bic	r3, r3, #496
 335 014a 0B43     		orrs	r3, r3, r1
 336 014c D362     		str	r3, [r2, #44]
 337              	.L27:
 365:Drivers/STM32F3xx_HAL_Driver/Src/stm32f3xx_hal_rcc_ex.c ****   }
ARM GAS  /var/folders/8c/gyvcglfx7f97kbqb2h83mm_r0000gn/T//cczE2vDZ.s 			page 23


 366:Drivers/STM32F3xx_HAL_Driver/Src/stm32f3xx_hal_rcc_ex.c **** 
 367:Drivers/STM32F3xx_HAL_Driver/Src/stm32f3xx_hal_rcc_ex.c **** #endif /* STM32F302xE || STM32F303xE || STM32F398xx || */
 368:Drivers/STM32F3xx_HAL_Driver/Src/stm32f3xx_hal_rcc_ex.c ****        /* STM32F302xC || STM32F303xC || STM32F358xx || */
 369:Drivers/STM32F3xx_HAL_Driver/Src/stm32f3xx_hal_rcc_ex.c ****        /* STM32F303x8 || STM32F334x8 || STM32F328xx    */    
 370:Drivers/STM32F3xx_HAL_Driver/Src/stm32f3xx_hal_rcc_ex.c ****   
 371:Drivers/STM32F3xx_HAL_Driver/Src/stm32f3xx_hal_rcc_ex.c **** #if defined(STM32F303xE) || defined(STM32F398xx)\
 372:Drivers/STM32F3xx_HAL_Driver/Src/stm32f3xx_hal_rcc_ex.c ****  || defined(STM32F303xC) || defined(STM32F358xx)
 373:Drivers/STM32F3xx_HAL_Driver/Src/stm32f3xx_hal_rcc_ex.c **** 
 374:Drivers/STM32F3xx_HAL_Driver/Src/stm32f3xx_hal_rcc_ex.c ****   /*------------------------------ ADC3 & ADC4 clock Configuration -------------*/ 
 375:Drivers/STM32F3xx_HAL_Driver/Src/stm32f3xx_hal_rcc_ex.c ****   if(((PeriphClkInit->PeriphClockSelection) & RCC_PERIPHCLK_ADC34) == RCC_PERIPHCLK_ADC34)
 338              		.loc 1 375 3 view .LVU99
 339              		.loc 1 375 5 is_stmt 0 view .LVU100
 340 014e C205     		lsls	r2, r0, #23
 341 0150 06D5     		bpl	.L28
 376:Drivers/STM32F3xx_HAL_Driver/Src/stm32f3xx_hal_rcc_ex.c ****   {
 377:Drivers/STM32F3xx_HAL_Driver/Src/stm32f3xx_hal_rcc_ex.c ****     /* Check the parameters */
 378:Drivers/STM32F3xx_HAL_Driver/Src/stm32f3xx_hal_rcc_ex.c ****     assert_param(IS_RCC_ADC34PLLCLK_DIV(PeriphClkInit->Adc34ClockSelection));
 342              		.loc 1 378 5 is_stmt 1 view .LVU101
 379:Drivers/STM32F3xx_HAL_Driver/Src/stm32f3xx_hal_rcc_ex.c ****     
 380:Drivers/STM32F3xx_HAL_Driver/Src/stm32f3xx_hal_rcc_ex.c ****     /* Configure the ADC34 clock source */
 381:Drivers/STM32F3xx_HAL_Driver/Src/stm32f3xx_hal_rcc_ex.c ****     __HAL_RCC_ADC34_CONFIG(PeriphClkInit->Adc34ClockSelection);
 343              		.loc 1 381 5 view .LVU102
 344 0152 524A     		ldr	r2, .L105
 345 0154 E16A     		ldr	r1, [r4, #44]
 346 0156 D36A     		ldr	r3, [r2, #44]
 347 0158 23F47853 		bic	r3, r3, #15872
 348 015c 0B43     		orrs	r3, r3, r1
 349 015e D362     		str	r3, [r2, #44]
 350              	.L28:
 382:Drivers/STM32F3xx_HAL_Driver/Src/stm32f3xx_hal_rcc_ex.c ****   }
 383:Drivers/STM32F3xx_HAL_Driver/Src/stm32f3xx_hal_rcc_ex.c **** 
 384:Drivers/STM32F3xx_HAL_Driver/Src/stm32f3xx_hal_rcc_ex.c **** #endif /* STM32F303xE || STM32F398xx || */
 385:Drivers/STM32F3xx_HAL_Driver/Src/stm32f3xx_hal_rcc_ex.c ****        /* STM32F303xC || STM32F358xx    */
 386:Drivers/STM32F3xx_HAL_Driver/Src/stm32f3xx_hal_rcc_ex.c **** 
 387:Drivers/STM32F3xx_HAL_Driver/Src/stm32f3xx_hal_rcc_ex.c **** #if defined(STM32F373xC) || defined(STM32F378xx)
 388:Drivers/STM32F3xx_HAL_Driver/Src/stm32f3xx_hal_rcc_ex.c ****       
 389:Drivers/STM32F3xx_HAL_Driver/Src/stm32f3xx_hal_rcc_ex.c ****   /*------------------------------ ADC1 clock Configuration ------------------*/ 
 390:Drivers/STM32F3xx_HAL_Driver/Src/stm32f3xx_hal_rcc_ex.c ****   if(((PeriphClkInit->PeriphClockSelection) & RCC_PERIPHCLK_ADC1) == RCC_PERIPHCLK_ADC1)
 391:Drivers/STM32F3xx_HAL_Driver/Src/stm32f3xx_hal_rcc_ex.c ****   {
 392:Drivers/STM32F3xx_HAL_Driver/Src/stm32f3xx_hal_rcc_ex.c ****     /* Check the parameters */
 393:Drivers/STM32F3xx_HAL_Driver/Src/stm32f3xx_hal_rcc_ex.c ****     assert_param(IS_RCC_ADC1PCLK2_DIV(PeriphClkInit->Adc1ClockSelection));
 394:Drivers/STM32F3xx_HAL_Driver/Src/stm32f3xx_hal_rcc_ex.c ****     
 395:Drivers/STM32F3xx_HAL_Driver/Src/stm32f3xx_hal_rcc_ex.c ****     /* Configure the ADC1 clock source */
 396:Drivers/STM32F3xx_HAL_Driver/Src/stm32f3xx_hal_rcc_ex.c ****     __HAL_RCC_ADC1_CONFIG(PeriphClkInit->Adc1ClockSelection);
 397:Drivers/STM32F3xx_HAL_Driver/Src/stm32f3xx_hal_rcc_ex.c ****   }
 398:Drivers/STM32F3xx_HAL_Driver/Src/stm32f3xx_hal_rcc_ex.c **** 
 399:Drivers/STM32F3xx_HAL_Driver/Src/stm32f3xx_hal_rcc_ex.c **** #endif /* STM32F373xC || STM32F378xx */
 400:Drivers/STM32F3xx_HAL_Driver/Src/stm32f3xx_hal_rcc_ex.c **** 
 401:Drivers/STM32F3xx_HAL_Driver/Src/stm32f3xx_hal_rcc_ex.c **** #if defined(STM32F302xE) || defined(STM32F303xE) || defined(STM32F398xx)\
 402:Drivers/STM32F3xx_HAL_Driver/Src/stm32f3xx_hal_rcc_ex.c ****  || defined(STM32F302xC) || defined(STM32F303xC) || defined(STM32F358xx)\
 403:Drivers/STM32F3xx_HAL_Driver/Src/stm32f3xx_hal_rcc_ex.c ****  || defined(STM32F303x8) || defined(STM32F334x8) || defined(STM32F328xx)\
 404:Drivers/STM32F3xx_HAL_Driver/Src/stm32f3xx_hal_rcc_ex.c ****  || defined(STM32F301x8) || defined(STM32F302x8) || defined(STM32F318xx)
 405:Drivers/STM32F3xx_HAL_Driver/Src/stm32f3xx_hal_rcc_ex.c **** 
 406:Drivers/STM32F3xx_HAL_Driver/Src/stm32f3xx_hal_rcc_ex.c ****   /*------------------------------ TIM1 clock Configuration ----------------*/ 
 407:Drivers/STM32F3xx_HAL_Driver/Src/stm32f3xx_hal_rcc_ex.c ****   if(((PeriphClkInit->PeriphClockSelection) & RCC_PERIPHCLK_TIM1) == RCC_PERIPHCLK_TIM1)
 351              		.loc 1 407 3 view .LVU103
 352              		.loc 1 407 5 is_stmt 0 view .LVU104
ARM GAS  /var/folders/8c/gyvcglfx7f97kbqb2h83mm_r0000gn/T//cczE2vDZ.s 			page 24


 353 0160 C304     		lsls	r3, r0, #19
 354 0162 06D5     		bpl	.L29
 408:Drivers/STM32F3xx_HAL_Driver/Src/stm32f3xx_hal_rcc_ex.c ****   {
 409:Drivers/STM32F3xx_HAL_Driver/Src/stm32f3xx_hal_rcc_ex.c ****     /* Check the parameters */
 410:Drivers/STM32F3xx_HAL_Driver/Src/stm32f3xx_hal_rcc_ex.c ****     assert_param(IS_RCC_TIM1CLKSOURCE(PeriphClkInit->Tim1ClockSelection));
 355              		.loc 1 410 5 is_stmt 1 view .LVU105
 411:Drivers/STM32F3xx_HAL_Driver/Src/stm32f3xx_hal_rcc_ex.c ****     
 412:Drivers/STM32F3xx_HAL_Driver/Src/stm32f3xx_hal_rcc_ex.c ****     /* Configure the TIM1 clock source */
 413:Drivers/STM32F3xx_HAL_Driver/Src/stm32f3xx_hal_rcc_ex.c ****     __HAL_RCC_TIM1_CONFIG(PeriphClkInit->Tim1ClockSelection);
 356              		.loc 1 413 5 view .LVU106
 357 0164 4D4A     		ldr	r2, .L105
 358 0166 616B     		ldr	r1, [r4, #52]
 359 0168 136B     		ldr	r3, [r2, #48]
 360 016a 23F48073 		bic	r3, r3, #256
 361 016e 0B43     		orrs	r3, r3, r1
 362 0170 1363     		str	r3, [r2, #48]
 363              	.L29:
 414:Drivers/STM32F3xx_HAL_Driver/Src/stm32f3xx_hal_rcc_ex.c ****   }
 415:Drivers/STM32F3xx_HAL_Driver/Src/stm32f3xx_hal_rcc_ex.c **** 
 416:Drivers/STM32F3xx_HAL_Driver/Src/stm32f3xx_hal_rcc_ex.c **** #endif /* STM32F302xE || STM32F303xE || STM32F398xx || */
 417:Drivers/STM32F3xx_HAL_Driver/Src/stm32f3xx_hal_rcc_ex.c ****        /* STM32F302xC || STM32F303xC || STM32F358xx || */
 418:Drivers/STM32F3xx_HAL_Driver/Src/stm32f3xx_hal_rcc_ex.c ****        /* STM32F303x8 || STM32F334x8 || STM32F328xx || */
 419:Drivers/STM32F3xx_HAL_Driver/Src/stm32f3xx_hal_rcc_ex.c ****        /* STM32F301x8 || STM32F302x8 || STM32F318xx    */
 420:Drivers/STM32F3xx_HAL_Driver/Src/stm32f3xx_hal_rcc_ex.c ****   
 421:Drivers/STM32F3xx_HAL_Driver/Src/stm32f3xx_hal_rcc_ex.c **** #if defined(STM32F303xE) || defined(STM32F398xx)\
 422:Drivers/STM32F3xx_HAL_Driver/Src/stm32f3xx_hal_rcc_ex.c ****  || defined(STM32F303xC) || defined(STM32F358xx)
 423:Drivers/STM32F3xx_HAL_Driver/Src/stm32f3xx_hal_rcc_ex.c **** 
 424:Drivers/STM32F3xx_HAL_Driver/Src/stm32f3xx_hal_rcc_ex.c ****   /*------------------------------ TIM8 clock Configuration ----------------*/ 
 425:Drivers/STM32F3xx_HAL_Driver/Src/stm32f3xx_hal_rcc_ex.c ****   if(((PeriphClkInit->PeriphClockSelection) & RCC_PERIPHCLK_TIM8) == RCC_PERIPHCLK_TIM8)
 364              		.loc 1 425 3 view .LVU107
 365              		.loc 1 425 5 is_stmt 0 view .LVU108
 366 0172 8704     		lsls	r7, r0, #18
 367 0174 06D5     		bpl	.L30
 426:Drivers/STM32F3xx_HAL_Driver/Src/stm32f3xx_hal_rcc_ex.c ****   {
 427:Drivers/STM32F3xx_HAL_Driver/Src/stm32f3xx_hal_rcc_ex.c ****     /* Check the parameters */
 428:Drivers/STM32F3xx_HAL_Driver/Src/stm32f3xx_hal_rcc_ex.c ****     assert_param(IS_RCC_TIM8CLKSOURCE(PeriphClkInit->Tim8ClockSelection));
 368              		.loc 1 428 5 is_stmt 1 view .LVU109
 429:Drivers/STM32F3xx_HAL_Driver/Src/stm32f3xx_hal_rcc_ex.c ****     
 430:Drivers/STM32F3xx_HAL_Driver/Src/stm32f3xx_hal_rcc_ex.c ****     /* Configure the TIM8 clock source */
 431:Drivers/STM32F3xx_HAL_Driver/Src/stm32f3xx_hal_rcc_ex.c ****     __HAL_RCC_TIM8_CONFIG(PeriphClkInit->Tim8ClockSelection);
 369              		.loc 1 431 5 view .LVU110
 370 0176 494A     		ldr	r2, .L105
 371 0178 216C     		ldr	r1, [r4, #64]
 372 017a 136B     		ldr	r3, [r2, #48]
 373 017c 23F40073 		bic	r3, r3, #512
 374 0180 0B43     		orrs	r3, r3, r1
 375 0182 1363     		str	r3, [r2, #48]
 376              	.L30:
 432:Drivers/STM32F3xx_HAL_Driver/Src/stm32f3xx_hal_rcc_ex.c ****   }
 433:Drivers/STM32F3xx_HAL_Driver/Src/stm32f3xx_hal_rcc_ex.c **** 
 434:Drivers/STM32F3xx_HAL_Driver/Src/stm32f3xx_hal_rcc_ex.c **** #endif /* STM32F303xE || STM32F398xx || */
 435:Drivers/STM32F3xx_HAL_Driver/Src/stm32f3xx_hal_rcc_ex.c ****        /* STM32F303xC || STM32F358xx    */
 436:Drivers/STM32F3xx_HAL_Driver/Src/stm32f3xx_hal_rcc_ex.c **** 
 437:Drivers/STM32F3xx_HAL_Driver/Src/stm32f3xx_hal_rcc_ex.c **** #if defined(STM32F301x8) || defined(STM32F302x8) || defined(STM32F318xx)
 438:Drivers/STM32F3xx_HAL_Driver/Src/stm32f3xx_hal_rcc_ex.c **** 
 439:Drivers/STM32F3xx_HAL_Driver/Src/stm32f3xx_hal_rcc_ex.c ****   /*------------------------------ TIM15 clock Configuration ----------------*/ 
 440:Drivers/STM32F3xx_HAL_Driver/Src/stm32f3xx_hal_rcc_ex.c ****   if(((PeriphClkInit->PeriphClockSelection) & RCC_PERIPHCLK_TIM15) == RCC_PERIPHCLK_TIM15)
ARM GAS  /var/folders/8c/gyvcglfx7f97kbqb2h83mm_r0000gn/T//cczE2vDZ.s 			page 25


 441:Drivers/STM32F3xx_HAL_Driver/Src/stm32f3xx_hal_rcc_ex.c ****   {
 442:Drivers/STM32F3xx_HAL_Driver/Src/stm32f3xx_hal_rcc_ex.c ****     /* Check the parameters */
 443:Drivers/STM32F3xx_HAL_Driver/Src/stm32f3xx_hal_rcc_ex.c ****     assert_param(IS_RCC_TIM15CLKSOURCE(PeriphClkInit->Tim15ClockSelection));
 444:Drivers/STM32F3xx_HAL_Driver/Src/stm32f3xx_hal_rcc_ex.c ****     
 445:Drivers/STM32F3xx_HAL_Driver/Src/stm32f3xx_hal_rcc_ex.c ****     /* Configure the TIM15 clock source */
 446:Drivers/STM32F3xx_HAL_Driver/Src/stm32f3xx_hal_rcc_ex.c ****     __HAL_RCC_TIM15_CONFIG(PeriphClkInit->Tim15ClockSelection);
 447:Drivers/STM32F3xx_HAL_Driver/Src/stm32f3xx_hal_rcc_ex.c ****   }
 448:Drivers/STM32F3xx_HAL_Driver/Src/stm32f3xx_hal_rcc_ex.c **** 
 449:Drivers/STM32F3xx_HAL_Driver/Src/stm32f3xx_hal_rcc_ex.c ****   /*------------------------------ TIM16 clock Configuration ----------------*/ 
 450:Drivers/STM32F3xx_HAL_Driver/Src/stm32f3xx_hal_rcc_ex.c ****   if(((PeriphClkInit->PeriphClockSelection) & RCC_PERIPHCLK_TIM16) == RCC_PERIPHCLK_TIM16)
 451:Drivers/STM32F3xx_HAL_Driver/Src/stm32f3xx_hal_rcc_ex.c ****   {
 452:Drivers/STM32F3xx_HAL_Driver/Src/stm32f3xx_hal_rcc_ex.c ****     /* Check the parameters */
 453:Drivers/STM32F3xx_HAL_Driver/Src/stm32f3xx_hal_rcc_ex.c ****     assert_param(IS_RCC_TIM16CLKSOURCE(PeriphClkInit->Tim16ClockSelection));
 454:Drivers/STM32F3xx_HAL_Driver/Src/stm32f3xx_hal_rcc_ex.c ****     
 455:Drivers/STM32F3xx_HAL_Driver/Src/stm32f3xx_hal_rcc_ex.c ****     /* Configure the TIM16 clock source */
 456:Drivers/STM32F3xx_HAL_Driver/Src/stm32f3xx_hal_rcc_ex.c ****     __HAL_RCC_TIM16_CONFIG(PeriphClkInit->Tim16ClockSelection);
 457:Drivers/STM32F3xx_HAL_Driver/Src/stm32f3xx_hal_rcc_ex.c ****   }
 458:Drivers/STM32F3xx_HAL_Driver/Src/stm32f3xx_hal_rcc_ex.c **** 
 459:Drivers/STM32F3xx_HAL_Driver/Src/stm32f3xx_hal_rcc_ex.c ****   /*------------------------------ TIM17 clock Configuration ----------------*/ 
 460:Drivers/STM32F3xx_HAL_Driver/Src/stm32f3xx_hal_rcc_ex.c ****   if(((PeriphClkInit->PeriphClockSelection) & RCC_PERIPHCLK_TIM17) == RCC_PERIPHCLK_TIM17)
 461:Drivers/STM32F3xx_HAL_Driver/Src/stm32f3xx_hal_rcc_ex.c ****   {
 462:Drivers/STM32F3xx_HAL_Driver/Src/stm32f3xx_hal_rcc_ex.c ****     /* Check the parameters */
 463:Drivers/STM32F3xx_HAL_Driver/Src/stm32f3xx_hal_rcc_ex.c ****     assert_param(IS_RCC_TIM17CLKSOURCE(PeriphClkInit->Tim17ClockSelection));
 464:Drivers/STM32F3xx_HAL_Driver/Src/stm32f3xx_hal_rcc_ex.c ****     
 465:Drivers/STM32F3xx_HAL_Driver/Src/stm32f3xx_hal_rcc_ex.c ****     /* Configure the TIM17 clock source */
 466:Drivers/STM32F3xx_HAL_Driver/Src/stm32f3xx_hal_rcc_ex.c ****     __HAL_RCC_TIM17_CONFIG(PeriphClkInit->Tim17ClockSelection);
 467:Drivers/STM32F3xx_HAL_Driver/Src/stm32f3xx_hal_rcc_ex.c ****   }
 468:Drivers/STM32F3xx_HAL_Driver/Src/stm32f3xx_hal_rcc_ex.c **** 
 469:Drivers/STM32F3xx_HAL_Driver/Src/stm32f3xx_hal_rcc_ex.c **** #endif /* STM32F301x8 || STM32F302x8 || STM32F318xx */
 470:Drivers/STM32F3xx_HAL_Driver/Src/stm32f3xx_hal_rcc_ex.c **** 
 471:Drivers/STM32F3xx_HAL_Driver/Src/stm32f3xx_hal_rcc_ex.c **** #if defined(STM32F334x8)
 472:Drivers/STM32F3xx_HAL_Driver/Src/stm32f3xx_hal_rcc_ex.c **** 
 473:Drivers/STM32F3xx_HAL_Driver/Src/stm32f3xx_hal_rcc_ex.c ****   /*------------------------------ HRTIM1 clock Configuration ----------------*/ 
 474:Drivers/STM32F3xx_HAL_Driver/Src/stm32f3xx_hal_rcc_ex.c ****   if(((PeriphClkInit->PeriphClockSelection) & RCC_PERIPHCLK_HRTIM1) == RCC_PERIPHCLK_HRTIM1)
 475:Drivers/STM32F3xx_HAL_Driver/Src/stm32f3xx_hal_rcc_ex.c ****   {
 476:Drivers/STM32F3xx_HAL_Driver/Src/stm32f3xx_hal_rcc_ex.c ****     /* Check the parameters */
 477:Drivers/STM32F3xx_HAL_Driver/Src/stm32f3xx_hal_rcc_ex.c ****     assert_param(IS_RCC_HRTIM1CLKSOURCE(PeriphClkInit->Hrtim1ClockSelection));
 478:Drivers/STM32F3xx_HAL_Driver/Src/stm32f3xx_hal_rcc_ex.c ****     
 479:Drivers/STM32F3xx_HAL_Driver/Src/stm32f3xx_hal_rcc_ex.c ****     /* Configure the HRTIM1 clock source */
 480:Drivers/STM32F3xx_HAL_Driver/Src/stm32f3xx_hal_rcc_ex.c ****     __HAL_RCC_HRTIM1_CONFIG(PeriphClkInit->Hrtim1ClockSelection);
 481:Drivers/STM32F3xx_HAL_Driver/Src/stm32f3xx_hal_rcc_ex.c ****   }
 482:Drivers/STM32F3xx_HAL_Driver/Src/stm32f3xx_hal_rcc_ex.c **** 
 483:Drivers/STM32F3xx_HAL_Driver/Src/stm32f3xx_hal_rcc_ex.c **** #endif /* STM32F334x8 */
 484:Drivers/STM32F3xx_HAL_Driver/Src/stm32f3xx_hal_rcc_ex.c **** 
 485:Drivers/STM32F3xx_HAL_Driver/Src/stm32f3xx_hal_rcc_ex.c **** #if defined(STM32F373xC) || defined(STM32F378xx)
 486:Drivers/STM32F3xx_HAL_Driver/Src/stm32f3xx_hal_rcc_ex.c ****   
 487:Drivers/STM32F3xx_HAL_Driver/Src/stm32f3xx_hal_rcc_ex.c ****   /*------------------------------ SDADC clock Configuration -------------------*/ 
 488:Drivers/STM32F3xx_HAL_Driver/Src/stm32f3xx_hal_rcc_ex.c ****   if(((PeriphClkInit->PeriphClockSelection) & RCC_PERIPHCLK_SDADC) == RCC_PERIPHCLK_SDADC)
 489:Drivers/STM32F3xx_HAL_Driver/Src/stm32f3xx_hal_rcc_ex.c ****   {
 490:Drivers/STM32F3xx_HAL_Driver/Src/stm32f3xx_hal_rcc_ex.c ****     /* Check the parameters */
 491:Drivers/STM32F3xx_HAL_Driver/Src/stm32f3xx_hal_rcc_ex.c ****     assert_param(IS_RCC_SDADCSYSCLK_DIV(PeriphClkInit->SdadcClockSelection));
 492:Drivers/STM32F3xx_HAL_Driver/Src/stm32f3xx_hal_rcc_ex.c ****     
 493:Drivers/STM32F3xx_HAL_Driver/Src/stm32f3xx_hal_rcc_ex.c ****     /* Configure the SDADC clock prescaler */
 494:Drivers/STM32F3xx_HAL_Driver/Src/stm32f3xx_hal_rcc_ex.c ****     __HAL_RCC_SDADC_CONFIG(PeriphClkInit->SdadcClockSelection);
 495:Drivers/STM32F3xx_HAL_Driver/Src/stm32f3xx_hal_rcc_ex.c ****   }
 496:Drivers/STM32F3xx_HAL_Driver/Src/stm32f3xx_hal_rcc_ex.c **** 
 497:Drivers/STM32F3xx_HAL_Driver/Src/stm32f3xx_hal_rcc_ex.c ****   /*------------------------------ CEC clock Configuration -------------------*/ 
ARM GAS  /var/folders/8c/gyvcglfx7f97kbqb2h83mm_r0000gn/T//cczE2vDZ.s 			page 26


 498:Drivers/STM32F3xx_HAL_Driver/Src/stm32f3xx_hal_rcc_ex.c ****   if(((PeriphClkInit->PeriphClockSelection) & RCC_PERIPHCLK_CEC) == RCC_PERIPHCLK_CEC)
 499:Drivers/STM32F3xx_HAL_Driver/Src/stm32f3xx_hal_rcc_ex.c ****   {
 500:Drivers/STM32F3xx_HAL_Driver/Src/stm32f3xx_hal_rcc_ex.c ****     /* Check the parameters */
 501:Drivers/STM32F3xx_HAL_Driver/Src/stm32f3xx_hal_rcc_ex.c ****     assert_param(IS_RCC_CECCLKSOURCE(PeriphClkInit->CecClockSelection));
 502:Drivers/STM32F3xx_HAL_Driver/Src/stm32f3xx_hal_rcc_ex.c ****     
 503:Drivers/STM32F3xx_HAL_Driver/Src/stm32f3xx_hal_rcc_ex.c ****     /* Configure the CEC clock source */
 504:Drivers/STM32F3xx_HAL_Driver/Src/stm32f3xx_hal_rcc_ex.c ****     __HAL_RCC_CEC_CONFIG(PeriphClkInit->CecClockSelection);
 505:Drivers/STM32F3xx_HAL_Driver/Src/stm32f3xx_hal_rcc_ex.c ****   }
 506:Drivers/STM32F3xx_HAL_Driver/Src/stm32f3xx_hal_rcc_ex.c **** 
 507:Drivers/STM32F3xx_HAL_Driver/Src/stm32f3xx_hal_rcc_ex.c **** #endif /* STM32F373xC || STM32F378xx */
 508:Drivers/STM32F3xx_HAL_Driver/Src/stm32f3xx_hal_rcc_ex.c ****   
 509:Drivers/STM32F3xx_HAL_Driver/Src/stm32f3xx_hal_rcc_ex.c **** #if defined(STM32F302xE) || defined(STM32F303xE) || defined(STM32F398xx)
 510:Drivers/STM32F3xx_HAL_Driver/Src/stm32f3xx_hal_rcc_ex.c ****   
 511:Drivers/STM32F3xx_HAL_Driver/Src/stm32f3xx_hal_rcc_ex.c ****   /*------------------------------ TIM2 clock Configuration -------------------*/ 
 512:Drivers/STM32F3xx_HAL_Driver/Src/stm32f3xx_hal_rcc_ex.c ****   if(((PeriphClkInit->PeriphClockSelection) & RCC_PERIPHCLK_TIM2) == RCC_PERIPHCLK_TIM2)
 377              		.loc 1 512 3 view .LVU111
 378              		.loc 1 512 5 is_stmt 0 view .LVU112
 379 0184 C602     		lsls	r6, r0, #11
 380 0186 06D5     		bpl	.L31
 513:Drivers/STM32F3xx_HAL_Driver/Src/stm32f3xx_hal_rcc_ex.c ****   {
 514:Drivers/STM32F3xx_HAL_Driver/Src/stm32f3xx_hal_rcc_ex.c ****     /* Check the parameters */
 515:Drivers/STM32F3xx_HAL_Driver/Src/stm32f3xx_hal_rcc_ex.c ****     assert_param(IS_RCC_TIM2CLKSOURCE(PeriphClkInit->Tim2ClockSelection));
 381              		.loc 1 515 5 is_stmt 1 view .LVU113
 516:Drivers/STM32F3xx_HAL_Driver/Src/stm32f3xx_hal_rcc_ex.c ****     
 517:Drivers/STM32F3xx_HAL_Driver/Src/stm32f3xx_hal_rcc_ex.c ****     /* Configure the CEC clock source */
 518:Drivers/STM32F3xx_HAL_Driver/Src/stm32f3xx_hal_rcc_ex.c ****     __HAL_RCC_TIM2_CONFIG(PeriphClkInit->Tim2ClockSelection);
 382              		.loc 1 518 5 view .LVU114
 383 0188 444A     		ldr	r2, .L105
 384 018a A16B     		ldr	r1, [r4, #56]
 385 018c 136B     		ldr	r3, [r2, #48]
 386 018e 23F08073 		bic	r3, r3, #16777216
 387 0192 0B43     		orrs	r3, r3, r1
 388 0194 1363     		str	r3, [r2, #48]
 389              	.L31:
 519:Drivers/STM32F3xx_HAL_Driver/Src/stm32f3xx_hal_rcc_ex.c ****   }
 520:Drivers/STM32F3xx_HAL_Driver/Src/stm32f3xx_hal_rcc_ex.c **** 
 521:Drivers/STM32F3xx_HAL_Driver/Src/stm32f3xx_hal_rcc_ex.c ****   /*------------------------------ TIM3 clock Configuration -------------------*/ 
 522:Drivers/STM32F3xx_HAL_Driver/Src/stm32f3xx_hal_rcc_ex.c ****   if(((PeriphClkInit->PeriphClockSelection) & RCC_PERIPHCLK_TIM34) == RCC_PERIPHCLK_TIM34)
 390              		.loc 1 522 3 view .LVU115
 391              		.loc 1 522 5 is_stmt 0 view .LVU116
 392 0196 8502     		lsls	r5, r0, #10
 393 0198 06D5     		bpl	.L32
 523:Drivers/STM32F3xx_HAL_Driver/Src/stm32f3xx_hal_rcc_ex.c ****   {
 524:Drivers/STM32F3xx_HAL_Driver/Src/stm32f3xx_hal_rcc_ex.c ****     /* Check the parameters */
 525:Drivers/STM32F3xx_HAL_Driver/Src/stm32f3xx_hal_rcc_ex.c ****     assert_param(IS_RCC_TIM3CLKSOURCE(PeriphClkInit->Tim34ClockSelection));
 394              		.loc 1 525 5 is_stmt 1 view .LVU117
 526:Drivers/STM32F3xx_HAL_Driver/Src/stm32f3xx_hal_rcc_ex.c ****     
 527:Drivers/STM32F3xx_HAL_Driver/Src/stm32f3xx_hal_rcc_ex.c ****     /* Configure the CEC clock source */
 528:Drivers/STM32F3xx_HAL_Driver/Src/stm32f3xx_hal_rcc_ex.c ****     __HAL_RCC_TIM34_CONFIG(PeriphClkInit->Tim34ClockSelection);
 395              		.loc 1 528 5 view .LVU118
 396 019a 404A     		ldr	r2, .L105
 397 019c E16B     		ldr	r1, [r4, #60]
 398 019e 136B     		ldr	r3, [r2, #48]
 399 01a0 23F00073 		bic	r3, r3, #33554432
 400 01a4 0B43     		orrs	r3, r3, r1
 401 01a6 1363     		str	r3, [r2, #48]
 402              	.L32:
ARM GAS  /var/folders/8c/gyvcglfx7f97kbqb2h83mm_r0000gn/T//cczE2vDZ.s 			page 27


 529:Drivers/STM32F3xx_HAL_Driver/Src/stm32f3xx_hal_rcc_ex.c ****   }
 530:Drivers/STM32F3xx_HAL_Driver/Src/stm32f3xx_hal_rcc_ex.c **** 
 531:Drivers/STM32F3xx_HAL_Driver/Src/stm32f3xx_hal_rcc_ex.c ****   /*------------------------------ TIM15 clock Configuration ------------------*/ 
 532:Drivers/STM32F3xx_HAL_Driver/Src/stm32f3xx_hal_rcc_ex.c ****   if(((PeriphClkInit->PeriphClockSelection) & RCC_PERIPHCLK_TIM15) == RCC_PERIPHCLK_TIM15)
 403              		.loc 1 532 3 view .LVU119
 404              		.loc 1 532 5 is_stmt 0 view .LVU120
 405 01a8 4102     		lsls	r1, r0, #9
 406 01aa 06D5     		bpl	.L33
 533:Drivers/STM32F3xx_HAL_Driver/Src/stm32f3xx_hal_rcc_ex.c ****   {
 534:Drivers/STM32F3xx_HAL_Driver/Src/stm32f3xx_hal_rcc_ex.c ****     /* Check the parameters */
 535:Drivers/STM32F3xx_HAL_Driver/Src/stm32f3xx_hal_rcc_ex.c ****     assert_param(IS_RCC_TIM15CLKSOURCE(PeriphClkInit->Tim15ClockSelection));
 407              		.loc 1 535 5 is_stmt 1 view .LVU121
 536:Drivers/STM32F3xx_HAL_Driver/Src/stm32f3xx_hal_rcc_ex.c ****     
 537:Drivers/STM32F3xx_HAL_Driver/Src/stm32f3xx_hal_rcc_ex.c ****     /* Configure the CEC clock source */
 538:Drivers/STM32F3xx_HAL_Driver/Src/stm32f3xx_hal_rcc_ex.c ****     __HAL_RCC_TIM15_CONFIG(PeriphClkInit->Tim15ClockSelection);
 408              		.loc 1 538 5 view .LVU122
 409 01ac 3B4A     		ldr	r2, .L105
 410 01ae 616C     		ldr	r1, [r4, #68]
 411 01b0 136B     		ldr	r3, [r2, #48]
 412 01b2 23F48063 		bic	r3, r3, #1024
 413 01b6 0B43     		orrs	r3, r3, r1
 414 01b8 1363     		str	r3, [r2, #48]
 415              	.L33:
 539:Drivers/STM32F3xx_HAL_Driver/Src/stm32f3xx_hal_rcc_ex.c ****   }
 540:Drivers/STM32F3xx_HAL_Driver/Src/stm32f3xx_hal_rcc_ex.c **** 
 541:Drivers/STM32F3xx_HAL_Driver/Src/stm32f3xx_hal_rcc_ex.c ****   /*------------------------------ TIM16 clock Configuration ------------------*/ 
 542:Drivers/STM32F3xx_HAL_Driver/Src/stm32f3xx_hal_rcc_ex.c ****   if(((PeriphClkInit->PeriphClockSelection) & RCC_PERIPHCLK_TIM16) == RCC_PERIPHCLK_TIM16)
 416              		.loc 1 542 3 view .LVU123
 417              		.loc 1 542 5 is_stmt 0 view .LVU124
 418 01ba 0202     		lsls	r2, r0, #8
 419 01bc 06D5     		bpl	.L34
 543:Drivers/STM32F3xx_HAL_Driver/Src/stm32f3xx_hal_rcc_ex.c ****   {
 544:Drivers/STM32F3xx_HAL_Driver/Src/stm32f3xx_hal_rcc_ex.c ****     /* Check the parameters */
 545:Drivers/STM32F3xx_HAL_Driver/Src/stm32f3xx_hal_rcc_ex.c ****     assert_param(IS_RCC_TIM16CLKSOURCE(PeriphClkInit->Tim16ClockSelection));
 420              		.loc 1 545 5 is_stmt 1 view .LVU125
 546:Drivers/STM32F3xx_HAL_Driver/Src/stm32f3xx_hal_rcc_ex.c ****     
 547:Drivers/STM32F3xx_HAL_Driver/Src/stm32f3xx_hal_rcc_ex.c ****     /* Configure the CEC clock source */
 548:Drivers/STM32F3xx_HAL_Driver/Src/stm32f3xx_hal_rcc_ex.c ****     __HAL_RCC_TIM16_CONFIG(PeriphClkInit->Tim16ClockSelection);
 421              		.loc 1 548 5 view .LVU126
 422 01be 374A     		ldr	r2, .L105
 423 01c0 A16C     		ldr	r1, [r4, #72]
 424 01c2 136B     		ldr	r3, [r2, #48]
 425 01c4 23F40063 		bic	r3, r3, #2048
 426 01c8 0B43     		orrs	r3, r3, r1
 427 01ca 1363     		str	r3, [r2, #48]
 428              	.L34:
 549:Drivers/STM32F3xx_HAL_Driver/Src/stm32f3xx_hal_rcc_ex.c ****   }
 550:Drivers/STM32F3xx_HAL_Driver/Src/stm32f3xx_hal_rcc_ex.c **** 
 551:Drivers/STM32F3xx_HAL_Driver/Src/stm32f3xx_hal_rcc_ex.c ****   /*------------------------------ TIM17 clock Configuration ------------------*/ 
 552:Drivers/STM32F3xx_HAL_Driver/Src/stm32f3xx_hal_rcc_ex.c ****   if(((PeriphClkInit->PeriphClockSelection) & RCC_PERIPHCLK_TIM17) == RCC_PERIPHCLK_TIM17)
 429              		.loc 1 552 3 view .LVU127
 430              		.loc 1 552 5 is_stmt 0 view .LVU128
 431 01cc C301     		lsls	r3, r0, #7
 432 01ce 06D5     		bpl	.L35
 553:Drivers/STM32F3xx_HAL_Driver/Src/stm32f3xx_hal_rcc_ex.c ****   {
 554:Drivers/STM32F3xx_HAL_Driver/Src/stm32f3xx_hal_rcc_ex.c ****     /* Check the parameters */
 555:Drivers/STM32F3xx_HAL_Driver/Src/stm32f3xx_hal_rcc_ex.c ****     assert_param(IS_RCC_TIM17CLKSOURCE(PeriphClkInit->Tim17ClockSelection));
ARM GAS  /var/folders/8c/gyvcglfx7f97kbqb2h83mm_r0000gn/T//cczE2vDZ.s 			page 28


 433              		.loc 1 555 5 is_stmt 1 view .LVU129
 556:Drivers/STM32F3xx_HAL_Driver/Src/stm32f3xx_hal_rcc_ex.c ****     
 557:Drivers/STM32F3xx_HAL_Driver/Src/stm32f3xx_hal_rcc_ex.c ****     /* Configure the CEC clock source */
 558:Drivers/STM32F3xx_HAL_Driver/Src/stm32f3xx_hal_rcc_ex.c ****     __HAL_RCC_TIM17_CONFIG(PeriphClkInit->Tim17ClockSelection);
 434              		.loc 1 558 5 view .LVU130
 435 01d0 324A     		ldr	r2, .L105
 436 01d2 E16C     		ldr	r1, [r4, #76]
 437 01d4 136B     		ldr	r3, [r2, #48]
 438 01d6 23F40053 		bic	r3, r3, #8192
 439 01da 0B43     		orrs	r3, r3, r1
 440 01dc 1363     		str	r3, [r2, #48]
 441              	.L35:
 559:Drivers/STM32F3xx_HAL_Driver/Src/stm32f3xx_hal_rcc_ex.c ****   }
 560:Drivers/STM32F3xx_HAL_Driver/Src/stm32f3xx_hal_rcc_ex.c **** 
 561:Drivers/STM32F3xx_HAL_Driver/Src/stm32f3xx_hal_rcc_ex.c **** #endif /* STM32F302xE || STM32F303xE || STM32F398xx */  
 562:Drivers/STM32F3xx_HAL_Driver/Src/stm32f3xx_hal_rcc_ex.c **** 
 563:Drivers/STM32F3xx_HAL_Driver/Src/stm32f3xx_hal_rcc_ex.c **** #if defined(STM32F303xE) || defined(STM32F398xx)
 564:Drivers/STM32F3xx_HAL_Driver/Src/stm32f3xx_hal_rcc_ex.c ****   /*------------------------------ TIM20 clock Configuration ------------------*/ 
 565:Drivers/STM32F3xx_HAL_Driver/Src/stm32f3xx_hal_rcc_ex.c ****   if(((PeriphClkInit->PeriphClockSelection) & RCC_PERIPHCLK_TIM20) == RCC_PERIPHCLK_TIM20)
 442              		.loc 1 565 3 view .LVU131
 443              		.loc 1 565 5 is_stmt 0 view .LVU132
 444 01de 10F00070 		ands	r0, r0, #33554432
 445 01e2 07D0     		beq	.L8
 566:Drivers/STM32F3xx_HAL_Driver/Src/stm32f3xx_hal_rcc_ex.c ****   {
 567:Drivers/STM32F3xx_HAL_Driver/Src/stm32f3xx_hal_rcc_ex.c ****     /* Check the parameters */
 568:Drivers/STM32F3xx_HAL_Driver/Src/stm32f3xx_hal_rcc_ex.c ****     assert_param(IS_RCC_TIM20CLKSOURCE(PeriphClkInit->Tim20ClockSelection));
 446              		.loc 1 568 5 is_stmt 1 view .LVU133
 569:Drivers/STM32F3xx_HAL_Driver/Src/stm32f3xx_hal_rcc_ex.c ****     
 570:Drivers/STM32F3xx_HAL_Driver/Src/stm32f3xx_hal_rcc_ex.c ****     /* Configure the CEC clock source */
 571:Drivers/STM32F3xx_HAL_Driver/Src/stm32f3xx_hal_rcc_ex.c ****     __HAL_RCC_TIM20_CONFIG(PeriphClkInit->Tim20ClockSelection);
 447              		.loc 1 571 5 view .LVU134
 448 01e4 2D4A     		ldr	r2, .L105
 449 01e6 216D     		ldr	r1, [r4, #80]
 450 01e8 136B     		ldr	r3, [r2, #48]
 451 01ea 23F40043 		bic	r3, r3, #32768
 452 01ee 0B43     		orrs	r3, r3, r1
 453 01f0 1363     		str	r3, [r2, #48]
 572:Drivers/STM32F3xx_HAL_Driver/Src/stm32f3xx_hal_rcc_ex.c ****   }
 573:Drivers/STM32F3xx_HAL_Driver/Src/stm32f3xx_hal_rcc_ex.c **** #endif /* STM32F303xE || STM32F398xx */  
 574:Drivers/STM32F3xx_HAL_Driver/Src/stm32f3xx_hal_rcc_ex.c **** 
 575:Drivers/STM32F3xx_HAL_Driver/Src/stm32f3xx_hal_rcc_ex.c ****   
 576:Drivers/STM32F3xx_HAL_Driver/Src/stm32f3xx_hal_rcc_ex.c ****   return HAL_OK;
 454              		.loc 1 576 10 is_stmt 0 view .LVU135
 455 01f2 0020     		movs	r0, #0
 456              	.L8:
 577:Drivers/STM32F3xx_HAL_Driver/Src/stm32f3xx_hal_rcc_ex.c **** }
 457              		.loc 1 577 1 view .LVU136
 458 01f4 03B0     		add	sp, sp, #12
 459              	.LCFI2:
 460              		.cfi_remember_state
 461              		.cfi_def_cfa_offset 28
 462              		@ sp needed
 463 01f6 BDE8F083 		pop	{r4, r5, r6, r7, r8, r9, pc}
 464              	.LVL13:
 465              	.L102:
 466              	.LCFI3:
 467              		.cfi_restore_state
ARM GAS  /var/folders/8c/gyvcglfx7f97kbqb2h83mm_r0000gn/T//cczE2vDZ.s 			page 29


 468              	.LBB71:
 140:Drivers/STM32F3xx_HAL_Driver/Src/stm32f3xx_hal_rcc_ex.c ****       pwrclkchanged = SET;
 469              		.loc 1 140 7 is_stmt 1 view .LVU137
 470              	.LBB55:
 140:Drivers/STM32F3xx_HAL_Driver/Src/stm32f3xx_hal_rcc_ex.c ****       pwrclkchanged = SET;
 471              		.loc 1 140 7 view .LVU138
 140:Drivers/STM32F3xx_HAL_Driver/Src/stm32f3xx_hal_rcc_ex.c ****       pwrclkchanged = SET;
 472              		.loc 1 140 7 view .LVU139
 473 01fa DA69     		ldr	r2, [r3, #28]
 474              	.LBE55:
 144:Drivers/STM32F3xx_HAL_Driver/Src/stm32f3xx_hal_rcc_ex.c ****     {
 475              		.loc 1 144 8 is_stmt 0 view .LVU140
 476 01fc 284D     		ldr	r5, .L105+4
 477              	.LBB56:
 140:Drivers/STM32F3xx_HAL_Driver/Src/stm32f3xx_hal_rcc_ex.c ****       pwrclkchanged = SET;
 478              		.loc 1 140 7 view .LVU141
 479 01fe 42F08052 		orr	r2, r2, #268435456
 480 0202 DA61     		str	r2, [r3, #28]
 140:Drivers/STM32F3xx_HAL_Driver/Src/stm32f3xx_hal_rcc_ex.c ****       pwrclkchanged = SET;
 481              		.loc 1 140 7 is_stmt 1 view .LVU142
 482 0204 DB69     		ldr	r3, [r3, #28]
 483 0206 03F08053 		and	r3, r3, #268435456
 484 020a 0193     		str	r3, [sp, #4]
 140:Drivers/STM32F3xx_HAL_Driver/Src/stm32f3xx_hal_rcc_ex.c ****       pwrclkchanged = SET;
 485              		.loc 1 140 7 view .LVU143
 486 020c 019B     		ldr	r3, [sp, #4]
 487              	.LBE56:
 141:Drivers/STM32F3xx_HAL_Driver/Src/stm32f3xx_hal_rcc_ex.c ****     }
 488              		.loc 1 141 7 view .LVU144
 489              	.LVL14:
 144:Drivers/STM32F3xx_HAL_Driver/Src/stm32f3xx_hal_rcc_ex.c ****     {
 490              		.loc 1 144 8 is_stmt 0 view .LVU145
 491 020e 2B68     		ldr	r3, [r5]
 144:Drivers/STM32F3xx_HAL_Driver/Src/stm32f3xx_hal_rcc_ex.c ****     {
 492              		.loc 1 144 7 view .LVU146
 493 0210 D805     		lsls	r0, r3, #23
 141:Drivers/STM32F3xx_HAL_Driver/Src/stm32f3xx_hal_rcc_ex.c ****     }
 494              		.loc 1 141 21 view .LVU147
 495 0212 4FF00106 		mov	r6, #1
 496              	.LVL15:
 144:Drivers/STM32F3xx_HAL_Driver/Src/stm32f3xx_hal_rcc_ex.c ****     {
 497              		.loc 1 144 5 is_stmt 1 view .LVU148
 144:Drivers/STM32F3xx_HAL_Driver/Src/stm32f3xx_hal_rcc_ex.c ****     {
 498              		.loc 1 144 7 is_stmt 0 view .LVU149
 499 0216 3FF506AF 		bmi	.L10
 500              	.L4:
 147:Drivers/STM32F3xx_HAL_Driver/Src/stm32f3xx_hal_rcc_ex.c ****       
 501              		.loc 1 147 7 is_stmt 1 view .LVU150
 502 021a 2B68     		ldr	r3, [r5]
 503 021c 43F48073 		orr	r3, r3, #256
 504 0220 2B60     		str	r3, [r5]
 150:Drivers/STM32F3xx_HAL_Driver/Src/stm32f3xx_hal_rcc_ex.c ****       
 505              		.loc 1 150 7 view .LVU151
 150:Drivers/STM32F3xx_HAL_Driver/Src/stm32f3xx_hal_rcc_ex.c ****       
 506              		.loc 1 150 19 is_stmt 0 view .LVU152
 507 0222 FFF7FEFF 		bl	HAL_GetTick
 508              	.LVL16:
ARM GAS  /var/folders/8c/gyvcglfx7f97kbqb2h83mm_r0000gn/T//cczE2vDZ.s 			page 30


 509 0226 0746     		mov	r7, r0
 510              	.LVL17:
 152:Drivers/STM32F3xx_HAL_Driver/Src/stm32f3xx_hal_rcc_ex.c ****       {
 511              		.loc 1 152 7 is_stmt 1 view .LVU153
 512              	.L7:
 154:Drivers/STM32F3xx_HAL_Driver/Src/stm32f3xx_hal_rcc_ex.c ****         {
 513              		.loc 1 154 11 view .LVU154
 152:Drivers/STM32F3xx_HAL_Driver/Src/stm32f3xx_hal_rcc_ex.c ****       {
 514              		.loc 1 152 13 is_stmt 0 view .LVU155
 515 0228 2B68     		ldr	r3, [r5]
 152:Drivers/STM32F3xx_HAL_Driver/Src/stm32f3xx_hal_rcc_ex.c ****       {
 516              		.loc 1 152 12 view .LVU156
 517 022a D905     		lsls	r1, r3, #23
 518 022c 3FF5FBAE 		bmi	.L10
 154:Drivers/STM32F3xx_HAL_Driver/Src/stm32f3xx_hal_rcc_ex.c ****         {
 519              		.loc 1 154 15 view .LVU157
 520 0230 FFF7FEFF 		bl	HAL_GetTick
 521              	.LVL18:
 154:Drivers/STM32F3xx_HAL_Driver/Src/stm32f3xx_hal_rcc_ex.c ****         {
 522              		.loc 1 154 29 view .LVU158
 523 0234 C01B     		subs	r0, r0, r7
 154:Drivers/STM32F3xx_HAL_Driver/Src/stm32f3xx_hal_rcc_ex.c ****         {
 524              		.loc 1 154 13 view .LVU159
 525 0236 6428     		cmp	r0, #100
 526 0238 F6D9     		bls	.L7
 527              	.LVL19:
 528              	.L13:
 156:Drivers/STM32F3xx_HAL_Driver/Src/stm32f3xx_hal_rcc_ex.c ****         }
 529              		.loc 1 156 18 view .LVU160
 530 023a 0320     		movs	r0, #3
 531              	.LBE71:
 532              		.loc 1 577 1 view .LVU161
 533 023c 03B0     		add	sp, sp, #12
 534              	.LCFI4:
 535              		.cfi_remember_state
 536              		.cfi_def_cfa_offset 28
 537              		@ sp needed
 538 023e BDE8F083 		pop	{r4, r5, r6, r7, r8, r9, pc}
 539              	.LVL20:
 540              	.L103:
 541              	.LCFI5:
 542              		.cfi_restore_state
 543              	.LBB72:
 194:Drivers/STM32F3xx_HAL_Driver/Src/stm32f3xx_hal_rcc_ex.c ****     }
 544              		.loc 1 194 7 is_stmt 1 view .LVU162
 545 0242 D369     		ldr	r3, [r2, #28]
 546 0244 23F08053 		bic	r3, r3, #268435456
 547 0248 D361     		str	r3, [r2, #28]
 548              	.LBE72:
 199:Drivers/STM32F3xx_HAL_Driver/Src/stm32f3xx_hal_rcc_ex.c ****   {
 549              		.loc 1 199 3 view .LVU163
 199:Drivers/STM32F3xx_HAL_Driver/Src/stm32f3xx_hal_rcc_ex.c ****   {
 550              		.loc 1 199 5 is_stmt 0 view .LVU164
 551 024a C307     		lsls	r3, r0, #31
 552 024c 7FF525AF 		bpl	.L17
 553 0250 1CE7     		b	.L104
 554              	.LVL21:
ARM GAS  /var/folders/8c/gyvcglfx7f97kbqb2h83mm_r0000gn/T//cczE2vDZ.s 			page 31


 555              	.L11:
 556              	.LBB73:
 177:Drivers/STM32F3xx_HAL_Driver/Src/stm32f3xx_hal_rcc_ex.c ****         
 557              		.loc 1 177 9 is_stmt 1 view .LVU165
 180:Drivers/STM32F3xx_HAL_Driver/Src/stm32f3xx_hal_rcc_ex.c ****         {
 558              		.loc 1 180 15 is_stmt 0 view .LVU166
 559 0252 6746     		mov	r7, ip
 177:Drivers/STM32F3xx_HAL_Driver/Src/stm32f3xx_hal_rcc_ex.c ****         
 560              		.loc 1 177 21 view .LVU167
 561 0254 FFF7FEFF 		bl	HAL_GetTick
 562              	.LVL22:
 563              	.LBB57:
 564              	.LBB58:
 531:Drivers/CMSIS/Include/cmsis_gcc.h **** #else
 565              		.loc 2 531 4 view .LVU168
 566 0258 4FF00209 		mov	r9, #2
 567              	.LBE58:
 568              	.LBE57:
 177:Drivers/STM32F3xx_HAL_Driver/Src/stm32f3xx_hal_rcc_ex.c ****         
 569              		.loc 1 177 21 view .LVU169
 570 025c 8046     		mov	r8, r0
 571              	.LVL23:
 180:Drivers/STM32F3xx_HAL_Driver/Src/stm32f3xx_hal_rcc_ex.c ****         {
 572              		.loc 1 180 9 is_stmt 1 view .LVU170
 180:Drivers/STM32F3xx_HAL_Driver/Src/stm32f3xx_hal_rcc_ex.c ****         {
 573              		.loc 1 180 14 is_stmt 0 view .LVU171
 574 025e 15E0     		b	.L12
 575              	.LVL24:
 576              	.L14:
 577              	.LBB60:
 578              	.LBB61:
 531:Drivers/CMSIS/Include/cmsis_gcc.h **** #else
 579              		.loc 2 531 4 view .LVU172
 580              		.syntax unified
 581              	@ 531 "Drivers/CMSIS/Include/cmsis_gcc.h" 1
 582 0260 99FAA9F3 		rbit r3, r9
 583              	@ 0 "" 2
 584              	.LVL25:
 585              		.loc 2 544 3 is_stmt 1 view .LVU173
 586              		.loc 2 544 3 is_stmt 0 view .LVU174
 587              		.thumb
 588              		.syntax unified
 589              	.LBE61:
 590              	.LBE60:
 180:Drivers/STM32F3xx_HAL_Driver/Src/stm32f3xx_hal_rcc_ex.c ****         {
 591              		.loc 1 180 15 view .LVU175
 592 0264 6A6A     		ldr	r2, [r5, #36]
 593              	.L15:
 594              	.LVL26:
 595              	.LBB63:
 596              	.LBI63:
 526:Drivers/CMSIS/Include/cmsis_gcc.h **** {
 597              		.loc 2 526 57 is_stmt 1 discriminator 11 view .LVU176
 598              	.LBB64:
 528:Drivers/CMSIS/Include/cmsis_gcc.h **** 
 599              		.loc 2 528 3 discriminator 11 view .LVU177
 531:Drivers/CMSIS/Include/cmsis_gcc.h **** #else
ARM GAS  /var/folders/8c/gyvcglfx7f97kbqb2h83mm_r0000gn/T//cczE2vDZ.s 			page 32


 600              		.loc 2 531 4 discriminator 11 view .LVU178
 601              		.syntax unified
 602              	@ 531 "Drivers/CMSIS/Include/cmsis_gcc.h" 1
 603 0266 99FAA9F3 		rbit r3, r9
 604              	@ 0 "" 2
 605              		.thumb
 606              		.syntax unified
 607              	.LBE64:
 608              	.LBE63:
 182:Drivers/STM32F3xx_HAL_Driver/Src/stm32f3xx_hal_rcc_ex.c ****           {
 609              		.loc 1 182 13 discriminator 11 view .LVU179
 610              	.LVL27:
 611              	.LBB66:
 612              	.LBB65:
 613              		.loc 2 544 3 discriminator 11 view .LVU180
 614              		.loc 2 544 3 is_stmt 0 discriminator 11 view .LVU181
 615              	.LBE65:
 616              	.LBE66:
 180:Drivers/STM32F3xx_HAL_Driver/Src/stm32f3xx_hal_rcc_ex.c ****         {
 617              		.loc 1 180 15 discriminator 11 view .LVU182
 618 026a B3FA83F3 		clz	r3, r3
 619 026e 03F01F03 		and	r3, r3, #31
 620 0272 07FA03F3 		lsl	r3, r7, r3
 180:Drivers/STM32F3xx_HAL_Driver/Src/stm32f3xx_hal_rcc_ex.c ****         {
 621              		.loc 1 180 14 discriminator 11 view .LVU183
 622 0276 1342     		tst	r3, r2
 623 0278 7FF4FBAE 		bne	.L100
 182:Drivers/STM32F3xx_HAL_Driver/Src/stm32f3xx_hal_rcc_ex.c ****           {
 624              		.loc 1 182 17 view .LVU184
 625 027c FFF7FEFF 		bl	HAL_GetTick
 626              	.LVL28:
 182:Drivers/STM32F3xx_HAL_Driver/Src/stm32f3xx_hal_rcc_ex.c ****           {
 627              		.loc 1 182 15 view .LVU185
 628 0280 41F28833 		movw	r3, #5000
 182:Drivers/STM32F3xx_HAL_Driver/Src/stm32f3xx_hal_rcc_ex.c ****           {
 629              		.loc 1 182 31 view .LVU186
 630 0284 A0EB0800 		sub	r0, r0, r8
 182:Drivers/STM32F3xx_HAL_Driver/Src/stm32f3xx_hal_rcc_ex.c ****           {
 631              		.loc 1 182 15 view .LVU187
 632 0288 9842     		cmp	r0, r3
 633 028a D6D8     		bhi	.L13
 634              	.L12:
 635              	.LVL29:
 636              	.LBB67:
 637              	.LBI57:
 526:Drivers/CMSIS/Include/cmsis_gcc.h **** {
 638              		.loc 2 526 57 is_stmt 1 view .LVU188
 639              	.LBB59:
 528:Drivers/CMSIS/Include/cmsis_gcc.h **** 
 640              		.loc 2 528 3 view .LVU189
 531:Drivers/CMSIS/Include/cmsis_gcc.h **** #else
 641              		.loc 2 531 4 view .LVU190
 642              		.syntax unified
 643              	@ 531 "Drivers/CMSIS/Include/cmsis_gcc.h" 1
 644 028c 99FAA9F3 		rbit r3, r9
 645              	@ 0 "" 2
 646              	.LVL30:
ARM GAS  /var/folders/8c/gyvcglfx7f97kbqb2h83mm_r0000gn/T//cczE2vDZ.s 			page 33


 647              		.loc 2 544 3 view .LVU191
 648              		.loc 2 544 3 is_stmt 0 view .LVU192
 649              		.thumb
 650              		.syntax unified
 651              	.LBE59:
 652              	.LBE67:
 653              	.LBB68:
 654              	.LBI68:
 526:Drivers/CMSIS/Include/cmsis_gcc.h **** {
 655              		.loc 2 526 57 is_stmt 1 view .LVU193
 656              	.LBB69:
 528:Drivers/CMSIS/Include/cmsis_gcc.h **** 
 657              		.loc 2 528 3 view .LVU194
 531:Drivers/CMSIS/Include/cmsis_gcc.h **** #else
 658              		.loc 2 531 4 view .LVU195
 659              		.syntax unified
 660              	@ 531 "Drivers/CMSIS/Include/cmsis_gcc.h" 1
 661 0290 99FAA9F3 		rbit r3, r9
 662              	@ 0 "" 2
 663              	.LVL31:
 664              		.loc 2 544 3 view .LVU196
 665              		.loc 2 544 3 is_stmt 0 view .LVU197
 666              		.thumb
 667              		.syntax unified
 668              	.LBE69:
 669              	.LBE68:
 670              	.LBB70:
 671              	.LBI60:
 526:Drivers/CMSIS/Include/cmsis_gcc.h **** {
 672              		.loc 2 526 57 is_stmt 1 view .LVU198
 673              	.LBB62:
 528:Drivers/CMSIS/Include/cmsis_gcc.h **** 
 674              		.loc 2 528 3 view .LVU199
 531:Drivers/CMSIS/Include/cmsis_gcc.h **** #else
 675              		.loc 2 531 4 view .LVU200
 676              	.LBE62:
 677              	.LBE70:
 180:Drivers/STM32F3xx_HAL_Driver/Src/stm32f3xx_hal_rcc_ex.c ****         {
 678              		.loc 1 180 15 is_stmt 0 view .LVU201
 679 0294 002B     		cmp	r3, #0
 680 0296 E3D0     		beq	.L14
 180:Drivers/STM32F3xx_HAL_Driver/Src/stm32f3xx_hal_rcc_ex.c ****         {
 681              		.loc 1 180 15 discriminator 4 view .LVU202
 682 0298 2A6A     		ldr	r2, [r5, #32]
 683 029a E4E7     		b	.L15
 684              	.L106:
 685              		.align	2
 686              	.L105:
 687 029c 00100240 		.word	1073876992
 688 02a0 00700040 		.word	1073770496
 689 02a4 00819010 		.word	277905664
 690              	.LBE73:
 691              		.cfi_endproc
 692              	.LFE126:
 694              		.section	.text.HAL_RCCEx_GetPeriphCLKConfig,"ax",%progbits
 695              		.align	1
 696              		.p2align 2,,3
ARM GAS  /var/folders/8c/gyvcglfx7f97kbqb2h83mm_r0000gn/T//cczE2vDZ.s 			page 34


 697              		.global	HAL_RCCEx_GetPeriphCLKConfig
 698              		.syntax unified
 699              		.thumb
 700              		.thumb_func
 701              		.fpu fpv4-sp-d16
 703              	HAL_RCCEx_GetPeriphCLKConfig:
 704              	.LVL32:
 705              	.LFB127:
 578:Drivers/STM32F3xx_HAL_Driver/Src/stm32f3xx_hal_rcc_ex.c **** 
 579:Drivers/STM32F3xx_HAL_Driver/Src/stm32f3xx_hal_rcc_ex.c **** /**
 580:Drivers/STM32F3xx_HAL_Driver/Src/stm32f3xx_hal_rcc_ex.c ****   * @brief  Get the RCC_ClkInitStruct according to the internal
 581:Drivers/STM32F3xx_HAL_Driver/Src/stm32f3xx_hal_rcc_ex.c ****   * RCC configuration registers.
 582:Drivers/STM32F3xx_HAL_Driver/Src/stm32f3xx_hal_rcc_ex.c ****   * @param  PeriphClkInit pointer to an RCC_PeriphCLKInitTypeDef structure that
 583:Drivers/STM32F3xx_HAL_Driver/Src/stm32f3xx_hal_rcc_ex.c ****   *         returns the configuration information for the Extended Peripherals clocks
 584:Drivers/STM32F3xx_HAL_Driver/Src/stm32f3xx_hal_rcc_ex.c ****   *         (ADC, CEC, I2C, I2S, SDADC, HRTIM, TIM, USART, RTC and USB clocks).
 585:Drivers/STM32F3xx_HAL_Driver/Src/stm32f3xx_hal_rcc_ex.c ****   * @retval None
 586:Drivers/STM32F3xx_HAL_Driver/Src/stm32f3xx_hal_rcc_ex.c ****   */
 587:Drivers/STM32F3xx_HAL_Driver/Src/stm32f3xx_hal_rcc_ex.c **** void HAL_RCCEx_GetPeriphCLKConfig(RCC_PeriphCLKInitTypeDef  *PeriphClkInit)
 588:Drivers/STM32F3xx_HAL_Driver/Src/stm32f3xx_hal_rcc_ex.c **** {
 706              		.loc 1 588 1 is_stmt 1 view -0
 707              		.cfi_startproc
 708              		@ args = 0, pretend = 0, frame = 0
 709              		@ frame_needed = 0, uses_anonymous_args = 0
 710              		@ link register save eliminated.
 589:Drivers/STM32F3xx_HAL_Driver/Src/stm32f3xx_hal_rcc_ex.c ****   /* Set all possible values for the extended clock type parameter------------*/
 590:Drivers/STM32F3xx_HAL_Driver/Src/stm32f3xx_hal_rcc_ex.c ****   /* Common part first */
 591:Drivers/STM32F3xx_HAL_Driver/Src/stm32f3xx_hal_rcc_ex.c **** #if defined(RCC_CFGR3_USART2SW) && defined(RCC_CFGR3_USART3SW)
 592:Drivers/STM32F3xx_HAL_Driver/Src/stm32f3xx_hal_rcc_ex.c ****   PeriphClkInit->PeriphClockSelection = RCC_PERIPHCLK_USART1 | RCC_PERIPHCLK_USART2 | RCC_PERIPHCLK
 711              		.loc 1 592 3 view .LVU204
 593:Drivers/STM32F3xx_HAL_Driver/Src/stm32f3xx_hal_rcc_ex.c ****                                         RCC_PERIPHCLK_I2C1   | RCC_PERIPHCLK_RTC;
 594:Drivers/STM32F3xx_HAL_Driver/Src/stm32f3xx_hal_rcc_ex.c **** #else
 595:Drivers/STM32F3xx_HAL_Driver/Src/stm32f3xx_hal_rcc_ex.c ****   PeriphClkInit->PeriphClockSelection = RCC_PERIPHCLK_USART1 | \
 596:Drivers/STM32F3xx_HAL_Driver/Src/stm32f3xx_hal_rcc_ex.c ****                                         RCC_PERIPHCLK_I2C1   | RCC_PERIPHCLK_RTC;
 597:Drivers/STM32F3xx_HAL_Driver/Src/stm32f3xx_hal_rcc_ex.c **** #endif /* RCC_CFGR3_USART2SW && RCC_CFGR3_USART3SW */
 598:Drivers/STM32F3xx_HAL_Driver/Src/stm32f3xx_hal_rcc_ex.c ****   
 599:Drivers/STM32F3xx_HAL_Driver/Src/stm32f3xx_hal_rcc_ex.c ****   /* Get the RTC configuration --------------------------------------------*/
 600:Drivers/STM32F3xx_HAL_Driver/Src/stm32f3xx_hal_rcc_ex.c ****   PeriphClkInit->RTCClockSelection = __HAL_RCC_GET_RTC_SOURCE();
 712              		.loc 1 600 3 view .LVU205
 713              		.loc 1 600 38 is_stmt 0 view .LVU206
 714 0000 2B4B     		ldr	r3, .L108
 601:Drivers/STM32F3xx_HAL_Driver/Src/stm32f3xx_hal_rcc_ex.c ****   /* Get the USART1 clock configuration --------------------------------------------*/
 602:Drivers/STM32F3xx_HAL_Driver/Src/stm32f3xx_hal_rcc_ex.c ****   PeriphClkInit->Usart1ClockSelection = __HAL_RCC_GET_USART1_SOURCE();
 603:Drivers/STM32F3xx_HAL_Driver/Src/stm32f3xx_hal_rcc_ex.c **** #if defined(RCC_CFGR3_USART2SW)
 604:Drivers/STM32F3xx_HAL_Driver/Src/stm32f3xx_hal_rcc_ex.c ****   /* Get the USART2 clock configuration -----------------------------------------*/
 605:Drivers/STM32F3xx_HAL_Driver/Src/stm32f3xx_hal_rcc_ex.c ****   PeriphClkInit->Usart2ClockSelection = __HAL_RCC_GET_USART2_SOURCE();
 606:Drivers/STM32F3xx_HAL_Driver/Src/stm32f3xx_hal_rcc_ex.c **** #endif /* RCC_CFGR3_USART2SW */
 607:Drivers/STM32F3xx_HAL_Driver/Src/stm32f3xx_hal_rcc_ex.c **** #if defined(RCC_CFGR3_USART3SW)
 608:Drivers/STM32F3xx_HAL_Driver/Src/stm32f3xx_hal_rcc_ex.c ****    /* Get the USART3 clock configuration -----------------------------------------*/
 609:Drivers/STM32F3xx_HAL_Driver/Src/stm32f3xx_hal_rcc_ex.c ****   PeriphClkInit->Usart3ClockSelection = __HAL_RCC_GET_USART3_SOURCE();
 610:Drivers/STM32F3xx_HAL_Driver/Src/stm32f3xx_hal_rcc_ex.c **** #endif /* RCC_CFGR3_USART3SW */
 611:Drivers/STM32F3xx_HAL_Driver/Src/stm32f3xx_hal_rcc_ex.c ****   /* Get the I2C1 clock configuration -----------------------------------------*/
 612:Drivers/STM32F3xx_HAL_Driver/Src/stm32f3xx_hal_rcc_ex.c ****   PeriphClkInit->I2c1ClockSelection = __HAL_RCC_GET_I2C1_SOURCE();
 613:Drivers/STM32F3xx_HAL_Driver/Src/stm32f3xx_hal_rcc_ex.c **** 
 614:Drivers/STM32F3xx_HAL_Driver/Src/stm32f3xx_hal_rcc_ex.c **** #if defined(STM32F302xE) || defined(STM32F303xE)\
 615:Drivers/STM32F3xx_HAL_Driver/Src/stm32f3xx_hal_rcc_ex.c ****     || defined(STM32F302xC) || defined(STM32F303xC)\
 616:Drivers/STM32F3xx_HAL_Driver/Src/stm32f3xx_hal_rcc_ex.c ****     || defined(STM32F302x8)                        \
 617:Drivers/STM32F3xx_HAL_Driver/Src/stm32f3xx_hal_rcc_ex.c ****     || defined(STM32F373xC)
ARM GAS  /var/folders/8c/gyvcglfx7f97kbqb2h83mm_r0000gn/T//cczE2vDZ.s 			page 35


 618:Drivers/STM32F3xx_HAL_Driver/Src/stm32f3xx_hal_rcc_ex.c **** 
 619:Drivers/STM32F3xx_HAL_Driver/Src/stm32f3xx_hal_rcc_ex.c ****   PeriphClkInit->PeriphClockSelection |= RCC_PERIPHCLK_USB;
 620:Drivers/STM32F3xx_HAL_Driver/Src/stm32f3xx_hal_rcc_ex.c ****   /* Get the USB clock configuration -----------------------------------------*/
 621:Drivers/STM32F3xx_HAL_Driver/Src/stm32f3xx_hal_rcc_ex.c ****   PeriphClkInit->USBClockSelection = __HAL_RCC_GET_USB_SOURCE();
 622:Drivers/STM32F3xx_HAL_Driver/Src/stm32f3xx_hal_rcc_ex.c **** 
 623:Drivers/STM32F3xx_HAL_Driver/Src/stm32f3xx_hal_rcc_ex.c **** #endif /* STM32F302xE || STM32F303xE || */
 624:Drivers/STM32F3xx_HAL_Driver/Src/stm32f3xx_hal_rcc_ex.c ****        /* STM32F302xC || STM32F303xC || */
 625:Drivers/STM32F3xx_HAL_Driver/Src/stm32f3xx_hal_rcc_ex.c ****        /* STM32F302x8                || */
 626:Drivers/STM32F3xx_HAL_Driver/Src/stm32f3xx_hal_rcc_ex.c ****        /* STM32F373xC                   */
 627:Drivers/STM32F3xx_HAL_Driver/Src/stm32f3xx_hal_rcc_ex.c **** 
 628:Drivers/STM32F3xx_HAL_Driver/Src/stm32f3xx_hal_rcc_ex.c **** #if defined(STM32F302xE) || defined(STM32F303xE) || defined(STM32F398xx)\
 629:Drivers/STM32F3xx_HAL_Driver/Src/stm32f3xx_hal_rcc_ex.c ****     || defined(STM32F302xC) || defined(STM32F303xC) || defined(STM32F358xx)\
 630:Drivers/STM32F3xx_HAL_Driver/Src/stm32f3xx_hal_rcc_ex.c ****     || defined(STM32F301x8) || defined(STM32F302x8) || defined(STM32F318xx)\
 631:Drivers/STM32F3xx_HAL_Driver/Src/stm32f3xx_hal_rcc_ex.c ****     || defined(STM32F373xC) || defined(STM32F378xx)
 632:Drivers/STM32F3xx_HAL_Driver/Src/stm32f3xx_hal_rcc_ex.c **** 
 633:Drivers/STM32F3xx_HAL_Driver/Src/stm32f3xx_hal_rcc_ex.c ****   PeriphClkInit->PeriphClockSelection |= RCC_PERIPHCLK_I2C2;
 634:Drivers/STM32F3xx_HAL_Driver/Src/stm32f3xx_hal_rcc_ex.c ****   /* Get the I2C2 clock configuration -----------------------------------------*/
 635:Drivers/STM32F3xx_HAL_Driver/Src/stm32f3xx_hal_rcc_ex.c ****   PeriphClkInit->I2c2ClockSelection = __HAL_RCC_GET_I2C2_SOURCE();
 636:Drivers/STM32F3xx_HAL_Driver/Src/stm32f3xx_hal_rcc_ex.c **** 
 637:Drivers/STM32F3xx_HAL_Driver/Src/stm32f3xx_hal_rcc_ex.c **** #endif /* STM32F302xE || STM32F303xE || STM32F398xx || */
 638:Drivers/STM32F3xx_HAL_Driver/Src/stm32f3xx_hal_rcc_ex.c ****        /* STM32F302xC || STM32F303xC || STM32F358xx || */
 639:Drivers/STM32F3xx_HAL_Driver/Src/stm32f3xx_hal_rcc_ex.c ****        /* STM32F301x8 || STM32F302x8 || STM32F318xx || */
 640:Drivers/STM32F3xx_HAL_Driver/Src/stm32f3xx_hal_rcc_ex.c ****        /* STM32F373xC || STM32F378xx                   */
 641:Drivers/STM32F3xx_HAL_Driver/Src/stm32f3xx_hal_rcc_ex.c ****   
 642:Drivers/STM32F3xx_HAL_Driver/Src/stm32f3xx_hal_rcc_ex.c **** #if defined(STM32F302xE) || defined(STM32F303xE) || defined(STM32F398xx)\
 643:Drivers/STM32F3xx_HAL_Driver/Src/stm32f3xx_hal_rcc_ex.c ****     || defined(STM32F301x8) || defined(STM32F302x8) || defined(STM32F318xx)
 644:Drivers/STM32F3xx_HAL_Driver/Src/stm32f3xx_hal_rcc_ex.c **** 
 645:Drivers/STM32F3xx_HAL_Driver/Src/stm32f3xx_hal_rcc_ex.c ****   PeriphClkInit->PeriphClockSelection |= RCC_PERIPHCLK_I2C3;
 646:Drivers/STM32F3xx_HAL_Driver/Src/stm32f3xx_hal_rcc_ex.c ****   /* Get the I2C3 clock configuration -----------------------------------------*/
 647:Drivers/STM32F3xx_HAL_Driver/Src/stm32f3xx_hal_rcc_ex.c ****   PeriphClkInit->I2c3ClockSelection = __HAL_RCC_GET_I2C3_SOURCE();
 648:Drivers/STM32F3xx_HAL_Driver/Src/stm32f3xx_hal_rcc_ex.c **** 
 649:Drivers/STM32F3xx_HAL_Driver/Src/stm32f3xx_hal_rcc_ex.c **** #endif /* STM32F302xE || STM32F303xE || STM32F398xx || */
 650:Drivers/STM32F3xx_HAL_Driver/Src/stm32f3xx_hal_rcc_ex.c ****        /* STM32F301x8 || STM32F302x8 || STM32F318xx    */
 651:Drivers/STM32F3xx_HAL_Driver/Src/stm32f3xx_hal_rcc_ex.c ****   
 652:Drivers/STM32F3xx_HAL_Driver/Src/stm32f3xx_hal_rcc_ex.c **** #if defined(STM32F302xE) || defined(STM32F303xE) || defined(STM32F398xx)\
 653:Drivers/STM32F3xx_HAL_Driver/Src/stm32f3xx_hal_rcc_ex.c ****     || defined(STM32F302xC) || defined(STM32F303xC) ||defined(STM32F358xx)
 654:Drivers/STM32F3xx_HAL_Driver/Src/stm32f3xx_hal_rcc_ex.c **** 
 655:Drivers/STM32F3xx_HAL_Driver/Src/stm32f3xx_hal_rcc_ex.c ****   PeriphClkInit->PeriphClockSelection |= (RCC_PERIPHCLK_UART4  | RCC_PERIPHCLK_UART5);
 656:Drivers/STM32F3xx_HAL_Driver/Src/stm32f3xx_hal_rcc_ex.c ****   /* Get the UART4 clock configuration -----------------------------------------*/
 657:Drivers/STM32F3xx_HAL_Driver/Src/stm32f3xx_hal_rcc_ex.c ****   PeriphClkInit->Uart4ClockSelection = __HAL_RCC_GET_UART4_SOURCE();
 658:Drivers/STM32F3xx_HAL_Driver/Src/stm32f3xx_hal_rcc_ex.c ****   /* Get the UART5 clock configuration -----------------------------------------*/
 659:Drivers/STM32F3xx_HAL_Driver/Src/stm32f3xx_hal_rcc_ex.c ****   PeriphClkInit->Uart5ClockSelection = __HAL_RCC_GET_UART5_SOURCE();
 660:Drivers/STM32F3xx_HAL_Driver/Src/stm32f3xx_hal_rcc_ex.c **** 
 661:Drivers/STM32F3xx_HAL_Driver/Src/stm32f3xx_hal_rcc_ex.c **** #endif /* STM32F302xE || STM32F303xE || STM32F398xx || */
 662:Drivers/STM32F3xx_HAL_Driver/Src/stm32f3xx_hal_rcc_ex.c ****        /* STM32F302xC || STM32F303xC || STM32F358xx */
 663:Drivers/STM32F3xx_HAL_Driver/Src/stm32f3xx_hal_rcc_ex.c **** 
 664:Drivers/STM32F3xx_HAL_Driver/Src/stm32f3xx_hal_rcc_ex.c **** #if defined(STM32F302xE) || defined(STM32F303xE) || defined(STM32F398xx)\
 665:Drivers/STM32F3xx_HAL_Driver/Src/stm32f3xx_hal_rcc_ex.c ****     || defined(STM32F302xC) || defined(STM32F303xC) || defined(STM32F358xx)\
 666:Drivers/STM32F3xx_HAL_Driver/Src/stm32f3xx_hal_rcc_ex.c ****     || defined(STM32F301x8) || defined(STM32F302x8) || defined(STM32F318xx)
 667:Drivers/STM32F3xx_HAL_Driver/Src/stm32f3xx_hal_rcc_ex.c **** 
 668:Drivers/STM32F3xx_HAL_Driver/Src/stm32f3xx_hal_rcc_ex.c ****   PeriphClkInit->PeriphClockSelection |= RCC_PERIPHCLK_I2S;
 669:Drivers/STM32F3xx_HAL_Driver/Src/stm32f3xx_hal_rcc_ex.c ****   /* Get the I2S clock configuration -----------------------------------------*/
 670:Drivers/STM32F3xx_HAL_Driver/Src/stm32f3xx_hal_rcc_ex.c ****   PeriphClkInit->I2sClockSelection = __HAL_RCC_GET_I2S_SOURCE();
 671:Drivers/STM32F3xx_HAL_Driver/Src/stm32f3xx_hal_rcc_ex.c **** 
 672:Drivers/STM32F3xx_HAL_Driver/Src/stm32f3xx_hal_rcc_ex.c **** #endif /* STM32F302xE || STM32F303xE || STM32F398xx || */
 673:Drivers/STM32F3xx_HAL_Driver/Src/stm32f3xx_hal_rcc_ex.c ****        /* STM32F302xC || STM32F303xC || STM32F358xx || */
 674:Drivers/STM32F3xx_HAL_Driver/Src/stm32f3xx_hal_rcc_ex.c ****        /* STM32F301x8 || STM32F302x8 || STM32F318xx || */
ARM GAS  /var/folders/8c/gyvcglfx7f97kbqb2h83mm_r0000gn/T//cczE2vDZ.s 			page 36


 675:Drivers/STM32F3xx_HAL_Driver/Src/stm32f3xx_hal_rcc_ex.c ****   
 676:Drivers/STM32F3xx_HAL_Driver/Src/stm32f3xx_hal_rcc_ex.c **** #if defined(STM32F301x8) || defined(STM32F302x8) || defined(STM32F318xx)\
 677:Drivers/STM32F3xx_HAL_Driver/Src/stm32f3xx_hal_rcc_ex.c ****     || defined(STM32F373xC) || defined(STM32F378xx)
 678:Drivers/STM32F3xx_HAL_Driver/Src/stm32f3xx_hal_rcc_ex.c ****       
 679:Drivers/STM32F3xx_HAL_Driver/Src/stm32f3xx_hal_rcc_ex.c ****   PeriphClkInit->PeriphClockSelection |= RCC_PERIPHCLK_ADC1;
 680:Drivers/STM32F3xx_HAL_Driver/Src/stm32f3xx_hal_rcc_ex.c ****   /* Get the ADC1 clock configuration -----------------------------------------*/
 681:Drivers/STM32F3xx_HAL_Driver/Src/stm32f3xx_hal_rcc_ex.c ****   PeriphClkInit->Adc1ClockSelection = __HAL_RCC_GET_ADC1_SOURCE();
 682:Drivers/STM32F3xx_HAL_Driver/Src/stm32f3xx_hal_rcc_ex.c **** 
 683:Drivers/STM32F3xx_HAL_Driver/Src/stm32f3xx_hal_rcc_ex.c **** #endif /* STM32F301x8 || STM32F302x8 || STM32F318xx || */
 684:Drivers/STM32F3xx_HAL_Driver/Src/stm32f3xx_hal_rcc_ex.c ****        /* STM32F373xC || STM32F378xx                   */
 685:Drivers/STM32F3xx_HAL_Driver/Src/stm32f3xx_hal_rcc_ex.c **** 
 686:Drivers/STM32F3xx_HAL_Driver/Src/stm32f3xx_hal_rcc_ex.c **** #if defined(STM32F302xE) || defined(STM32F303xE) || defined(STM32F398xx)\
 687:Drivers/STM32F3xx_HAL_Driver/Src/stm32f3xx_hal_rcc_ex.c ****     || defined(STM32F302xC) || defined(STM32F303xC) || defined(STM32F358xx)\
 688:Drivers/STM32F3xx_HAL_Driver/Src/stm32f3xx_hal_rcc_ex.c ****     || defined(STM32F303x8) || defined(STM32F334x8) || defined(STM32F328xx)
 689:Drivers/STM32F3xx_HAL_Driver/Src/stm32f3xx_hal_rcc_ex.c **** 
 690:Drivers/STM32F3xx_HAL_Driver/Src/stm32f3xx_hal_rcc_ex.c ****   PeriphClkInit->PeriphClockSelection |= RCC_PERIPHCLK_ADC12;
 691:Drivers/STM32F3xx_HAL_Driver/Src/stm32f3xx_hal_rcc_ex.c ****   /* Get the ADC1 & ADC2 clock configuration -----------------------------------------*/
 692:Drivers/STM32F3xx_HAL_Driver/Src/stm32f3xx_hal_rcc_ex.c ****   PeriphClkInit->Adc12ClockSelection = __HAL_RCC_GET_ADC12_SOURCE();
 693:Drivers/STM32F3xx_HAL_Driver/Src/stm32f3xx_hal_rcc_ex.c **** 
 694:Drivers/STM32F3xx_HAL_Driver/Src/stm32f3xx_hal_rcc_ex.c **** #endif /* STM32F302xE || STM32F303xE || STM32F398xx || */
 695:Drivers/STM32F3xx_HAL_Driver/Src/stm32f3xx_hal_rcc_ex.c ****        /* STM32F302xC || STM32F303xC || STM32F358xx || */
 696:Drivers/STM32F3xx_HAL_Driver/Src/stm32f3xx_hal_rcc_ex.c ****        /* STM32F303x8 || STM32F334x8 || STM32F328xx    */
 697:Drivers/STM32F3xx_HAL_Driver/Src/stm32f3xx_hal_rcc_ex.c **** 
 698:Drivers/STM32F3xx_HAL_Driver/Src/stm32f3xx_hal_rcc_ex.c **** #if defined(STM32F303xE) || defined(STM32F398xx)\
 699:Drivers/STM32F3xx_HAL_Driver/Src/stm32f3xx_hal_rcc_ex.c ****     || defined(STM32F303xC) || defined(STM32F358xx)
 700:Drivers/STM32F3xx_HAL_Driver/Src/stm32f3xx_hal_rcc_ex.c **** 
 701:Drivers/STM32F3xx_HAL_Driver/Src/stm32f3xx_hal_rcc_ex.c ****   PeriphClkInit->PeriphClockSelection |= RCC_PERIPHCLK_ADC34;
 702:Drivers/STM32F3xx_HAL_Driver/Src/stm32f3xx_hal_rcc_ex.c ****    /* Get the ADC3 & ADC4 clock configuration -----------------------------------------*/
 703:Drivers/STM32F3xx_HAL_Driver/Src/stm32f3xx_hal_rcc_ex.c ****   PeriphClkInit->Adc34ClockSelection = __HAL_RCC_GET_ADC34_SOURCE();
 704:Drivers/STM32F3xx_HAL_Driver/Src/stm32f3xx_hal_rcc_ex.c **** 
 705:Drivers/STM32F3xx_HAL_Driver/Src/stm32f3xx_hal_rcc_ex.c **** #endif /* STM32F303xE || STM32F398xx || */
 706:Drivers/STM32F3xx_HAL_Driver/Src/stm32f3xx_hal_rcc_ex.c ****        /* STM32F303xC || STM32F358xx    */
 707:Drivers/STM32F3xx_HAL_Driver/Src/stm32f3xx_hal_rcc_ex.c **** 
 708:Drivers/STM32F3xx_HAL_Driver/Src/stm32f3xx_hal_rcc_ex.c **** #if defined(STM32F302xE) || defined(STM32F303xE) || defined(STM32F398xx)\
 709:Drivers/STM32F3xx_HAL_Driver/Src/stm32f3xx_hal_rcc_ex.c ****     || defined(STM32F302xC) || defined(STM32F303xC) || defined(STM32F358xx)\
 710:Drivers/STM32F3xx_HAL_Driver/Src/stm32f3xx_hal_rcc_ex.c ****     || defined(STM32F303x8) || defined(STM32F334x8) || defined(STM32F328xx)\
 711:Drivers/STM32F3xx_HAL_Driver/Src/stm32f3xx_hal_rcc_ex.c ****     || defined(STM32F301x8) || defined(STM32F302x8) || defined(STM32F318xx)
 712:Drivers/STM32F3xx_HAL_Driver/Src/stm32f3xx_hal_rcc_ex.c **** 
 713:Drivers/STM32F3xx_HAL_Driver/Src/stm32f3xx_hal_rcc_ex.c ****   PeriphClkInit->PeriphClockSelection |= RCC_PERIPHCLK_TIM1;
 714:Drivers/STM32F3xx_HAL_Driver/Src/stm32f3xx_hal_rcc_ex.c ****   /* Get the TIM1 clock configuration -----------------------------------------*/
 715:Drivers/STM32F3xx_HAL_Driver/Src/stm32f3xx_hal_rcc_ex.c ****   PeriphClkInit->Tim1ClockSelection = __HAL_RCC_GET_TIM1_SOURCE();
 716:Drivers/STM32F3xx_HAL_Driver/Src/stm32f3xx_hal_rcc_ex.c **** 
 717:Drivers/STM32F3xx_HAL_Driver/Src/stm32f3xx_hal_rcc_ex.c **** #endif /* STM32F302xE || STM32F303xE || STM32F398xx || */
 718:Drivers/STM32F3xx_HAL_Driver/Src/stm32f3xx_hal_rcc_ex.c ****        /* STM32F302xC || STM32F303xC || STM32F358xx || */
 719:Drivers/STM32F3xx_HAL_Driver/Src/stm32f3xx_hal_rcc_ex.c ****        /* STM32F303x8 || STM32F334x8 || STM32F328xx || */
 720:Drivers/STM32F3xx_HAL_Driver/Src/stm32f3xx_hal_rcc_ex.c ****        /* STM32F301x8 || STM32F302x8 || STM32F318xx    */
 721:Drivers/STM32F3xx_HAL_Driver/Src/stm32f3xx_hal_rcc_ex.c ****   
 722:Drivers/STM32F3xx_HAL_Driver/Src/stm32f3xx_hal_rcc_ex.c **** #if defined(STM32F303xE) || defined(STM32F398xx)\
 723:Drivers/STM32F3xx_HAL_Driver/Src/stm32f3xx_hal_rcc_ex.c ****     || defined(STM32F303xC) || defined(STM32F358xx)
 724:Drivers/STM32F3xx_HAL_Driver/Src/stm32f3xx_hal_rcc_ex.c **** 
 725:Drivers/STM32F3xx_HAL_Driver/Src/stm32f3xx_hal_rcc_ex.c ****   PeriphClkInit->PeriphClockSelection |= RCC_PERIPHCLK_TIM8;
 726:Drivers/STM32F3xx_HAL_Driver/Src/stm32f3xx_hal_rcc_ex.c ****   /* Get the TIM8 clock configuration -----------------------------------------*/
 727:Drivers/STM32F3xx_HAL_Driver/Src/stm32f3xx_hal_rcc_ex.c ****   PeriphClkInit->Tim8ClockSelection = __HAL_RCC_GET_TIM8_SOURCE();
 728:Drivers/STM32F3xx_HAL_Driver/Src/stm32f3xx_hal_rcc_ex.c **** 
 729:Drivers/STM32F3xx_HAL_Driver/Src/stm32f3xx_hal_rcc_ex.c **** #endif /* STM32F303xE || STM32F398xx || */
 730:Drivers/STM32F3xx_HAL_Driver/Src/stm32f3xx_hal_rcc_ex.c ****        /* STM32F303xC || STM32F358xx    */
 731:Drivers/STM32F3xx_HAL_Driver/Src/stm32f3xx_hal_rcc_ex.c **** 
ARM GAS  /var/folders/8c/gyvcglfx7f97kbqb2h83mm_r0000gn/T//cczE2vDZ.s 			page 37


 732:Drivers/STM32F3xx_HAL_Driver/Src/stm32f3xx_hal_rcc_ex.c **** #if defined(STM32F301x8) || defined(STM32F302x8) || defined(STM32F318xx)
 733:Drivers/STM32F3xx_HAL_Driver/Src/stm32f3xx_hal_rcc_ex.c **** 
 734:Drivers/STM32F3xx_HAL_Driver/Src/stm32f3xx_hal_rcc_ex.c ****   PeriphClkInit->PeriphClockSelection |= (RCC_PERIPHCLK_TIM15 | RCC_PERIPHCLK_TIM16 | RCC_PERIPHCLK
 735:Drivers/STM32F3xx_HAL_Driver/Src/stm32f3xx_hal_rcc_ex.c ****   /* Get the TIM15 clock configuration -----------------------------------------*/
 736:Drivers/STM32F3xx_HAL_Driver/Src/stm32f3xx_hal_rcc_ex.c ****   PeriphClkInit->Tim15ClockSelection = __HAL_RCC_GET_TIM15_SOURCE();
 737:Drivers/STM32F3xx_HAL_Driver/Src/stm32f3xx_hal_rcc_ex.c ****   /* Get the TIM16 clock configuration -----------------------------------------*/
 738:Drivers/STM32F3xx_HAL_Driver/Src/stm32f3xx_hal_rcc_ex.c ****   PeriphClkInit->Tim16ClockSelection = __HAL_RCC_GET_TIM16_SOURCE();
 739:Drivers/STM32F3xx_HAL_Driver/Src/stm32f3xx_hal_rcc_ex.c ****   /* Get the TIM17 clock configuration -----------------------------------------*/
 740:Drivers/STM32F3xx_HAL_Driver/Src/stm32f3xx_hal_rcc_ex.c ****   PeriphClkInit->Tim17ClockSelection = __HAL_RCC_GET_TIM17_SOURCE();
 741:Drivers/STM32F3xx_HAL_Driver/Src/stm32f3xx_hal_rcc_ex.c **** 
 742:Drivers/STM32F3xx_HAL_Driver/Src/stm32f3xx_hal_rcc_ex.c **** #endif /* STM32F301x8 || STM32F302x8 || STM32F318xx */
 743:Drivers/STM32F3xx_HAL_Driver/Src/stm32f3xx_hal_rcc_ex.c **** 
 744:Drivers/STM32F3xx_HAL_Driver/Src/stm32f3xx_hal_rcc_ex.c **** #if defined(STM32F334x8)
 745:Drivers/STM32F3xx_HAL_Driver/Src/stm32f3xx_hal_rcc_ex.c **** 
 746:Drivers/STM32F3xx_HAL_Driver/Src/stm32f3xx_hal_rcc_ex.c ****   PeriphClkInit->PeriphClockSelection |= RCC_PERIPHCLK_HRTIM1;
 747:Drivers/STM32F3xx_HAL_Driver/Src/stm32f3xx_hal_rcc_ex.c ****   /* Get the HRTIM1 clock configuration -----------------------------------------*/
 748:Drivers/STM32F3xx_HAL_Driver/Src/stm32f3xx_hal_rcc_ex.c ****   PeriphClkInit->Hrtim1ClockSelection = __HAL_RCC_GET_HRTIM1_SOURCE();
 749:Drivers/STM32F3xx_HAL_Driver/Src/stm32f3xx_hal_rcc_ex.c **** 
 750:Drivers/STM32F3xx_HAL_Driver/Src/stm32f3xx_hal_rcc_ex.c **** #endif /* STM32F334x8 */
 751:Drivers/STM32F3xx_HAL_Driver/Src/stm32f3xx_hal_rcc_ex.c **** 
 752:Drivers/STM32F3xx_HAL_Driver/Src/stm32f3xx_hal_rcc_ex.c **** #if defined(STM32F373xC) || defined(STM32F378xx)
 753:Drivers/STM32F3xx_HAL_Driver/Src/stm32f3xx_hal_rcc_ex.c **** 
 754:Drivers/STM32F3xx_HAL_Driver/Src/stm32f3xx_hal_rcc_ex.c ****   PeriphClkInit->PeriphClockSelection |= RCC_PERIPHCLK_SDADC;
 755:Drivers/STM32F3xx_HAL_Driver/Src/stm32f3xx_hal_rcc_ex.c ****   /* Get the SDADC clock configuration -----------------------------------------*/
 756:Drivers/STM32F3xx_HAL_Driver/Src/stm32f3xx_hal_rcc_ex.c ****   PeriphClkInit->SdadcClockSelection = __HAL_RCC_GET_SDADC_SOURCE();
 757:Drivers/STM32F3xx_HAL_Driver/Src/stm32f3xx_hal_rcc_ex.c **** 
 758:Drivers/STM32F3xx_HAL_Driver/Src/stm32f3xx_hal_rcc_ex.c ****   PeriphClkInit->PeriphClockSelection |= RCC_PERIPHCLK_CEC;
 759:Drivers/STM32F3xx_HAL_Driver/Src/stm32f3xx_hal_rcc_ex.c ****   /* Get the CEC clock configuration -----------------------------------------*/
 760:Drivers/STM32F3xx_HAL_Driver/Src/stm32f3xx_hal_rcc_ex.c ****   PeriphClkInit->CecClockSelection = __HAL_RCC_GET_CEC_SOURCE();
 761:Drivers/STM32F3xx_HAL_Driver/Src/stm32f3xx_hal_rcc_ex.c **** 
 762:Drivers/STM32F3xx_HAL_Driver/Src/stm32f3xx_hal_rcc_ex.c **** #endif /* STM32F373xC || STM32F378xx */
 763:Drivers/STM32F3xx_HAL_Driver/Src/stm32f3xx_hal_rcc_ex.c **** 
 764:Drivers/STM32F3xx_HAL_Driver/Src/stm32f3xx_hal_rcc_ex.c **** #if defined(STM32F302xE) || defined(STM32F303xE) || defined(STM32F398xx)
 765:Drivers/STM32F3xx_HAL_Driver/Src/stm32f3xx_hal_rcc_ex.c **** 
 766:Drivers/STM32F3xx_HAL_Driver/Src/stm32f3xx_hal_rcc_ex.c ****   PeriphClkInit->PeriphClockSelection |= RCC_PERIPHCLK_TIM2;
 767:Drivers/STM32F3xx_HAL_Driver/Src/stm32f3xx_hal_rcc_ex.c ****   /* Get the TIM2 clock configuration -----------------------------------------*/
 768:Drivers/STM32F3xx_HAL_Driver/Src/stm32f3xx_hal_rcc_ex.c ****   PeriphClkInit->Tim2ClockSelection = __HAL_RCC_GET_TIM2_SOURCE();
 769:Drivers/STM32F3xx_HAL_Driver/Src/stm32f3xx_hal_rcc_ex.c **** 
 770:Drivers/STM32F3xx_HAL_Driver/Src/stm32f3xx_hal_rcc_ex.c ****   PeriphClkInit->PeriphClockSelection |= RCC_PERIPHCLK_TIM34;
 771:Drivers/STM32F3xx_HAL_Driver/Src/stm32f3xx_hal_rcc_ex.c ****   /* Get the TIM3 clock configuration -----------------------------------------*/
 772:Drivers/STM32F3xx_HAL_Driver/Src/stm32f3xx_hal_rcc_ex.c ****   PeriphClkInit->Tim34ClockSelection = __HAL_RCC_GET_TIM34_SOURCE();
 773:Drivers/STM32F3xx_HAL_Driver/Src/stm32f3xx_hal_rcc_ex.c **** 
 774:Drivers/STM32F3xx_HAL_Driver/Src/stm32f3xx_hal_rcc_ex.c ****   PeriphClkInit->PeriphClockSelection |= RCC_PERIPHCLK_TIM15;
 775:Drivers/STM32F3xx_HAL_Driver/Src/stm32f3xx_hal_rcc_ex.c ****   /* Get the TIM15 clock configuration -----------------------------------------*/
 776:Drivers/STM32F3xx_HAL_Driver/Src/stm32f3xx_hal_rcc_ex.c ****   PeriphClkInit->Tim15ClockSelection = __HAL_RCC_GET_TIM15_SOURCE();
 777:Drivers/STM32F3xx_HAL_Driver/Src/stm32f3xx_hal_rcc_ex.c **** 
 778:Drivers/STM32F3xx_HAL_Driver/Src/stm32f3xx_hal_rcc_ex.c ****   PeriphClkInit->PeriphClockSelection |= RCC_PERIPHCLK_TIM16;
 779:Drivers/STM32F3xx_HAL_Driver/Src/stm32f3xx_hal_rcc_ex.c ****   /* Get the TIM16 clock configuration -----------------------------------------*/
 780:Drivers/STM32F3xx_HAL_Driver/Src/stm32f3xx_hal_rcc_ex.c ****   PeriphClkInit->Tim16ClockSelection = __HAL_RCC_GET_TIM16_SOURCE();
 781:Drivers/STM32F3xx_HAL_Driver/Src/stm32f3xx_hal_rcc_ex.c **** 
 782:Drivers/STM32F3xx_HAL_Driver/Src/stm32f3xx_hal_rcc_ex.c ****   PeriphClkInit->PeriphClockSelection |= RCC_PERIPHCLK_TIM17;
 783:Drivers/STM32F3xx_HAL_Driver/Src/stm32f3xx_hal_rcc_ex.c ****   /* Get the TIM17 clock configuration -----------------------------------------*/
 784:Drivers/STM32F3xx_HAL_Driver/Src/stm32f3xx_hal_rcc_ex.c ****   PeriphClkInit->Tim17ClockSelection = __HAL_RCC_GET_TIM17_SOURCE();
 785:Drivers/STM32F3xx_HAL_Driver/Src/stm32f3xx_hal_rcc_ex.c **** 
 786:Drivers/STM32F3xx_HAL_Driver/Src/stm32f3xx_hal_rcc_ex.c **** #endif /* STM32F302xE || STM32F303xE || STM32F398xx */
 787:Drivers/STM32F3xx_HAL_Driver/Src/stm32f3xx_hal_rcc_ex.c ****   
 788:Drivers/STM32F3xx_HAL_Driver/Src/stm32f3xx_hal_rcc_ex.c **** #if defined (STM32F303xE) || defined(STM32F398xx)
ARM GAS  /var/folders/8c/gyvcglfx7f97kbqb2h83mm_r0000gn/T//cczE2vDZ.s 			page 38


 789:Drivers/STM32F3xx_HAL_Driver/Src/stm32f3xx_hal_rcc_ex.c ****   PeriphClkInit->PeriphClockSelection |= RCC_PERIPHCLK_TIM20;
 715              		.loc 1 789 39 view .LVU207
 716 0002 2C49     		ldr	r1, .L108+4
 600:Drivers/STM32F3xx_HAL_Driver/Src/stm32f3xx_hal_rcc_ex.c ****   /* Get the USART1 clock configuration --------------------------------------------*/
 717              		.loc 1 600 38 view .LVU208
 718 0004 1A6A     		ldr	r2, [r3, #32]
 719 0006 02F44072 		and	r2, r2, #768
 600:Drivers/STM32F3xx_HAL_Driver/Src/stm32f3xx_hal_rcc_ex.c ****   /* Get the USART1 clock configuration --------------------------------------------*/
 720              		.loc 1 600 36 view .LVU209
 721 000a 4260     		str	r2, [r0, #4]
 602:Drivers/STM32F3xx_HAL_Driver/Src/stm32f3xx_hal_rcc_ex.c **** #if defined(RCC_CFGR3_USART2SW)
 722              		.loc 1 602 3 is_stmt 1 view .LVU210
 602:Drivers/STM32F3xx_HAL_Driver/Src/stm32f3xx_hal_rcc_ex.c **** #if defined(RCC_CFGR3_USART2SW)
 723              		.loc 1 602 41 is_stmt 0 view .LVU211
 724 000c 1A6B     		ldr	r2, [r3, #48]
 725 000e 02F00302 		and	r2, r2, #3
 602:Drivers/STM32F3xx_HAL_Driver/Src/stm32f3xx_hal_rcc_ex.c **** #if defined(RCC_CFGR3_USART2SW)
 726              		.loc 1 602 39 view .LVU212
 727 0012 8260     		str	r2, [r0, #8]
 605:Drivers/STM32F3xx_HAL_Driver/Src/stm32f3xx_hal_rcc_ex.c **** #endif /* RCC_CFGR3_USART2SW */
 728              		.loc 1 605 3 is_stmt 1 view .LVU213
 605:Drivers/STM32F3xx_HAL_Driver/Src/stm32f3xx_hal_rcc_ex.c **** #endif /* RCC_CFGR3_USART2SW */
 729              		.loc 1 605 41 is_stmt 0 view .LVU214
 730 0014 1A6B     		ldr	r2, [r3, #48]
 731 0016 02F44032 		and	r2, r2, #196608
 605:Drivers/STM32F3xx_HAL_Driver/Src/stm32f3xx_hal_rcc_ex.c **** #endif /* RCC_CFGR3_USART2SW */
 732              		.loc 1 605 39 view .LVU215
 733 001a C260     		str	r2, [r0, #12]
 609:Drivers/STM32F3xx_HAL_Driver/Src/stm32f3xx_hal_rcc_ex.c **** #endif /* RCC_CFGR3_USART3SW */
 734              		.loc 1 609 3 is_stmt 1 view .LVU216
 609:Drivers/STM32F3xx_HAL_Driver/Src/stm32f3xx_hal_rcc_ex.c **** #endif /* RCC_CFGR3_USART3SW */
 735              		.loc 1 609 41 is_stmt 0 view .LVU217
 736 001c 1A6B     		ldr	r2, [r3, #48]
 737 001e 02F44022 		and	r2, r2, #786432
 609:Drivers/STM32F3xx_HAL_Driver/Src/stm32f3xx_hal_rcc_ex.c **** #endif /* RCC_CFGR3_USART3SW */
 738              		.loc 1 609 39 view .LVU218
 739 0022 0261     		str	r2, [r0, #16]
 612:Drivers/STM32F3xx_HAL_Driver/Src/stm32f3xx_hal_rcc_ex.c **** 
 740              		.loc 1 612 3 is_stmt 1 view .LVU219
 612:Drivers/STM32F3xx_HAL_Driver/Src/stm32f3xx_hal_rcc_ex.c **** 
 741              		.loc 1 612 39 is_stmt 0 view .LVU220
 742 0024 1A6B     		ldr	r2, [r3, #48]
 743 0026 02F01002 		and	r2, r2, #16
 612:Drivers/STM32F3xx_HAL_Driver/Src/stm32f3xx_hal_rcc_ex.c **** 
 744              		.loc 1 612 37 view .LVU221
 745 002a C261     		str	r2, [r0, #28]
 619:Drivers/STM32F3xx_HAL_Driver/Src/stm32f3xx_hal_rcc_ex.c ****   /* Get the USB clock configuration -----------------------------------------*/
 746              		.loc 1 619 3 is_stmt 1 view .LVU222
 621:Drivers/STM32F3xx_HAL_Driver/Src/stm32f3xx_hal_rcc_ex.c **** 
 747              		.loc 1 621 3 view .LVU223
 621:Drivers/STM32F3xx_HAL_Driver/Src/stm32f3xx_hal_rcc_ex.c **** 
 748              		.loc 1 621 38 is_stmt 0 view .LVU224
 749 002c 5A68     		ldr	r2, [r3, #4]
 750 002e 02F48002 		and	r2, r2, #4194304
 621:Drivers/STM32F3xx_HAL_Driver/Src/stm32f3xx_hal_rcc_ex.c **** 
 751              		.loc 1 621 36 view .LVU225
 752 0032 4265     		str	r2, [r0, #84]
ARM GAS  /var/folders/8c/gyvcglfx7f97kbqb2h83mm_r0000gn/T//cczE2vDZ.s 			page 39


 633:Drivers/STM32F3xx_HAL_Driver/Src/stm32f3xx_hal_rcc_ex.c ****   /* Get the I2C2 clock configuration -----------------------------------------*/
 753              		.loc 1 633 3 is_stmt 1 view .LVU226
 635:Drivers/STM32F3xx_HAL_Driver/Src/stm32f3xx_hal_rcc_ex.c **** 
 754              		.loc 1 635 3 view .LVU227
 635:Drivers/STM32F3xx_HAL_Driver/Src/stm32f3xx_hal_rcc_ex.c **** 
 755              		.loc 1 635 39 is_stmt 0 view .LVU228
 756 0034 1A6B     		ldr	r2, [r3, #48]
 757 0036 02F02002 		and	r2, r2, #32
 635:Drivers/STM32F3xx_HAL_Driver/Src/stm32f3xx_hal_rcc_ex.c **** 
 758              		.loc 1 635 37 view .LVU229
 759 003a 0262     		str	r2, [r0, #32]
 645:Drivers/STM32F3xx_HAL_Driver/Src/stm32f3xx_hal_rcc_ex.c ****   /* Get the I2C3 clock configuration -----------------------------------------*/
 760              		.loc 1 645 3 is_stmt 1 view .LVU230
 647:Drivers/STM32F3xx_HAL_Driver/Src/stm32f3xx_hal_rcc_ex.c **** 
 761              		.loc 1 647 3 view .LVU231
 647:Drivers/STM32F3xx_HAL_Driver/Src/stm32f3xx_hal_rcc_ex.c **** 
 762              		.loc 1 647 39 is_stmt 0 view .LVU232
 763 003c 1A6B     		ldr	r2, [r3, #48]
 764 003e 02F04002 		and	r2, r2, #64
 647:Drivers/STM32F3xx_HAL_Driver/Src/stm32f3xx_hal_rcc_ex.c **** 
 765              		.loc 1 647 37 view .LVU233
 766 0042 4262     		str	r2, [r0, #36]
 655:Drivers/STM32F3xx_HAL_Driver/Src/stm32f3xx_hal_rcc_ex.c ****   /* Get the UART4 clock configuration -----------------------------------------*/
 767              		.loc 1 655 3 is_stmt 1 view .LVU234
 657:Drivers/STM32F3xx_HAL_Driver/Src/stm32f3xx_hal_rcc_ex.c ****   /* Get the UART5 clock configuration -----------------------------------------*/
 768              		.loc 1 657 3 view .LVU235
 657:Drivers/STM32F3xx_HAL_Driver/Src/stm32f3xx_hal_rcc_ex.c ****   /* Get the UART5 clock configuration -----------------------------------------*/
 769              		.loc 1 657 40 is_stmt 0 view .LVU236
 770 0044 1A6B     		ldr	r2, [r3, #48]
 771 0046 02F44012 		and	r2, r2, #3145728
 657:Drivers/STM32F3xx_HAL_Driver/Src/stm32f3xx_hal_rcc_ex.c ****   /* Get the UART5 clock configuration -----------------------------------------*/
 772              		.loc 1 657 38 view .LVU237
 773 004a 4261     		str	r2, [r0, #20]
 659:Drivers/STM32F3xx_HAL_Driver/Src/stm32f3xx_hal_rcc_ex.c **** 
 774              		.loc 1 659 3 is_stmt 1 view .LVU238
 659:Drivers/STM32F3xx_HAL_Driver/Src/stm32f3xx_hal_rcc_ex.c **** 
 775              		.loc 1 659 40 is_stmt 0 view .LVU239
 776 004c 1A6B     		ldr	r2, [r3, #48]
 777 004e 02F44002 		and	r2, r2, #12582912
 659:Drivers/STM32F3xx_HAL_Driver/Src/stm32f3xx_hal_rcc_ex.c **** 
 778              		.loc 1 659 38 view .LVU240
 779 0052 8261     		str	r2, [r0, #24]
 668:Drivers/STM32F3xx_HAL_Driver/Src/stm32f3xx_hal_rcc_ex.c ****   /* Get the I2S clock configuration -----------------------------------------*/
 780              		.loc 1 668 3 is_stmt 1 view .LVU241
 670:Drivers/STM32F3xx_HAL_Driver/Src/stm32f3xx_hal_rcc_ex.c **** 
 781              		.loc 1 670 3 view .LVU242
 670:Drivers/STM32F3xx_HAL_Driver/Src/stm32f3xx_hal_rcc_ex.c **** 
 782              		.loc 1 670 38 is_stmt 0 view .LVU243
 783 0054 5A68     		ldr	r2, [r3, #4]
 784 0056 02F40002 		and	r2, r2, #8388608
 670:Drivers/STM32F3xx_HAL_Driver/Src/stm32f3xx_hal_rcc_ex.c **** 
 785              		.loc 1 670 36 view .LVU244
 786 005a 0263     		str	r2, [r0, #48]
 690:Drivers/STM32F3xx_HAL_Driver/Src/stm32f3xx_hal_rcc_ex.c ****   /* Get the ADC1 & ADC2 clock configuration -----------------------------------------*/
 787              		.loc 1 690 3 is_stmt 1 view .LVU245
 692:Drivers/STM32F3xx_HAL_Driver/Src/stm32f3xx_hal_rcc_ex.c **** 
 788              		.loc 1 692 3 view .LVU246
ARM GAS  /var/folders/8c/gyvcglfx7f97kbqb2h83mm_r0000gn/T//cczE2vDZ.s 			page 40


 692:Drivers/STM32F3xx_HAL_Driver/Src/stm32f3xx_hal_rcc_ex.c **** 
 789              		.loc 1 692 40 is_stmt 0 view .LVU247
 790 005c DA6A     		ldr	r2, [r3, #44]
 791 005e 02F4F872 		and	r2, r2, #496
 692:Drivers/STM32F3xx_HAL_Driver/Src/stm32f3xx_hal_rcc_ex.c **** 
 792              		.loc 1 692 38 view .LVU248
 793 0062 8262     		str	r2, [r0, #40]
 701:Drivers/STM32F3xx_HAL_Driver/Src/stm32f3xx_hal_rcc_ex.c ****    /* Get the ADC3 & ADC4 clock configuration -----------------------------------------*/
 794              		.loc 1 701 3 is_stmt 1 view .LVU249
 703:Drivers/STM32F3xx_HAL_Driver/Src/stm32f3xx_hal_rcc_ex.c **** 
 795              		.loc 1 703 3 view .LVU250
 703:Drivers/STM32F3xx_HAL_Driver/Src/stm32f3xx_hal_rcc_ex.c **** 
 796              		.loc 1 703 40 is_stmt 0 view .LVU251
 797 0064 DA6A     		ldr	r2, [r3, #44]
 798 0066 02F47852 		and	r2, r2, #15872
 703:Drivers/STM32F3xx_HAL_Driver/Src/stm32f3xx_hal_rcc_ex.c **** 
 799              		.loc 1 703 38 view .LVU252
 800 006a C262     		str	r2, [r0, #44]
 713:Drivers/STM32F3xx_HAL_Driver/Src/stm32f3xx_hal_rcc_ex.c ****   /* Get the TIM1 clock configuration -----------------------------------------*/
 801              		.loc 1 713 3 is_stmt 1 view .LVU253
 715:Drivers/STM32F3xx_HAL_Driver/Src/stm32f3xx_hal_rcc_ex.c **** 
 802              		.loc 1 715 3 view .LVU254
 715:Drivers/STM32F3xx_HAL_Driver/Src/stm32f3xx_hal_rcc_ex.c **** 
 803              		.loc 1 715 39 is_stmt 0 view .LVU255
 804 006c 1A6B     		ldr	r2, [r3, #48]
 805 006e 02F48072 		and	r2, r2, #256
 715:Drivers/STM32F3xx_HAL_Driver/Src/stm32f3xx_hal_rcc_ex.c **** 
 806              		.loc 1 715 37 view .LVU256
 807 0072 4263     		str	r2, [r0, #52]
 725:Drivers/STM32F3xx_HAL_Driver/Src/stm32f3xx_hal_rcc_ex.c ****   /* Get the TIM8 clock configuration -----------------------------------------*/
 808              		.loc 1 725 3 is_stmt 1 view .LVU257
 727:Drivers/STM32F3xx_HAL_Driver/Src/stm32f3xx_hal_rcc_ex.c **** 
 809              		.loc 1 727 3 view .LVU258
 727:Drivers/STM32F3xx_HAL_Driver/Src/stm32f3xx_hal_rcc_ex.c **** 
 810              		.loc 1 727 39 is_stmt 0 view .LVU259
 811 0074 1A6B     		ldr	r2, [r3, #48]
 812 0076 02F40072 		and	r2, r2, #512
 727:Drivers/STM32F3xx_HAL_Driver/Src/stm32f3xx_hal_rcc_ex.c **** 
 813              		.loc 1 727 37 view .LVU260
 814 007a 0264     		str	r2, [r0, #64]
 766:Drivers/STM32F3xx_HAL_Driver/Src/stm32f3xx_hal_rcc_ex.c ****   /* Get the TIM2 clock configuration -----------------------------------------*/
 815              		.loc 1 766 3 is_stmt 1 view .LVU261
 768:Drivers/STM32F3xx_HAL_Driver/Src/stm32f3xx_hal_rcc_ex.c **** 
 816              		.loc 1 768 3 view .LVU262
 768:Drivers/STM32F3xx_HAL_Driver/Src/stm32f3xx_hal_rcc_ex.c **** 
 817              		.loc 1 768 39 is_stmt 0 view .LVU263
 818 007c 1A6B     		ldr	r2, [r3, #48]
 819 007e 02F08072 		and	r2, r2, #16777216
 768:Drivers/STM32F3xx_HAL_Driver/Src/stm32f3xx_hal_rcc_ex.c **** 
 820              		.loc 1 768 37 view .LVU264
 821 0082 8263     		str	r2, [r0, #56]
 770:Drivers/STM32F3xx_HAL_Driver/Src/stm32f3xx_hal_rcc_ex.c ****   /* Get the TIM3 clock configuration -----------------------------------------*/
 822              		.loc 1 770 3 is_stmt 1 view .LVU265
 772:Drivers/STM32F3xx_HAL_Driver/Src/stm32f3xx_hal_rcc_ex.c **** 
 823              		.loc 1 772 3 view .LVU266
 772:Drivers/STM32F3xx_HAL_Driver/Src/stm32f3xx_hal_rcc_ex.c **** 
 824              		.loc 1 772 40 is_stmt 0 view .LVU267
ARM GAS  /var/folders/8c/gyvcglfx7f97kbqb2h83mm_r0000gn/T//cczE2vDZ.s 			page 41


 825 0084 1A6B     		ldr	r2, [r3, #48]
 826 0086 02F00072 		and	r2, r2, #33554432
 772:Drivers/STM32F3xx_HAL_Driver/Src/stm32f3xx_hal_rcc_ex.c **** 
 827              		.loc 1 772 38 view .LVU268
 828 008a C263     		str	r2, [r0, #60]
 774:Drivers/STM32F3xx_HAL_Driver/Src/stm32f3xx_hal_rcc_ex.c ****   /* Get the TIM15 clock configuration -----------------------------------------*/
 829              		.loc 1 774 3 is_stmt 1 view .LVU269
 776:Drivers/STM32F3xx_HAL_Driver/Src/stm32f3xx_hal_rcc_ex.c **** 
 830              		.loc 1 776 3 view .LVU270
 776:Drivers/STM32F3xx_HAL_Driver/Src/stm32f3xx_hal_rcc_ex.c **** 
 831              		.loc 1 776 40 is_stmt 0 view .LVU271
 832 008c 1A6B     		ldr	r2, [r3, #48]
 833 008e 02F48062 		and	r2, r2, #1024
 776:Drivers/STM32F3xx_HAL_Driver/Src/stm32f3xx_hal_rcc_ex.c **** 
 834              		.loc 1 776 38 view .LVU272
 835 0092 4264     		str	r2, [r0, #68]
 778:Drivers/STM32F3xx_HAL_Driver/Src/stm32f3xx_hal_rcc_ex.c ****   /* Get the TIM16 clock configuration -----------------------------------------*/
 836              		.loc 1 778 3 is_stmt 1 view .LVU273
 780:Drivers/STM32F3xx_HAL_Driver/Src/stm32f3xx_hal_rcc_ex.c **** 
 837              		.loc 1 780 3 view .LVU274
 780:Drivers/STM32F3xx_HAL_Driver/Src/stm32f3xx_hal_rcc_ex.c **** 
 838              		.loc 1 780 40 is_stmt 0 view .LVU275
 839 0094 1A6B     		ldr	r2, [r3, #48]
 840 0096 02F40062 		and	r2, r2, #2048
 780:Drivers/STM32F3xx_HAL_Driver/Src/stm32f3xx_hal_rcc_ex.c **** 
 841              		.loc 1 780 38 view .LVU276
 842 009a 8264     		str	r2, [r0, #72]
 782:Drivers/STM32F3xx_HAL_Driver/Src/stm32f3xx_hal_rcc_ex.c ****   /* Get the TIM17 clock configuration -----------------------------------------*/
 843              		.loc 1 782 3 is_stmt 1 view .LVU277
 784:Drivers/STM32F3xx_HAL_Driver/Src/stm32f3xx_hal_rcc_ex.c **** 
 844              		.loc 1 784 3 view .LVU278
 784:Drivers/STM32F3xx_HAL_Driver/Src/stm32f3xx_hal_rcc_ex.c **** 
 845              		.loc 1 784 40 is_stmt 0 view .LVU279
 846 009c 1A6B     		ldr	r2, [r3, #48]
 847              		.loc 1 789 39 view .LVU280
 848 009e 0160     		str	r1, [r0]
 784:Drivers/STM32F3xx_HAL_Driver/Src/stm32f3xx_hal_rcc_ex.c **** 
 849              		.loc 1 784 40 view .LVU281
 850 00a0 02F40052 		and	r2, r2, #8192
 784:Drivers/STM32F3xx_HAL_Driver/Src/stm32f3xx_hal_rcc_ex.c **** 
 851              		.loc 1 784 38 view .LVU282
 852 00a4 C264     		str	r2, [r0, #76]
 853              		.loc 1 789 3 is_stmt 1 view .LVU283
 790:Drivers/STM32F3xx_HAL_Driver/Src/stm32f3xx_hal_rcc_ex.c ****   /* Get the TIM20 clock configuration -----------------------------------------*/
 791:Drivers/STM32F3xx_HAL_Driver/Src/stm32f3xx_hal_rcc_ex.c ****   PeriphClkInit->Tim20ClockSelection = __HAL_RCC_GET_TIM20_SOURCE();
 854              		.loc 1 791 3 view .LVU284
 855              		.loc 1 791 40 is_stmt 0 view .LVU285
 856 00a6 1B6B     		ldr	r3, [r3, #48]
 857 00a8 03F40043 		and	r3, r3, #32768
 858              		.loc 1 791 38 view .LVU286
 859 00ac 0365     		str	r3, [r0, #80]
 792:Drivers/STM32F3xx_HAL_Driver/Src/stm32f3xx_hal_rcc_ex.c **** #endif /* STM32F303xE || STM32F398xx */
 793:Drivers/STM32F3xx_HAL_Driver/Src/stm32f3xx_hal_rcc_ex.c **** }
 860              		.loc 1 793 1 view .LVU287
 861 00ae 7047     		bx	lr
 862              	.L109:
 863              		.align	2
ARM GAS  /var/folders/8c/gyvcglfx7f97kbqb2h83mm_r0000gn/T//cczE2vDZ.s 			page 42


 864              	.L108:
 865 00b0 00100240 		.word	1073876992
 866 00b4 FF33F703 		.word	66532351
 867              		.cfi_endproc
 868              	.LFE127:
 870              		.section	.text.HAL_RCCEx_GetPeriphCLKFreq,"ax",%progbits
 871              		.align	1
 872              		.p2align 2,,3
 873              		.global	HAL_RCCEx_GetPeriphCLKFreq
 874              		.syntax unified
 875              		.thumb
 876              		.thumb_func
 877              		.fpu fpv4-sp-d16
 879              	HAL_RCCEx_GetPeriphCLKFreq:
 880              	.LVL33:
 881              	.LFB128:
 794:Drivers/STM32F3xx_HAL_Driver/Src/stm32f3xx_hal_rcc_ex.c **** 
 795:Drivers/STM32F3xx_HAL_Driver/Src/stm32f3xx_hal_rcc_ex.c **** /**
 796:Drivers/STM32F3xx_HAL_Driver/Src/stm32f3xx_hal_rcc_ex.c ****   * @brief  Returns the peripheral clock frequency
 797:Drivers/STM32F3xx_HAL_Driver/Src/stm32f3xx_hal_rcc_ex.c ****   * @note   Returns 0 if peripheral clock is unknown or 0xDEADDEAD if not applicable.
 798:Drivers/STM32F3xx_HAL_Driver/Src/stm32f3xx_hal_rcc_ex.c ****   * @param  PeriphClk Peripheral clock identifier
 799:Drivers/STM32F3xx_HAL_Driver/Src/stm32f3xx_hal_rcc_ex.c ****   *         This parameter can be one of the following values:
 800:Drivers/STM32F3xx_HAL_Driver/Src/stm32f3xx_hal_rcc_ex.c ****   *            @arg @ref RCC_PERIPHCLK_RTC     RTC peripheral clock
 801:Drivers/STM32F3xx_HAL_Driver/Src/stm32f3xx_hal_rcc_ex.c ****   *            @arg @ref RCC_PERIPHCLK_USART1  USART1 peripheral clock
 802:Drivers/STM32F3xx_HAL_Driver/Src/stm32f3xx_hal_rcc_ex.c ****   *            @arg @ref RCC_PERIPHCLK_I2C1    I2C1 peripheral clock
 803:Drivers/STM32F3xx_HAL_Driver/Src/stm32f3xx_hal_rcc_ex.c ****   @if STM32F301x8
 804:Drivers/STM32F3xx_HAL_Driver/Src/stm32f3xx_hal_rcc_ex.c ****   *            @arg @ref RCC_PERIPHCLK_I2C2    I2C2 peripheral clock
 805:Drivers/STM32F3xx_HAL_Driver/Src/stm32f3xx_hal_rcc_ex.c ****   *            @arg @ref RCC_PERIPHCLK_I2C3    I2C3 peripheral clock
 806:Drivers/STM32F3xx_HAL_Driver/Src/stm32f3xx_hal_rcc_ex.c ****   *            @arg @ref RCC_PERIPHCLK_I2S     I2S peripheral clock
 807:Drivers/STM32F3xx_HAL_Driver/Src/stm32f3xx_hal_rcc_ex.c ****   *            @arg @ref RCC_PERIPHCLK_ADC1    ADC1 peripheral clock
 808:Drivers/STM32F3xx_HAL_Driver/Src/stm32f3xx_hal_rcc_ex.c ****   *            @arg @ref RCC_PERIPHCLK_TIM1    TIM1 peripheral clock
 809:Drivers/STM32F3xx_HAL_Driver/Src/stm32f3xx_hal_rcc_ex.c ****   *            @arg @ref RCC_PERIPHCLK_TIM15   TIM15 peripheral clock
 810:Drivers/STM32F3xx_HAL_Driver/Src/stm32f3xx_hal_rcc_ex.c ****   *            @arg @ref RCC_PERIPHCLK_TIM16   TIM16 peripheral clock
 811:Drivers/STM32F3xx_HAL_Driver/Src/stm32f3xx_hal_rcc_ex.c ****   *            @arg @ref RCC_PERIPHCLK_TIM17   TIM17 peripheral clock
 812:Drivers/STM32F3xx_HAL_Driver/Src/stm32f3xx_hal_rcc_ex.c ****   @endif
 813:Drivers/STM32F3xx_HAL_Driver/Src/stm32f3xx_hal_rcc_ex.c ****   @if STM32F302x8
 814:Drivers/STM32F3xx_HAL_Driver/Src/stm32f3xx_hal_rcc_ex.c ****   *            @arg @ref RCC_PERIPHCLK_I2C2    I2C2 peripheral clock
 815:Drivers/STM32F3xx_HAL_Driver/Src/stm32f3xx_hal_rcc_ex.c ****   *            @arg @ref RCC_PERIPHCLK_I2C3    I2C3 peripheral clock
 816:Drivers/STM32F3xx_HAL_Driver/Src/stm32f3xx_hal_rcc_ex.c ****   *            @arg @ref RCC_PERIPHCLK_I2S     I2S peripheral clock
 817:Drivers/STM32F3xx_HAL_Driver/Src/stm32f3xx_hal_rcc_ex.c ****   *            @arg @ref RCC_PERIPHCLK_USB     USB peripheral clock
 818:Drivers/STM32F3xx_HAL_Driver/Src/stm32f3xx_hal_rcc_ex.c ****   *            @arg @ref RCC_PERIPHCLK_ADC1    ADC1 peripheral clock
 819:Drivers/STM32F3xx_HAL_Driver/Src/stm32f3xx_hal_rcc_ex.c ****   *            @arg @ref RCC_PERIPHCLK_TIM1    TIM1 peripheral clock
 820:Drivers/STM32F3xx_HAL_Driver/Src/stm32f3xx_hal_rcc_ex.c ****   *            @arg @ref RCC_PERIPHCLK_TIM15   TIM15 peripheral clock
 821:Drivers/STM32F3xx_HAL_Driver/Src/stm32f3xx_hal_rcc_ex.c ****   *            @arg @ref RCC_PERIPHCLK_TIM16   TIM16 peripheral clock
 822:Drivers/STM32F3xx_HAL_Driver/Src/stm32f3xx_hal_rcc_ex.c ****   *            @arg @ref RCC_PERIPHCLK_TIM17   TIM17 peripheral clock
 823:Drivers/STM32F3xx_HAL_Driver/Src/stm32f3xx_hal_rcc_ex.c ****   @endif
 824:Drivers/STM32F3xx_HAL_Driver/Src/stm32f3xx_hal_rcc_ex.c ****   @if STM32F302xC
 825:Drivers/STM32F3xx_HAL_Driver/Src/stm32f3xx_hal_rcc_ex.c ****   *            @arg @ref RCC_PERIPHCLK_USART2  USART2 peripheral clock
 826:Drivers/STM32F3xx_HAL_Driver/Src/stm32f3xx_hal_rcc_ex.c ****   *            @arg @ref RCC_PERIPHCLK_USART3  USART3 peripheral clock
 827:Drivers/STM32F3xx_HAL_Driver/Src/stm32f3xx_hal_rcc_ex.c ****   *            @arg @ref RCC_PERIPHCLK_UART4   UART4 peripheral clock
 828:Drivers/STM32F3xx_HAL_Driver/Src/stm32f3xx_hal_rcc_ex.c ****   *            @arg @ref RCC_PERIPHCLK_UART5   UART5 peripheral clock
 829:Drivers/STM32F3xx_HAL_Driver/Src/stm32f3xx_hal_rcc_ex.c ****   *            @arg @ref RCC_PERIPHCLK_I2C2    I2C2 peripheral clock
 830:Drivers/STM32F3xx_HAL_Driver/Src/stm32f3xx_hal_rcc_ex.c ****   *            @arg @ref RCC_PERIPHCLK_I2S     I2S peripheral clock
 831:Drivers/STM32F3xx_HAL_Driver/Src/stm32f3xx_hal_rcc_ex.c ****   *            @arg @ref RCC_PERIPHCLK_USB     USB peripheral clock
 832:Drivers/STM32F3xx_HAL_Driver/Src/stm32f3xx_hal_rcc_ex.c ****   *            @arg @ref RCC_PERIPHCLK_ADC12   ADC12 peripheral clock
 833:Drivers/STM32F3xx_HAL_Driver/Src/stm32f3xx_hal_rcc_ex.c ****   *            @arg @ref RCC_PERIPHCLK_TIM1    TIM1 peripheral clock
 834:Drivers/STM32F3xx_HAL_Driver/Src/stm32f3xx_hal_rcc_ex.c ****   @endif
ARM GAS  /var/folders/8c/gyvcglfx7f97kbqb2h83mm_r0000gn/T//cczE2vDZ.s 			page 43


 835:Drivers/STM32F3xx_HAL_Driver/Src/stm32f3xx_hal_rcc_ex.c ****   @if STM32F302xE
 836:Drivers/STM32F3xx_HAL_Driver/Src/stm32f3xx_hal_rcc_ex.c ****   *            @arg @ref RCC_PERIPHCLK_USART2  USART2 peripheral clock
 837:Drivers/STM32F3xx_HAL_Driver/Src/stm32f3xx_hal_rcc_ex.c ****   *            @arg @ref RCC_PERIPHCLK_USART3  USART3 peripheral clock
 838:Drivers/STM32F3xx_HAL_Driver/Src/stm32f3xx_hal_rcc_ex.c ****   *            @arg @ref RCC_PERIPHCLK_UART4   UART4 peripheral clock
 839:Drivers/STM32F3xx_HAL_Driver/Src/stm32f3xx_hal_rcc_ex.c ****   *            @arg @ref RCC_PERIPHCLK_UART5   UART5 peripheral clock
 840:Drivers/STM32F3xx_HAL_Driver/Src/stm32f3xx_hal_rcc_ex.c ****   *            @arg @ref RCC_PERIPHCLK_I2C2    I2C2 peripheral clock
 841:Drivers/STM32F3xx_HAL_Driver/Src/stm32f3xx_hal_rcc_ex.c ****   *            @arg @ref RCC_PERIPHCLK_I2C3    I2C3 peripheral clock
 842:Drivers/STM32F3xx_HAL_Driver/Src/stm32f3xx_hal_rcc_ex.c ****   *            @arg @ref RCC_PERIPHCLK_I2S     I2S peripheral clock
 843:Drivers/STM32F3xx_HAL_Driver/Src/stm32f3xx_hal_rcc_ex.c ****   *            @arg @ref RCC_PERIPHCLK_USB     USB peripheral clock
 844:Drivers/STM32F3xx_HAL_Driver/Src/stm32f3xx_hal_rcc_ex.c ****   *            @arg @ref RCC_PERIPHCLK_ADC12   ADC12 peripheral clock
 845:Drivers/STM32F3xx_HAL_Driver/Src/stm32f3xx_hal_rcc_ex.c ****   *            @arg @ref RCC_PERIPHCLK_TIM1    TIM1 peripheral clock
 846:Drivers/STM32F3xx_HAL_Driver/Src/stm32f3xx_hal_rcc_ex.c ****   *            @arg @ref RCC_PERIPHCLK_TIM2    TIM2 peripheral clock
 847:Drivers/STM32F3xx_HAL_Driver/Src/stm32f3xx_hal_rcc_ex.c ****   *            @arg @ref RCC_PERIPHCLK_TIM15   TIM15 peripheral clock
 848:Drivers/STM32F3xx_HAL_Driver/Src/stm32f3xx_hal_rcc_ex.c ****   *            @arg @ref RCC_PERIPHCLK_TIM16   TIM16 peripheral clock
 849:Drivers/STM32F3xx_HAL_Driver/Src/stm32f3xx_hal_rcc_ex.c ****   *            @arg @ref RCC_PERIPHCLK_TIM17   TIM17 peripheral clock
 850:Drivers/STM32F3xx_HAL_Driver/Src/stm32f3xx_hal_rcc_ex.c ****   *            @arg @ref RCC_PERIPHCLK_TIM34   TIM34 peripheral clock
 851:Drivers/STM32F3xx_HAL_Driver/Src/stm32f3xx_hal_rcc_ex.c ****   @endif
 852:Drivers/STM32F3xx_HAL_Driver/Src/stm32f3xx_hal_rcc_ex.c ****   @if STM32F303x8
 853:Drivers/STM32F3xx_HAL_Driver/Src/stm32f3xx_hal_rcc_ex.c ****   *            @arg @ref RCC_PERIPHCLK_ADC12   ADC12 peripheral clock
 854:Drivers/STM32F3xx_HAL_Driver/Src/stm32f3xx_hal_rcc_ex.c ****   *            @arg @ref RCC_PERIPHCLK_TIM1    TIM1 peripheral clock
 855:Drivers/STM32F3xx_HAL_Driver/Src/stm32f3xx_hal_rcc_ex.c ****   @endif
 856:Drivers/STM32F3xx_HAL_Driver/Src/stm32f3xx_hal_rcc_ex.c ****   @if STM32F303xC
 857:Drivers/STM32F3xx_HAL_Driver/Src/stm32f3xx_hal_rcc_ex.c ****   *            @arg @ref RCC_PERIPHCLK_USART2  USART2 peripheral clock
 858:Drivers/STM32F3xx_HAL_Driver/Src/stm32f3xx_hal_rcc_ex.c ****   *            @arg @ref RCC_PERIPHCLK_USART3  USART3 peripheral clock
 859:Drivers/STM32F3xx_HAL_Driver/Src/stm32f3xx_hal_rcc_ex.c ****   *            @arg @ref RCC_PERIPHCLK_UART4   UART4 peripheral clock
 860:Drivers/STM32F3xx_HAL_Driver/Src/stm32f3xx_hal_rcc_ex.c ****   *            @arg @ref RCC_PERIPHCLK_UART5   UART5 peripheral clock
 861:Drivers/STM32F3xx_HAL_Driver/Src/stm32f3xx_hal_rcc_ex.c ****   *            @arg @ref RCC_PERIPHCLK_I2C2    I2C2 peripheral clock
 862:Drivers/STM32F3xx_HAL_Driver/Src/stm32f3xx_hal_rcc_ex.c ****   *            @arg @ref RCC_PERIPHCLK_I2S     I2S peripheral clock
 863:Drivers/STM32F3xx_HAL_Driver/Src/stm32f3xx_hal_rcc_ex.c ****   *            @arg @ref RCC_PERIPHCLK_USB     USB peripheral clock
 864:Drivers/STM32F3xx_HAL_Driver/Src/stm32f3xx_hal_rcc_ex.c ****   *            @arg @ref RCC_PERIPHCLK_ADC12   ADC12 peripheral clock
 865:Drivers/STM32F3xx_HAL_Driver/Src/stm32f3xx_hal_rcc_ex.c ****   *            @arg @ref RCC_PERIPHCLK_ADC34   ADC34 peripheral clock
 866:Drivers/STM32F3xx_HAL_Driver/Src/stm32f3xx_hal_rcc_ex.c ****   *            @arg @ref RCC_PERIPHCLK_TIM1    TIM1 peripheral clock
 867:Drivers/STM32F3xx_HAL_Driver/Src/stm32f3xx_hal_rcc_ex.c ****   *            @arg @ref RCC_PERIPHCLK_TIM8    TIM8 peripheral clock
 868:Drivers/STM32F3xx_HAL_Driver/Src/stm32f3xx_hal_rcc_ex.c ****   @endif
 869:Drivers/STM32F3xx_HAL_Driver/Src/stm32f3xx_hal_rcc_ex.c ****   @if STM32F303xE
 870:Drivers/STM32F3xx_HAL_Driver/Src/stm32f3xx_hal_rcc_ex.c ****   *            @arg @ref RCC_PERIPHCLK_USART2  USART2 peripheral clock
 871:Drivers/STM32F3xx_HAL_Driver/Src/stm32f3xx_hal_rcc_ex.c ****   *            @arg @ref RCC_PERIPHCLK_USART3  USART3 peripheral clock
 872:Drivers/STM32F3xx_HAL_Driver/Src/stm32f3xx_hal_rcc_ex.c ****   *            @arg @ref RCC_PERIPHCLK_UART4   UART4 peripheral clock
 873:Drivers/STM32F3xx_HAL_Driver/Src/stm32f3xx_hal_rcc_ex.c ****   *            @arg @ref RCC_PERIPHCLK_UART5   UART5 peripheral clock
 874:Drivers/STM32F3xx_HAL_Driver/Src/stm32f3xx_hal_rcc_ex.c ****   *            @arg @ref RCC_PERIPHCLK_I2C2    I2C2 peripheral clock
 875:Drivers/STM32F3xx_HAL_Driver/Src/stm32f3xx_hal_rcc_ex.c ****   *            @arg @ref RCC_PERIPHCLK_I2C3    I2C3 peripheral clock
 876:Drivers/STM32F3xx_HAL_Driver/Src/stm32f3xx_hal_rcc_ex.c ****   *            @arg @ref RCC_PERIPHCLK_I2S     I2S peripheral clock
 877:Drivers/STM32F3xx_HAL_Driver/Src/stm32f3xx_hal_rcc_ex.c ****   *            @arg @ref RCC_PERIPHCLK_USB     USB peripheral clock
 878:Drivers/STM32F3xx_HAL_Driver/Src/stm32f3xx_hal_rcc_ex.c ****   *            @arg @ref RCC_PERIPHCLK_ADC12   ADC12 peripheral clock
 879:Drivers/STM32F3xx_HAL_Driver/Src/stm32f3xx_hal_rcc_ex.c ****   *            @arg @ref RCC_PERIPHCLK_ADC34   ADC34 peripheral clock
 880:Drivers/STM32F3xx_HAL_Driver/Src/stm32f3xx_hal_rcc_ex.c ****   *            @arg @ref RCC_PERIPHCLK_TIM1    TIM1 peripheral clock
 881:Drivers/STM32F3xx_HAL_Driver/Src/stm32f3xx_hal_rcc_ex.c ****   *            @arg @ref RCC_PERIPHCLK_TIM2    TIM2 peripheral clock
 882:Drivers/STM32F3xx_HAL_Driver/Src/stm32f3xx_hal_rcc_ex.c ****   *            @arg @ref RCC_PERIPHCLK_TIM8    TIM8 peripheral clock
 883:Drivers/STM32F3xx_HAL_Driver/Src/stm32f3xx_hal_rcc_ex.c ****   *            @arg @ref RCC_PERIPHCLK_TIM15   TIM15 peripheral clock
 884:Drivers/STM32F3xx_HAL_Driver/Src/stm32f3xx_hal_rcc_ex.c ****   *            @arg @ref RCC_PERIPHCLK_TIM16   TIM16 peripheral clock
 885:Drivers/STM32F3xx_HAL_Driver/Src/stm32f3xx_hal_rcc_ex.c ****   *            @arg @ref RCC_PERIPHCLK_TIM17   TIM17 peripheral clock
 886:Drivers/STM32F3xx_HAL_Driver/Src/stm32f3xx_hal_rcc_ex.c ****   *            @arg @ref RCC_PERIPHCLK_TIM20   TIM20 peripheral clock
 887:Drivers/STM32F3xx_HAL_Driver/Src/stm32f3xx_hal_rcc_ex.c ****   *            @arg @ref RCC_PERIPHCLK_TIM34   TIM34 peripheral clock
 888:Drivers/STM32F3xx_HAL_Driver/Src/stm32f3xx_hal_rcc_ex.c ****   @endif
 889:Drivers/STM32F3xx_HAL_Driver/Src/stm32f3xx_hal_rcc_ex.c ****   @if STM32F318xx
 890:Drivers/STM32F3xx_HAL_Driver/Src/stm32f3xx_hal_rcc_ex.c ****   *            @arg @ref RCC_PERIPHCLK_I2C2    I2C2 peripheral clock
 891:Drivers/STM32F3xx_HAL_Driver/Src/stm32f3xx_hal_rcc_ex.c ****   *            @arg @ref RCC_PERIPHCLK_I2C3    I2C3 peripheral clock
ARM GAS  /var/folders/8c/gyvcglfx7f97kbqb2h83mm_r0000gn/T//cczE2vDZ.s 			page 44


 892:Drivers/STM32F3xx_HAL_Driver/Src/stm32f3xx_hal_rcc_ex.c ****   *            @arg @ref RCC_PERIPHCLK_I2S     I2S peripheral clock
 893:Drivers/STM32F3xx_HAL_Driver/Src/stm32f3xx_hal_rcc_ex.c ****   *            @arg @ref RCC_PERIPHCLK_ADC1    ADC1 peripheral clock
 894:Drivers/STM32F3xx_HAL_Driver/Src/stm32f3xx_hal_rcc_ex.c ****   *            @arg @ref RCC_PERIPHCLK_TIM1    TIM1 peripheral clock
 895:Drivers/STM32F3xx_HAL_Driver/Src/stm32f3xx_hal_rcc_ex.c ****   *            @arg @ref RCC_PERIPHCLK_TIM15   TIM15 peripheral clock
 896:Drivers/STM32F3xx_HAL_Driver/Src/stm32f3xx_hal_rcc_ex.c ****   *            @arg @ref RCC_PERIPHCLK_TIM16   TIM16 peripheral clock
 897:Drivers/STM32F3xx_HAL_Driver/Src/stm32f3xx_hal_rcc_ex.c ****   *            @arg @ref RCC_PERIPHCLK_TIM17   TIM17 peripheral clock
 898:Drivers/STM32F3xx_HAL_Driver/Src/stm32f3xx_hal_rcc_ex.c ****   @endif
 899:Drivers/STM32F3xx_HAL_Driver/Src/stm32f3xx_hal_rcc_ex.c ****   @if STM32F328xx
 900:Drivers/STM32F3xx_HAL_Driver/Src/stm32f3xx_hal_rcc_ex.c ****   *            @arg @ref RCC_PERIPHCLK_I2C2    I2C2 peripheral clock
 901:Drivers/STM32F3xx_HAL_Driver/Src/stm32f3xx_hal_rcc_ex.c ****   *            @arg @ref RCC_PERIPHCLK_ADC12   ADC12 peripheral clock
 902:Drivers/STM32F3xx_HAL_Driver/Src/stm32f3xx_hal_rcc_ex.c ****   *            @arg @ref RCC_PERIPHCLK_TIM1    TIM1 peripheral clock
 903:Drivers/STM32F3xx_HAL_Driver/Src/stm32f3xx_hal_rcc_ex.c ****   @endif
 904:Drivers/STM32F3xx_HAL_Driver/Src/stm32f3xx_hal_rcc_ex.c ****   @if STM32F334x8
 905:Drivers/STM32F3xx_HAL_Driver/Src/stm32f3xx_hal_rcc_ex.c ****   *            @arg @ref RCC_PERIPHCLK_ADC12   ADC12 peripheral clock
 906:Drivers/STM32F3xx_HAL_Driver/Src/stm32f3xx_hal_rcc_ex.c ****   *            @arg @ref RCC_PERIPHCLK_TIM1    TIM1 peripheral clock
 907:Drivers/STM32F3xx_HAL_Driver/Src/stm32f3xx_hal_rcc_ex.c ****   *            @arg @ref RCC_PERIPHCLK_HRTIM1  HRTIM1 peripheral clock
 908:Drivers/STM32F3xx_HAL_Driver/Src/stm32f3xx_hal_rcc_ex.c ****   @endif
 909:Drivers/STM32F3xx_HAL_Driver/Src/stm32f3xx_hal_rcc_ex.c ****   @if STM32F358xx
 910:Drivers/STM32F3xx_HAL_Driver/Src/stm32f3xx_hal_rcc_ex.c ****   *            @arg @ref RCC_PERIPHCLK_USART2  USART2 peripheral clock
 911:Drivers/STM32F3xx_HAL_Driver/Src/stm32f3xx_hal_rcc_ex.c ****   *            @arg @ref RCC_PERIPHCLK_USART3  USART3 peripheral clock
 912:Drivers/STM32F3xx_HAL_Driver/Src/stm32f3xx_hal_rcc_ex.c ****   *            @arg @ref RCC_PERIPHCLK_UART4   UART4 peripheral clock
 913:Drivers/STM32F3xx_HAL_Driver/Src/stm32f3xx_hal_rcc_ex.c ****   *            @arg @ref RCC_PERIPHCLK_UART5   UART5 peripheral clock
 914:Drivers/STM32F3xx_HAL_Driver/Src/stm32f3xx_hal_rcc_ex.c ****   *            @arg @ref RCC_PERIPHCLK_I2S     I2S peripheral clock
 915:Drivers/STM32F3xx_HAL_Driver/Src/stm32f3xx_hal_rcc_ex.c ****   *            @arg @ref RCC_PERIPHCLK_ADC12   ADC12 peripheral clock
 916:Drivers/STM32F3xx_HAL_Driver/Src/stm32f3xx_hal_rcc_ex.c ****   *            @arg @ref RCC_PERIPHCLK_ADC34   ADC34 peripheral clock
 917:Drivers/STM32F3xx_HAL_Driver/Src/stm32f3xx_hal_rcc_ex.c ****   *            @arg @ref RCC_PERIPHCLK_TIM1    TIM1 peripheral clock
 918:Drivers/STM32F3xx_HAL_Driver/Src/stm32f3xx_hal_rcc_ex.c ****   *            @arg @ref RCC_PERIPHCLK_TIM8    TIM8 peripheral clock
 919:Drivers/STM32F3xx_HAL_Driver/Src/stm32f3xx_hal_rcc_ex.c ****   @endif
 920:Drivers/STM32F3xx_HAL_Driver/Src/stm32f3xx_hal_rcc_ex.c ****   @if STM32F373xC
 921:Drivers/STM32F3xx_HAL_Driver/Src/stm32f3xx_hal_rcc_ex.c ****   *            @arg @ref RCC_PERIPHCLK_USART2  USART2 peripheral clock
 922:Drivers/STM32F3xx_HAL_Driver/Src/stm32f3xx_hal_rcc_ex.c ****   *            @arg @ref RCC_PERIPHCLK_USART3  USART3 peripheral clock
 923:Drivers/STM32F3xx_HAL_Driver/Src/stm32f3xx_hal_rcc_ex.c ****   *            @arg @ref RCC_PERIPHCLK_I2C2    I2C2 peripheral clock
 924:Drivers/STM32F3xx_HAL_Driver/Src/stm32f3xx_hal_rcc_ex.c ****   *            @arg @ref RCC_PERIPHCLK_USB     USB peripheral clock
 925:Drivers/STM32F3xx_HAL_Driver/Src/stm32f3xx_hal_rcc_ex.c ****   *            @arg @ref RCC_PERIPHCLK_ADC1    ADC1 peripheral clock
 926:Drivers/STM32F3xx_HAL_Driver/Src/stm32f3xx_hal_rcc_ex.c ****   *            @arg @ref RCC_PERIPHCLK_SDADC   SDADC peripheral clock
 927:Drivers/STM32F3xx_HAL_Driver/Src/stm32f3xx_hal_rcc_ex.c ****   *            @arg @ref RCC_PERIPHCLK_CEC     CEC peripheral clock
 928:Drivers/STM32F3xx_HAL_Driver/Src/stm32f3xx_hal_rcc_ex.c ****   @endif
 929:Drivers/STM32F3xx_HAL_Driver/Src/stm32f3xx_hal_rcc_ex.c ****   @if STM32F378xx
 930:Drivers/STM32F3xx_HAL_Driver/Src/stm32f3xx_hal_rcc_ex.c ****   *            @arg @ref RCC_PERIPHCLK_USART2  USART2 peripheral clock
 931:Drivers/STM32F3xx_HAL_Driver/Src/stm32f3xx_hal_rcc_ex.c ****   *            @arg @ref RCC_PERIPHCLK_USART3  USART3 peripheral clock
 932:Drivers/STM32F3xx_HAL_Driver/Src/stm32f3xx_hal_rcc_ex.c ****   *            @arg @ref RCC_PERIPHCLK_I2C2    I2C2 peripheral clock
 933:Drivers/STM32F3xx_HAL_Driver/Src/stm32f3xx_hal_rcc_ex.c ****   *            @arg @ref RCC_PERIPHCLK_ADC1    ADC1 peripheral clock
 934:Drivers/STM32F3xx_HAL_Driver/Src/stm32f3xx_hal_rcc_ex.c ****   *            @arg @ref RCC_PERIPHCLK_SDADC   SDADC peripheral clock
 935:Drivers/STM32F3xx_HAL_Driver/Src/stm32f3xx_hal_rcc_ex.c ****   *            @arg @ref RCC_PERIPHCLK_CEC     CEC peripheral clock
 936:Drivers/STM32F3xx_HAL_Driver/Src/stm32f3xx_hal_rcc_ex.c ****   @endif
 937:Drivers/STM32F3xx_HAL_Driver/Src/stm32f3xx_hal_rcc_ex.c ****   @if STM32F398xx
 938:Drivers/STM32F3xx_HAL_Driver/Src/stm32f3xx_hal_rcc_ex.c ****   *            @arg @ref RCC_PERIPHCLK_USART2  USART2 peripheral clock
 939:Drivers/STM32F3xx_HAL_Driver/Src/stm32f3xx_hal_rcc_ex.c ****   *            @arg @ref RCC_PERIPHCLK_USART3  USART3 peripheral clock
 940:Drivers/STM32F3xx_HAL_Driver/Src/stm32f3xx_hal_rcc_ex.c ****   *            @arg @ref RCC_PERIPHCLK_UART4   UART4 peripheral clock
 941:Drivers/STM32F3xx_HAL_Driver/Src/stm32f3xx_hal_rcc_ex.c ****   *            @arg @ref RCC_PERIPHCLK_UART5   UART5 peripheral clock
 942:Drivers/STM32F3xx_HAL_Driver/Src/stm32f3xx_hal_rcc_ex.c ****   *            @arg @ref RCC_PERIPHCLK_I2C2    I2C2 peripheral clock
 943:Drivers/STM32F3xx_HAL_Driver/Src/stm32f3xx_hal_rcc_ex.c ****   *            @arg @ref RCC_PERIPHCLK_I2C3    I2C3 peripheral clock
 944:Drivers/STM32F3xx_HAL_Driver/Src/stm32f3xx_hal_rcc_ex.c ****   *            @arg @ref RCC_PERIPHCLK_I2S     I2S peripheral clock
 945:Drivers/STM32F3xx_HAL_Driver/Src/stm32f3xx_hal_rcc_ex.c ****   *            @arg @ref RCC_PERIPHCLK_ADC12   ADC12 peripheral clock
 946:Drivers/STM32F3xx_HAL_Driver/Src/stm32f3xx_hal_rcc_ex.c ****   *            @arg @ref RCC_PERIPHCLK_ADC34   ADC34 peripheral clock
 947:Drivers/STM32F3xx_HAL_Driver/Src/stm32f3xx_hal_rcc_ex.c ****   *            @arg @ref RCC_PERIPHCLK_TIM1    TIM1 peripheral clock
 948:Drivers/STM32F3xx_HAL_Driver/Src/stm32f3xx_hal_rcc_ex.c ****   *            @arg @ref RCC_PERIPHCLK_TIM2    TIM2 peripheral clock
ARM GAS  /var/folders/8c/gyvcglfx7f97kbqb2h83mm_r0000gn/T//cczE2vDZ.s 			page 45


 949:Drivers/STM32F3xx_HAL_Driver/Src/stm32f3xx_hal_rcc_ex.c ****   *            @arg @ref RCC_PERIPHCLK_TIM8    TIM8 peripheral clock
 950:Drivers/STM32F3xx_HAL_Driver/Src/stm32f3xx_hal_rcc_ex.c ****   *            @arg @ref RCC_PERIPHCLK_TIM15   TIM15 peripheral clock
 951:Drivers/STM32F3xx_HAL_Driver/Src/stm32f3xx_hal_rcc_ex.c ****   *            @arg @ref RCC_PERIPHCLK_TIM16   TIM16 peripheral clock
 952:Drivers/STM32F3xx_HAL_Driver/Src/stm32f3xx_hal_rcc_ex.c ****   *            @arg @ref RCC_PERIPHCLK_TIM17   TIM17 peripheral clock
 953:Drivers/STM32F3xx_HAL_Driver/Src/stm32f3xx_hal_rcc_ex.c ****   *            @arg @ref RCC_PERIPHCLK_TIM20   TIM20 peripheral clock
 954:Drivers/STM32F3xx_HAL_Driver/Src/stm32f3xx_hal_rcc_ex.c ****   *            @arg @ref RCC_PERIPHCLK_TIM34   TIM34 peripheral clock
 955:Drivers/STM32F3xx_HAL_Driver/Src/stm32f3xx_hal_rcc_ex.c ****   @endif
 956:Drivers/STM32F3xx_HAL_Driver/Src/stm32f3xx_hal_rcc_ex.c ****   * @retval Frequency in Hz (0: means that no available frequency for the peripheral)
 957:Drivers/STM32F3xx_HAL_Driver/Src/stm32f3xx_hal_rcc_ex.c ****   */
 958:Drivers/STM32F3xx_HAL_Driver/Src/stm32f3xx_hal_rcc_ex.c **** uint32_t HAL_RCCEx_GetPeriphCLKFreq(uint32_t PeriphClk)
 959:Drivers/STM32F3xx_HAL_Driver/Src/stm32f3xx_hal_rcc_ex.c **** {
 882              		.loc 1 959 1 is_stmt 1 view -0
 883              		.cfi_startproc
 884              		@ args = 0, pretend = 0, frame = 32
 885              		@ frame_needed = 0, uses_anonymous_args = 0
 886              		@ link register save eliminated.
 960:Drivers/STM32F3xx_HAL_Driver/Src/stm32f3xx_hal_rcc_ex.c ****   /* frequency == 0 : means that no available frequency for the peripheral */
 961:Drivers/STM32F3xx_HAL_Driver/Src/stm32f3xx_hal_rcc_ex.c ****   uint32_t frequency = 0U;
 887              		.loc 1 961 3 view .LVU289
 962:Drivers/STM32F3xx_HAL_Driver/Src/stm32f3xx_hal_rcc_ex.c **** 
 963:Drivers/STM32F3xx_HAL_Driver/Src/stm32f3xx_hal_rcc_ex.c ****   uint32_t srcclk = 0U;
 888              		.loc 1 963 3 view .LVU290
 964:Drivers/STM32F3xx_HAL_Driver/Src/stm32f3xx_hal_rcc_ex.c **** #if defined(RCC_CFGR2_ADC1PRES) || defined(RCC_CFGR2_ADCPRE12) || defined(RCC_CFGR2_ADCPRE34)
 965:Drivers/STM32F3xx_HAL_Driver/Src/stm32f3xx_hal_rcc_ex.c ****   uint16_t adc_pll_prediv_table[16] = { 1U,  2U,  4U,  6U, 8U, 10U, 12U, 16U, 32U, 64U, 128U, 256U,
 889              		.loc 1 965 3 view .LVU291
 959:Drivers/STM32F3xx_HAL_Driver/Src/stm32f3xx_hal_rcc_ex.c ****   /* frequency == 0 : means that no available frequency for the peripheral */
 890              		.loc 1 959 1 is_stmt 0 view .LVU292
 891 0000 70B4     		push	{r4, r5, r6}
 892              	.LCFI6:
 893              		.cfi_def_cfa_offset 12
 894              		.cfi_offset 4, -12
 895              		.cfi_offset 5, -8
 896              		.cfi_offset 6, -4
 897              		.loc 1 965 12 view .LVU293
 898 0002 AD4E     		ldr	r6, .L262
 959:Drivers/STM32F3xx_HAL_Driver/Src/stm32f3xx_hal_rcc_ex.c ****   /* frequency == 0 : means that no available frequency for the peripheral */
 899              		.loc 1 959 1 view .LVU294
 900 0004 0446     		mov	r4, r0
 901              		.loc 1 965 12 view .LVU295
 902 0006 0FCE     		ldmia	r6!, {r0, r1, r2, r3}
 903              	.LVL34:
 959:Drivers/STM32F3xx_HAL_Driver/Src/stm32f3xx_hal_rcc_ex.c ****   /* frequency == 0 : means that no available frequency for the peripheral */
 904              		.loc 1 959 1 view .LVU296
 905 0008 89B0     		sub	sp, sp, #36
 906              	.LCFI7:
 907              		.cfi_def_cfa_offset 48
 908              		.loc 1 965 12 view .LVU297
 909 000a 6D46     		mov	r5, sp
 910 000c 0FC5     		stmia	r5!, {r0, r1, r2, r3}
 911 000e 96E80F00 		ldm	r6, {r0, r1, r2, r3}
 966:Drivers/STM32F3xx_HAL_Driver/Src/stm32f3xx_hal_rcc_ex.c **** #endif /* RCC_CFGR2_ADC1PRES || RCC_CFGR2_ADCPRE12 || RCC_CFGR2_ADCPRE34 */
 967:Drivers/STM32F3xx_HAL_Driver/Src/stm32f3xx_hal_rcc_ex.c **** #if defined(RCC_CFGR_SDPRE)
 968:Drivers/STM32F3xx_HAL_Driver/Src/stm32f3xx_hal_rcc_ex.c ****   uint8_t sdadc_prescaler_table[16] = { 2U,  4U,  6U, 8U, 10U, 12U, 14U, 16U, 20U, 24U, 28U, 32U, 3
 969:Drivers/STM32F3xx_HAL_Driver/Src/stm32f3xx_hal_rcc_ex.c **** #endif /* RCC_CFGR_SDPRE */
 970:Drivers/STM32F3xx_HAL_Driver/Src/stm32f3xx_hal_rcc_ex.c **** 
 971:Drivers/STM32F3xx_HAL_Driver/Src/stm32f3xx_hal_rcc_ex.c ****   /* Check the parameters */
 972:Drivers/STM32F3xx_HAL_Driver/Src/stm32f3xx_hal_rcc_ex.c ****   assert_param(IS_RCC_PERIPHCLOCK(PeriphClk));
ARM GAS  /var/folders/8c/gyvcglfx7f97kbqb2h83mm_r0000gn/T//cczE2vDZ.s 			page 46


 973:Drivers/STM32F3xx_HAL_Driver/Src/stm32f3xx_hal_rcc_ex.c ****   
 974:Drivers/STM32F3xx_HAL_Driver/Src/stm32f3xx_hal_rcc_ex.c ****   switch (PeriphClk)
 912              		.loc 1 974 3 view .LVU298
 913 0012 B4F5805F 		cmp	r4, #4096
 965:Drivers/STM32F3xx_HAL_Driver/Src/stm32f3xx_hal_rcc_ex.c **** #endif /* RCC_CFGR2_ADC1PRES || RCC_CFGR2_ADCPRE12 || RCC_CFGR2_ADCPRE34 */
 914              		.loc 1 965 12 view .LVU299
 915 0016 85E80F00 		stm	r5, {r0, r1, r2, r3}
 972:Drivers/STM32F3xx_HAL_Driver/Src/stm32f3xx_hal_rcc_ex.c ****   
 916              		.loc 1 972 3 is_stmt 1 view .LVU300
 917              		.loc 1 974 3 view .LVU301
 918 001a 00F0D080 		beq	.L111
 919 001e 18D8     		bhi	.L112
 920 0020 102C     		cmp	r4, #16
 921 0022 00F06E81 		beq	.L113
 922 0026 58D9     		bls	.L255
 923 0028 802C     		cmp	r4, #128
 924 002a 00F08281 		beq	.L121
 925 002e 47D8     		bhi	.L122
 926 0030 202C     		cmp	r4, #32
 927 0032 00F02281 		beq	.L123
 928 0036 402C     		cmp	r4, #64
 929 0038 67D1     		bne	.L183
 975:Drivers/STM32F3xx_HAL_Driver/Src/stm32f3xx_hal_rcc_ex.c ****   {
 976:Drivers/STM32F3xx_HAL_Driver/Src/stm32f3xx_hal_rcc_ex.c ****   case RCC_PERIPHCLK_RTC:
 977:Drivers/STM32F3xx_HAL_Driver/Src/stm32f3xx_hal_rcc_ex.c ****     {
 978:Drivers/STM32F3xx_HAL_Driver/Src/stm32f3xx_hal_rcc_ex.c ****       /* Get the current RTC source */
 979:Drivers/STM32F3xx_HAL_Driver/Src/stm32f3xx_hal_rcc_ex.c ****       srcclk = __HAL_RCC_GET_RTC_SOURCE();
 980:Drivers/STM32F3xx_HAL_Driver/Src/stm32f3xx_hal_rcc_ex.c **** 
 981:Drivers/STM32F3xx_HAL_Driver/Src/stm32f3xx_hal_rcc_ex.c ****       /* Check if LSE is ready and if RTC clock selection is LSE */
 982:Drivers/STM32F3xx_HAL_Driver/Src/stm32f3xx_hal_rcc_ex.c ****       if ((srcclk == RCC_RTCCLKSOURCE_LSE) && (HAL_IS_BIT_SET(RCC->BDCR, RCC_BDCR_LSERDY)))
 983:Drivers/STM32F3xx_HAL_Driver/Src/stm32f3xx_hal_rcc_ex.c ****       {
 984:Drivers/STM32F3xx_HAL_Driver/Src/stm32f3xx_hal_rcc_ex.c ****         frequency = LSE_VALUE;
 985:Drivers/STM32F3xx_HAL_Driver/Src/stm32f3xx_hal_rcc_ex.c ****       }
 986:Drivers/STM32F3xx_HAL_Driver/Src/stm32f3xx_hal_rcc_ex.c ****       /* Check if LSI is ready and if RTC clock selection is LSI */
 987:Drivers/STM32F3xx_HAL_Driver/Src/stm32f3xx_hal_rcc_ex.c ****       else if ((srcclk == RCC_RTCCLKSOURCE_LSI) && (HAL_IS_BIT_SET(RCC->CSR, RCC_CSR_LSIRDY)))
 988:Drivers/STM32F3xx_HAL_Driver/Src/stm32f3xx_hal_rcc_ex.c ****       {
 989:Drivers/STM32F3xx_HAL_Driver/Src/stm32f3xx_hal_rcc_ex.c ****         frequency = LSI_VALUE;
 990:Drivers/STM32F3xx_HAL_Driver/Src/stm32f3xx_hal_rcc_ex.c ****       }
 991:Drivers/STM32F3xx_HAL_Driver/Src/stm32f3xx_hal_rcc_ex.c ****       /* Check if HSE is ready  and if RTC clock selection is HSI_DIV32*/
 992:Drivers/STM32F3xx_HAL_Driver/Src/stm32f3xx_hal_rcc_ex.c ****       else if ((srcclk == RCC_RTCCLKSOURCE_HSE_DIV32) && (HAL_IS_BIT_SET(RCC->CR, RCC_CR_HSERDY)))
 993:Drivers/STM32F3xx_HAL_Driver/Src/stm32f3xx_hal_rcc_ex.c ****       {
 994:Drivers/STM32F3xx_HAL_Driver/Src/stm32f3xx_hal_rcc_ex.c ****         frequency = HSE_VALUE / 32U;
 995:Drivers/STM32F3xx_HAL_Driver/Src/stm32f3xx_hal_rcc_ex.c ****       }
 996:Drivers/STM32F3xx_HAL_Driver/Src/stm32f3xx_hal_rcc_ex.c ****       break;
 997:Drivers/STM32F3xx_HAL_Driver/Src/stm32f3xx_hal_rcc_ex.c ****     }
 998:Drivers/STM32F3xx_HAL_Driver/Src/stm32f3xx_hal_rcc_ex.c ****   case RCC_PERIPHCLK_USART1:
 999:Drivers/STM32F3xx_HAL_Driver/Src/stm32f3xx_hal_rcc_ex.c ****     {
1000:Drivers/STM32F3xx_HAL_Driver/Src/stm32f3xx_hal_rcc_ex.c ****       /* Get the current USART1 source */
1001:Drivers/STM32F3xx_HAL_Driver/Src/stm32f3xx_hal_rcc_ex.c ****       srcclk = __HAL_RCC_GET_USART1_SOURCE();
1002:Drivers/STM32F3xx_HAL_Driver/Src/stm32f3xx_hal_rcc_ex.c **** 
1003:Drivers/STM32F3xx_HAL_Driver/Src/stm32f3xx_hal_rcc_ex.c ****       /* Check if USART1 clock selection is PCLK1 */
1004:Drivers/STM32F3xx_HAL_Driver/Src/stm32f3xx_hal_rcc_ex.c **** #if defined(RCC_USART1CLKSOURCE_PCLK2)
1005:Drivers/STM32F3xx_HAL_Driver/Src/stm32f3xx_hal_rcc_ex.c ****       if (srcclk == RCC_USART1CLKSOURCE_PCLK2)
1006:Drivers/STM32F3xx_HAL_Driver/Src/stm32f3xx_hal_rcc_ex.c ****       {
1007:Drivers/STM32F3xx_HAL_Driver/Src/stm32f3xx_hal_rcc_ex.c ****         frequency = HAL_RCC_GetPCLK2Freq();
1008:Drivers/STM32F3xx_HAL_Driver/Src/stm32f3xx_hal_rcc_ex.c ****       }
1009:Drivers/STM32F3xx_HAL_Driver/Src/stm32f3xx_hal_rcc_ex.c **** #else
ARM GAS  /var/folders/8c/gyvcglfx7f97kbqb2h83mm_r0000gn/T//cczE2vDZ.s 			page 47


1010:Drivers/STM32F3xx_HAL_Driver/Src/stm32f3xx_hal_rcc_ex.c ****       if (srcclk == RCC_USART1CLKSOURCE_PCLK1)
1011:Drivers/STM32F3xx_HAL_Driver/Src/stm32f3xx_hal_rcc_ex.c ****       {
1012:Drivers/STM32F3xx_HAL_Driver/Src/stm32f3xx_hal_rcc_ex.c ****         frequency = HAL_RCC_GetPCLK1Freq();
1013:Drivers/STM32F3xx_HAL_Driver/Src/stm32f3xx_hal_rcc_ex.c ****       }
1014:Drivers/STM32F3xx_HAL_Driver/Src/stm32f3xx_hal_rcc_ex.c **** #endif /* RCC_USART1CLKSOURCE_PCLK2 */
1015:Drivers/STM32F3xx_HAL_Driver/Src/stm32f3xx_hal_rcc_ex.c ****       /* Check if HSI is ready and if USART1 clock selection is HSI */
1016:Drivers/STM32F3xx_HAL_Driver/Src/stm32f3xx_hal_rcc_ex.c ****       else if ((srcclk == RCC_USART1CLKSOURCE_HSI) && (HAL_IS_BIT_SET(RCC->CR, RCC_CR_HSIRDY)))
1017:Drivers/STM32F3xx_HAL_Driver/Src/stm32f3xx_hal_rcc_ex.c ****       {
1018:Drivers/STM32F3xx_HAL_Driver/Src/stm32f3xx_hal_rcc_ex.c ****         frequency = HSI_VALUE;
1019:Drivers/STM32F3xx_HAL_Driver/Src/stm32f3xx_hal_rcc_ex.c ****       }
1020:Drivers/STM32F3xx_HAL_Driver/Src/stm32f3xx_hal_rcc_ex.c ****       /* Check if USART1 clock selection is SYSCLK */
1021:Drivers/STM32F3xx_HAL_Driver/Src/stm32f3xx_hal_rcc_ex.c ****       else if (srcclk == RCC_USART1CLKSOURCE_SYSCLK)
1022:Drivers/STM32F3xx_HAL_Driver/Src/stm32f3xx_hal_rcc_ex.c ****       {
1023:Drivers/STM32F3xx_HAL_Driver/Src/stm32f3xx_hal_rcc_ex.c ****         frequency = HAL_RCC_GetSysClockFreq();
1024:Drivers/STM32F3xx_HAL_Driver/Src/stm32f3xx_hal_rcc_ex.c ****       }
1025:Drivers/STM32F3xx_HAL_Driver/Src/stm32f3xx_hal_rcc_ex.c ****       /* Check if LSE is ready  and if USART1 clock selection is LSE */
1026:Drivers/STM32F3xx_HAL_Driver/Src/stm32f3xx_hal_rcc_ex.c ****       else if ((srcclk == RCC_USART1CLKSOURCE_LSE) && (HAL_IS_BIT_SET(RCC->BDCR, RCC_BDCR_LSERDY)))
1027:Drivers/STM32F3xx_HAL_Driver/Src/stm32f3xx_hal_rcc_ex.c ****       {
1028:Drivers/STM32F3xx_HAL_Driver/Src/stm32f3xx_hal_rcc_ex.c ****         frequency = LSE_VALUE;
1029:Drivers/STM32F3xx_HAL_Driver/Src/stm32f3xx_hal_rcc_ex.c ****       }
1030:Drivers/STM32F3xx_HAL_Driver/Src/stm32f3xx_hal_rcc_ex.c ****       break;
1031:Drivers/STM32F3xx_HAL_Driver/Src/stm32f3xx_hal_rcc_ex.c ****     }
1032:Drivers/STM32F3xx_HAL_Driver/Src/stm32f3xx_hal_rcc_ex.c **** #if defined(RCC_CFGR3_USART2SW)
1033:Drivers/STM32F3xx_HAL_Driver/Src/stm32f3xx_hal_rcc_ex.c ****   case RCC_PERIPHCLK_USART2:
1034:Drivers/STM32F3xx_HAL_Driver/Src/stm32f3xx_hal_rcc_ex.c ****     {
1035:Drivers/STM32F3xx_HAL_Driver/Src/stm32f3xx_hal_rcc_ex.c ****       /* Get the current USART2 source */
1036:Drivers/STM32F3xx_HAL_Driver/Src/stm32f3xx_hal_rcc_ex.c ****       srcclk = __HAL_RCC_GET_USART2_SOURCE();
1037:Drivers/STM32F3xx_HAL_Driver/Src/stm32f3xx_hal_rcc_ex.c **** 
1038:Drivers/STM32F3xx_HAL_Driver/Src/stm32f3xx_hal_rcc_ex.c ****       /* Check if USART2 clock selection is PCLK1 */
1039:Drivers/STM32F3xx_HAL_Driver/Src/stm32f3xx_hal_rcc_ex.c ****       if (srcclk == RCC_USART2CLKSOURCE_PCLK1)
1040:Drivers/STM32F3xx_HAL_Driver/Src/stm32f3xx_hal_rcc_ex.c ****       {
1041:Drivers/STM32F3xx_HAL_Driver/Src/stm32f3xx_hal_rcc_ex.c ****         frequency = HAL_RCC_GetPCLK1Freq();
1042:Drivers/STM32F3xx_HAL_Driver/Src/stm32f3xx_hal_rcc_ex.c ****       }
1043:Drivers/STM32F3xx_HAL_Driver/Src/stm32f3xx_hal_rcc_ex.c ****       /* Check if HSI is ready and if USART2 clock selection is HSI */
1044:Drivers/STM32F3xx_HAL_Driver/Src/stm32f3xx_hal_rcc_ex.c ****       else if ((srcclk == RCC_USART2CLKSOURCE_HSI) && (HAL_IS_BIT_SET(RCC->CR, RCC_CR_HSIRDY)))
1045:Drivers/STM32F3xx_HAL_Driver/Src/stm32f3xx_hal_rcc_ex.c ****       {
1046:Drivers/STM32F3xx_HAL_Driver/Src/stm32f3xx_hal_rcc_ex.c ****         frequency = HSI_VALUE;
1047:Drivers/STM32F3xx_HAL_Driver/Src/stm32f3xx_hal_rcc_ex.c ****       }
1048:Drivers/STM32F3xx_HAL_Driver/Src/stm32f3xx_hal_rcc_ex.c ****       /* Check if USART2 clock selection is SYSCLK */
1049:Drivers/STM32F3xx_HAL_Driver/Src/stm32f3xx_hal_rcc_ex.c ****       else if (srcclk == RCC_USART2CLKSOURCE_SYSCLK)
1050:Drivers/STM32F3xx_HAL_Driver/Src/stm32f3xx_hal_rcc_ex.c ****       {
1051:Drivers/STM32F3xx_HAL_Driver/Src/stm32f3xx_hal_rcc_ex.c ****         frequency = HAL_RCC_GetSysClockFreq();
1052:Drivers/STM32F3xx_HAL_Driver/Src/stm32f3xx_hal_rcc_ex.c ****       }
1053:Drivers/STM32F3xx_HAL_Driver/Src/stm32f3xx_hal_rcc_ex.c ****       /* Check if LSE is ready  and if USART2 clock selection is LSE */
1054:Drivers/STM32F3xx_HAL_Driver/Src/stm32f3xx_hal_rcc_ex.c ****       else if ((srcclk == RCC_USART2CLKSOURCE_LSE) && (HAL_IS_BIT_SET(RCC->BDCR, RCC_BDCR_LSERDY)))
1055:Drivers/STM32F3xx_HAL_Driver/Src/stm32f3xx_hal_rcc_ex.c ****       {
1056:Drivers/STM32F3xx_HAL_Driver/Src/stm32f3xx_hal_rcc_ex.c ****         frequency = LSE_VALUE;
1057:Drivers/STM32F3xx_HAL_Driver/Src/stm32f3xx_hal_rcc_ex.c ****       }
1058:Drivers/STM32F3xx_HAL_Driver/Src/stm32f3xx_hal_rcc_ex.c ****       break;
1059:Drivers/STM32F3xx_HAL_Driver/Src/stm32f3xx_hal_rcc_ex.c ****     }
1060:Drivers/STM32F3xx_HAL_Driver/Src/stm32f3xx_hal_rcc_ex.c **** #endif /* RCC_CFGR3_USART2SW */
1061:Drivers/STM32F3xx_HAL_Driver/Src/stm32f3xx_hal_rcc_ex.c **** #if defined(RCC_CFGR3_USART3SW)
1062:Drivers/STM32F3xx_HAL_Driver/Src/stm32f3xx_hal_rcc_ex.c ****   case RCC_PERIPHCLK_USART3:
1063:Drivers/STM32F3xx_HAL_Driver/Src/stm32f3xx_hal_rcc_ex.c ****     {
1064:Drivers/STM32F3xx_HAL_Driver/Src/stm32f3xx_hal_rcc_ex.c ****       /* Get the current USART3 source */
1065:Drivers/STM32F3xx_HAL_Driver/Src/stm32f3xx_hal_rcc_ex.c ****       srcclk = __HAL_RCC_GET_USART3_SOURCE();
1066:Drivers/STM32F3xx_HAL_Driver/Src/stm32f3xx_hal_rcc_ex.c **** 
ARM GAS  /var/folders/8c/gyvcglfx7f97kbqb2h83mm_r0000gn/T//cczE2vDZ.s 			page 48


1067:Drivers/STM32F3xx_HAL_Driver/Src/stm32f3xx_hal_rcc_ex.c ****       /* Check if USART3 clock selection is PCLK1 */
1068:Drivers/STM32F3xx_HAL_Driver/Src/stm32f3xx_hal_rcc_ex.c ****       if (srcclk == RCC_USART3CLKSOURCE_PCLK1)
1069:Drivers/STM32F3xx_HAL_Driver/Src/stm32f3xx_hal_rcc_ex.c ****       {
1070:Drivers/STM32F3xx_HAL_Driver/Src/stm32f3xx_hal_rcc_ex.c ****         frequency = HAL_RCC_GetPCLK1Freq();
1071:Drivers/STM32F3xx_HAL_Driver/Src/stm32f3xx_hal_rcc_ex.c ****       }
1072:Drivers/STM32F3xx_HAL_Driver/Src/stm32f3xx_hal_rcc_ex.c ****       /* Check if HSI is ready and if USART3 clock selection is HSI */
1073:Drivers/STM32F3xx_HAL_Driver/Src/stm32f3xx_hal_rcc_ex.c ****       else if ((srcclk == RCC_USART3CLKSOURCE_HSI) && (HAL_IS_BIT_SET(RCC->CR, RCC_CR_HSIRDY)))
1074:Drivers/STM32F3xx_HAL_Driver/Src/stm32f3xx_hal_rcc_ex.c ****       {
1075:Drivers/STM32F3xx_HAL_Driver/Src/stm32f3xx_hal_rcc_ex.c ****         frequency = HSI_VALUE;
1076:Drivers/STM32F3xx_HAL_Driver/Src/stm32f3xx_hal_rcc_ex.c ****       }
1077:Drivers/STM32F3xx_HAL_Driver/Src/stm32f3xx_hal_rcc_ex.c ****       /* Check if USART3 clock selection is SYSCLK */
1078:Drivers/STM32F3xx_HAL_Driver/Src/stm32f3xx_hal_rcc_ex.c ****       else if (srcclk == RCC_USART3CLKSOURCE_SYSCLK)
1079:Drivers/STM32F3xx_HAL_Driver/Src/stm32f3xx_hal_rcc_ex.c ****       {
1080:Drivers/STM32F3xx_HAL_Driver/Src/stm32f3xx_hal_rcc_ex.c ****         frequency = HAL_RCC_GetSysClockFreq();
1081:Drivers/STM32F3xx_HAL_Driver/Src/stm32f3xx_hal_rcc_ex.c ****       }
1082:Drivers/STM32F3xx_HAL_Driver/Src/stm32f3xx_hal_rcc_ex.c ****       /* Check if LSE is ready  and if USART3 clock selection is LSE */
1083:Drivers/STM32F3xx_HAL_Driver/Src/stm32f3xx_hal_rcc_ex.c ****       else if ((srcclk == RCC_USART3CLKSOURCE_LSE) && (HAL_IS_BIT_SET(RCC->BDCR, RCC_BDCR_LSERDY)))
1084:Drivers/STM32F3xx_HAL_Driver/Src/stm32f3xx_hal_rcc_ex.c ****       {
1085:Drivers/STM32F3xx_HAL_Driver/Src/stm32f3xx_hal_rcc_ex.c ****         frequency = LSE_VALUE;
1086:Drivers/STM32F3xx_HAL_Driver/Src/stm32f3xx_hal_rcc_ex.c ****       }
1087:Drivers/STM32F3xx_HAL_Driver/Src/stm32f3xx_hal_rcc_ex.c ****      break;
1088:Drivers/STM32F3xx_HAL_Driver/Src/stm32f3xx_hal_rcc_ex.c ****     }
1089:Drivers/STM32F3xx_HAL_Driver/Src/stm32f3xx_hal_rcc_ex.c **** #endif /* RCC_CFGR3_USART3SW */
1090:Drivers/STM32F3xx_HAL_Driver/Src/stm32f3xx_hal_rcc_ex.c **** #if defined(RCC_CFGR3_UART4SW)
1091:Drivers/STM32F3xx_HAL_Driver/Src/stm32f3xx_hal_rcc_ex.c ****   case RCC_PERIPHCLK_UART4:
1092:Drivers/STM32F3xx_HAL_Driver/Src/stm32f3xx_hal_rcc_ex.c ****     {
1093:Drivers/STM32F3xx_HAL_Driver/Src/stm32f3xx_hal_rcc_ex.c ****       /* Get the current UART4 source */
1094:Drivers/STM32F3xx_HAL_Driver/Src/stm32f3xx_hal_rcc_ex.c ****       srcclk = __HAL_RCC_GET_UART4_SOURCE();
1095:Drivers/STM32F3xx_HAL_Driver/Src/stm32f3xx_hal_rcc_ex.c **** 
1096:Drivers/STM32F3xx_HAL_Driver/Src/stm32f3xx_hal_rcc_ex.c ****       /* Check if UART4 clock selection is PCLK1 */
1097:Drivers/STM32F3xx_HAL_Driver/Src/stm32f3xx_hal_rcc_ex.c ****       if (srcclk == RCC_UART4CLKSOURCE_PCLK1)
1098:Drivers/STM32F3xx_HAL_Driver/Src/stm32f3xx_hal_rcc_ex.c ****       {
1099:Drivers/STM32F3xx_HAL_Driver/Src/stm32f3xx_hal_rcc_ex.c ****         frequency = HAL_RCC_GetPCLK1Freq();
1100:Drivers/STM32F3xx_HAL_Driver/Src/stm32f3xx_hal_rcc_ex.c ****       }
1101:Drivers/STM32F3xx_HAL_Driver/Src/stm32f3xx_hal_rcc_ex.c ****       /* Check if HSI is ready and if UART4 clock selection is HSI */
1102:Drivers/STM32F3xx_HAL_Driver/Src/stm32f3xx_hal_rcc_ex.c ****       else if ((srcclk == RCC_UART4CLKSOURCE_HSI) && (HAL_IS_BIT_SET(RCC->CR, RCC_CR_HSIRDY)))
1103:Drivers/STM32F3xx_HAL_Driver/Src/stm32f3xx_hal_rcc_ex.c ****       {
1104:Drivers/STM32F3xx_HAL_Driver/Src/stm32f3xx_hal_rcc_ex.c ****         frequency = HSI_VALUE;
1105:Drivers/STM32F3xx_HAL_Driver/Src/stm32f3xx_hal_rcc_ex.c ****       }
1106:Drivers/STM32F3xx_HAL_Driver/Src/stm32f3xx_hal_rcc_ex.c ****       /* Check if UART4 clock selection is SYSCLK */
1107:Drivers/STM32F3xx_HAL_Driver/Src/stm32f3xx_hal_rcc_ex.c ****       else if (srcclk == RCC_UART4CLKSOURCE_SYSCLK)
1108:Drivers/STM32F3xx_HAL_Driver/Src/stm32f3xx_hal_rcc_ex.c ****       {
1109:Drivers/STM32F3xx_HAL_Driver/Src/stm32f3xx_hal_rcc_ex.c ****         frequency = HAL_RCC_GetSysClockFreq();
1110:Drivers/STM32F3xx_HAL_Driver/Src/stm32f3xx_hal_rcc_ex.c ****       }
1111:Drivers/STM32F3xx_HAL_Driver/Src/stm32f3xx_hal_rcc_ex.c ****       /* Check if LSE is ready  and if UART4 clock selection is LSE */
1112:Drivers/STM32F3xx_HAL_Driver/Src/stm32f3xx_hal_rcc_ex.c ****       else if ((srcclk == RCC_UART4CLKSOURCE_LSE) && (HAL_IS_BIT_SET(RCC->BDCR, RCC_BDCR_LSERDY)))
1113:Drivers/STM32F3xx_HAL_Driver/Src/stm32f3xx_hal_rcc_ex.c ****       {
1114:Drivers/STM32F3xx_HAL_Driver/Src/stm32f3xx_hal_rcc_ex.c ****         frequency = LSE_VALUE;
1115:Drivers/STM32F3xx_HAL_Driver/Src/stm32f3xx_hal_rcc_ex.c ****       }
1116:Drivers/STM32F3xx_HAL_Driver/Src/stm32f3xx_hal_rcc_ex.c ****       break;
1117:Drivers/STM32F3xx_HAL_Driver/Src/stm32f3xx_hal_rcc_ex.c ****     }
1118:Drivers/STM32F3xx_HAL_Driver/Src/stm32f3xx_hal_rcc_ex.c **** #endif /* RCC_CFGR3_UART4SW */
1119:Drivers/STM32F3xx_HAL_Driver/Src/stm32f3xx_hal_rcc_ex.c **** #if defined(RCC_CFGR3_UART5SW)
1120:Drivers/STM32F3xx_HAL_Driver/Src/stm32f3xx_hal_rcc_ex.c ****   case RCC_PERIPHCLK_UART5:
1121:Drivers/STM32F3xx_HAL_Driver/Src/stm32f3xx_hal_rcc_ex.c ****     {
1122:Drivers/STM32F3xx_HAL_Driver/Src/stm32f3xx_hal_rcc_ex.c ****       /* Get the current UART5 source */
1123:Drivers/STM32F3xx_HAL_Driver/Src/stm32f3xx_hal_rcc_ex.c ****       srcclk = __HAL_RCC_GET_UART5_SOURCE();
ARM GAS  /var/folders/8c/gyvcglfx7f97kbqb2h83mm_r0000gn/T//cczE2vDZ.s 			page 49


1124:Drivers/STM32F3xx_HAL_Driver/Src/stm32f3xx_hal_rcc_ex.c **** 
1125:Drivers/STM32F3xx_HAL_Driver/Src/stm32f3xx_hal_rcc_ex.c ****       /* Check if UART5 clock selection is PCLK1 */
1126:Drivers/STM32F3xx_HAL_Driver/Src/stm32f3xx_hal_rcc_ex.c ****       if (srcclk == RCC_UART5CLKSOURCE_PCLK1)
1127:Drivers/STM32F3xx_HAL_Driver/Src/stm32f3xx_hal_rcc_ex.c ****       {
1128:Drivers/STM32F3xx_HAL_Driver/Src/stm32f3xx_hal_rcc_ex.c ****         frequency = HAL_RCC_GetPCLK1Freq();
1129:Drivers/STM32F3xx_HAL_Driver/Src/stm32f3xx_hal_rcc_ex.c ****       }
1130:Drivers/STM32F3xx_HAL_Driver/Src/stm32f3xx_hal_rcc_ex.c ****       /* Check if HSI is ready and if UART5 clock selection is HSI */
1131:Drivers/STM32F3xx_HAL_Driver/Src/stm32f3xx_hal_rcc_ex.c ****       else if ((srcclk == RCC_UART5CLKSOURCE_HSI) && (HAL_IS_BIT_SET(RCC->CR, RCC_CR_HSIRDY)))
1132:Drivers/STM32F3xx_HAL_Driver/Src/stm32f3xx_hal_rcc_ex.c ****       {
1133:Drivers/STM32F3xx_HAL_Driver/Src/stm32f3xx_hal_rcc_ex.c ****         frequency = HSI_VALUE;
1134:Drivers/STM32F3xx_HAL_Driver/Src/stm32f3xx_hal_rcc_ex.c ****       }
1135:Drivers/STM32F3xx_HAL_Driver/Src/stm32f3xx_hal_rcc_ex.c ****       /* Check if UART5 clock selection is SYSCLK */
1136:Drivers/STM32F3xx_HAL_Driver/Src/stm32f3xx_hal_rcc_ex.c ****       else if (srcclk == RCC_UART5CLKSOURCE_SYSCLK)
1137:Drivers/STM32F3xx_HAL_Driver/Src/stm32f3xx_hal_rcc_ex.c ****       {
1138:Drivers/STM32F3xx_HAL_Driver/Src/stm32f3xx_hal_rcc_ex.c ****         frequency = HAL_RCC_GetSysClockFreq();
1139:Drivers/STM32F3xx_HAL_Driver/Src/stm32f3xx_hal_rcc_ex.c ****       }
1140:Drivers/STM32F3xx_HAL_Driver/Src/stm32f3xx_hal_rcc_ex.c ****       /* Check if LSE is ready  and if UART5 clock selection is LSE */
1141:Drivers/STM32F3xx_HAL_Driver/Src/stm32f3xx_hal_rcc_ex.c ****       else if ((srcclk == RCC_UART5CLKSOURCE_LSE) && (HAL_IS_BIT_SET(RCC->BDCR, RCC_BDCR_LSERDY)))
1142:Drivers/STM32F3xx_HAL_Driver/Src/stm32f3xx_hal_rcc_ex.c ****       {
1143:Drivers/STM32F3xx_HAL_Driver/Src/stm32f3xx_hal_rcc_ex.c ****         frequency = LSE_VALUE;
1144:Drivers/STM32F3xx_HAL_Driver/Src/stm32f3xx_hal_rcc_ex.c ****       }
1145:Drivers/STM32F3xx_HAL_Driver/Src/stm32f3xx_hal_rcc_ex.c ****       break;
1146:Drivers/STM32F3xx_HAL_Driver/Src/stm32f3xx_hal_rcc_ex.c ****     }
1147:Drivers/STM32F3xx_HAL_Driver/Src/stm32f3xx_hal_rcc_ex.c **** #endif /* RCC_CFGR3_UART5SW */
1148:Drivers/STM32F3xx_HAL_Driver/Src/stm32f3xx_hal_rcc_ex.c ****   case RCC_PERIPHCLK_I2C1:
1149:Drivers/STM32F3xx_HAL_Driver/Src/stm32f3xx_hal_rcc_ex.c ****     {
1150:Drivers/STM32F3xx_HAL_Driver/Src/stm32f3xx_hal_rcc_ex.c ****       /* Get the current I2C1 source */
1151:Drivers/STM32F3xx_HAL_Driver/Src/stm32f3xx_hal_rcc_ex.c ****       srcclk = __HAL_RCC_GET_I2C1_SOURCE();
1152:Drivers/STM32F3xx_HAL_Driver/Src/stm32f3xx_hal_rcc_ex.c **** 
1153:Drivers/STM32F3xx_HAL_Driver/Src/stm32f3xx_hal_rcc_ex.c ****       /* Check if HSI is ready and if I2C1 clock selection is HSI */
1154:Drivers/STM32F3xx_HAL_Driver/Src/stm32f3xx_hal_rcc_ex.c ****       if ((srcclk == RCC_I2C1CLKSOURCE_HSI) && (HAL_IS_BIT_SET(RCC->CR, RCC_CR_HSIRDY)))
1155:Drivers/STM32F3xx_HAL_Driver/Src/stm32f3xx_hal_rcc_ex.c ****       {
1156:Drivers/STM32F3xx_HAL_Driver/Src/stm32f3xx_hal_rcc_ex.c ****         frequency = HSI_VALUE;
1157:Drivers/STM32F3xx_HAL_Driver/Src/stm32f3xx_hal_rcc_ex.c ****       }
1158:Drivers/STM32F3xx_HAL_Driver/Src/stm32f3xx_hal_rcc_ex.c ****       /* Check if I2C1 clock selection is SYSCLK */
1159:Drivers/STM32F3xx_HAL_Driver/Src/stm32f3xx_hal_rcc_ex.c ****       else if (srcclk == RCC_I2C1CLKSOURCE_SYSCLK)
1160:Drivers/STM32F3xx_HAL_Driver/Src/stm32f3xx_hal_rcc_ex.c ****       {
1161:Drivers/STM32F3xx_HAL_Driver/Src/stm32f3xx_hal_rcc_ex.c ****         frequency = HAL_RCC_GetSysClockFreq();
1162:Drivers/STM32F3xx_HAL_Driver/Src/stm32f3xx_hal_rcc_ex.c ****       }
1163:Drivers/STM32F3xx_HAL_Driver/Src/stm32f3xx_hal_rcc_ex.c ****       break;
1164:Drivers/STM32F3xx_HAL_Driver/Src/stm32f3xx_hal_rcc_ex.c ****     }
1165:Drivers/STM32F3xx_HAL_Driver/Src/stm32f3xx_hal_rcc_ex.c **** #if defined(RCC_CFGR3_I2C2SW)
1166:Drivers/STM32F3xx_HAL_Driver/Src/stm32f3xx_hal_rcc_ex.c ****   case RCC_PERIPHCLK_I2C2:
1167:Drivers/STM32F3xx_HAL_Driver/Src/stm32f3xx_hal_rcc_ex.c ****     {
1168:Drivers/STM32F3xx_HAL_Driver/Src/stm32f3xx_hal_rcc_ex.c ****       /* Get the current I2C2 source */
1169:Drivers/STM32F3xx_HAL_Driver/Src/stm32f3xx_hal_rcc_ex.c ****       srcclk = __HAL_RCC_GET_I2C2_SOURCE();
 930              		.loc 1 1169 7 view .LVU302
 931              		.loc 1 1169 16 is_stmt 0 view .LVU303
 932 003a A04B     		ldr	r3, .L262+4
 933 003c 186B     		ldr	r0, [r3, #48]
 934              	.LVL35:
1170:Drivers/STM32F3xx_HAL_Driver/Src/stm32f3xx_hal_rcc_ex.c **** 
1171:Drivers/STM32F3xx_HAL_Driver/Src/stm32f3xx_hal_rcc_ex.c ****       /* Check if HSI is ready and if I2C2 clock selection is HSI */
1172:Drivers/STM32F3xx_HAL_Driver/Src/stm32f3xx_hal_rcc_ex.c ****       if ((srcclk == RCC_I2C2CLKSOURCE_HSI) && (HAL_IS_BIT_SET(RCC->CR, RCC_CR_HSIRDY)))
 935              		.loc 1 1172 7 is_stmt 1 view .LVU304
 936              		.loc 1 1172 10 is_stmt 0 view .LVU305
 937 003e 10F02000 		ands	r0, r0, #32
ARM GAS  /var/folders/8c/gyvcglfx7f97kbqb2h83mm_r0000gn/T//cczE2vDZ.s 			page 50


 938              	.LVL36:
 939              		.loc 1 1172 10 view .LVU306
 940 0042 76D1     		bne	.L147
 941              	.L240:
1173:Drivers/STM32F3xx_HAL_Driver/Src/stm32f3xx_hal_rcc_ex.c ****       {
1174:Drivers/STM32F3xx_HAL_Driver/Src/stm32f3xx_hal_rcc_ex.c ****         frequency = HSI_VALUE;
1175:Drivers/STM32F3xx_HAL_Driver/Src/stm32f3xx_hal_rcc_ex.c ****       }
1176:Drivers/STM32F3xx_HAL_Driver/Src/stm32f3xx_hal_rcc_ex.c ****       /* Check if I2C2 clock selection is SYSCLK */
1177:Drivers/STM32F3xx_HAL_Driver/Src/stm32f3xx_hal_rcc_ex.c ****       else if (srcclk == RCC_I2C2CLKSOURCE_SYSCLK)
1178:Drivers/STM32F3xx_HAL_Driver/Src/stm32f3xx_hal_rcc_ex.c ****       {
1179:Drivers/STM32F3xx_HAL_Driver/Src/stm32f3xx_hal_rcc_ex.c ****         frequency = HAL_RCC_GetSysClockFreq();
1180:Drivers/STM32F3xx_HAL_Driver/Src/stm32f3xx_hal_rcc_ex.c ****       }
1181:Drivers/STM32F3xx_HAL_Driver/Src/stm32f3xx_hal_rcc_ex.c ****       break;
1182:Drivers/STM32F3xx_HAL_Driver/Src/stm32f3xx_hal_rcc_ex.c ****     }
1183:Drivers/STM32F3xx_HAL_Driver/Src/stm32f3xx_hal_rcc_ex.c **** #endif /* RCC_CFGR3_I2C2SW */
1184:Drivers/STM32F3xx_HAL_Driver/Src/stm32f3xx_hal_rcc_ex.c **** #if defined(RCC_CFGR3_I2C3SW)
1185:Drivers/STM32F3xx_HAL_Driver/Src/stm32f3xx_hal_rcc_ex.c ****   case RCC_PERIPHCLK_I2C3:
1186:Drivers/STM32F3xx_HAL_Driver/Src/stm32f3xx_hal_rcc_ex.c ****     {
1187:Drivers/STM32F3xx_HAL_Driver/Src/stm32f3xx_hal_rcc_ex.c ****       /* Get the current I2C3 source */
1188:Drivers/STM32F3xx_HAL_Driver/Src/stm32f3xx_hal_rcc_ex.c ****       srcclk = __HAL_RCC_GET_I2C3_SOURCE();
1189:Drivers/STM32F3xx_HAL_Driver/Src/stm32f3xx_hal_rcc_ex.c **** 
1190:Drivers/STM32F3xx_HAL_Driver/Src/stm32f3xx_hal_rcc_ex.c ****       /* Check if HSI is ready and if I2C3 clock selection is HSI */
1191:Drivers/STM32F3xx_HAL_Driver/Src/stm32f3xx_hal_rcc_ex.c ****       if ((srcclk == RCC_I2C3CLKSOURCE_HSI) && (HAL_IS_BIT_SET(RCC->CR, RCC_CR_HSIRDY)))
 942              		.loc 1 1191 49 discriminator 1 view .LVU307
 943 0044 1A68     		ldr	r2, [r3]
1018:Drivers/STM32F3xx_HAL_Driver/Src/stm32f3xx_hal_rcc_ex.c ****       }
 944              		.loc 1 1018 19 discriminator 1 view .LVU308
 945 0046 9E4B     		ldr	r3, .L262+8
 946 0048 12F0020F 		tst	r2, #2
 947 004c 18BF     		it	ne
 948 004e 1846     		movne	r0, r3
 949              	.LVL37:
1018:Drivers/STM32F3xx_HAL_Driver/Src/stm32f3xx_hal_rcc_ex.c ****       }
 950              		.loc 1 1018 19 discriminator 1 view .LVU309
 951 0050 5CE0     		b	.L110
 952              	.LVL38:
 953              	.L112:
 974:Drivers/STM32F3xx_HAL_Driver/Src/stm32f3xx_hal_rcc_ex.c ****   {
 954              		.loc 1 974 3 view .LVU310
 955 0052 B4F5801F 		cmp	r4, #1048576
 956 0056 00F0AC80 		beq	.L127
 957 005a 5AD9     		bls	.L256
 958 005c B4F5000F 		cmp	r4, #8388608
 959 0060 00F06181 		beq	.L134
 960 0064 1DD8     		bhi	.L135
 961 0066 B4F5001F 		cmp	r4, #2097152
 962 006a 00F04481 		beq	.L136
 963 006e B4F5800F 		cmp	r4, #4194304
 964 0072 4AD1     		bne	.L183
1192:Drivers/STM32F3xx_HAL_Driver/Src/stm32f3xx_hal_rcc_ex.c ****       {
1193:Drivers/STM32F3xx_HAL_Driver/Src/stm32f3xx_hal_rcc_ex.c ****         frequency = HSI_VALUE;
1194:Drivers/STM32F3xx_HAL_Driver/Src/stm32f3xx_hal_rcc_ex.c ****       }
1195:Drivers/STM32F3xx_HAL_Driver/Src/stm32f3xx_hal_rcc_ex.c ****       /* Check if I2C3 clock selection is SYSCLK */
1196:Drivers/STM32F3xx_HAL_Driver/Src/stm32f3xx_hal_rcc_ex.c ****       else if (srcclk == RCC_I2C3CLKSOURCE_SYSCLK)
1197:Drivers/STM32F3xx_HAL_Driver/Src/stm32f3xx_hal_rcc_ex.c ****       {
1198:Drivers/STM32F3xx_HAL_Driver/Src/stm32f3xx_hal_rcc_ex.c ****         frequency = HAL_RCC_GetSysClockFreq();
1199:Drivers/STM32F3xx_HAL_Driver/Src/stm32f3xx_hal_rcc_ex.c ****       }
ARM GAS  /var/folders/8c/gyvcglfx7f97kbqb2h83mm_r0000gn/T//cczE2vDZ.s 			page 51


1200:Drivers/STM32F3xx_HAL_Driver/Src/stm32f3xx_hal_rcc_ex.c ****       break;
1201:Drivers/STM32F3xx_HAL_Driver/Src/stm32f3xx_hal_rcc_ex.c ****     }
1202:Drivers/STM32F3xx_HAL_Driver/Src/stm32f3xx_hal_rcc_ex.c **** #endif /* RCC_CFGR3_I2C3SW */
1203:Drivers/STM32F3xx_HAL_Driver/Src/stm32f3xx_hal_rcc_ex.c **** #if defined(RCC_CFGR_I2SSRC)
1204:Drivers/STM32F3xx_HAL_Driver/Src/stm32f3xx_hal_rcc_ex.c ****   case RCC_PERIPHCLK_I2S:
1205:Drivers/STM32F3xx_HAL_Driver/Src/stm32f3xx_hal_rcc_ex.c ****     {
1206:Drivers/STM32F3xx_HAL_Driver/Src/stm32f3xx_hal_rcc_ex.c ****       /* Get the current I2S source */
1207:Drivers/STM32F3xx_HAL_Driver/Src/stm32f3xx_hal_rcc_ex.c ****       srcclk = __HAL_RCC_GET_I2S_SOURCE();
1208:Drivers/STM32F3xx_HAL_Driver/Src/stm32f3xx_hal_rcc_ex.c **** 
1209:Drivers/STM32F3xx_HAL_Driver/Src/stm32f3xx_hal_rcc_ex.c ****       /* Check if I2S clock selection is External clock mapped on the I2S_CKIN pin */
1210:Drivers/STM32F3xx_HAL_Driver/Src/stm32f3xx_hal_rcc_ex.c ****       if (srcclk == RCC_I2SCLKSOURCE_EXT)
1211:Drivers/STM32F3xx_HAL_Driver/Src/stm32f3xx_hal_rcc_ex.c ****       {
1212:Drivers/STM32F3xx_HAL_Driver/Src/stm32f3xx_hal_rcc_ex.c ****         /* External clock used. Frequency cannot be returned.*/
1213:Drivers/STM32F3xx_HAL_Driver/Src/stm32f3xx_hal_rcc_ex.c ****         frequency = 0xDEADDEADU;
1214:Drivers/STM32F3xx_HAL_Driver/Src/stm32f3xx_hal_rcc_ex.c ****       }
1215:Drivers/STM32F3xx_HAL_Driver/Src/stm32f3xx_hal_rcc_ex.c ****       /* Check if I2S clock selection is SYSCLK */
1216:Drivers/STM32F3xx_HAL_Driver/Src/stm32f3xx_hal_rcc_ex.c ****       else if (srcclk == RCC_I2SCLKSOURCE_SYSCLK)
1217:Drivers/STM32F3xx_HAL_Driver/Src/stm32f3xx_hal_rcc_ex.c ****       {
1218:Drivers/STM32F3xx_HAL_Driver/Src/stm32f3xx_hal_rcc_ex.c ****         frequency = HAL_RCC_GetSysClockFreq();
1219:Drivers/STM32F3xx_HAL_Driver/Src/stm32f3xx_hal_rcc_ex.c ****       }
1220:Drivers/STM32F3xx_HAL_Driver/Src/stm32f3xx_hal_rcc_ex.c ****       break;
1221:Drivers/STM32F3xx_HAL_Driver/Src/stm32f3xx_hal_rcc_ex.c ****     }
1222:Drivers/STM32F3xx_HAL_Driver/Src/stm32f3xx_hal_rcc_ex.c **** #endif /* RCC_CFGR_I2SSRC */
1223:Drivers/STM32F3xx_HAL_Driver/Src/stm32f3xx_hal_rcc_ex.c **** #if defined(RCC_CFGR_USBPRE)
1224:Drivers/STM32F3xx_HAL_Driver/Src/stm32f3xx_hal_rcc_ex.c ****   case RCC_PERIPHCLK_USB:
1225:Drivers/STM32F3xx_HAL_Driver/Src/stm32f3xx_hal_rcc_ex.c ****     {
1226:Drivers/STM32F3xx_HAL_Driver/Src/stm32f3xx_hal_rcc_ex.c ****       /* Check if PLL is ready */
1227:Drivers/STM32F3xx_HAL_Driver/Src/stm32f3xx_hal_rcc_ex.c ****       if (HAL_IS_BIT_SET(RCC->CR, RCC_CR_PLLRDY))
1228:Drivers/STM32F3xx_HAL_Driver/Src/stm32f3xx_hal_rcc_ex.c ****       {
1229:Drivers/STM32F3xx_HAL_Driver/Src/stm32f3xx_hal_rcc_ex.c ****         /* Get the current USB source */
1230:Drivers/STM32F3xx_HAL_Driver/Src/stm32f3xx_hal_rcc_ex.c ****         srcclk = __HAL_RCC_GET_USB_SOURCE();
1231:Drivers/STM32F3xx_HAL_Driver/Src/stm32f3xx_hal_rcc_ex.c **** 
1232:Drivers/STM32F3xx_HAL_Driver/Src/stm32f3xx_hal_rcc_ex.c ****         /* Check if USB clock selection is not divided */
1233:Drivers/STM32F3xx_HAL_Driver/Src/stm32f3xx_hal_rcc_ex.c ****         if (srcclk == RCC_USBCLKSOURCE_PLL)
1234:Drivers/STM32F3xx_HAL_Driver/Src/stm32f3xx_hal_rcc_ex.c ****         {
1235:Drivers/STM32F3xx_HAL_Driver/Src/stm32f3xx_hal_rcc_ex.c ****           frequency = RCC_GetPLLCLKFreq();
1236:Drivers/STM32F3xx_HAL_Driver/Src/stm32f3xx_hal_rcc_ex.c ****         }
1237:Drivers/STM32F3xx_HAL_Driver/Src/stm32f3xx_hal_rcc_ex.c ****         /* Check if USB clock selection is divided by 1.5 */
1238:Drivers/STM32F3xx_HAL_Driver/Src/stm32f3xx_hal_rcc_ex.c ****         else /* RCC_USBCLKSOURCE_PLL_DIV1_5 */
1239:Drivers/STM32F3xx_HAL_Driver/Src/stm32f3xx_hal_rcc_ex.c ****         {
1240:Drivers/STM32F3xx_HAL_Driver/Src/stm32f3xx_hal_rcc_ex.c ****           frequency = (RCC_GetPLLCLKFreq() * 3U) / 2U;
1241:Drivers/STM32F3xx_HAL_Driver/Src/stm32f3xx_hal_rcc_ex.c ****         }
1242:Drivers/STM32F3xx_HAL_Driver/Src/stm32f3xx_hal_rcc_ex.c ****       }
1243:Drivers/STM32F3xx_HAL_Driver/Src/stm32f3xx_hal_rcc_ex.c ****       break;
1244:Drivers/STM32F3xx_HAL_Driver/Src/stm32f3xx_hal_rcc_ex.c ****     }
1245:Drivers/STM32F3xx_HAL_Driver/Src/stm32f3xx_hal_rcc_ex.c **** #endif /* RCC_CFGR_USBPRE */
1246:Drivers/STM32F3xx_HAL_Driver/Src/stm32f3xx_hal_rcc_ex.c **** #if defined(RCC_CFGR2_ADC1PRES) || defined(RCC_CFGR_ADCPRE)
1247:Drivers/STM32F3xx_HAL_Driver/Src/stm32f3xx_hal_rcc_ex.c ****   case RCC_PERIPHCLK_ADC1:
1248:Drivers/STM32F3xx_HAL_Driver/Src/stm32f3xx_hal_rcc_ex.c ****     {
1249:Drivers/STM32F3xx_HAL_Driver/Src/stm32f3xx_hal_rcc_ex.c ****       /* Get the current ADC1 source */
1250:Drivers/STM32F3xx_HAL_Driver/Src/stm32f3xx_hal_rcc_ex.c ****       srcclk = __HAL_RCC_GET_ADC1_SOURCE();
1251:Drivers/STM32F3xx_HAL_Driver/Src/stm32f3xx_hal_rcc_ex.c **** #if defined(RCC_CFGR2_ADC1PRES)
1252:Drivers/STM32F3xx_HAL_Driver/Src/stm32f3xx_hal_rcc_ex.c ****       /* Check if ADC1 clock selection is AHB */
1253:Drivers/STM32F3xx_HAL_Driver/Src/stm32f3xx_hal_rcc_ex.c ****       if (srcclk == RCC_ADC1PLLCLK_OFF)
1254:Drivers/STM32F3xx_HAL_Driver/Src/stm32f3xx_hal_rcc_ex.c ****       {
1255:Drivers/STM32F3xx_HAL_Driver/Src/stm32f3xx_hal_rcc_ex.c ****           frequency = SystemCoreClock;
1256:Drivers/STM32F3xx_HAL_Driver/Src/stm32f3xx_hal_rcc_ex.c ****       }
ARM GAS  /var/folders/8c/gyvcglfx7f97kbqb2h83mm_r0000gn/T//cczE2vDZ.s 			page 52


1257:Drivers/STM32F3xx_HAL_Driver/Src/stm32f3xx_hal_rcc_ex.c ****       /* PLL clock has been selected */
1258:Drivers/STM32F3xx_HAL_Driver/Src/stm32f3xx_hal_rcc_ex.c ****       else
1259:Drivers/STM32F3xx_HAL_Driver/Src/stm32f3xx_hal_rcc_ex.c ****       {
1260:Drivers/STM32F3xx_HAL_Driver/Src/stm32f3xx_hal_rcc_ex.c ****         /* Check if PLL is ready */
1261:Drivers/STM32F3xx_HAL_Driver/Src/stm32f3xx_hal_rcc_ex.c ****         if (HAL_IS_BIT_SET(RCC->CR, RCC_CR_PLLRDY))
1262:Drivers/STM32F3xx_HAL_Driver/Src/stm32f3xx_hal_rcc_ex.c ****         {
1263:Drivers/STM32F3xx_HAL_Driver/Src/stm32f3xx_hal_rcc_ex.c ****           /* Frequency is the PLL frequency divided by ADC prescaler (1U/2U/4U/6U/8U/10U/12U/16U/32
1264:Drivers/STM32F3xx_HAL_Driver/Src/stm32f3xx_hal_rcc_ex.c ****           frequency = RCC_GetPLLCLKFreq() / adc_pll_prediv_table[(srcclk >> POSITION_VAL(RCC_CFGR2_
1265:Drivers/STM32F3xx_HAL_Driver/Src/stm32f3xx_hal_rcc_ex.c ****         }
1266:Drivers/STM32F3xx_HAL_Driver/Src/stm32f3xx_hal_rcc_ex.c ****       }
1267:Drivers/STM32F3xx_HAL_Driver/Src/stm32f3xx_hal_rcc_ex.c **** #else /* RCC_CFGR_ADCPRE */
1268:Drivers/STM32F3xx_HAL_Driver/Src/stm32f3xx_hal_rcc_ex.c ****       /* ADC1 is set to PLCK2 frequency divided by 2U/4U/6U/8U */
1269:Drivers/STM32F3xx_HAL_Driver/Src/stm32f3xx_hal_rcc_ex.c ****       frequency = HAL_RCC_GetPCLK2Freq() / (((srcclk  >> POSITION_VAL(RCC_CFGR_ADCPRE)) + 1U) * 2U)
1270:Drivers/STM32F3xx_HAL_Driver/Src/stm32f3xx_hal_rcc_ex.c **** #endif /* RCC_CFGR2_ADC1PRES */
1271:Drivers/STM32F3xx_HAL_Driver/Src/stm32f3xx_hal_rcc_ex.c ****       break;
1272:Drivers/STM32F3xx_HAL_Driver/Src/stm32f3xx_hal_rcc_ex.c ****     }
1273:Drivers/STM32F3xx_HAL_Driver/Src/stm32f3xx_hal_rcc_ex.c **** #endif /* RCC_CFGR2_ADC1PRES || RCC_CFGR_ADCPRE */
1274:Drivers/STM32F3xx_HAL_Driver/Src/stm32f3xx_hal_rcc_ex.c **** #if defined(RCC_CFGR2_ADCPRE12)
1275:Drivers/STM32F3xx_HAL_Driver/Src/stm32f3xx_hal_rcc_ex.c ****   case RCC_PERIPHCLK_ADC12:
1276:Drivers/STM32F3xx_HAL_Driver/Src/stm32f3xx_hal_rcc_ex.c ****     {
1277:Drivers/STM32F3xx_HAL_Driver/Src/stm32f3xx_hal_rcc_ex.c ****       /* Get the current ADC12 source */
1278:Drivers/STM32F3xx_HAL_Driver/Src/stm32f3xx_hal_rcc_ex.c ****       srcclk = __HAL_RCC_GET_ADC12_SOURCE();
1279:Drivers/STM32F3xx_HAL_Driver/Src/stm32f3xx_hal_rcc_ex.c ****       /* Check if ADC12 clock selection is AHB */
1280:Drivers/STM32F3xx_HAL_Driver/Src/stm32f3xx_hal_rcc_ex.c ****       if (srcclk == RCC_ADC12PLLCLK_OFF)
1281:Drivers/STM32F3xx_HAL_Driver/Src/stm32f3xx_hal_rcc_ex.c ****       {
1282:Drivers/STM32F3xx_HAL_Driver/Src/stm32f3xx_hal_rcc_ex.c ****           frequency = SystemCoreClock;
1283:Drivers/STM32F3xx_HAL_Driver/Src/stm32f3xx_hal_rcc_ex.c ****       }
1284:Drivers/STM32F3xx_HAL_Driver/Src/stm32f3xx_hal_rcc_ex.c ****       /* PLL clock has been selected */
1285:Drivers/STM32F3xx_HAL_Driver/Src/stm32f3xx_hal_rcc_ex.c ****       else
1286:Drivers/STM32F3xx_HAL_Driver/Src/stm32f3xx_hal_rcc_ex.c ****       {
1287:Drivers/STM32F3xx_HAL_Driver/Src/stm32f3xx_hal_rcc_ex.c ****         /* Check if PLL is ready */
1288:Drivers/STM32F3xx_HAL_Driver/Src/stm32f3xx_hal_rcc_ex.c ****         if (HAL_IS_BIT_SET(RCC->CR, RCC_CR_PLLRDY))
1289:Drivers/STM32F3xx_HAL_Driver/Src/stm32f3xx_hal_rcc_ex.c ****         {
1290:Drivers/STM32F3xx_HAL_Driver/Src/stm32f3xx_hal_rcc_ex.c ****           /* Frequency is the PLL frequency divided by ADC prescaler (1U/2U/4U/6/8U/10U/12U/16U/32U
1291:Drivers/STM32F3xx_HAL_Driver/Src/stm32f3xx_hal_rcc_ex.c ****           frequency = RCC_GetPLLCLKFreq() / adc_pll_prediv_table[(srcclk >> POSITION_VAL(RCC_CFGR2_
1292:Drivers/STM32F3xx_HAL_Driver/Src/stm32f3xx_hal_rcc_ex.c ****         }
1293:Drivers/STM32F3xx_HAL_Driver/Src/stm32f3xx_hal_rcc_ex.c ****       }
1294:Drivers/STM32F3xx_HAL_Driver/Src/stm32f3xx_hal_rcc_ex.c ****       break;
1295:Drivers/STM32F3xx_HAL_Driver/Src/stm32f3xx_hal_rcc_ex.c ****     }
1296:Drivers/STM32F3xx_HAL_Driver/Src/stm32f3xx_hal_rcc_ex.c **** #endif /* RCC_CFGR2_ADCPRE12 */
1297:Drivers/STM32F3xx_HAL_Driver/Src/stm32f3xx_hal_rcc_ex.c **** #if defined(RCC_CFGR2_ADCPRE34)
1298:Drivers/STM32F3xx_HAL_Driver/Src/stm32f3xx_hal_rcc_ex.c ****   case RCC_PERIPHCLK_ADC34:
1299:Drivers/STM32F3xx_HAL_Driver/Src/stm32f3xx_hal_rcc_ex.c ****     {
1300:Drivers/STM32F3xx_HAL_Driver/Src/stm32f3xx_hal_rcc_ex.c ****       /* Get the current ADC34 source */
1301:Drivers/STM32F3xx_HAL_Driver/Src/stm32f3xx_hal_rcc_ex.c ****       srcclk = __HAL_RCC_GET_ADC34_SOURCE();
1302:Drivers/STM32F3xx_HAL_Driver/Src/stm32f3xx_hal_rcc_ex.c ****       /* Check if ADC34 clock selection is AHB */
1303:Drivers/STM32F3xx_HAL_Driver/Src/stm32f3xx_hal_rcc_ex.c ****       if (srcclk == RCC_ADC34PLLCLK_OFF)
1304:Drivers/STM32F3xx_HAL_Driver/Src/stm32f3xx_hal_rcc_ex.c ****       {
1305:Drivers/STM32F3xx_HAL_Driver/Src/stm32f3xx_hal_rcc_ex.c ****           frequency = SystemCoreClock;
1306:Drivers/STM32F3xx_HAL_Driver/Src/stm32f3xx_hal_rcc_ex.c ****       }
1307:Drivers/STM32F3xx_HAL_Driver/Src/stm32f3xx_hal_rcc_ex.c ****       /* PLL clock has been selected */
1308:Drivers/STM32F3xx_HAL_Driver/Src/stm32f3xx_hal_rcc_ex.c ****       else
1309:Drivers/STM32F3xx_HAL_Driver/Src/stm32f3xx_hal_rcc_ex.c ****       {
1310:Drivers/STM32F3xx_HAL_Driver/Src/stm32f3xx_hal_rcc_ex.c ****         /* Check if PLL is ready */
1311:Drivers/STM32F3xx_HAL_Driver/Src/stm32f3xx_hal_rcc_ex.c ****         if (HAL_IS_BIT_SET(RCC->CR, RCC_CR_PLLRDY))
1312:Drivers/STM32F3xx_HAL_Driver/Src/stm32f3xx_hal_rcc_ex.c ****         {
1313:Drivers/STM32F3xx_HAL_Driver/Src/stm32f3xx_hal_rcc_ex.c ****           /* Frequency is the PLL frequency divided by ADC prescaler (1U/2U/4U/6U/8U/10U/12U/16U/32
ARM GAS  /var/folders/8c/gyvcglfx7f97kbqb2h83mm_r0000gn/T//cczE2vDZ.s 			page 53


1314:Drivers/STM32F3xx_HAL_Driver/Src/stm32f3xx_hal_rcc_ex.c ****           frequency = RCC_GetPLLCLKFreq() / adc_pll_prediv_table[(srcclk >> POSITION_VAL(RCC_CFGR2_
1315:Drivers/STM32F3xx_HAL_Driver/Src/stm32f3xx_hal_rcc_ex.c ****         }
1316:Drivers/STM32F3xx_HAL_Driver/Src/stm32f3xx_hal_rcc_ex.c ****       }
1317:Drivers/STM32F3xx_HAL_Driver/Src/stm32f3xx_hal_rcc_ex.c ****       break;
1318:Drivers/STM32F3xx_HAL_Driver/Src/stm32f3xx_hal_rcc_ex.c ****     }
1319:Drivers/STM32F3xx_HAL_Driver/Src/stm32f3xx_hal_rcc_ex.c **** #endif /* RCC_CFGR2_ADCPRE34 */
1320:Drivers/STM32F3xx_HAL_Driver/Src/stm32f3xx_hal_rcc_ex.c **** #if defined(RCC_CFGR3_TIM1SW)
1321:Drivers/STM32F3xx_HAL_Driver/Src/stm32f3xx_hal_rcc_ex.c ****   case RCC_PERIPHCLK_TIM1:
1322:Drivers/STM32F3xx_HAL_Driver/Src/stm32f3xx_hal_rcc_ex.c ****     {
1323:Drivers/STM32F3xx_HAL_Driver/Src/stm32f3xx_hal_rcc_ex.c ****       /* Get the current TIM1 source */
1324:Drivers/STM32F3xx_HAL_Driver/Src/stm32f3xx_hal_rcc_ex.c ****       srcclk = __HAL_RCC_GET_TIM1_SOURCE();
1325:Drivers/STM32F3xx_HAL_Driver/Src/stm32f3xx_hal_rcc_ex.c **** 
1326:Drivers/STM32F3xx_HAL_Driver/Src/stm32f3xx_hal_rcc_ex.c ****       /* Check if PLL is ready and if TIM1 clock selection is PLL */
1327:Drivers/STM32F3xx_HAL_Driver/Src/stm32f3xx_hal_rcc_ex.c ****       if ((srcclk == RCC_TIM1CLK_PLLCLK) && (HAL_IS_BIT_SET(RCC->CR, RCC_CR_PLLRDY)))
1328:Drivers/STM32F3xx_HAL_Driver/Src/stm32f3xx_hal_rcc_ex.c ****       {
1329:Drivers/STM32F3xx_HAL_Driver/Src/stm32f3xx_hal_rcc_ex.c ****         frequency = RCC_GetPLLCLKFreq();
1330:Drivers/STM32F3xx_HAL_Driver/Src/stm32f3xx_hal_rcc_ex.c ****       }
1331:Drivers/STM32F3xx_HAL_Driver/Src/stm32f3xx_hal_rcc_ex.c ****       /* Check if TIM1 clock selection is SYSCLK */
1332:Drivers/STM32F3xx_HAL_Driver/Src/stm32f3xx_hal_rcc_ex.c ****       else if (srcclk == RCC_TIM1CLK_HCLK)
1333:Drivers/STM32F3xx_HAL_Driver/Src/stm32f3xx_hal_rcc_ex.c ****       {
1334:Drivers/STM32F3xx_HAL_Driver/Src/stm32f3xx_hal_rcc_ex.c ****         frequency = SystemCoreClock;
1335:Drivers/STM32F3xx_HAL_Driver/Src/stm32f3xx_hal_rcc_ex.c ****       }
1336:Drivers/STM32F3xx_HAL_Driver/Src/stm32f3xx_hal_rcc_ex.c ****       break;
1337:Drivers/STM32F3xx_HAL_Driver/Src/stm32f3xx_hal_rcc_ex.c ****     }
1338:Drivers/STM32F3xx_HAL_Driver/Src/stm32f3xx_hal_rcc_ex.c **** #endif /* RCC_CFGR3_TIM1SW */
1339:Drivers/STM32F3xx_HAL_Driver/Src/stm32f3xx_hal_rcc_ex.c **** #if defined(RCC_CFGR3_TIM2SW)
1340:Drivers/STM32F3xx_HAL_Driver/Src/stm32f3xx_hal_rcc_ex.c ****   case RCC_PERIPHCLK_TIM2:
1341:Drivers/STM32F3xx_HAL_Driver/Src/stm32f3xx_hal_rcc_ex.c ****     {
1342:Drivers/STM32F3xx_HAL_Driver/Src/stm32f3xx_hal_rcc_ex.c ****       /* Get the current TIM2 source */
1343:Drivers/STM32F3xx_HAL_Driver/Src/stm32f3xx_hal_rcc_ex.c ****       srcclk = __HAL_RCC_GET_TIM2_SOURCE();
1344:Drivers/STM32F3xx_HAL_Driver/Src/stm32f3xx_hal_rcc_ex.c **** 
1345:Drivers/STM32F3xx_HAL_Driver/Src/stm32f3xx_hal_rcc_ex.c ****       /* Check if PLL is ready and if TIM2 clock selection is PLL */
1346:Drivers/STM32F3xx_HAL_Driver/Src/stm32f3xx_hal_rcc_ex.c ****       if ((srcclk == RCC_TIM2CLK_PLLCLK) && (HAL_IS_BIT_SET(RCC->CR, RCC_CR_PLLRDY)))
1347:Drivers/STM32F3xx_HAL_Driver/Src/stm32f3xx_hal_rcc_ex.c ****       {
1348:Drivers/STM32F3xx_HAL_Driver/Src/stm32f3xx_hal_rcc_ex.c ****         frequency = RCC_GetPLLCLKFreq();
1349:Drivers/STM32F3xx_HAL_Driver/Src/stm32f3xx_hal_rcc_ex.c ****       }
1350:Drivers/STM32F3xx_HAL_Driver/Src/stm32f3xx_hal_rcc_ex.c ****       /* Check if TIM2 clock selection is SYSCLK */
1351:Drivers/STM32F3xx_HAL_Driver/Src/stm32f3xx_hal_rcc_ex.c ****       else if (srcclk == RCC_TIM2CLK_HCLK)
1352:Drivers/STM32F3xx_HAL_Driver/Src/stm32f3xx_hal_rcc_ex.c ****       {
1353:Drivers/STM32F3xx_HAL_Driver/Src/stm32f3xx_hal_rcc_ex.c ****         frequency = SystemCoreClock;
1354:Drivers/STM32F3xx_HAL_Driver/Src/stm32f3xx_hal_rcc_ex.c ****       }
1355:Drivers/STM32F3xx_HAL_Driver/Src/stm32f3xx_hal_rcc_ex.c ****       break;
1356:Drivers/STM32F3xx_HAL_Driver/Src/stm32f3xx_hal_rcc_ex.c ****     }
1357:Drivers/STM32F3xx_HAL_Driver/Src/stm32f3xx_hal_rcc_ex.c **** #endif /* RCC_CFGR3_TIM2SW */
1358:Drivers/STM32F3xx_HAL_Driver/Src/stm32f3xx_hal_rcc_ex.c **** #if defined(RCC_CFGR3_TIM8SW)
1359:Drivers/STM32F3xx_HAL_Driver/Src/stm32f3xx_hal_rcc_ex.c ****   case RCC_PERIPHCLK_TIM8:
1360:Drivers/STM32F3xx_HAL_Driver/Src/stm32f3xx_hal_rcc_ex.c ****     {
1361:Drivers/STM32F3xx_HAL_Driver/Src/stm32f3xx_hal_rcc_ex.c ****       /* Get the current TIM8 source */
1362:Drivers/STM32F3xx_HAL_Driver/Src/stm32f3xx_hal_rcc_ex.c ****       srcclk = __HAL_RCC_GET_TIM8_SOURCE();
1363:Drivers/STM32F3xx_HAL_Driver/Src/stm32f3xx_hal_rcc_ex.c **** 
1364:Drivers/STM32F3xx_HAL_Driver/Src/stm32f3xx_hal_rcc_ex.c ****       /* Check if PLL is ready and if TIM8 clock selection is PLL */
1365:Drivers/STM32F3xx_HAL_Driver/Src/stm32f3xx_hal_rcc_ex.c ****       if ((srcclk == RCC_TIM8CLK_PLLCLK) && (HAL_IS_BIT_SET(RCC->CR, RCC_CR_PLLRDY)))
1366:Drivers/STM32F3xx_HAL_Driver/Src/stm32f3xx_hal_rcc_ex.c ****       {
1367:Drivers/STM32F3xx_HAL_Driver/Src/stm32f3xx_hal_rcc_ex.c ****         frequency = RCC_GetPLLCLKFreq();
1368:Drivers/STM32F3xx_HAL_Driver/Src/stm32f3xx_hal_rcc_ex.c ****       }
1369:Drivers/STM32F3xx_HAL_Driver/Src/stm32f3xx_hal_rcc_ex.c ****       /* Check if TIM8 clock selection is SYSCLK */
1370:Drivers/STM32F3xx_HAL_Driver/Src/stm32f3xx_hal_rcc_ex.c ****       else if (srcclk == RCC_TIM8CLK_HCLK)
ARM GAS  /var/folders/8c/gyvcglfx7f97kbqb2h83mm_r0000gn/T//cczE2vDZ.s 			page 54


1371:Drivers/STM32F3xx_HAL_Driver/Src/stm32f3xx_hal_rcc_ex.c ****       {
1372:Drivers/STM32F3xx_HAL_Driver/Src/stm32f3xx_hal_rcc_ex.c ****         frequency = SystemCoreClock;
1373:Drivers/STM32F3xx_HAL_Driver/Src/stm32f3xx_hal_rcc_ex.c ****       }
1374:Drivers/STM32F3xx_HAL_Driver/Src/stm32f3xx_hal_rcc_ex.c ****       break;
1375:Drivers/STM32F3xx_HAL_Driver/Src/stm32f3xx_hal_rcc_ex.c ****     }
1376:Drivers/STM32F3xx_HAL_Driver/Src/stm32f3xx_hal_rcc_ex.c **** #endif /* RCC_CFGR3_TIM8SW */
1377:Drivers/STM32F3xx_HAL_Driver/Src/stm32f3xx_hal_rcc_ex.c **** #if defined(RCC_CFGR3_TIM15SW)
1378:Drivers/STM32F3xx_HAL_Driver/Src/stm32f3xx_hal_rcc_ex.c ****   case RCC_PERIPHCLK_TIM15:
1379:Drivers/STM32F3xx_HAL_Driver/Src/stm32f3xx_hal_rcc_ex.c ****     {
1380:Drivers/STM32F3xx_HAL_Driver/Src/stm32f3xx_hal_rcc_ex.c ****       /* Get the current TIM15 source */
1381:Drivers/STM32F3xx_HAL_Driver/Src/stm32f3xx_hal_rcc_ex.c ****       srcclk = __HAL_RCC_GET_TIM15_SOURCE();
 965              		.loc 1 1381 7 is_stmt 1 view .LVU311
 966              		.loc 1 1381 16 is_stmt 0 view .LVU312
 967 0074 914B     		ldr	r3, .L262+4
 968 0076 1A6B     		ldr	r2, [r3, #48]
 969              	.LVL39:
1382:Drivers/STM32F3xx_HAL_Driver/Src/stm32f3xx_hal_rcc_ex.c **** 
1383:Drivers/STM32F3xx_HAL_Driver/Src/stm32f3xx_hal_rcc_ex.c ****       /* Check if PLL is ready and if TIM15 clock selection is PLL */
1384:Drivers/STM32F3xx_HAL_Driver/Src/stm32f3xx_hal_rcc_ex.c ****       if ((srcclk == RCC_TIM15CLK_PLLCLK) && (HAL_IS_BIT_SET(RCC->CR, RCC_CR_PLLRDY)))
 970              		.loc 1 1384 7 is_stmt 1 view .LVU313
 971              		.loc 1 1384 10 is_stmt 0 view .LVU314
 972 0078 5605     		lsls	r6, r2, #21
 973 007a 1CD5     		bpl	.L154
 974              	.LVL40:
 975              	.L248:
1385:Drivers/STM32F3xx_HAL_Driver/Src/stm32f3xx_hal_rcc_ex.c ****       {
1386:Drivers/STM32F3xx_HAL_Driver/Src/stm32f3xx_hal_rcc_ex.c ****         frequency = RCC_GetPLLCLKFreq();
1387:Drivers/STM32F3xx_HAL_Driver/Src/stm32f3xx_hal_rcc_ex.c ****       }
1388:Drivers/STM32F3xx_HAL_Driver/Src/stm32f3xx_hal_rcc_ex.c ****       /* Check if TIM15 clock selection is SYSCLK */
1389:Drivers/STM32F3xx_HAL_Driver/Src/stm32f3xx_hal_rcc_ex.c ****       else if (srcclk == RCC_TIM15CLK_HCLK)
1390:Drivers/STM32F3xx_HAL_Driver/Src/stm32f3xx_hal_rcc_ex.c ****       {
1391:Drivers/STM32F3xx_HAL_Driver/Src/stm32f3xx_hal_rcc_ex.c ****         frequency = SystemCoreClock;
1392:Drivers/STM32F3xx_HAL_Driver/Src/stm32f3xx_hal_rcc_ex.c ****       }
1393:Drivers/STM32F3xx_HAL_Driver/Src/stm32f3xx_hal_rcc_ex.c ****       break;
1394:Drivers/STM32F3xx_HAL_Driver/Src/stm32f3xx_hal_rcc_ex.c ****     }
1395:Drivers/STM32F3xx_HAL_Driver/Src/stm32f3xx_hal_rcc_ex.c **** #endif /* RCC_CFGR3_TIM15SW */
1396:Drivers/STM32F3xx_HAL_Driver/Src/stm32f3xx_hal_rcc_ex.c **** #if defined(RCC_CFGR3_TIM16SW)
1397:Drivers/STM32F3xx_HAL_Driver/Src/stm32f3xx_hal_rcc_ex.c ****   case RCC_PERIPHCLK_TIM16:
1398:Drivers/STM32F3xx_HAL_Driver/Src/stm32f3xx_hal_rcc_ex.c ****     {
1399:Drivers/STM32F3xx_HAL_Driver/Src/stm32f3xx_hal_rcc_ex.c ****       /* Get the current TIM16 source */
1400:Drivers/STM32F3xx_HAL_Driver/Src/stm32f3xx_hal_rcc_ex.c ****       srcclk = __HAL_RCC_GET_TIM16_SOURCE();
1401:Drivers/STM32F3xx_HAL_Driver/Src/stm32f3xx_hal_rcc_ex.c **** 
1402:Drivers/STM32F3xx_HAL_Driver/Src/stm32f3xx_hal_rcc_ex.c ****       /* Check if PLL is ready and if TIM16 clock selection is PLL */
1403:Drivers/STM32F3xx_HAL_Driver/Src/stm32f3xx_hal_rcc_ex.c ****       if ((srcclk == RCC_TIM16CLK_PLLCLK) && (HAL_IS_BIT_SET(RCC->CR, RCC_CR_PLLRDY)))
1404:Drivers/STM32F3xx_HAL_Driver/Src/stm32f3xx_hal_rcc_ex.c ****       {
1405:Drivers/STM32F3xx_HAL_Driver/Src/stm32f3xx_hal_rcc_ex.c ****         frequency = RCC_GetPLLCLKFreq();
1406:Drivers/STM32F3xx_HAL_Driver/Src/stm32f3xx_hal_rcc_ex.c ****       }
1407:Drivers/STM32F3xx_HAL_Driver/Src/stm32f3xx_hal_rcc_ex.c ****       /* Check if TIM16 clock selection is SYSCLK */
1408:Drivers/STM32F3xx_HAL_Driver/Src/stm32f3xx_hal_rcc_ex.c ****       else if (srcclk == RCC_TIM16CLK_HCLK)
1409:Drivers/STM32F3xx_HAL_Driver/Src/stm32f3xx_hal_rcc_ex.c ****       {
1410:Drivers/STM32F3xx_HAL_Driver/Src/stm32f3xx_hal_rcc_ex.c ****         frequency = SystemCoreClock;
1411:Drivers/STM32F3xx_HAL_Driver/Src/stm32f3xx_hal_rcc_ex.c ****       }
1412:Drivers/STM32F3xx_HAL_Driver/Src/stm32f3xx_hal_rcc_ex.c ****       break;
1413:Drivers/STM32F3xx_HAL_Driver/Src/stm32f3xx_hal_rcc_ex.c ****     }
1414:Drivers/STM32F3xx_HAL_Driver/Src/stm32f3xx_hal_rcc_ex.c **** #endif /* RCC_CFGR3_TIM16SW */
1415:Drivers/STM32F3xx_HAL_Driver/Src/stm32f3xx_hal_rcc_ex.c **** #if defined(RCC_CFGR3_TIM17SW)
1416:Drivers/STM32F3xx_HAL_Driver/Src/stm32f3xx_hal_rcc_ex.c ****   case RCC_PERIPHCLK_TIM17:
ARM GAS  /var/folders/8c/gyvcglfx7f97kbqb2h83mm_r0000gn/T//cczE2vDZ.s 			page 55


1417:Drivers/STM32F3xx_HAL_Driver/Src/stm32f3xx_hal_rcc_ex.c ****     {
1418:Drivers/STM32F3xx_HAL_Driver/Src/stm32f3xx_hal_rcc_ex.c ****       /* Get the current TIM17 source */
1419:Drivers/STM32F3xx_HAL_Driver/Src/stm32f3xx_hal_rcc_ex.c ****       srcclk = __HAL_RCC_GET_TIM17_SOURCE();
1420:Drivers/STM32F3xx_HAL_Driver/Src/stm32f3xx_hal_rcc_ex.c **** 
1421:Drivers/STM32F3xx_HAL_Driver/Src/stm32f3xx_hal_rcc_ex.c ****       /* Check if PLL is ready and if TIM17 clock selection is PLL */
1422:Drivers/STM32F3xx_HAL_Driver/Src/stm32f3xx_hal_rcc_ex.c ****       if ((srcclk == RCC_TIM17CLK_PLLCLK) && (HAL_IS_BIT_SET(RCC->CR, RCC_CR_PLLRDY)))
1423:Drivers/STM32F3xx_HAL_Driver/Src/stm32f3xx_hal_rcc_ex.c ****       {
1424:Drivers/STM32F3xx_HAL_Driver/Src/stm32f3xx_hal_rcc_ex.c ****         frequency = RCC_GetPLLCLKFreq();
1425:Drivers/STM32F3xx_HAL_Driver/Src/stm32f3xx_hal_rcc_ex.c ****       }
1426:Drivers/STM32F3xx_HAL_Driver/Src/stm32f3xx_hal_rcc_ex.c ****       /* Check if TIM17 clock selection is SYSCLK */
1427:Drivers/STM32F3xx_HAL_Driver/Src/stm32f3xx_hal_rcc_ex.c ****       else if (srcclk == RCC_TIM17CLK_HCLK)
1428:Drivers/STM32F3xx_HAL_Driver/Src/stm32f3xx_hal_rcc_ex.c ****       {
1429:Drivers/STM32F3xx_HAL_Driver/Src/stm32f3xx_hal_rcc_ex.c ****         frequency = SystemCoreClock;
1430:Drivers/STM32F3xx_HAL_Driver/Src/stm32f3xx_hal_rcc_ex.c ****       }
1431:Drivers/STM32F3xx_HAL_Driver/Src/stm32f3xx_hal_rcc_ex.c ****       break;
1432:Drivers/STM32F3xx_HAL_Driver/Src/stm32f3xx_hal_rcc_ex.c ****     }
1433:Drivers/STM32F3xx_HAL_Driver/Src/stm32f3xx_hal_rcc_ex.c **** #endif /* RCC_CFGR3_TIM17SW */
1434:Drivers/STM32F3xx_HAL_Driver/Src/stm32f3xx_hal_rcc_ex.c **** #if defined(RCC_CFGR3_TIM20SW)
1435:Drivers/STM32F3xx_HAL_Driver/Src/stm32f3xx_hal_rcc_ex.c ****   case RCC_PERIPHCLK_TIM20:
1436:Drivers/STM32F3xx_HAL_Driver/Src/stm32f3xx_hal_rcc_ex.c ****     {
1437:Drivers/STM32F3xx_HAL_Driver/Src/stm32f3xx_hal_rcc_ex.c ****       /* Get the current TIM20 source */
1438:Drivers/STM32F3xx_HAL_Driver/Src/stm32f3xx_hal_rcc_ex.c ****       srcclk = __HAL_RCC_GET_TIM20_SOURCE();
1439:Drivers/STM32F3xx_HAL_Driver/Src/stm32f3xx_hal_rcc_ex.c **** 
1440:Drivers/STM32F3xx_HAL_Driver/Src/stm32f3xx_hal_rcc_ex.c ****       /* Check if PLL is ready and if TIM20 clock selection is PLL */
1441:Drivers/STM32F3xx_HAL_Driver/Src/stm32f3xx_hal_rcc_ex.c ****       if ((srcclk == RCC_TIM20CLK_PLLCLK) && (HAL_IS_BIT_SET(RCC->CR, RCC_CR_PLLRDY)))
 976              		.loc 1 1441 47 discriminator 1 view .LVU315
 977 007c 1B68     		ldr	r3, [r3]
 978              		.loc 1 1441 43 discriminator 1 view .LVU316
 979 007e 9901     		lsls	r1, r3, #6
 980 0080 43D5     		bpl	.L183
1442:Drivers/STM32F3xx_HAL_Driver/Src/stm32f3xx_hal_rcc_ex.c ****       {
1443:Drivers/STM32F3xx_HAL_Driver/Src/stm32f3xx_hal_rcc_ex.c ****         frequency = RCC_GetPLLCLKFreq();
