ARM GAS  /var/folders/md/lgcc8l7571l9vt9sx0g0zflw0000gn/T//ccRuTsuV.s 			page 1


   1              		.cpu cortex-m4
   2              		.eabi_attribute 27, 1
   3              		.eabi_attribute 28, 1
   4              		.eabi_attribute 20, 1
   5              		.eabi_attribute 21, 1
   6              		.eabi_attribute 23, 3
   7              		.eabi_attribute 24, 1
   8              		.eabi_attribute 25, 1
   9              		.eabi_attribute 26, 1
  10              		.eabi_attribute 30, 1
  11              		.eabi_attribute 34, 1
  12              		.eabi_attribute 18, 4
  13              		.file	"stm32f3xx_it.c"
  14              		.text
  15              	.Ltext0:
  16              		.cfi_sections	.debug_frame
  17              		.section	.text.NMI_Handler,"ax",%progbits
  18              		.align	1
  19              		.global	NMI_Handler
  20              		.arch armv7e-m
  21              		.syntax unified
  22              		.thumb
  23              		.thumb_func
  24              		.fpu fpv4-sp-d16
  26              	NMI_Handler:
  27              	.LFB126:
  28              		.file 1 "Src/stm32f3xx_it.c"
   1:Src/stm32f3xx_it.c **** /* USER CODE BEGIN Header */
   2:Src/stm32f3xx_it.c **** /**
   3:Src/stm32f3xx_it.c ****   ******************************************************************************
   4:Src/stm32f3xx_it.c ****   * @file    stm32f3xx_it.c
   5:Src/stm32f3xx_it.c ****   * @brief   Interrupt Service Routines.
   6:Src/stm32f3xx_it.c ****   ******************************************************************************
   7:Src/stm32f3xx_it.c ****   * @attention
   8:Src/stm32f3xx_it.c ****   *
   9:Src/stm32f3xx_it.c ****   * <h2><center>&copy; Copyright (c) 2019 STMicroelectronics.
  10:Src/stm32f3xx_it.c ****   * All rights reserved.</center></h2>
  11:Src/stm32f3xx_it.c ****   *
  12:Src/stm32f3xx_it.c ****   * This software component is licensed by ST under BSD 3-Clause license,
  13:Src/stm32f3xx_it.c ****   * the "License"; You may not use this file except in compliance with the
  14:Src/stm32f3xx_it.c ****   * License. You may obtain a copy of the License at:
  15:Src/stm32f3xx_it.c ****   *                        opensource.org/licenses/BSD-3-Clause
  16:Src/stm32f3xx_it.c ****   *
  17:Src/stm32f3xx_it.c ****   ******************************************************************************
  18:Src/stm32f3xx_it.c ****   */
  19:Src/stm32f3xx_it.c **** /* USER CODE END Header */
  20:Src/stm32f3xx_it.c **** 
  21:Src/stm32f3xx_it.c **** /* Includes ------------------------------------------------------------------*/
  22:Src/stm32f3xx_it.c **** #include "main.h"
  23:Src/stm32f3xx_it.c **** #include "stm32f3xx_it.h"
  24:Src/stm32f3xx_it.c **** /* Private includes ----------------------------------------------------------*/
  25:Src/stm32f3xx_it.c **** /* USER CODE BEGIN Includes */
  26:Src/stm32f3xx_it.c **** /* USER CODE END Includes */
  27:Src/stm32f3xx_it.c **** 
  28:Src/stm32f3xx_it.c **** /* Private typedef -----------------------------------------------------------*/
  29:Src/stm32f3xx_it.c **** /* USER CODE BEGIN TD */
  30:Src/stm32f3xx_it.c **** 
ARM GAS  /var/folders/md/lgcc8l7571l9vt9sx0g0zflw0000gn/T//ccRuTsuV.s 			page 2


  31:Src/stm32f3xx_it.c **** /* USER CODE END TD */
  32:Src/stm32f3xx_it.c **** 
  33:Src/stm32f3xx_it.c **** /* Private define ------------------------------------------------------------*/
  34:Src/stm32f3xx_it.c **** /* USER CODE BEGIN PD */
  35:Src/stm32f3xx_it.c ****  
  36:Src/stm32f3xx_it.c **** /* USER CODE END PD */
  37:Src/stm32f3xx_it.c **** 
  38:Src/stm32f3xx_it.c **** /* Private macro -------------------------------------------------------------*/
  39:Src/stm32f3xx_it.c **** /* USER CODE BEGIN PM */
  40:Src/stm32f3xx_it.c **** 
  41:Src/stm32f3xx_it.c **** /* USER CODE END PM */
  42:Src/stm32f3xx_it.c **** 
  43:Src/stm32f3xx_it.c **** /* Private variables ---------------------------------------------------------*/
  44:Src/stm32f3xx_it.c **** /* USER CODE BEGIN PV */
  45:Src/stm32f3xx_it.c **** 
  46:Src/stm32f3xx_it.c **** /* USER CODE END PV */
  47:Src/stm32f3xx_it.c **** 
  48:Src/stm32f3xx_it.c **** /* Private function prototypes -----------------------------------------------*/
  49:Src/stm32f3xx_it.c **** /* USER CODE BEGIN PFP */
  50:Src/stm32f3xx_it.c **** 
  51:Src/stm32f3xx_it.c **** /* USER CODE END PFP */
  52:Src/stm32f3xx_it.c **** 
  53:Src/stm32f3xx_it.c **** /* Private user code ---------------------------------------------------------*/
  54:Src/stm32f3xx_it.c **** /* USER CODE BEGIN 0 */
  55:Src/stm32f3xx_it.c **** 
  56:Src/stm32f3xx_it.c **** /* USER CODE END 0 */
  57:Src/stm32f3xx_it.c **** 
  58:Src/stm32f3xx_it.c **** /* External variables --------------------------------------------------------*/
  59:Src/stm32f3xx_it.c **** 
  60:Src/stm32f3xx_it.c **** /* USER CODE BEGIN EV */
  61:Src/stm32f3xx_it.c **** 
  62:Src/stm32f3xx_it.c **** /* USER CODE END EV */
  63:Src/stm32f3xx_it.c **** 
  64:Src/stm32f3xx_it.c **** /******************************************************************************/
  65:Src/stm32f3xx_it.c **** /*           Cortex-M4 Processor Interruption and Exception Handlers          */ 
  66:Src/stm32f3xx_it.c **** /******************************************************************************/
  67:Src/stm32f3xx_it.c **** /**
  68:Src/stm32f3xx_it.c ****   * @brief This function handles Non maskable interrupt.
  69:Src/stm32f3xx_it.c ****   */
  70:Src/stm32f3xx_it.c **** void NMI_Handler(void)
  71:Src/stm32f3xx_it.c **** {
  29              		.loc 1 71 1 view -0
  30              		.cfi_startproc
  31              		@ args = 0, pretend = 0, frame = 0
  32              		@ frame_needed = 0, uses_anonymous_args = 0
  33              		@ link register save eliminated.
  72:Src/stm32f3xx_it.c ****   /* USER CODE BEGIN NonMaskableInt_IRQn 0 */
  73:Src/stm32f3xx_it.c **** 
  74:Src/stm32f3xx_it.c ****   /* USER CODE END NonMaskableInt_IRQn 0 */
  75:Src/stm32f3xx_it.c ****   /* USER CODE BEGIN NonMaskableInt_IRQn 1 */
  76:Src/stm32f3xx_it.c **** 
  77:Src/stm32f3xx_it.c ****   /* USER CODE END NonMaskableInt_IRQn 1 */
  78:Src/stm32f3xx_it.c **** }
  34              		.loc 1 78 1 view .LVU1
  35 0000 7047     		bx	lr
  36              		.cfi_endproc
  37              	.LFE126:
ARM GAS  /var/folders/md/lgcc8l7571l9vt9sx0g0zflw0000gn/T//ccRuTsuV.s 			page 3


  39              		.section	.text.HardFault_Handler,"ax",%progbits
  40              		.align	1
  41              		.global	HardFault_Handler
  42              		.syntax unified
  43              		.thumb
  44              		.thumb_func
  45              		.fpu fpv4-sp-d16
  47              	HardFault_Handler:
  48              	.LFB127:
  79:Src/stm32f3xx_it.c **** 
  80:Src/stm32f3xx_it.c **** /**
  81:Src/stm32f3xx_it.c ****   * @brief This function handles Hard fault interrupt.
  82:Src/stm32f3xx_it.c ****   */
  83:Src/stm32f3xx_it.c **** void HardFault_Handler(void)
  84:Src/stm32f3xx_it.c **** {
  49              		.loc 1 84 1 view -0
  50              		.cfi_startproc
  51              		@ Volatile: function does not return.
  52              		@ args = 0, pretend = 0, frame = 0
  53              		@ frame_needed = 0, uses_anonymous_args = 0
  54              		@ link register save eliminated.
  55              	.L3:
  85:Src/stm32f3xx_it.c ****   /* USER CODE BEGIN HardFault_IRQn 0 */
  86:Src/stm32f3xx_it.c **** 
  87:Src/stm32f3xx_it.c ****   /* USER CODE END HardFault_IRQn 0 */
  88:Src/stm32f3xx_it.c ****   while (1)
  56              		.loc 1 88 3 discriminator 1 view .LVU3
  89:Src/stm32f3xx_it.c ****   {
  90:Src/stm32f3xx_it.c ****     /* USER CODE BEGIN W1_HardFault_IRQn 0 */
  91:Src/stm32f3xx_it.c ****     /* USER CODE END W1_HardFault_IRQn 0 */
  92:Src/stm32f3xx_it.c ****   }
  57              		.loc 1 92 3 discriminator 1 view .LVU4
  58 0000 FEE7     		b	.L3
  59              		.cfi_endproc
  60              	.LFE127:
  62              		.section	.text.MemManage_Handler,"ax",%progbits
  63              		.align	1
  64              		.global	MemManage_Handler
  65              		.syntax unified
  66              		.thumb
  67              		.thumb_func
  68              		.fpu fpv4-sp-d16
  70              	MemManage_Handler:
  71              	.LFB128:
  93:Src/stm32f3xx_it.c **** }
  94:Src/stm32f3xx_it.c **** 
  95:Src/stm32f3xx_it.c **** /**
  96:Src/stm32f3xx_it.c ****   * @brief This function handles Memory management fault.
  97:Src/stm32f3xx_it.c ****   */
  98:Src/stm32f3xx_it.c **** void MemManage_Handler(void)
  99:Src/stm32f3xx_it.c **** {
  72              		.loc 1 99 1 view -0
  73              		.cfi_startproc
  74              		@ Volatile: function does not return.
  75              		@ args = 0, pretend = 0, frame = 0
  76              		@ frame_needed = 0, uses_anonymous_args = 0
  77              		@ link register save eliminated.
ARM GAS  /var/folders/md/lgcc8l7571l9vt9sx0g0zflw0000gn/T//ccRuTsuV.s 			page 4


  78              	.L5:
 100:Src/stm32f3xx_it.c ****   /* USER CODE BEGIN MemoryManagement_IRQn 0 */
 101:Src/stm32f3xx_it.c **** 
 102:Src/stm32f3xx_it.c ****   /* USER CODE END MemoryManagement_IRQn 0 */
 103:Src/stm32f3xx_it.c ****   while (1)
  79              		.loc 1 103 3 discriminator 1 view .LVU6
 104:Src/stm32f3xx_it.c ****   {
 105:Src/stm32f3xx_it.c ****     /* USER CODE BEGIN W1_MemoryManagement_IRQn 0 */
 106:Src/stm32f3xx_it.c ****     /* USER CODE END W1_MemoryManagement_IRQn 0 */
 107:Src/stm32f3xx_it.c ****   }
  80              		.loc 1 107 3 discriminator 1 view .LVU7
  81 0000 FEE7     		b	.L5
  82              		.cfi_endproc
  83              	.LFE128:
  85              		.section	.text.BusFault_Handler,"ax",%progbits
  86              		.align	1
  87              		.global	BusFault_Handler
  88              		.syntax unified
  89              		.thumb
  90              		.thumb_func
  91              		.fpu fpv4-sp-d16
  93              	BusFault_Handler:
  94              	.LFB129:
 108:Src/stm32f3xx_it.c **** }
 109:Src/stm32f3xx_it.c **** 
 110:Src/stm32f3xx_it.c **** /**
 111:Src/stm32f3xx_it.c ****   * @brief This function handles Pre-fetch fault, memory access fault.
 112:Src/stm32f3xx_it.c ****   */
 113:Src/stm32f3xx_it.c **** void BusFault_Handler(void)
 114:Src/stm32f3xx_it.c **** {
  95              		.loc 1 114 1 view -0
  96              		.cfi_startproc
  97              		@ Volatile: function does not return.
  98              		@ args = 0, pretend = 0, frame = 0
  99              		@ frame_needed = 0, uses_anonymous_args = 0
 100              		@ link register save eliminated.
 101              	.L7:
 115:Src/stm32f3xx_it.c ****   /* USER CODE BEGIN BusFault_IRQn 0 */
 116:Src/stm32f3xx_it.c **** 
 117:Src/stm32f3xx_it.c ****   /* USER CODE END BusFault_IRQn 0 */
 118:Src/stm32f3xx_it.c ****   while (1)
 102              		.loc 1 118 3 discriminator 1 view .LVU9
 119:Src/stm32f3xx_it.c ****   {
 120:Src/stm32f3xx_it.c ****     /* USER CODE BEGIN W1_BusFault_IRQn 0 */
 121:Src/stm32f3xx_it.c ****     /* USER CODE END W1_BusFault_IRQn 0 */
 122:Src/stm32f3xx_it.c ****   }
 103              		.loc 1 122 3 discriminator 1 view .LVU10
 104 0000 FEE7     		b	.L7
 105              		.cfi_endproc
 106              	.LFE129:
 108              		.section	.text.UsageFault_Handler,"ax",%progbits
 109              		.align	1
 110              		.global	UsageFault_Handler
 111              		.syntax unified
 112              		.thumb
 113              		.thumb_func
 114              		.fpu fpv4-sp-d16
ARM GAS  /var/folders/md/lgcc8l7571l9vt9sx0g0zflw0000gn/T//ccRuTsuV.s 			page 5


 116              	UsageFault_Handler:
 117              	.LFB130:
 123:Src/stm32f3xx_it.c **** }
 124:Src/stm32f3xx_it.c **** 
 125:Src/stm32f3xx_it.c **** /**
 126:Src/stm32f3xx_it.c ****   * @brief This function handles Undefined instruction or illegal state.
 127:Src/stm32f3xx_it.c ****   */
 128:Src/stm32f3xx_it.c **** void UsageFault_Handler(void)
 129:Src/stm32f3xx_it.c **** {
 118              		.loc 1 129 1 view -0
 119              		.cfi_startproc
 120              		@ Volatile: function does not return.
 121              		@ args = 0, pretend = 0, frame = 0
 122              		@ frame_needed = 0, uses_anonymous_args = 0
 123              		@ link register save eliminated.
 124              	.L9:
 130:Src/stm32f3xx_it.c ****   /* USER CODE BEGIN UsageFault_IRQn 0 */
 131:Src/stm32f3xx_it.c **** 
 132:Src/stm32f3xx_it.c ****   /* USER CODE END UsageFault_IRQn 0 */
 133:Src/stm32f3xx_it.c ****   while (1)
 125              		.loc 1 133 3 discriminator 1 view .LVU12
 134:Src/stm32f3xx_it.c ****   {
 135:Src/stm32f3xx_it.c ****     /* USER CODE BEGIN W1_UsageFault_IRQn 0 */
 136:Src/stm32f3xx_it.c ****     /* USER CODE END W1_UsageFault_IRQn 0 */
 137:Src/stm32f3xx_it.c ****   }
 126              		.loc 1 137 3 discriminator 1 view .LVU13
 127 0000 FEE7     		b	.L9
 128              		.cfi_endproc
 129              	.LFE130:
 131              		.section	.text.SVC_Handler,"ax",%progbits
 132              		.align	1
 133              		.global	SVC_Handler
 134              		.syntax unified
 135              		.thumb
 136              		.thumb_func
 137              		.fpu fpv4-sp-d16
 139              	SVC_Handler:
 140              	.LFB131:
 138:Src/stm32f3xx_it.c **** }
 139:Src/stm32f3xx_it.c **** 
 140:Src/stm32f3xx_it.c **** /**
 141:Src/stm32f3xx_it.c ****   * @brief This function handles System service call via SWI instruction.
 142:Src/stm32f3xx_it.c ****   */
 143:Src/stm32f3xx_it.c **** void SVC_Handler(void)
 144:Src/stm32f3xx_it.c **** {
 141              		.loc 1 144 1 view -0
 142              		.cfi_startproc
 143              		@ args = 0, pretend = 0, frame = 0
 144              		@ frame_needed = 0, uses_anonymous_args = 0
 145              		@ link register save eliminated.
 145:Src/stm32f3xx_it.c ****   /* USER CODE BEGIN SVCall_IRQn 0 */
 146:Src/stm32f3xx_it.c **** 
 147:Src/stm32f3xx_it.c ****   /* USER CODE END SVCall_IRQn 0 */
 148:Src/stm32f3xx_it.c ****   /* USER CODE BEGIN SVCall_IRQn 1 */
 149:Src/stm32f3xx_it.c **** 
 150:Src/stm32f3xx_it.c ****   /* USER CODE END SVCall_IRQn 1 */
 151:Src/stm32f3xx_it.c **** }
ARM GAS  /var/folders/md/lgcc8l7571l9vt9sx0g0zflw0000gn/T//ccRuTsuV.s 			page 6


 146              		.loc 1 151 1 view .LVU15
 147 0000 7047     		bx	lr
 148              		.cfi_endproc
 149              	.LFE131:
 151              		.section	.text.DebugMon_Handler,"ax",%progbits
 152              		.align	1
 153              		.global	DebugMon_Handler
 154              		.syntax unified
 155              		.thumb
 156              		.thumb_func
 157              		.fpu fpv4-sp-d16
 159              	DebugMon_Handler:
 160              	.LFB132:
 152:Src/stm32f3xx_it.c **** 
 153:Src/stm32f3xx_it.c **** /**
 154:Src/stm32f3xx_it.c ****   * @brief This function handles Debug monitor.
 155:Src/stm32f3xx_it.c ****   */
 156:Src/stm32f3xx_it.c **** void DebugMon_Handler(void)
 157:Src/stm32f3xx_it.c **** {
 161              		.loc 1 157 1 view -0
 162              		.cfi_startproc
 163              		@ args = 0, pretend = 0, frame = 0
 164              		@ frame_needed = 0, uses_anonymous_args = 0
 165              		@ link register save eliminated.
 158:Src/stm32f3xx_it.c ****   /* USER CODE BEGIN DebugMonitor_IRQn 0 */
 159:Src/stm32f3xx_it.c **** 
 160:Src/stm32f3xx_it.c ****   /* USER CODE END DebugMonitor_IRQn 0 */
 161:Src/stm32f3xx_it.c ****   /* USER CODE BEGIN DebugMonitor_IRQn 1 */
 162:Src/stm32f3xx_it.c **** 
 163:Src/stm32f3xx_it.c ****   /* USER CODE END DebugMonitor_IRQn 1 */
 164:Src/stm32f3xx_it.c **** }
 166              		.loc 1 164 1 view .LVU17
 167 0000 7047     		bx	lr
 168              		.cfi_endproc
 169              	.LFE132:
 171              		.section	.text.PendSV_Handler,"ax",%progbits
 172              		.align	1
 173              		.global	PendSV_Handler
 174              		.syntax unified
 175              		.thumb
 176              		.thumb_func
 177              		.fpu fpv4-sp-d16
 179              	PendSV_Handler:
 180              	.LFB133:
 165:Src/stm32f3xx_it.c **** 
 166:Src/stm32f3xx_it.c **** /**
 167:Src/stm32f3xx_it.c ****   * @brief This function handles Pendable request for system service.
 168:Src/stm32f3xx_it.c ****   */
 169:Src/stm32f3xx_it.c **** void PendSV_Handler(void)
 170:Src/stm32f3xx_it.c **** {
 181              		.loc 1 170 1 view -0
 182              		.cfi_startproc
 183              		@ args = 0, pretend = 0, frame = 0
 184              		@ frame_needed = 0, uses_anonymous_args = 0
 185              		@ link register save eliminated.
 171:Src/stm32f3xx_it.c ****   /* USER CODE BEGIN PendSV_IRQn 0 */
 172:Src/stm32f3xx_it.c **** 
ARM GAS  /var/folders/md/lgcc8l7571l9vt9sx0g0zflw0000gn/T//ccRuTsuV.s 			page 7


 173:Src/stm32f3xx_it.c ****   /* USER CODE END PendSV_IRQn 0 */
 174:Src/stm32f3xx_it.c ****   /* USER CODE BEGIN PendSV_IRQn 1 */
 175:Src/stm32f3xx_it.c **** 
 176:Src/stm32f3xx_it.c ****   /* USER CODE END PendSV_IRQn 1 */
 177:Src/stm32f3xx_it.c **** }
 186              		.loc 1 177 1 view .LVU19
 187 0000 7047     		bx	lr
 188              		.cfi_endproc
 189              	.LFE133:
 191              		.section	.text.SysTick_Handler,"ax",%progbits
 192              		.align	1
 193              		.global	SysTick_Handler
 194              		.syntax unified
 195              		.thumb
 196              		.thumb_func
 197              		.fpu fpv4-sp-d16
 199              	SysTick_Handler:
 200              	.LFB134:
 178:Src/stm32f3xx_it.c **** 
 179:Src/stm32f3xx_it.c **** /**
 180:Src/stm32f3xx_it.c ****   * @brief This function handles System tick timer.
 181:Src/stm32f3xx_it.c ****   */
 182:Src/stm32f3xx_it.c **** void SysTick_Handler(void)
 183:Src/stm32f3xx_it.c **** {
 201              		.loc 1 183 1 view -0
 202              		.cfi_startproc
 203              		@ args = 0, pretend = 0, frame = 0
 204              		@ frame_needed = 0, uses_anonymous_args = 0
 205 0000 08B5     		push	{r3, lr}
 206              	.LCFI0:
 207              		.cfi_def_cfa_offset 8
 208              		.cfi_offset 3, -8
 209              		.cfi_offset 14, -4
 184:Src/stm32f3xx_it.c ****   /* USER CODE BEGIN SysTick_IRQn 0 */
 185:Src/stm32f3xx_it.c **** 
 186:Src/stm32f3xx_it.c ****   /* USER CODE END SysTick_IRQn 0 */
 187:Src/stm32f3xx_it.c ****   HAL_IncTick();
 210              		.loc 1 187 3 view .LVU21
 211 0002 FFF7FEFF 		bl	HAL_IncTick
 212              	.LVL0:
 188:Src/stm32f3xx_it.c ****   /* USER CODE BEGIN SysTick_IRQn 1 */
 189:Src/stm32f3xx_it.c **** 
 190:Src/stm32f3xx_it.c ****   /* USER CODE END SysTick_IRQn 1 */
 191:Src/stm32f3xx_it.c **** }
 213              		.loc 1 191 1 is_stmt 0 view .LVU22
 214 0006 08BD     		pop	{r3, pc}
 215              		.cfi_endproc
 216              	.LFE134:
 218              		.text
 219              	.Letext0:
 220              		.file 2 "/usr/local/gcc-arm-none-eabi-8-2019-q3-update/arm-none-eabi/include/machine/_default_type
 221              		.file 3 "/usr/local/gcc-arm-none-eabi-8-2019-q3-update/arm-none-eabi/include/sys/_stdint.h"
 222              		.file 4 "Drivers/CMSIS/Include/core_cm4.h"
 223              		.file 5 "Drivers/CMSIS/Device/ST/STM32F3xx/Include/system_stm32f3xx.h"
 224              		.file 6 "/usr/local/gcc-arm-none-eabi-8-2019-q3-update/lib/gcc/arm-none-eabi/8.3.1/include/stddef.
 225              		.file 7 "/usr/local/gcc-arm-none-eabi-8-2019-q3-update/arm-none-eabi/include/sys/_types.h"
 226              		.file 8 "/usr/local/gcc-arm-none-eabi-8-2019-q3-update/arm-none-eabi/include/sys/reent.h"
ARM GAS  /var/folders/md/lgcc8l7571l9vt9sx0g0zflw0000gn/T//ccRuTsuV.s 			page 8


 227              		.file 9 "/usr/local/gcc-arm-none-eabi-8-2019-q3-update/arm-none-eabi/include/sys/lock.h"
 228              		.file 10 "Drivers/STM32F3xx_HAL_Driver/Inc/stm32f3xx_hal.h"
ARM GAS  /var/folders/md/lgcc8l7571l9vt9sx0g0zflw0000gn/T//ccRuTsuV.s 			page 9

