ARM GAS  /var/folders/md/lgcc8l7571l9vt9sx0g0zflw0000gn/T//cchpce5v.s 			page 1


   1              		.cpu cortex-m4
   2              		.eabi_attribute 27, 1
   3              		.eabi_attribute 28, 1
   4              		.eabi_attribute 20, 1
   5              		.eabi_attribute 21, 1
   6              		.eabi_attribute 23, 3
   7              		.eabi_attribute 24, 1
   8              		.eabi_attribute 25, 1
   9              		.eabi_attribute 26, 1
  10              		.eabi_attribute 30, 1
  11              		.eabi_attribute 34, 1
  12              		.eabi_attribute 18, 4
  13              		.file	"stm32f3xx_hal_flash.c"
  14              		.text
  15              	.Ltext0:
  16              		.cfi_sections	.debug_frame
  17              		.section	.text.FLASH_Program_HalfWord,"ax",%progbits
  18              		.align	1
  19              		.arch armv7e-m
  20              		.syntax unified
  21              		.thumb
  22              		.thumb_func
  23              		.fpu fpv4-sp-d16
  25              	FLASH_Program_HalfWord:
  26              	.LVL0:
  27              	.LFB137:
  28              		.file 1 "Drivers/STM32F3xx_HAL_Driver/Src/stm32f3xx_hal_flash.c"
   1:Drivers/STM32F3xx_HAL_Driver/Src/stm32f3xx_hal_flash.c **** /**
   2:Drivers/STM32F3xx_HAL_Driver/Src/stm32f3xx_hal_flash.c ****   ******************************************************************************
   3:Drivers/STM32F3xx_HAL_Driver/Src/stm32f3xx_hal_flash.c ****   * @file    stm32f3xx_hal_flash.c
   4:Drivers/STM32F3xx_HAL_Driver/Src/stm32f3xx_hal_flash.c ****   * @author  MCD Application Team
   5:Drivers/STM32F3xx_HAL_Driver/Src/stm32f3xx_hal_flash.c ****   * @brief   FLASH HAL module driver.
   6:Drivers/STM32F3xx_HAL_Driver/Src/stm32f3xx_hal_flash.c ****   *          This file provides firmware functions to manage the following 
   7:Drivers/STM32F3xx_HAL_Driver/Src/stm32f3xx_hal_flash.c ****   *          functionalities of the internal FLASH memory:
   8:Drivers/STM32F3xx_HAL_Driver/Src/stm32f3xx_hal_flash.c ****   *           + Program operations functions
   9:Drivers/STM32F3xx_HAL_Driver/Src/stm32f3xx_hal_flash.c ****   *           + Memory Control functions 
  10:Drivers/STM32F3xx_HAL_Driver/Src/stm32f3xx_hal_flash.c ****   *           + Peripheral State functions
  11:Drivers/STM32F3xx_HAL_Driver/Src/stm32f3xx_hal_flash.c ****   *         
  12:Drivers/STM32F3xx_HAL_Driver/Src/stm32f3xx_hal_flash.c ****   @verbatim
  13:Drivers/STM32F3xx_HAL_Driver/Src/stm32f3xx_hal_flash.c ****   ==============================================================================
  14:Drivers/STM32F3xx_HAL_Driver/Src/stm32f3xx_hal_flash.c ****                         ##### FLASH peripheral features #####
  15:Drivers/STM32F3xx_HAL_Driver/Src/stm32f3xx_hal_flash.c ****   ==============================================================================
  16:Drivers/STM32F3xx_HAL_Driver/Src/stm32f3xx_hal_flash.c ****   [..] The Flash memory interface manages CPU AHB I-Code and D-Code accesses 
  17:Drivers/STM32F3xx_HAL_Driver/Src/stm32f3xx_hal_flash.c ****        to the Flash memory. It implements the erase and program Flash memory operations 
  18:Drivers/STM32F3xx_HAL_Driver/Src/stm32f3xx_hal_flash.c ****        and the read and write protection mechanisms.
  19:Drivers/STM32F3xx_HAL_Driver/Src/stm32f3xx_hal_flash.c **** 
  20:Drivers/STM32F3xx_HAL_Driver/Src/stm32f3xx_hal_flash.c ****   [..] The Flash memory interface accelerates code execution with a system of instruction
  21:Drivers/STM32F3xx_HAL_Driver/Src/stm32f3xx_hal_flash.c ****       prefetch. 
  22:Drivers/STM32F3xx_HAL_Driver/Src/stm32f3xx_hal_flash.c **** 
  23:Drivers/STM32F3xx_HAL_Driver/Src/stm32f3xx_hal_flash.c ****   [..] The FLASH main features are:
  24:Drivers/STM32F3xx_HAL_Driver/Src/stm32f3xx_hal_flash.c ****       (+) Flash memory read operations
  25:Drivers/STM32F3xx_HAL_Driver/Src/stm32f3xx_hal_flash.c ****       (+) Flash memory program/erase operations
  26:Drivers/STM32F3xx_HAL_Driver/Src/stm32f3xx_hal_flash.c ****       (+) Read / write protections
  27:Drivers/STM32F3xx_HAL_Driver/Src/stm32f3xx_hal_flash.c ****       (+) Prefetch on I-Code
  28:Drivers/STM32F3xx_HAL_Driver/Src/stm32f3xx_hal_flash.c ****       (+) Option Bytes programming
  29:Drivers/STM32F3xx_HAL_Driver/Src/stm32f3xx_hal_flash.c **** 
  30:Drivers/STM32F3xx_HAL_Driver/Src/stm32f3xx_hal_flash.c **** 
ARM GAS  /var/folders/md/lgcc8l7571l9vt9sx0g0zflw0000gn/T//cchpce5v.s 			page 2


  31:Drivers/STM32F3xx_HAL_Driver/Src/stm32f3xx_hal_flash.c ****                      ##### How to use this driver #####
  32:Drivers/STM32F3xx_HAL_Driver/Src/stm32f3xx_hal_flash.c ****   ==============================================================================
  33:Drivers/STM32F3xx_HAL_Driver/Src/stm32f3xx_hal_flash.c ****   [..]                             
  34:Drivers/STM32F3xx_HAL_Driver/Src/stm32f3xx_hal_flash.c ****       This driver provides functions and macros to configure and program the FLASH 
  35:Drivers/STM32F3xx_HAL_Driver/Src/stm32f3xx_hal_flash.c ****       memory of all STM32F3xx devices.
  36:Drivers/STM32F3xx_HAL_Driver/Src/stm32f3xx_hal_flash.c ****     
  37:Drivers/STM32F3xx_HAL_Driver/Src/stm32f3xx_hal_flash.c ****       (#) FLASH Memory I/O Programming functions: this group includes all needed
  38:Drivers/STM32F3xx_HAL_Driver/Src/stm32f3xx_hal_flash.c ****           functions to erase and program the main memory:
  39:Drivers/STM32F3xx_HAL_Driver/Src/stm32f3xx_hal_flash.c ****         (++) Lock and Unlock the FLASH interface
  40:Drivers/STM32F3xx_HAL_Driver/Src/stm32f3xx_hal_flash.c ****         (++) Erase function: Erase page, erase all pages
  41:Drivers/STM32F3xx_HAL_Driver/Src/stm32f3xx_hal_flash.c ****         (++) Program functions: half word, word and doubleword
  42:Drivers/STM32F3xx_HAL_Driver/Src/stm32f3xx_hal_flash.c ****       (#) FLASH Option Bytes Programming functions: this group includes all needed
  43:Drivers/STM32F3xx_HAL_Driver/Src/stm32f3xx_hal_flash.c ****           functions to manage the Option Bytes:
  44:Drivers/STM32F3xx_HAL_Driver/Src/stm32f3xx_hal_flash.c ****         (++) Lock and Unlock the Option Bytes
  45:Drivers/STM32F3xx_HAL_Driver/Src/stm32f3xx_hal_flash.c ****         (++) Set/Reset the write protection
  46:Drivers/STM32F3xx_HAL_Driver/Src/stm32f3xx_hal_flash.c ****         (++) Set the Read protection Level
  47:Drivers/STM32F3xx_HAL_Driver/Src/stm32f3xx_hal_flash.c ****         (++) Program the user Option Bytes
  48:Drivers/STM32F3xx_HAL_Driver/Src/stm32f3xx_hal_flash.c ****         (++) Launch the Option Bytes loader
  49:Drivers/STM32F3xx_HAL_Driver/Src/stm32f3xx_hal_flash.c ****         (++) Erase Option Bytes
  50:Drivers/STM32F3xx_HAL_Driver/Src/stm32f3xx_hal_flash.c ****         (++) Program the data Option Bytes
  51:Drivers/STM32F3xx_HAL_Driver/Src/stm32f3xx_hal_flash.c ****         (++) Get the Write protection.
  52:Drivers/STM32F3xx_HAL_Driver/Src/stm32f3xx_hal_flash.c ****         (++) Get the user option bytes.
  53:Drivers/STM32F3xx_HAL_Driver/Src/stm32f3xx_hal_flash.c ****     
  54:Drivers/STM32F3xx_HAL_Driver/Src/stm32f3xx_hal_flash.c ****       (#) Interrupts and flags management functions : this group 
  55:Drivers/STM32F3xx_HAL_Driver/Src/stm32f3xx_hal_flash.c ****           includes all needed functions to:
  56:Drivers/STM32F3xx_HAL_Driver/Src/stm32f3xx_hal_flash.c ****         (++) Handle FLASH interrupts
  57:Drivers/STM32F3xx_HAL_Driver/Src/stm32f3xx_hal_flash.c ****         (++) Wait for last FLASH operation according to its status
  58:Drivers/STM32F3xx_HAL_Driver/Src/stm32f3xx_hal_flash.c ****         (++) Get error flag status
  59:Drivers/STM32F3xx_HAL_Driver/Src/stm32f3xx_hal_flash.c **** 
  60:Drivers/STM32F3xx_HAL_Driver/Src/stm32f3xx_hal_flash.c ****   [..] In addition to these function, this driver includes a set of macros allowing
  61:Drivers/STM32F3xx_HAL_Driver/Src/stm32f3xx_hal_flash.c ****        to handle the following operations:
  62:Drivers/STM32F3xx_HAL_Driver/Src/stm32f3xx_hal_flash.c ****       
  63:Drivers/STM32F3xx_HAL_Driver/Src/stm32f3xx_hal_flash.c ****       (+) Set/Get the latency
  64:Drivers/STM32F3xx_HAL_Driver/Src/stm32f3xx_hal_flash.c ****       (+) Enable/Disable the prefetch buffer
  65:Drivers/STM32F3xx_HAL_Driver/Src/stm32f3xx_hal_flash.c ****       (+) Enable/Disable the half cycle access
  66:Drivers/STM32F3xx_HAL_Driver/Src/stm32f3xx_hal_flash.c ****       (+) Enable/Disable the FLASH interrupts
  67:Drivers/STM32F3xx_HAL_Driver/Src/stm32f3xx_hal_flash.c ****       (+) Monitor the FLASH flags status
  68:Drivers/STM32F3xx_HAL_Driver/Src/stm32f3xx_hal_flash.c ****           
  69:Drivers/STM32F3xx_HAL_Driver/Src/stm32f3xx_hal_flash.c ****   @endverbatim
  70:Drivers/STM32F3xx_HAL_Driver/Src/stm32f3xx_hal_flash.c ****   ******************************************************************************
  71:Drivers/STM32F3xx_HAL_Driver/Src/stm32f3xx_hal_flash.c ****   * @attention
  72:Drivers/STM32F3xx_HAL_Driver/Src/stm32f3xx_hal_flash.c ****   *
  73:Drivers/STM32F3xx_HAL_Driver/Src/stm32f3xx_hal_flash.c ****   * <h2><center>&copy; COPYRIGHT(c) 2016 STMicroelectronics</center></h2>
  74:Drivers/STM32F3xx_HAL_Driver/Src/stm32f3xx_hal_flash.c ****   *
  75:Drivers/STM32F3xx_HAL_Driver/Src/stm32f3xx_hal_flash.c ****   * Redistribution and use in source and binary forms, with or without modification,
  76:Drivers/STM32F3xx_HAL_Driver/Src/stm32f3xx_hal_flash.c ****   * are permitted provided that the following conditions are met:
  77:Drivers/STM32F3xx_HAL_Driver/Src/stm32f3xx_hal_flash.c ****   *   1. Redistributions of source code must retain the above copyright notice,
  78:Drivers/STM32F3xx_HAL_Driver/Src/stm32f3xx_hal_flash.c ****   *      this list of conditions and the following disclaimer.
  79:Drivers/STM32F3xx_HAL_Driver/Src/stm32f3xx_hal_flash.c ****   *   2. Redistributions in binary form must reproduce the above copyright notice,
  80:Drivers/STM32F3xx_HAL_Driver/Src/stm32f3xx_hal_flash.c ****   *      this list of conditions and the following disclaimer in the documentation
  81:Drivers/STM32F3xx_HAL_Driver/Src/stm32f3xx_hal_flash.c ****   *      and/or other materials provided with the distribution.
  82:Drivers/STM32F3xx_HAL_Driver/Src/stm32f3xx_hal_flash.c ****   *   3. Neither the name of STMicroelectronics nor the names of its contributors
  83:Drivers/STM32F3xx_HAL_Driver/Src/stm32f3xx_hal_flash.c ****   *      may be used to endorse or promote products derived from this software
  84:Drivers/STM32F3xx_HAL_Driver/Src/stm32f3xx_hal_flash.c ****   *      without specific prior written permission.
  85:Drivers/STM32F3xx_HAL_Driver/Src/stm32f3xx_hal_flash.c ****   *
  86:Drivers/STM32F3xx_HAL_Driver/Src/stm32f3xx_hal_flash.c ****   * THIS SOFTWARE IS PROVIDED BY THE COPYRIGHT HOLDERS AND CONTRIBUTORS "AS IS"
  87:Drivers/STM32F3xx_HAL_Driver/Src/stm32f3xx_hal_flash.c ****   * AND ANY EXPRESS OR IMPLIED WARRANTIES, INCLUDING, BUT NOT LIMITED TO, THE
ARM GAS  /var/folders/md/lgcc8l7571l9vt9sx0g0zflw0000gn/T//cchpce5v.s 			page 3


  88:Drivers/STM32F3xx_HAL_Driver/Src/stm32f3xx_hal_flash.c ****   * IMPLIED WARRANTIES OF MERCHANTABILITY AND FITNESS FOR A PARTICULAR PURPOSE ARE
  89:Drivers/STM32F3xx_HAL_Driver/Src/stm32f3xx_hal_flash.c ****   * DISCLAIMED. IN NO EVENT SHALL THE COPYRIGHT HOLDER OR CONTRIBUTORS BE LIABLE
  90:Drivers/STM32F3xx_HAL_Driver/Src/stm32f3xx_hal_flash.c ****   * FOR ANY DIRECT, INDIRECT, INCIDENTAL, SPECIAL, EXEMPLARY, OR CONSEQUENTIAL
  91:Drivers/STM32F3xx_HAL_Driver/Src/stm32f3xx_hal_flash.c ****   * DAMAGES (INCLUDING, BUT NOT LIMITED TO, PROCUREMENT OF SUBSTITUTE GOODS OR
  92:Drivers/STM32F3xx_HAL_Driver/Src/stm32f3xx_hal_flash.c ****   * SERVICES; LOSS OF USE, DATA, OR PROFITS; OR BUSINESS INTERRUPTION) HOWEVER
  93:Drivers/STM32F3xx_HAL_Driver/Src/stm32f3xx_hal_flash.c ****   * CAUSED AND ON ANY THEORY OF LIABILITY, WHETHER IN CONTRACT, STRICT LIABILITY,
  94:Drivers/STM32F3xx_HAL_Driver/Src/stm32f3xx_hal_flash.c ****   * OR TORT (INCLUDING NEGLIGENCE OR OTHERWISE) ARISING IN ANY WAY OUT OF THE USE
  95:Drivers/STM32F3xx_HAL_Driver/Src/stm32f3xx_hal_flash.c ****   * OF THIS SOFTWARE, EVEN IF ADVISED OF THE POSSIBILITY OF SUCH DAMAGE.
  96:Drivers/STM32F3xx_HAL_Driver/Src/stm32f3xx_hal_flash.c ****   *
  97:Drivers/STM32F3xx_HAL_Driver/Src/stm32f3xx_hal_flash.c ****   ******************************************************************************  
  98:Drivers/STM32F3xx_HAL_Driver/Src/stm32f3xx_hal_flash.c ****   */
  99:Drivers/STM32F3xx_HAL_Driver/Src/stm32f3xx_hal_flash.c **** 
 100:Drivers/STM32F3xx_HAL_Driver/Src/stm32f3xx_hal_flash.c **** /* Includes ------------------------------------------------------------------*/
 101:Drivers/STM32F3xx_HAL_Driver/Src/stm32f3xx_hal_flash.c **** #include "stm32f3xx_hal.h"
 102:Drivers/STM32F3xx_HAL_Driver/Src/stm32f3xx_hal_flash.c **** 
 103:Drivers/STM32F3xx_HAL_Driver/Src/stm32f3xx_hal_flash.c **** /** @addtogroup STM32F3xx_HAL_Driver
 104:Drivers/STM32F3xx_HAL_Driver/Src/stm32f3xx_hal_flash.c ****   * @{
 105:Drivers/STM32F3xx_HAL_Driver/Src/stm32f3xx_hal_flash.c ****   */
 106:Drivers/STM32F3xx_HAL_Driver/Src/stm32f3xx_hal_flash.c **** 
 107:Drivers/STM32F3xx_HAL_Driver/Src/stm32f3xx_hal_flash.c **** #ifdef HAL_FLASH_MODULE_ENABLED
 108:Drivers/STM32F3xx_HAL_Driver/Src/stm32f3xx_hal_flash.c **** 
 109:Drivers/STM32F3xx_HAL_Driver/Src/stm32f3xx_hal_flash.c **** /** @defgroup FLASH FLASH
 110:Drivers/STM32F3xx_HAL_Driver/Src/stm32f3xx_hal_flash.c ****   * @brief FLASH HAL module driver
 111:Drivers/STM32F3xx_HAL_Driver/Src/stm32f3xx_hal_flash.c ****   * @{
 112:Drivers/STM32F3xx_HAL_Driver/Src/stm32f3xx_hal_flash.c ****   */
 113:Drivers/STM32F3xx_HAL_Driver/Src/stm32f3xx_hal_flash.c **** 
 114:Drivers/STM32F3xx_HAL_Driver/Src/stm32f3xx_hal_flash.c **** /* Private typedef -----------------------------------------------------------*/
 115:Drivers/STM32F3xx_HAL_Driver/Src/stm32f3xx_hal_flash.c **** /* Private define ------------------------------------------------------------*/
 116:Drivers/STM32F3xx_HAL_Driver/Src/stm32f3xx_hal_flash.c **** /** @defgroup FLASH_Private_Constants FLASH Private Constants
 117:Drivers/STM32F3xx_HAL_Driver/Src/stm32f3xx_hal_flash.c ****   * @{
 118:Drivers/STM32F3xx_HAL_Driver/Src/stm32f3xx_hal_flash.c ****   */
 119:Drivers/STM32F3xx_HAL_Driver/Src/stm32f3xx_hal_flash.c **** /**
 120:Drivers/STM32F3xx_HAL_Driver/Src/stm32f3xx_hal_flash.c ****   * @}
 121:Drivers/STM32F3xx_HAL_Driver/Src/stm32f3xx_hal_flash.c ****   */
 122:Drivers/STM32F3xx_HAL_Driver/Src/stm32f3xx_hal_flash.c **** 
 123:Drivers/STM32F3xx_HAL_Driver/Src/stm32f3xx_hal_flash.c **** /* Private macro ---------------------------- ---------------------------------*/
 124:Drivers/STM32F3xx_HAL_Driver/Src/stm32f3xx_hal_flash.c **** /** @defgroup FLASH_Private_Macros FLASH Private Macros
 125:Drivers/STM32F3xx_HAL_Driver/Src/stm32f3xx_hal_flash.c ****   * @{
 126:Drivers/STM32F3xx_HAL_Driver/Src/stm32f3xx_hal_flash.c ****   */
 127:Drivers/STM32F3xx_HAL_Driver/Src/stm32f3xx_hal_flash.c ****  
 128:Drivers/STM32F3xx_HAL_Driver/Src/stm32f3xx_hal_flash.c **** /**
 129:Drivers/STM32F3xx_HAL_Driver/Src/stm32f3xx_hal_flash.c ****   * @}
 130:Drivers/STM32F3xx_HAL_Driver/Src/stm32f3xx_hal_flash.c ****   */
 131:Drivers/STM32F3xx_HAL_Driver/Src/stm32f3xx_hal_flash.c **** 
 132:Drivers/STM32F3xx_HAL_Driver/Src/stm32f3xx_hal_flash.c **** /* Private variables ---------------------------------------------------------*/
 133:Drivers/STM32F3xx_HAL_Driver/Src/stm32f3xx_hal_flash.c **** /** @defgroup FLASH_Private_Variables FLASH Private Variables
 134:Drivers/STM32F3xx_HAL_Driver/Src/stm32f3xx_hal_flash.c ****   * @{
 135:Drivers/STM32F3xx_HAL_Driver/Src/stm32f3xx_hal_flash.c ****   */
 136:Drivers/STM32F3xx_HAL_Driver/Src/stm32f3xx_hal_flash.c **** /* Variables used for Erase pages under interruption*/
 137:Drivers/STM32F3xx_HAL_Driver/Src/stm32f3xx_hal_flash.c **** FLASH_ProcessTypeDef pFlash;
 138:Drivers/STM32F3xx_HAL_Driver/Src/stm32f3xx_hal_flash.c **** /**
 139:Drivers/STM32F3xx_HAL_Driver/Src/stm32f3xx_hal_flash.c ****   * @}
 140:Drivers/STM32F3xx_HAL_Driver/Src/stm32f3xx_hal_flash.c ****   */
 141:Drivers/STM32F3xx_HAL_Driver/Src/stm32f3xx_hal_flash.c **** 
 142:Drivers/STM32F3xx_HAL_Driver/Src/stm32f3xx_hal_flash.c **** /* Private function prototypes -----------------------------------------------*/
 143:Drivers/STM32F3xx_HAL_Driver/Src/stm32f3xx_hal_flash.c **** /** @defgroup FLASH_Private_Functions FLASH Private Functions
 144:Drivers/STM32F3xx_HAL_Driver/Src/stm32f3xx_hal_flash.c ****   * @{
ARM GAS  /var/folders/md/lgcc8l7571l9vt9sx0g0zflw0000gn/T//cchpce5v.s 			page 4


 145:Drivers/STM32F3xx_HAL_Driver/Src/stm32f3xx_hal_flash.c ****   */
 146:Drivers/STM32F3xx_HAL_Driver/Src/stm32f3xx_hal_flash.c **** static  void   FLASH_Program_HalfWord(uint32_t Address, uint16_t Data);
 147:Drivers/STM32F3xx_HAL_Driver/Src/stm32f3xx_hal_flash.c **** static  void   FLASH_SetErrorCode(void);
 148:Drivers/STM32F3xx_HAL_Driver/Src/stm32f3xx_hal_flash.c **** extern void    FLASH_PageErase(uint32_t PageAddress);
 149:Drivers/STM32F3xx_HAL_Driver/Src/stm32f3xx_hal_flash.c **** /**
 150:Drivers/STM32F3xx_HAL_Driver/Src/stm32f3xx_hal_flash.c ****   * @}
 151:Drivers/STM32F3xx_HAL_Driver/Src/stm32f3xx_hal_flash.c ****   */
 152:Drivers/STM32F3xx_HAL_Driver/Src/stm32f3xx_hal_flash.c **** 
 153:Drivers/STM32F3xx_HAL_Driver/Src/stm32f3xx_hal_flash.c **** /* Exported functions ---------------------------------------------------------*/
 154:Drivers/STM32F3xx_HAL_Driver/Src/stm32f3xx_hal_flash.c **** /** @defgroup FLASH_Exported_Functions FLASH Exported Functions
 155:Drivers/STM32F3xx_HAL_Driver/Src/stm32f3xx_hal_flash.c ****   * @{
 156:Drivers/STM32F3xx_HAL_Driver/Src/stm32f3xx_hal_flash.c ****   */
 157:Drivers/STM32F3xx_HAL_Driver/Src/stm32f3xx_hal_flash.c ****   
 158:Drivers/STM32F3xx_HAL_Driver/Src/stm32f3xx_hal_flash.c **** /** @defgroup FLASH_Exported_Functions_Group1 Programming operation functions 
 159:Drivers/STM32F3xx_HAL_Driver/Src/stm32f3xx_hal_flash.c ****   *  @brief   Programming operation functions 
 160:Drivers/STM32F3xx_HAL_Driver/Src/stm32f3xx_hal_flash.c ****   *
 161:Drivers/STM32F3xx_HAL_Driver/Src/stm32f3xx_hal_flash.c **** @verbatim   
 162:Drivers/STM32F3xx_HAL_Driver/Src/stm32f3xx_hal_flash.c **** @endverbatim
 163:Drivers/STM32F3xx_HAL_Driver/Src/stm32f3xx_hal_flash.c ****   * @{
 164:Drivers/STM32F3xx_HAL_Driver/Src/stm32f3xx_hal_flash.c ****   */
 165:Drivers/STM32F3xx_HAL_Driver/Src/stm32f3xx_hal_flash.c **** 
 166:Drivers/STM32F3xx_HAL_Driver/Src/stm32f3xx_hal_flash.c **** /**
 167:Drivers/STM32F3xx_HAL_Driver/Src/stm32f3xx_hal_flash.c ****   * @brief  Program halfword, word or double word at a specified address
 168:Drivers/STM32F3xx_HAL_Driver/Src/stm32f3xx_hal_flash.c ****   * @note   The function HAL_FLASH_Unlock() should be called before to unlock the FLASH interface
 169:Drivers/STM32F3xx_HAL_Driver/Src/stm32f3xx_hal_flash.c ****   *         The function HAL_FLASH_Lock() should be called after to lock the FLASH interface
 170:Drivers/STM32F3xx_HAL_Driver/Src/stm32f3xx_hal_flash.c ****   *
 171:Drivers/STM32F3xx_HAL_Driver/Src/stm32f3xx_hal_flash.c ****   * @note   If an erase and a program operations are requested simultaneously,    
 172:Drivers/STM32F3xx_HAL_Driver/Src/stm32f3xx_hal_flash.c ****   *         the erase operation is performed before the program one.
 173:Drivers/STM32F3xx_HAL_Driver/Src/stm32f3xx_hal_flash.c ****   *  
 174:Drivers/STM32F3xx_HAL_Driver/Src/stm32f3xx_hal_flash.c ****   * @note   FLASH should be previously erased before new programming (only exception to this 
 175:Drivers/STM32F3xx_HAL_Driver/Src/stm32f3xx_hal_flash.c ****   *         is when 0x0000 is programmed)
 176:Drivers/STM32F3xx_HAL_Driver/Src/stm32f3xx_hal_flash.c ****   *
 177:Drivers/STM32F3xx_HAL_Driver/Src/stm32f3xx_hal_flash.c ****   * @param  TypeProgram   Indicate the way to program at a specified address.
 178:Drivers/STM32F3xx_HAL_Driver/Src/stm32f3xx_hal_flash.c ****   *                       This parameter can be a value of @ref FLASH_Type_Program
 179:Drivers/STM32F3xx_HAL_Driver/Src/stm32f3xx_hal_flash.c ****   * @param  Address       Specifie the address to be programmed.
 180:Drivers/STM32F3xx_HAL_Driver/Src/stm32f3xx_hal_flash.c ****   * @param  Data          Specifie the data to be programmed
 181:Drivers/STM32F3xx_HAL_Driver/Src/stm32f3xx_hal_flash.c ****   * 
 182:Drivers/STM32F3xx_HAL_Driver/Src/stm32f3xx_hal_flash.c ****   * @retval HAL_StatusTypeDef HAL Status
 183:Drivers/STM32F3xx_HAL_Driver/Src/stm32f3xx_hal_flash.c ****   */
 184:Drivers/STM32F3xx_HAL_Driver/Src/stm32f3xx_hal_flash.c **** HAL_StatusTypeDef HAL_FLASH_Program(uint32_t TypeProgram, uint32_t Address, uint64_t Data)
 185:Drivers/STM32F3xx_HAL_Driver/Src/stm32f3xx_hal_flash.c **** {
 186:Drivers/STM32F3xx_HAL_Driver/Src/stm32f3xx_hal_flash.c ****   HAL_StatusTypeDef status = HAL_ERROR;
 187:Drivers/STM32F3xx_HAL_Driver/Src/stm32f3xx_hal_flash.c ****   uint8_t index = 0U;
 188:Drivers/STM32F3xx_HAL_Driver/Src/stm32f3xx_hal_flash.c ****   uint8_t nbiterations = 0U;
 189:Drivers/STM32F3xx_HAL_Driver/Src/stm32f3xx_hal_flash.c ****   
 190:Drivers/STM32F3xx_HAL_Driver/Src/stm32f3xx_hal_flash.c ****   /* Process Locked */
 191:Drivers/STM32F3xx_HAL_Driver/Src/stm32f3xx_hal_flash.c ****   __HAL_LOCK(&pFlash);
 192:Drivers/STM32F3xx_HAL_Driver/Src/stm32f3xx_hal_flash.c **** 
 193:Drivers/STM32F3xx_HAL_Driver/Src/stm32f3xx_hal_flash.c ****   /* Check the parameters */
 194:Drivers/STM32F3xx_HAL_Driver/Src/stm32f3xx_hal_flash.c ****   assert_param(IS_FLASH_TYPEPROGRAM(TypeProgram));
 195:Drivers/STM32F3xx_HAL_Driver/Src/stm32f3xx_hal_flash.c ****   assert_param(IS_FLASH_PROGRAM_ADDRESS(Address));
 196:Drivers/STM32F3xx_HAL_Driver/Src/stm32f3xx_hal_flash.c **** 
 197:Drivers/STM32F3xx_HAL_Driver/Src/stm32f3xx_hal_flash.c ****     /* Wait for last operation to be completed */
 198:Drivers/STM32F3xx_HAL_Driver/Src/stm32f3xx_hal_flash.c ****     status = FLASH_WaitForLastOperation(FLASH_TIMEOUT_VALUE);
 199:Drivers/STM32F3xx_HAL_Driver/Src/stm32f3xx_hal_flash.c ****   
 200:Drivers/STM32F3xx_HAL_Driver/Src/stm32f3xx_hal_flash.c ****   if(status == HAL_OK)
 201:Drivers/STM32F3xx_HAL_Driver/Src/stm32f3xx_hal_flash.c ****   {
ARM GAS  /var/folders/md/lgcc8l7571l9vt9sx0g0zflw0000gn/T//cchpce5v.s 			page 5


 202:Drivers/STM32F3xx_HAL_Driver/Src/stm32f3xx_hal_flash.c ****     if(TypeProgram == FLASH_TYPEPROGRAM_HALFWORD)
 203:Drivers/STM32F3xx_HAL_Driver/Src/stm32f3xx_hal_flash.c ****     {
 204:Drivers/STM32F3xx_HAL_Driver/Src/stm32f3xx_hal_flash.c ****       /* Program halfword (16-bit) at a specified address. */
 205:Drivers/STM32F3xx_HAL_Driver/Src/stm32f3xx_hal_flash.c ****       nbiterations = 1U;
 206:Drivers/STM32F3xx_HAL_Driver/Src/stm32f3xx_hal_flash.c ****     }
 207:Drivers/STM32F3xx_HAL_Driver/Src/stm32f3xx_hal_flash.c ****     else if(TypeProgram == FLASH_TYPEPROGRAM_WORD)
 208:Drivers/STM32F3xx_HAL_Driver/Src/stm32f3xx_hal_flash.c ****     {
 209:Drivers/STM32F3xx_HAL_Driver/Src/stm32f3xx_hal_flash.c ****       /* Program word (32-bit = 2*16-bit) at a specified address. */
 210:Drivers/STM32F3xx_HAL_Driver/Src/stm32f3xx_hal_flash.c ****       nbiterations = 2U;
 211:Drivers/STM32F3xx_HAL_Driver/Src/stm32f3xx_hal_flash.c ****     }
 212:Drivers/STM32F3xx_HAL_Driver/Src/stm32f3xx_hal_flash.c ****     else
 213:Drivers/STM32F3xx_HAL_Driver/Src/stm32f3xx_hal_flash.c ****     {
 214:Drivers/STM32F3xx_HAL_Driver/Src/stm32f3xx_hal_flash.c ****       /* Program double word (64-bit = 4*16-bit) at a specified address. */
 215:Drivers/STM32F3xx_HAL_Driver/Src/stm32f3xx_hal_flash.c ****       nbiterations = 4U;
 216:Drivers/STM32F3xx_HAL_Driver/Src/stm32f3xx_hal_flash.c ****     }
 217:Drivers/STM32F3xx_HAL_Driver/Src/stm32f3xx_hal_flash.c **** 
 218:Drivers/STM32F3xx_HAL_Driver/Src/stm32f3xx_hal_flash.c ****     for (index = 0U; index < nbiterations; index++)
 219:Drivers/STM32F3xx_HAL_Driver/Src/stm32f3xx_hal_flash.c ****     {
 220:Drivers/STM32F3xx_HAL_Driver/Src/stm32f3xx_hal_flash.c ****       FLASH_Program_HalfWord((Address + (2U*index)), (uint16_t)(Data >> (16U*index)));
 221:Drivers/STM32F3xx_HAL_Driver/Src/stm32f3xx_hal_flash.c **** 
 222:Drivers/STM32F3xx_HAL_Driver/Src/stm32f3xx_hal_flash.c ****         /* Wait for last operation to be completed */
 223:Drivers/STM32F3xx_HAL_Driver/Src/stm32f3xx_hal_flash.c ****         status = FLASH_WaitForLastOperation(FLASH_TIMEOUT_VALUE);
 224:Drivers/STM32F3xx_HAL_Driver/Src/stm32f3xx_hal_flash.c ****     
 225:Drivers/STM32F3xx_HAL_Driver/Src/stm32f3xx_hal_flash.c ****         /* If the program operation is completed, disable the PG Bit */
 226:Drivers/STM32F3xx_HAL_Driver/Src/stm32f3xx_hal_flash.c ****         CLEAR_BIT(FLASH->CR, FLASH_CR_PG);
 227:Drivers/STM32F3xx_HAL_Driver/Src/stm32f3xx_hal_flash.c ****       /* In case of error, stop programming procedure */
 228:Drivers/STM32F3xx_HAL_Driver/Src/stm32f3xx_hal_flash.c ****       if (status != HAL_OK)
 229:Drivers/STM32F3xx_HAL_Driver/Src/stm32f3xx_hal_flash.c ****       {
 230:Drivers/STM32F3xx_HAL_Driver/Src/stm32f3xx_hal_flash.c ****         break;
 231:Drivers/STM32F3xx_HAL_Driver/Src/stm32f3xx_hal_flash.c ****       }
 232:Drivers/STM32F3xx_HAL_Driver/Src/stm32f3xx_hal_flash.c ****     }
 233:Drivers/STM32F3xx_HAL_Driver/Src/stm32f3xx_hal_flash.c ****   }
 234:Drivers/STM32F3xx_HAL_Driver/Src/stm32f3xx_hal_flash.c **** 
 235:Drivers/STM32F3xx_HAL_Driver/Src/stm32f3xx_hal_flash.c ****   /* Process Unlocked */
 236:Drivers/STM32F3xx_HAL_Driver/Src/stm32f3xx_hal_flash.c ****   __HAL_UNLOCK(&pFlash);
 237:Drivers/STM32F3xx_HAL_Driver/Src/stm32f3xx_hal_flash.c **** 
 238:Drivers/STM32F3xx_HAL_Driver/Src/stm32f3xx_hal_flash.c ****   return status;
 239:Drivers/STM32F3xx_HAL_Driver/Src/stm32f3xx_hal_flash.c **** }
 240:Drivers/STM32F3xx_HAL_Driver/Src/stm32f3xx_hal_flash.c **** 
 241:Drivers/STM32F3xx_HAL_Driver/Src/stm32f3xx_hal_flash.c **** /**
 242:Drivers/STM32F3xx_HAL_Driver/Src/stm32f3xx_hal_flash.c ****   * @brief  Program halfword, word or double word at a specified address  with interrupt enabled.
 243:Drivers/STM32F3xx_HAL_Driver/Src/stm32f3xx_hal_flash.c ****   * @note   The function HAL_FLASH_Unlock() should be called before to unlock the FLASH interface
 244:Drivers/STM32F3xx_HAL_Driver/Src/stm32f3xx_hal_flash.c ****   *         The function HAL_FLASH_Lock() should be called after to lock the FLASH interface
 245:Drivers/STM32F3xx_HAL_Driver/Src/stm32f3xx_hal_flash.c ****   *
 246:Drivers/STM32F3xx_HAL_Driver/Src/stm32f3xx_hal_flash.c ****   * @note   If an erase and a program operations are requested simultaneously,    
 247:Drivers/STM32F3xx_HAL_Driver/Src/stm32f3xx_hal_flash.c ****   *         the erase operation is performed before the program one.
 248:Drivers/STM32F3xx_HAL_Driver/Src/stm32f3xx_hal_flash.c ****   *
 249:Drivers/STM32F3xx_HAL_Driver/Src/stm32f3xx_hal_flash.c ****   * @param  TypeProgram  Indicate the way to program at a specified address.
 250:Drivers/STM32F3xx_HAL_Driver/Src/stm32f3xx_hal_flash.c ****   *                      This parameter can be a value of @ref FLASH_Type_Program
 251:Drivers/STM32F3xx_HAL_Driver/Src/stm32f3xx_hal_flash.c ****   * @param  Address      Specifie the address to be programmed.
 252:Drivers/STM32F3xx_HAL_Driver/Src/stm32f3xx_hal_flash.c ****   * @param  Data         Specifie the data to be programmed
 253:Drivers/STM32F3xx_HAL_Driver/Src/stm32f3xx_hal_flash.c ****   * 
 254:Drivers/STM32F3xx_HAL_Driver/Src/stm32f3xx_hal_flash.c ****   * @retval HAL_StatusTypeDef HAL Status
 255:Drivers/STM32F3xx_HAL_Driver/Src/stm32f3xx_hal_flash.c ****   */
 256:Drivers/STM32F3xx_HAL_Driver/Src/stm32f3xx_hal_flash.c **** HAL_StatusTypeDef HAL_FLASH_Program_IT(uint32_t TypeProgram, uint32_t Address, uint64_t Data)
 257:Drivers/STM32F3xx_HAL_Driver/Src/stm32f3xx_hal_flash.c **** {
 258:Drivers/STM32F3xx_HAL_Driver/Src/stm32f3xx_hal_flash.c ****   HAL_StatusTypeDef status = HAL_OK;
ARM GAS  /var/folders/md/lgcc8l7571l9vt9sx0g0zflw0000gn/T//cchpce5v.s 			page 6


 259:Drivers/STM32F3xx_HAL_Driver/Src/stm32f3xx_hal_flash.c ****   
 260:Drivers/STM32F3xx_HAL_Driver/Src/stm32f3xx_hal_flash.c ****   /* Process Locked */
 261:Drivers/STM32F3xx_HAL_Driver/Src/stm32f3xx_hal_flash.c ****   __HAL_LOCK(&pFlash);
 262:Drivers/STM32F3xx_HAL_Driver/Src/stm32f3xx_hal_flash.c **** 
 263:Drivers/STM32F3xx_HAL_Driver/Src/stm32f3xx_hal_flash.c ****   /* Check the parameters */
 264:Drivers/STM32F3xx_HAL_Driver/Src/stm32f3xx_hal_flash.c ****   assert_param(IS_FLASH_TYPEPROGRAM(TypeProgram));
 265:Drivers/STM32F3xx_HAL_Driver/Src/stm32f3xx_hal_flash.c ****   assert_param(IS_FLASH_PROGRAM_ADDRESS(Address));
 266:Drivers/STM32F3xx_HAL_Driver/Src/stm32f3xx_hal_flash.c **** 
 267:Drivers/STM32F3xx_HAL_Driver/Src/stm32f3xx_hal_flash.c ****   /* Enable End of FLASH Operation and Error source interrupts */
 268:Drivers/STM32F3xx_HAL_Driver/Src/stm32f3xx_hal_flash.c ****   __HAL_FLASH_ENABLE_IT(FLASH_IT_EOP | FLASH_IT_ERR);
 269:Drivers/STM32F3xx_HAL_Driver/Src/stm32f3xx_hal_flash.c ****   
 270:Drivers/STM32F3xx_HAL_Driver/Src/stm32f3xx_hal_flash.c ****   pFlash.Address = Address;
 271:Drivers/STM32F3xx_HAL_Driver/Src/stm32f3xx_hal_flash.c ****   pFlash.Data = Data;
 272:Drivers/STM32F3xx_HAL_Driver/Src/stm32f3xx_hal_flash.c **** 
 273:Drivers/STM32F3xx_HAL_Driver/Src/stm32f3xx_hal_flash.c ****   if(TypeProgram == FLASH_TYPEPROGRAM_HALFWORD)
 274:Drivers/STM32F3xx_HAL_Driver/Src/stm32f3xx_hal_flash.c ****   {
 275:Drivers/STM32F3xx_HAL_Driver/Src/stm32f3xx_hal_flash.c ****     pFlash.ProcedureOnGoing = FLASH_PROC_PROGRAMHALFWORD;
 276:Drivers/STM32F3xx_HAL_Driver/Src/stm32f3xx_hal_flash.c ****     /* Program halfword (16-bit) at a specified address. */
 277:Drivers/STM32F3xx_HAL_Driver/Src/stm32f3xx_hal_flash.c ****     pFlash.DataRemaining = 1U;
 278:Drivers/STM32F3xx_HAL_Driver/Src/stm32f3xx_hal_flash.c ****   }
 279:Drivers/STM32F3xx_HAL_Driver/Src/stm32f3xx_hal_flash.c ****   else if(TypeProgram == FLASH_TYPEPROGRAM_WORD)
 280:Drivers/STM32F3xx_HAL_Driver/Src/stm32f3xx_hal_flash.c ****   {
 281:Drivers/STM32F3xx_HAL_Driver/Src/stm32f3xx_hal_flash.c ****     pFlash.ProcedureOnGoing = FLASH_PROC_PROGRAMWORD;
 282:Drivers/STM32F3xx_HAL_Driver/Src/stm32f3xx_hal_flash.c ****     /* Program word (32-bit : 2*16-bit) at a specified address. */
 283:Drivers/STM32F3xx_HAL_Driver/Src/stm32f3xx_hal_flash.c ****     pFlash.DataRemaining = 2U;
 284:Drivers/STM32F3xx_HAL_Driver/Src/stm32f3xx_hal_flash.c ****   }
 285:Drivers/STM32F3xx_HAL_Driver/Src/stm32f3xx_hal_flash.c ****   else
 286:Drivers/STM32F3xx_HAL_Driver/Src/stm32f3xx_hal_flash.c ****   {
 287:Drivers/STM32F3xx_HAL_Driver/Src/stm32f3xx_hal_flash.c ****     pFlash.ProcedureOnGoing = FLASH_PROC_PROGRAMDOUBLEWORD;
 288:Drivers/STM32F3xx_HAL_Driver/Src/stm32f3xx_hal_flash.c ****     /* Program double word (64-bit : 4*16-bit) at a specified address. */
 289:Drivers/STM32F3xx_HAL_Driver/Src/stm32f3xx_hal_flash.c ****     pFlash.DataRemaining = 4U;
 290:Drivers/STM32F3xx_HAL_Driver/Src/stm32f3xx_hal_flash.c ****   }
 291:Drivers/STM32F3xx_HAL_Driver/Src/stm32f3xx_hal_flash.c **** 
 292:Drivers/STM32F3xx_HAL_Driver/Src/stm32f3xx_hal_flash.c ****   /* Program halfword (16-bit) at a specified address. */
 293:Drivers/STM32F3xx_HAL_Driver/Src/stm32f3xx_hal_flash.c ****   FLASH_Program_HalfWord(Address, (uint16_t)Data);
 294:Drivers/STM32F3xx_HAL_Driver/Src/stm32f3xx_hal_flash.c **** 
 295:Drivers/STM32F3xx_HAL_Driver/Src/stm32f3xx_hal_flash.c ****   return status;
 296:Drivers/STM32F3xx_HAL_Driver/Src/stm32f3xx_hal_flash.c **** }
 297:Drivers/STM32F3xx_HAL_Driver/Src/stm32f3xx_hal_flash.c **** 
 298:Drivers/STM32F3xx_HAL_Driver/Src/stm32f3xx_hal_flash.c **** /**
 299:Drivers/STM32F3xx_HAL_Driver/Src/stm32f3xx_hal_flash.c ****   * @brief This function handles FLASH interrupt request.
 300:Drivers/STM32F3xx_HAL_Driver/Src/stm32f3xx_hal_flash.c ****   * @retval None
 301:Drivers/STM32F3xx_HAL_Driver/Src/stm32f3xx_hal_flash.c ****   */
 302:Drivers/STM32F3xx_HAL_Driver/Src/stm32f3xx_hal_flash.c **** void HAL_FLASH_IRQHandler(void)
 303:Drivers/STM32F3xx_HAL_Driver/Src/stm32f3xx_hal_flash.c **** {
 304:Drivers/STM32F3xx_HAL_Driver/Src/stm32f3xx_hal_flash.c ****   uint32_t addresstmp = 0U;
 305:Drivers/STM32F3xx_HAL_Driver/Src/stm32f3xx_hal_flash.c ****   
 306:Drivers/STM32F3xx_HAL_Driver/Src/stm32f3xx_hal_flash.c ****   /* Check FLASH operation error flags */
 307:Drivers/STM32F3xx_HAL_Driver/Src/stm32f3xx_hal_flash.c ****   if(__HAL_FLASH_GET_FLAG(FLASH_FLAG_WRPERR) ||__HAL_FLASH_GET_FLAG(FLASH_FLAG_PGERR))
 308:Drivers/STM32F3xx_HAL_Driver/Src/stm32f3xx_hal_flash.c ****   {
 309:Drivers/STM32F3xx_HAL_Driver/Src/stm32f3xx_hal_flash.c ****     /* Return the faulty address */
 310:Drivers/STM32F3xx_HAL_Driver/Src/stm32f3xx_hal_flash.c ****     addresstmp = pFlash.Address;
 311:Drivers/STM32F3xx_HAL_Driver/Src/stm32f3xx_hal_flash.c ****     /* Reset address */
 312:Drivers/STM32F3xx_HAL_Driver/Src/stm32f3xx_hal_flash.c ****     pFlash.Address = 0xFFFFFFFFU;
 313:Drivers/STM32F3xx_HAL_Driver/Src/stm32f3xx_hal_flash.c ****   
 314:Drivers/STM32F3xx_HAL_Driver/Src/stm32f3xx_hal_flash.c ****     /* Save the Error code */
 315:Drivers/STM32F3xx_HAL_Driver/Src/stm32f3xx_hal_flash.c ****     FLASH_SetErrorCode();
ARM GAS  /var/folders/md/lgcc8l7571l9vt9sx0g0zflw0000gn/T//cchpce5v.s 			page 7


 316:Drivers/STM32F3xx_HAL_Driver/Src/stm32f3xx_hal_flash.c ****     
 317:Drivers/STM32F3xx_HAL_Driver/Src/stm32f3xx_hal_flash.c ****     /* FLASH error interrupt user callback */
 318:Drivers/STM32F3xx_HAL_Driver/Src/stm32f3xx_hal_flash.c ****     HAL_FLASH_OperationErrorCallback(addresstmp);
 319:Drivers/STM32F3xx_HAL_Driver/Src/stm32f3xx_hal_flash.c **** 
 320:Drivers/STM32F3xx_HAL_Driver/Src/stm32f3xx_hal_flash.c ****     /* Stop the procedure ongoing */
 321:Drivers/STM32F3xx_HAL_Driver/Src/stm32f3xx_hal_flash.c ****     pFlash.ProcedureOnGoing = FLASH_PROC_NONE;
 322:Drivers/STM32F3xx_HAL_Driver/Src/stm32f3xx_hal_flash.c ****   }
 323:Drivers/STM32F3xx_HAL_Driver/Src/stm32f3xx_hal_flash.c **** 
 324:Drivers/STM32F3xx_HAL_Driver/Src/stm32f3xx_hal_flash.c ****   /* Check FLASH End of Operation flag  */
 325:Drivers/STM32F3xx_HAL_Driver/Src/stm32f3xx_hal_flash.c ****   if(__HAL_FLASH_GET_FLAG(FLASH_FLAG_EOP))
 326:Drivers/STM32F3xx_HAL_Driver/Src/stm32f3xx_hal_flash.c ****   {
 327:Drivers/STM32F3xx_HAL_Driver/Src/stm32f3xx_hal_flash.c ****     /* Clear FLASH End of Operation pending bit */
 328:Drivers/STM32F3xx_HAL_Driver/Src/stm32f3xx_hal_flash.c ****     __HAL_FLASH_CLEAR_FLAG(FLASH_FLAG_EOP);
 329:Drivers/STM32F3xx_HAL_Driver/Src/stm32f3xx_hal_flash.c ****     
 330:Drivers/STM32F3xx_HAL_Driver/Src/stm32f3xx_hal_flash.c ****     /* Process can continue only if no error detected */
 331:Drivers/STM32F3xx_HAL_Driver/Src/stm32f3xx_hal_flash.c ****     if(pFlash.ProcedureOnGoing != FLASH_PROC_NONE)
 332:Drivers/STM32F3xx_HAL_Driver/Src/stm32f3xx_hal_flash.c ****     {
 333:Drivers/STM32F3xx_HAL_Driver/Src/stm32f3xx_hal_flash.c ****       if(pFlash.ProcedureOnGoing == FLASH_PROC_PAGEERASE)
 334:Drivers/STM32F3xx_HAL_Driver/Src/stm32f3xx_hal_flash.c ****       {
 335:Drivers/STM32F3xx_HAL_Driver/Src/stm32f3xx_hal_flash.c ****         /* Nb of pages to erased can be decreased */
 336:Drivers/STM32F3xx_HAL_Driver/Src/stm32f3xx_hal_flash.c ****         pFlash.DataRemaining--;
 337:Drivers/STM32F3xx_HAL_Driver/Src/stm32f3xx_hal_flash.c **** 
 338:Drivers/STM32F3xx_HAL_Driver/Src/stm32f3xx_hal_flash.c ****         /* Check if there are still pages to erase */
 339:Drivers/STM32F3xx_HAL_Driver/Src/stm32f3xx_hal_flash.c ****         if(pFlash.DataRemaining != 0U)
 340:Drivers/STM32F3xx_HAL_Driver/Src/stm32f3xx_hal_flash.c ****         {
 341:Drivers/STM32F3xx_HAL_Driver/Src/stm32f3xx_hal_flash.c ****           addresstmp = pFlash.Address;
 342:Drivers/STM32F3xx_HAL_Driver/Src/stm32f3xx_hal_flash.c ****           /*Indicate user which sector has been erased */
 343:Drivers/STM32F3xx_HAL_Driver/Src/stm32f3xx_hal_flash.c ****           HAL_FLASH_EndOfOperationCallback(addresstmp);
 344:Drivers/STM32F3xx_HAL_Driver/Src/stm32f3xx_hal_flash.c **** 
 345:Drivers/STM32F3xx_HAL_Driver/Src/stm32f3xx_hal_flash.c ****           /*Increment sector number*/
 346:Drivers/STM32F3xx_HAL_Driver/Src/stm32f3xx_hal_flash.c ****           addresstmp = pFlash.Address + FLASH_PAGE_SIZE;
 347:Drivers/STM32F3xx_HAL_Driver/Src/stm32f3xx_hal_flash.c ****           pFlash.Address = addresstmp;
 348:Drivers/STM32F3xx_HAL_Driver/Src/stm32f3xx_hal_flash.c **** 
 349:Drivers/STM32F3xx_HAL_Driver/Src/stm32f3xx_hal_flash.c ****           /* If the erase operation is completed, disable the PER Bit */
 350:Drivers/STM32F3xx_HAL_Driver/Src/stm32f3xx_hal_flash.c ****           CLEAR_BIT(FLASH->CR, FLASH_CR_PER);
 351:Drivers/STM32F3xx_HAL_Driver/Src/stm32f3xx_hal_flash.c **** 
 352:Drivers/STM32F3xx_HAL_Driver/Src/stm32f3xx_hal_flash.c ****           FLASH_PageErase(addresstmp);
 353:Drivers/STM32F3xx_HAL_Driver/Src/stm32f3xx_hal_flash.c ****         }
 354:Drivers/STM32F3xx_HAL_Driver/Src/stm32f3xx_hal_flash.c ****         else
 355:Drivers/STM32F3xx_HAL_Driver/Src/stm32f3xx_hal_flash.c ****         {
 356:Drivers/STM32F3xx_HAL_Driver/Src/stm32f3xx_hal_flash.c ****           /* No more pages to Erase, user callback can be called. */
 357:Drivers/STM32F3xx_HAL_Driver/Src/stm32f3xx_hal_flash.c ****           /* Reset Sector and stop Erase pages procedure */
 358:Drivers/STM32F3xx_HAL_Driver/Src/stm32f3xx_hal_flash.c ****           pFlash.Address = addresstmp = 0xFFFFFFFFU;
 359:Drivers/STM32F3xx_HAL_Driver/Src/stm32f3xx_hal_flash.c ****           pFlash.ProcedureOnGoing = FLASH_PROC_NONE;
 360:Drivers/STM32F3xx_HAL_Driver/Src/stm32f3xx_hal_flash.c ****           /* FLASH EOP interrupt user callback */
 361:Drivers/STM32F3xx_HAL_Driver/Src/stm32f3xx_hal_flash.c ****           HAL_FLASH_EndOfOperationCallback(addresstmp);
 362:Drivers/STM32F3xx_HAL_Driver/Src/stm32f3xx_hal_flash.c ****         }
 363:Drivers/STM32F3xx_HAL_Driver/Src/stm32f3xx_hal_flash.c ****       }
 364:Drivers/STM32F3xx_HAL_Driver/Src/stm32f3xx_hal_flash.c ****       else if(pFlash.ProcedureOnGoing == FLASH_PROC_MASSERASE)
 365:Drivers/STM32F3xx_HAL_Driver/Src/stm32f3xx_hal_flash.c ****       {
 366:Drivers/STM32F3xx_HAL_Driver/Src/stm32f3xx_hal_flash.c ****         /* Operation is completed, disable the MER Bit */
 367:Drivers/STM32F3xx_HAL_Driver/Src/stm32f3xx_hal_flash.c ****         CLEAR_BIT(FLASH->CR, FLASH_CR_MER);
 368:Drivers/STM32F3xx_HAL_Driver/Src/stm32f3xx_hal_flash.c **** 
 369:Drivers/STM32F3xx_HAL_Driver/Src/stm32f3xx_hal_flash.c ****           /* MassErase ended. Return the selected bank */
 370:Drivers/STM32F3xx_HAL_Driver/Src/stm32f3xx_hal_flash.c ****           /* FLASH EOP interrupt user callback */
 371:Drivers/STM32F3xx_HAL_Driver/Src/stm32f3xx_hal_flash.c ****           HAL_FLASH_EndOfOperationCallback(0U);
 372:Drivers/STM32F3xx_HAL_Driver/Src/stm32f3xx_hal_flash.c **** 
ARM GAS  /var/folders/md/lgcc8l7571l9vt9sx0g0zflw0000gn/T//cchpce5v.s 			page 8


 373:Drivers/STM32F3xx_HAL_Driver/Src/stm32f3xx_hal_flash.c ****           /* Stop Mass Erase procedure*/
 374:Drivers/STM32F3xx_HAL_Driver/Src/stm32f3xx_hal_flash.c ****           pFlash.ProcedureOnGoing = FLASH_PROC_NONE;
 375:Drivers/STM32F3xx_HAL_Driver/Src/stm32f3xx_hal_flash.c ****         }
 376:Drivers/STM32F3xx_HAL_Driver/Src/stm32f3xx_hal_flash.c ****       else
 377:Drivers/STM32F3xx_HAL_Driver/Src/stm32f3xx_hal_flash.c ****       {
 378:Drivers/STM32F3xx_HAL_Driver/Src/stm32f3xx_hal_flash.c ****         /* Nb of 16-bit data to program can be decreased */
 379:Drivers/STM32F3xx_HAL_Driver/Src/stm32f3xx_hal_flash.c ****         pFlash.DataRemaining--;
 380:Drivers/STM32F3xx_HAL_Driver/Src/stm32f3xx_hal_flash.c ****         
 381:Drivers/STM32F3xx_HAL_Driver/Src/stm32f3xx_hal_flash.c ****         /* Check if there are still 16-bit data to program */
 382:Drivers/STM32F3xx_HAL_Driver/Src/stm32f3xx_hal_flash.c ****         if(pFlash.DataRemaining != 0U)
 383:Drivers/STM32F3xx_HAL_Driver/Src/stm32f3xx_hal_flash.c ****         {
 384:Drivers/STM32F3xx_HAL_Driver/Src/stm32f3xx_hal_flash.c ****           /* Increment address to 16-bit */
 385:Drivers/STM32F3xx_HAL_Driver/Src/stm32f3xx_hal_flash.c ****           pFlash.Address += 2U;
 386:Drivers/STM32F3xx_HAL_Driver/Src/stm32f3xx_hal_flash.c ****           addresstmp = pFlash.Address;
 387:Drivers/STM32F3xx_HAL_Driver/Src/stm32f3xx_hal_flash.c ****           
 388:Drivers/STM32F3xx_HAL_Driver/Src/stm32f3xx_hal_flash.c ****           /* Shift to have next 16-bit data */
 389:Drivers/STM32F3xx_HAL_Driver/Src/stm32f3xx_hal_flash.c ****           pFlash.Data = (pFlash.Data >> 16U);
 390:Drivers/STM32F3xx_HAL_Driver/Src/stm32f3xx_hal_flash.c ****           
 391:Drivers/STM32F3xx_HAL_Driver/Src/stm32f3xx_hal_flash.c ****           /* Operation is completed, disable the PG Bit */
 392:Drivers/STM32F3xx_HAL_Driver/Src/stm32f3xx_hal_flash.c ****           CLEAR_BIT(FLASH->CR, FLASH_CR_PG);
 393:Drivers/STM32F3xx_HAL_Driver/Src/stm32f3xx_hal_flash.c **** 
 394:Drivers/STM32F3xx_HAL_Driver/Src/stm32f3xx_hal_flash.c ****           /*Program halfword (16-bit) at a specified address.*/
 395:Drivers/STM32F3xx_HAL_Driver/Src/stm32f3xx_hal_flash.c ****           FLASH_Program_HalfWord(addresstmp, (uint16_t)pFlash.Data);
 396:Drivers/STM32F3xx_HAL_Driver/Src/stm32f3xx_hal_flash.c ****         }
 397:Drivers/STM32F3xx_HAL_Driver/Src/stm32f3xx_hal_flash.c ****         else
 398:Drivers/STM32F3xx_HAL_Driver/Src/stm32f3xx_hal_flash.c ****         {
 399:Drivers/STM32F3xx_HAL_Driver/Src/stm32f3xx_hal_flash.c ****           /* Program ended. Return the selected address */
 400:Drivers/STM32F3xx_HAL_Driver/Src/stm32f3xx_hal_flash.c ****           /* FLASH EOP interrupt user callback */
 401:Drivers/STM32F3xx_HAL_Driver/Src/stm32f3xx_hal_flash.c ****           if (pFlash.ProcedureOnGoing == FLASH_PROC_PROGRAMHALFWORD)
 402:Drivers/STM32F3xx_HAL_Driver/Src/stm32f3xx_hal_flash.c ****           {
 403:Drivers/STM32F3xx_HAL_Driver/Src/stm32f3xx_hal_flash.c ****             HAL_FLASH_EndOfOperationCallback(pFlash.Address);
 404:Drivers/STM32F3xx_HAL_Driver/Src/stm32f3xx_hal_flash.c ****           }
 405:Drivers/STM32F3xx_HAL_Driver/Src/stm32f3xx_hal_flash.c ****           else if (pFlash.ProcedureOnGoing == FLASH_PROC_PROGRAMWORD)
 406:Drivers/STM32F3xx_HAL_Driver/Src/stm32f3xx_hal_flash.c ****           {
 407:Drivers/STM32F3xx_HAL_Driver/Src/stm32f3xx_hal_flash.c ****             HAL_FLASH_EndOfOperationCallback(pFlash.Address - 2U);
 408:Drivers/STM32F3xx_HAL_Driver/Src/stm32f3xx_hal_flash.c ****           }
 409:Drivers/STM32F3xx_HAL_Driver/Src/stm32f3xx_hal_flash.c ****           else 
 410:Drivers/STM32F3xx_HAL_Driver/Src/stm32f3xx_hal_flash.c ****           {
 411:Drivers/STM32F3xx_HAL_Driver/Src/stm32f3xx_hal_flash.c ****             HAL_FLASH_EndOfOperationCallback(pFlash.Address - 6U);
 412:Drivers/STM32F3xx_HAL_Driver/Src/stm32f3xx_hal_flash.c ****           }
 413:Drivers/STM32F3xx_HAL_Driver/Src/stm32f3xx_hal_flash.c ****         
 414:Drivers/STM32F3xx_HAL_Driver/Src/stm32f3xx_hal_flash.c ****           /* Reset Address and stop Program procedure */
 415:Drivers/STM32F3xx_HAL_Driver/Src/stm32f3xx_hal_flash.c ****           pFlash.Address = 0xFFFFFFFFU;
 416:Drivers/STM32F3xx_HAL_Driver/Src/stm32f3xx_hal_flash.c ****           pFlash.ProcedureOnGoing = FLASH_PROC_NONE;
 417:Drivers/STM32F3xx_HAL_Driver/Src/stm32f3xx_hal_flash.c ****         }
 418:Drivers/STM32F3xx_HAL_Driver/Src/stm32f3xx_hal_flash.c ****       }
 419:Drivers/STM32F3xx_HAL_Driver/Src/stm32f3xx_hal_flash.c ****     }
 420:Drivers/STM32F3xx_HAL_Driver/Src/stm32f3xx_hal_flash.c ****   }
 421:Drivers/STM32F3xx_HAL_Driver/Src/stm32f3xx_hal_flash.c ****   
 422:Drivers/STM32F3xx_HAL_Driver/Src/stm32f3xx_hal_flash.c **** 
 423:Drivers/STM32F3xx_HAL_Driver/Src/stm32f3xx_hal_flash.c ****   if(pFlash.ProcedureOnGoing == FLASH_PROC_NONE)
 424:Drivers/STM32F3xx_HAL_Driver/Src/stm32f3xx_hal_flash.c ****   {
 425:Drivers/STM32F3xx_HAL_Driver/Src/stm32f3xx_hal_flash.c ****     /* Operation is completed, disable the PG, PER and MER Bits */
 426:Drivers/STM32F3xx_HAL_Driver/Src/stm32f3xx_hal_flash.c ****     CLEAR_BIT(FLASH->CR, (FLASH_CR_PG | FLASH_CR_PER | FLASH_CR_MER));
 427:Drivers/STM32F3xx_HAL_Driver/Src/stm32f3xx_hal_flash.c **** 
 428:Drivers/STM32F3xx_HAL_Driver/Src/stm32f3xx_hal_flash.c ****     /* Disable End of FLASH Operation and Error source interrupts */
 429:Drivers/STM32F3xx_HAL_Driver/Src/stm32f3xx_hal_flash.c ****     __HAL_FLASH_DISABLE_IT(FLASH_IT_EOP | FLASH_IT_ERR);
ARM GAS  /var/folders/md/lgcc8l7571l9vt9sx0g0zflw0000gn/T//cchpce5v.s 			page 9


 430:Drivers/STM32F3xx_HAL_Driver/Src/stm32f3xx_hal_flash.c **** 
 431:Drivers/STM32F3xx_HAL_Driver/Src/stm32f3xx_hal_flash.c ****     /* Process Unlocked */
 432:Drivers/STM32F3xx_HAL_Driver/Src/stm32f3xx_hal_flash.c ****     __HAL_UNLOCK(&pFlash);
 433:Drivers/STM32F3xx_HAL_Driver/Src/stm32f3xx_hal_flash.c ****   }
 434:Drivers/STM32F3xx_HAL_Driver/Src/stm32f3xx_hal_flash.c **** }
 435:Drivers/STM32F3xx_HAL_Driver/Src/stm32f3xx_hal_flash.c **** 
 436:Drivers/STM32F3xx_HAL_Driver/Src/stm32f3xx_hal_flash.c **** /**
 437:Drivers/STM32F3xx_HAL_Driver/Src/stm32f3xx_hal_flash.c ****   * @brief  FLASH end of operation interrupt callback
 438:Drivers/STM32F3xx_HAL_Driver/Src/stm32f3xx_hal_flash.c ****   * @param  ReturnValue The value saved in this parameter depends on the ongoing procedure
 439:Drivers/STM32F3xx_HAL_Driver/Src/stm32f3xx_hal_flash.c ****   *                 - Mass Erase: No return value expected
 440:Drivers/STM32F3xx_HAL_Driver/Src/stm32f3xx_hal_flash.c ****   *                 - Pages Erase: Address of the page which has been erased 
 441:Drivers/STM32F3xx_HAL_Driver/Src/stm32f3xx_hal_flash.c ****   *                    (if 0xFFFFFFFF, it means that all the selected pages have been erased)
 442:Drivers/STM32F3xx_HAL_Driver/Src/stm32f3xx_hal_flash.c ****   *                 - Program: Address which was selected for data program
 443:Drivers/STM32F3xx_HAL_Driver/Src/stm32f3xx_hal_flash.c ****   * @retval none
 444:Drivers/STM32F3xx_HAL_Driver/Src/stm32f3xx_hal_flash.c ****   */
 445:Drivers/STM32F3xx_HAL_Driver/Src/stm32f3xx_hal_flash.c **** __weak void HAL_FLASH_EndOfOperationCallback(uint32_t ReturnValue)
 446:Drivers/STM32F3xx_HAL_Driver/Src/stm32f3xx_hal_flash.c **** {
 447:Drivers/STM32F3xx_HAL_Driver/Src/stm32f3xx_hal_flash.c ****   /* Prevent unused argument(s) compilation warning */
 448:Drivers/STM32F3xx_HAL_Driver/Src/stm32f3xx_hal_flash.c ****   UNUSED(ReturnValue);
 449:Drivers/STM32F3xx_HAL_Driver/Src/stm32f3xx_hal_flash.c **** 
 450:Drivers/STM32F3xx_HAL_Driver/Src/stm32f3xx_hal_flash.c ****   /* NOTE : This function Should not be modified, when the callback is needed,
 451:Drivers/STM32F3xx_HAL_Driver/Src/stm32f3xx_hal_flash.c ****             the HAL_FLASH_EndOfOperationCallback could be implemented in the user file
 452:Drivers/STM32F3xx_HAL_Driver/Src/stm32f3xx_hal_flash.c ****    */ 
 453:Drivers/STM32F3xx_HAL_Driver/Src/stm32f3xx_hal_flash.c **** }
 454:Drivers/STM32F3xx_HAL_Driver/Src/stm32f3xx_hal_flash.c **** 
 455:Drivers/STM32F3xx_HAL_Driver/Src/stm32f3xx_hal_flash.c **** /**
 456:Drivers/STM32F3xx_HAL_Driver/Src/stm32f3xx_hal_flash.c ****   * @brief  FLASH operation error interrupt callback
 457:Drivers/STM32F3xx_HAL_Driver/Src/stm32f3xx_hal_flash.c ****   * @param  ReturnValue The value saved in this parameter depends on the ongoing procedure
 458:Drivers/STM32F3xx_HAL_Driver/Src/stm32f3xx_hal_flash.c ****   *                 - Mass Erase: No return value expected
 459:Drivers/STM32F3xx_HAL_Driver/Src/stm32f3xx_hal_flash.c ****   *                 - Pages Erase: Address of the page which returned an error
 460:Drivers/STM32F3xx_HAL_Driver/Src/stm32f3xx_hal_flash.c ****   *                 - Program: Address which was selected for data program
 461:Drivers/STM32F3xx_HAL_Driver/Src/stm32f3xx_hal_flash.c ****   * @retval none
 462:Drivers/STM32F3xx_HAL_Driver/Src/stm32f3xx_hal_flash.c ****   */
 463:Drivers/STM32F3xx_HAL_Driver/Src/stm32f3xx_hal_flash.c **** __weak void HAL_FLASH_OperationErrorCallback(uint32_t ReturnValue)
 464:Drivers/STM32F3xx_HAL_Driver/Src/stm32f3xx_hal_flash.c **** {
 465:Drivers/STM32F3xx_HAL_Driver/Src/stm32f3xx_hal_flash.c ****   /* Prevent unused argument(s) compilation warning */
 466:Drivers/STM32F3xx_HAL_Driver/Src/stm32f3xx_hal_flash.c ****   UNUSED(ReturnValue);
 467:Drivers/STM32F3xx_HAL_Driver/Src/stm32f3xx_hal_flash.c **** 
 468:Drivers/STM32F3xx_HAL_Driver/Src/stm32f3xx_hal_flash.c ****   /* NOTE : This function Should not be modified, when the callback is needed,
 469:Drivers/STM32F3xx_HAL_Driver/Src/stm32f3xx_hal_flash.c ****             the HAL_FLASH_OperationErrorCallback could be implemented in the user file
 470:Drivers/STM32F3xx_HAL_Driver/Src/stm32f3xx_hal_flash.c ****    */ 
 471:Drivers/STM32F3xx_HAL_Driver/Src/stm32f3xx_hal_flash.c **** }
 472:Drivers/STM32F3xx_HAL_Driver/Src/stm32f3xx_hal_flash.c **** 
 473:Drivers/STM32F3xx_HAL_Driver/Src/stm32f3xx_hal_flash.c **** /**
 474:Drivers/STM32F3xx_HAL_Driver/Src/stm32f3xx_hal_flash.c ****   * @}
 475:Drivers/STM32F3xx_HAL_Driver/Src/stm32f3xx_hal_flash.c ****   */
 476:Drivers/STM32F3xx_HAL_Driver/Src/stm32f3xx_hal_flash.c **** 
 477:Drivers/STM32F3xx_HAL_Driver/Src/stm32f3xx_hal_flash.c **** /** @defgroup FLASH_Exported_Functions_Group2 Peripheral Control functions 
 478:Drivers/STM32F3xx_HAL_Driver/Src/stm32f3xx_hal_flash.c ****  *  @brief   management functions 
 479:Drivers/STM32F3xx_HAL_Driver/Src/stm32f3xx_hal_flash.c ****  *
 480:Drivers/STM32F3xx_HAL_Driver/Src/stm32f3xx_hal_flash.c **** @verbatim   
 481:Drivers/STM32F3xx_HAL_Driver/Src/stm32f3xx_hal_flash.c ****  ===============================================================================
 482:Drivers/STM32F3xx_HAL_Driver/Src/stm32f3xx_hal_flash.c ****                       ##### Peripheral Control functions #####
 483:Drivers/STM32F3xx_HAL_Driver/Src/stm32f3xx_hal_flash.c ****  ===============================================================================  
 484:Drivers/STM32F3xx_HAL_Driver/Src/stm32f3xx_hal_flash.c ****     [..]
 485:Drivers/STM32F3xx_HAL_Driver/Src/stm32f3xx_hal_flash.c ****     This subsection provides a set of functions allowing to control the FLASH 
 486:Drivers/STM32F3xx_HAL_Driver/Src/stm32f3xx_hal_flash.c ****     memory operations.
ARM GAS  /var/folders/md/lgcc8l7571l9vt9sx0g0zflw0000gn/T//cchpce5v.s 			page 10


 487:Drivers/STM32F3xx_HAL_Driver/Src/stm32f3xx_hal_flash.c **** 
 488:Drivers/STM32F3xx_HAL_Driver/Src/stm32f3xx_hal_flash.c **** @endverbatim
 489:Drivers/STM32F3xx_HAL_Driver/Src/stm32f3xx_hal_flash.c ****   * @{
 490:Drivers/STM32F3xx_HAL_Driver/Src/stm32f3xx_hal_flash.c ****   */
 491:Drivers/STM32F3xx_HAL_Driver/Src/stm32f3xx_hal_flash.c **** 
 492:Drivers/STM32F3xx_HAL_Driver/Src/stm32f3xx_hal_flash.c **** /**
 493:Drivers/STM32F3xx_HAL_Driver/Src/stm32f3xx_hal_flash.c ****   * @brief  Unlock the FLASH control register access
 494:Drivers/STM32F3xx_HAL_Driver/Src/stm32f3xx_hal_flash.c ****   * @retval HAL Status
 495:Drivers/STM32F3xx_HAL_Driver/Src/stm32f3xx_hal_flash.c ****   */
 496:Drivers/STM32F3xx_HAL_Driver/Src/stm32f3xx_hal_flash.c **** HAL_StatusTypeDef HAL_FLASH_Unlock(void)
 497:Drivers/STM32F3xx_HAL_Driver/Src/stm32f3xx_hal_flash.c **** {
 498:Drivers/STM32F3xx_HAL_Driver/Src/stm32f3xx_hal_flash.c ****   HAL_StatusTypeDef status = HAL_OK;
 499:Drivers/STM32F3xx_HAL_Driver/Src/stm32f3xx_hal_flash.c **** 
 500:Drivers/STM32F3xx_HAL_Driver/Src/stm32f3xx_hal_flash.c ****   if(READ_BIT(FLASH->CR, FLASH_CR_LOCK) != RESET)
 501:Drivers/STM32F3xx_HAL_Driver/Src/stm32f3xx_hal_flash.c ****   {
 502:Drivers/STM32F3xx_HAL_Driver/Src/stm32f3xx_hal_flash.c ****     /* Authorize the FLASH Registers access */
 503:Drivers/STM32F3xx_HAL_Driver/Src/stm32f3xx_hal_flash.c ****     WRITE_REG(FLASH->KEYR, FLASH_KEY1);
 504:Drivers/STM32F3xx_HAL_Driver/Src/stm32f3xx_hal_flash.c ****     WRITE_REG(FLASH->KEYR, FLASH_KEY2);
 505:Drivers/STM32F3xx_HAL_Driver/Src/stm32f3xx_hal_flash.c **** 
 506:Drivers/STM32F3xx_HAL_Driver/Src/stm32f3xx_hal_flash.c ****     /* Verify Flash is unlocked */
 507:Drivers/STM32F3xx_HAL_Driver/Src/stm32f3xx_hal_flash.c ****     if(READ_BIT(FLASH->CR, FLASH_CR_LOCK) != RESET)
 508:Drivers/STM32F3xx_HAL_Driver/Src/stm32f3xx_hal_flash.c ****     {
 509:Drivers/STM32F3xx_HAL_Driver/Src/stm32f3xx_hal_flash.c ****       status = HAL_ERROR;
 510:Drivers/STM32F3xx_HAL_Driver/Src/stm32f3xx_hal_flash.c ****     }
 511:Drivers/STM32F3xx_HAL_Driver/Src/stm32f3xx_hal_flash.c ****   }
 512:Drivers/STM32F3xx_HAL_Driver/Src/stm32f3xx_hal_flash.c **** 
 513:Drivers/STM32F3xx_HAL_Driver/Src/stm32f3xx_hal_flash.c ****   return status;
 514:Drivers/STM32F3xx_HAL_Driver/Src/stm32f3xx_hal_flash.c **** }
 515:Drivers/STM32F3xx_HAL_Driver/Src/stm32f3xx_hal_flash.c **** 
 516:Drivers/STM32F3xx_HAL_Driver/Src/stm32f3xx_hal_flash.c **** /**
 517:Drivers/STM32F3xx_HAL_Driver/Src/stm32f3xx_hal_flash.c ****   * @brief  Locks the FLASH control register access
 518:Drivers/STM32F3xx_HAL_Driver/Src/stm32f3xx_hal_flash.c ****   * @retval HAL Status
 519:Drivers/STM32F3xx_HAL_Driver/Src/stm32f3xx_hal_flash.c ****   */
 520:Drivers/STM32F3xx_HAL_Driver/Src/stm32f3xx_hal_flash.c **** HAL_StatusTypeDef HAL_FLASH_Lock(void)
 521:Drivers/STM32F3xx_HAL_Driver/Src/stm32f3xx_hal_flash.c **** {
 522:Drivers/STM32F3xx_HAL_Driver/Src/stm32f3xx_hal_flash.c ****   /* Set the LOCK Bit to lock the FLASH Registers access */
 523:Drivers/STM32F3xx_HAL_Driver/Src/stm32f3xx_hal_flash.c ****   SET_BIT(FLASH->CR, FLASH_CR_LOCK);
 524:Drivers/STM32F3xx_HAL_Driver/Src/stm32f3xx_hal_flash.c ****   
 525:Drivers/STM32F3xx_HAL_Driver/Src/stm32f3xx_hal_flash.c ****   return HAL_OK;  
 526:Drivers/STM32F3xx_HAL_Driver/Src/stm32f3xx_hal_flash.c **** }
 527:Drivers/STM32F3xx_HAL_Driver/Src/stm32f3xx_hal_flash.c **** 
 528:Drivers/STM32F3xx_HAL_Driver/Src/stm32f3xx_hal_flash.c **** /**
 529:Drivers/STM32F3xx_HAL_Driver/Src/stm32f3xx_hal_flash.c ****   * @brief  Unlock the FLASH Option Control Registers access.
 530:Drivers/STM32F3xx_HAL_Driver/Src/stm32f3xx_hal_flash.c ****   * @retval HAL Status
 531:Drivers/STM32F3xx_HAL_Driver/Src/stm32f3xx_hal_flash.c ****   */
 532:Drivers/STM32F3xx_HAL_Driver/Src/stm32f3xx_hal_flash.c **** HAL_StatusTypeDef HAL_FLASH_OB_Unlock(void)
 533:Drivers/STM32F3xx_HAL_Driver/Src/stm32f3xx_hal_flash.c **** {
 534:Drivers/STM32F3xx_HAL_Driver/Src/stm32f3xx_hal_flash.c ****   if (HAL_IS_BIT_CLR(FLASH->CR, FLASH_CR_OPTWRE))
 535:Drivers/STM32F3xx_HAL_Driver/Src/stm32f3xx_hal_flash.c ****   {
 536:Drivers/STM32F3xx_HAL_Driver/Src/stm32f3xx_hal_flash.c ****     /* Authorizes the Option Byte register programming */
 537:Drivers/STM32F3xx_HAL_Driver/Src/stm32f3xx_hal_flash.c ****     WRITE_REG(FLASH->OPTKEYR, FLASH_OPTKEY1);
 538:Drivers/STM32F3xx_HAL_Driver/Src/stm32f3xx_hal_flash.c ****     WRITE_REG(FLASH->OPTKEYR, FLASH_OPTKEY2);
 539:Drivers/STM32F3xx_HAL_Driver/Src/stm32f3xx_hal_flash.c ****   }
 540:Drivers/STM32F3xx_HAL_Driver/Src/stm32f3xx_hal_flash.c ****   else
 541:Drivers/STM32F3xx_HAL_Driver/Src/stm32f3xx_hal_flash.c ****   {
 542:Drivers/STM32F3xx_HAL_Driver/Src/stm32f3xx_hal_flash.c ****     return HAL_ERROR;
 543:Drivers/STM32F3xx_HAL_Driver/Src/stm32f3xx_hal_flash.c ****   }  
ARM GAS  /var/folders/md/lgcc8l7571l9vt9sx0g0zflw0000gn/T//cchpce5v.s 			page 11


 544:Drivers/STM32F3xx_HAL_Driver/Src/stm32f3xx_hal_flash.c ****   
 545:Drivers/STM32F3xx_HAL_Driver/Src/stm32f3xx_hal_flash.c ****   return HAL_OK;  
 546:Drivers/STM32F3xx_HAL_Driver/Src/stm32f3xx_hal_flash.c **** }
 547:Drivers/STM32F3xx_HAL_Driver/Src/stm32f3xx_hal_flash.c **** 
 548:Drivers/STM32F3xx_HAL_Driver/Src/stm32f3xx_hal_flash.c **** /**
 549:Drivers/STM32F3xx_HAL_Driver/Src/stm32f3xx_hal_flash.c ****   * @brief  Lock the FLASH Option Control Registers access.
 550:Drivers/STM32F3xx_HAL_Driver/Src/stm32f3xx_hal_flash.c ****   * @retval HAL Status 
 551:Drivers/STM32F3xx_HAL_Driver/Src/stm32f3xx_hal_flash.c ****   */
 552:Drivers/STM32F3xx_HAL_Driver/Src/stm32f3xx_hal_flash.c **** HAL_StatusTypeDef HAL_FLASH_OB_Lock(void)
 553:Drivers/STM32F3xx_HAL_Driver/Src/stm32f3xx_hal_flash.c **** {
 554:Drivers/STM32F3xx_HAL_Driver/Src/stm32f3xx_hal_flash.c ****   /* Clear the OPTWRE Bit to lock the FLASH Option Byte Registers access */
 555:Drivers/STM32F3xx_HAL_Driver/Src/stm32f3xx_hal_flash.c ****   CLEAR_BIT(FLASH->CR, FLASH_CR_OPTWRE);
 556:Drivers/STM32F3xx_HAL_Driver/Src/stm32f3xx_hal_flash.c ****   
 557:Drivers/STM32F3xx_HAL_Driver/Src/stm32f3xx_hal_flash.c ****   return HAL_OK;  
 558:Drivers/STM32F3xx_HAL_Driver/Src/stm32f3xx_hal_flash.c **** }
 559:Drivers/STM32F3xx_HAL_Driver/Src/stm32f3xx_hal_flash.c ****   
 560:Drivers/STM32F3xx_HAL_Driver/Src/stm32f3xx_hal_flash.c **** /**
 561:Drivers/STM32F3xx_HAL_Driver/Src/stm32f3xx_hal_flash.c ****   * @brief  Launch the option byte loading.
 562:Drivers/STM32F3xx_HAL_Driver/Src/stm32f3xx_hal_flash.c ****   * @note   This function will reset automatically the MCU.
 563:Drivers/STM32F3xx_HAL_Driver/Src/stm32f3xx_hal_flash.c ****   * @retval HAL Status
 564:Drivers/STM32F3xx_HAL_Driver/Src/stm32f3xx_hal_flash.c ****   */
 565:Drivers/STM32F3xx_HAL_Driver/Src/stm32f3xx_hal_flash.c **** HAL_StatusTypeDef HAL_FLASH_OB_Launch(void)
 566:Drivers/STM32F3xx_HAL_Driver/Src/stm32f3xx_hal_flash.c **** {
 567:Drivers/STM32F3xx_HAL_Driver/Src/stm32f3xx_hal_flash.c ****   /* Set the OBL_Launch bit to launch the option byte loading */
 568:Drivers/STM32F3xx_HAL_Driver/Src/stm32f3xx_hal_flash.c ****   SET_BIT(FLASH->CR, FLASH_CR_OBL_LAUNCH);
 569:Drivers/STM32F3xx_HAL_Driver/Src/stm32f3xx_hal_flash.c ****   
 570:Drivers/STM32F3xx_HAL_Driver/Src/stm32f3xx_hal_flash.c ****   /* Wait for last operation to be completed */
 571:Drivers/STM32F3xx_HAL_Driver/Src/stm32f3xx_hal_flash.c ****   return(FLASH_WaitForLastOperation(FLASH_TIMEOUT_VALUE));
 572:Drivers/STM32F3xx_HAL_Driver/Src/stm32f3xx_hal_flash.c **** }
 573:Drivers/STM32F3xx_HAL_Driver/Src/stm32f3xx_hal_flash.c **** 
 574:Drivers/STM32F3xx_HAL_Driver/Src/stm32f3xx_hal_flash.c **** /**
 575:Drivers/STM32F3xx_HAL_Driver/Src/stm32f3xx_hal_flash.c ****   * @}
 576:Drivers/STM32F3xx_HAL_Driver/Src/stm32f3xx_hal_flash.c ****   */  
 577:Drivers/STM32F3xx_HAL_Driver/Src/stm32f3xx_hal_flash.c **** 
 578:Drivers/STM32F3xx_HAL_Driver/Src/stm32f3xx_hal_flash.c **** /** @defgroup FLASH_Exported_Functions_Group3 Peripheral errors functions 
 579:Drivers/STM32F3xx_HAL_Driver/Src/stm32f3xx_hal_flash.c ****  *  @brief    Peripheral errors functions 
 580:Drivers/STM32F3xx_HAL_Driver/Src/stm32f3xx_hal_flash.c ****  *
 581:Drivers/STM32F3xx_HAL_Driver/Src/stm32f3xx_hal_flash.c **** @verbatim   
 582:Drivers/STM32F3xx_HAL_Driver/Src/stm32f3xx_hal_flash.c ****  ===============================================================================
 583:Drivers/STM32F3xx_HAL_Driver/Src/stm32f3xx_hal_flash.c ****                       ##### Peripheral Errors functions #####
 584:Drivers/STM32F3xx_HAL_Driver/Src/stm32f3xx_hal_flash.c ****  ===============================================================================  
 585:Drivers/STM32F3xx_HAL_Driver/Src/stm32f3xx_hal_flash.c ****     [..]
 586:Drivers/STM32F3xx_HAL_Driver/Src/stm32f3xx_hal_flash.c ****     This subsection permit to get in run-time errors of  the FLASH peripheral.
 587:Drivers/STM32F3xx_HAL_Driver/Src/stm32f3xx_hal_flash.c **** 
 588:Drivers/STM32F3xx_HAL_Driver/Src/stm32f3xx_hal_flash.c **** @endverbatim
 589:Drivers/STM32F3xx_HAL_Driver/Src/stm32f3xx_hal_flash.c ****   * @{
 590:Drivers/STM32F3xx_HAL_Driver/Src/stm32f3xx_hal_flash.c ****   */
 591:Drivers/STM32F3xx_HAL_Driver/Src/stm32f3xx_hal_flash.c **** 
 592:Drivers/STM32F3xx_HAL_Driver/Src/stm32f3xx_hal_flash.c **** /**
 593:Drivers/STM32F3xx_HAL_Driver/Src/stm32f3xx_hal_flash.c ****   * @brief  Get the specific FLASH error flag.
 594:Drivers/STM32F3xx_HAL_Driver/Src/stm32f3xx_hal_flash.c ****   * @retval FLASH_ErrorCode The returned value can be:
 595:Drivers/STM32F3xx_HAL_Driver/Src/stm32f3xx_hal_flash.c ****   *            @ref FLASH_Error_Codes
 596:Drivers/STM32F3xx_HAL_Driver/Src/stm32f3xx_hal_flash.c ****   */
 597:Drivers/STM32F3xx_HAL_Driver/Src/stm32f3xx_hal_flash.c **** uint32_t HAL_FLASH_GetError(void)
 598:Drivers/STM32F3xx_HAL_Driver/Src/stm32f3xx_hal_flash.c **** {
 599:Drivers/STM32F3xx_HAL_Driver/Src/stm32f3xx_hal_flash.c ****    return pFlash.ErrorCode;
 600:Drivers/STM32F3xx_HAL_Driver/Src/stm32f3xx_hal_flash.c **** }
ARM GAS  /var/folders/md/lgcc8l7571l9vt9sx0g0zflw0000gn/T//cchpce5v.s 			page 12


 601:Drivers/STM32F3xx_HAL_Driver/Src/stm32f3xx_hal_flash.c **** 
 602:Drivers/STM32F3xx_HAL_Driver/Src/stm32f3xx_hal_flash.c **** /**
 603:Drivers/STM32F3xx_HAL_Driver/Src/stm32f3xx_hal_flash.c ****   * @}
 604:Drivers/STM32F3xx_HAL_Driver/Src/stm32f3xx_hal_flash.c ****   */
 605:Drivers/STM32F3xx_HAL_Driver/Src/stm32f3xx_hal_flash.c **** 
 606:Drivers/STM32F3xx_HAL_Driver/Src/stm32f3xx_hal_flash.c **** /**
 607:Drivers/STM32F3xx_HAL_Driver/Src/stm32f3xx_hal_flash.c ****   * @}
 608:Drivers/STM32F3xx_HAL_Driver/Src/stm32f3xx_hal_flash.c ****   */
 609:Drivers/STM32F3xx_HAL_Driver/Src/stm32f3xx_hal_flash.c **** 
 610:Drivers/STM32F3xx_HAL_Driver/Src/stm32f3xx_hal_flash.c **** /** @addtogroup FLASH_Private_Functions
 611:Drivers/STM32F3xx_HAL_Driver/Src/stm32f3xx_hal_flash.c ****  * @{
 612:Drivers/STM32F3xx_HAL_Driver/Src/stm32f3xx_hal_flash.c ****  */
 613:Drivers/STM32F3xx_HAL_Driver/Src/stm32f3xx_hal_flash.c **** 
 614:Drivers/STM32F3xx_HAL_Driver/Src/stm32f3xx_hal_flash.c **** /**
 615:Drivers/STM32F3xx_HAL_Driver/Src/stm32f3xx_hal_flash.c ****   * @brief  Program a half-word (16-bit) at a specified address.
 616:Drivers/STM32F3xx_HAL_Driver/Src/stm32f3xx_hal_flash.c ****   * @param  Address specify the address to be programmed.
 617:Drivers/STM32F3xx_HAL_Driver/Src/stm32f3xx_hal_flash.c ****   * @param  Data    specify the data to be programmed.
 618:Drivers/STM32F3xx_HAL_Driver/Src/stm32f3xx_hal_flash.c ****   * @retval None
 619:Drivers/STM32F3xx_HAL_Driver/Src/stm32f3xx_hal_flash.c ****   */
 620:Drivers/STM32F3xx_HAL_Driver/Src/stm32f3xx_hal_flash.c **** static void FLASH_Program_HalfWord(uint32_t Address, uint16_t Data)
 621:Drivers/STM32F3xx_HAL_Driver/Src/stm32f3xx_hal_flash.c **** {
  29              		.loc 1 621 1 view -0
  30              		.cfi_startproc
  31              		@ args = 0, pretend = 0, frame = 0
  32              		@ frame_needed = 0, uses_anonymous_args = 0
  33              		@ link register save eliminated.
 622:Drivers/STM32F3xx_HAL_Driver/Src/stm32f3xx_hal_flash.c ****   /* Clean the error context */
 623:Drivers/STM32F3xx_HAL_Driver/Src/stm32f3xx_hal_flash.c ****   pFlash.ErrorCode = HAL_FLASH_ERROR_NONE;
  34              		.loc 1 623 3 view .LVU1
  35              		.loc 1 623 20 is_stmt 0 view .LVU2
  36 0000 044B     		ldr	r3, .L2
  37 0002 0022     		movs	r2, #0
  38 0004 DA61     		str	r2, [r3, #28]
 624:Drivers/STM32F3xx_HAL_Driver/Src/stm32f3xx_hal_flash.c ****   
 625:Drivers/STM32F3xx_HAL_Driver/Src/stm32f3xx_hal_flash.c ****     /* Proceed to program the new data */
 626:Drivers/STM32F3xx_HAL_Driver/Src/stm32f3xx_hal_flash.c ****     SET_BIT(FLASH->CR, FLASH_CR_PG);
  39              		.loc 1 626 5 is_stmt 1 view .LVU3
  40 0006 044A     		ldr	r2, .L2+4
  41 0008 1369     		ldr	r3, [r2, #16]
  42 000a 43F00103 		orr	r3, r3, #1
  43 000e 1361     		str	r3, [r2, #16]
 627:Drivers/STM32F3xx_HAL_Driver/Src/stm32f3xx_hal_flash.c **** 
 628:Drivers/STM32F3xx_HAL_Driver/Src/stm32f3xx_hal_flash.c ****   /* Write data in the address */
 629:Drivers/STM32F3xx_HAL_Driver/Src/stm32f3xx_hal_flash.c ****   *(__IO uint16_t*)Address = Data;
  44              		.loc 1 629 3 view .LVU4
  45              		.loc 1 629 28 is_stmt 0 view .LVU5
  46 0010 0180     		strh	r1, [r0]	@ movhi
 630:Drivers/STM32F3xx_HAL_Driver/Src/stm32f3xx_hal_flash.c **** }
  47              		.loc 1 630 1 view .LVU6
  48 0012 7047     		bx	lr
  49              	.L3:
  50              		.align	2
  51              	.L2:
  52 0014 00000000 		.word	pFlash
  53 0018 00200240 		.word	1073881088
  54              		.cfi_endproc
  55              	.LFE137:
ARM GAS  /var/folders/md/lgcc8l7571l9vt9sx0g0zflw0000gn/T//cchpce5v.s 			page 13


  57              		.section	.text.FLASH_SetErrorCode,"ax",%progbits
  58              		.align	1
  59              		.syntax unified
  60              		.thumb
  61              		.thumb_func
  62              		.fpu fpv4-sp-d16
  64              	FLASH_SetErrorCode:
  65              	.LFB139:
 631:Drivers/STM32F3xx_HAL_Driver/Src/stm32f3xx_hal_flash.c **** 
 632:Drivers/STM32F3xx_HAL_Driver/Src/stm32f3xx_hal_flash.c **** /**
 633:Drivers/STM32F3xx_HAL_Driver/Src/stm32f3xx_hal_flash.c ****   * @brief  Wait for a FLASH operation to complete.
 634:Drivers/STM32F3xx_HAL_Driver/Src/stm32f3xx_hal_flash.c ****   * @param  Timeout  maximum flash operation timeout
 635:Drivers/STM32F3xx_HAL_Driver/Src/stm32f3xx_hal_flash.c ****   * @retval HAL Status
 636:Drivers/STM32F3xx_HAL_Driver/Src/stm32f3xx_hal_flash.c ****   */
 637:Drivers/STM32F3xx_HAL_Driver/Src/stm32f3xx_hal_flash.c **** HAL_StatusTypeDef FLASH_WaitForLastOperation(uint32_t Timeout)
 638:Drivers/STM32F3xx_HAL_Driver/Src/stm32f3xx_hal_flash.c **** {
 639:Drivers/STM32F3xx_HAL_Driver/Src/stm32f3xx_hal_flash.c ****   /* Wait for the FLASH operation to complete by polling on BUSY flag to be reset.
 640:Drivers/STM32F3xx_HAL_Driver/Src/stm32f3xx_hal_flash.c ****      Even if the FLASH operation fails, the BUSY flag will be reset and an error
 641:Drivers/STM32F3xx_HAL_Driver/Src/stm32f3xx_hal_flash.c ****      flag will be set */
 642:Drivers/STM32F3xx_HAL_Driver/Src/stm32f3xx_hal_flash.c ****      
 643:Drivers/STM32F3xx_HAL_Driver/Src/stm32f3xx_hal_flash.c ****   uint32_t tickstart = HAL_GetTick();
 644:Drivers/STM32F3xx_HAL_Driver/Src/stm32f3xx_hal_flash.c ****      
 645:Drivers/STM32F3xx_HAL_Driver/Src/stm32f3xx_hal_flash.c ****   while(__HAL_FLASH_GET_FLAG(FLASH_FLAG_BSY)) 
 646:Drivers/STM32F3xx_HAL_Driver/Src/stm32f3xx_hal_flash.c ****   { 
 647:Drivers/STM32F3xx_HAL_Driver/Src/stm32f3xx_hal_flash.c ****     if (Timeout != HAL_MAX_DELAY)
 648:Drivers/STM32F3xx_HAL_Driver/Src/stm32f3xx_hal_flash.c ****     {
 649:Drivers/STM32F3xx_HAL_Driver/Src/stm32f3xx_hal_flash.c ****       if((Timeout == 0U) || ((HAL_GetTick()-tickstart) > Timeout))
 650:Drivers/STM32F3xx_HAL_Driver/Src/stm32f3xx_hal_flash.c ****       {
 651:Drivers/STM32F3xx_HAL_Driver/Src/stm32f3xx_hal_flash.c ****         return HAL_TIMEOUT;
 652:Drivers/STM32F3xx_HAL_Driver/Src/stm32f3xx_hal_flash.c ****       }
 653:Drivers/STM32F3xx_HAL_Driver/Src/stm32f3xx_hal_flash.c ****     }
 654:Drivers/STM32F3xx_HAL_Driver/Src/stm32f3xx_hal_flash.c ****   }
 655:Drivers/STM32F3xx_HAL_Driver/Src/stm32f3xx_hal_flash.c ****   
 656:Drivers/STM32F3xx_HAL_Driver/Src/stm32f3xx_hal_flash.c ****   /* Check FLASH End of Operation flag  */
 657:Drivers/STM32F3xx_HAL_Driver/Src/stm32f3xx_hal_flash.c ****   if (__HAL_FLASH_GET_FLAG(FLASH_FLAG_EOP))
 658:Drivers/STM32F3xx_HAL_Driver/Src/stm32f3xx_hal_flash.c ****   {
 659:Drivers/STM32F3xx_HAL_Driver/Src/stm32f3xx_hal_flash.c ****     /* Clear FLASH End of Operation pending bit */
 660:Drivers/STM32F3xx_HAL_Driver/Src/stm32f3xx_hal_flash.c ****     __HAL_FLASH_CLEAR_FLAG(FLASH_FLAG_EOP);
 661:Drivers/STM32F3xx_HAL_Driver/Src/stm32f3xx_hal_flash.c ****   }
 662:Drivers/STM32F3xx_HAL_Driver/Src/stm32f3xx_hal_flash.c ****   
 663:Drivers/STM32F3xx_HAL_Driver/Src/stm32f3xx_hal_flash.c ****   if(__HAL_FLASH_GET_FLAG(FLASH_FLAG_WRPERR)  || 
 664:Drivers/STM32F3xx_HAL_Driver/Src/stm32f3xx_hal_flash.c ****      __HAL_FLASH_GET_FLAG(FLASH_FLAG_PGERR))
 665:Drivers/STM32F3xx_HAL_Driver/Src/stm32f3xx_hal_flash.c ****   {
 666:Drivers/STM32F3xx_HAL_Driver/Src/stm32f3xx_hal_flash.c ****     /*Save the error code*/
 667:Drivers/STM32F3xx_HAL_Driver/Src/stm32f3xx_hal_flash.c ****     FLASH_SetErrorCode();
 668:Drivers/STM32F3xx_HAL_Driver/Src/stm32f3xx_hal_flash.c ****     return HAL_ERROR;
 669:Drivers/STM32F3xx_HAL_Driver/Src/stm32f3xx_hal_flash.c ****   }
 670:Drivers/STM32F3xx_HAL_Driver/Src/stm32f3xx_hal_flash.c **** 
 671:Drivers/STM32F3xx_HAL_Driver/Src/stm32f3xx_hal_flash.c ****   /* There is no error flag set */
 672:Drivers/STM32F3xx_HAL_Driver/Src/stm32f3xx_hal_flash.c ****   return HAL_OK;
 673:Drivers/STM32F3xx_HAL_Driver/Src/stm32f3xx_hal_flash.c **** }
 674:Drivers/STM32F3xx_HAL_Driver/Src/stm32f3xx_hal_flash.c **** 
 675:Drivers/STM32F3xx_HAL_Driver/Src/stm32f3xx_hal_flash.c **** 
 676:Drivers/STM32F3xx_HAL_Driver/Src/stm32f3xx_hal_flash.c **** /**
 677:Drivers/STM32F3xx_HAL_Driver/Src/stm32f3xx_hal_flash.c ****   * @brief  Set the specific FLASH error flag.
 678:Drivers/STM32F3xx_HAL_Driver/Src/stm32f3xx_hal_flash.c ****   * @retval None
 679:Drivers/STM32F3xx_HAL_Driver/Src/stm32f3xx_hal_flash.c ****   */
ARM GAS  /var/folders/md/lgcc8l7571l9vt9sx0g0zflw0000gn/T//cchpce5v.s 			page 14


 680:Drivers/STM32F3xx_HAL_Driver/Src/stm32f3xx_hal_flash.c **** static void FLASH_SetErrorCode(void)
 681:Drivers/STM32F3xx_HAL_Driver/Src/stm32f3xx_hal_flash.c **** {
  66              		.loc 1 681 1 is_stmt 1 view -0
  67              		.cfi_startproc
  68              		@ args = 0, pretend = 0, frame = 0
  69              		@ frame_needed = 0, uses_anonymous_args = 0
  70              		@ link register save eliminated.
 682:Drivers/STM32F3xx_HAL_Driver/Src/stm32f3xx_hal_flash.c ****   uint32_t flags = 0U;
  71              		.loc 1 682 3 view .LVU8
  72              	.LVL1:
 683:Drivers/STM32F3xx_HAL_Driver/Src/stm32f3xx_hal_flash.c ****   
 684:Drivers/STM32F3xx_HAL_Driver/Src/stm32f3xx_hal_flash.c ****   if(__HAL_FLASH_GET_FLAG(FLASH_FLAG_WRPERR))
  73              		.loc 1 684 3 view .LVU9
  74              		.loc 1 684 6 is_stmt 0 view .LVU10
  75 0000 0C4B     		ldr	r3, .L7
  76 0002 DB68     		ldr	r3, [r3, #12]
  77              		.loc 1 684 5 view .LVU11
  78 0004 13F01003 		ands	r3, r3, #16
  79 0008 05D0     		beq	.L5
 685:Drivers/STM32F3xx_HAL_Driver/Src/stm32f3xx_hal_flash.c ****   {
 686:Drivers/STM32F3xx_HAL_Driver/Src/stm32f3xx_hal_flash.c ****     pFlash.ErrorCode |= HAL_FLASH_ERROR_WRP;
  80              		.loc 1 686 5 is_stmt 1 view .LVU12
  81              		.loc 1 686 22 is_stmt 0 view .LVU13
  82 000a 0B4A     		ldr	r2, .L7+4
  83 000c D369     		ldr	r3, [r2, #28]
  84 000e 43F00203 		orr	r3, r3, #2
  85 0012 D361     		str	r3, [r2, #28]
 687:Drivers/STM32F3xx_HAL_Driver/Src/stm32f3xx_hal_flash.c ****     flags |= FLASH_FLAG_WRPERR;
  86              		.loc 1 687 5 is_stmt 1 view .LVU14
  87              	.LVL2:
  88              		.loc 1 687 11 is_stmt 0 view .LVU15
  89 0014 1023     		movs	r3, #16
  90              	.LVL3:
  91              	.L5:
 688:Drivers/STM32F3xx_HAL_Driver/Src/stm32f3xx_hal_flash.c ****   }
 689:Drivers/STM32F3xx_HAL_Driver/Src/stm32f3xx_hal_flash.c ****   if(__HAL_FLASH_GET_FLAG(FLASH_FLAG_PGERR))
  92              		.loc 1 689 3 is_stmt 1 view .LVU16
  93              		.loc 1 689 6 is_stmt 0 view .LVU17
  94 0016 074A     		ldr	r2, .L7
  95 0018 D268     		ldr	r2, [r2, #12]
  96              		.loc 1 689 5 view .LVU18
  97 001a 12F0040F 		tst	r2, #4
  98 001e 06D0     		beq	.L6
 690:Drivers/STM32F3xx_HAL_Driver/Src/stm32f3xx_hal_flash.c ****   {
 691:Drivers/STM32F3xx_HAL_Driver/Src/stm32f3xx_hal_flash.c ****     pFlash.ErrorCode |= HAL_FLASH_ERROR_PROG;
  99              		.loc 1 691 5 is_stmt 1 view .LVU19
 100              		.loc 1 691 22 is_stmt 0 view .LVU20
 101 0020 0549     		ldr	r1, .L7+4
 102 0022 CA69     		ldr	r2, [r1, #28]
 103 0024 42F00102 		orr	r2, r2, #1
 104 0028 CA61     		str	r2, [r1, #28]
 692:Drivers/STM32F3xx_HAL_Driver/Src/stm32f3xx_hal_flash.c ****     flags |= FLASH_FLAG_PGERR;
 105              		.loc 1 692 5 is_stmt 1 view .LVU21
 106              		.loc 1 692 11 is_stmt 0 view .LVU22
 107 002a 43F00403 		orr	r3, r3, #4
 108              	.LVL4:
 109              	.L6:
ARM GAS  /var/folders/md/lgcc8l7571l9vt9sx0g0zflw0000gn/T//cchpce5v.s 			page 15


 693:Drivers/STM32F3xx_HAL_Driver/Src/stm32f3xx_hal_flash.c ****   }
 694:Drivers/STM32F3xx_HAL_Driver/Src/stm32f3xx_hal_flash.c ****   /* Clear FLASH error pending bits */
 695:Drivers/STM32F3xx_HAL_Driver/Src/stm32f3xx_hal_flash.c ****   __HAL_FLASH_CLEAR_FLAG(flags);
 110              		.loc 1 695 3 is_stmt 1 view .LVU23
 111 002e 014A     		ldr	r2, .L7
 112 0030 D360     		str	r3, [r2, #12]
 696:Drivers/STM32F3xx_HAL_Driver/Src/stm32f3xx_hal_flash.c **** }  
 113              		.loc 1 696 1 is_stmt 0 view .LVU24
 114 0032 7047     		bx	lr
 115              	.L8:
 116              		.align	2
 117              	.L7:
 118 0034 00200240 		.word	1073881088
 119 0038 00000000 		.word	pFlash
 120              		.cfi_endproc
 121              	.LFE139:
 123              		.section	.text.HAL_FLASH_Program_IT,"ax",%progbits
 124              		.align	1
 125              		.global	HAL_FLASH_Program_IT
 126              		.syntax unified
 127              		.thumb
 128              		.thumb_func
 129              		.fpu fpv4-sp-d16
 131              	HAL_FLASH_Program_IT:
 132              	.LVL5:
 133              	.LFB127:
 257:Drivers/STM32F3xx_HAL_Driver/Src/stm32f3xx_hal_flash.c ****   HAL_StatusTypeDef status = HAL_OK;
 134              		.loc 1 257 1 is_stmt 1 view -0
 135              		.cfi_startproc
 136              		@ args = 0, pretend = 0, frame = 0
 137              		@ frame_needed = 0, uses_anonymous_args = 0
 257:Drivers/STM32F3xx_HAL_Driver/Src/stm32f3xx_hal_flash.c ****   HAL_StatusTypeDef status = HAL_OK;
 138              		.loc 1 257 1 is_stmt 0 view .LVU26
 139 0000 70B5     		push	{r4, r5, r6, lr}
 140              	.LCFI0:
 141              		.cfi_def_cfa_offset 16
 142              		.cfi_offset 4, -16
 143              		.cfi_offset 5, -12
 144              		.cfi_offset 6, -8
 145              		.cfi_offset 14, -4
 258:Drivers/STM32F3xx_HAL_Driver/Src/stm32f3xx_hal_flash.c ****   
 146              		.loc 1 258 3 is_stmt 1 view .LVU27
 147              	.LVL6:
 261:Drivers/STM32F3xx_HAL_Driver/Src/stm32f3xx_hal_flash.c **** 
 148              		.loc 1 261 3 view .LVU28
 261:Drivers/STM32F3xx_HAL_Driver/Src/stm32f3xx_hal_flash.c **** 
 149              		.loc 1 261 3 view .LVU29
 150 0002 164C     		ldr	r4, .L18
 151 0004 247E     		ldrb	r4, [r4, #24]	@ zero_extendqisi2
 152 0006 012C     		cmp	r4, #1
 153 0008 25D0     		beq	.L14
 261:Drivers/STM32F3xx_HAL_Driver/Src/stm32f3xx_hal_flash.c **** 
 154              		.loc 1 261 3 discriminator 2 view .LVU30
 155 000a 144C     		ldr	r4, .L18
 156 000c 0125     		movs	r5, #1
 157 000e 2576     		strb	r5, [r4, #24]
 264:Drivers/STM32F3xx_HAL_Driver/Src/stm32f3xx_hal_flash.c ****   assert_param(IS_FLASH_PROGRAM_ADDRESS(Address));
ARM GAS  /var/folders/md/lgcc8l7571l9vt9sx0g0zflw0000gn/T//cchpce5v.s 			page 16


 158              		.loc 1 264 3 discriminator 2 view .LVU31
 265:Drivers/STM32F3xx_HAL_Driver/Src/stm32f3xx_hal_flash.c **** 
 159              		.loc 1 265 3 discriminator 2 view .LVU32
 268:Drivers/STM32F3xx_HAL_Driver/Src/stm32f3xx_hal_flash.c ****   
 160              		.loc 1 268 3 discriminator 2 view .LVU33
 161 0010 134E     		ldr	r6, .L18+4
 162 0012 3569     		ldr	r5, [r6, #16]
 163 0014 45F4A055 		orr	r5, r5, #5120
 164 0018 3561     		str	r5, [r6, #16]
 270:Drivers/STM32F3xx_HAL_Driver/Src/stm32f3xx_hal_flash.c ****   pFlash.Data = Data;
 165              		.loc 1 270 3 discriminator 2 view .LVU34
 270:Drivers/STM32F3xx_HAL_Driver/Src/stm32f3xx_hal_flash.c ****   pFlash.Data = Data;
 166              		.loc 1 270 18 is_stmt 0 discriminator 2 view .LVU35
 167 001a A160     		str	r1, [r4, #8]
 271:Drivers/STM32F3xx_HAL_Driver/Src/stm32f3xx_hal_flash.c **** 
 168              		.loc 1 271 3 is_stmt 1 discriminator 2 view .LVU36
 271:Drivers/STM32F3xx_HAL_Driver/Src/stm32f3xx_hal_flash.c **** 
 169              		.loc 1 271 15 is_stmt 0 discriminator 2 view .LVU37
 170 001c C4E90423 		strd	r2, [r4, #16]
 273:Drivers/STM32F3xx_HAL_Driver/Src/stm32f3xx_hal_flash.c ****   {
 171              		.loc 1 273 3 is_stmt 1 discriminator 2 view .LVU38
 273:Drivers/STM32F3xx_HAL_Driver/Src/stm32f3xx_hal_flash.c ****   {
 172              		.loc 1 273 5 is_stmt 0 discriminator 2 view .LVU39
 173 0020 0128     		cmp	r0, #1
 174 0022 0CD0     		beq	.L16
 279:Drivers/STM32F3xx_HAL_Driver/Src/stm32f3xx_hal_flash.c ****   {
 175              		.loc 1 279 8 is_stmt 1 view .LVU40
 279:Drivers/STM32F3xx_HAL_Driver/Src/stm32f3xx_hal_flash.c ****   {
 176              		.loc 1 279 10 is_stmt 0 view .LVU41
 177 0024 0228     		cmp	r0, #2
 178 0026 10D0     		beq	.L17
 287:Drivers/STM32F3xx_HAL_Driver/Src/stm32f3xx_hal_flash.c ****     /* Program double word (64-bit : 4*16-bit) at a specified address. */
 179              		.loc 1 287 5 is_stmt 1 view .LVU42
 287:Drivers/STM32F3xx_HAL_Driver/Src/stm32f3xx_hal_flash.c ****     /* Program double word (64-bit : 4*16-bit) at a specified address. */
 180              		.loc 1 287 29 is_stmt 0 view .LVU43
 181 0028 0C48     		ldr	r0, .L18
 182              	.LVL7:
 287:Drivers/STM32F3xx_HAL_Driver/Src/stm32f3xx_hal_flash.c ****     /* Program double word (64-bit : 4*16-bit) at a specified address. */
 183              		.loc 1 287 29 view .LVU44
 184 002a 0524     		movs	r4, #5
 185 002c 0470     		strb	r4, [r0]
 289:Drivers/STM32F3xx_HAL_Driver/Src/stm32f3xx_hal_flash.c ****   }
 186              		.loc 1 289 5 is_stmt 1 view .LVU45
 289:Drivers/STM32F3xx_HAL_Driver/Src/stm32f3xx_hal_flash.c ****   }
 187              		.loc 1 289 26 is_stmt 0 view .LVU46
 188 002e 0424     		movs	r4, #4
 189 0030 4460     		str	r4, [r0, #4]
 190              	.L12:
 191 0032 0846     		mov	r0, r1
 293:Drivers/STM32F3xx_HAL_Driver/Src/stm32f3xx_hal_flash.c **** 
 192              		.loc 1 293 3 is_stmt 1 view .LVU47
 193 0034 91B2     		uxth	r1, r2
 194              	.LVL8:
 293:Drivers/STM32F3xx_HAL_Driver/Src/stm32f3xx_hal_flash.c **** 
 195              		.loc 1 293 3 is_stmt 0 view .LVU48
 196 0036 FFF7FEFF 		bl	FLASH_Program_HalfWord
 197              	.LVL9:
ARM GAS  /var/folders/md/lgcc8l7571l9vt9sx0g0zflw0000gn/T//cchpce5v.s 			page 17


 295:Drivers/STM32F3xx_HAL_Driver/Src/stm32f3xx_hal_flash.c **** }
 198              		.loc 1 295 3 is_stmt 1 view .LVU49
 295:Drivers/STM32F3xx_HAL_Driver/Src/stm32f3xx_hal_flash.c **** }
 199              		.loc 1 295 10 is_stmt 0 view .LVU50
 200 003a 0020     		movs	r0, #0
 201              	.L10:
 296:Drivers/STM32F3xx_HAL_Driver/Src/stm32f3xx_hal_flash.c **** 
 202              		.loc 1 296 1 view .LVU51
 203 003c 70BD     		pop	{r4, r5, r6, pc}
 204              	.LVL10:
 205              	.L16:
 275:Drivers/STM32F3xx_HAL_Driver/Src/stm32f3xx_hal_flash.c ****     /* Program halfword (16-bit) at a specified address. */
 206              		.loc 1 275 5 is_stmt 1 view .LVU52
 275:Drivers/STM32F3xx_HAL_Driver/Src/stm32f3xx_hal_flash.c ****     /* Program halfword (16-bit) at a specified address. */
 207              		.loc 1 275 29 is_stmt 0 view .LVU53
 208 003e 2046     		mov	r0, r4
 209              	.LVL11:
 275:Drivers/STM32F3xx_HAL_Driver/Src/stm32f3xx_hal_flash.c ****     /* Program halfword (16-bit) at a specified address. */
 210              		.loc 1 275 29 view .LVU54
 211 0040 0324     		movs	r4, #3
 212 0042 0470     		strb	r4, [r0]
 277:Drivers/STM32F3xx_HAL_Driver/Src/stm32f3xx_hal_flash.c ****   }
 213              		.loc 1 277 5 is_stmt 1 view .LVU55
 277:Drivers/STM32F3xx_HAL_Driver/Src/stm32f3xx_hal_flash.c ****   }
 214              		.loc 1 277 26 is_stmt 0 view .LVU56
 215 0044 0124     		movs	r4, #1
 216 0046 4460     		str	r4, [r0, #4]
 217 0048 F3E7     		b	.L12
 218              	.LVL12:
 219              	.L17:
 281:Drivers/STM32F3xx_HAL_Driver/Src/stm32f3xx_hal_flash.c ****     /* Program word (32-bit : 2*16-bit) at a specified address. */
 220              		.loc 1 281 5 is_stmt 1 view .LVU57
 281:Drivers/STM32F3xx_HAL_Driver/Src/stm32f3xx_hal_flash.c ****     /* Program word (32-bit : 2*16-bit) at a specified address. */
 221              		.loc 1 281 29 is_stmt 0 view .LVU58
 222 004a 0448     		ldr	r0, .L18
 223              	.LVL13:
 281:Drivers/STM32F3xx_HAL_Driver/Src/stm32f3xx_hal_flash.c ****     /* Program word (32-bit : 2*16-bit) at a specified address. */
 224              		.loc 1 281 29 view .LVU59
 225 004c 0424     		movs	r4, #4
 226 004e 0470     		strb	r4, [r0]
 283:Drivers/STM32F3xx_HAL_Driver/Src/stm32f3xx_hal_flash.c ****   }
 227              		.loc 1 283 5 is_stmt 1 view .LVU60
 283:Drivers/STM32F3xx_HAL_Driver/Src/stm32f3xx_hal_flash.c ****   }
 228              		.loc 1 283 26 is_stmt 0 view .LVU61
 229 0050 0224     		movs	r4, #2
 230 0052 4460     		str	r4, [r0, #4]
 231 0054 EDE7     		b	.L12
 232              	.LVL14:
 233              	.L14:
 261:Drivers/STM32F3xx_HAL_Driver/Src/stm32f3xx_hal_flash.c **** 
 234              		.loc 1 261 3 view .LVU62
 235 0056 0220     		movs	r0, #2
 236              	.LVL15:
 261:Drivers/STM32F3xx_HAL_Driver/Src/stm32f3xx_hal_flash.c **** 
 237              		.loc 1 261 3 view .LVU63
 238 0058 F0E7     		b	.L10
 239              	.L19:
ARM GAS  /var/folders/md/lgcc8l7571l9vt9sx0g0zflw0000gn/T//cchpce5v.s 			page 18


 240 005a 00BF     		.align	2
 241              	.L18:
 242 005c 00000000 		.word	pFlash
 243 0060 00200240 		.word	1073881088
 244              		.cfi_endproc
 245              	.LFE127:
 247              		.section	.text.HAL_FLASH_EndOfOperationCallback,"ax",%progbits
 248              		.align	1
 249              		.weak	HAL_FLASH_EndOfOperationCallback
 250              		.syntax unified
 251              		.thumb
 252              		.thumb_func
 253              		.fpu fpv4-sp-d16
 255              	HAL_FLASH_EndOfOperationCallback:
 256              	.LVL16:
 257              	.LFB129:
 446:Drivers/STM32F3xx_HAL_Driver/Src/stm32f3xx_hal_flash.c ****   /* Prevent unused argument(s) compilation warning */
 258              		.loc 1 446 1 is_stmt 1 view -0
 259              		.cfi_startproc
 260              		@ args = 0, pretend = 0, frame = 0
 261              		@ frame_needed = 0, uses_anonymous_args = 0
 262              		@ link register save eliminated.
 448:Drivers/STM32F3xx_HAL_Driver/Src/stm32f3xx_hal_flash.c **** 
 263              		.loc 1 448 3 view .LVU65
 453:Drivers/STM32F3xx_HAL_Driver/Src/stm32f3xx_hal_flash.c **** 
 264              		.loc 1 453 1 is_stmt 0 view .LVU66
 265 0000 7047     		bx	lr
 266              		.cfi_endproc
 267              	.LFE129:
 269              		.section	.text.HAL_FLASH_OperationErrorCallback,"ax",%progbits
 270              		.align	1
 271              		.weak	HAL_FLASH_OperationErrorCallback
 272              		.syntax unified
 273              		.thumb
 274              		.thumb_func
 275              		.fpu fpv4-sp-d16
 277              	HAL_FLASH_OperationErrorCallback:
 278              	.LVL17:
 279              	.LFB130:
 464:Drivers/STM32F3xx_HAL_Driver/Src/stm32f3xx_hal_flash.c ****   /* Prevent unused argument(s) compilation warning */
 280              		.loc 1 464 1 is_stmt 1 view -0
 281              		.cfi_startproc
 282              		@ args = 0, pretend = 0, frame = 0
 283              		@ frame_needed = 0, uses_anonymous_args = 0
 284              		@ link register save eliminated.
 466:Drivers/STM32F3xx_HAL_Driver/Src/stm32f3xx_hal_flash.c **** 
 285              		.loc 1 466 3 view .LVU68
 471:Drivers/STM32F3xx_HAL_Driver/Src/stm32f3xx_hal_flash.c **** 
 286              		.loc 1 471 1 is_stmt 0 view .LVU69
 287 0000 7047     		bx	lr
 288              		.cfi_endproc
 289              	.LFE130:
 291              		.section	.text.HAL_FLASH_IRQHandler,"ax",%progbits
 292              		.align	1
 293              		.global	HAL_FLASH_IRQHandler
 294              		.syntax unified
 295              		.thumb
ARM GAS  /var/folders/md/lgcc8l7571l9vt9sx0g0zflw0000gn/T//cchpce5v.s 			page 19


 296              		.thumb_func
 297              		.fpu fpv4-sp-d16
 299              	HAL_FLASH_IRQHandler:
 300              	.LFB128:
 303:Drivers/STM32F3xx_HAL_Driver/Src/stm32f3xx_hal_flash.c ****   uint32_t addresstmp = 0U;
 301              		.loc 1 303 1 is_stmt 1 view -0
 302              		.cfi_startproc
 303              		@ args = 0, pretend = 0, frame = 0
 304              		@ frame_needed = 0, uses_anonymous_args = 0
 305 0000 F8B5     		push	{r3, r4, r5, r6, r7, lr}
 306              	.LCFI1:
 307              		.cfi_def_cfa_offset 24
 308              		.cfi_offset 3, -24
 309              		.cfi_offset 4, -20
 310              		.cfi_offset 5, -16
 311              		.cfi_offset 6, -12
 312              		.cfi_offset 7, -8
 313              		.cfi_offset 14, -4
 304:Drivers/STM32F3xx_HAL_Driver/Src/stm32f3xx_hal_flash.c ****   
 314              		.loc 1 304 3 view .LVU71
 315              	.LVL18:
 307:Drivers/STM32F3xx_HAL_Driver/Src/stm32f3xx_hal_flash.c ****   {
 316              		.loc 1 307 3 view .LVU72
 307:Drivers/STM32F3xx_HAL_Driver/Src/stm32f3xx_hal_flash.c ****   {
 317              		.loc 1 307 6 is_stmt 0 view .LVU73
 318 0002 524B     		ldr	r3, .L40
 319 0004 DB68     		ldr	r3, [r3, #12]
 307:Drivers/STM32F3xx_HAL_Driver/Src/stm32f3xx_hal_flash.c ****   {
 320              		.loc 1 307 5 view .LVU74
 321 0006 13F0100F 		tst	r3, #16
 322 000a 04D1     		bne	.L23
 307:Drivers/STM32F3xx_HAL_Driver/Src/stm32f3xx_hal_flash.c ****   {
 323              		.loc 1 307 48 discriminator 1 view .LVU75
 324 000c 4F4B     		ldr	r3, .L40
 325 000e DB68     		ldr	r3, [r3, #12]
 307:Drivers/STM32F3xx_HAL_Driver/Src/stm32f3xx_hal_flash.c ****   {
 326              		.loc 1 307 46 discriminator 1 view .LVU76
 327 0010 13F0040F 		tst	r3, #4
 328 0014 0BD0     		beq	.L24
 329              	.L23:
 310:Drivers/STM32F3xx_HAL_Driver/Src/stm32f3xx_hal_flash.c ****     /* Reset address */
 330              		.loc 1 310 5 is_stmt 1 view .LVU77
 310:Drivers/STM32F3xx_HAL_Driver/Src/stm32f3xx_hal_flash.c ****     /* Reset address */
 331              		.loc 1 310 16 is_stmt 0 view .LVU78
 332 0016 4E4C     		ldr	r4, .L40+4
 333 0018 A568     		ldr	r5, [r4, #8]
 334              	.LVL19:
 312:Drivers/STM32F3xx_HAL_Driver/Src/stm32f3xx_hal_flash.c ****   
 335              		.loc 1 312 5 is_stmt 1 view .LVU79
 312:Drivers/STM32F3xx_HAL_Driver/Src/stm32f3xx_hal_flash.c ****   
 336              		.loc 1 312 20 is_stmt 0 view .LVU80
 337 001a 4FF0FF33 		mov	r3, #-1
 338 001e A360     		str	r3, [r4, #8]
 315:Drivers/STM32F3xx_HAL_Driver/Src/stm32f3xx_hal_flash.c ****     
 339              		.loc 1 315 5 is_stmt 1 view .LVU81
 340 0020 FFF7FEFF 		bl	FLASH_SetErrorCode
 341              	.LVL20:
ARM GAS  /var/folders/md/lgcc8l7571l9vt9sx0g0zflw0000gn/T//cchpce5v.s 			page 20


 318:Drivers/STM32F3xx_HAL_Driver/Src/stm32f3xx_hal_flash.c **** 
 342              		.loc 1 318 5 view .LVU82
 343 0024 2846     		mov	r0, r5
 344 0026 FFF7FEFF 		bl	HAL_FLASH_OperationErrorCallback
 345              	.LVL21:
 321:Drivers/STM32F3xx_HAL_Driver/Src/stm32f3xx_hal_flash.c ****   }
 346              		.loc 1 321 5 view .LVU83
 321:Drivers/STM32F3xx_HAL_Driver/Src/stm32f3xx_hal_flash.c ****   }
 347              		.loc 1 321 29 is_stmt 0 view .LVU84
 348 002a 0023     		movs	r3, #0
 349 002c 2370     		strb	r3, [r4]
 350              	.LVL22:
 351              	.L24:
 325:Drivers/STM32F3xx_HAL_Driver/Src/stm32f3xx_hal_flash.c ****   {
 352              		.loc 1 325 3 is_stmt 1 view .LVU85
 325:Drivers/STM32F3xx_HAL_Driver/Src/stm32f3xx_hal_flash.c ****   {
 353              		.loc 1 325 6 is_stmt 0 view .LVU86
 354 002e 474B     		ldr	r3, .L40
 355 0030 DB68     		ldr	r3, [r3, #12]
 325:Drivers/STM32F3xx_HAL_Driver/Src/stm32f3xx_hal_flash.c ****   {
 356              		.loc 1 325 5 view .LVU87
 357 0032 13F0200F 		tst	r3, #32
 358 0036 2BD0     		beq	.L25
 328:Drivers/STM32F3xx_HAL_Driver/Src/stm32f3xx_hal_flash.c ****     
 359              		.loc 1 328 5 is_stmt 1 view .LVU88
 360 0038 444B     		ldr	r3, .L40
 361 003a 2022     		movs	r2, #32
 362 003c DA60     		str	r2, [r3, #12]
 331:Drivers/STM32F3xx_HAL_Driver/Src/stm32f3xx_hal_flash.c ****     {
 363              		.loc 1 331 5 view .LVU89
 331:Drivers/STM32F3xx_HAL_Driver/Src/stm32f3xx_hal_flash.c ****     {
 364              		.loc 1 331 14 is_stmt 0 view .LVU90
 365 003e 444B     		ldr	r3, .L40+4
 366 0040 1B78     		ldrb	r3, [r3]	@ zero_extendqisi2
 331:Drivers/STM32F3xx_HAL_Driver/Src/stm32f3xx_hal_flash.c ****     {
 367              		.loc 1 331 7 view .LVU91
 368 0042 2BB3     		cbz	r3, .L25
 333:Drivers/STM32F3xx_HAL_Driver/Src/stm32f3xx_hal_flash.c ****       {
 369              		.loc 1 333 7 is_stmt 1 view .LVU92
 333:Drivers/STM32F3xx_HAL_Driver/Src/stm32f3xx_hal_flash.c ****       {
 370              		.loc 1 333 16 is_stmt 0 view .LVU93
 371 0044 424B     		ldr	r3, .L40+4
 372 0046 1B78     		ldrb	r3, [r3]	@ zero_extendqisi2
 373 0048 DBB2     		uxtb	r3, r3
 333:Drivers/STM32F3xx_HAL_Driver/Src/stm32f3xx_hal_flash.c ****       {
 374              		.loc 1 333 9 view .LVU94
 375 004a 012B     		cmp	r3, #1
 376 004c 30D0     		beq	.L35
 364:Drivers/STM32F3xx_HAL_Driver/Src/stm32f3xx_hal_flash.c ****       {
 377              		.loc 1 364 12 is_stmt 1 view .LVU95
 364:Drivers/STM32F3xx_HAL_Driver/Src/stm32f3xx_hal_flash.c ****       {
 378              		.loc 1 364 21 is_stmt 0 view .LVU96
 379 004e 404B     		ldr	r3, .L40+4
 380 0050 1B78     		ldrb	r3, [r3]	@ zero_extendqisi2
 381 0052 DBB2     		uxtb	r3, r3
 364:Drivers/STM32F3xx_HAL_Driver/Src/stm32f3xx_hal_flash.c ****       {
 382              		.loc 1 364 14 view .LVU97
ARM GAS  /var/folders/md/lgcc8l7571l9vt9sx0g0zflw0000gn/T//cchpce5v.s 			page 21


 383 0054 022B     		cmp	r3, #2
 384 0056 4AD0     		beq	.L36
 379:Drivers/STM32F3xx_HAL_Driver/Src/stm32f3xx_hal_flash.c ****         
 385              		.loc 1 379 9 is_stmt 1 view .LVU98
 379:Drivers/STM32F3xx_HAL_Driver/Src/stm32f3xx_hal_flash.c ****         
 386              		.loc 1 379 15 is_stmt 0 view .LVU99
 387 0058 3D4B     		ldr	r3, .L40+4
 388 005a 5A68     		ldr	r2, [r3, #4]
 379:Drivers/STM32F3xx_HAL_Driver/Src/stm32f3xx_hal_flash.c ****         
 389              		.loc 1 379 29 view .LVU100
 390 005c 013A     		subs	r2, r2, #1
 391 005e 5A60     		str	r2, [r3, #4]
 382:Drivers/STM32F3xx_HAL_Driver/Src/stm32f3xx_hal_flash.c ****         {
 392              		.loc 1 382 9 is_stmt 1 view .LVU101
 382:Drivers/STM32F3xx_HAL_Driver/Src/stm32f3xx_hal_flash.c ****         {
 393              		.loc 1 382 18 is_stmt 0 view .LVU102
 394 0060 5B68     		ldr	r3, [r3, #4]
 382:Drivers/STM32F3xx_HAL_Driver/Src/stm32f3xx_hal_flash.c ****         {
 395              		.loc 1 382 11 view .LVU103
 396 0062 002B     		cmp	r3, #0
 397 0064 4FD1     		bne	.L37
 401:Drivers/STM32F3xx_HAL_Driver/Src/stm32f3xx_hal_flash.c ****           {
 398              		.loc 1 401 11 is_stmt 1 view .LVU104
 401:Drivers/STM32F3xx_HAL_Driver/Src/stm32f3xx_hal_flash.c ****           {
 399              		.loc 1 401 21 is_stmt 0 view .LVU105
 400 0066 3A4B     		ldr	r3, .L40+4
 401 0068 1B78     		ldrb	r3, [r3]	@ zero_extendqisi2
 402 006a DBB2     		uxtb	r3, r3
 401:Drivers/STM32F3xx_HAL_Driver/Src/stm32f3xx_hal_flash.c ****           {
 403              		.loc 1 401 14 view .LVU106
 404 006c 032B     		cmp	r3, #3
 405 006e 62D0     		beq	.L38
 405:Drivers/STM32F3xx_HAL_Driver/Src/stm32f3xx_hal_flash.c ****           {
 406              		.loc 1 405 16 is_stmt 1 view .LVU107
 405:Drivers/STM32F3xx_HAL_Driver/Src/stm32f3xx_hal_flash.c ****           {
 407              		.loc 1 405 26 is_stmt 0 view .LVU108
 408 0070 374B     		ldr	r3, .L40+4
 409 0072 1B78     		ldrb	r3, [r3]	@ zero_extendqisi2
 410 0074 DBB2     		uxtb	r3, r3
 405:Drivers/STM32F3xx_HAL_Driver/Src/stm32f3xx_hal_flash.c ****           {
 411              		.loc 1 405 19 view .LVU109
 412 0076 042B     		cmp	r3, #4
 413 0078 62D0     		beq	.L39
 411:Drivers/STM32F3xx_HAL_Driver/Src/stm32f3xx_hal_flash.c ****           }
 414              		.loc 1 411 13 is_stmt 1 view .LVU110
 411:Drivers/STM32F3xx_HAL_Driver/Src/stm32f3xx_hal_flash.c ****           }
 415              		.loc 1 411 52 is_stmt 0 view .LVU111
 416 007a 354B     		ldr	r3, .L40+4
 417 007c 9868     		ldr	r0, [r3, #8]
 411:Drivers/STM32F3xx_HAL_Driver/Src/stm32f3xx_hal_flash.c ****           }
 418              		.loc 1 411 13 view .LVU112
 419 007e 0638     		subs	r0, r0, #6
 420 0080 FFF7FEFF 		bl	HAL_FLASH_EndOfOperationCallback
 421              	.LVL23:
 422              	.L31:
 415:Drivers/STM32F3xx_HAL_Driver/Src/stm32f3xx_hal_flash.c ****           pFlash.ProcedureOnGoing = FLASH_PROC_NONE;
 423              		.loc 1 415 11 is_stmt 1 view .LVU113
ARM GAS  /var/folders/md/lgcc8l7571l9vt9sx0g0zflw0000gn/T//cchpce5v.s 			page 22


 415:Drivers/STM32F3xx_HAL_Driver/Src/stm32f3xx_hal_flash.c ****           pFlash.ProcedureOnGoing = FLASH_PROC_NONE;
 424              		.loc 1 415 26 is_stmt 0 view .LVU114
 425 0084 324B     		ldr	r3, .L40+4
 426 0086 4FF0FF32 		mov	r2, #-1
 427 008a 9A60     		str	r2, [r3, #8]
 416:Drivers/STM32F3xx_HAL_Driver/Src/stm32f3xx_hal_flash.c ****         }
 428              		.loc 1 416 11 is_stmt 1 view .LVU115
 416:Drivers/STM32F3xx_HAL_Driver/Src/stm32f3xx_hal_flash.c ****         }
 429              		.loc 1 416 35 is_stmt 0 view .LVU116
 430 008c 0022     		movs	r2, #0
 431 008e 1A70     		strb	r2, [r3]
 432              	.L25:
 423:Drivers/STM32F3xx_HAL_Driver/Src/stm32f3xx_hal_flash.c ****   {
 433              		.loc 1 423 3 is_stmt 1 view .LVU117
 423:Drivers/STM32F3xx_HAL_Driver/Src/stm32f3xx_hal_flash.c ****   {
 434              		.loc 1 423 12 is_stmt 0 view .LVU118
 435 0090 2F4B     		ldr	r3, .L40+4
 436 0092 1B78     		ldrb	r3, [r3]	@ zero_extendqisi2
 423:Drivers/STM32F3xx_HAL_Driver/Src/stm32f3xx_hal_flash.c ****   {
 437              		.loc 1 423 5 view .LVU119
 438 0094 5BB9     		cbnz	r3, .L22
 426:Drivers/STM32F3xx_HAL_Driver/Src/stm32f3xx_hal_flash.c **** 
 439              		.loc 1 426 5 is_stmt 1 view .LVU120
 440 0096 2D4B     		ldr	r3, .L40
 441 0098 1A69     		ldr	r2, [r3, #16]
 442 009a 22F00702 		bic	r2, r2, #7
 443 009e 1A61     		str	r2, [r3, #16]
 429:Drivers/STM32F3xx_HAL_Driver/Src/stm32f3xx_hal_flash.c **** 
 444              		.loc 1 429 5 view .LVU121
 445 00a0 1A69     		ldr	r2, [r3, #16]
 446 00a2 22F4A052 		bic	r2, r2, #5120
 447 00a6 1A61     		str	r2, [r3, #16]
 432:Drivers/STM32F3xx_HAL_Driver/Src/stm32f3xx_hal_flash.c ****   }
 448              		.loc 1 432 5 view .LVU122
 432:Drivers/STM32F3xx_HAL_Driver/Src/stm32f3xx_hal_flash.c ****   }
 449              		.loc 1 432 5 view .LVU123
 450 00a8 294B     		ldr	r3, .L40+4
 451 00aa 0022     		movs	r2, #0
 452 00ac 1A76     		strb	r2, [r3, #24]
 453              	.L22:
 434:Drivers/STM32F3xx_HAL_Driver/Src/stm32f3xx_hal_flash.c **** 
 454              		.loc 1 434 1 is_stmt 0 view .LVU124
 455 00ae F8BD     		pop	{r3, r4, r5, r6, r7, pc}
 456              	.L35:
 336:Drivers/STM32F3xx_HAL_Driver/Src/stm32f3xx_hal_flash.c **** 
 457              		.loc 1 336 9 is_stmt 1 view .LVU125
 336:Drivers/STM32F3xx_HAL_Driver/Src/stm32f3xx_hal_flash.c **** 
 458              		.loc 1 336 15 is_stmt 0 view .LVU126
 459 00b0 274B     		ldr	r3, .L40+4
 460 00b2 5A68     		ldr	r2, [r3, #4]
 336:Drivers/STM32F3xx_HAL_Driver/Src/stm32f3xx_hal_flash.c **** 
 461              		.loc 1 336 29 view .LVU127
 462 00b4 013A     		subs	r2, r2, #1
 463 00b6 5A60     		str	r2, [r3, #4]
 339:Drivers/STM32F3xx_HAL_Driver/Src/stm32f3xx_hal_flash.c ****         {
 464              		.loc 1 339 9 is_stmt 1 view .LVU128
 339:Drivers/STM32F3xx_HAL_Driver/Src/stm32f3xx_hal_flash.c ****         {
ARM GAS  /var/folders/md/lgcc8l7571l9vt9sx0g0zflw0000gn/T//cchpce5v.s 			page 23


 465              		.loc 1 339 18 is_stmt 0 view .LVU129
 466 00b8 5B68     		ldr	r3, [r3, #4]
 339:Drivers/STM32F3xx_HAL_Driver/Src/stm32f3xx_hal_flash.c ****         {
 467              		.loc 1 339 11 view .LVU130
 468 00ba 7BB1     		cbz	r3, .L27
 341:Drivers/STM32F3xx_HAL_Driver/Src/stm32f3xx_hal_flash.c ****           /*Indicate user which sector has been erased */
 469              		.loc 1 341 11 is_stmt 1 view .LVU131
 341:Drivers/STM32F3xx_HAL_Driver/Src/stm32f3xx_hal_flash.c ****           /*Indicate user which sector has been erased */
 470              		.loc 1 341 22 is_stmt 0 view .LVU132
 471 00bc 244C     		ldr	r4, .L40+4
 472 00be A068     		ldr	r0, [r4, #8]
 473              	.LVL24:
 343:Drivers/STM32F3xx_HAL_Driver/Src/stm32f3xx_hal_flash.c **** 
 474              		.loc 1 343 11 is_stmt 1 view .LVU133
 475 00c0 FFF7FEFF 		bl	HAL_FLASH_EndOfOperationCallback
 476              	.LVL25:
 346:Drivers/STM32F3xx_HAL_Driver/Src/stm32f3xx_hal_flash.c ****           pFlash.Address = addresstmp;
 477              		.loc 1 346 11 view .LVU134
 346:Drivers/STM32F3xx_HAL_Driver/Src/stm32f3xx_hal_flash.c ****           pFlash.Address = addresstmp;
 478              		.loc 1 346 30 is_stmt 0 view .LVU135
 479 00c4 A068     		ldr	r0, [r4, #8]
 346:Drivers/STM32F3xx_HAL_Driver/Src/stm32f3xx_hal_flash.c ****           pFlash.Address = addresstmp;
 480              		.loc 1 346 22 view .LVU136
 481 00c6 00F50060 		add	r0, r0, #2048
 482              	.LVL26:
 347:Drivers/STM32F3xx_HAL_Driver/Src/stm32f3xx_hal_flash.c **** 
 483              		.loc 1 347 11 is_stmt 1 view .LVU137
 347:Drivers/STM32F3xx_HAL_Driver/Src/stm32f3xx_hal_flash.c **** 
 484              		.loc 1 347 26 is_stmt 0 view .LVU138
 485 00ca A060     		str	r0, [r4, #8]
 350:Drivers/STM32F3xx_HAL_Driver/Src/stm32f3xx_hal_flash.c **** 
 486              		.loc 1 350 11 is_stmt 1 view .LVU139
 487 00cc 1F4A     		ldr	r2, .L40
 488 00ce 1369     		ldr	r3, [r2, #16]
 489 00d0 23F00203 		bic	r3, r3, #2
 490 00d4 1361     		str	r3, [r2, #16]
 352:Drivers/STM32F3xx_HAL_Driver/Src/stm32f3xx_hal_flash.c ****         }
 491              		.loc 1 352 11 view .LVU140
 492 00d6 FFF7FEFF 		bl	FLASH_PageErase
 493              	.LVL27:
 352:Drivers/STM32F3xx_HAL_Driver/Src/stm32f3xx_hal_flash.c ****         }
 494              		.loc 1 352 11 is_stmt 0 view .LVU141
 495 00da D9E7     		b	.L25
 496              	.L27:
 358:Drivers/STM32F3xx_HAL_Driver/Src/stm32f3xx_hal_flash.c ****           pFlash.ProcedureOnGoing = FLASH_PROC_NONE;
 497              		.loc 1 358 11 is_stmt 1 view .LVU142
 498              	.LVL28:
 358:Drivers/STM32F3xx_HAL_Driver/Src/stm32f3xx_hal_flash.c ****           pFlash.ProcedureOnGoing = FLASH_PROC_NONE;
 499              		.loc 1 358 26 is_stmt 0 view .LVU143
 500 00dc 1C4B     		ldr	r3, .L40+4
 501 00de 4FF0FF30 		mov	r0, #-1
 502 00e2 9860     		str	r0, [r3, #8]
 359:Drivers/STM32F3xx_HAL_Driver/Src/stm32f3xx_hal_flash.c ****           /* FLASH EOP interrupt user callback */
 503              		.loc 1 359 11 is_stmt 1 view .LVU144
 359:Drivers/STM32F3xx_HAL_Driver/Src/stm32f3xx_hal_flash.c ****           /* FLASH EOP interrupt user callback */
 504              		.loc 1 359 35 is_stmt 0 view .LVU145
 505 00e4 0022     		movs	r2, #0
ARM GAS  /var/folders/md/lgcc8l7571l9vt9sx0g0zflw0000gn/T//cchpce5v.s 			page 24


 506 00e6 1A70     		strb	r2, [r3]
 361:Drivers/STM32F3xx_HAL_Driver/Src/stm32f3xx_hal_flash.c ****         }
 507              		.loc 1 361 11 is_stmt 1 view .LVU146
 508 00e8 FFF7FEFF 		bl	HAL_FLASH_EndOfOperationCallback
 509              	.LVL29:
 510 00ec D0E7     		b	.L25
 511              	.LVL30:
 512              	.L36:
 367:Drivers/STM32F3xx_HAL_Driver/Src/stm32f3xx_hal_flash.c **** 
 513              		.loc 1 367 9 view .LVU147
 514 00ee 174A     		ldr	r2, .L40
 515 00f0 1369     		ldr	r3, [r2, #16]
 516 00f2 23F00403 		bic	r3, r3, #4
 517 00f6 1361     		str	r3, [r2, #16]
 371:Drivers/STM32F3xx_HAL_Driver/Src/stm32f3xx_hal_flash.c **** 
 518              		.loc 1 371 11 view .LVU148
 519 00f8 0020     		movs	r0, #0
 520 00fa FFF7FEFF 		bl	HAL_FLASH_EndOfOperationCallback
 521              	.LVL31:
 374:Drivers/STM32F3xx_HAL_Driver/Src/stm32f3xx_hal_flash.c ****         }
 522              		.loc 1 374 11 view .LVU149
 374:Drivers/STM32F3xx_HAL_Driver/Src/stm32f3xx_hal_flash.c ****         }
 523              		.loc 1 374 35 is_stmt 0 view .LVU150
 524 00fe 144B     		ldr	r3, .L40+4
 525 0100 0022     		movs	r2, #0
 526 0102 1A70     		strb	r2, [r3]
 527 0104 C4E7     		b	.L25
 528              	.L37:
 385:Drivers/STM32F3xx_HAL_Driver/Src/stm32f3xx_hal_flash.c ****           addresstmp = pFlash.Address;
 529              		.loc 1 385 11 is_stmt 1 view .LVU151
 385:Drivers/STM32F3xx_HAL_Driver/Src/stm32f3xx_hal_flash.c ****           addresstmp = pFlash.Address;
 530              		.loc 1 385 26 is_stmt 0 view .LVU152
 531 0106 124B     		ldr	r3, .L40+4
 532 0108 9A68     		ldr	r2, [r3, #8]
 533 010a 0232     		adds	r2, r2, #2
 534 010c 9A60     		str	r2, [r3, #8]
 386:Drivers/STM32F3xx_HAL_Driver/Src/stm32f3xx_hal_flash.c ****           
 535              		.loc 1 386 11 is_stmt 1 view .LVU153
 386:Drivers/STM32F3xx_HAL_Driver/Src/stm32f3xx_hal_flash.c ****           
 536              		.loc 1 386 22 is_stmt 0 view .LVU154
 537 010e 9868     		ldr	r0, [r3, #8]
 538              	.LVL32:
 389:Drivers/STM32F3xx_HAL_Driver/Src/stm32f3xx_hal_flash.c ****           
 539              		.loc 1 389 11 is_stmt 1 view .LVU155
 389:Drivers/STM32F3xx_HAL_Driver/Src/stm32f3xx_hal_flash.c ****           
 540              		.loc 1 389 32 is_stmt 0 view .LVU156
 541 0110 D3E90467 		ldrd	r6, [r3, #16]
 389:Drivers/STM32F3xx_HAL_Driver/Src/stm32f3xx_hal_flash.c ****           
 542              		.loc 1 389 38 view .LVU157
 543 0114 340C     		lsrs	r4, r6, #16
 544 0116 44EA0744 		orr	r4, r4, r7, lsl #16
 545 011a 3D0C     		lsrs	r5, r7, #16
 389:Drivers/STM32F3xx_HAL_Driver/Src/stm32f3xx_hal_flash.c ****           
 546              		.loc 1 389 23 view .LVU158
 547 011c C3E90445 		strd	r4, [r3, #16]
 392:Drivers/STM32F3xx_HAL_Driver/Src/stm32f3xx_hal_flash.c **** 
 548              		.loc 1 392 11 is_stmt 1 view .LVU159
ARM GAS  /var/folders/md/lgcc8l7571l9vt9sx0g0zflw0000gn/T//cchpce5v.s 			page 25


 549 0120 0A49     		ldr	r1, .L40
 550 0122 0A69     		ldr	r2, [r1, #16]
 551 0124 22F00102 		bic	r2, r2, #1
 552 0128 0A61     		str	r2, [r1, #16]
 395:Drivers/STM32F3xx_HAL_Driver/Src/stm32f3xx_hal_flash.c ****         }
 553              		.loc 1 395 11 view .LVU160
 395:Drivers/STM32F3xx_HAL_Driver/Src/stm32f3xx_hal_flash.c ****         }
 554              		.loc 1 395 62 is_stmt 0 view .LVU161
 555 012a D3E90423 		ldrd	r2, [r3, #16]
 395:Drivers/STM32F3xx_HAL_Driver/Src/stm32f3xx_hal_flash.c ****         }
 556              		.loc 1 395 11 view .LVU162
 557 012e 91B2     		uxth	r1, r2
 558 0130 FFF7FEFF 		bl	FLASH_Program_HalfWord
 559              	.LVL33:
 395:Drivers/STM32F3xx_HAL_Driver/Src/stm32f3xx_hal_flash.c ****         }
 560              		.loc 1 395 11 view .LVU163
 561 0134 ACE7     		b	.L25
 562              	.L38:
 403:Drivers/STM32F3xx_HAL_Driver/Src/stm32f3xx_hal_flash.c ****           }
 563              		.loc 1 403 13 is_stmt 1 view .LVU164
 564 0136 064B     		ldr	r3, .L40+4
 565 0138 9868     		ldr	r0, [r3, #8]
 566 013a FFF7FEFF 		bl	HAL_FLASH_EndOfOperationCallback
 567              	.LVL34:
 568 013e A1E7     		b	.L31
 569              	.L39:
 407:Drivers/STM32F3xx_HAL_Driver/Src/stm32f3xx_hal_flash.c ****           }
 570              		.loc 1 407 13 view .LVU165
 407:Drivers/STM32F3xx_HAL_Driver/Src/stm32f3xx_hal_flash.c ****           }
 571              		.loc 1 407 52 is_stmt 0 view .LVU166
 572 0140 034B     		ldr	r3, .L40+4
 573 0142 9868     		ldr	r0, [r3, #8]
 407:Drivers/STM32F3xx_HAL_Driver/Src/stm32f3xx_hal_flash.c ****           }
 574              		.loc 1 407 13 view .LVU167
 575 0144 0238     		subs	r0, r0, #2
 576 0146 FFF7FEFF 		bl	HAL_FLASH_EndOfOperationCallback
 577              	.LVL35:
 578 014a 9BE7     		b	.L31
 579              	.L41:
 580              		.align	2
 581              	.L40:
 582 014c 00200240 		.word	1073881088
 583 0150 00000000 		.word	pFlash
 584              		.cfi_endproc
 585              	.LFE128:
 587              		.section	.text.HAL_FLASH_Unlock,"ax",%progbits
 588              		.align	1
 589              		.global	HAL_FLASH_Unlock
 590              		.syntax unified
 591              		.thumb
 592              		.thumb_func
 593              		.fpu fpv4-sp-d16
 595              	HAL_FLASH_Unlock:
 596              	.LFB131:
 497:Drivers/STM32F3xx_HAL_Driver/Src/stm32f3xx_hal_flash.c ****   HAL_StatusTypeDef status = HAL_OK;
 597              		.loc 1 497 1 is_stmt 1 view -0
 598              		.cfi_startproc
ARM GAS  /var/folders/md/lgcc8l7571l9vt9sx0g0zflw0000gn/T//cchpce5v.s 			page 26


 599              		@ args = 0, pretend = 0, frame = 0
 600              		@ frame_needed = 0, uses_anonymous_args = 0
 601              		@ link register save eliminated.
 498:Drivers/STM32F3xx_HAL_Driver/Src/stm32f3xx_hal_flash.c **** 
 602              		.loc 1 498 3 view .LVU169
 603              	.LVL36:
 500:Drivers/STM32F3xx_HAL_Driver/Src/stm32f3xx_hal_flash.c ****   {
 604              		.loc 1 500 3 view .LVU170
 500:Drivers/STM32F3xx_HAL_Driver/Src/stm32f3xx_hal_flash.c ****   {
 605              		.loc 1 500 6 is_stmt 0 view .LVU171
 606 0000 0A4B     		ldr	r3, .L46
 607 0002 1B69     		ldr	r3, [r3, #16]
 500:Drivers/STM32F3xx_HAL_Driver/Src/stm32f3xx_hal_flash.c ****   {
 608              		.loc 1 500 5 view .LVU172
 609 0004 13F0800F 		tst	r3, #128
 610 0008 0BD0     		beq	.L44
 503:Drivers/STM32F3xx_HAL_Driver/Src/stm32f3xx_hal_flash.c ****     WRITE_REG(FLASH->KEYR, FLASH_KEY2);
 611              		.loc 1 503 5 is_stmt 1 view .LVU173
 612 000a 084B     		ldr	r3, .L46
 613 000c 084A     		ldr	r2, .L46+4
 614 000e 5A60     		str	r2, [r3, #4]
 504:Drivers/STM32F3xx_HAL_Driver/Src/stm32f3xx_hal_flash.c **** 
 615              		.loc 1 504 5 view .LVU174
 616 0010 02F18832 		add	r2, r2, #-2004318072
 617 0014 5A60     		str	r2, [r3, #4]
 507:Drivers/STM32F3xx_HAL_Driver/Src/stm32f3xx_hal_flash.c ****     {
 618              		.loc 1 507 5 view .LVU175
 507:Drivers/STM32F3xx_HAL_Driver/Src/stm32f3xx_hal_flash.c ****     {
 619              		.loc 1 507 8 is_stmt 0 view .LVU176
 620 0016 1B69     		ldr	r3, [r3, #16]
 507:Drivers/STM32F3xx_HAL_Driver/Src/stm32f3xx_hal_flash.c ****     {
 621              		.loc 1 507 7 view .LVU177
 622 0018 13F0800F 		tst	r3, #128
 623 001c 03D1     		bne	.L45
 498:Drivers/STM32F3xx_HAL_Driver/Src/stm32f3xx_hal_flash.c **** 
 624              		.loc 1 498 21 view .LVU178
 625 001e 0020     		movs	r0, #0
 626 0020 7047     		bx	lr
 627              	.L44:
 628 0022 0020     		movs	r0, #0
 629 0024 7047     		bx	lr
 630              	.L45:
 509:Drivers/STM32F3xx_HAL_Driver/Src/stm32f3xx_hal_flash.c ****     }
 631              		.loc 1 509 14 view .LVU179
 632 0026 0120     		movs	r0, #1
 633              	.LVL37:
 513:Drivers/STM32F3xx_HAL_Driver/Src/stm32f3xx_hal_flash.c **** }
 634              		.loc 1 513 3 is_stmt 1 view .LVU180
 514:Drivers/STM32F3xx_HAL_Driver/Src/stm32f3xx_hal_flash.c **** 
 635              		.loc 1 514 1 is_stmt 0 view .LVU181
 636 0028 7047     		bx	lr
 637              	.L47:
 638 002a 00BF     		.align	2
 639              	.L46:
 640 002c 00200240 		.word	1073881088
 641 0030 23016745 		.word	1164378403
 642              		.cfi_endproc
ARM GAS  /var/folders/md/lgcc8l7571l9vt9sx0g0zflw0000gn/T//cchpce5v.s 			page 27


 643              	.LFE131:
 645              		.section	.text.HAL_FLASH_Lock,"ax",%progbits
 646              		.align	1
 647              		.global	HAL_FLASH_Lock
 648              		.syntax unified
 649              		.thumb
 650              		.thumb_func
 651              		.fpu fpv4-sp-d16
 653              	HAL_FLASH_Lock:
 654              	.LFB132:
 521:Drivers/STM32F3xx_HAL_Driver/Src/stm32f3xx_hal_flash.c ****   /* Set the LOCK Bit to lock the FLASH Registers access */
 655              		.loc 1 521 1 is_stmt 1 view -0
 656              		.cfi_startproc
 657              		@ args = 0, pretend = 0, frame = 0
 658              		@ frame_needed = 0, uses_anonymous_args = 0
 659              		@ link register save eliminated.
 523:Drivers/STM32F3xx_HAL_Driver/Src/stm32f3xx_hal_flash.c ****   
 660              		.loc 1 523 3 view .LVU183
 661 0000 034A     		ldr	r2, .L49
 662 0002 1369     		ldr	r3, [r2, #16]
 663 0004 43F08003 		orr	r3, r3, #128
 664 0008 1361     		str	r3, [r2, #16]
 525:Drivers/STM32F3xx_HAL_Driver/Src/stm32f3xx_hal_flash.c **** }
 665              		.loc 1 525 3 view .LVU184
 526:Drivers/STM32F3xx_HAL_Driver/Src/stm32f3xx_hal_flash.c **** 
 666              		.loc 1 526 1 is_stmt 0 view .LVU185
 667 000a 0020     		movs	r0, #0
 668 000c 7047     		bx	lr
 669              	.L50:
 670 000e 00BF     		.align	2
 671              	.L49:
 672 0010 00200240 		.word	1073881088
 673              		.cfi_endproc
 674              	.LFE132:
 676              		.section	.text.HAL_FLASH_OB_Unlock,"ax",%progbits
 677              		.align	1
 678              		.global	HAL_FLASH_OB_Unlock
 679              		.syntax unified
 680              		.thumb
 681              		.thumb_func
 682              		.fpu fpv4-sp-d16
 684              	HAL_FLASH_OB_Unlock:
 685              	.LFB133:
 533:Drivers/STM32F3xx_HAL_Driver/Src/stm32f3xx_hal_flash.c ****   if (HAL_IS_BIT_CLR(FLASH->CR, FLASH_CR_OPTWRE))
 686              		.loc 1 533 1 is_stmt 1 view -0
 687              		.cfi_startproc
 688              		@ args = 0, pretend = 0, frame = 0
 689              		@ frame_needed = 0, uses_anonymous_args = 0
 690              		@ link register save eliminated.
 534:Drivers/STM32F3xx_HAL_Driver/Src/stm32f3xx_hal_flash.c ****   {
 691              		.loc 1 534 3 view .LVU187
 534:Drivers/STM32F3xx_HAL_Driver/Src/stm32f3xx_hal_flash.c ****   {
 692              		.loc 1 534 7 is_stmt 0 view .LVU188
 693 0000 074B     		ldr	r3, .L54
 694 0002 1B69     		ldr	r3, [r3, #16]
 534:Drivers/STM32F3xx_HAL_Driver/Src/stm32f3xx_hal_flash.c ****   {
 695              		.loc 1 534 6 view .LVU189
ARM GAS  /var/folders/md/lgcc8l7571l9vt9sx0g0zflw0000gn/T//cchpce5v.s 			page 28


 696 0004 13F4007F 		tst	r3, #512
 697 0008 07D1     		bne	.L53
 537:Drivers/STM32F3xx_HAL_Driver/Src/stm32f3xx_hal_flash.c ****     WRITE_REG(FLASH->OPTKEYR, FLASH_OPTKEY2);
 698              		.loc 1 537 5 is_stmt 1 view .LVU190
 699 000a 054B     		ldr	r3, .L54
 700 000c 054A     		ldr	r2, .L54+4
 701 000e 9A60     		str	r2, [r3, #8]
 538:Drivers/STM32F3xx_HAL_Driver/Src/stm32f3xx_hal_flash.c ****   }
 702              		.loc 1 538 5 view .LVU191
 703 0010 02F18832 		add	r2, r2, #-2004318072
 704 0014 9A60     		str	r2, [r3, #8]
 545:Drivers/STM32F3xx_HAL_Driver/Src/stm32f3xx_hal_flash.c **** }
 705              		.loc 1 545 3 view .LVU192
 545:Drivers/STM32F3xx_HAL_Driver/Src/stm32f3xx_hal_flash.c **** }
 706              		.loc 1 545 10 is_stmt 0 view .LVU193
 707 0016 0020     		movs	r0, #0
 708 0018 7047     		bx	lr
 709              	.L53:
 542:Drivers/STM32F3xx_HAL_Driver/Src/stm32f3xx_hal_flash.c ****   }  
 710              		.loc 1 542 12 view .LVU194
 711 001a 0120     		movs	r0, #1
 546:Drivers/STM32F3xx_HAL_Driver/Src/stm32f3xx_hal_flash.c **** 
 712              		.loc 1 546 1 view .LVU195
 713 001c 7047     		bx	lr
 714              	.L55:
 715 001e 00BF     		.align	2
 716              	.L54:
 717 0020 00200240 		.word	1073881088
 718 0024 23016745 		.word	1164378403
 719              		.cfi_endproc
 720              	.LFE133:
 722              		.section	.text.HAL_FLASH_OB_Lock,"ax",%progbits
 723              		.align	1
 724              		.global	HAL_FLASH_OB_Lock
 725              		.syntax unified
 726              		.thumb
 727              		.thumb_func
 728              		.fpu fpv4-sp-d16
 730              	HAL_FLASH_OB_Lock:
 731              	.LFB134:
 553:Drivers/STM32F3xx_HAL_Driver/Src/stm32f3xx_hal_flash.c ****   /* Clear the OPTWRE Bit to lock the FLASH Option Byte Registers access */
 732              		.loc 1 553 1 is_stmt 1 view -0
 733              		.cfi_startproc
 734              		@ args = 0, pretend = 0, frame = 0
 735              		@ frame_needed = 0, uses_anonymous_args = 0
 736              		@ link register save eliminated.
 555:Drivers/STM32F3xx_HAL_Driver/Src/stm32f3xx_hal_flash.c ****   
 737              		.loc 1 555 3 view .LVU197
 738 0000 034A     		ldr	r2, .L57
 739 0002 1369     		ldr	r3, [r2, #16]
 740 0004 23F40073 		bic	r3, r3, #512
 741 0008 1361     		str	r3, [r2, #16]
 557:Drivers/STM32F3xx_HAL_Driver/Src/stm32f3xx_hal_flash.c **** }
 742              		.loc 1 557 3 view .LVU198
 558:Drivers/STM32F3xx_HAL_Driver/Src/stm32f3xx_hal_flash.c ****   
 743              		.loc 1 558 1 is_stmt 0 view .LVU199
 744 000a 0020     		movs	r0, #0
ARM GAS  /var/folders/md/lgcc8l7571l9vt9sx0g0zflw0000gn/T//cchpce5v.s 			page 29


 745 000c 7047     		bx	lr
 746              	.L58:
 747 000e 00BF     		.align	2
 748              	.L57:
 749 0010 00200240 		.word	1073881088
 750              		.cfi_endproc
 751              	.LFE134:
 753              		.section	.text.HAL_FLASH_GetError,"ax",%progbits
 754              		.align	1
 755              		.global	HAL_FLASH_GetError
 756              		.syntax unified
 757              		.thumb
 758              		.thumb_func
 759              		.fpu fpv4-sp-d16
 761              	HAL_FLASH_GetError:
 762              	.LFB136:
 598:Drivers/STM32F3xx_HAL_Driver/Src/stm32f3xx_hal_flash.c ****    return pFlash.ErrorCode;
 763              		.loc 1 598 1 is_stmt 1 view -0
 764              		.cfi_startproc
 765              		@ args = 0, pretend = 0, frame = 0
 766              		@ frame_needed = 0, uses_anonymous_args = 0
 767              		@ link register save eliminated.
 599:Drivers/STM32F3xx_HAL_Driver/Src/stm32f3xx_hal_flash.c **** }
 768              		.loc 1 599 4 view .LVU201
 599:Drivers/STM32F3xx_HAL_Driver/Src/stm32f3xx_hal_flash.c **** }
 769              		.loc 1 599 17 is_stmt 0 view .LVU202
 770 0000 014B     		ldr	r3, .L60
 771 0002 D869     		ldr	r0, [r3, #28]
 600:Drivers/STM32F3xx_HAL_Driver/Src/stm32f3xx_hal_flash.c **** 
 772              		.loc 1 600 1 view .LVU203
 773 0004 7047     		bx	lr
 774              	.L61:
 775 0006 00BF     		.align	2
 776              	.L60:
 777 0008 00000000 		.word	pFlash
 778              		.cfi_endproc
 779              	.LFE136:
 781              		.section	.text.FLASH_WaitForLastOperation,"ax",%progbits
 782              		.align	1
 783              		.global	FLASH_WaitForLastOperation
 784              		.syntax unified
 785              		.thumb
 786              		.thumb_func
 787              		.fpu fpv4-sp-d16
 789              	FLASH_WaitForLastOperation:
 790              	.LVL38:
 791              	.LFB138:
 638:Drivers/STM32F3xx_HAL_Driver/Src/stm32f3xx_hal_flash.c ****   /* Wait for the FLASH operation to complete by polling on BUSY flag to be reset.
 792              		.loc 1 638 1 is_stmt 1 view -0
 793              		.cfi_startproc
 794              		@ args = 0, pretend = 0, frame = 0
 795              		@ frame_needed = 0, uses_anonymous_args = 0
 638:Drivers/STM32F3xx_HAL_Driver/Src/stm32f3xx_hal_flash.c ****   /* Wait for the FLASH operation to complete by polling on BUSY flag to be reset.
 796              		.loc 1 638 1 is_stmt 0 view .LVU205
 797 0000 38B5     		push	{r3, r4, r5, lr}
 798              	.LCFI2:
 799              		.cfi_def_cfa_offset 16
ARM GAS  /var/folders/md/lgcc8l7571l9vt9sx0g0zflw0000gn/T//cchpce5v.s 			page 30


 800              		.cfi_offset 3, -16
 801              		.cfi_offset 4, -12
 802              		.cfi_offset 5, -8
 803              		.cfi_offset 14, -4
 804 0002 0446     		mov	r4, r0
 643:Drivers/STM32F3xx_HAL_Driver/Src/stm32f3xx_hal_flash.c ****      
 805              		.loc 1 643 3 is_stmt 1 view .LVU206
 643:Drivers/STM32F3xx_HAL_Driver/Src/stm32f3xx_hal_flash.c ****      
 806              		.loc 1 643 24 is_stmt 0 view .LVU207
 807 0004 FFF7FEFF 		bl	HAL_GetTick
 808              	.LVL39:
 643:Drivers/STM32F3xx_HAL_Driver/Src/stm32f3xx_hal_flash.c ****      
 809              		.loc 1 643 24 view .LVU208
 810 0008 0546     		mov	r5, r0
 811              	.LVL40:
 645:Drivers/STM32F3xx_HAL_Driver/Src/stm32f3xx_hal_flash.c ****   { 
 812              		.loc 1 645 3 is_stmt 1 view .LVU209
 813              	.L64:
 645:Drivers/STM32F3xx_HAL_Driver/Src/stm32f3xx_hal_flash.c ****   { 
 814              		.loc 1 645 9 is_stmt 0 view .LVU210
 815 000a 144B     		ldr	r3, .L73
 816 000c DB68     		ldr	r3, [r3, #12]
 645:Drivers/STM32F3xx_HAL_Driver/Src/stm32f3xx_hal_flash.c ****   { 
 817              		.loc 1 645 8 view .LVU211
 818 000e 13F0010F 		tst	r3, #1
 819 0012 0AD0     		beq	.L72
 647:Drivers/STM32F3xx_HAL_Driver/Src/stm32f3xx_hal_flash.c ****     {
 820              		.loc 1 647 5 is_stmt 1 view .LVU212
 647:Drivers/STM32F3xx_HAL_Driver/Src/stm32f3xx_hal_flash.c ****     {
 821              		.loc 1 647 8 is_stmt 0 view .LVU213
 822 0014 B4F1FF3F 		cmp	r4, #-1
 823 0018 F7D0     		beq	.L64
 649:Drivers/STM32F3xx_HAL_Driver/Src/stm32f3xx_hal_flash.c ****       {
 824              		.loc 1 649 7 is_stmt 1 view .LVU214
 649:Drivers/STM32F3xx_HAL_Driver/Src/stm32f3xx_hal_flash.c ****       {
 825              		.loc 1 649 9 is_stmt 0 view .LVU215
 826 001a 24B1     		cbz	r4, .L65
 649:Drivers/STM32F3xx_HAL_Driver/Src/stm32f3xx_hal_flash.c ****       {
 827              		.loc 1 649 31 discriminator 1 view .LVU216
 828 001c FFF7FEFF 		bl	HAL_GetTick
 829              	.LVL41:
 649:Drivers/STM32F3xx_HAL_Driver/Src/stm32f3xx_hal_flash.c ****       {
 830              		.loc 1 649 44 discriminator 1 view .LVU217
 831 0020 401B     		subs	r0, r0, r5
 649:Drivers/STM32F3xx_HAL_Driver/Src/stm32f3xx_hal_flash.c ****       {
 832              		.loc 1 649 26 discriminator 1 view .LVU218
 833 0022 A042     		cmp	r0, r4
 834 0024 F1D9     		bls	.L64
 835              	.L65:
 651:Drivers/STM32F3xx_HAL_Driver/Src/stm32f3xx_hal_flash.c ****       }
 836              		.loc 1 651 9 is_stmt 1 view .LVU219
 651:Drivers/STM32F3xx_HAL_Driver/Src/stm32f3xx_hal_flash.c ****       }
 837              		.loc 1 651 16 is_stmt 0 view .LVU220
 838 0026 0320     		movs	r0, #3
 839 0028 12E0     		b	.L66
 840              	.L72:
 657:Drivers/STM32F3xx_HAL_Driver/Src/stm32f3xx_hal_flash.c ****   {
ARM GAS  /var/folders/md/lgcc8l7571l9vt9sx0g0zflw0000gn/T//cchpce5v.s 			page 31


 841              		.loc 1 657 3 is_stmt 1 view .LVU221
 657:Drivers/STM32F3xx_HAL_Driver/Src/stm32f3xx_hal_flash.c ****   {
 842              		.loc 1 657 7 is_stmt 0 view .LVU222
 843 002a 0C4B     		ldr	r3, .L73
 844 002c DB68     		ldr	r3, [r3, #12]
 657:Drivers/STM32F3xx_HAL_Driver/Src/stm32f3xx_hal_flash.c ****   {
 845              		.loc 1 657 6 view .LVU223
 846 002e 13F0200F 		tst	r3, #32
 847 0032 02D0     		beq	.L68
 660:Drivers/STM32F3xx_HAL_Driver/Src/stm32f3xx_hal_flash.c ****   }
 848              		.loc 1 660 5 is_stmt 1 view .LVU224
 849 0034 094B     		ldr	r3, .L73
 850 0036 2022     		movs	r2, #32
 851 0038 DA60     		str	r2, [r3, #12]
 852              	.L68:
 663:Drivers/STM32F3xx_HAL_Driver/Src/stm32f3xx_hal_flash.c ****      __HAL_FLASH_GET_FLAG(FLASH_FLAG_PGERR))
 853              		.loc 1 663 3 view .LVU225
 663:Drivers/STM32F3xx_HAL_Driver/Src/stm32f3xx_hal_flash.c ****      __HAL_FLASH_GET_FLAG(FLASH_FLAG_PGERR))
 854              		.loc 1 663 6 is_stmt 0 view .LVU226
 855 003a 084B     		ldr	r3, .L73
 856 003c DB68     		ldr	r3, [r3, #12]
 663:Drivers/STM32F3xx_HAL_Driver/Src/stm32f3xx_hal_flash.c ****      __HAL_FLASH_GET_FLAG(FLASH_FLAG_PGERR))
 857              		.loc 1 663 5 view .LVU227
 858 003e 13F0100F 		tst	r3, #16
 859 0042 06D1     		bne	.L69
 664:Drivers/STM32F3xx_HAL_Driver/Src/stm32f3xx_hal_flash.c ****   {
 860              		.loc 1 664 6 discriminator 1 view .LVU228
 861 0044 054B     		ldr	r3, .L73
 862 0046 DB68     		ldr	r3, [r3, #12]
 663:Drivers/STM32F3xx_HAL_Driver/Src/stm32f3xx_hal_flash.c ****      __HAL_FLASH_GET_FLAG(FLASH_FLAG_PGERR))
 863              		.loc 1 663 47 discriminator 1 view .LVU229
 864 0048 13F0040F 		tst	r3, #4
 865 004c 01D1     		bne	.L69
 672:Drivers/STM32F3xx_HAL_Driver/Src/stm32f3xx_hal_flash.c **** }
 866              		.loc 1 672 10 view .LVU230
 867 004e 0020     		movs	r0, #0
 868              	.L66:
 673:Drivers/STM32F3xx_HAL_Driver/Src/stm32f3xx_hal_flash.c **** 
 869              		.loc 1 673 1 view .LVU231
 870 0050 38BD     		pop	{r3, r4, r5, pc}
 871              	.LVL42:
 872              	.L69:
 667:Drivers/STM32F3xx_HAL_Driver/Src/stm32f3xx_hal_flash.c ****     return HAL_ERROR;
 873              		.loc 1 667 5 is_stmt 1 view .LVU232
 874 0052 FFF7FEFF 		bl	FLASH_SetErrorCode
 875              	.LVL43:
 668:Drivers/STM32F3xx_HAL_Driver/Src/stm32f3xx_hal_flash.c ****   }
 876              		.loc 1 668 5 view .LVU233
 668:Drivers/STM32F3xx_HAL_Driver/Src/stm32f3xx_hal_flash.c ****   }
 877              		.loc 1 668 12 is_stmt 0 view .LVU234
 878 0056 0120     		movs	r0, #1
 879 0058 FAE7     		b	.L66
 880              	.L74:
 881 005a 00BF     		.align	2
 882              	.L73:
 883 005c 00200240 		.word	1073881088
 884              		.cfi_endproc
ARM GAS  /var/folders/md/lgcc8l7571l9vt9sx0g0zflw0000gn/T//cchpce5v.s 			page 32


 885              	.LFE138:
 887              		.section	.text.HAL_FLASH_Program,"ax",%progbits
 888              		.align	1
 889              		.global	HAL_FLASH_Program
 890              		.syntax unified
 891              		.thumb
 892              		.thumb_func
 893              		.fpu fpv4-sp-d16
 895              	HAL_FLASH_Program:
 896              	.LVL44:
 897              	.LFB126:
 185:Drivers/STM32F3xx_HAL_Driver/Src/stm32f3xx_hal_flash.c ****   HAL_StatusTypeDef status = HAL_ERROR;
 898              		.loc 1 185 1 is_stmt 1 view -0
 899              		.cfi_startproc
 900              		@ args = 0, pretend = 0, frame = 0
 901              		@ frame_needed = 0, uses_anonymous_args = 0
 185:Drivers/STM32F3xx_HAL_Driver/Src/stm32f3xx_hal_flash.c ****   HAL_StatusTypeDef status = HAL_ERROR;
 902              		.loc 1 185 1 is_stmt 0 view .LVU236
 903 0000 2DE9F843 		push	{r3, r4, r5, r6, r7, r8, r9, lr}
 904              	.LCFI3:
 905              		.cfi_def_cfa_offset 32
 906              		.cfi_offset 3, -32
 907              		.cfi_offset 4, -28
 908              		.cfi_offset 5, -24
 909              		.cfi_offset 6, -20
 910              		.cfi_offset 7, -16
 911              		.cfi_offset 8, -12
 912              		.cfi_offset 9, -8
 913              		.cfi_offset 14, -4
 186:Drivers/STM32F3xx_HAL_Driver/Src/stm32f3xx_hal_flash.c ****   uint8_t index = 0U;
 914              		.loc 1 186 3 is_stmt 1 view .LVU237
 915              	.LVL45:
 187:Drivers/STM32F3xx_HAL_Driver/Src/stm32f3xx_hal_flash.c ****   uint8_t nbiterations = 0U;
 916              		.loc 1 187 3 view .LVU238
 188:Drivers/STM32F3xx_HAL_Driver/Src/stm32f3xx_hal_flash.c ****   
 917              		.loc 1 188 3 view .LVU239
 191:Drivers/STM32F3xx_HAL_Driver/Src/stm32f3xx_hal_flash.c **** 
 918              		.loc 1 191 3 view .LVU240
 191:Drivers/STM32F3xx_HAL_Driver/Src/stm32f3xx_hal_flash.c **** 
 919              		.loc 1 191 3 view .LVU241
 920 0004 234C     		ldr	r4, .L86
 921 0006 247E     		ldrb	r4, [r4, #24]	@ zero_extendqisi2
 922 0008 012C     		cmp	r4, #1
 923 000a 41D0     		beq	.L81
 924 000c 1E46     		mov	r6, r3
 925 000e 9046     		mov	r8, r2
 926 0010 0F46     		mov	r7, r1
 927 0012 0446     		mov	r4, r0
 191:Drivers/STM32F3xx_HAL_Driver/Src/stm32f3xx_hal_flash.c **** 
 928              		.loc 1 191 3 discriminator 2 view .LVU242
 929 0014 1F4B     		ldr	r3, .L86
 930 0016 0122     		movs	r2, #1
 931              	.LVL46:
 191:Drivers/STM32F3xx_HAL_Driver/Src/stm32f3xx_hal_flash.c **** 
 932              		.loc 1 191 3 is_stmt 0 discriminator 2 view .LVU243
 933 0018 1A76     		strb	r2, [r3, #24]
 194:Drivers/STM32F3xx_HAL_Driver/Src/stm32f3xx_hal_flash.c ****   assert_param(IS_FLASH_PROGRAM_ADDRESS(Address));
ARM GAS  /var/folders/md/lgcc8l7571l9vt9sx0g0zflw0000gn/T//cchpce5v.s 			page 33


 934              		.loc 1 194 3 is_stmt 1 discriminator 2 view .LVU244
 195:Drivers/STM32F3xx_HAL_Driver/Src/stm32f3xx_hal_flash.c **** 
 935              		.loc 1 195 3 discriminator 2 view .LVU245
 198:Drivers/STM32F3xx_HAL_Driver/Src/stm32f3xx_hal_flash.c ****   
 936              		.loc 1 198 5 discriminator 2 view .LVU246
 198:Drivers/STM32F3xx_HAL_Driver/Src/stm32f3xx_hal_flash.c ****   
 937              		.loc 1 198 14 is_stmt 0 discriminator 2 view .LVU247
 938 001a 4CF25030 		movw	r0, #50000
 939              	.LVL47:
 198:Drivers/STM32F3xx_HAL_Driver/Src/stm32f3xx_hal_flash.c ****   
 940              		.loc 1 198 14 discriminator 2 view .LVU248
 941 001e FFF7FEFF 		bl	FLASH_WaitForLastOperation
 942              	.LVL48:
 200:Drivers/STM32F3xx_HAL_Driver/Src/stm32f3xx_hal_flash.c ****   {
 943              		.loc 1 200 3 is_stmt 1 discriminator 2 view .LVU249
 200:Drivers/STM32F3xx_HAL_Driver/Src/stm32f3xx_hal_flash.c ****   {
 944              		.loc 1 200 5 is_stmt 0 discriminator 2 view .LVU250
 945 0022 0346     		mov	r3, r0
 946 0024 70BB     		cbnz	r0, .L77
 202:Drivers/STM32F3xx_HAL_Driver/Src/stm32f3xx_hal_flash.c ****     {
 947              		.loc 1 202 5 is_stmt 1 view .LVU251
 202:Drivers/STM32F3xx_HAL_Driver/Src/stm32f3xx_hal_flash.c ****     {
 948              		.loc 1 202 7 is_stmt 0 view .LVU252
 949 0026 012C     		cmp	r4, #1
 950 0028 29D0     		beq	.L82
 207:Drivers/STM32F3xx_HAL_Driver/Src/stm32f3xx_hal_flash.c ****     {
 951              		.loc 1 207 10 is_stmt 1 view .LVU253
 207:Drivers/STM32F3xx_HAL_Driver/Src/stm32f3xx_hal_flash.c ****     {
 952              		.loc 1 207 12 is_stmt 0 view .LVU254
 953 002a 022C     		cmp	r4, #2
 954 002c 24D0     		beq	.L85
 215:Drivers/STM32F3xx_HAL_Driver/Src/stm32f3xx_hal_flash.c ****     }
 955              		.loc 1 215 20 view .LVU255
 956 002e 4FF00409 		mov	r9, #4
 957              	.L78:
 958              	.LVL49:
 218:Drivers/STM32F3xx_HAL_Driver/Src/stm32f3xx_hal_flash.c ****     {
 959              		.loc 1 218 5 is_stmt 1 view .LVU256
 218:Drivers/STM32F3xx_HAL_Driver/Src/stm32f3xx_hal_flash.c ****     {
 960              		.loc 1 218 16 is_stmt 0 view .LVU257
 961 0032 1C46     		mov	r4, r3
 962              	.LVL50:
 963              	.L79:
 218:Drivers/STM32F3xx_HAL_Driver/Src/stm32f3xx_hal_flash.c ****     {
 964              		.loc 1 218 5 discriminator 1 view .LVU258
 965 0034 4C45     		cmp	r4, r9
 966 0036 25D2     		bcs	.L77
 220:Drivers/STM32F3xx_HAL_Driver/Src/stm32f3xx_hal_flash.c **** 
 967              		.loc 1 220 7 is_stmt 1 view .LVU259
 220:Drivers/STM32F3xx_HAL_Driver/Src/stm32f3xx_hal_flash.c **** 
 968              		.loc 1 220 77 is_stmt 0 view .LVU260
 969 0038 2101     		lsls	r1, r4, #4
 220:Drivers/STM32F3xx_HAL_Driver/Src/stm32f3xx_hal_flash.c **** 
 970              		.loc 1 220 70 view .LVU261
 971 003a C1F12002 		rsb	r2, r1, #32
 972 003e A1F12003 		sub	r3, r1, #32
 973              	.LVL51:
ARM GAS  /var/folders/md/lgcc8l7571l9vt9sx0g0zflw0000gn/T//cchpce5v.s 			page 34


 220:Drivers/STM32F3xx_HAL_Driver/Src/stm32f3xx_hal_flash.c **** 
 974              		.loc 1 220 70 view .LVU262
 975 0042 28FA01F1 		lsr	r1, r8, r1
 976 0046 06FA02F2 		lsl	r2, r6, r2
 977 004a 1143     		orrs	r1, r1, r2
 978 004c 26FA03F3 		lsr	r3, r6, r3
 979 0050 1943     		orrs	r1, r1, r3
 220:Drivers/STM32F3xx_HAL_Driver/Src/stm32f3xx_hal_flash.c **** 
 980              		.loc 1 220 7 view .LVU263
 981 0052 89B2     		uxth	r1, r1
 982 0054 07EB4400 		add	r0, r7, r4, lsl #1
 983 0058 FFF7FEFF 		bl	FLASH_Program_HalfWord
 984              	.LVL52:
 223:Drivers/STM32F3xx_HAL_Driver/Src/stm32f3xx_hal_flash.c ****     
 985              		.loc 1 223 9 is_stmt 1 view .LVU264
 223:Drivers/STM32F3xx_HAL_Driver/Src/stm32f3xx_hal_flash.c ****     
 986              		.loc 1 223 18 is_stmt 0 view .LVU265
 987 005c 4CF25030 		movw	r0, #50000
 988 0060 FFF7FEFF 		bl	FLASH_WaitForLastOperation
 989              	.LVL53:
 226:Drivers/STM32F3xx_HAL_Driver/Src/stm32f3xx_hal_flash.c ****       /* In case of error, stop programming procedure */
 990              		.loc 1 226 9 is_stmt 1 view .LVU266
 991 0064 0C4B     		ldr	r3, .L86+4
 992 0066 1D69     		ldr	r5, [r3, #16]
 993 0068 25F00105 		bic	r5, r5, #1
 994 006c 1D61     		str	r5, [r3, #16]
 228:Drivers/STM32F3xx_HAL_Driver/Src/stm32f3xx_hal_flash.c ****       {
 995              		.loc 1 228 7 view .LVU267
 228:Drivers/STM32F3xx_HAL_Driver/Src/stm32f3xx_hal_flash.c ****       {
 996              		.loc 1 228 10 is_stmt 0 view .LVU268
 997 006e 0346     		mov	r3, r0
 998 0070 40B9     		cbnz	r0, .L77
 218:Drivers/STM32F3xx_HAL_Driver/Src/stm32f3xx_hal_flash.c ****     {
 999              		.loc 1 218 49 discriminator 2 view .LVU269
 1000 0072 0134     		adds	r4, r4, #1
 1001              	.LVL54:
 218:Drivers/STM32F3xx_HAL_Driver/Src/stm32f3xx_hal_flash.c ****     {
 1002              		.loc 1 218 49 discriminator 2 view .LVU270
 1003 0074 E4B2     		uxtb	r4, r4
 1004              	.LVL55:
 218:Drivers/STM32F3xx_HAL_Driver/Src/stm32f3xx_hal_flash.c ****     {
 1005              		.loc 1 218 49 discriminator 2 view .LVU271
 1006 0076 DDE7     		b	.L79
 1007              	.LVL56:
 1008              	.L85:
 210:Drivers/STM32F3xx_HAL_Driver/Src/stm32f3xx_hal_flash.c ****     }
 1009              		.loc 1 210 20 view .LVU272
 1010 0078 4FF00209 		mov	r9, #2
 1011 007c D9E7     		b	.L78
 1012              	.L82:
 205:Drivers/STM32F3xx_HAL_Driver/Src/stm32f3xx_hal_flash.c ****     }
 1013              		.loc 1 205 20 view .LVU273
 1014 007e 4FF00109 		mov	r9, #1
 1015 0082 D6E7     		b	.L78
 1016              	.LVL57:
 1017              	.L77:
 236:Drivers/STM32F3xx_HAL_Driver/Src/stm32f3xx_hal_flash.c **** 
ARM GAS  /var/folders/md/lgcc8l7571l9vt9sx0g0zflw0000gn/T//cchpce5v.s 			page 35


 1018              		.loc 1 236 3 is_stmt 1 view .LVU274
 236:Drivers/STM32F3xx_HAL_Driver/Src/stm32f3xx_hal_flash.c **** 
 1019              		.loc 1 236 3 view .LVU275
 1020 0084 034A     		ldr	r2, .L86
 1021 0086 0021     		movs	r1, #0
 1022 0088 1176     		strb	r1, [r2, #24]
 238:Drivers/STM32F3xx_HAL_Driver/Src/stm32f3xx_hal_flash.c **** }
 1023              		.loc 1 238 3 view .LVU276
 1024              	.LVL58:
 1025              	.L76:
 239:Drivers/STM32F3xx_HAL_Driver/Src/stm32f3xx_hal_flash.c **** 
 1026              		.loc 1 239 1 is_stmt 0 view .LVU277
 1027 008a 1846     		mov	r0, r3
 1028 008c BDE8F883 		pop	{r3, r4, r5, r6, r7, r8, r9, pc}
 1029              	.LVL59:
 1030              	.L81:
 191:Drivers/STM32F3xx_HAL_Driver/Src/stm32f3xx_hal_flash.c **** 
 1031              		.loc 1 191 3 view .LVU278
 1032 0090 0223     		movs	r3, #2
 1033 0092 FAE7     		b	.L76
 1034              	.L87:
 1035              		.align	2
 1036              	.L86:
 1037 0094 00000000 		.word	pFlash
 1038 0098 00200240 		.word	1073881088
 1039              		.cfi_endproc
 1040              	.LFE126:
 1042              		.section	.text.HAL_FLASH_OB_Launch,"ax",%progbits
 1043              		.align	1
 1044              		.global	HAL_FLASH_OB_Launch
 1045              		.syntax unified
 1046              		.thumb
 1047              		.thumb_func
 1048              		.fpu fpv4-sp-d16
 1050              	HAL_FLASH_OB_Launch:
 1051              	.LFB135:
 566:Drivers/STM32F3xx_HAL_Driver/Src/stm32f3xx_hal_flash.c ****   /* Set the OBL_Launch bit to launch the option byte loading */
 1052              		.loc 1 566 1 is_stmt 1 view -0
 1053              		.cfi_startproc
 1054              		@ args = 0, pretend = 0, frame = 0
 1055              		@ frame_needed = 0, uses_anonymous_args = 0
 1056 0000 08B5     		push	{r3, lr}
 1057              	.LCFI4:
 1058              		.cfi_def_cfa_offset 8
 1059              		.cfi_offset 3, -8
 1060              		.cfi_offset 14, -4
 568:Drivers/STM32F3xx_HAL_Driver/Src/stm32f3xx_hal_flash.c ****   
 1061              		.loc 1 568 3 view .LVU280
 1062 0002 054A     		ldr	r2, .L90
 1063 0004 1369     		ldr	r3, [r2, #16]
 1064 0006 43F40053 		orr	r3, r3, #8192
 1065 000a 1361     		str	r3, [r2, #16]
 571:Drivers/STM32F3xx_HAL_Driver/Src/stm32f3xx_hal_flash.c **** }
 1066              		.loc 1 571 3 view .LVU281
 571:Drivers/STM32F3xx_HAL_Driver/Src/stm32f3xx_hal_flash.c **** }
 1067              		.loc 1 571 10 is_stmt 0 view .LVU282
 1068 000c 4CF25030 		movw	r0, #50000
ARM GAS  /var/folders/md/lgcc8l7571l9vt9sx0g0zflw0000gn/T//cchpce5v.s 			page 36


 1069 0010 FFF7FEFF 		bl	FLASH_WaitForLastOperation
 1070              	.LVL60:
 572:Drivers/STM32F3xx_HAL_Driver/Src/stm32f3xx_hal_flash.c **** 
 1071              		.loc 1 572 1 view .LVU283
 1072 0014 08BD     		pop	{r3, pc}
 1073              	.L91:
 1074 0016 00BF     		.align	2
 1075              	.L90:
 1076 0018 00200240 		.word	1073881088
 1077              		.cfi_endproc
 1078              	.LFE135:
 1080              		.comm	pFlash,32,8
 1081              		.text
 1082              	.Letext0:
 1083              		.file 2 "/usr/local/gcc-arm-none-eabi-8-2019-q3-update/arm-none-eabi/include/machine/_default_type
 1084              		.file 3 "/usr/local/gcc-arm-none-eabi-8-2019-q3-update/arm-none-eabi/include/sys/_stdint.h"
 1085              		.file 4 "Drivers/CMSIS/Include/core_cm4.h"
 1086              		.file 5 "Drivers/CMSIS/Device/ST/STM32F3xx/Include/system_stm32f3xx.h"
 1087              		.file 6 "Drivers/CMSIS/Device/ST/STM32F3xx/Include/stm32f303xe.h"
 1088              		.file 7 "/usr/local/gcc-arm-none-eabi-8-2019-q3-update/lib/gcc/arm-none-eabi/8.3.1/include/stddef.
 1089              		.file 8 "/usr/local/gcc-arm-none-eabi-8-2019-q3-update/arm-none-eabi/include/sys/_types.h"
 1090              		.file 9 "/usr/local/gcc-arm-none-eabi-8-2019-q3-update/arm-none-eabi/include/sys/reent.h"
 1091              		.file 10 "/usr/local/gcc-arm-none-eabi-8-2019-q3-update/arm-none-eabi/include/sys/lock.h"
 1092              		.file 11 "Drivers/CMSIS/Device/ST/STM32F3xx/Include/stm32f3xx.h"
 1093              		.file 12 "Drivers/STM32F3xx_HAL_Driver/Inc/stm32f3xx_hal_def.h"
 1094              		.file 13 "Drivers/STM32F3xx_HAL_Driver/Inc/stm32f3xx_hal_flash.h"
 1095              		.file 14 "Drivers/STM32F3xx_HAL_Driver/Inc/stm32f3xx_hal.h"
ARM GAS  /var/folders/md/lgcc8l7571l9vt9sx0g0zflw0000gn/T//cchpce5v.s 			page 37

