ARM GAS  /var/folders/md/lgcc8l7571l9vt9sx0g0zflw0000gn/T//ccUH8gjh.s 			page 1


   1              		.cpu cortex-m4
   2              		.eabi_attribute 27, 1
   3              		.eabi_attribute 28, 1
   4              		.eabi_attribute 20, 1
   5              		.eabi_attribute 21, 1
   6              		.eabi_attribute 23, 3
   7              		.eabi_attribute 24, 1
   8              		.eabi_attribute 25, 1
   9              		.eabi_attribute 26, 1
  10              		.eabi_attribute 30, 1
  11              		.eabi_attribute 34, 1
  12              		.eabi_attribute 18, 4
  13              		.file	"stm32f3xx_hal_rcc.c"
  14              		.text
  15              	.Ltext0:
  16              		.cfi_sections	.debug_frame
  17              		.section	.text.HAL_RCC_DeInit,"ax",%progbits
  18              		.align	1
  19              		.global	HAL_RCC_DeInit
  20              		.arch armv7e-m
  21              		.syntax unified
  22              		.thumb
  23              		.thumb_func
  24              		.fpu fpv4-sp-d16
  26              	HAL_RCC_DeInit:
  27              	.LFB126:
  28              		.file 1 "Drivers/STM32F3xx_HAL_Driver/Src/stm32f3xx_hal_rcc.c"
   1:Drivers/STM32F3xx_HAL_Driver/Src/stm32f3xx_hal_rcc.c **** /**
   2:Drivers/STM32F3xx_HAL_Driver/Src/stm32f3xx_hal_rcc.c ****   ******************************************************************************
   3:Drivers/STM32F3xx_HAL_Driver/Src/stm32f3xx_hal_rcc.c ****   * @file    stm32f3xx_hal_rcc.c
   4:Drivers/STM32F3xx_HAL_Driver/Src/stm32f3xx_hal_rcc.c ****   * @author  MCD Application Team
   5:Drivers/STM32F3xx_HAL_Driver/Src/stm32f3xx_hal_rcc.c ****   * @brief   RCC HAL module driver.
   6:Drivers/STM32F3xx_HAL_Driver/Src/stm32f3xx_hal_rcc.c ****   *          This file provides firmware functions to manage the following 
   7:Drivers/STM32F3xx_HAL_Driver/Src/stm32f3xx_hal_rcc.c ****   *          functionalities of the Reset and Clock Control (RCC) peripheral:
   8:Drivers/STM32F3xx_HAL_Driver/Src/stm32f3xx_hal_rcc.c ****   *           + Initialization and de-initialization functions
   9:Drivers/STM32F3xx_HAL_Driver/Src/stm32f3xx_hal_rcc.c ****   *           + Peripheral Control functions
  10:Drivers/STM32F3xx_HAL_Driver/Src/stm32f3xx_hal_rcc.c ****   *       
  11:Drivers/STM32F3xx_HAL_Driver/Src/stm32f3xx_hal_rcc.c ****   @verbatim                
  12:Drivers/STM32F3xx_HAL_Driver/Src/stm32f3xx_hal_rcc.c ****   ==============================================================================
  13:Drivers/STM32F3xx_HAL_Driver/Src/stm32f3xx_hal_rcc.c ****                       ##### RCC specific features #####
  14:Drivers/STM32F3xx_HAL_Driver/Src/stm32f3xx_hal_rcc.c ****   ==============================================================================
  15:Drivers/STM32F3xx_HAL_Driver/Src/stm32f3xx_hal_rcc.c ****     [..]  
  16:Drivers/STM32F3xx_HAL_Driver/Src/stm32f3xx_hal_rcc.c ****       After reset the device is running from Internal High Speed oscillator
  17:Drivers/STM32F3xx_HAL_Driver/Src/stm32f3xx_hal_rcc.c ****       (HSI 8MHz) with Flash 0 wait state, Flash prefetch buffer is enabled, 
  18:Drivers/STM32F3xx_HAL_Driver/Src/stm32f3xx_hal_rcc.c ****       and all peripherals are off except internal SRAM, Flash and JTAG.
  19:Drivers/STM32F3xx_HAL_Driver/Src/stm32f3xx_hal_rcc.c ****       (+) There is no prescaler on High speed (AHB) and Low speed (APB) buses;
  20:Drivers/STM32F3xx_HAL_Driver/Src/stm32f3xx_hal_rcc.c ****           all peripherals mapped on these buses are running at HSI speed.
  21:Drivers/STM32F3xx_HAL_Driver/Src/stm32f3xx_hal_rcc.c ****       (+) The clock for all peripherals is switched off, except the SRAM and FLASH.
  22:Drivers/STM32F3xx_HAL_Driver/Src/stm32f3xx_hal_rcc.c ****       (+) All GPIOs are in input floating state, except the JTAG pins which
  23:Drivers/STM32F3xx_HAL_Driver/Src/stm32f3xx_hal_rcc.c ****           are assigned to be used for debug purpose.
  24:Drivers/STM32F3xx_HAL_Driver/Src/stm32f3xx_hal_rcc.c ****     [..] Once the device started from reset, the user application has to:
  25:Drivers/STM32F3xx_HAL_Driver/Src/stm32f3xx_hal_rcc.c ****       (+) Configure the clock source to be used to drive the System clock
  26:Drivers/STM32F3xx_HAL_Driver/Src/stm32f3xx_hal_rcc.c ****           (if the application needs higher frequency/performance)
  27:Drivers/STM32F3xx_HAL_Driver/Src/stm32f3xx_hal_rcc.c ****       (+) Configure the System clock frequency and Flash settings  
  28:Drivers/STM32F3xx_HAL_Driver/Src/stm32f3xx_hal_rcc.c ****       (+) Configure the AHB and APB buses prescalers
  29:Drivers/STM32F3xx_HAL_Driver/Src/stm32f3xx_hal_rcc.c ****       (+) Enable the clock for the peripheral(s) to be used
  30:Drivers/STM32F3xx_HAL_Driver/Src/stm32f3xx_hal_rcc.c ****       (+) Configure the clock source(s) for peripherals whose clocks are not
ARM GAS  /var/folders/md/lgcc8l7571l9vt9sx0g0zflw0000gn/T//ccUH8gjh.s 			page 2


  31:Drivers/STM32F3xx_HAL_Driver/Src/stm32f3xx_hal_rcc.c ****           derived from the System clock (RTC, ADC, I2C, I2S, TIM, USB FS)
  32:Drivers/STM32F3xx_HAL_Driver/Src/stm32f3xx_hal_rcc.c **** 
  33:Drivers/STM32F3xx_HAL_Driver/Src/stm32f3xx_hal_rcc.c ****                       ##### RCC Limitations #####
  34:Drivers/STM32F3xx_HAL_Driver/Src/stm32f3xx_hal_rcc.c ****   ==============================================================================
  35:Drivers/STM32F3xx_HAL_Driver/Src/stm32f3xx_hal_rcc.c ****     [..]  
  36:Drivers/STM32F3xx_HAL_Driver/Src/stm32f3xx_hal_rcc.c ****       A delay between an RCC peripheral clock enable and the effective peripheral 
  37:Drivers/STM32F3xx_HAL_Driver/Src/stm32f3xx_hal_rcc.c ****       enabling should be taken into account in order to manage the peripheral read/write 
  38:Drivers/STM32F3xx_HAL_Driver/Src/stm32f3xx_hal_rcc.c ****       from/to registers.
  39:Drivers/STM32F3xx_HAL_Driver/Src/stm32f3xx_hal_rcc.c ****       (+) This delay depends on the peripheral mapping.
  40:Drivers/STM32F3xx_HAL_Driver/Src/stm32f3xx_hal_rcc.c ****         (++) AHB & APB peripherals, 1 dummy read is necessary
  41:Drivers/STM32F3xx_HAL_Driver/Src/stm32f3xx_hal_rcc.c **** 
  42:Drivers/STM32F3xx_HAL_Driver/Src/stm32f3xx_hal_rcc.c ****     [..]  
  43:Drivers/STM32F3xx_HAL_Driver/Src/stm32f3xx_hal_rcc.c ****       Workarounds:
  44:Drivers/STM32F3xx_HAL_Driver/Src/stm32f3xx_hal_rcc.c ****       (#) For AHB & APB peripherals, a dummy read to the peripheral register has been
  45:Drivers/STM32F3xx_HAL_Driver/Src/stm32f3xx_hal_rcc.c ****           inserted in each __HAL_RCC_PPP_CLK_ENABLE() macro.
  46:Drivers/STM32F3xx_HAL_Driver/Src/stm32f3xx_hal_rcc.c **** 
  47:Drivers/STM32F3xx_HAL_Driver/Src/stm32f3xx_hal_rcc.c ****   @endverbatim
  48:Drivers/STM32F3xx_HAL_Driver/Src/stm32f3xx_hal_rcc.c ****   ******************************************************************************
  49:Drivers/STM32F3xx_HAL_Driver/Src/stm32f3xx_hal_rcc.c ****   * @attention
  50:Drivers/STM32F3xx_HAL_Driver/Src/stm32f3xx_hal_rcc.c ****   *
  51:Drivers/STM32F3xx_HAL_Driver/Src/stm32f3xx_hal_rcc.c ****   * <h2><center>&copy; COPYRIGHT(c) 2016 STMicroelectronics</center></h2>
  52:Drivers/STM32F3xx_HAL_Driver/Src/stm32f3xx_hal_rcc.c ****   *
  53:Drivers/STM32F3xx_HAL_Driver/Src/stm32f3xx_hal_rcc.c ****   * Redistribution and use in source and binary forms, with or without modification,
  54:Drivers/STM32F3xx_HAL_Driver/Src/stm32f3xx_hal_rcc.c ****   * are permitted provided that the following conditions are met:
  55:Drivers/STM32F3xx_HAL_Driver/Src/stm32f3xx_hal_rcc.c ****   *   1. Redistributions of source code must retain the above copyright notice,
  56:Drivers/STM32F3xx_HAL_Driver/Src/stm32f3xx_hal_rcc.c ****   *      this list of conditions and the following disclaimer.
  57:Drivers/STM32F3xx_HAL_Driver/Src/stm32f3xx_hal_rcc.c ****   *   2. Redistributions in binary form must reproduce the above copyright notice,
  58:Drivers/STM32F3xx_HAL_Driver/Src/stm32f3xx_hal_rcc.c ****   *      this list of conditions and the following disclaimer in the documentation
  59:Drivers/STM32F3xx_HAL_Driver/Src/stm32f3xx_hal_rcc.c ****   *      and/or other materials provided with the distribution.
  60:Drivers/STM32F3xx_HAL_Driver/Src/stm32f3xx_hal_rcc.c ****   *   3. Neither the name of STMicroelectronics nor the names of its contributors
  61:Drivers/STM32F3xx_HAL_Driver/Src/stm32f3xx_hal_rcc.c ****   *      may be used to endorse or promote products derived from this software
  62:Drivers/STM32F3xx_HAL_Driver/Src/stm32f3xx_hal_rcc.c ****   *      without specific prior written permission.
  63:Drivers/STM32F3xx_HAL_Driver/Src/stm32f3xx_hal_rcc.c ****   *
  64:Drivers/STM32F3xx_HAL_Driver/Src/stm32f3xx_hal_rcc.c ****   * THIS SOFTWARE IS PROVIDED BY THE COPYRIGHT HOLDERS AND CONTRIBUTORS "AS IS"
  65:Drivers/STM32F3xx_HAL_Driver/Src/stm32f3xx_hal_rcc.c ****   * AND ANY EXPRESS OR IMPLIED WARRANTIES, INCLUDING, BUT NOT LIMITED TO, THE
  66:Drivers/STM32F3xx_HAL_Driver/Src/stm32f3xx_hal_rcc.c ****   * IMPLIED WARRANTIES OF MERCHANTABILITY AND FITNESS FOR A PARTICULAR PURPOSE ARE
  67:Drivers/STM32F3xx_HAL_Driver/Src/stm32f3xx_hal_rcc.c ****   * DISCLAIMED. IN NO EVENT SHALL THE COPYRIGHT HOLDER OR CONTRIBUTORS BE LIABLE
  68:Drivers/STM32F3xx_HAL_Driver/Src/stm32f3xx_hal_rcc.c ****   * FOR ANY DIRECT, INDIRECT, INCIDENTAL, SPECIAL, EXEMPLARY, OR CONSEQUENTIAL
  69:Drivers/STM32F3xx_HAL_Driver/Src/stm32f3xx_hal_rcc.c ****   * DAMAGES (INCLUDING, BUT NOT LIMITED TO, PROCUREMENT OF SUBSTITUTE GOODS OR
  70:Drivers/STM32F3xx_HAL_Driver/Src/stm32f3xx_hal_rcc.c ****   * SERVICES; LOSS OF USE, DATA, OR PROFITS; OR BUSINESS INTERRUPTION) HOWEVER
  71:Drivers/STM32F3xx_HAL_Driver/Src/stm32f3xx_hal_rcc.c ****   * CAUSED AND ON ANY THEORY OF LIABILITY, WHETHER IN CONTRACT, STRICT LIABILITY,
  72:Drivers/STM32F3xx_HAL_Driver/Src/stm32f3xx_hal_rcc.c ****   * OR TORT (INCLUDING NEGLIGENCE OR OTHERWISE) ARISING IN ANY WAY OUT OF THE USE
  73:Drivers/STM32F3xx_HAL_Driver/Src/stm32f3xx_hal_rcc.c ****   * OF THIS SOFTWARE, EVEN IF ADVISED OF THE POSSIBILITY OF SUCH DAMAGE.
  74:Drivers/STM32F3xx_HAL_Driver/Src/stm32f3xx_hal_rcc.c ****   *
  75:Drivers/STM32F3xx_HAL_Driver/Src/stm32f3xx_hal_rcc.c ****   ******************************************************************************  
  76:Drivers/STM32F3xx_HAL_Driver/Src/stm32f3xx_hal_rcc.c **** */
  77:Drivers/STM32F3xx_HAL_Driver/Src/stm32f3xx_hal_rcc.c **** 
  78:Drivers/STM32F3xx_HAL_Driver/Src/stm32f3xx_hal_rcc.c **** /* Includes ------------------------------------------------------------------*/
  79:Drivers/STM32F3xx_HAL_Driver/Src/stm32f3xx_hal_rcc.c **** #include "stm32f3xx_hal.h"
  80:Drivers/STM32F3xx_HAL_Driver/Src/stm32f3xx_hal_rcc.c **** 
  81:Drivers/STM32F3xx_HAL_Driver/Src/stm32f3xx_hal_rcc.c **** /** @addtogroup STM32F3xx_HAL_Driver
  82:Drivers/STM32F3xx_HAL_Driver/Src/stm32f3xx_hal_rcc.c ****   * @{
  83:Drivers/STM32F3xx_HAL_Driver/Src/stm32f3xx_hal_rcc.c ****   */
  84:Drivers/STM32F3xx_HAL_Driver/Src/stm32f3xx_hal_rcc.c **** 
  85:Drivers/STM32F3xx_HAL_Driver/Src/stm32f3xx_hal_rcc.c **** /** @defgroup RCC RCC
  86:Drivers/STM32F3xx_HAL_Driver/Src/stm32f3xx_hal_rcc.c **** * @brief RCC HAL module driver
  87:Drivers/STM32F3xx_HAL_Driver/Src/stm32f3xx_hal_rcc.c ****   * @{
ARM GAS  /var/folders/md/lgcc8l7571l9vt9sx0g0zflw0000gn/T//ccUH8gjh.s 			page 3


  88:Drivers/STM32F3xx_HAL_Driver/Src/stm32f3xx_hal_rcc.c ****   */
  89:Drivers/STM32F3xx_HAL_Driver/Src/stm32f3xx_hal_rcc.c **** 
  90:Drivers/STM32F3xx_HAL_Driver/Src/stm32f3xx_hal_rcc.c **** #ifdef HAL_RCC_MODULE_ENABLED
  91:Drivers/STM32F3xx_HAL_Driver/Src/stm32f3xx_hal_rcc.c **** 
  92:Drivers/STM32F3xx_HAL_Driver/Src/stm32f3xx_hal_rcc.c **** /* Private typedef -----------------------------------------------------------*/
  93:Drivers/STM32F3xx_HAL_Driver/Src/stm32f3xx_hal_rcc.c **** /* Private define ------------------------------------------------------------*/
  94:Drivers/STM32F3xx_HAL_Driver/Src/stm32f3xx_hal_rcc.c **** /** @defgroup RCC_Private_Constants RCC Private Constants
  95:Drivers/STM32F3xx_HAL_Driver/Src/stm32f3xx_hal_rcc.c ****  * @{
  96:Drivers/STM32F3xx_HAL_Driver/Src/stm32f3xx_hal_rcc.c ****  */
  97:Drivers/STM32F3xx_HAL_Driver/Src/stm32f3xx_hal_rcc.c **** /* Bits position in  in the CFGR register */
  98:Drivers/STM32F3xx_HAL_Driver/Src/stm32f3xx_hal_rcc.c **** #define RCC_CFGR_HPRE_BITNUMBER           POSITION_VAL(RCC_CFGR_HPRE)
  99:Drivers/STM32F3xx_HAL_Driver/Src/stm32f3xx_hal_rcc.c **** #define RCC_CFGR_PPRE1_BITNUMBER          POSITION_VAL(RCC_CFGR_PPRE1)
 100:Drivers/STM32F3xx_HAL_Driver/Src/stm32f3xx_hal_rcc.c **** #define RCC_CFGR_PPRE2_BITNUMBER          POSITION_VAL(RCC_CFGR_PPRE2)
 101:Drivers/STM32F3xx_HAL_Driver/Src/stm32f3xx_hal_rcc.c **** /**
 102:Drivers/STM32F3xx_HAL_Driver/Src/stm32f3xx_hal_rcc.c ****   * @}
 103:Drivers/STM32F3xx_HAL_Driver/Src/stm32f3xx_hal_rcc.c ****   */
 104:Drivers/STM32F3xx_HAL_Driver/Src/stm32f3xx_hal_rcc.c **** /* Private macro -------------------------------------------------------------*/
 105:Drivers/STM32F3xx_HAL_Driver/Src/stm32f3xx_hal_rcc.c **** /** @defgroup RCC_Private_Macros RCC Private Macros
 106:Drivers/STM32F3xx_HAL_Driver/Src/stm32f3xx_hal_rcc.c ****   * @{
 107:Drivers/STM32F3xx_HAL_Driver/Src/stm32f3xx_hal_rcc.c ****   */
 108:Drivers/STM32F3xx_HAL_Driver/Src/stm32f3xx_hal_rcc.c **** 
 109:Drivers/STM32F3xx_HAL_Driver/Src/stm32f3xx_hal_rcc.c **** #define MCO1_CLK_ENABLE()     __HAL_RCC_GPIOA_CLK_ENABLE()
 110:Drivers/STM32F3xx_HAL_Driver/Src/stm32f3xx_hal_rcc.c **** #define MCO1_GPIO_PORT        GPIOA
 111:Drivers/STM32F3xx_HAL_Driver/Src/stm32f3xx_hal_rcc.c **** #define MCO1_PIN              GPIO_PIN_8
 112:Drivers/STM32F3xx_HAL_Driver/Src/stm32f3xx_hal_rcc.c **** 
 113:Drivers/STM32F3xx_HAL_Driver/Src/stm32f3xx_hal_rcc.c **** /**
 114:Drivers/STM32F3xx_HAL_Driver/Src/stm32f3xx_hal_rcc.c ****   * @}
 115:Drivers/STM32F3xx_HAL_Driver/Src/stm32f3xx_hal_rcc.c ****   */
 116:Drivers/STM32F3xx_HAL_Driver/Src/stm32f3xx_hal_rcc.c **** 
 117:Drivers/STM32F3xx_HAL_Driver/Src/stm32f3xx_hal_rcc.c **** /* Private variables ---------------------------------------------------------*/
 118:Drivers/STM32F3xx_HAL_Driver/Src/stm32f3xx_hal_rcc.c **** /** @defgroup RCC_Private_Variables RCC Private Variables
 119:Drivers/STM32F3xx_HAL_Driver/Src/stm32f3xx_hal_rcc.c ****   * @{
 120:Drivers/STM32F3xx_HAL_Driver/Src/stm32f3xx_hal_rcc.c ****   */
 121:Drivers/STM32F3xx_HAL_Driver/Src/stm32f3xx_hal_rcc.c **** const uint8_t aPLLMULFactorTable[16] = { 2U,  3U,  4U,  5U,  6U,  7U,  8U,  9U,
 122:Drivers/STM32F3xx_HAL_Driver/Src/stm32f3xx_hal_rcc.c ****                                        10U, 11U, 12U, 13U, 14U, 15U, 16U, 16U};
 123:Drivers/STM32F3xx_HAL_Driver/Src/stm32f3xx_hal_rcc.c **** const uint8_t aPredivFactorTable[16] = { 1U, 2U,  3U,  4U,  5U,  6U,  7U,  8U,
 124:Drivers/STM32F3xx_HAL_Driver/Src/stm32f3xx_hal_rcc.c ****                                          9U,10U, 11U, 12U, 13U, 14U, 15U, 16U};
 125:Drivers/STM32F3xx_HAL_Driver/Src/stm32f3xx_hal_rcc.c **** /**
 126:Drivers/STM32F3xx_HAL_Driver/Src/stm32f3xx_hal_rcc.c ****   * @}
 127:Drivers/STM32F3xx_HAL_Driver/Src/stm32f3xx_hal_rcc.c ****   */
 128:Drivers/STM32F3xx_HAL_Driver/Src/stm32f3xx_hal_rcc.c **** 
 129:Drivers/STM32F3xx_HAL_Driver/Src/stm32f3xx_hal_rcc.c **** /* Private function prototypes -----------------------------------------------*/
 130:Drivers/STM32F3xx_HAL_Driver/Src/stm32f3xx_hal_rcc.c **** /* Exported functions ---------------------------------------------------------*/
 131:Drivers/STM32F3xx_HAL_Driver/Src/stm32f3xx_hal_rcc.c **** 
 132:Drivers/STM32F3xx_HAL_Driver/Src/stm32f3xx_hal_rcc.c **** /** @defgroup RCC_Exported_Functions RCC Exported Functions
 133:Drivers/STM32F3xx_HAL_Driver/Src/stm32f3xx_hal_rcc.c ****   * @{
 134:Drivers/STM32F3xx_HAL_Driver/Src/stm32f3xx_hal_rcc.c ****   */
 135:Drivers/STM32F3xx_HAL_Driver/Src/stm32f3xx_hal_rcc.c **** 
 136:Drivers/STM32F3xx_HAL_Driver/Src/stm32f3xx_hal_rcc.c **** /** @defgroup RCC_Exported_Functions_Group1 Initialization and de-initialization functions 
 137:Drivers/STM32F3xx_HAL_Driver/Src/stm32f3xx_hal_rcc.c ****   *  @brief    Initialization and Configuration functions 
 138:Drivers/STM32F3xx_HAL_Driver/Src/stm32f3xx_hal_rcc.c ****   *
 139:Drivers/STM32F3xx_HAL_Driver/Src/stm32f3xx_hal_rcc.c ****   @verbatim    
 140:Drivers/STM32F3xx_HAL_Driver/Src/stm32f3xx_hal_rcc.c ****   ===============================================================================
 141:Drivers/STM32F3xx_HAL_Driver/Src/stm32f3xx_hal_rcc.c ****            ##### Initialization and de-initialization functions #####
 142:Drivers/STM32F3xx_HAL_Driver/Src/stm32f3xx_hal_rcc.c ****   ===============================================================================
 143:Drivers/STM32F3xx_HAL_Driver/Src/stm32f3xx_hal_rcc.c ****     [..]
 144:Drivers/STM32F3xx_HAL_Driver/Src/stm32f3xx_hal_rcc.c ****       This section provides functions allowing to configure the internal/external oscillators
ARM GAS  /var/folders/md/lgcc8l7571l9vt9sx0g0zflw0000gn/T//ccUH8gjh.s 			page 4


 145:Drivers/STM32F3xx_HAL_Driver/Src/stm32f3xx_hal_rcc.c ****       (HSE, HSI, LSE, LSI, PLL, CSS and MCO) and the System buses clocks (SYSCLK, AHB, APB1
 146:Drivers/STM32F3xx_HAL_Driver/Src/stm32f3xx_hal_rcc.c ****       and APB2).
 147:Drivers/STM32F3xx_HAL_Driver/Src/stm32f3xx_hal_rcc.c **** 
 148:Drivers/STM32F3xx_HAL_Driver/Src/stm32f3xx_hal_rcc.c ****     [..] Internal/external clock and PLL configuration
 149:Drivers/STM32F3xx_HAL_Driver/Src/stm32f3xx_hal_rcc.c ****       (#) HSI (high-speed internal), 8 MHz factory-trimmed RC used directly or through
 150:Drivers/STM32F3xx_HAL_Driver/Src/stm32f3xx_hal_rcc.c ****           the PLL as System clock source.
 151:Drivers/STM32F3xx_HAL_Driver/Src/stm32f3xx_hal_rcc.c ****           The HSI clock can be used also to clock the USART and I2C peripherals.
 152:Drivers/STM32F3xx_HAL_Driver/Src/stm32f3xx_hal_rcc.c **** 
 153:Drivers/STM32F3xx_HAL_Driver/Src/stm32f3xx_hal_rcc.c ****       (#) LSI (low-speed internal), ~40 KHz low consumption RC used as IWDG and/or RTC
 154:Drivers/STM32F3xx_HAL_Driver/Src/stm32f3xx_hal_rcc.c ****           clock source.
 155:Drivers/STM32F3xx_HAL_Driver/Src/stm32f3xx_hal_rcc.c **** 
 156:Drivers/STM32F3xx_HAL_Driver/Src/stm32f3xx_hal_rcc.c ****       (#) HSE (high-speed external), 4 to 32 MHz crystal oscillator used directly or
 157:Drivers/STM32F3xx_HAL_Driver/Src/stm32f3xx_hal_rcc.c ****           through the PLL as System clock source. Can be used also as RTC clock source.
 158:Drivers/STM32F3xx_HAL_Driver/Src/stm32f3xx_hal_rcc.c **** 
 159:Drivers/STM32F3xx_HAL_Driver/Src/stm32f3xx_hal_rcc.c ****       (#) LSE (low-speed external), 32 KHz oscillator used as RTC clock source.   
 160:Drivers/STM32F3xx_HAL_Driver/Src/stm32f3xx_hal_rcc.c **** 
 161:Drivers/STM32F3xx_HAL_Driver/Src/stm32f3xx_hal_rcc.c ****       (#) PLL (clocked by HSI or HSE), featuring different output clocks:
 162:Drivers/STM32F3xx_HAL_Driver/Src/stm32f3xx_hal_rcc.c ****         (++) The first output is used to generate the high speed system clock (up to 72 MHz)
 163:Drivers/STM32F3xx_HAL_Driver/Src/stm32f3xx_hal_rcc.c ****         (++) The second output is used to generate the clock for the USB FS (48 MHz)
 164:Drivers/STM32F3xx_HAL_Driver/Src/stm32f3xx_hal_rcc.c ****         (++) The third output may be used to generate the clock for the ADC peripherals (up to 72 M
 165:Drivers/STM32F3xx_HAL_Driver/Src/stm32f3xx_hal_rcc.c ****         (++) The fourth output may be used to generate the clock for the TIM peripherals (144 MHz)
 166:Drivers/STM32F3xx_HAL_Driver/Src/stm32f3xx_hal_rcc.c **** 
 167:Drivers/STM32F3xx_HAL_Driver/Src/stm32f3xx_hal_rcc.c ****       (#) CSS (Clock security system), once enable using the macro __HAL_RCC_CSS_ENABLE()
 168:Drivers/STM32F3xx_HAL_Driver/Src/stm32f3xx_hal_rcc.c ****           and if a HSE clock failure occurs(HSE used directly or through PLL as System 
 169:Drivers/STM32F3xx_HAL_Driver/Src/stm32f3xx_hal_rcc.c ****           clock source), the System clocks automatically switched to HSI and an interrupt
 170:Drivers/STM32F3xx_HAL_Driver/Src/stm32f3xx_hal_rcc.c ****           is generated if enabled. The interrupt is linked to the Cortex-M4 NMI 
 171:Drivers/STM32F3xx_HAL_Driver/Src/stm32f3xx_hal_rcc.c ****           (Non-Maskable Interrupt) exception vector.   
 172:Drivers/STM32F3xx_HAL_Driver/Src/stm32f3xx_hal_rcc.c **** 
 173:Drivers/STM32F3xx_HAL_Driver/Src/stm32f3xx_hal_rcc.c ****       (#) MCO (microcontroller clock output), used to output SYSCLK, HSI, HSE, LSI, LSE or PLL
 174:Drivers/STM32F3xx_HAL_Driver/Src/stm32f3xx_hal_rcc.c ****           clock (divided by 2) output on pin (such as PA8 pin).
 175:Drivers/STM32F3xx_HAL_Driver/Src/stm32f3xx_hal_rcc.c **** 
 176:Drivers/STM32F3xx_HAL_Driver/Src/stm32f3xx_hal_rcc.c ****     [..] System, AHB and APB buses clocks configuration
 177:Drivers/STM32F3xx_HAL_Driver/Src/stm32f3xx_hal_rcc.c ****       (#) Several clock sources can be used to drive the System clock (SYSCLK): HSI,
 178:Drivers/STM32F3xx_HAL_Driver/Src/stm32f3xx_hal_rcc.c ****           HSE and PLL.
 179:Drivers/STM32F3xx_HAL_Driver/Src/stm32f3xx_hal_rcc.c ****           The AHB clock (HCLK) is derived from System clock through configurable
 180:Drivers/STM32F3xx_HAL_Driver/Src/stm32f3xx_hal_rcc.c ****           prescaler and used to clock the CPU, memory and peripherals mapped
 181:Drivers/STM32F3xx_HAL_Driver/Src/stm32f3xx_hal_rcc.c ****           on AHB bus (DMA, GPIO...). APB1 (PCLK1) and APB2 (PCLK2) clocks are derived
 182:Drivers/STM32F3xx_HAL_Driver/Src/stm32f3xx_hal_rcc.c ****           from AHB clock through configurable prescalers and used to clock
 183:Drivers/STM32F3xx_HAL_Driver/Src/stm32f3xx_hal_rcc.c ****           the peripherals mapped on these buses. You can use
 184:Drivers/STM32F3xx_HAL_Driver/Src/stm32f3xx_hal_rcc.c ****           "@ref HAL_RCC_GetSysClockFreq()" function to retrieve the frequencies of these clocks.
 185:Drivers/STM32F3xx_HAL_Driver/Src/stm32f3xx_hal_rcc.c **** 
 186:Drivers/STM32F3xx_HAL_Driver/Src/stm32f3xx_hal_rcc.c ****       (#) All the peripheral clocks are derived from the System clock (SYSCLK) except:
 187:Drivers/STM32F3xx_HAL_Driver/Src/stm32f3xx_hal_rcc.c ****         (++) The FLASH program/erase clock  which is always HSI 8MHz clock.
 188:Drivers/STM32F3xx_HAL_Driver/Src/stm32f3xx_hal_rcc.c ****         (++) The USB 48 MHz clock which is derived from the PLL VCO clock.
 189:Drivers/STM32F3xx_HAL_Driver/Src/stm32f3xx_hal_rcc.c ****         (++) The USART clock which can be derived as well from HSI 8MHz, LSI or LSE.
 190:Drivers/STM32F3xx_HAL_Driver/Src/stm32f3xx_hal_rcc.c ****         (++) The I2C clock which can be derived as well from HSI 8MHz clock.
 191:Drivers/STM32F3xx_HAL_Driver/Src/stm32f3xx_hal_rcc.c ****         (++) The ADC clock which is derived from PLL output.
 192:Drivers/STM32F3xx_HAL_Driver/Src/stm32f3xx_hal_rcc.c ****         (++) The RTC clock which is derived from the LSE, LSI or 1 MHz HSE_RTC
 193:Drivers/STM32F3xx_HAL_Driver/Src/stm32f3xx_hal_rcc.c ****              (HSE divided by a programmable prescaler). The System clock (SYSCLK)
 194:Drivers/STM32F3xx_HAL_Driver/Src/stm32f3xx_hal_rcc.c ****              frequency must be higher or equal to the RTC clock frequency.
 195:Drivers/STM32F3xx_HAL_Driver/Src/stm32f3xx_hal_rcc.c ****         (++) IWDG clock which is always the LSI clock.
 196:Drivers/STM32F3xx_HAL_Driver/Src/stm32f3xx_hal_rcc.c **** 
 197:Drivers/STM32F3xx_HAL_Driver/Src/stm32f3xx_hal_rcc.c ****          (#) For the STM32F3xx devices, the maximum frequency of the SYSCLK, HCLK, PCLK1 and PCLK2 
 198:Drivers/STM32F3xx_HAL_Driver/Src/stm32f3xx_hal_rcc.c ****              Depending on the SYSCLK frequency, the flash latency should be adapted accordingly.
 199:Drivers/STM32F3xx_HAL_Driver/Src/stm32f3xx_hal_rcc.c **** 
 200:Drivers/STM32F3xx_HAL_Driver/Src/stm32f3xx_hal_rcc.c ****          (#) After reset, the System clock source is the HSI (8 MHz) with 0 WS and
 201:Drivers/STM32F3xx_HAL_Driver/Src/stm32f3xx_hal_rcc.c ****              prefetch is disabled.
ARM GAS  /var/folders/md/lgcc8l7571l9vt9sx0g0zflw0000gn/T//ccUH8gjh.s 			page 5


 202:Drivers/STM32F3xx_HAL_Driver/Src/stm32f3xx_hal_rcc.c ****   @endverbatim
 203:Drivers/STM32F3xx_HAL_Driver/Src/stm32f3xx_hal_rcc.c ****   * @{
 204:Drivers/STM32F3xx_HAL_Driver/Src/stm32f3xx_hal_rcc.c ****   */
 205:Drivers/STM32F3xx_HAL_Driver/Src/stm32f3xx_hal_rcc.c ****   
 206:Drivers/STM32F3xx_HAL_Driver/Src/stm32f3xx_hal_rcc.c **** /*
 207:Drivers/STM32F3xx_HAL_Driver/Src/stm32f3xx_hal_rcc.c ****   Additional consideration on the SYSCLK based on Latency settings:
 208:Drivers/STM32F3xx_HAL_Driver/Src/stm32f3xx_hal_rcc.c ****         +-----------------------------------------------+
 209:Drivers/STM32F3xx_HAL_Driver/Src/stm32f3xx_hal_rcc.c ****         | Latency       | SYSCLK clock frequency (MHz)  |
 210:Drivers/STM32F3xx_HAL_Driver/Src/stm32f3xx_hal_rcc.c ****         |---------------|-------------------------------|
 211:Drivers/STM32F3xx_HAL_Driver/Src/stm32f3xx_hal_rcc.c ****         |0WS(1CPU cycle)|       0 < SYSCLK <= 24        |
 212:Drivers/STM32F3xx_HAL_Driver/Src/stm32f3xx_hal_rcc.c ****         |---------------|-------------------------------|
 213:Drivers/STM32F3xx_HAL_Driver/Src/stm32f3xx_hal_rcc.c ****         |1WS(2CPU cycle)|      24 < SYSCLK <= 48        |
 214:Drivers/STM32F3xx_HAL_Driver/Src/stm32f3xx_hal_rcc.c ****         |---------------|-------------------------------|
 215:Drivers/STM32F3xx_HAL_Driver/Src/stm32f3xx_hal_rcc.c ****         |2WS(3CPU cycle)|      48 < SYSCLK <= 72        |
 216:Drivers/STM32F3xx_HAL_Driver/Src/stm32f3xx_hal_rcc.c ****         +-----------------------------------------------+
 217:Drivers/STM32F3xx_HAL_Driver/Src/stm32f3xx_hal_rcc.c ****   */
 218:Drivers/STM32F3xx_HAL_Driver/Src/stm32f3xx_hal_rcc.c **** 
 219:Drivers/STM32F3xx_HAL_Driver/Src/stm32f3xx_hal_rcc.c **** /**
 220:Drivers/STM32F3xx_HAL_Driver/Src/stm32f3xx_hal_rcc.c ****   * @brief  Resets the RCC clock configuration to the default reset state.
 221:Drivers/STM32F3xx_HAL_Driver/Src/stm32f3xx_hal_rcc.c ****   * @note   The default reset state of the clock configuration is given below:
 222:Drivers/STM32F3xx_HAL_Driver/Src/stm32f3xx_hal_rcc.c ****   *            - HSI ON and used as system clock source
 223:Drivers/STM32F3xx_HAL_Driver/Src/stm32f3xx_hal_rcc.c ****   *            - HSE and PLL OFF
 224:Drivers/STM32F3xx_HAL_Driver/Src/stm32f3xx_hal_rcc.c ****   *            - AHB, APB1 and APB2 prescaler set to 1.
 225:Drivers/STM32F3xx_HAL_Driver/Src/stm32f3xx_hal_rcc.c ****   *            - CSS and MCO1 OFF
 226:Drivers/STM32F3xx_HAL_Driver/Src/stm32f3xx_hal_rcc.c ****   *            - All interrupts disabled
 227:Drivers/STM32F3xx_HAL_Driver/Src/stm32f3xx_hal_rcc.c ****   * @note   This function does not modify the configuration of the
 228:Drivers/STM32F3xx_HAL_Driver/Src/stm32f3xx_hal_rcc.c ****   *            - Peripheral clocks
 229:Drivers/STM32F3xx_HAL_Driver/Src/stm32f3xx_hal_rcc.c ****   *            - LSI, LSE and RTC clocks
 230:Drivers/STM32F3xx_HAL_Driver/Src/stm32f3xx_hal_rcc.c ****   * @retval HAL status
 231:Drivers/STM32F3xx_HAL_Driver/Src/stm32f3xx_hal_rcc.c ****   */
 232:Drivers/STM32F3xx_HAL_Driver/Src/stm32f3xx_hal_rcc.c **** HAL_StatusTypeDef HAL_RCC_DeInit(void)
 233:Drivers/STM32F3xx_HAL_Driver/Src/stm32f3xx_hal_rcc.c **** {
  29              		.loc 1 233 1 view -0
  30              		.cfi_startproc
  31              		@ args = 0, pretend = 0, frame = 0
  32              		@ frame_needed = 0, uses_anonymous_args = 0
  33 0000 38B5     		push	{r3, r4, r5, lr}
  34              	.LCFI0:
  35              		.cfi_def_cfa_offset 16
  36              		.cfi_offset 3, -16
  37              		.cfi_offset 4, -12
  38              		.cfi_offset 5, -8
  39              		.cfi_offset 14, -4
 234:Drivers/STM32F3xx_HAL_Driver/Src/stm32f3xx_hal_rcc.c ****   uint32_t tickstart = 0;
  40              		.loc 1 234 3 view .LVU1
  41              	.LVL0:
 235:Drivers/STM32F3xx_HAL_Driver/Src/stm32f3xx_hal_rcc.c **** 
 236:Drivers/STM32F3xx_HAL_Driver/Src/stm32f3xx_hal_rcc.c ****   /* Set HSION bit */
 237:Drivers/STM32F3xx_HAL_Driver/Src/stm32f3xx_hal_rcc.c ****   SET_BIT(RCC->CR, RCC_CR_HSION);
  42              		.loc 1 237 3 view .LVU2
  43 0002 354A     		ldr	r2, .L18
  44 0004 1368     		ldr	r3, [r2]
  45 0006 43F00103 		orr	r3, r3, #1
  46 000a 1360     		str	r3, [r2]
 238:Drivers/STM32F3xx_HAL_Driver/Src/stm32f3xx_hal_rcc.c **** 
 239:Drivers/STM32F3xx_HAL_Driver/Src/stm32f3xx_hal_rcc.c ****   /* Insure HSIRDY bit is set before writing default HSITRIM value */
 240:Drivers/STM32F3xx_HAL_Driver/Src/stm32f3xx_hal_rcc.c ****   /* Get start tick */
ARM GAS  /var/folders/md/lgcc8l7571l9vt9sx0g0zflw0000gn/T//ccUH8gjh.s 			page 6


 241:Drivers/STM32F3xx_HAL_Driver/Src/stm32f3xx_hal_rcc.c ****   tickstart = HAL_GetTick();
  47              		.loc 1 241 3 view .LVU3
  48              		.loc 1 241 15 is_stmt 0 view .LVU4
  49 000c FFF7FEFF 		bl	HAL_GetTick
  50              	.LVL1:
  51 0010 0446     		mov	r4, r0
  52              	.LVL2:
 242:Drivers/STM32F3xx_HAL_Driver/Src/stm32f3xx_hal_rcc.c **** 
 243:Drivers/STM32F3xx_HAL_Driver/Src/stm32f3xx_hal_rcc.c ****   /* Wait till HSI is ready */
 244:Drivers/STM32F3xx_HAL_Driver/Src/stm32f3xx_hal_rcc.c ****   while(READ_BIT(RCC->CR, RCC_CR_HSIRDY) == RESET)
  53              		.loc 1 244 3 is_stmt 1 view .LVU5
  54              	.L2:
  55              		.loc 1 244 9 is_stmt 0 view .LVU6
  56 0012 314B     		ldr	r3, .L18
  57 0014 1B68     		ldr	r3, [r3]
  58              		.loc 1 244 8 view .LVU7
  59 0016 13F0020F 		tst	r3, #2
  60 001a 07D1     		bne	.L14
 245:Drivers/STM32F3xx_HAL_Driver/Src/stm32f3xx_hal_rcc.c ****   {
 246:Drivers/STM32F3xx_HAL_Driver/Src/stm32f3xx_hal_rcc.c ****     if((HAL_GetTick() - tickstart) > HSI_TIMEOUT_VALUE)
  61              		.loc 1 246 5 is_stmt 1 view .LVU8
  62              		.loc 1 246 9 is_stmt 0 view .LVU9
  63 001c FFF7FEFF 		bl	HAL_GetTick
  64              	.LVL3:
  65              		.loc 1 246 23 view .LVU10
  66 0020 001B     		subs	r0, r0, r4
  67              		.loc 1 246 7 view .LVU11
  68 0022 0228     		cmp	r0, #2
  69 0024 F5D9     		bls	.L2
 247:Drivers/STM32F3xx_HAL_Driver/Src/stm32f3xx_hal_rcc.c ****     {
 248:Drivers/STM32F3xx_HAL_Driver/Src/stm32f3xx_hal_rcc.c ****       return HAL_TIMEOUT;
  70              		.loc 1 248 14 view .LVU12
  71 0026 0324     		movs	r4, #3
  72              	.LVL4:
  73              	.L3:
 249:Drivers/STM32F3xx_HAL_Driver/Src/stm32f3xx_hal_rcc.c ****     }
 250:Drivers/STM32F3xx_HAL_Driver/Src/stm32f3xx_hal_rcc.c ****   }
 251:Drivers/STM32F3xx_HAL_Driver/Src/stm32f3xx_hal_rcc.c **** 
 252:Drivers/STM32F3xx_HAL_Driver/Src/stm32f3xx_hal_rcc.c ****   /* Set HSITRIM default value */
 253:Drivers/STM32F3xx_HAL_Driver/Src/stm32f3xx_hal_rcc.c ****   MODIFY_REG(RCC->CR, RCC_CR_HSITRIM, RCC_CR_HSITRIM_4);
 254:Drivers/STM32F3xx_HAL_Driver/Src/stm32f3xx_hal_rcc.c **** 
 255:Drivers/STM32F3xx_HAL_Driver/Src/stm32f3xx_hal_rcc.c ****   /* Reset SW[1:0], HPRE[3:0], PPRE1[2:0], PPRE2[2:0] and MCOSEL[2:0] bits */
 256:Drivers/STM32F3xx_HAL_Driver/Src/stm32f3xx_hal_rcc.c ****   CLEAR_BIT(RCC->CFGR, RCC_CFGR_SW | RCC_CFGR_HPRE | RCC_CFGR_PPRE1 | RCC_CFGR_PPRE2 | RCC_CFGR_MCO
 257:Drivers/STM32F3xx_HAL_Driver/Src/stm32f3xx_hal_rcc.c **** 
 258:Drivers/STM32F3xx_HAL_Driver/Src/stm32f3xx_hal_rcc.c ****   /* Insure HSI selected as system clock source */
 259:Drivers/STM32F3xx_HAL_Driver/Src/stm32f3xx_hal_rcc.c ****   /* Get start tick */
 260:Drivers/STM32F3xx_HAL_Driver/Src/stm32f3xx_hal_rcc.c ****   tickstart = HAL_GetTick();
 261:Drivers/STM32F3xx_HAL_Driver/Src/stm32f3xx_hal_rcc.c **** 
 262:Drivers/STM32F3xx_HAL_Driver/Src/stm32f3xx_hal_rcc.c ****   /* Wait till system clock source is ready */
 263:Drivers/STM32F3xx_HAL_Driver/Src/stm32f3xx_hal_rcc.c ****   while(READ_BIT(RCC->CFGR, RCC_CFGR_SWS) != RCC_CFGR_SWS_HSI)
 264:Drivers/STM32F3xx_HAL_Driver/Src/stm32f3xx_hal_rcc.c ****   {
 265:Drivers/STM32F3xx_HAL_Driver/Src/stm32f3xx_hal_rcc.c ****     if((HAL_GetTick() - tickstart) > CLOCKSWITCH_TIMEOUT_VALUE)
 266:Drivers/STM32F3xx_HAL_Driver/Src/stm32f3xx_hal_rcc.c ****     {
 267:Drivers/STM32F3xx_HAL_Driver/Src/stm32f3xx_hal_rcc.c ****       return HAL_TIMEOUT;
 268:Drivers/STM32F3xx_HAL_Driver/Src/stm32f3xx_hal_rcc.c ****     }
 269:Drivers/STM32F3xx_HAL_Driver/Src/stm32f3xx_hal_rcc.c ****   }
 270:Drivers/STM32F3xx_HAL_Driver/Src/stm32f3xx_hal_rcc.c **** 
ARM GAS  /var/folders/md/lgcc8l7571l9vt9sx0g0zflw0000gn/T//ccUH8gjh.s 			page 7


 271:Drivers/STM32F3xx_HAL_Driver/Src/stm32f3xx_hal_rcc.c ****   /* Update the SystemCoreClock global variable for HSI as system clock source */
 272:Drivers/STM32F3xx_HAL_Driver/Src/stm32f3xx_hal_rcc.c ****   SystemCoreClock = HSI_VALUE;
 273:Drivers/STM32F3xx_HAL_Driver/Src/stm32f3xx_hal_rcc.c **** 
 274:Drivers/STM32F3xx_HAL_Driver/Src/stm32f3xx_hal_rcc.c ****   /* Configure the source of time base considering new system clock settings  */
 275:Drivers/STM32F3xx_HAL_Driver/Src/stm32f3xx_hal_rcc.c ****   if(HAL_InitTick(TICK_INT_PRIORITY) != HAL_OK)
 276:Drivers/STM32F3xx_HAL_Driver/Src/stm32f3xx_hal_rcc.c ****   {
 277:Drivers/STM32F3xx_HAL_Driver/Src/stm32f3xx_hal_rcc.c ****     return HAL_ERROR;
 278:Drivers/STM32F3xx_HAL_Driver/Src/stm32f3xx_hal_rcc.c ****   }
 279:Drivers/STM32F3xx_HAL_Driver/Src/stm32f3xx_hal_rcc.c **** 
 280:Drivers/STM32F3xx_HAL_Driver/Src/stm32f3xx_hal_rcc.c ****   /* Reset HSEON, CSSON, PLLON bits */
 281:Drivers/STM32F3xx_HAL_Driver/Src/stm32f3xx_hal_rcc.c ****   CLEAR_BIT(RCC->CR, RCC_CR_PLLON | RCC_CR_CSSON | RCC_CR_HSEON);
 282:Drivers/STM32F3xx_HAL_Driver/Src/stm32f3xx_hal_rcc.c **** 
 283:Drivers/STM32F3xx_HAL_Driver/Src/stm32f3xx_hal_rcc.c ****   /* Reset HSEBYP bit */
 284:Drivers/STM32F3xx_HAL_Driver/Src/stm32f3xx_hal_rcc.c ****   CLEAR_BIT(RCC->CR, RCC_CR_HSEBYP);
 285:Drivers/STM32F3xx_HAL_Driver/Src/stm32f3xx_hal_rcc.c **** 
 286:Drivers/STM32F3xx_HAL_Driver/Src/stm32f3xx_hal_rcc.c ****   /* Insure PLLRDY is reset */
 287:Drivers/STM32F3xx_HAL_Driver/Src/stm32f3xx_hal_rcc.c ****   /* Get start tick */
 288:Drivers/STM32F3xx_HAL_Driver/Src/stm32f3xx_hal_rcc.c ****   tickstart = HAL_GetTick();
 289:Drivers/STM32F3xx_HAL_Driver/Src/stm32f3xx_hal_rcc.c ****   while(READ_BIT(RCC->CR, RCC_CR_PLLRDY) != 0U)
 290:Drivers/STM32F3xx_HAL_Driver/Src/stm32f3xx_hal_rcc.c ****   {
 291:Drivers/STM32F3xx_HAL_Driver/Src/stm32f3xx_hal_rcc.c ****     if((HAL_GetTick() - tickstart) > PLL_TIMEOUT_VALUE)
 292:Drivers/STM32F3xx_HAL_Driver/Src/stm32f3xx_hal_rcc.c ****     {
 293:Drivers/STM32F3xx_HAL_Driver/Src/stm32f3xx_hal_rcc.c ****       return HAL_TIMEOUT;
 294:Drivers/STM32F3xx_HAL_Driver/Src/stm32f3xx_hal_rcc.c ****     }
 295:Drivers/STM32F3xx_HAL_Driver/Src/stm32f3xx_hal_rcc.c ****   }
 296:Drivers/STM32F3xx_HAL_Driver/Src/stm32f3xx_hal_rcc.c **** 
 297:Drivers/STM32F3xx_HAL_Driver/Src/stm32f3xx_hal_rcc.c ****   /* Reset CFGR register */
 298:Drivers/STM32F3xx_HAL_Driver/Src/stm32f3xx_hal_rcc.c ****   CLEAR_REG(RCC->CFGR);
 299:Drivers/STM32F3xx_HAL_Driver/Src/stm32f3xx_hal_rcc.c **** 
 300:Drivers/STM32F3xx_HAL_Driver/Src/stm32f3xx_hal_rcc.c ****   /* Reset CFGR2 register */
 301:Drivers/STM32F3xx_HAL_Driver/Src/stm32f3xx_hal_rcc.c ****   CLEAR_REG(RCC->CFGR2);
 302:Drivers/STM32F3xx_HAL_Driver/Src/stm32f3xx_hal_rcc.c **** 
 303:Drivers/STM32F3xx_HAL_Driver/Src/stm32f3xx_hal_rcc.c ****   /* Reset CFGR3 register */
 304:Drivers/STM32F3xx_HAL_Driver/Src/stm32f3xx_hal_rcc.c ****   CLEAR_REG(RCC->CFGR3);
 305:Drivers/STM32F3xx_HAL_Driver/Src/stm32f3xx_hal_rcc.c **** 
 306:Drivers/STM32F3xx_HAL_Driver/Src/stm32f3xx_hal_rcc.c ****   /* Clear all interrupt flags */
 307:Drivers/STM32F3xx_HAL_Driver/Src/stm32f3xx_hal_rcc.c ****   SET_BIT(RCC->CIR, RCC_CIR_LSIRDYC | RCC_CIR_LSERDYC | RCC_CIR_HSIRDYC | RCC_CIR_HSERDYC | RCC_CIR
 308:Drivers/STM32F3xx_HAL_Driver/Src/stm32f3xx_hal_rcc.c **** 
 309:Drivers/STM32F3xx_HAL_Driver/Src/stm32f3xx_hal_rcc.c ****   /* Disable all interrupts */
 310:Drivers/STM32F3xx_HAL_Driver/Src/stm32f3xx_hal_rcc.c ****   CLEAR_REG(RCC->CIR);
 311:Drivers/STM32F3xx_HAL_Driver/Src/stm32f3xx_hal_rcc.c **** 
 312:Drivers/STM32F3xx_HAL_Driver/Src/stm32f3xx_hal_rcc.c ****   /* Reset all CSR flags */
 313:Drivers/STM32F3xx_HAL_Driver/Src/stm32f3xx_hal_rcc.c ****   __HAL_RCC_CLEAR_RESET_FLAGS();
 314:Drivers/STM32F3xx_HAL_Driver/Src/stm32f3xx_hal_rcc.c **** 
 315:Drivers/STM32F3xx_HAL_Driver/Src/stm32f3xx_hal_rcc.c ****   return HAL_OK;
 316:Drivers/STM32F3xx_HAL_Driver/Src/stm32f3xx_hal_rcc.c **** }
  74              		.loc 1 316 1 view .LVU13
  75 0028 2046     		mov	r0, r4
  76 002a 38BD     		pop	{r3, r4, r5, pc}
  77              	.LVL5:
  78              	.L14:
 253:Drivers/STM32F3xx_HAL_Driver/Src/stm32f3xx_hal_rcc.c **** 
  79              		.loc 1 253 3 is_stmt 1 view .LVU14
  80 002c 2A4A     		ldr	r2, .L18
  81 002e 1368     		ldr	r3, [r2]
  82 0030 23F0F803 		bic	r3, r3, #248
  83 0034 43F08003 		orr	r3, r3, #128
ARM GAS  /var/folders/md/lgcc8l7571l9vt9sx0g0zflw0000gn/T//ccUH8gjh.s 			page 8


  84 0038 1360     		str	r3, [r2]
 256:Drivers/STM32F3xx_HAL_Driver/Src/stm32f3xx_hal_rcc.c **** 
  85              		.loc 1 256 3 view .LVU15
  86 003a 5168     		ldr	r1, [r2, #4]
  87 003c 274B     		ldr	r3, .L18+4
  88 003e 0B40     		ands	r3, r3, r1
  89 0040 5360     		str	r3, [r2, #4]
 260:Drivers/STM32F3xx_HAL_Driver/Src/stm32f3xx_hal_rcc.c **** 
  90              		.loc 1 260 3 view .LVU16
 260:Drivers/STM32F3xx_HAL_Driver/Src/stm32f3xx_hal_rcc.c **** 
  91              		.loc 1 260 15 is_stmt 0 view .LVU17
  92 0042 FFF7FEFF 		bl	HAL_GetTick
  93              	.LVL6:
  94 0046 0446     		mov	r4, r0
  95              	.LVL7:
 263:Drivers/STM32F3xx_HAL_Driver/Src/stm32f3xx_hal_rcc.c ****   {
  96              		.loc 1 263 3 is_stmt 1 view .LVU18
  97              	.L5:
 263:Drivers/STM32F3xx_HAL_Driver/Src/stm32f3xx_hal_rcc.c ****   {
  98              		.loc 1 263 9 is_stmt 0 view .LVU19
  99 0048 234B     		ldr	r3, .L18
 100 004a 5B68     		ldr	r3, [r3, #4]
 263:Drivers/STM32F3xx_HAL_Driver/Src/stm32f3xx_hal_rcc.c ****   {
 101              		.loc 1 263 8 view .LVU20
 102 004c 13F00C0F 		tst	r3, #12
 103 0050 08D0     		beq	.L15
 265:Drivers/STM32F3xx_HAL_Driver/Src/stm32f3xx_hal_rcc.c ****     {
 104              		.loc 1 265 5 is_stmt 1 view .LVU21
 265:Drivers/STM32F3xx_HAL_Driver/Src/stm32f3xx_hal_rcc.c ****     {
 105              		.loc 1 265 9 is_stmt 0 view .LVU22
 106 0052 FFF7FEFF 		bl	HAL_GetTick
 107              	.LVL8:
 265:Drivers/STM32F3xx_HAL_Driver/Src/stm32f3xx_hal_rcc.c ****     {
 108              		.loc 1 265 23 view .LVU23
 109 0056 001B     		subs	r0, r0, r4
 265:Drivers/STM32F3xx_HAL_Driver/Src/stm32f3xx_hal_rcc.c ****     {
 110              		.loc 1 265 7 view .LVU24
 111 0058 41F28833 		movw	r3, #5000
 112 005c 9842     		cmp	r0, r3
 113 005e F3D9     		bls	.L5
 267:Drivers/STM32F3xx_HAL_Driver/Src/stm32f3xx_hal_rcc.c ****     }
 114              		.loc 1 267 14 view .LVU25
 115 0060 0324     		movs	r4, #3
 116              	.LVL9:
 267:Drivers/STM32F3xx_HAL_Driver/Src/stm32f3xx_hal_rcc.c ****     }
 117              		.loc 1 267 14 view .LVU26
 118 0062 E1E7     		b	.L3
 119              	.LVL10:
 120              	.L15:
 272:Drivers/STM32F3xx_HAL_Driver/Src/stm32f3xx_hal_rcc.c **** 
 121              		.loc 1 272 3 is_stmt 1 view .LVU27
 272:Drivers/STM32F3xx_HAL_Driver/Src/stm32f3xx_hal_rcc.c **** 
 122              		.loc 1 272 19 is_stmt 0 view .LVU28
 123 0064 1E4B     		ldr	r3, .L18+8
 124 0066 1F4A     		ldr	r2, .L18+12
 125 0068 1A60     		str	r2, [r3]
 275:Drivers/STM32F3xx_HAL_Driver/Src/stm32f3xx_hal_rcc.c ****   {
ARM GAS  /var/folders/md/lgcc8l7571l9vt9sx0g0zflw0000gn/T//ccUH8gjh.s 			page 9


 126              		.loc 1 275 3 is_stmt 1 view .LVU29
 275:Drivers/STM32F3xx_HAL_Driver/Src/stm32f3xx_hal_rcc.c ****   {
 127              		.loc 1 275 6 is_stmt 0 view .LVU30
 128 006a 0020     		movs	r0, #0
 129 006c FFF7FEFF 		bl	HAL_InitTick
 130              	.LVL11:
 275:Drivers/STM32F3xx_HAL_Driver/Src/stm32f3xx_hal_rcc.c ****   {
 131              		.loc 1 275 5 view .LVU31
 132 0070 0446     		mov	r4, r0
 133              	.LVL12:
 275:Drivers/STM32F3xx_HAL_Driver/Src/stm32f3xx_hal_rcc.c ****   {
 134              		.loc 1 275 5 view .LVU32
 135 0072 08B1     		cbz	r0, .L16
 277:Drivers/STM32F3xx_HAL_Driver/Src/stm32f3xx_hal_rcc.c ****   }
 136              		.loc 1 277 12 view .LVU33
 137 0074 0124     		movs	r4, #1
 138 0076 D7E7     		b	.L3
 139              	.L16:
 281:Drivers/STM32F3xx_HAL_Driver/Src/stm32f3xx_hal_rcc.c **** 
 140              		.loc 1 281 3 is_stmt 1 view .LVU34
 141 0078 174A     		ldr	r2, .L18
 142 007a 1368     		ldr	r3, [r2]
 143 007c 23F08473 		bic	r3, r3, #17301504
 144 0080 23F48033 		bic	r3, r3, #65536
 145 0084 1360     		str	r3, [r2]
 284:Drivers/STM32F3xx_HAL_Driver/Src/stm32f3xx_hal_rcc.c **** 
 146              		.loc 1 284 3 view .LVU35
 147 0086 1368     		ldr	r3, [r2]
 148 0088 23F48023 		bic	r3, r3, #262144
 149 008c 1360     		str	r3, [r2]
 288:Drivers/STM32F3xx_HAL_Driver/Src/stm32f3xx_hal_rcc.c ****   while(READ_BIT(RCC->CR, RCC_CR_PLLRDY) != 0U)
 150              		.loc 1 288 3 view .LVU36
 288:Drivers/STM32F3xx_HAL_Driver/Src/stm32f3xx_hal_rcc.c ****   while(READ_BIT(RCC->CR, RCC_CR_PLLRDY) != 0U)
 151              		.loc 1 288 15 is_stmt 0 view .LVU37
 152 008e FFF7FEFF 		bl	HAL_GetTick
 153              	.LVL13:
 154 0092 0546     		mov	r5, r0
 155              	.LVL14:
 289:Drivers/STM32F3xx_HAL_Driver/Src/stm32f3xx_hal_rcc.c ****   {
 156              		.loc 1 289 3 is_stmt 1 view .LVU38
 157              	.L7:
 289:Drivers/STM32F3xx_HAL_Driver/Src/stm32f3xx_hal_rcc.c ****   {
 158              		.loc 1 289 9 is_stmt 0 view .LVU39
 159 0094 104B     		ldr	r3, .L18
 160 0096 1B68     		ldr	r3, [r3]
 289:Drivers/STM32F3xx_HAL_Driver/Src/stm32f3xx_hal_rcc.c ****   {
 161              		.loc 1 289 8 view .LVU40
 162 0098 13F0007F 		tst	r3, #33554432
 163 009c 06D0     		beq	.L17
 291:Drivers/STM32F3xx_HAL_Driver/Src/stm32f3xx_hal_rcc.c ****     {
 164              		.loc 1 291 5 is_stmt 1 view .LVU41
 291:Drivers/STM32F3xx_HAL_Driver/Src/stm32f3xx_hal_rcc.c ****     {
 165              		.loc 1 291 9 is_stmt 0 view .LVU42
 166 009e FFF7FEFF 		bl	HAL_GetTick
 167              	.LVL15:
 291:Drivers/STM32F3xx_HAL_Driver/Src/stm32f3xx_hal_rcc.c ****     {
 168              		.loc 1 291 23 view .LVU43
ARM GAS  /var/folders/md/lgcc8l7571l9vt9sx0g0zflw0000gn/T//ccUH8gjh.s 			page 10


 169 00a2 401B     		subs	r0, r0, r5
 291:Drivers/STM32F3xx_HAL_Driver/Src/stm32f3xx_hal_rcc.c ****     {
 170              		.loc 1 291 7 view .LVU44
 171 00a4 0228     		cmp	r0, #2
 172 00a6 F5D9     		bls	.L7
 293:Drivers/STM32F3xx_HAL_Driver/Src/stm32f3xx_hal_rcc.c ****     }
 173              		.loc 1 293 14 view .LVU45
 174 00a8 0324     		movs	r4, #3
 175 00aa BDE7     		b	.L3
 176              	.L17:
 298:Drivers/STM32F3xx_HAL_Driver/Src/stm32f3xx_hal_rcc.c **** 
 177              		.loc 1 298 3 is_stmt 1 view .LVU46
 178 00ac 0A4B     		ldr	r3, .L18
 179 00ae 0022     		movs	r2, #0
 180 00b0 5A60     		str	r2, [r3, #4]
 301:Drivers/STM32F3xx_HAL_Driver/Src/stm32f3xx_hal_rcc.c **** 
 181              		.loc 1 301 3 view .LVU47
 182 00b2 DA62     		str	r2, [r3, #44]
 304:Drivers/STM32F3xx_HAL_Driver/Src/stm32f3xx_hal_rcc.c **** 
 183              		.loc 1 304 3 view .LVU48
 184 00b4 1A63     		str	r2, [r3, #48]
 307:Drivers/STM32F3xx_HAL_Driver/Src/stm32f3xx_hal_rcc.c **** 
 185              		.loc 1 307 3 view .LVU49
 186 00b6 9968     		ldr	r1, [r3, #8]
 187 00b8 41F41F01 		orr	r1, r1, #10420224
 188 00bc 9960     		str	r1, [r3, #8]
 310:Drivers/STM32F3xx_HAL_Driver/Src/stm32f3xx_hal_rcc.c **** 
 189              		.loc 1 310 3 view .LVU50
 190 00be 9A60     		str	r2, [r3, #8]
 313:Drivers/STM32F3xx_HAL_Driver/Src/stm32f3xx_hal_rcc.c **** 
 191              		.loc 1 313 3 view .LVU51
 192              	.LVL16:
 193              	.LBB168:
 194              	.LBI168:
 195              		.file 2 "Drivers/CMSIS/Include/cmsis_gcc.h"
   1:Drivers/CMSIS/Include/cmsis_gcc.h **** /**************************************************************************//**
   2:Drivers/CMSIS/Include/cmsis_gcc.h ****  * @file     cmsis_gcc.h
   3:Drivers/CMSIS/Include/cmsis_gcc.h ****  * @brief    CMSIS Cortex-M Core Function/Instruction Header File
   4:Drivers/CMSIS/Include/cmsis_gcc.h ****  * @version  V4.30
   5:Drivers/CMSIS/Include/cmsis_gcc.h ****  * @date     20. October 2015
   6:Drivers/CMSIS/Include/cmsis_gcc.h ****  ******************************************************************************/
   7:Drivers/CMSIS/Include/cmsis_gcc.h **** /* Copyright (c) 2009 - 2015 ARM LIMITED
   8:Drivers/CMSIS/Include/cmsis_gcc.h **** 
   9:Drivers/CMSIS/Include/cmsis_gcc.h ****    All rights reserved.
  10:Drivers/CMSIS/Include/cmsis_gcc.h ****    Redistribution and use in source and binary forms, with or without
  11:Drivers/CMSIS/Include/cmsis_gcc.h ****    modification, are permitted provided that the following conditions are met:
  12:Drivers/CMSIS/Include/cmsis_gcc.h ****    - Redistributions of source code must retain the above copyright
  13:Drivers/CMSIS/Include/cmsis_gcc.h ****      notice, this list of conditions and the following disclaimer.
  14:Drivers/CMSIS/Include/cmsis_gcc.h ****    - Redistributions in binary form must reproduce the above copyright
  15:Drivers/CMSIS/Include/cmsis_gcc.h ****      notice, this list of conditions and the following disclaimer in the
  16:Drivers/CMSIS/Include/cmsis_gcc.h ****      documentation and/or other materials provided with the distribution.
  17:Drivers/CMSIS/Include/cmsis_gcc.h ****    - Neither the name of ARM nor the names of its contributors may be used
  18:Drivers/CMSIS/Include/cmsis_gcc.h ****      to endorse or promote products derived from this software without
  19:Drivers/CMSIS/Include/cmsis_gcc.h ****      specific prior written permission.
  20:Drivers/CMSIS/Include/cmsis_gcc.h ****    *
  21:Drivers/CMSIS/Include/cmsis_gcc.h ****    THIS SOFTWARE IS PROVIDED BY THE COPYRIGHT HOLDERS AND CONTRIBUTORS "AS IS"
  22:Drivers/CMSIS/Include/cmsis_gcc.h ****    AND ANY EXPRESS OR IMPLIED WARRANTIES, INCLUDING, BUT NOT LIMITED TO, THE
ARM GAS  /var/folders/md/lgcc8l7571l9vt9sx0g0zflw0000gn/T//ccUH8gjh.s 			page 11


  23:Drivers/CMSIS/Include/cmsis_gcc.h ****    IMPLIED WARRANTIES OF MERCHANTABILITY AND FITNESS FOR A PARTICULAR PURPOSE
  24:Drivers/CMSIS/Include/cmsis_gcc.h ****    ARE DISCLAIMED. IN NO EVENT SHALL COPYRIGHT HOLDERS AND CONTRIBUTORS BE
  25:Drivers/CMSIS/Include/cmsis_gcc.h ****    LIABLE FOR ANY DIRECT, INDIRECT, INCIDENTAL, SPECIAL, EXEMPLARY, OR
  26:Drivers/CMSIS/Include/cmsis_gcc.h ****    CONSEQUENTIAL DAMAGES (INCLUDING, BUT NOT LIMITED TO, PROCUREMENT OF
  27:Drivers/CMSIS/Include/cmsis_gcc.h ****    SUBSTITUTE GOODS OR SERVICES; LOSS OF USE, DATA, OR PROFITS; OR BUSINESS
  28:Drivers/CMSIS/Include/cmsis_gcc.h ****    INTERRUPTION) HOWEVER CAUSED AND ON ANY THEORY OF LIABILITY, WHETHER IN
  29:Drivers/CMSIS/Include/cmsis_gcc.h ****    CONTRACT, STRICT LIABILITY, OR TORT (INCLUDING NEGLIGENCE OR OTHERWISE)
  30:Drivers/CMSIS/Include/cmsis_gcc.h ****    ARISING IN ANY WAY OUT OF THE USE OF THIS SOFTWARE, EVEN IF ADVISED OF THE
  31:Drivers/CMSIS/Include/cmsis_gcc.h ****    POSSIBILITY OF SUCH DAMAGE.
  32:Drivers/CMSIS/Include/cmsis_gcc.h ****    ---------------------------------------------------------------------------*/
  33:Drivers/CMSIS/Include/cmsis_gcc.h **** 
  34:Drivers/CMSIS/Include/cmsis_gcc.h **** 
  35:Drivers/CMSIS/Include/cmsis_gcc.h **** #ifndef __CMSIS_GCC_H
  36:Drivers/CMSIS/Include/cmsis_gcc.h **** #define __CMSIS_GCC_H
  37:Drivers/CMSIS/Include/cmsis_gcc.h **** 
  38:Drivers/CMSIS/Include/cmsis_gcc.h **** /* ignore some GCC warnings */
  39:Drivers/CMSIS/Include/cmsis_gcc.h **** #if defined ( __GNUC__ )
  40:Drivers/CMSIS/Include/cmsis_gcc.h **** #pragma GCC diagnostic push
  41:Drivers/CMSIS/Include/cmsis_gcc.h **** #pragma GCC diagnostic ignored "-Wsign-conversion"
  42:Drivers/CMSIS/Include/cmsis_gcc.h **** #pragma GCC diagnostic ignored "-Wconversion"
  43:Drivers/CMSIS/Include/cmsis_gcc.h **** #pragma GCC diagnostic ignored "-Wunused-parameter"
  44:Drivers/CMSIS/Include/cmsis_gcc.h **** #endif
  45:Drivers/CMSIS/Include/cmsis_gcc.h **** 
  46:Drivers/CMSIS/Include/cmsis_gcc.h **** 
  47:Drivers/CMSIS/Include/cmsis_gcc.h **** /* ###########################  Core Function Access  ########################### */
  48:Drivers/CMSIS/Include/cmsis_gcc.h **** /** \ingroup  CMSIS_Core_FunctionInterface
  49:Drivers/CMSIS/Include/cmsis_gcc.h ****     \defgroup CMSIS_Core_RegAccFunctions CMSIS Core Register Access Functions
  50:Drivers/CMSIS/Include/cmsis_gcc.h ****   @{
  51:Drivers/CMSIS/Include/cmsis_gcc.h ****  */
  52:Drivers/CMSIS/Include/cmsis_gcc.h **** 
  53:Drivers/CMSIS/Include/cmsis_gcc.h **** /**
  54:Drivers/CMSIS/Include/cmsis_gcc.h ****   \brief   Enable IRQ Interrupts
  55:Drivers/CMSIS/Include/cmsis_gcc.h ****   \details Enables IRQ interrupts by clearing the I-bit in the CPSR.
  56:Drivers/CMSIS/Include/cmsis_gcc.h ****            Can only be executed in Privileged modes.
  57:Drivers/CMSIS/Include/cmsis_gcc.h ****  */
  58:Drivers/CMSIS/Include/cmsis_gcc.h **** __attribute__( ( always_inline ) ) __STATIC_INLINE void __enable_irq(void)
  59:Drivers/CMSIS/Include/cmsis_gcc.h **** {
  60:Drivers/CMSIS/Include/cmsis_gcc.h ****   __ASM volatile ("cpsie i" : : : "memory");
  61:Drivers/CMSIS/Include/cmsis_gcc.h **** }
  62:Drivers/CMSIS/Include/cmsis_gcc.h **** 
  63:Drivers/CMSIS/Include/cmsis_gcc.h **** 
  64:Drivers/CMSIS/Include/cmsis_gcc.h **** /**
  65:Drivers/CMSIS/Include/cmsis_gcc.h ****   \brief   Disable IRQ Interrupts
  66:Drivers/CMSIS/Include/cmsis_gcc.h ****   \details Disables IRQ interrupts by setting the I-bit in the CPSR.
  67:Drivers/CMSIS/Include/cmsis_gcc.h ****   Can only be executed in Privileged modes.
  68:Drivers/CMSIS/Include/cmsis_gcc.h ****  */
  69:Drivers/CMSIS/Include/cmsis_gcc.h **** __attribute__( ( always_inline ) ) __STATIC_INLINE void __disable_irq(void)
  70:Drivers/CMSIS/Include/cmsis_gcc.h **** {
  71:Drivers/CMSIS/Include/cmsis_gcc.h ****   __ASM volatile ("cpsid i" : : : "memory");
  72:Drivers/CMSIS/Include/cmsis_gcc.h **** }
  73:Drivers/CMSIS/Include/cmsis_gcc.h **** 
  74:Drivers/CMSIS/Include/cmsis_gcc.h **** 
  75:Drivers/CMSIS/Include/cmsis_gcc.h **** /**
  76:Drivers/CMSIS/Include/cmsis_gcc.h ****   \brief   Get Control Register
  77:Drivers/CMSIS/Include/cmsis_gcc.h ****   \details Returns the content of the Control Register.
  78:Drivers/CMSIS/Include/cmsis_gcc.h ****   \return               Control Register value
  79:Drivers/CMSIS/Include/cmsis_gcc.h ****  */
ARM GAS  /var/folders/md/lgcc8l7571l9vt9sx0g0zflw0000gn/T//ccUH8gjh.s 			page 12


  80:Drivers/CMSIS/Include/cmsis_gcc.h **** __attribute__( ( always_inline ) ) __STATIC_INLINE uint32_t __get_CONTROL(void)
  81:Drivers/CMSIS/Include/cmsis_gcc.h **** {
  82:Drivers/CMSIS/Include/cmsis_gcc.h ****   uint32_t result;
  83:Drivers/CMSIS/Include/cmsis_gcc.h **** 
  84:Drivers/CMSIS/Include/cmsis_gcc.h ****   __ASM volatile ("MRS %0, control" : "=r" (result) );
  85:Drivers/CMSIS/Include/cmsis_gcc.h ****   return(result);
  86:Drivers/CMSIS/Include/cmsis_gcc.h **** }
  87:Drivers/CMSIS/Include/cmsis_gcc.h **** 
  88:Drivers/CMSIS/Include/cmsis_gcc.h **** 
  89:Drivers/CMSIS/Include/cmsis_gcc.h **** /**
  90:Drivers/CMSIS/Include/cmsis_gcc.h ****   \brief   Set Control Register
  91:Drivers/CMSIS/Include/cmsis_gcc.h ****   \details Writes the given value to the Control Register.
  92:Drivers/CMSIS/Include/cmsis_gcc.h ****   \param [in]    control  Control Register value to set
  93:Drivers/CMSIS/Include/cmsis_gcc.h ****  */
  94:Drivers/CMSIS/Include/cmsis_gcc.h **** __attribute__( ( always_inline ) ) __STATIC_INLINE void __set_CONTROL(uint32_t control)
  95:Drivers/CMSIS/Include/cmsis_gcc.h **** {
  96:Drivers/CMSIS/Include/cmsis_gcc.h ****   __ASM volatile ("MSR control, %0" : : "r" (control) : "memory");
  97:Drivers/CMSIS/Include/cmsis_gcc.h **** }
  98:Drivers/CMSIS/Include/cmsis_gcc.h **** 
  99:Drivers/CMSIS/Include/cmsis_gcc.h **** 
 100:Drivers/CMSIS/Include/cmsis_gcc.h **** /**
 101:Drivers/CMSIS/Include/cmsis_gcc.h ****   \brief   Get IPSR Register
 102:Drivers/CMSIS/Include/cmsis_gcc.h ****   \details Returns the content of the IPSR Register.
 103:Drivers/CMSIS/Include/cmsis_gcc.h ****   \return               IPSR Register value
 104:Drivers/CMSIS/Include/cmsis_gcc.h ****  */
 105:Drivers/CMSIS/Include/cmsis_gcc.h **** __attribute__( ( always_inline ) ) __STATIC_INLINE uint32_t __get_IPSR(void)
 106:Drivers/CMSIS/Include/cmsis_gcc.h **** {
 107:Drivers/CMSIS/Include/cmsis_gcc.h ****   uint32_t result;
 108:Drivers/CMSIS/Include/cmsis_gcc.h **** 
 109:Drivers/CMSIS/Include/cmsis_gcc.h ****   __ASM volatile ("MRS %0, ipsr" : "=r" (result) );
 110:Drivers/CMSIS/Include/cmsis_gcc.h ****   return(result);
 111:Drivers/CMSIS/Include/cmsis_gcc.h **** }
 112:Drivers/CMSIS/Include/cmsis_gcc.h **** 
 113:Drivers/CMSIS/Include/cmsis_gcc.h **** 
 114:Drivers/CMSIS/Include/cmsis_gcc.h **** /**
 115:Drivers/CMSIS/Include/cmsis_gcc.h ****   \brief   Get APSR Register
 116:Drivers/CMSIS/Include/cmsis_gcc.h ****   \details Returns the content of the APSR Register.
 117:Drivers/CMSIS/Include/cmsis_gcc.h ****   \return               APSR Register value
 118:Drivers/CMSIS/Include/cmsis_gcc.h ****  */
 119:Drivers/CMSIS/Include/cmsis_gcc.h **** __attribute__( ( always_inline ) ) __STATIC_INLINE uint32_t __get_APSR(void)
 120:Drivers/CMSIS/Include/cmsis_gcc.h **** {
 121:Drivers/CMSIS/Include/cmsis_gcc.h ****   uint32_t result;
 122:Drivers/CMSIS/Include/cmsis_gcc.h **** 
 123:Drivers/CMSIS/Include/cmsis_gcc.h ****   __ASM volatile ("MRS %0, apsr" : "=r" (result) );
 124:Drivers/CMSIS/Include/cmsis_gcc.h ****   return(result);
 125:Drivers/CMSIS/Include/cmsis_gcc.h **** }
 126:Drivers/CMSIS/Include/cmsis_gcc.h **** 
 127:Drivers/CMSIS/Include/cmsis_gcc.h **** 
 128:Drivers/CMSIS/Include/cmsis_gcc.h **** /**
 129:Drivers/CMSIS/Include/cmsis_gcc.h ****   \brief   Get xPSR Register
 130:Drivers/CMSIS/Include/cmsis_gcc.h ****   \details Returns the content of the xPSR Register.
 131:Drivers/CMSIS/Include/cmsis_gcc.h **** 
 132:Drivers/CMSIS/Include/cmsis_gcc.h ****     \return               xPSR Register value
 133:Drivers/CMSIS/Include/cmsis_gcc.h ****  */
 134:Drivers/CMSIS/Include/cmsis_gcc.h **** __attribute__( ( always_inline ) ) __STATIC_INLINE uint32_t __get_xPSR(void)
 135:Drivers/CMSIS/Include/cmsis_gcc.h **** {
 136:Drivers/CMSIS/Include/cmsis_gcc.h ****   uint32_t result;
ARM GAS  /var/folders/md/lgcc8l7571l9vt9sx0g0zflw0000gn/T//ccUH8gjh.s 			page 13


 137:Drivers/CMSIS/Include/cmsis_gcc.h **** 
 138:Drivers/CMSIS/Include/cmsis_gcc.h ****   __ASM volatile ("MRS %0, xpsr" : "=r" (result) );
 139:Drivers/CMSIS/Include/cmsis_gcc.h ****   return(result);
 140:Drivers/CMSIS/Include/cmsis_gcc.h **** }
 141:Drivers/CMSIS/Include/cmsis_gcc.h **** 
 142:Drivers/CMSIS/Include/cmsis_gcc.h **** 
 143:Drivers/CMSIS/Include/cmsis_gcc.h **** /**
 144:Drivers/CMSIS/Include/cmsis_gcc.h ****   \brief   Get Process Stack Pointer
 145:Drivers/CMSIS/Include/cmsis_gcc.h ****   \details Returns the current value of the Process Stack Pointer (PSP).
 146:Drivers/CMSIS/Include/cmsis_gcc.h ****   \return               PSP Register value
 147:Drivers/CMSIS/Include/cmsis_gcc.h ****  */
 148:Drivers/CMSIS/Include/cmsis_gcc.h **** __attribute__( ( always_inline ) ) __STATIC_INLINE uint32_t __get_PSP(void)
 149:Drivers/CMSIS/Include/cmsis_gcc.h **** {
 150:Drivers/CMSIS/Include/cmsis_gcc.h ****   register uint32_t result;
 151:Drivers/CMSIS/Include/cmsis_gcc.h **** 
 152:Drivers/CMSIS/Include/cmsis_gcc.h ****   __ASM volatile ("MRS %0, psp\n"  : "=r" (result) );
 153:Drivers/CMSIS/Include/cmsis_gcc.h ****   return(result);
 154:Drivers/CMSIS/Include/cmsis_gcc.h **** }
 155:Drivers/CMSIS/Include/cmsis_gcc.h **** 
 156:Drivers/CMSIS/Include/cmsis_gcc.h **** 
 157:Drivers/CMSIS/Include/cmsis_gcc.h **** /**
 158:Drivers/CMSIS/Include/cmsis_gcc.h ****   \brief   Set Process Stack Pointer
 159:Drivers/CMSIS/Include/cmsis_gcc.h ****   \details Assigns the given value to the Process Stack Pointer (PSP).
 160:Drivers/CMSIS/Include/cmsis_gcc.h ****   \param [in]    topOfProcStack  Process Stack Pointer value to set
 161:Drivers/CMSIS/Include/cmsis_gcc.h ****  */
 162:Drivers/CMSIS/Include/cmsis_gcc.h **** __attribute__( ( always_inline ) ) __STATIC_INLINE void __set_PSP(uint32_t topOfProcStack)
 163:Drivers/CMSIS/Include/cmsis_gcc.h **** {
 164:Drivers/CMSIS/Include/cmsis_gcc.h ****   __ASM volatile ("MSR psp, %0\n" : : "r" (topOfProcStack) : "sp");
 165:Drivers/CMSIS/Include/cmsis_gcc.h **** }
 166:Drivers/CMSIS/Include/cmsis_gcc.h **** 
 167:Drivers/CMSIS/Include/cmsis_gcc.h **** 
 168:Drivers/CMSIS/Include/cmsis_gcc.h **** /**
 169:Drivers/CMSIS/Include/cmsis_gcc.h ****   \brief   Get Main Stack Pointer
 170:Drivers/CMSIS/Include/cmsis_gcc.h ****   \details Returns the current value of the Main Stack Pointer (MSP).
 171:Drivers/CMSIS/Include/cmsis_gcc.h ****   \return               MSP Register value
 172:Drivers/CMSIS/Include/cmsis_gcc.h ****  */
 173:Drivers/CMSIS/Include/cmsis_gcc.h **** __attribute__( ( always_inline ) ) __STATIC_INLINE uint32_t __get_MSP(void)
 174:Drivers/CMSIS/Include/cmsis_gcc.h **** {
 175:Drivers/CMSIS/Include/cmsis_gcc.h ****   register uint32_t result;
 176:Drivers/CMSIS/Include/cmsis_gcc.h **** 
 177:Drivers/CMSIS/Include/cmsis_gcc.h ****   __ASM volatile ("MRS %0, msp\n" : "=r" (result) );
 178:Drivers/CMSIS/Include/cmsis_gcc.h ****   return(result);
 179:Drivers/CMSIS/Include/cmsis_gcc.h **** }
 180:Drivers/CMSIS/Include/cmsis_gcc.h **** 
 181:Drivers/CMSIS/Include/cmsis_gcc.h **** 
 182:Drivers/CMSIS/Include/cmsis_gcc.h **** /**
 183:Drivers/CMSIS/Include/cmsis_gcc.h ****   \brief   Set Main Stack Pointer
 184:Drivers/CMSIS/Include/cmsis_gcc.h ****   \details Assigns the given value to the Main Stack Pointer (MSP).
 185:Drivers/CMSIS/Include/cmsis_gcc.h **** 
 186:Drivers/CMSIS/Include/cmsis_gcc.h ****     \param [in]    topOfMainStack  Main Stack Pointer value to set
 187:Drivers/CMSIS/Include/cmsis_gcc.h ****  */
 188:Drivers/CMSIS/Include/cmsis_gcc.h **** __attribute__( ( always_inline ) ) __STATIC_INLINE void __set_MSP(uint32_t topOfMainStack)
 189:Drivers/CMSIS/Include/cmsis_gcc.h **** {
 190:Drivers/CMSIS/Include/cmsis_gcc.h ****   __ASM volatile ("MSR msp, %0\n" : : "r" (topOfMainStack) : "sp");
 191:Drivers/CMSIS/Include/cmsis_gcc.h **** }
 192:Drivers/CMSIS/Include/cmsis_gcc.h **** 
 193:Drivers/CMSIS/Include/cmsis_gcc.h **** 
ARM GAS  /var/folders/md/lgcc8l7571l9vt9sx0g0zflw0000gn/T//ccUH8gjh.s 			page 14


 194:Drivers/CMSIS/Include/cmsis_gcc.h **** /**
 195:Drivers/CMSIS/Include/cmsis_gcc.h ****   \brief   Get Priority Mask
 196:Drivers/CMSIS/Include/cmsis_gcc.h ****   \details Returns the current state of the priority mask bit from the Priority Mask Register.
 197:Drivers/CMSIS/Include/cmsis_gcc.h ****   \return               Priority Mask value
 198:Drivers/CMSIS/Include/cmsis_gcc.h ****  */
 199:Drivers/CMSIS/Include/cmsis_gcc.h **** __attribute__( ( always_inline ) ) __STATIC_INLINE uint32_t __get_PRIMASK(void)
 200:Drivers/CMSIS/Include/cmsis_gcc.h **** {
 201:Drivers/CMSIS/Include/cmsis_gcc.h ****   uint32_t result;
 202:Drivers/CMSIS/Include/cmsis_gcc.h **** 
 203:Drivers/CMSIS/Include/cmsis_gcc.h ****   __ASM volatile ("MRS %0, primask" : "=r" (result) );
 204:Drivers/CMSIS/Include/cmsis_gcc.h ****   return(result);
 205:Drivers/CMSIS/Include/cmsis_gcc.h **** }
 206:Drivers/CMSIS/Include/cmsis_gcc.h **** 
 207:Drivers/CMSIS/Include/cmsis_gcc.h **** 
 208:Drivers/CMSIS/Include/cmsis_gcc.h **** /**
 209:Drivers/CMSIS/Include/cmsis_gcc.h ****   \brief   Set Priority Mask
 210:Drivers/CMSIS/Include/cmsis_gcc.h ****   \details Assigns the given value to the Priority Mask Register.
 211:Drivers/CMSIS/Include/cmsis_gcc.h ****   \param [in]    priMask  Priority Mask
 212:Drivers/CMSIS/Include/cmsis_gcc.h ****  */
 213:Drivers/CMSIS/Include/cmsis_gcc.h **** __attribute__( ( always_inline ) ) __STATIC_INLINE void __set_PRIMASK(uint32_t priMask)
 214:Drivers/CMSIS/Include/cmsis_gcc.h **** {
 215:Drivers/CMSIS/Include/cmsis_gcc.h ****   __ASM volatile ("MSR primask, %0" : : "r" (priMask) : "memory");
 216:Drivers/CMSIS/Include/cmsis_gcc.h **** }
 217:Drivers/CMSIS/Include/cmsis_gcc.h **** 
 218:Drivers/CMSIS/Include/cmsis_gcc.h **** 
 219:Drivers/CMSIS/Include/cmsis_gcc.h **** #if       (__CORTEX_M >= 0x03U)
 220:Drivers/CMSIS/Include/cmsis_gcc.h **** 
 221:Drivers/CMSIS/Include/cmsis_gcc.h **** /**
 222:Drivers/CMSIS/Include/cmsis_gcc.h ****   \brief   Enable FIQ
 223:Drivers/CMSIS/Include/cmsis_gcc.h ****   \details Enables FIQ interrupts by clearing the F-bit in the CPSR.
 224:Drivers/CMSIS/Include/cmsis_gcc.h ****            Can only be executed in Privileged modes.
 225:Drivers/CMSIS/Include/cmsis_gcc.h ****  */
 226:Drivers/CMSIS/Include/cmsis_gcc.h **** __attribute__( ( always_inline ) ) __STATIC_INLINE void __enable_fault_irq(void)
 227:Drivers/CMSIS/Include/cmsis_gcc.h **** {
 228:Drivers/CMSIS/Include/cmsis_gcc.h ****   __ASM volatile ("cpsie f" : : : "memory");
 229:Drivers/CMSIS/Include/cmsis_gcc.h **** }
 230:Drivers/CMSIS/Include/cmsis_gcc.h **** 
 231:Drivers/CMSIS/Include/cmsis_gcc.h **** 
 232:Drivers/CMSIS/Include/cmsis_gcc.h **** /**
 233:Drivers/CMSIS/Include/cmsis_gcc.h ****   \brief   Disable FIQ
 234:Drivers/CMSIS/Include/cmsis_gcc.h ****   \details Disables FIQ interrupts by setting the F-bit in the CPSR.
 235:Drivers/CMSIS/Include/cmsis_gcc.h ****            Can only be executed in Privileged modes.
 236:Drivers/CMSIS/Include/cmsis_gcc.h ****  */
 237:Drivers/CMSIS/Include/cmsis_gcc.h **** __attribute__( ( always_inline ) ) __STATIC_INLINE void __disable_fault_irq(void)
 238:Drivers/CMSIS/Include/cmsis_gcc.h **** {
 239:Drivers/CMSIS/Include/cmsis_gcc.h ****   __ASM volatile ("cpsid f" : : : "memory");
 240:Drivers/CMSIS/Include/cmsis_gcc.h **** }
 241:Drivers/CMSIS/Include/cmsis_gcc.h **** 
 242:Drivers/CMSIS/Include/cmsis_gcc.h **** 
 243:Drivers/CMSIS/Include/cmsis_gcc.h **** /**
 244:Drivers/CMSIS/Include/cmsis_gcc.h ****   \brief   Get Base Priority
 245:Drivers/CMSIS/Include/cmsis_gcc.h ****   \details Returns the current value of the Base Priority register.
 246:Drivers/CMSIS/Include/cmsis_gcc.h ****   \return               Base Priority register value
 247:Drivers/CMSIS/Include/cmsis_gcc.h ****  */
 248:Drivers/CMSIS/Include/cmsis_gcc.h **** __attribute__( ( always_inline ) ) __STATIC_INLINE uint32_t __get_BASEPRI(void)
 249:Drivers/CMSIS/Include/cmsis_gcc.h **** {
 250:Drivers/CMSIS/Include/cmsis_gcc.h ****   uint32_t result;
ARM GAS  /var/folders/md/lgcc8l7571l9vt9sx0g0zflw0000gn/T//ccUH8gjh.s 			page 15


 251:Drivers/CMSIS/Include/cmsis_gcc.h **** 
 252:Drivers/CMSIS/Include/cmsis_gcc.h ****   __ASM volatile ("MRS %0, basepri" : "=r" (result) );
 253:Drivers/CMSIS/Include/cmsis_gcc.h ****   return(result);
 254:Drivers/CMSIS/Include/cmsis_gcc.h **** }
 255:Drivers/CMSIS/Include/cmsis_gcc.h **** 
 256:Drivers/CMSIS/Include/cmsis_gcc.h **** 
 257:Drivers/CMSIS/Include/cmsis_gcc.h **** /**
 258:Drivers/CMSIS/Include/cmsis_gcc.h ****   \brief   Set Base Priority
 259:Drivers/CMSIS/Include/cmsis_gcc.h ****   \details Assigns the given value to the Base Priority register.
 260:Drivers/CMSIS/Include/cmsis_gcc.h ****   \param [in]    basePri  Base Priority value to set
 261:Drivers/CMSIS/Include/cmsis_gcc.h ****  */
 262:Drivers/CMSIS/Include/cmsis_gcc.h **** __attribute__( ( always_inline ) ) __STATIC_INLINE void __set_BASEPRI(uint32_t value)
 263:Drivers/CMSIS/Include/cmsis_gcc.h **** {
 264:Drivers/CMSIS/Include/cmsis_gcc.h ****   __ASM volatile ("MSR basepri, %0" : : "r" (value) : "memory");
 265:Drivers/CMSIS/Include/cmsis_gcc.h **** }
 266:Drivers/CMSIS/Include/cmsis_gcc.h **** 
 267:Drivers/CMSIS/Include/cmsis_gcc.h **** 
 268:Drivers/CMSIS/Include/cmsis_gcc.h **** /**
 269:Drivers/CMSIS/Include/cmsis_gcc.h ****   \brief   Set Base Priority with condition
 270:Drivers/CMSIS/Include/cmsis_gcc.h ****   \details Assigns the given value to the Base Priority register only if BASEPRI masking is disable
 271:Drivers/CMSIS/Include/cmsis_gcc.h ****            or the new value increases the BASEPRI priority level.
 272:Drivers/CMSIS/Include/cmsis_gcc.h ****   \param [in]    basePri  Base Priority value to set
 273:Drivers/CMSIS/Include/cmsis_gcc.h ****  */
 274:Drivers/CMSIS/Include/cmsis_gcc.h **** __attribute__( ( always_inline ) ) __STATIC_INLINE void __set_BASEPRI_MAX(uint32_t value)
 275:Drivers/CMSIS/Include/cmsis_gcc.h **** {
 276:Drivers/CMSIS/Include/cmsis_gcc.h ****   __ASM volatile ("MSR basepri_max, %0" : : "r" (value) : "memory");
 277:Drivers/CMSIS/Include/cmsis_gcc.h **** }
 278:Drivers/CMSIS/Include/cmsis_gcc.h **** 
 279:Drivers/CMSIS/Include/cmsis_gcc.h **** 
 280:Drivers/CMSIS/Include/cmsis_gcc.h **** /**
 281:Drivers/CMSIS/Include/cmsis_gcc.h ****   \brief   Get Fault Mask
 282:Drivers/CMSIS/Include/cmsis_gcc.h ****   \details Returns the current value of the Fault Mask register.
 283:Drivers/CMSIS/Include/cmsis_gcc.h ****   \return               Fault Mask register value
 284:Drivers/CMSIS/Include/cmsis_gcc.h ****  */
 285:Drivers/CMSIS/Include/cmsis_gcc.h **** __attribute__( ( always_inline ) ) __STATIC_INLINE uint32_t __get_FAULTMASK(void)
 286:Drivers/CMSIS/Include/cmsis_gcc.h **** {
 287:Drivers/CMSIS/Include/cmsis_gcc.h ****   uint32_t result;
 288:Drivers/CMSIS/Include/cmsis_gcc.h **** 
 289:Drivers/CMSIS/Include/cmsis_gcc.h ****   __ASM volatile ("MRS %0, faultmask" : "=r" (result) );
 290:Drivers/CMSIS/Include/cmsis_gcc.h ****   return(result);
 291:Drivers/CMSIS/Include/cmsis_gcc.h **** }
 292:Drivers/CMSIS/Include/cmsis_gcc.h **** 
 293:Drivers/CMSIS/Include/cmsis_gcc.h **** 
 294:Drivers/CMSIS/Include/cmsis_gcc.h **** /**
 295:Drivers/CMSIS/Include/cmsis_gcc.h ****   \brief   Set Fault Mask
 296:Drivers/CMSIS/Include/cmsis_gcc.h ****   \details Assigns the given value to the Fault Mask register.
 297:Drivers/CMSIS/Include/cmsis_gcc.h ****   \param [in]    faultMask  Fault Mask value to set
 298:Drivers/CMSIS/Include/cmsis_gcc.h ****  */
 299:Drivers/CMSIS/Include/cmsis_gcc.h **** __attribute__( ( always_inline ) ) __STATIC_INLINE void __set_FAULTMASK(uint32_t faultMask)
 300:Drivers/CMSIS/Include/cmsis_gcc.h **** {
 301:Drivers/CMSIS/Include/cmsis_gcc.h ****   __ASM volatile ("MSR faultmask, %0" : : "r" (faultMask) : "memory");
 302:Drivers/CMSIS/Include/cmsis_gcc.h **** }
 303:Drivers/CMSIS/Include/cmsis_gcc.h **** 
 304:Drivers/CMSIS/Include/cmsis_gcc.h **** #endif /* (__CORTEX_M >= 0x03U) */
 305:Drivers/CMSIS/Include/cmsis_gcc.h **** 
 306:Drivers/CMSIS/Include/cmsis_gcc.h **** 
 307:Drivers/CMSIS/Include/cmsis_gcc.h **** #if       (__CORTEX_M == 0x04U) || (__CORTEX_M == 0x07U)
ARM GAS  /var/folders/md/lgcc8l7571l9vt9sx0g0zflw0000gn/T//ccUH8gjh.s 			page 16


 308:Drivers/CMSIS/Include/cmsis_gcc.h **** 
 309:Drivers/CMSIS/Include/cmsis_gcc.h **** /**
 310:Drivers/CMSIS/Include/cmsis_gcc.h ****   \brief   Get FPSCR
 311:Drivers/CMSIS/Include/cmsis_gcc.h ****   \details Returns the current value of the Floating Point Status/Control register.
 312:Drivers/CMSIS/Include/cmsis_gcc.h ****   \return               Floating Point Status/Control register value
 313:Drivers/CMSIS/Include/cmsis_gcc.h ****  */
 314:Drivers/CMSIS/Include/cmsis_gcc.h **** __attribute__( ( always_inline ) ) __STATIC_INLINE uint32_t __get_FPSCR(void)
 315:Drivers/CMSIS/Include/cmsis_gcc.h **** {
 316:Drivers/CMSIS/Include/cmsis_gcc.h **** #if (__FPU_PRESENT == 1U) && (__FPU_USED == 1U)
 317:Drivers/CMSIS/Include/cmsis_gcc.h ****   uint32_t result;
 318:Drivers/CMSIS/Include/cmsis_gcc.h **** 
 319:Drivers/CMSIS/Include/cmsis_gcc.h ****   /* Empty asm statement works as a scheduling barrier */
 320:Drivers/CMSIS/Include/cmsis_gcc.h ****   __ASM volatile ("");
 321:Drivers/CMSIS/Include/cmsis_gcc.h ****   __ASM volatile ("VMRS %0, fpscr" : "=r" (result) );
 322:Drivers/CMSIS/Include/cmsis_gcc.h ****   __ASM volatile ("");
 323:Drivers/CMSIS/Include/cmsis_gcc.h ****   return(result);
 324:Drivers/CMSIS/Include/cmsis_gcc.h **** #else
 325:Drivers/CMSIS/Include/cmsis_gcc.h ****    return(0);
 326:Drivers/CMSIS/Include/cmsis_gcc.h **** #endif
 327:Drivers/CMSIS/Include/cmsis_gcc.h **** }
 328:Drivers/CMSIS/Include/cmsis_gcc.h **** 
 329:Drivers/CMSIS/Include/cmsis_gcc.h **** 
 330:Drivers/CMSIS/Include/cmsis_gcc.h **** /**
 331:Drivers/CMSIS/Include/cmsis_gcc.h ****   \brief   Set FPSCR
 332:Drivers/CMSIS/Include/cmsis_gcc.h ****   \details Assigns the given value to the Floating Point Status/Control register.
 333:Drivers/CMSIS/Include/cmsis_gcc.h ****   \param [in]    fpscr  Floating Point Status/Control value to set
 334:Drivers/CMSIS/Include/cmsis_gcc.h ****  */
 335:Drivers/CMSIS/Include/cmsis_gcc.h **** __attribute__( ( always_inline ) ) __STATIC_INLINE void __set_FPSCR(uint32_t fpscr)
 336:Drivers/CMSIS/Include/cmsis_gcc.h **** {
 337:Drivers/CMSIS/Include/cmsis_gcc.h **** #if (__FPU_PRESENT == 1U) && (__FPU_USED == 1U)
 338:Drivers/CMSIS/Include/cmsis_gcc.h ****   /* Empty asm statement works as a scheduling barrier */
 339:Drivers/CMSIS/Include/cmsis_gcc.h ****   __ASM volatile ("");
 340:Drivers/CMSIS/Include/cmsis_gcc.h ****   __ASM volatile ("VMSR fpscr, %0" : : "r" (fpscr) : "vfpcc");
 341:Drivers/CMSIS/Include/cmsis_gcc.h ****   __ASM volatile ("");
 342:Drivers/CMSIS/Include/cmsis_gcc.h **** #endif
 343:Drivers/CMSIS/Include/cmsis_gcc.h **** }
 344:Drivers/CMSIS/Include/cmsis_gcc.h **** 
 345:Drivers/CMSIS/Include/cmsis_gcc.h **** #endif /* (__CORTEX_M == 0x04U) || (__CORTEX_M == 0x07U) */
 346:Drivers/CMSIS/Include/cmsis_gcc.h **** 
 347:Drivers/CMSIS/Include/cmsis_gcc.h **** 
 348:Drivers/CMSIS/Include/cmsis_gcc.h **** 
 349:Drivers/CMSIS/Include/cmsis_gcc.h **** /*@} end of CMSIS_Core_RegAccFunctions */
 350:Drivers/CMSIS/Include/cmsis_gcc.h **** 
 351:Drivers/CMSIS/Include/cmsis_gcc.h **** 
 352:Drivers/CMSIS/Include/cmsis_gcc.h **** /* ##########################  Core Instruction Access  ######################### */
 353:Drivers/CMSIS/Include/cmsis_gcc.h **** /** \defgroup CMSIS_Core_InstructionInterface CMSIS Core Instruction Interface
 354:Drivers/CMSIS/Include/cmsis_gcc.h ****   Access to dedicated instructions
 355:Drivers/CMSIS/Include/cmsis_gcc.h ****   @{
 356:Drivers/CMSIS/Include/cmsis_gcc.h **** */
 357:Drivers/CMSIS/Include/cmsis_gcc.h **** 
 358:Drivers/CMSIS/Include/cmsis_gcc.h **** /* Define macros for porting to both thumb1 and thumb2.
 359:Drivers/CMSIS/Include/cmsis_gcc.h ****  * For thumb1, use low register (r0-r7), specified by constraint "l"
 360:Drivers/CMSIS/Include/cmsis_gcc.h ****  * Otherwise, use general registers, specified by constraint "r" */
 361:Drivers/CMSIS/Include/cmsis_gcc.h **** #if defined (__thumb__) && !defined (__thumb2__)
 362:Drivers/CMSIS/Include/cmsis_gcc.h **** #define __CMSIS_GCC_OUT_REG(r) "=l" (r)
 363:Drivers/CMSIS/Include/cmsis_gcc.h **** #define __CMSIS_GCC_USE_REG(r) "l" (r)
 364:Drivers/CMSIS/Include/cmsis_gcc.h **** #else
ARM GAS  /var/folders/md/lgcc8l7571l9vt9sx0g0zflw0000gn/T//ccUH8gjh.s 			page 17


 365:Drivers/CMSIS/Include/cmsis_gcc.h **** #define __CMSIS_GCC_OUT_REG(r) "=r" (r)
 366:Drivers/CMSIS/Include/cmsis_gcc.h **** #define __CMSIS_GCC_USE_REG(r) "r" (r)
 367:Drivers/CMSIS/Include/cmsis_gcc.h **** #endif
 368:Drivers/CMSIS/Include/cmsis_gcc.h **** 
 369:Drivers/CMSIS/Include/cmsis_gcc.h **** /**
 370:Drivers/CMSIS/Include/cmsis_gcc.h ****   \brief   No Operation
 371:Drivers/CMSIS/Include/cmsis_gcc.h ****   \details No Operation does nothing. This instruction can be used for code alignment purposes.
 372:Drivers/CMSIS/Include/cmsis_gcc.h ****  */
 373:Drivers/CMSIS/Include/cmsis_gcc.h **** __attribute__((always_inline)) __STATIC_INLINE void __NOP(void)
 374:Drivers/CMSIS/Include/cmsis_gcc.h **** {
 375:Drivers/CMSIS/Include/cmsis_gcc.h ****   __ASM volatile ("nop");
 376:Drivers/CMSIS/Include/cmsis_gcc.h **** }
 377:Drivers/CMSIS/Include/cmsis_gcc.h **** 
 378:Drivers/CMSIS/Include/cmsis_gcc.h **** 
 379:Drivers/CMSIS/Include/cmsis_gcc.h **** /**
 380:Drivers/CMSIS/Include/cmsis_gcc.h ****   \brief   Wait For Interrupt
 381:Drivers/CMSIS/Include/cmsis_gcc.h ****   \details Wait For Interrupt is a hint instruction that suspends execution until one of a number o
 382:Drivers/CMSIS/Include/cmsis_gcc.h ****  */
 383:Drivers/CMSIS/Include/cmsis_gcc.h **** __attribute__((always_inline)) __STATIC_INLINE void __WFI(void)
 384:Drivers/CMSIS/Include/cmsis_gcc.h **** {
 385:Drivers/CMSIS/Include/cmsis_gcc.h ****   __ASM volatile ("wfi");
 386:Drivers/CMSIS/Include/cmsis_gcc.h **** }
 387:Drivers/CMSIS/Include/cmsis_gcc.h **** 
 388:Drivers/CMSIS/Include/cmsis_gcc.h **** 
 389:Drivers/CMSIS/Include/cmsis_gcc.h **** /**
 390:Drivers/CMSIS/Include/cmsis_gcc.h ****   \brief   Wait For Event
 391:Drivers/CMSIS/Include/cmsis_gcc.h ****   \details Wait For Event is a hint instruction that permits the processor to enter
 392:Drivers/CMSIS/Include/cmsis_gcc.h ****     a low-power state until one of a number of events occurs.
 393:Drivers/CMSIS/Include/cmsis_gcc.h ****  */
 394:Drivers/CMSIS/Include/cmsis_gcc.h **** __attribute__((always_inline)) __STATIC_INLINE void __WFE(void)
 395:Drivers/CMSIS/Include/cmsis_gcc.h **** {
 396:Drivers/CMSIS/Include/cmsis_gcc.h ****   __ASM volatile ("wfe");
 397:Drivers/CMSIS/Include/cmsis_gcc.h **** }
 398:Drivers/CMSIS/Include/cmsis_gcc.h **** 
 399:Drivers/CMSIS/Include/cmsis_gcc.h **** 
 400:Drivers/CMSIS/Include/cmsis_gcc.h **** /**
 401:Drivers/CMSIS/Include/cmsis_gcc.h ****   \brief   Send Event
 402:Drivers/CMSIS/Include/cmsis_gcc.h ****   \details Send Event is a hint instruction. It causes an event to be signaled to the CPU.
 403:Drivers/CMSIS/Include/cmsis_gcc.h ****  */
 404:Drivers/CMSIS/Include/cmsis_gcc.h **** __attribute__((always_inline)) __STATIC_INLINE void __SEV(void)
 405:Drivers/CMSIS/Include/cmsis_gcc.h **** {
 406:Drivers/CMSIS/Include/cmsis_gcc.h ****   __ASM volatile ("sev");
 407:Drivers/CMSIS/Include/cmsis_gcc.h **** }
 408:Drivers/CMSIS/Include/cmsis_gcc.h **** 
 409:Drivers/CMSIS/Include/cmsis_gcc.h **** 
 410:Drivers/CMSIS/Include/cmsis_gcc.h **** /**
 411:Drivers/CMSIS/Include/cmsis_gcc.h ****   \brief   Instruction Synchronization Barrier
 412:Drivers/CMSIS/Include/cmsis_gcc.h ****   \details Instruction Synchronization Barrier flushes the pipeline in the processor,
 413:Drivers/CMSIS/Include/cmsis_gcc.h ****            so that all instructions following the ISB are fetched from cache or memory,
 414:Drivers/CMSIS/Include/cmsis_gcc.h ****            after the instruction has been completed.
 415:Drivers/CMSIS/Include/cmsis_gcc.h ****  */
 416:Drivers/CMSIS/Include/cmsis_gcc.h **** __attribute__((always_inline)) __STATIC_INLINE void __ISB(void)
 417:Drivers/CMSIS/Include/cmsis_gcc.h **** {
 418:Drivers/CMSIS/Include/cmsis_gcc.h ****   __ASM volatile ("isb 0xF":::"memory");
 419:Drivers/CMSIS/Include/cmsis_gcc.h **** }
 420:Drivers/CMSIS/Include/cmsis_gcc.h **** 
 421:Drivers/CMSIS/Include/cmsis_gcc.h **** 
ARM GAS  /var/folders/md/lgcc8l7571l9vt9sx0g0zflw0000gn/T//ccUH8gjh.s 			page 18


 422:Drivers/CMSIS/Include/cmsis_gcc.h **** /**
 423:Drivers/CMSIS/Include/cmsis_gcc.h ****   \brief   Data Synchronization Barrier
 424:Drivers/CMSIS/Include/cmsis_gcc.h ****   \details Acts as a special kind of Data Memory Barrier.
 425:Drivers/CMSIS/Include/cmsis_gcc.h ****            It completes when all explicit memory accesses before this instruction complete.
 426:Drivers/CMSIS/Include/cmsis_gcc.h ****  */
 427:Drivers/CMSIS/Include/cmsis_gcc.h **** __attribute__((always_inline)) __STATIC_INLINE void __DSB(void)
 428:Drivers/CMSIS/Include/cmsis_gcc.h **** {
 429:Drivers/CMSIS/Include/cmsis_gcc.h ****   __ASM volatile ("dsb 0xF":::"memory");
 430:Drivers/CMSIS/Include/cmsis_gcc.h **** }
 431:Drivers/CMSIS/Include/cmsis_gcc.h **** 
 432:Drivers/CMSIS/Include/cmsis_gcc.h **** 
 433:Drivers/CMSIS/Include/cmsis_gcc.h **** /**
 434:Drivers/CMSIS/Include/cmsis_gcc.h ****   \brief   Data Memory Barrier
 435:Drivers/CMSIS/Include/cmsis_gcc.h ****   \details Ensures the apparent order of the explicit memory operations before
 436:Drivers/CMSIS/Include/cmsis_gcc.h ****            and after the instruction, without ensuring their completion.
 437:Drivers/CMSIS/Include/cmsis_gcc.h ****  */
 438:Drivers/CMSIS/Include/cmsis_gcc.h **** __attribute__((always_inline)) __STATIC_INLINE void __DMB(void)
 439:Drivers/CMSIS/Include/cmsis_gcc.h **** {
 440:Drivers/CMSIS/Include/cmsis_gcc.h ****   __ASM volatile ("dmb 0xF":::"memory");
 441:Drivers/CMSIS/Include/cmsis_gcc.h **** }
 442:Drivers/CMSIS/Include/cmsis_gcc.h **** 
 443:Drivers/CMSIS/Include/cmsis_gcc.h **** 
 444:Drivers/CMSIS/Include/cmsis_gcc.h **** /**
 445:Drivers/CMSIS/Include/cmsis_gcc.h ****   \brief   Reverse byte order (32 bit)
 446:Drivers/CMSIS/Include/cmsis_gcc.h ****   \details Reverses the byte order in integer value.
 447:Drivers/CMSIS/Include/cmsis_gcc.h ****   \param [in]    value  Value to reverse
 448:Drivers/CMSIS/Include/cmsis_gcc.h ****   \return               Reversed value
 449:Drivers/CMSIS/Include/cmsis_gcc.h ****  */
 450:Drivers/CMSIS/Include/cmsis_gcc.h **** __attribute__((always_inline)) __STATIC_INLINE uint32_t __REV(uint32_t value)
 451:Drivers/CMSIS/Include/cmsis_gcc.h **** {
 452:Drivers/CMSIS/Include/cmsis_gcc.h **** #if (__GNUC__ > 4) || (__GNUC__ == 4 && __GNUC_MINOR__ >= 5)
 453:Drivers/CMSIS/Include/cmsis_gcc.h ****   return __builtin_bswap32(value);
 454:Drivers/CMSIS/Include/cmsis_gcc.h **** #else
 455:Drivers/CMSIS/Include/cmsis_gcc.h ****   uint32_t result;
 456:Drivers/CMSIS/Include/cmsis_gcc.h **** 
 457:Drivers/CMSIS/Include/cmsis_gcc.h ****   __ASM volatile ("rev %0, %1" : __CMSIS_GCC_OUT_REG (result) : __CMSIS_GCC_USE_REG (value) );
 458:Drivers/CMSIS/Include/cmsis_gcc.h ****   return(result);
 459:Drivers/CMSIS/Include/cmsis_gcc.h **** #endif
 460:Drivers/CMSIS/Include/cmsis_gcc.h **** }
 461:Drivers/CMSIS/Include/cmsis_gcc.h **** 
 462:Drivers/CMSIS/Include/cmsis_gcc.h **** 
 463:Drivers/CMSIS/Include/cmsis_gcc.h **** /**
 464:Drivers/CMSIS/Include/cmsis_gcc.h ****   \brief   Reverse byte order (16 bit)
 465:Drivers/CMSIS/Include/cmsis_gcc.h ****   \details Reverses the byte order in two unsigned short values.
 466:Drivers/CMSIS/Include/cmsis_gcc.h ****   \param [in]    value  Value to reverse
 467:Drivers/CMSIS/Include/cmsis_gcc.h ****   \return               Reversed value
 468:Drivers/CMSIS/Include/cmsis_gcc.h ****  */
 469:Drivers/CMSIS/Include/cmsis_gcc.h **** __attribute__((always_inline)) __STATIC_INLINE uint32_t __REV16(uint32_t value)
 470:Drivers/CMSIS/Include/cmsis_gcc.h **** {
 471:Drivers/CMSIS/Include/cmsis_gcc.h ****   uint32_t result;
 472:Drivers/CMSIS/Include/cmsis_gcc.h **** 
 473:Drivers/CMSIS/Include/cmsis_gcc.h ****   __ASM volatile ("rev16 %0, %1" : __CMSIS_GCC_OUT_REG (result) : __CMSIS_GCC_USE_REG (value) );
 474:Drivers/CMSIS/Include/cmsis_gcc.h ****   return(result);
 475:Drivers/CMSIS/Include/cmsis_gcc.h **** }
 476:Drivers/CMSIS/Include/cmsis_gcc.h **** 
 477:Drivers/CMSIS/Include/cmsis_gcc.h **** 
 478:Drivers/CMSIS/Include/cmsis_gcc.h **** /**
ARM GAS  /var/folders/md/lgcc8l7571l9vt9sx0g0zflw0000gn/T//ccUH8gjh.s 			page 19


 479:Drivers/CMSIS/Include/cmsis_gcc.h ****   \brief   Reverse byte order in signed short value
 480:Drivers/CMSIS/Include/cmsis_gcc.h ****   \details Reverses the byte order in a signed short value with sign extension to integer.
 481:Drivers/CMSIS/Include/cmsis_gcc.h ****   \param [in]    value  Value to reverse
 482:Drivers/CMSIS/Include/cmsis_gcc.h ****   \return               Reversed value
 483:Drivers/CMSIS/Include/cmsis_gcc.h ****  */
 484:Drivers/CMSIS/Include/cmsis_gcc.h **** __attribute__((always_inline)) __STATIC_INLINE int32_t __REVSH(int32_t value)
 485:Drivers/CMSIS/Include/cmsis_gcc.h **** {
 486:Drivers/CMSIS/Include/cmsis_gcc.h **** #if (__GNUC__ > 4) || (__GNUC__ == 4 && __GNUC_MINOR__ >= 8)
 487:Drivers/CMSIS/Include/cmsis_gcc.h ****   return (short)__builtin_bswap16(value);
 488:Drivers/CMSIS/Include/cmsis_gcc.h **** #else
 489:Drivers/CMSIS/Include/cmsis_gcc.h ****   int32_t result;
 490:Drivers/CMSIS/Include/cmsis_gcc.h **** 
 491:Drivers/CMSIS/Include/cmsis_gcc.h ****   __ASM volatile ("revsh %0, %1" : __CMSIS_GCC_OUT_REG (result) : __CMSIS_GCC_USE_REG (value) );
 492:Drivers/CMSIS/Include/cmsis_gcc.h ****   return(result);
 493:Drivers/CMSIS/Include/cmsis_gcc.h **** #endif
 494:Drivers/CMSIS/Include/cmsis_gcc.h **** }
 495:Drivers/CMSIS/Include/cmsis_gcc.h **** 
 496:Drivers/CMSIS/Include/cmsis_gcc.h **** 
 497:Drivers/CMSIS/Include/cmsis_gcc.h **** /**
 498:Drivers/CMSIS/Include/cmsis_gcc.h ****   \brief   Rotate Right in unsigned value (32 bit)
 499:Drivers/CMSIS/Include/cmsis_gcc.h ****   \details Rotate Right (immediate) provides the value of the contents of a register rotated by a v
 500:Drivers/CMSIS/Include/cmsis_gcc.h ****   \param [in]    value  Value to rotate
 501:Drivers/CMSIS/Include/cmsis_gcc.h ****   \param [in]    value  Number of Bits to rotate
 502:Drivers/CMSIS/Include/cmsis_gcc.h ****   \return               Rotated value
 503:Drivers/CMSIS/Include/cmsis_gcc.h ****  */
 504:Drivers/CMSIS/Include/cmsis_gcc.h **** __attribute__((always_inline)) __STATIC_INLINE uint32_t __ROR(uint32_t op1, uint32_t op2)
 505:Drivers/CMSIS/Include/cmsis_gcc.h **** {
 506:Drivers/CMSIS/Include/cmsis_gcc.h ****   return (op1 >> op2) | (op1 << (32U - op2));
 507:Drivers/CMSIS/Include/cmsis_gcc.h **** }
 508:Drivers/CMSIS/Include/cmsis_gcc.h **** 
 509:Drivers/CMSIS/Include/cmsis_gcc.h **** 
 510:Drivers/CMSIS/Include/cmsis_gcc.h **** /**
 511:Drivers/CMSIS/Include/cmsis_gcc.h ****   \brief   Breakpoint
 512:Drivers/CMSIS/Include/cmsis_gcc.h ****   \details Causes the processor to enter Debug state.
 513:Drivers/CMSIS/Include/cmsis_gcc.h ****            Debug tools can use this to investigate system state when the instruction at a particula
 514:Drivers/CMSIS/Include/cmsis_gcc.h ****   \param [in]    value  is ignored by the processor.
 515:Drivers/CMSIS/Include/cmsis_gcc.h ****                  If required, a debugger can use it to store additional information about the break
 516:Drivers/CMSIS/Include/cmsis_gcc.h ****  */
 517:Drivers/CMSIS/Include/cmsis_gcc.h **** #define __BKPT(value)                       __ASM volatile ("bkpt "#value)
 518:Drivers/CMSIS/Include/cmsis_gcc.h **** 
 519:Drivers/CMSIS/Include/cmsis_gcc.h **** 
 520:Drivers/CMSIS/Include/cmsis_gcc.h **** /**
 521:Drivers/CMSIS/Include/cmsis_gcc.h ****   \brief   Reverse bit order of value
 522:Drivers/CMSIS/Include/cmsis_gcc.h ****   \details Reverses the bit order of the given value.
 523:Drivers/CMSIS/Include/cmsis_gcc.h ****   \param [in]    value  Value to reverse
 524:Drivers/CMSIS/Include/cmsis_gcc.h ****   \return               Reversed value
 525:Drivers/CMSIS/Include/cmsis_gcc.h ****  */
 526:Drivers/CMSIS/Include/cmsis_gcc.h **** __attribute__((always_inline)) __STATIC_INLINE uint32_t __RBIT(uint32_t value)
 196              		.loc 2 526 57 view .LVU52
 197              	.LBB169:
 527:Drivers/CMSIS/Include/cmsis_gcc.h **** {
 528:Drivers/CMSIS/Include/cmsis_gcc.h ****   uint32_t result;
 198              		.loc 2 528 3 view .LVU53
 529:Drivers/CMSIS/Include/cmsis_gcc.h **** 
 530:Drivers/CMSIS/Include/cmsis_gcc.h **** #if       (__CORTEX_M >= 0x03U) || (__CORTEX_SC >= 300U)
 531:Drivers/CMSIS/Include/cmsis_gcc.h ****    __ASM volatile ("rbit %0, %1" : "=r" (result) : "r" (value) );
 199              		.loc 2 531 4 view .LVU54
ARM GAS  /var/folders/md/lgcc8l7571l9vt9sx0g0zflw0000gn/T//ccUH8gjh.s 			page 20


 200 00c0 4FF08072 		mov	r2, #16777216
 201              		.syntax unified
 202              	@ 531 "Drivers/CMSIS/Include/cmsis_gcc.h" 1
 203 00c4 92FAA2F2 		rbit r2, r2
 204              	@ 0 "" 2
 205              	.LVL17:
 532:Drivers/CMSIS/Include/cmsis_gcc.h **** #else
 533:Drivers/CMSIS/Include/cmsis_gcc.h ****   int32_t s = 4 /*sizeof(v)*/ * 8 - 1; /* extra shift needed at end */
 534:Drivers/CMSIS/Include/cmsis_gcc.h **** 
 535:Drivers/CMSIS/Include/cmsis_gcc.h ****   result = value;                      /* r will be reversed bits of v; first get LSB of v */
 536:Drivers/CMSIS/Include/cmsis_gcc.h ****   for (value >>= 1U; value; value >>= 1U)
 537:Drivers/CMSIS/Include/cmsis_gcc.h ****   {
 538:Drivers/CMSIS/Include/cmsis_gcc.h ****     result <<= 1U;
 539:Drivers/CMSIS/Include/cmsis_gcc.h ****     result |= value & 1U;
 540:Drivers/CMSIS/Include/cmsis_gcc.h ****     s--;
 541:Drivers/CMSIS/Include/cmsis_gcc.h ****   }
 542:Drivers/CMSIS/Include/cmsis_gcc.h ****   result <<= s;                        /* shift when v's highest bits are zero */
 543:Drivers/CMSIS/Include/cmsis_gcc.h **** #endif
 544:Drivers/CMSIS/Include/cmsis_gcc.h ****   return(result);
 206              		.loc 2 544 3 view .LVU55
 207              		.loc 2 544 3 is_stmt 0 view .LVU56
 208              		.thumb
 209              		.syntax unified
 210              	.LBE169:
 211              	.LBE168:
 313:Drivers/STM32F3xx_HAL_Driver/Src/stm32f3xx_hal_rcc.c **** 
 212              		.loc 1 313 3 view .LVU57
 213 00c8 B2FA82F2 		clz	r2, r2
 214 00cc 064B     		ldr	r3, .L18+16
 215 00ce 1344     		add	r3, r3, r2
 216 00d0 9B00     		lsls	r3, r3, #2
 217 00d2 0122     		movs	r2, #1
 218 00d4 1A60     		str	r2, [r3]
 315:Drivers/STM32F3xx_HAL_Driver/Src/stm32f3xx_hal_rcc.c **** }
 219              		.loc 1 315 3 is_stmt 1 view .LVU58
 315:Drivers/STM32F3xx_HAL_Driver/Src/stm32f3xx_hal_rcc.c **** }
 220              		.loc 1 315 10 is_stmt 0 view .LVU59
 221 00d6 A7E7     		b	.L3
 222              	.L19:
 223              		.align	2
 224              	.L18:
 225 00d8 00100240 		.word	1073876992
 226 00dc 0CC0FFF8 		.word	-117456884
 227 00e0 00000000 		.word	SystemCoreClock
 228 00e4 00127A00 		.word	8000000
 229 00e8 20819010 		.word	277905696
 230              		.cfi_endproc
 231              	.LFE126:
 233              		.section	.text.HAL_RCC_OscConfig,"ax",%progbits
 234              		.align	1
 235              		.global	HAL_RCC_OscConfig
 236              		.syntax unified
 237              		.thumb
 238              		.thumb_func
 239              		.fpu fpv4-sp-d16
 241              	HAL_RCC_OscConfig:
 242              	.LVL18:
ARM GAS  /var/folders/md/lgcc8l7571l9vt9sx0g0zflw0000gn/T//ccUH8gjh.s 			page 21


 243              	.LFB127:
 317:Drivers/STM32F3xx_HAL_Driver/Src/stm32f3xx_hal_rcc.c **** 
 318:Drivers/STM32F3xx_HAL_Driver/Src/stm32f3xx_hal_rcc.c **** /**
 319:Drivers/STM32F3xx_HAL_Driver/Src/stm32f3xx_hal_rcc.c ****   * @brief  Initializes the RCC Oscillators according to the specified parameters in the
 320:Drivers/STM32F3xx_HAL_Driver/Src/stm32f3xx_hal_rcc.c ****   *         RCC_OscInitTypeDef.
 321:Drivers/STM32F3xx_HAL_Driver/Src/stm32f3xx_hal_rcc.c ****   * @param  RCC_OscInitStruct pointer to an RCC_OscInitTypeDef structure that
 322:Drivers/STM32F3xx_HAL_Driver/Src/stm32f3xx_hal_rcc.c ****   *         contains the configuration information for the RCC Oscillators.
 323:Drivers/STM32F3xx_HAL_Driver/Src/stm32f3xx_hal_rcc.c ****   * @note   The PLL is not disabled when used as system clock.
 324:Drivers/STM32F3xx_HAL_Driver/Src/stm32f3xx_hal_rcc.c ****   * @note   Transitions LSE Bypass to LSE On and LSE On to LSE Bypass are not
 325:Drivers/STM32F3xx_HAL_Driver/Src/stm32f3xx_hal_rcc.c ****   *         supported by this macro. User should request a transition to LSE Off
 326:Drivers/STM32F3xx_HAL_Driver/Src/stm32f3xx_hal_rcc.c ****   *         first and then LSE On or LSE Bypass.
 327:Drivers/STM32F3xx_HAL_Driver/Src/stm32f3xx_hal_rcc.c ****   * @note   Transition HSE Bypass to HSE On and HSE On to HSE Bypass are not
 328:Drivers/STM32F3xx_HAL_Driver/Src/stm32f3xx_hal_rcc.c ****   *         supported by this macro. User should request a transition to HSE Off
 329:Drivers/STM32F3xx_HAL_Driver/Src/stm32f3xx_hal_rcc.c ****   *         first and then HSE On or HSE Bypass.
 330:Drivers/STM32F3xx_HAL_Driver/Src/stm32f3xx_hal_rcc.c ****   * @retval HAL status
 331:Drivers/STM32F3xx_HAL_Driver/Src/stm32f3xx_hal_rcc.c ****   */
 332:Drivers/STM32F3xx_HAL_Driver/Src/stm32f3xx_hal_rcc.c **** HAL_StatusTypeDef HAL_RCC_OscConfig(RCC_OscInitTypeDef  *RCC_OscInitStruct)
 333:Drivers/STM32F3xx_HAL_Driver/Src/stm32f3xx_hal_rcc.c **** {
 244              		.loc 1 333 1 is_stmt 1 view -0
 245              		.cfi_startproc
 246              		@ args = 0, pretend = 0, frame = 8
 247              		@ frame_needed = 0, uses_anonymous_args = 0
 334:Drivers/STM32F3xx_HAL_Driver/Src/stm32f3xx_hal_rcc.c ****   uint32_t tickstart;
 248              		.loc 1 334 3 view .LVU61
 335:Drivers/STM32F3xx_HAL_Driver/Src/stm32f3xx_hal_rcc.c **** 
 336:Drivers/STM32F3xx_HAL_Driver/Src/stm32f3xx_hal_rcc.c ****   /* Check Null pointer */
 337:Drivers/STM32F3xx_HAL_Driver/Src/stm32f3xx_hal_rcc.c ****   if(RCC_OscInitStruct == NULL)
 249              		.loc 1 337 3 view .LVU62
 250              		.loc 1 337 5 is_stmt 0 view .LVU63
 251 0000 0028     		cmp	r0, #0
 252 0002 00F0ED82 		beq	.L93
 333:Drivers/STM32F3xx_HAL_Driver/Src/stm32f3xx_hal_rcc.c ****   uint32_t tickstart;
 253              		.loc 1 333 1 view .LVU64
 254 0006 70B5     		push	{r4, r5, r6, lr}
 255              	.LCFI1:
 256              		.cfi_def_cfa_offset 16
 257              		.cfi_offset 4, -16
 258              		.cfi_offset 5, -12
 259              		.cfi_offset 6, -8
 260              		.cfi_offset 14, -4
 261 0008 82B0     		sub	sp, sp, #8
 262              	.LCFI2:
 263              		.cfi_def_cfa_offset 24
 264 000a 0446     		mov	r4, r0
 338:Drivers/STM32F3xx_HAL_Driver/Src/stm32f3xx_hal_rcc.c ****   {
 339:Drivers/STM32F3xx_HAL_Driver/Src/stm32f3xx_hal_rcc.c ****     return HAL_ERROR;
 340:Drivers/STM32F3xx_HAL_Driver/Src/stm32f3xx_hal_rcc.c ****   }
 341:Drivers/STM32F3xx_HAL_Driver/Src/stm32f3xx_hal_rcc.c **** 
 342:Drivers/STM32F3xx_HAL_Driver/Src/stm32f3xx_hal_rcc.c ****   /* Check the parameters */
 343:Drivers/STM32F3xx_HAL_Driver/Src/stm32f3xx_hal_rcc.c ****   assert_param(IS_RCC_OSCILLATORTYPE(RCC_OscInitStruct->OscillatorType));
 265              		.loc 1 343 3 is_stmt 1 view .LVU65
 344:Drivers/STM32F3xx_HAL_Driver/Src/stm32f3xx_hal_rcc.c **** 
 345:Drivers/STM32F3xx_HAL_Driver/Src/stm32f3xx_hal_rcc.c ****   /*------------------------------- HSE Configuration ------------------------*/ 
 346:Drivers/STM32F3xx_HAL_Driver/Src/stm32f3xx_hal_rcc.c ****   if(((RCC_OscInitStruct->OscillatorType) & RCC_OSCILLATORTYPE_HSE) == RCC_OSCILLATORTYPE_HSE)
 266              		.loc 1 346 3 view .LVU66
 267              		.loc 1 346 25 is_stmt 0 view .LVU67
 268 000c 0368     		ldr	r3, [r0]
ARM GAS  /var/folders/md/lgcc8l7571l9vt9sx0g0zflw0000gn/T//ccUH8gjh.s 			page 22


 269              		.loc 1 346 5 view .LVU68
 270 000e 13F0010F 		tst	r3, #1
 271 0012 3DD0     		beq	.L22
 347:Drivers/STM32F3xx_HAL_Driver/Src/stm32f3xx_hal_rcc.c ****   {
 348:Drivers/STM32F3xx_HAL_Driver/Src/stm32f3xx_hal_rcc.c ****     /* Check the parameters */
 349:Drivers/STM32F3xx_HAL_Driver/Src/stm32f3xx_hal_rcc.c ****     assert_param(IS_RCC_HSE(RCC_OscInitStruct->HSEState));
 272              		.loc 1 349 5 is_stmt 1 view .LVU69
 350:Drivers/STM32F3xx_HAL_Driver/Src/stm32f3xx_hal_rcc.c **** 
 351:Drivers/STM32F3xx_HAL_Driver/Src/stm32f3xx_hal_rcc.c ****     /* When the HSE is used as system clock or clock source for PLL in these cases it is not allowe
 352:Drivers/STM32F3xx_HAL_Driver/Src/stm32f3xx_hal_rcc.c ****     if((__HAL_RCC_GET_SYSCLK_SOURCE() == RCC_SYSCLKSOURCE_STATUS_HSE) 
 273              		.loc 1 352 5 view .LVU70
 274              		.loc 1 352 9 is_stmt 0 view .LVU71
 275 0014 C74B     		ldr	r3, .L129
 276 0016 5B68     		ldr	r3, [r3, #4]
 277 0018 03F00C03 		and	r3, r3, #12
 278              		.loc 1 352 7 view .LVU72
 279 001c 042B     		cmp	r3, #4
 280 001e 20D0     		beq	.L23
 353:Drivers/STM32F3xx_HAL_Driver/Src/stm32f3xx_hal_rcc.c ****        || ((__HAL_RCC_GET_SYSCLK_SOURCE() == RCC_SYSCLKSOURCE_STATUS_PLLCLK) && (__HAL_RCC_GET_PLL_
 281              		.loc 1 353 13 view .LVU73
 282 0020 C44B     		ldr	r3, .L129
 283 0022 5B68     		ldr	r3, [r3, #4]
 284 0024 03F00C03 		and	r3, r3, #12
 285              		.loc 1 353 8 view .LVU74
 286 0028 082B     		cmp	r3, #8
 287 002a 13D0     		beq	.L115
 288              	.L24:
 354:Drivers/STM32F3xx_HAL_Driver/Src/stm32f3xx_hal_rcc.c ****     {
 355:Drivers/STM32F3xx_HAL_Driver/Src/stm32f3xx_hal_rcc.c ****       if((__HAL_RCC_GET_FLAG(RCC_FLAG_HSERDY) != RESET) && (RCC_OscInitStruct->HSEState == RCC_HSE_
 356:Drivers/STM32F3xx_HAL_Driver/Src/stm32f3xx_hal_rcc.c ****       {
 357:Drivers/STM32F3xx_HAL_Driver/Src/stm32f3xx_hal_rcc.c ****         return HAL_ERROR;
 358:Drivers/STM32F3xx_HAL_Driver/Src/stm32f3xx_hal_rcc.c ****       }
 359:Drivers/STM32F3xx_HAL_Driver/Src/stm32f3xx_hal_rcc.c ****     }
 360:Drivers/STM32F3xx_HAL_Driver/Src/stm32f3xx_hal_rcc.c ****     else
 361:Drivers/STM32F3xx_HAL_Driver/Src/stm32f3xx_hal_rcc.c ****     {
 362:Drivers/STM32F3xx_HAL_Driver/Src/stm32f3xx_hal_rcc.c ****       /* Set the new HSE configuration ---------------------------------------*/
 363:Drivers/STM32F3xx_HAL_Driver/Src/stm32f3xx_hal_rcc.c ****       __HAL_RCC_HSE_CONFIG(RCC_OscInitStruct->HSEState);
 289              		.loc 1 363 7 is_stmt 1 view .LVU75
 290              		.loc 1 363 7 view .LVU76
 291 002c 6368     		ldr	r3, [r4, #4]
 292 002e B3F5803F 		cmp	r3, #65536
 293 0032 6AD0     		beq	.L116
 294              		.loc 1 363 7 discriminator 2 view .LVU77
 295 0034 002B     		cmp	r3, #0
 296 0036 40F08D80 		bne	.L29
 297              		.loc 1 363 7 discriminator 3 view .LVU78
 298 003a 03F18043 		add	r3, r3, #1073741824
 299 003e 03F50433 		add	r3, r3, #135168
 300 0042 1A68     		ldr	r2, [r3]
 301 0044 22F48032 		bic	r2, r2, #65536
 302 0048 1A60     		str	r2, [r3]
 303              		.loc 1 363 7 discriminator 3 view .LVU79
 304 004a 1A68     		ldr	r2, [r3]
 305 004c 22F48022 		bic	r2, r2, #262144
 306 0050 1A60     		str	r2, [r3]
 307 0052 5FE0     		b	.L28
 308              	.L115:
ARM GAS  /var/folders/md/lgcc8l7571l9vt9sx0g0zflw0000gn/T//ccUH8gjh.s 			page 23


 353:Drivers/STM32F3xx_HAL_Driver/Src/stm32f3xx_hal_rcc.c ****        || ((__HAL_RCC_GET_SYSCLK_SOURCE() == RCC_SYSCLKSOURCE_STATUS_PLLCLK) && (__HAL_RCC_GET_PLL_
 309              		.loc 1 353 82 is_stmt 0 discriminator 1 view .LVU80
 310 0054 B74B     		ldr	r3, .L129
 311 0056 5B68     		ldr	r3, [r3, #4]
 312 0058 03F4C033 		and	r3, r3, #98304
 353:Drivers/STM32F3xx_HAL_Driver/Src/stm32f3xx_hal_rcc.c ****        || ((__HAL_RCC_GET_SYSCLK_SOURCE() == RCC_SYSCLKSOURCE_STATUS_PLLCLK) && (__HAL_RCC_GET_PLL_
 313              		.loc 1 353 78 discriminator 1 view .LVU81
 314 005c B3F5803F 		cmp	r3, #65536
 315 0060 E4D1     		bne	.L24
 316              	.L23:
 355:Drivers/STM32F3xx_HAL_Driver/Src/stm32f3xx_hal_rcc.c ****       {
 317              		.loc 1 355 7 is_stmt 1 view .LVU82
 318              	.LVL19:
 319              	.LBB170:
 320              	.LBI170:
 526:Drivers/CMSIS/Include/cmsis_gcc.h **** {
 321              		.loc 2 526 57 view .LVU83
 322              	.LBB171:
 528:Drivers/CMSIS/Include/cmsis_gcc.h **** 
 323              		.loc 2 528 3 view .LVU84
 531:Drivers/CMSIS/Include/cmsis_gcc.h **** #else
 324              		.loc 2 531 4 view .LVU85
 325 0062 4FF40033 		mov	r3, #131072
 326              		.syntax unified
 327              	@ 531 "Drivers/CMSIS/Include/cmsis_gcc.h" 1
 328 0066 93FAA3F3 		rbit r3, r3
 329              	@ 0 "" 2
 330              		.loc 2 544 3 view .LVU86
 331              	.LVL20:
 332              		.loc 2 544 3 is_stmt 0 view .LVU87
 333              		.thumb
 334              		.syntax unified
 335              	.LBE171:
 336              	.LBE170:
 355:Drivers/STM32F3xx_HAL_Driver/Src/stm32f3xx_hal_rcc.c ****       {
 337              		.loc 1 355 11 view .LVU88
 338 006a B24B     		ldr	r3, .L129
 339 006c 1968     		ldr	r1, [r3]
 340              	.LVL21:
 341              	.LBB172:
 342              	.LBI172:
 526:Drivers/CMSIS/Include/cmsis_gcc.h **** {
 343              		.loc 2 526 57 is_stmt 1 view .LVU89
 344              	.LBB173:
 528:Drivers/CMSIS/Include/cmsis_gcc.h **** 
 345              		.loc 2 528 3 view .LVU90
 531:Drivers/CMSIS/Include/cmsis_gcc.h **** #else
 346              		.loc 2 531 4 view .LVU91
 347 006e 4FF40033 		mov	r3, #131072
 348              		.syntax unified
 349              	@ 531 "Drivers/CMSIS/Include/cmsis_gcc.h" 1
 350 0072 93FAA3F3 		rbit r3, r3
 351              	@ 0 "" 2
 352              	.LVL22:
 353              		.loc 2 544 3 view .LVU92
 354              		.loc 2 544 3 is_stmt 0 view .LVU93
 355              		.thumb
ARM GAS  /var/folders/md/lgcc8l7571l9vt9sx0g0zflw0000gn/T//ccUH8gjh.s 			page 24


 356              		.syntax unified
 357              	.LBE173:
 358              	.LBE172:
 355:Drivers/STM32F3xx_HAL_Driver/Src/stm32f3xx_hal_rcc.c ****       {
 359              		.loc 1 355 11 view .LVU94
 360 0076 B3FA83F3 		clz	r3, r3
 361 007a 03F01F03 		and	r3, r3, #31
 362 007e 0122     		movs	r2, #1
 363 0080 02FA03F3 		lsl	r3, r2, r3
 355:Drivers/STM32F3xx_HAL_Driver/Src/stm32f3xx_hal_rcc.c ****       {
 364              		.loc 1 355 9 view .LVU95
 365 0084 0B42     		tst	r3, r1
 366 0086 03D0     		beq	.L22
 355:Drivers/STM32F3xx_HAL_Driver/Src/stm32f3xx_hal_rcc.c ****       {
 367              		.loc 1 355 78 discriminator 13 view .LVU96
 368 0088 6368     		ldr	r3, [r4, #4]
 355:Drivers/STM32F3xx_HAL_Driver/Src/stm32f3xx_hal_rcc.c ****       {
 369              		.loc 1 355 57 discriminator 13 view .LVU97
 370 008a 002B     		cmp	r3, #0
 371 008c 00F0AA82 		beq	.L117
 372              	.LVL23:
 373              	.L22:
 364:Drivers/STM32F3xx_HAL_Driver/Src/stm32f3xx_hal_rcc.c ****       
 365:Drivers/STM32F3xx_HAL_Driver/Src/stm32f3xx_hal_rcc.c **** #if defined(RCC_CFGR_PLLSRC_HSI_DIV2)
 366:Drivers/STM32F3xx_HAL_Driver/Src/stm32f3xx_hal_rcc.c ****       /* Configure the HSE predivision factor --------------------------------*/
 367:Drivers/STM32F3xx_HAL_Driver/Src/stm32f3xx_hal_rcc.c ****       __HAL_RCC_HSE_PREDIV_CONFIG(RCC_OscInitStruct->HSEPredivValue);
 368:Drivers/STM32F3xx_HAL_Driver/Src/stm32f3xx_hal_rcc.c **** #endif /* RCC_CFGR_PLLSRC_HSI_DIV2 */
 369:Drivers/STM32F3xx_HAL_Driver/Src/stm32f3xx_hal_rcc.c **** 
 370:Drivers/STM32F3xx_HAL_Driver/Src/stm32f3xx_hal_rcc.c ****        /* Check the HSE State */
 371:Drivers/STM32F3xx_HAL_Driver/Src/stm32f3xx_hal_rcc.c ****       if(RCC_OscInitStruct->HSEState != RCC_HSE_OFF)
 372:Drivers/STM32F3xx_HAL_Driver/Src/stm32f3xx_hal_rcc.c ****       {
 373:Drivers/STM32F3xx_HAL_Driver/Src/stm32f3xx_hal_rcc.c ****         /* Get Start Tick */
 374:Drivers/STM32F3xx_HAL_Driver/Src/stm32f3xx_hal_rcc.c ****         tickstart = HAL_GetTick();
 375:Drivers/STM32F3xx_HAL_Driver/Src/stm32f3xx_hal_rcc.c ****         
 376:Drivers/STM32F3xx_HAL_Driver/Src/stm32f3xx_hal_rcc.c ****         /* Wait till HSE is ready */
 377:Drivers/STM32F3xx_HAL_Driver/Src/stm32f3xx_hal_rcc.c ****         while(__HAL_RCC_GET_FLAG(RCC_FLAG_HSERDY) == RESET)
 378:Drivers/STM32F3xx_HAL_Driver/Src/stm32f3xx_hal_rcc.c ****         {
 379:Drivers/STM32F3xx_HAL_Driver/Src/stm32f3xx_hal_rcc.c ****           if((HAL_GetTick() - tickstart ) > HSE_TIMEOUT_VALUE)
 380:Drivers/STM32F3xx_HAL_Driver/Src/stm32f3xx_hal_rcc.c ****           {
 381:Drivers/STM32F3xx_HAL_Driver/Src/stm32f3xx_hal_rcc.c ****             return HAL_TIMEOUT;
 382:Drivers/STM32F3xx_HAL_Driver/Src/stm32f3xx_hal_rcc.c ****           }
 383:Drivers/STM32F3xx_HAL_Driver/Src/stm32f3xx_hal_rcc.c ****         }
 384:Drivers/STM32F3xx_HAL_Driver/Src/stm32f3xx_hal_rcc.c ****       }
 385:Drivers/STM32F3xx_HAL_Driver/Src/stm32f3xx_hal_rcc.c ****       else
 386:Drivers/STM32F3xx_HAL_Driver/Src/stm32f3xx_hal_rcc.c ****       {
 387:Drivers/STM32F3xx_HAL_Driver/Src/stm32f3xx_hal_rcc.c ****         /* Get Start Tick */
 388:Drivers/STM32F3xx_HAL_Driver/Src/stm32f3xx_hal_rcc.c ****         tickstart = HAL_GetTick();
 389:Drivers/STM32F3xx_HAL_Driver/Src/stm32f3xx_hal_rcc.c ****         
 390:Drivers/STM32F3xx_HAL_Driver/Src/stm32f3xx_hal_rcc.c ****         /* Wait till HSE is disabled */
 391:Drivers/STM32F3xx_HAL_Driver/Src/stm32f3xx_hal_rcc.c ****         while(__HAL_RCC_GET_FLAG(RCC_FLAG_HSERDY) != RESET)
 392:Drivers/STM32F3xx_HAL_Driver/Src/stm32f3xx_hal_rcc.c ****         {
 393:Drivers/STM32F3xx_HAL_Driver/Src/stm32f3xx_hal_rcc.c ****            if((HAL_GetTick() - tickstart ) > HSE_TIMEOUT_VALUE)
 394:Drivers/STM32F3xx_HAL_Driver/Src/stm32f3xx_hal_rcc.c ****           {
 395:Drivers/STM32F3xx_HAL_Driver/Src/stm32f3xx_hal_rcc.c ****             return HAL_TIMEOUT;
 396:Drivers/STM32F3xx_HAL_Driver/Src/stm32f3xx_hal_rcc.c ****           }
 397:Drivers/STM32F3xx_HAL_Driver/Src/stm32f3xx_hal_rcc.c ****         }
 398:Drivers/STM32F3xx_HAL_Driver/Src/stm32f3xx_hal_rcc.c ****       }
ARM GAS  /var/folders/md/lgcc8l7571l9vt9sx0g0zflw0000gn/T//ccUH8gjh.s 			page 25


 399:Drivers/STM32F3xx_HAL_Driver/Src/stm32f3xx_hal_rcc.c ****     }
 400:Drivers/STM32F3xx_HAL_Driver/Src/stm32f3xx_hal_rcc.c ****   }
 401:Drivers/STM32F3xx_HAL_Driver/Src/stm32f3xx_hal_rcc.c ****   /*----------------------------- HSI Configuration --------------------------*/ 
 402:Drivers/STM32F3xx_HAL_Driver/Src/stm32f3xx_hal_rcc.c ****   if(((RCC_OscInitStruct->OscillatorType) & RCC_OSCILLATORTYPE_HSI) == RCC_OSCILLATORTYPE_HSI)
 374              		.loc 1 402 3 is_stmt 1 view .LVU98
 375              		.loc 1 402 25 is_stmt 0 view .LVU99
 376 0090 2368     		ldr	r3, [r4]
 377              		.loc 1 402 5 view .LVU100
 378 0092 13F0020F 		tst	r3, #2
 379 0096 00F0C080 		beq	.L40
 403:Drivers/STM32F3xx_HAL_Driver/Src/stm32f3xx_hal_rcc.c ****   {
 404:Drivers/STM32F3xx_HAL_Driver/Src/stm32f3xx_hal_rcc.c ****     /* Check the parameters */
 405:Drivers/STM32F3xx_HAL_Driver/Src/stm32f3xx_hal_rcc.c ****     assert_param(IS_RCC_HSI(RCC_OscInitStruct->HSIState));
 380              		.loc 1 405 5 is_stmt 1 view .LVU101
 406:Drivers/STM32F3xx_HAL_Driver/Src/stm32f3xx_hal_rcc.c ****     assert_param(IS_RCC_CALIBRATION_VALUE(RCC_OscInitStruct->HSICalibrationValue));
 381              		.loc 1 406 5 view .LVU102
 407:Drivers/STM32F3xx_HAL_Driver/Src/stm32f3xx_hal_rcc.c ****     
 408:Drivers/STM32F3xx_HAL_Driver/Src/stm32f3xx_hal_rcc.c ****     /* Check if HSI is used as system clock or as PLL source when PLL is selected as system clock *
 409:Drivers/STM32F3xx_HAL_Driver/Src/stm32f3xx_hal_rcc.c ****     if((__HAL_RCC_GET_SYSCLK_SOURCE() == RCC_SYSCLKSOURCE_STATUS_HSI) 
 382              		.loc 1 409 5 view .LVU103
 383              		.loc 1 409 9 is_stmt 0 view .LVU104
 384 009a A64B     		ldr	r3, .L129
 385 009c 5B68     		ldr	r3, [r3, #4]
 386              		.loc 1 409 7 view .LVU105
 387 009e 13F00C0F 		tst	r3, #12
 388 00a2 00F09780 		beq	.L41
 410:Drivers/STM32F3xx_HAL_Driver/Src/stm32f3xx_hal_rcc.c ****        || ((__HAL_RCC_GET_SYSCLK_SOURCE() == RCC_SYSCLKSOURCE_STATUS_PLLCLK) && (__HAL_RCC_GET_PLL_
 389              		.loc 1 410 13 view .LVU106
 390 00a6 A34B     		ldr	r3, .L129
 391 00a8 5B68     		ldr	r3, [r3, #4]
 392 00aa 03F00C03 		and	r3, r3, #12
 393              		.loc 1 410 8 view .LVU107
 394 00ae 082B     		cmp	r3, #8
 395 00b0 00F08880 		beq	.L118
 396              	.L42:
 411:Drivers/STM32F3xx_HAL_Driver/Src/stm32f3xx_hal_rcc.c ****     {
 412:Drivers/STM32F3xx_HAL_Driver/Src/stm32f3xx_hal_rcc.c ****       /* When HSI is used as system clock it will not disabled */
 413:Drivers/STM32F3xx_HAL_Driver/Src/stm32f3xx_hal_rcc.c ****       if((__HAL_RCC_GET_FLAG(RCC_FLAG_HSIRDY) != RESET) && (RCC_OscInitStruct->HSIState != RCC_HSI_
 414:Drivers/STM32F3xx_HAL_Driver/Src/stm32f3xx_hal_rcc.c ****       {
 415:Drivers/STM32F3xx_HAL_Driver/Src/stm32f3xx_hal_rcc.c ****         return HAL_ERROR;
 416:Drivers/STM32F3xx_HAL_Driver/Src/stm32f3xx_hal_rcc.c ****       }
 417:Drivers/STM32F3xx_HAL_Driver/Src/stm32f3xx_hal_rcc.c ****       /* Otherwise, just the calibration is allowed */
 418:Drivers/STM32F3xx_HAL_Driver/Src/stm32f3xx_hal_rcc.c ****       else
 419:Drivers/STM32F3xx_HAL_Driver/Src/stm32f3xx_hal_rcc.c ****       {
 420:Drivers/STM32F3xx_HAL_Driver/Src/stm32f3xx_hal_rcc.c ****         /* Adjusts the Internal High Speed oscillator (HSI) calibration value.*/
 421:Drivers/STM32F3xx_HAL_Driver/Src/stm32f3xx_hal_rcc.c ****         __HAL_RCC_HSI_CALIBRATIONVALUE_ADJUST(RCC_OscInitStruct->HSICalibrationValue);
 422:Drivers/STM32F3xx_HAL_Driver/Src/stm32f3xx_hal_rcc.c ****       }
 423:Drivers/STM32F3xx_HAL_Driver/Src/stm32f3xx_hal_rcc.c ****     }
 424:Drivers/STM32F3xx_HAL_Driver/Src/stm32f3xx_hal_rcc.c ****     else
 425:Drivers/STM32F3xx_HAL_Driver/Src/stm32f3xx_hal_rcc.c ****     {
 426:Drivers/STM32F3xx_HAL_Driver/Src/stm32f3xx_hal_rcc.c ****       /* Check the HSI State */
 427:Drivers/STM32F3xx_HAL_Driver/Src/stm32f3xx_hal_rcc.c ****       if(RCC_OscInitStruct->HSIState != RCC_HSI_OFF)
 397              		.loc 1 427 7 is_stmt 1 view .LVU108
 398              		.loc 1 427 27 is_stmt 0 view .LVU109
 399 00b4 E368     		ldr	r3, [r4, #12]
 400              		.loc 1 427 9 view .LVU110
 401 00b6 002B     		cmp	r3, #0
ARM GAS  /var/folders/md/lgcc8l7571l9vt9sx0g0zflw0000gn/T//ccUH8gjh.s 			page 26


 402 00b8 00F0ED80 		beq	.L46
 428:Drivers/STM32F3xx_HAL_Driver/Src/stm32f3xx_hal_rcc.c ****       {
 429:Drivers/STM32F3xx_HAL_Driver/Src/stm32f3xx_hal_rcc.c ****        /* Enable the Internal High Speed oscillator (HSI). */
 430:Drivers/STM32F3xx_HAL_Driver/Src/stm32f3xx_hal_rcc.c ****         __HAL_RCC_HSI_ENABLE();
 403              		.loc 1 430 9 is_stmt 1 view .LVU111
 404              	.LVL24:
 405              	.LBB174:
 406              	.LBI174:
 526:Drivers/CMSIS/Include/cmsis_gcc.h **** {
 407              		.loc 2 526 57 view .LVU112
 408              	.LBB175:
 528:Drivers/CMSIS/Include/cmsis_gcc.h **** 
 409              		.loc 2 528 3 view .LVU113
 531:Drivers/CMSIS/Include/cmsis_gcc.h **** #else
 410              		.loc 2 531 4 view .LVU114
 411 00bc 0122     		movs	r2, #1
 412              		.syntax unified
 413              	@ 531 "Drivers/CMSIS/Include/cmsis_gcc.h" 1
 414 00be 92FAA2F3 		rbit r3, r2
 415              	@ 0 "" 2
 416              	.LVL25:
 417              		.loc 2 544 3 view .LVU115
 418              		.loc 2 544 3 is_stmt 0 view .LVU116
 419              		.thumb
 420              		.syntax unified
 421              	.LBE175:
 422              	.LBE174:
 423              		.loc 1 430 9 view .LVU117
 424 00c2 B3FA83F3 		clz	r3, r3
 425 00c6 03F18453 		add	r3, r3, #276824064
 426 00ca 03F58413 		add	r3, r3, #1081344
 427 00ce 9B00     		lsls	r3, r3, #2
 428 00d0 1A60     		str	r2, [r3]
 431:Drivers/STM32F3xx_HAL_Driver/Src/stm32f3xx_hal_rcc.c ****         
 432:Drivers/STM32F3xx_HAL_Driver/Src/stm32f3xx_hal_rcc.c ****         /* Get Start Tick */
 433:Drivers/STM32F3xx_HAL_Driver/Src/stm32f3xx_hal_rcc.c ****         tickstart = HAL_GetTick();
 429              		.loc 1 433 9 is_stmt 1 view .LVU118
 430              		.loc 1 433 21 is_stmt 0 view .LVU119
 431 00d2 FFF7FEFF 		bl	HAL_GetTick
 432              	.LVL26:
 433 00d6 0546     		mov	r5, r0
 434              	.LVL27:
 434:Drivers/STM32F3xx_HAL_Driver/Src/stm32f3xx_hal_rcc.c ****         
 435:Drivers/STM32F3xx_HAL_Driver/Src/stm32f3xx_hal_rcc.c ****         /* Wait till HSI is ready */
 436:Drivers/STM32F3xx_HAL_Driver/Src/stm32f3xx_hal_rcc.c ****         while(__HAL_RCC_GET_FLAG(RCC_FLAG_HSIRDY) == RESET)
 435              		.loc 1 436 9 is_stmt 1 view .LVU120
 436              	.L47:
 437              	.LBB176:
 438              	.LBI176:
 526:Drivers/CMSIS/Include/cmsis_gcc.h **** {
 439              		.loc 2 526 57 view .LVU121
 440              	.LBB177:
 528:Drivers/CMSIS/Include/cmsis_gcc.h **** 
 441              		.loc 2 528 3 view .LVU122
 531:Drivers/CMSIS/Include/cmsis_gcc.h **** #else
 442              		.loc 2 531 4 view .LVU123
 443 00d8 0223     		movs	r3, #2
ARM GAS  /var/folders/md/lgcc8l7571l9vt9sx0g0zflw0000gn/T//ccUH8gjh.s 			page 27


 444              		.syntax unified
 445              	@ 531 "Drivers/CMSIS/Include/cmsis_gcc.h" 1
 446 00da 93FAA3F3 		rbit r3, r3
 447              	@ 0 "" 2
 448              		.loc 2 544 3 view .LVU124
 449              	.LVL28:
 450              		.loc 2 544 3 is_stmt 0 view .LVU125
 451              		.thumb
 452              		.syntax unified
 453              	.LBE177:
 454              	.LBE176:
 455              		.loc 1 436 15 view .LVU126
 456 00de 954B     		ldr	r3, .L129
 457 00e0 1968     		ldr	r1, [r3]
 458              	.LVL29:
 459              	.LBB178:
 460              	.LBI178:
 526:Drivers/CMSIS/Include/cmsis_gcc.h **** {
 461              		.loc 2 526 57 is_stmt 1 view .LVU127
 462              	.LBB179:
 528:Drivers/CMSIS/Include/cmsis_gcc.h **** 
 463              		.loc 2 528 3 view .LVU128
 531:Drivers/CMSIS/Include/cmsis_gcc.h **** #else
 464              		.loc 2 531 4 view .LVU129
 465 00e2 0223     		movs	r3, #2
 466              		.syntax unified
 467              	@ 531 "Drivers/CMSIS/Include/cmsis_gcc.h" 1
 468 00e4 93FAA3F3 		rbit r3, r3
 469              	@ 0 "" 2
 470              	.LVL30:
 471              		.loc 2 544 3 view .LVU130
 472              		.loc 2 544 3 is_stmt 0 view .LVU131
 473              		.thumb
 474              		.syntax unified
 475              	.LBE179:
 476              	.LBE178:
 477              		.loc 1 436 15 view .LVU132
 478 00e8 B3FA83F3 		clz	r3, r3
 479 00ec 03F01F03 		and	r3, r3, #31
 480 00f0 0122     		movs	r2, #1
 481 00f2 02FA03F3 		lsl	r3, r2, r3
 482              		.loc 1 436 14 view .LVU133
 483 00f6 0B42     		tst	r3, r1
 484 00f8 40F0BE80 		bne	.L119
 437:Drivers/STM32F3xx_HAL_Driver/Src/stm32f3xx_hal_rcc.c ****         {
 438:Drivers/STM32F3xx_HAL_Driver/Src/stm32f3xx_hal_rcc.c ****           if((HAL_GetTick() - tickstart ) > HSI_TIMEOUT_VALUE)
 485              		.loc 1 438 11 is_stmt 1 view .LVU134
 486              		.loc 1 438 15 is_stmt 0 view .LVU135
 487 00fc FFF7FEFF 		bl	HAL_GetTick
 488              	.LVL31:
 489              		.loc 1 438 29 view .LVU136
 490 0100 401B     		subs	r0, r0, r5
 491              		.loc 1 438 13 view .LVU137
 492 0102 0228     		cmp	r0, #2
 493 0104 E8D9     		bls	.L47
 439:Drivers/STM32F3xx_HAL_Driver/Src/stm32f3xx_hal_rcc.c ****           {
 440:Drivers/STM32F3xx_HAL_Driver/Src/stm32f3xx_hal_rcc.c ****             return HAL_TIMEOUT;
ARM GAS  /var/folders/md/lgcc8l7571l9vt9sx0g0zflw0000gn/T//ccUH8gjh.s 			page 28


 494              		.loc 1 440 20 view .LVU138
 495 0106 0320     		movs	r0, #3
 496 0108 75E2     		b	.L21
 497              	.LVL32:
 498              	.L116:
 363:Drivers/STM32F3xx_HAL_Driver/Src/stm32f3xx_hal_rcc.c ****       
 499              		.loc 1 363 7 is_stmt 1 discriminator 1 view .LVU139
 500 010a 8A4A     		ldr	r2, .L129
 501 010c 1368     		ldr	r3, [r2]
 502 010e 43F48033 		orr	r3, r3, #65536
 503 0112 1360     		str	r3, [r2]
 504              	.L28:
 371:Drivers/STM32F3xx_HAL_Driver/Src/stm32f3xx_hal_rcc.c ****       {
 505              		.loc 1 371 7 view .LVU140
 371:Drivers/STM32F3xx_HAL_Driver/Src/stm32f3xx_hal_rcc.c ****       {
 506              		.loc 1 371 27 is_stmt 0 view .LVU141
 507 0114 6368     		ldr	r3, [r4, #4]
 371:Drivers/STM32F3xx_HAL_Driver/Src/stm32f3xx_hal_rcc.c ****       {
 508              		.loc 1 371 9 view .LVU142
 509 0116 002B     		cmp	r3, #0
 510 0118 36D0     		beq	.L31
 374:Drivers/STM32F3xx_HAL_Driver/Src/stm32f3xx_hal_rcc.c ****         
 511              		.loc 1 374 9 is_stmt 1 view .LVU143
 374:Drivers/STM32F3xx_HAL_Driver/Src/stm32f3xx_hal_rcc.c ****         
 512              		.loc 1 374 21 is_stmt 0 view .LVU144
 513 011a FFF7FEFF 		bl	HAL_GetTick
 514              	.LVL33:
 374:Drivers/STM32F3xx_HAL_Driver/Src/stm32f3xx_hal_rcc.c ****         
 515              		.loc 1 374 21 view .LVU145
 516 011e 0546     		mov	r5, r0
 517              	.LVL34:
 377:Drivers/STM32F3xx_HAL_Driver/Src/stm32f3xx_hal_rcc.c ****         {
 518              		.loc 1 377 9 is_stmt 1 view .LVU146
 519              	.L32:
 520              	.LBB180:
 521              	.LBI180:
 526:Drivers/CMSIS/Include/cmsis_gcc.h **** {
 522              		.loc 2 526 57 view .LVU147
 523              	.LBB181:
 528:Drivers/CMSIS/Include/cmsis_gcc.h **** 
 524              		.loc 2 528 3 view .LVU148
 531:Drivers/CMSIS/Include/cmsis_gcc.h **** #else
 525              		.loc 2 531 4 view .LVU149
 526 0120 4FF40033 		mov	r3, #131072
 527              		.syntax unified
 528              	@ 531 "Drivers/CMSIS/Include/cmsis_gcc.h" 1
 529 0124 93FAA3F3 		rbit r3, r3
 530              	@ 0 "" 2
 531              		.loc 2 544 3 view .LVU150
 532              	.LVL35:
 533              		.loc 2 544 3 is_stmt 0 view .LVU151
 534              		.thumb
 535              		.syntax unified
 536              	.LBE181:
 537              	.LBE180:
 377:Drivers/STM32F3xx_HAL_Driver/Src/stm32f3xx_hal_rcc.c ****         {
 538              		.loc 1 377 15 view .LVU152
ARM GAS  /var/folders/md/lgcc8l7571l9vt9sx0g0zflw0000gn/T//ccUH8gjh.s 			page 29


 539 0128 824B     		ldr	r3, .L129
 540 012a 1968     		ldr	r1, [r3]
 541              	.LVL36:
 542              	.LBB182:
 543              	.LBI182:
 526:Drivers/CMSIS/Include/cmsis_gcc.h **** {
 544              		.loc 2 526 57 is_stmt 1 view .LVU153
 545              	.LBB183:
 528:Drivers/CMSIS/Include/cmsis_gcc.h **** 
 546              		.loc 2 528 3 view .LVU154
 531:Drivers/CMSIS/Include/cmsis_gcc.h **** #else
 547              		.loc 2 531 4 view .LVU155
 548 012c 4FF40033 		mov	r3, #131072
 549              		.syntax unified
 550              	@ 531 "Drivers/CMSIS/Include/cmsis_gcc.h" 1
 551 0130 93FAA3F3 		rbit r3, r3
 552              	@ 0 "" 2
 553              	.LVL37:
 554              		.loc 2 544 3 view .LVU156
 555              		.loc 2 544 3 is_stmt 0 view .LVU157
 556              		.thumb
 557              		.syntax unified
 558              	.LBE183:
 559              	.LBE182:
 377:Drivers/STM32F3xx_HAL_Driver/Src/stm32f3xx_hal_rcc.c ****         {
 560              		.loc 1 377 15 view .LVU158
 561 0134 B3FA83F3 		clz	r3, r3
 562 0138 03F01F03 		and	r3, r3, #31
 563 013c 0122     		movs	r2, #1
 564 013e 02FA03F3 		lsl	r3, r2, r3
 377:Drivers/STM32F3xx_HAL_Driver/Src/stm32f3xx_hal_rcc.c ****         {
 565              		.loc 1 377 14 view .LVU159
 566 0142 1942     		tst	r1, r3
 567 0144 A4D1     		bne	.L22
 379:Drivers/STM32F3xx_HAL_Driver/Src/stm32f3xx_hal_rcc.c ****           {
 568              		.loc 1 379 11 is_stmt 1 view .LVU160
 379:Drivers/STM32F3xx_HAL_Driver/Src/stm32f3xx_hal_rcc.c ****           {
 569              		.loc 1 379 15 is_stmt 0 view .LVU161
 570 0146 FFF7FEFF 		bl	HAL_GetTick
 571              	.LVL38:
 379:Drivers/STM32F3xx_HAL_Driver/Src/stm32f3xx_hal_rcc.c ****           {
 572              		.loc 1 379 29 view .LVU162
 573 014a 401B     		subs	r0, r0, r5
 379:Drivers/STM32F3xx_HAL_Driver/Src/stm32f3xx_hal_rcc.c ****           {
 574              		.loc 1 379 13 view .LVU163
 575 014c 6428     		cmp	r0, #100
 576 014e E7D9     		bls	.L32
 381:Drivers/STM32F3xx_HAL_Driver/Src/stm32f3xx_hal_rcc.c ****           }
 577              		.loc 1 381 20 view .LVU164
 578 0150 0320     		movs	r0, #3
 579 0152 50E2     		b	.L21
 580              	.LVL39:
 581              	.L29:
 363:Drivers/STM32F3xx_HAL_Driver/Src/stm32f3xx_hal_rcc.c ****       
 582              		.loc 1 363 7 is_stmt 1 discriminator 4 view .LVU165
 583 0154 B3F5A02F 		cmp	r3, #327680
 584 0158 09D0     		beq	.L120
ARM GAS  /var/folders/md/lgcc8l7571l9vt9sx0g0zflw0000gn/T//ccUH8gjh.s 			page 30


 363:Drivers/STM32F3xx_HAL_Driver/Src/stm32f3xx_hal_rcc.c ****       
 585              		.loc 1 363 7 discriminator 6 view .LVU166
 586 015a 764B     		ldr	r3, .L129
 587 015c 1A68     		ldr	r2, [r3]
 588 015e 22F48032 		bic	r2, r2, #65536
 589 0162 1A60     		str	r2, [r3]
 363:Drivers/STM32F3xx_HAL_Driver/Src/stm32f3xx_hal_rcc.c ****       
 590              		.loc 1 363 7 discriminator 6 view .LVU167
 591 0164 1A68     		ldr	r2, [r3]
 592 0166 22F48022 		bic	r2, r2, #262144
 593 016a 1A60     		str	r2, [r3]
 594 016c D2E7     		b	.L28
 595              	.L120:
 363:Drivers/STM32F3xx_HAL_Driver/Src/stm32f3xx_hal_rcc.c ****       
 596              		.loc 1 363 7 discriminator 5 view .LVU168
 597 016e 03F18043 		add	r3, r3, #1073741824
 598 0172 A3F53C33 		sub	r3, r3, #192512
 599 0176 1A68     		ldr	r2, [r3]
 600 0178 42F48022 		orr	r2, r2, #262144
 601 017c 1A60     		str	r2, [r3]
 363:Drivers/STM32F3xx_HAL_Driver/Src/stm32f3xx_hal_rcc.c ****       
 602              		.loc 1 363 7 discriminator 5 view .LVU169
 603 017e 1A68     		ldr	r2, [r3]
 604 0180 42F48032 		orr	r2, r2, #65536
 605 0184 1A60     		str	r2, [r3]
 606 0186 C5E7     		b	.L28
 607              	.L31:
 388:Drivers/STM32F3xx_HAL_Driver/Src/stm32f3xx_hal_rcc.c ****         
 608              		.loc 1 388 9 view .LVU170
 388:Drivers/STM32F3xx_HAL_Driver/Src/stm32f3xx_hal_rcc.c ****         
 609              		.loc 1 388 21 is_stmt 0 view .LVU171
 610 0188 FFF7FEFF 		bl	HAL_GetTick
 611              	.LVL40:
 388:Drivers/STM32F3xx_HAL_Driver/Src/stm32f3xx_hal_rcc.c ****         
 612              		.loc 1 388 21 view .LVU172
 613 018c 0546     		mov	r5, r0
 614              	.LVL41:
 391:Drivers/STM32F3xx_HAL_Driver/Src/stm32f3xx_hal_rcc.c ****         {
 615              		.loc 1 391 9 is_stmt 1 view .LVU173
 616              	.L36:
 617              	.LBB184:
 618              	.LBI184:
 526:Drivers/CMSIS/Include/cmsis_gcc.h **** {
 619              		.loc 2 526 57 view .LVU174
 620              	.LBB185:
 528:Drivers/CMSIS/Include/cmsis_gcc.h **** 
 621              		.loc 2 528 3 view .LVU175
 531:Drivers/CMSIS/Include/cmsis_gcc.h **** #else
 622              		.loc 2 531 4 view .LVU176
 623 018e 4FF40033 		mov	r3, #131072
 624              		.syntax unified
 625              	@ 531 "Drivers/CMSIS/Include/cmsis_gcc.h" 1
 626 0192 93FAA3F3 		rbit r3, r3
 627              	@ 0 "" 2
 628              		.loc 2 544 3 view .LVU177
 629              	.LVL42:
 630              		.loc 2 544 3 is_stmt 0 view .LVU178
ARM GAS  /var/folders/md/lgcc8l7571l9vt9sx0g0zflw0000gn/T//ccUH8gjh.s 			page 31


 631              		.thumb
 632              		.syntax unified
 633              	.LBE185:
 634              	.LBE184:
 391:Drivers/STM32F3xx_HAL_Driver/Src/stm32f3xx_hal_rcc.c ****         {
 635              		.loc 1 391 15 view .LVU179
 636 0196 674B     		ldr	r3, .L129
 637 0198 1968     		ldr	r1, [r3]
 638              	.LVL43:
 639              	.LBB186:
 640              	.LBI186:
 526:Drivers/CMSIS/Include/cmsis_gcc.h **** {
 641              		.loc 2 526 57 is_stmt 1 view .LVU180
 642              	.LBB187:
 528:Drivers/CMSIS/Include/cmsis_gcc.h **** 
 643              		.loc 2 528 3 view .LVU181
 531:Drivers/CMSIS/Include/cmsis_gcc.h **** #else
 644              		.loc 2 531 4 view .LVU182
 645 019a 4FF40033 		mov	r3, #131072
 646              		.syntax unified
 647              	@ 531 "Drivers/CMSIS/Include/cmsis_gcc.h" 1
 648 019e 93FAA3F3 		rbit r3, r3
 649              	@ 0 "" 2
 650              	.LVL44:
 651              		.loc 2 544 3 view .LVU183
 652              		.loc 2 544 3 is_stmt 0 view .LVU184
 653              		.thumb
 654              		.syntax unified
 655              	.LBE187:
 656              	.LBE186:
 391:Drivers/STM32F3xx_HAL_Driver/Src/stm32f3xx_hal_rcc.c ****         {
 657              		.loc 1 391 15 view .LVU185
 658 01a2 B3FA83F3 		clz	r3, r3
 659 01a6 03F01F03 		and	r3, r3, #31
 660 01aa 0122     		movs	r2, #1
 661 01ac 02FA03F3 		lsl	r3, r2, r3
 391:Drivers/STM32F3xx_HAL_Driver/Src/stm32f3xx_hal_rcc.c ****         {
 662              		.loc 1 391 14 view .LVU186
 663 01b0 1942     		tst	r1, r3
 664 01b2 3FF46DAF 		beq	.L22
 393:Drivers/STM32F3xx_HAL_Driver/Src/stm32f3xx_hal_rcc.c ****           {
 665              		.loc 1 393 12 is_stmt 1 view .LVU187
 393:Drivers/STM32F3xx_HAL_Driver/Src/stm32f3xx_hal_rcc.c ****           {
 666              		.loc 1 393 16 is_stmt 0 view .LVU188
 667 01b6 FFF7FEFF 		bl	HAL_GetTick
 668              	.LVL45:
 393:Drivers/STM32F3xx_HAL_Driver/Src/stm32f3xx_hal_rcc.c ****           {
 669              		.loc 1 393 30 view .LVU189
 670 01ba 401B     		subs	r0, r0, r5
 393:Drivers/STM32F3xx_HAL_Driver/Src/stm32f3xx_hal_rcc.c ****           {
 671              		.loc 1 393 14 view .LVU190
 672 01bc 6428     		cmp	r0, #100
 673 01be E6D9     		bls	.L36
 395:Drivers/STM32F3xx_HAL_Driver/Src/stm32f3xx_hal_rcc.c ****           }
 674              		.loc 1 395 20 view .LVU191
 675 01c0 0320     		movs	r0, #3
 676 01c2 18E2     		b	.L21
ARM GAS  /var/folders/md/lgcc8l7571l9vt9sx0g0zflw0000gn/T//ccUH8gjh.s 			page 32


 677              	.LVL46:
 678              	.L118:
 410:Drivers/STM32F3xx_HAL_Driver/Src/stm32f3xx_hal_rcc.c ****     {
 679              		.loc 1 410 82 discriminator 1 view .LVU192
 680 01c4 5B4B     		ldr	r3, .L129
 681 01c6 5B68     		ldr	r3, [r3, #4]
 682 01c8 03F4C033 		and	r3, r3, #98304
 410:Drivers/STM32F3xx_HAL_Driver/Src/stm32f3xx_hal_rcc.c ****     {
 683              		.loc 1 410 78 discriminator 1 view .LVU193
 684 01cc B3F5004F 		cmp	r3, #32768
 685 01d0 7FF470AF 		bne	.L42
 686              	.L41:
 413:Drivers/STM32F3xx_HAL_Driver/Src/stm32f3xx_hal_rcc.c ****       {
 687              		.loc 1 413 7 is_stmt 1 view .LVU194
 688              	.LVL47:
 689              	.LBB188:
 690              	.LBI188:
 526:Drivers/CMSIS/Include/cmsis_gcc.h **** {
 691              		.loc 2 526 57 view .LVU195
 692              	.LBB189:
 528:Drivers/CMSIS/Include/cmsis_gcc.h **** 
 693              		.loc 2 528 3 view .LVU196
 531:Drivers/CMSIS/Include/cmsis_gcc.h **** #else
 694              		.loc 2 531 4 view .LVU197
 695 01d4 0223     		movs	r3, #2
 696              		.syntax unified
 697              	@ 531 "Drivers/CMSIS/Include/cmsis_gcc.h" 1
 698 01d6 93FAA3F3 		rbit r3, r3
 699              	@ 0 "" 2
 700              		.loc 2 544 3 view .LVU198
 701              	.LVL48:
 702              		.loc 2 544 3 is_stmt 0 view .LVU199
 703              		.thumb
 704              		.syntax unified
 705              	.LBE189:
 706              	.LBE188:
 413:Drivers/STM32F3xx_HAL_Driver/Src/stm32f3xx_hal_rcc.c ****       {
 707              		.loc 1 413 11 view .LVU200
 708 01da 564B     		ldr	r3, .L129
 709 01dc 1968     		ldr	r1, [r3]
 710              	.LVL49:
 711              	.LBB190:
 712              	.LBI190:
 526:Drivers/CMSIS/Include/cmsis_gcc.h **** {
 713              		.loc 2 526 57 is_stmt 1 view .LVU201
 714              	.LBB191:
 528:Drivers/CMSIS/Include/cmsis_gcc.h **** 
 715              		.loc 2 528 3 view .LVU202
 531:Drivers/CMSIS/Include/cmsis_gcc.h **** #else
 716              		.loc 2 531 4 view .LVU203
 717 01de 0223     		movs	r3, #2
 718              		.syntax unified
 719              	@ 531 "Drivers/CMSIS/Include/cmsis_gcc.h" 1
 720 01e0 93FAA3F3 		rbit r3, r3
 721              	@ 0 "" 2
 722              	.LVL50:
 723              		.loc 2 544 3 view .LVU204
ARM GAS  /var/folders/md/lgcc8l7571l9vt9sx0g0zflw0000gn/T//ccUH8gjh.s 			page 33


 724              		.loc 2 544 3 is_stmt 0 view .LVU205
 725              		.thumb
 726              		.syntax unified
 727              	.LBE191:
 728              	.LBE190:
 413:Drivers/STM32F3xx_HAL_Driver/Src/stm32f3xx_hal_rcc.c ****       {
 729              		.loc 1 413 11 view .LVU206
 730 01e4 B3FA83F3 		clz	r3, r3
 731 01e8 03F01F03 		and	r3, r3, #31
 732 01ec 0122     		movs	r2, #1
 733 01ee 02FA03F3 		lsl	r3, r2, r3
 413:Drivers/STM32F3xx_HAL_Driver/Src/stm32f3xx_hal_rcc.c ****       {
 734              		.loc 1 413 9 view .LVU207
 735 01f2 1942     		tst	r1, r3
 736 01f4 03D0     		beq	.L45
 413:Drivers/STM32F3xx_HAL_Driver/Src/stm32f3xx_hal_rcc.c ****       {
 737              		.loc 1 413 78 discriminator 13 view .LVU208
 738 01f6 E368     		ldr	r3, [r4, #12]
 413:Drivers/STM32F3xx_HAL_Driver/Src/stm32f3xx_hal_rcc.c ****       {
 739              		.loc 1 413 57 discriminator 13 view .LVU209
 740 01f8 9342     		cmp	r3, r2
 741 01fa 40F0F581 		bne	.L97
 742              	.L45:
 421:Drivers/STM32F3xx_HAL_Driver/Src/stm32f3xx_hal_rcc.c ****       }
 743              		.loc 1 421 9 is_stmt 1 view .LVU210
 744 01fe 4D48     		ldr	r0, .L129
 745 0200 0368     		ldr	r3, [r0]
 746 0202 23F0F803 		bic	r3, r3, #248
 747 0206 2169     		ldr	r1, [r4, #16]
 748              	.LVL51:
 749              	.LBB192:
 750              	.LBI192:
 526:Drivers/CMSIS/Include/cmsis_gcc.h **** {
 751              		.loc 2 526 57 view .LVU211
 752              	.LBB193:
 528:Drivers/CMSIS/Include/cmsis_gcc.h **** 
 753              		.loc 2 528 3 view .LVU212
 531:Drivers/CMSIS/Include/cmsis_gcc.h **** #else
 754              		.loc 2 531 4 view .LVU213
 755 0208 F822     		movs	r2, #248
 756              		.syntax unified
 757              	@ 531 "Drivers/CMSIS/Include/cmsis_gcc.h" 1
 758 020a 92FAA2F2 		rbit r2, r2
 759              	@ 0 "" 2
 760              	.LVL52:
 761              		.loc 2 544 3 view .LVU214
 762              		.loc 2 544 3 is_stmt 0 view .LVU215
 763              		.thumb
 764              		.syntax unified
 765              	.LBE193:
 766              	.LBE192:
 421:Drivers/STM32F3xx_HAL_Driver/Src/stm32f3xx_hal_rcc.c ****       }
 767              		.loc 1 421 9 view .LVU216
 768 020e B2FA82F2 		clz	r2, r2
 769 0212 01FA02F2 		lsl	r2, r1, r2
 770 0216 1343     		orrs	r3, r3, r2
 771 0218 0360     		str	r3, [r0]
ARM GAS  /var/folders/md/lgcc8l7571l9vt9sx0g0zflw0000gn/T//ccUH8gjh.s 			page 34


 772              	.L40:
 441:Drivers/STM32F3xx_HAL_Driver/Src/stm32f3xx_hal_rcc.c ****           }
 442:Drivers/STM32F3xx_HAL_Driver/Src/stm32f3xx_hal_rcc.c ****         }
 443:Drivers/STM32F3xx_HAL_Driver/Src/stm32f3xx_hal_rcc.c ****                 
 444:Drivers/STM32F3xx_HAL_Driver/Src/stm32f3xx_hal_rcc.c ****         /* Adjusts the Internal High Speed oscillator (HSI) calibration value.*/
 445:Drivers/STM32F3xx_HAL_Driver/Src/stm32f3xx_hal_rcc.c ****         __HAL_RCC_HSI_CALIBRATIONVALUE_ADJUST(RCC_OscInitStruct->HSICalibrationValue);
 446:Drivers/STM32F3xx_HAL_Driver/Src/stm32f3xx_hal_rcc.c ****       }
 447:Drivers/STM32F3xx_HAL_Driver/Src/stm32f3xx_hal_rcc.c ****       else
 448:Drivers/STM32F3xx_HAL_Driver/Src/stm32f3xx_hal_rcc.c ****       {
 449:Drivers/STM32F3xx_HAL_Driver/Src/stm32f3xx_hal_rcc.c ****         /* Disable the Internal High Speed oscillator (HSI). */
 450:Drivers/STM32F3xx_HAL_Driver/Src/stm32f3xx_hal_rcc.c ****         __HAL_RCC_HSI_DISABLE();
 451:Drivers/STM32F3xx_HAL_Driver/Src/stm32f3xx_hal_rcc.c ****         
 452:Drivers/STM32F3xx_HAL_Driver/Src/stm32f3xx_hal_rcc.c ****         /* Get Start Tick */
 453:Drivers/STM32F3xx_HAL_Driver/Src/stm32f3xx_hal_rcc.c ****         tickstart = HAL_GetTick();
 454:Drivers/STM32F3xx_HAL_Driver/Src/stm32f3xx_hal_rcc.c ****         
 455:Drivers/STM32F3xx_HAL_Driver/Src/stm32f3xx_hal_rcc.c ****         /* Wait till HSI is disabled */
 456:Drivers/STM32F3xx_HAL_Driver/Src/stm32f3xx_hal_rcc.c ****         while(__HAL_RCC_GET_FLAG(RCC_FLAG_HSIRDY) != RESET)
 457:Drivers/STM32F3xx_HAL_Driver/Src/stm32f3xx_hal_rcc.c ****         {
 458:Drivers/STM32F3xx_HAL_Driver/Src/stm32f3xx_hal_rcc.c ****           if((HAL_GetTick() - tickstart ) > HSI_TIMEOUT_VALUE)
 459:Drivers/STM32F3xx_HAL_Driver/Src/stm32f3xx_hal_rcc.c ****           {
 460:Drivers/STM32F3xx_HAL_Driver/Src/stm32f3xx_hal_rcc.c ****             return HAL_TIMEOUT;
 461:Drivers/STM32F3xx_HAL_Driver/Src/stm32f3xx_hal_rcc.c ****           }
 462:Drivers/STM32F3xx_HAL_Driver/Src/stm32f3xx_hal_rcc.c ****         }
 463:Drivers/STM32F3xx_HAL_Driver/Src/stm32f3xx_hal_rcc.c ****       }
 464:Drivers/STM32F3xx_HAL_Driver/Src/stm32f3xx_hal_rcc.c ****     }
 465:Drivers/STM32F3xx_HAL_Driver/Src/stm32f3xx_hal_rcc.c ****   }
 466:Drivers/STM32F3xx_HAL_Driver/Src/stm32f3xx_hal_rcc.c ****   /*------------------------------ LSI Configuration -------------------------*/ 
 467:Drivers/STM32F3xx_HAL_Driver/Src/stm32f3xx_hal_rcc.c ****   if(((RCC_OscInitStruct->OscillatorType) & RCC_OSCILLATORTYPE_LSI) == RCC_OSCILLATORTYPE_LSI)
 773              		.loc 1 467 3 is_stmt 1 view .LVU217
 774              		.loc 1 467 25 is_stmt 0 view .LVU218
 775 021a 2368     		ldr	r3, [r4]
 776              		.loc 1 467 5 view .LVU219
 777 021c 13F0080F 		tst	r3, #8
 778 0220 00F08C80 		beq	.L55
 468:Drivers/STM32F3xx_HAL_Driver/Src/stm32f3xx_hal_rcc.c ****   {
 469:Drivers/STM32F3xx_HAL_Driver/Src/stm32f3xx_hal_rcc.c ****     /* Check the parameters */
 470:Drivers/STM32F3xx_HAL_Driver/Src/stm32f3xx_hal_rcc.c ****     assert_param(IS_RCC_LSI(RCC_OscInitStruct->LSIState));
 779              		.loc 1 470 5 is_stmt 1 view .LVU220
 471:Drivers/STM32F3xx_HAL_Driver/Src/stm32f3xx_hal_rcc.c ****     
 472:Drivers/STM32F3xx_HAL_Driver/Src/stm32f3xx_hal_rcc.c ****     /* Check the LSI State */
 473:Drivers/STM32F3xx_HAL_Driver/Src/stm32f3xx_hal_rcc.c ****     if(RCC_OscInitStruct->LSIState != RCC_LSI_OFF)
 780              		.loc 1 473 5 view .LVU221
 781              		.loc 1 473 25 is_stmt 0 view .LVU222
 782 0224 6369     		ldr	r3, [r4, #20]
 783              		.loc 1 473 7 view .LVU223
 784 0226 002B     		cmp	r3, #0
 785 0228 5CD0     		beq	.L56
 474:Drivers/STM32F3xx_HAL_Driver/Src/stm32f3xx_hal_rcc.c ****     {
 475:Drivers/STM32F3xx_HAL_Driver/Src/stm32f3xx_hal_rcc.c ****       /* Enable the Internal Low Speed oscillator (LSI). */
 476:Drivers/STM32F3xx_HAL_Driver/Src/stm32f3xx_hal_rcc.c ****       __HAL_RCC_LSI_ENABLE();
 786              		.loc 1 476 7 is_stmt 1 view .LVU224
 787              	.LVL53:
 788              	.LBB194:
 789              	.LBI194:
 526:Drivers/CMSIS/Include/cmsis_gcc.h **** {
 790              		.loc 2 526 57 view .LVU225
 791              	.LBB195:
ARM GAS  /var/folders/md/lgcc8l7571l9vt9sx0g0zflw0000gn/T//ccUH8gjh.s 			page 35


 528:Drivers/CMSIS/Include/cmsis_gcc.h **** 
 792              		.loc 2 528 3 view .LVU226
 531:Drivers/CMSIS/Include/cmsis_gcc.h **** #else
 793              		.loc 2 531 4 view .LVU227
 794 022a 0121     		movs	r1, #1
 795              		.syntax unified
 796              	@ 531 "Drivers/CMSIS/Include/cmsis_gcc.h" 1
 797 022c 91FAA1F2 		rbit r2, r1
 798              	@ 0 "" 2
 799              	.LVL54:
 800              		.loc 2 544 3 view .LVU228
 801              		.loc 2 544 3 is_stmt 0 view .LVU229
 802              		.thumb
 803              		.syntax unified
 804              	.LBE195:
 805              	.LBE194:
 806              		.loc 1 476 7 view .LVU230
 807 0230 B2FA82F2 		clz	r2, r2
 808 0234 404B     		ldr	r3, .L129+4
 809 0236 1344     		add	r3, r3, r2
 810 0238 9B00     		lsls	r3, r3, #2
 811 023a 1960     		str	r1, [r3]
 477:Drivers/STM32F3xx_HAL_Driver/Src/stm32f3xx_hal_rcc.c ****       
 478:Drivers/STM32F3xx_HAL_Driver/Src/stm32f3xx_hal_rcc.c ****       /* Get Start Tick */
 479:Drivers/STM32F3xx_HAL_Driver/Src/stm32f3xx_hal_rcc.c ****       tickstart = HAL_GetTick();
 812              		.loc 1 479 7 is_stmt 1 view .LVU231
 813              		.loc 1 479 19 is_stmt 0 view .LVU232
 814 023c FFF7FEFF 		bl	HAL_GetTick
 815              	.LVL55:
 816 0240 0546     		mov	r5, r0
 817              	.LVL56:
 480:Drivers/STM32F3xx_HAL_Driver/Src/stm32f3xx_hal_rcc.c ****       
 481:Drivers/STM32F3xx_HAL_Driver/Src/stm32f3xx_hal_rcc.c ****       /* Wait till LSI is ready */  
 482:Drivers/STM32F3xx_HAL_Driver/Src/stm32f3xx_hal_rcc.c ****       while(__HAL_RCC_GET_FLAG(RCC_FLAG_LSIRDY) == RESET)
 818              		.loc 1 482 7 is_stmt 1 view .LVU233
 819              	.L57:
 820              	.LBB196:
 821              	.LBI196:
 526:Drivers/CMSIS/Include/cmsis_gcc.h **** {
 822              		.loc 2 526 57 view .LVU234
 823              	.LBB197:
 528:Drivers/CMSIS/Include/cmsis_gcc.h **** 
 824              		.loc 2 528 3 view .LVU235
 531:Drivers/CMSIS/Include/cmsis_gcc.h **** #else
 825              		.loc 2 531 4 view .LVU236
 826 0242 0223     		movs	r3, #2
 827              		.syntax unified
 828              	@ 531 "Drivers/CMSIS/Include/cmsis_gcc.h" 1
 829 0244 93FAA3F2 		rbit r2, r3
 830              	@ 0 "" 2
 831              	.LVL57:
 832              		.loc 2 544 3 view .LVU237
 833              		.loc 2 544 3 is_stmt 0 view .LVU238
 834              		.thumb
 835              		.syntax unified
 836              	.LBE197:
 837              	.LBE196:
ARM GAS  /var/folders/md/lgcc8l7571l9vt9sx0g0zflw0000gn/T//ccUH8gjh.s 			page 36


 838              	.LBB198:
 839              	.LBI198:
 526:Drivers/CMSIS/Include/cmsis_gcc.h **** {
 840              		.loc 2 526 57 is_stmt 1 view .LVU239
 841              	.LBB199:
 528:Drivers/CMSIS/Include/cmsis_gcc.h **** 
 842              		.loc 2 528 3 view .LVU240
 531:Drivers/CMSIS/Include/cmsis_gcc.h **** #else
 843              		.loc 2 531 4 view .LVU241
 844              		.syntax unified
 845              	@ 531 "Drivers/CMSIS/Include/cmsis_gcc.h" 1
 846 0248 93FAA3F2 		rbit r2, r3
 847              	@ 0 "" 2
 848              	.LVL58:
 849              		.loc 2 544 3 view .LVU242
 850              		.loc 2 544 3 is_stmt 0 view .LVU243
 851              		.thumb
 852              		.syntax unified
 853              	.LBE199:
 854              	.LBE198:
 855              	.LBB200:
 856              	.LBI200:
 526:Drivers/CMSIS/Include/cmsis_gcc.h **** {
 857              		.loc 2 526 57 is_stmt 1 view .LVU244
 858              	.LBB201:
 528:Drivers/CMSIS/Include/cmsis_gcc.h **** 
 859              		.loc 2 528 3 view .LVU245
 531:Drivers/CMSIS/Include/cmsis_gcc.h **** #else
 860              		.loc 2 531 4 view .LVU246
 861              		.syntax unified
 862              	@ 531 "Drivers/CMSIS/Include/cmsis_gcc.h" 1
 863 024c 93FAA3F2 		rbit r2, r3
 864              	@ 0 "" 2
 865              	.LVL59:
 866              		.loc 2 544 3 view .LVU247
 867              		.loc 2 544 3 is_stmt 0 view .LVU248
 868              		.thumb
 869              		.syntax unified
 870              	.LBE201:
 871              	.LBE200:
 872              		.loc 1 482 13 view .LVU249
 873 0250 384A     		ldr	r2, .L129
 874 0252 516A     		ldr	r1, [r2, #36]
 875              	.LVL60:
 876              	.LBB202:
 877              	.LBI202:
 526:Drivers/CMSIS/Include/cmsis_gcc.h **** {
 878              		.loc 2 526 57 is_stmt 1 view .LVU250
 879              	.LBB203:
 528:Drivers/CMSIS/Include/cmsis_gcc.h **** 
 880              		.loc 2 528 3 view .LVU251
 531:Drivers/CMSIS/Include/cmsis_gcc.h **** #else
 881              		.loc 2 531 4 view .LVU252
 882              		.syntax unified
 883              	@ 531 "Drivers/CMSIS/Include/cmsis_gcc.h" 1
 884 0254 93FAA3F3 		rbit r3, r3
 885              	@ 0 "" 2
ARM GAS  /var/folders/md/lgcc8l7571l9vt9sx0g0zflw0000gn/T//ccUH8gjh.s 			page 37


 886              	.LVL61:
 887              		.loc 2 544 3 view .LVU253
 888              		.loc 2 544 3 is_stmt 0 view .LVU254
 889              		.thumb
 890              		.syntax unified
 891              	.LBE203:
 892              	.LBE202:
 893              		.loc 1 482 13 view .LVU255
 894 0258 B3FA83F3 		clz	r3, r3
 895 025c 03F01F03 		and	r3, r3, #31
 896 0260 0122     		movs	r2, #1
 897 0262 02FA03F3 		lsl	r3, r2, r3
 898              		.loc 1 482 12 view .LVU256
 899 0266 0B42     		tst	r3, r1
 900 0268 68D1     		bne	.L55
 483:Drivers/STM32F3xx_HAL_Driver/Src/stm32f3xx_hal_rcc.c ****       {
 484:Drivers/STM32F3xx_HAL_Driver/Src/stm32f3xx_hal_rcc.c ****         if((HAL_GetTick() - tickstart ) > LSI_TIMEOUT_VALUE)
 901              		.loc 1 484 9 is_stmt 1 view .LVU257
 902              		.loc 1 484 13 is_stmt 0 view .LVU258
 903 026a FFF7FEFF 		bl	HAL_GetTick
 904              	.LVL62:
 905              		.loc 1 484 27 view .LVU259
 906 026e 401B     		subs	r0, r0, r5
 907              		.loc 1 484 11 view .LVU260
 908 0270 0228     		cmp	r0, #2
 909 0272 E6D9     		bls	.L57
 485:Drivers/STM32F3xx_HAL_Driver/Src/stm32f3xx_hal_rcc.c ****         {
 486:Drivers/STM32F3xx_HAL_Driver/Src/stm32f3xx_hal_rcc.c ****           return HAL_TIMEOUT;
 910              		.loc 1 486 18 view .LVU261
 911 0274 0320     		movs	r0, #3
 912 0276 BEE1     		b	.L21
 913              	.L119:
 445:Drivers/STM32F3xx_HAL_Driver/Src/stm32f3xx_hal_rcc.c ****       }
 914              		.loc 1 445 9 is_stmt 1 view .LVU262
 915 0278 2E48     		ldr	r0, .L129
 916 027a 0368     		ldr	r3, [r0]
 917 027c 23F0F803 		bic	r3, r3, #248
 918 0280 2169     		ldr	r1, [r4, #16]
 919              	.LVL63:
 920              	.LBB204:
 921              	.LBI204:
 526:Drivers/CMSIS/Include/cmsis_gcc.h **** {
 922              		.loc 2 526 57 view .LVU263
 923              	.LBB205:
 528:Drivers/CMSIS/Include/cmsis_gcc.h **** 
 924              		.loc 2 528 3 view .LVU264
 531:Drivers/CMSIS/Include/cmsis_gcc.h **** #else
 925              		.loc 2 531 4 view .LVU265
 926 0282 F822     		movs	r2, #248
 927              		.syntax unified
 928              	@ 531 "Drivers/CMSIS/Include/cmsis_gcc.h" 1
 929 0284 92FAA2F2 		rbit r2, r2
 930              	@ 0 "" 2
 931              	.LVL64:
 932              		.loc 2 544 3 view .LVU266
 933              		.loc 2 544 3 is_stmt 0 view .LVU267
 934              		.thumb
ARM GAS  /var/folders/md/lgcc8l7571l9vt9sx0g0zflw0000gn/T//ccUH8gjh.s 			page 38


 935              		.syntax unified
 936              	.LBE205:
 937              	.LBE204:
 445:Drivers/STM32F3xx_HAL_Driver/Src/stm32f3xx_hal_rcc.c ****       }
 938              		.loc 1 445 9 view .LVU268
 939 0288 B2FA82F2 		clz	r2, r2
 940 028c 01FA02F2 		lsl	r2, r1, r2
 941 0290 1343     		orrs	r3, r3, r2
 942 0292 0360     		str	r3, [r0]
 943 0294 C1E7     		b	.L40
 944              	.LVL65:
 945              	.L46:
 450:Drivers/STM32F3xx_HAL_Driver/Src/stm32f3xx_hal_rcc.c ****         
 946              		.loc 1 450 9 is_stmt 1 view .LVU269
 947              	.LBB206:
 948              	.LBI206:
 526:Drivers/CMSIS/Include/cmsis_gcc.h **** {
 949              		.loc 2 526 57 view .LVU270
 950              	.LBB207:
 528:Drivers/CMSIS/Include/cmsis_gcc.h **** 
 951              		.loc 2 528 3 view .LVU271
 531:Drivers/CMSIS/Include/cmsis_gcc.h **** #else
 952              		.loc 2 531 4 view .LVU272
 953 0296 0123     		movs	r3, #1
 954              		.syntax unified
 955              	@ 531 "Drivers/CMSIS/Include/cmsis_gcc.h" 1
 956 0298 93FAA3F3 		rbit r3, r3
 957              	@ 0 "" 2
 958              	.LVL66:
 959              		.loc 2 544 3 view .LVU273
 960              		.loc 2 544 3 is_stmt 0 view .LVU274
 961              		.thumb
 962              		.syntax unified
 963              	.LBE207:
 964              	.LBE206:
 450:Drivers/STM32F3xx_HAL_Driver/Src/stm32f3xx_hal_rcc.c ****         
 965              		.loc 1 450 9 view .LVU275
 966 029c B3FA83F3 		clz	r3, r3
 967 02a0 03F18453 		add	r3, r3, #276824064
 968 02a4 03F58413 		add	r3, r3, #1081344
 969 02a8 9B00     		lsls	r3, r3, #2
 970 02aa 0022     		movs	r2, #0
 971 02ac 1A60     		str	r2, [r3]
 453:Drivers/STM32F3xx_HAL_Driver/Src/stm32f3xx_hal_rcc.c ****         
 972              		.loc 1 453 9 is_stmt 1 view .LVU276
 453:Drivers/STM32F3xx_HAL_Driver/Src/stm32f3xx_hal_rcc.c ****         
 973              		.loc 1 453 21 is_stmt 0 view .LVU277
 974 02ae FFF7FEFF 		bl	HAL_GetTick
 975              	.LVL67:
 976 02b2 0546     		mov	r5, r0
 977              	.LVL68:
 456:Drivers/STM32F3xx_HAL_Driver/Src/stm32f3xx_hal_rcc.c ****         {
 978              		.loc 1 456 9 is_stmt 1 view .LVU278
 979              	.L51:
 980              	.LBB208:
 981              	.LBI208:
 526:Drivers/CMSIS/Include/cmsis_gcc.h **** {
ARM GAS  /var/folders/md/lgcc8l7571l9vt9sx0g0zflw0000gn/T//ccUH8gjh.s 			page 39


 982              		.loc 2 526 57 view .LVU279
 983              	.LBB209:
 528:Drivers/CMSIS/Include/cmsis_gcc.h **** 
 984              		.loc 2 528 3 view .LVU280
 531:Drivers/CMSIS/Include/cmsis_gcc.h **** #else
 985              		.loc 2 531 4 view .LVU281
 986 02b4 0223     		movs	r3, #2
 987              		.syntax unified
 988              	@ 531 "Drivers/CMSIS/Include/cmsis_gcc.h" 1
 989 02b6 93FAA3F3 		rbit r3, r3
 990              	@ 0 "" 2
 991              		.loc 2 544 3 view .LVU282
 992              	.LVL69:
 993              		.loc 2 544 3 is_stmt 0 view .LVU283
 994              		.thumb
 995              		.syntax unified
 996              	.LBE209:
 997              	.LBE208:
 456:Drivers/STM32F3xx_HAL_Driver/Src/stm32f3xx_hal_rcc.c ****         {
 998              		.loc 1 456 15 view .LVU284
 999 02ba 1E4B     		ldr	r3, .L129
 1000 02bc 1968     		ldr	r1, [r3]
 1001              	.LVL70:
 1002              	.LBB210:
 1003              	.LBI210:
 526:Drivers/CMSIS/Include/cmsis_gcc.h **** {
 1004              		.loc 2 526 57 is_stmt 1 view .LVU285
 1005              	.LBB211:
 528:Drivers/CMSIS/Include/cmsis_gcc.h **** 
 1006              		.loc 2 528 3 view .LVU286
 531:Drivers/CMSIS/Include/cmsis_gcc.h **** #else
 1007              		.loc 2 531 4 view .LVU287
 1008 02be 0223     		movs	r3, #2
 1009              		.syntax unified
 1010              	@ 531 "Drivers/CMSIS/Include/cmsis_gcc.h" 1
 1011 02c0 93FAA3F3 		rbit r3, r3
 1012              	@ 0 "" 2
 1013              	.LVL71:
 1014              		.loc 2 544 3 view .LVU288
 1015              		.loc 2 544 3 is_stmt 0 view .LVU289
 1016              		.thumb
 1017              		.syntax unified
 1018              	.LBE211:
 1019              	.LBE210:
 456:Drivers/STM32F3xx_HAL_Driver/Src/stm32f3xx_hal_rcc.c ****         {
 1020              		.loc 1 456 15 view .LVU290
 1021 02c4 B3FA83F3 		clz	r3, r3
 1022 02c8 03F01F03 		and	r3, r3, #31
 1023 02cc 0122     		movs	r2, #1
 1024 02ce 02FA03F3 		lsl	r3, r2, r3
 456:Drivers/STM32F3xx_HAL_Driver/Src/stm32f3xx_hal_rcc.c ****         {
 1025              		.loc 1 456 14 view .LVU291
 1026 02d2 1942     		tst	r1, r3
 1027 02d4 A1D0     		beq	.L40
 458:Drivers/STM32F3xx_HAL_Driver/Src/stm32f3xx_hal_rcc.c ****           {
 1028              		.loc 1 458 11 is_stmt 1 view .LVU292
 458:Drivers/STM32F3xx_HAL_Driver/Src/stm32f3xx_hal_rcc.c ****           {
ARM GAS  /var/folders/md/lgcc8l7571l9vt9sx0g0zflw0000gn/T//ccUH8gjh.s 			page 40


 1029              		.loc 1 458 15 is_stmt 0 view .LVU293
 1030 02d6 FFF7FEFF 		bl	HAL_GetTick
 1031              	.LVL72:
 458:Drivers/STM32F3xx_HAL_Driver/Src/stm32f3xx_hal_rcc.c ****           {
 1032              		.loc 1 458 29 view .LVU294
 1033 02da 401B     		subs	r0, r0, r5
 458:Drivers/STM32F3xx_HAL_Driver/Src/stm32f3xx_hal_rcc.c ****           {
 1034              		.loc 1 458 13 view .LVU295
 1035 02dc 0228     		cmp	r0, #2
 1036 02de E9D9     		bls	.L51
 460:Drivers/STM32F3xx_HAL_Driver/Src/stm32f3xx_hal_rcc.c ****           }
 1037              		.loc 1 460 20 view .LVU296
 1038 02e0 0320     		movs	r0, #3
 1039 02e2 88E1     		b	.L21
 1040              	.LVL73:
 1041              	.L56:
 487:Drivers/STM32F3xx_HAL_Driver/Src/stm32f3xx_hal_rcc.c ****         }
 488:Drivers/STM32F3xx_HAL_Driver/Src/stm32f3xx_hal_rcc.c ****       }
 489:Drivers/STM32F3xx_HAL_Driver/Src/stm32f3xx_hal_rcc.c ****     }
 490:Drivers/STM32F3xx_HAL_Driver/Src/stm32f3xx_hal_rcc.c ****     else
 491:Drivers/STM32F3xx_HAL_Driver/Src/stm32f3xx_hal_rcc.c ****     {
 492:Drivers/STM32F3xx_HAL_Driver/Src/stm32f3xx_hal_rcc.c ****       /* Disable the Internal Low Speed oscillator (LSI). */
 493:Drivers/STM32F3xx_HAL_Driver/Src/stm32f3xx_hal_rcc.c ****       __HAL_RCC_LSI_DISABLE();
 1042              		.loc 1 493 7 is_stmt 1 view .LVU297
 1043              	.LBB212:
 1044              	.LBI212:
 526:Drivers/CMSIS/Include/cmsis_gcc.h **** {
 1045              		.loc 2 526 57 view .LVU298
 1046              	.LBB213:
 528:Drivers/CMSIS/Include/cmsis_gcc.h **** 
 1047              		.loc 2 528 3 view .LVU299
 531:Drivers/CMSIS/Include/cmsis_gcc.h **** #else
 1048              		.loc 2 531 4 view .LVU300
 1049 02e4 0122     		movs	r2, #1
 1050              		.syntax unified
 1051              	@ 531 "Drivers/CMSIS/Include/cmsis_gcc.h" 1
 1052 02e6 92FAA2F2 		rbit r2, r2
 1053              	@ 0 "" 2
 1054              	.LVL74:
 1055              		.loc 2 544 3 view .LVU301
 1056              		.loc 2 544 3 is_stmt 0 view .LVU302
 1057              		.thumb
 1058              		.syntax unified
 1059              	.LBE213:
 1060              	.LBE212:
 1061              		.loc 1 493 7 view .LVU303
 1062 02ea B2FA82F2 		clz	r2, r2
 1063 02ee 124B     		ldr	r3, .L129+4
 1064 02f0 1344     		add	r3, r3, r2
 1065 02f2 9B00     		lsls	r3, r3, #2
 1066 02f4 0022     		movs	r2, #0
 1067 02f6 1A60     		str	r2, [r3]
 494:Drivers/STM32F3xx_HAL_Driver/Src/stm32f3xx_hal_rcc.c ****       
 495:Drivers/STM32F3xx_HAL_Driver/Src/stm32f3xx_hal_rcc.c ****       /* Get Start Tick */
 496:Drivers/STM32F3xx_HAL_Driver/Src/stm32f3xx_hal_rcc.c ****       tickstart = HAL_GetTick();
 1068              		.loc 1 496 7 is_stmt 1 view .LVU304
 1069              		.loc 1 496 19 is_stmt 0 view .LVU305
ARM GAS  /var/folders/md/lgcc8l7571l9vt9sx0g0zflw0000gn/T//ccUH8gjh.s 			page 41


 1070 02f8 FFF7FEFF 		bl	HAL_GetTick
 1071              	.LVL75:
 1072 02fc 0546     		mov	r5, r0
 1073              	.LVL76:
 497:Drivers/STM32F3xx_HAL_Driver/Src/stm32f3xx_hal_rcc.c ****       
 498:Drivers/STM32F3xx_HAL_Driver/Src/stm32f3xx_hal_rcc.c ****       /* Wait till LSI is disabled */  
 499:Drivers/STM32F3xx_HAL_Driver/Src/stm32f3xx_hal_rcc.c ****       while(__HAL_RCC_GET_FLAG(RCC_FLAG_LSIRDY) != RESET)
 1074              		.loc 1 499 7 is_stmt 1 view .LVU306
 1075              	.L59:
 1076              	.LBB214:
 1077              	.LBI214:
 526:Drivers/CMSIS/Include/cmsis_gcc.h **** {
 1078              		.loc 2 526 57 view .LVU307
 1079              	.LBB215:
 528:Drivers/CMSIS/Include/cmsis_gcc.h **** 
 1080              		.loc 2 528 3 view .LVU308
 531:Drivers/CMSIS/Include/cmsis_gcc.h **** #else
 1081              		.loc 2 531 4 view .LVU309
 1082 02fe 0223     		movs	r3, #2
 1083              		.syntax unified
 1084              	@ 531 "Drivers/CMSIS/Include/cmsis_gcc.h" 1
 1085 0300 93FAA3F2 		rbit r2, r3
 1086              	@ 0 "" 2
 1087              	.LVL77:
 1088              		.loc 2 544 3 view .LVU310
 1089              		.loc 2 544 3 is_stmt 0 view .LVU311
 1090              		.thumb
 1091              		.syntax unified
 1092              	.LBE215:
 1093              	.LBE214:
 1094              	.LBB216:
 1095              	.LBI216:
 526:Drivers/CMSIS/Include/cmsis_gcc.h **** {
 1096              		.loc 2 526 57 is_stmt 1 view .LVU312
 1097              	.LBB217:
 528:Drivers/CMSIS/Include/cmsis_gcc.h **** 
 1098              		.loc 2 528 3 view .LVU313
 531:Drivers/CMSIS/Include/cmsis_gcc.h **** #else
 1099              		.loc 2 531 4 view .LVU314
 1100              		.syntax unified
 1101              	@ 531 "Drivers/CMSIS/Include/cmsis_gcc.h" 1
 1102 0304 93FAA3F2 		rbit r2, r3
 1103              	@ 0 "" 2
 1104              	.LVL78:
 1105              		.loc 2 544 3 view .LVU315
 1106              		.loc 2 544 3 is_stmt 0 view .LVU316
 1107              		.thumb
 1108              		.syntax unified
 1109              	.LBE217:
 1110              	.LBE216:
 1111              	.LBB218:
 1112              	.LBI218:
 526:Drivers/CMSIS/Include/cmsis_gcc.h **** {
 1113              		.loc 2 526 57 is_stmt 1 view .LVU317
 1114              	.LBB219:
 528:Drivers/CMSIS/Include/cmsis_gcc.h **** 
 1115              		.loc 2 528 3 view .LVU318
ARM GAS  /var/folders/md/lgcc8l7571l9vt9sx0g0zflw0000gn/T//ccUH8gjh.s 			page 42


 531:Drivers/CMSIS/Include/cmsis_gcc.h **** #else
 1116              		.loc 2 531 4 view .LVU319
 1117              		.syntax unified
 1118              	@ 531 "Drivers/CMSIS/Include/cmsis_gcc.h" 1
 1119 0308 93FAA3F2 		rbit r2, r3
 1120              	@ 0 "" 2
 1121              	.LVL79:
 1122              		.loc 2 544 3 view .LVU320
 1123              		.loc 2 544 3 is_stmt 0 view .LVU321
 1124              		.thumb
 1125              		.syntax unified
 1126              	.LBE219:
 1127              	.LBE218:
 1128              		.loc 1 499 13 view .LVU322
 1129 030c 094A     		ldr	r2, .L129
 1130 030e 516A     		ldr	r1, [r2, #36]
 1131              	.LVL80:
 1132              	.LBB220:
 1133              	.LBI220:
 526:Drivers/CMSIS/Include/cmsis_gcc.h **** {
 1134              		.loc 2 526 57 is_stmt 1 view .LVU323
 1135              	.LBB221:
 528:Drivers/CMSIS/Include/cmsis_gcc.h **** 
 1136              		.loc 2 528 3 view .LVU324
 531:Drivers/CMSIS/Include/cmsis_gcc.h **** #else
 1137              		.loc 2 531 4 view .LVU325
 1138              		.syntax unified
 1139              	@ 531 "Drivers/CMSIS/Include/cmsis_gcc.h" 1
 1140 0310 93FAA3F3 		rbit r3, r3
 1141              	@ 0 "" 2
 1142              	.LVL81:
 1143              		.loc 2 544 3 view .LVU326
 1144              		.loc 2 544 3 is_stmt 0 view .LVU327
 1145              		.thumb
 1146              		.syntax unified
 1147              	.LBE221:
 1148              	.LBE220:
 1149              		.loc 1 499 13 view .LVU328
 1150 0314 B3FA83F3 		clz	r3, r3
 1151 0318 03F01F03 		and	r3, r3, #31
 1152 031c 0122     		movs	r2, #1
 1153 031e 02FA03F3 		lsl	r3, r2, r3
 1154              		.loc 1 499 12 view .LVU329
 1155 0322 0B42     		tst	r3, r1
 1156 0324 0AD0     		beq	.L55
 500:Drivers/STM32F3xx_HAL_Driver/Src/stm32f3xx_hal_rcc.c ****       {
 501:Drivers/STM32F3xx_HAL_Driver/Src/stm32f3xx_hal_rcc.c ****         if((HAL_GetTick() - tickstart ) > LSI_TIMEOUT_VALUE)
 1157              		.loc 1 501 9 is_stmt 1 view .LVU330
 1158              		.loc 1 501 13 is_stmt 0 view .LVU331
 1159 0326 FFF7FEFF 		bl	HAL_GetTick
 1160              	.LVL82:
 1161              		.loc 1 501 27 view .LVU332
 1162 032a 401B     		subs	r0, r0, r5
 1163              		.loc 1 501 11 view .LVU333
 1164 032c 0228     		cmp	r0, #2
 1165 032e E6D9     		bls	.L59
 502:Drivers/STM32F3xx_HAL_Driver/Src/stm32f3xx_hal_rcc.c ****         {
ARM GAS  /var/folders/md/lgcc8l7571l9vt9sx0g0zflw0000gn/T//ccUH8gjh.s 			page 43


 503:Drivers/STM32F3xx_HAL_Driver/Src/stm32f3xx_hal_rcc.c ****           return HAL_TIMEOUT;
 1166              		.loc 1 503 18 view .LVU334
 1167 0330 0320     		movs	r0, #3
 1168 0332 60E1     		b	.L21
 1169              	.L130:
 1170              		.align	2
 1171              	.L129:
 1172 0334 00100240 		.word	1073876992
 1173 0338 20819010 		.word	277905696
 1174              	.LVL83:
 1175              	.L55:
 504:Drivers/STM32F3xx_HAL_Driver/Src/stm32f3xx_hal_rcc.c ****         }
 505:Drivers/STM32F3xx_HAL_Driver/Src/stm32f3xx_hal_rcc.c ****       }
 506:Drivers/STM32F3xx_HAL_Driver/Src/stm32f3xx_hal_rcc.c ****     }
 507:Drivers/STM32F3xx_HAL_Driver/Src/stm32f3xx_hal_rcc.c ****   }
 508:Drivers/STM32F3xx_HAL_Driver/Src/stm32f3xx_hal_rcc.c ****   /*------------------------------ LSE Configuration -------------------------*/ 
 509:Drivers/STM32F3xx_HAL_Driver/Src/stm32f3xx_hal_rcc.c ****   if(((RCC_OscInitStruct->OscillatorType) & RCC_OSCILLATORTYPE_LSE) == RCC_OSCILLATORTYPE_LSE)
 1176              		.loc 1 509 3 is_stmt 1 view .LVU335
 1177              		.loc 1 509 25 is_stmt 0 view .LVU336
 1178 033c 2368     		ldr	r3, [r4]
 1179              		.loc 1 509 5 view .LVU337
 1180 033e 13F0040F 		tst	r3, #4
 1181 0342 00F0A980 		beq	.L61
 1182              	.LBB222:
 510:Drivers/STM32F3xx_HAL_Driver/Src/stm32f3xx_hal_rcc.c ****   {
 511:Drivers/STM32F3xx_HAL_Driver/Src/stm32f3xx_hal_rcc.c ****     FlagStatus       pwrclkchanged = RESET;
 1183              		.loc 1 511 5 is_stmt 1 view .LVU338
 1184              	.LVL84:
 512:Drivers/STM32F3xx_HAL_Driver/Src/stm32f3xx_hal_rcc.c ****     
 513:Drivers/STM32F3xx_HAL_Driver/Src/stm32f3xx_hal_rcc.c ****     /* Check the parameters */
 514:Drivers/STM32F3xx_HAL_Driver/Src/stm32f3xx_hal_rcc.c ****     assert_param(IS_RCC_LSE(RCC_OscInitStruct->LSEState));
 1185              		.loc 1 514 5 view .LVU339
 515:Drivers/STM32F3xx_HAL_Driver/Src/stm32f3xx_hal_rcc.c **** 
 516:Drivers/STM32F3xx_HAL_Driver/Src/stm32f3xx_hal_rcc.c ****     /* Update LSE configuration in Backup Domain control register    */
 517:Drivers/STM32F3xx_HAL_Driver/Src/stm32f3xx_hal_rcc.c ****     /* Requires to enable write access to Backup Domain of necessary */
 518:Drivers/STM32F3xx_HAL_Driver/Src/stm32f3xx_hal_rcc.c ****     if(__HAL_RCC_PWR_IS_CLK_DISABLED())
 1186              		.loc 1 518 5 view .LVU340
 1187              		.loc 1 518 8 is_stmt 0 view .LVU341
 1188 0346 AE4B     		ldr	r3, .L131
 1189 0348 DB69     		ldr	r3, [r3, #28]
 1190              		.loc 1 518 7 view .LVU342
 1191 034a 13F0805F 		tst	r3, #268435456
 1192 034e 0BD1     		bne	.L102
 519:Drivers/STM32F3xx_HAL_Driver/Src/stm32f3xx_hal_rcc.c ****     {
 520:Drivers/STM32F3xx_HAL_Driver/Src/stm32f3xx_hal_rcc.c ****       __HAL_RCC_PWR_CLK_ENABLE();
 1193              		.loc 1 520 7 is_stmt 1 view .LVU343
 1194              	.LBB223:
 1195              		.loc 1 520 7 view .LVU344
 1196              		.loc 1 520 7 view .LVU345
 1197 0350 AB4B     		ldr	r3, .L131
 1198 0352 DA69     		ldr	r2, [r3, #28]
 1199 0354 42F08052 		orr	r2, r2, #268435456
 1200 0358 DA61     		str	r2, [r3, #28]
 1201              		.loc 1 520 7 view .LVU346
 1202 035a DB69     		ldr	r3, [r3, #28]
 1203 035c 03F08053 		and	r3, r3, #268435456
 1204 0360 0193     		str	r3, [sp, #4]
ARM GAS  /var/folders/md/lgcc8l7571l9vt9sx0g0zflw0000gn/T//ccUH8gjh.s 			page 44


 1205              		.loc 1 520 7 view .LVU347
 1206 0362 019B     		ldr	r3, [sp, #4]
 1207              	.LBE223:
 521:Drivers/STM32F3xx_HAL_Driver/Src/stm32f3xx_hal_rcc.c ****       pwrclkchanged = SET;
 1208              		.loc 1 521 7 view .LVU348
 1209              	.LVL85:
 1210              		.loc 1 521 21 is_stmt 0 view .LVU349
 1211 0364 0125     		movs	r5, #1
 1212 0366 00E0     		b	.L62
 1213              	.LVL86:
 1214              	.L102:
 511:Drivers/STM32F3xx_HAL_Driver/Src/stm32f3xx_hal_rcc.c ****     
 1215              		.loc 1 511 22 view .LVU350
 1216 0368 0025     		movs	r5, #0
 1217              	.LVL87:
 1218              	.L62:
 522:Drivers/STM32F3xx_HAL_Driver/Src/stm32f3xx_hal_rcc.c ****     }
 523:Drivers/STM32F3xx_HAL_Driver/Src/stm32f3xx_hal_rcc.c ****     
 524:Drivers/STM32F3xx_HAL_Driver/Src/stm32f3xx_hal_rcc.c ****     if(HAL_IS_BIT_CLR(PWR->CR, PWR_CR_DBP))
 1219              		.loc 1 524 5 is_stmt 1 view .LVU351
 1220              		.loc 1 524 8 is_stmt 0 view .LVU352
 1221 036a A64B     		ldr	r3, .L131+4
 1222 036c 1B68     		ldr	r3, [r3]
 1223              		.loc 1 524 7 view .LVU353
 1224 036e 13F4807F 		tst	r3, #256
 1225 0372 10D0     		beq	.L121
 1226              	.L63:
 525:Drivers/STM32F3xx_HAL_Driver/Src/stm32f3xx_hal_rcc.c ****     {
 526:Drivers/STM32F3xx_HAL_Driver/Src/stm32f3xx_hal_rcc.c ****       /* Enable write access to Backup domain */
 527:Drivers/STM32F3xx_HAL_Driver/Src/stm32f3xx_hal_rcc.c ****       SET_BIT(PWR->CR, PWR_CR_DBP);
 528:Drivers/STM32F3xx_HAL_Driver/Src/stm32f3xx_hal_rcc.c ****       
 529:Drivers/STM32F3xx_HAL_Driver/Src/stm32f3xx_hal_rcc.c ****       /* Wait for Backup domain Write protection disable */
 530:Drivers/STM32F3xx_HAL_Driver/Src/stm32f3xx_hal_rcc.c ****       tickstart = HAL_GetTick();
 531:Drivers/STM32F3xx_HAL_Driver/Src/stm32f3xx_hal_rcc.c **** 
 532:Drivers/STM32F3xx_HAL_Driver/Src/stm32f3xx_hal_rcc.c ****       while(HAL_IS_BIT_CLR(PWR->CR, PWR_CR_DBP))
 533:Drivers/STM32F3xx_HAL_Driver/Src/stm32f3xx_hal_rcc.c ****       {
 534:Drivers/STM32F3xx_HAL_Driver/Src/stm32f3xx_hal_rcc.c ****         if((HAL_GetTick() - tickstart) > RCC_DBP_TIMEOUT_VALUE)
 535:Drivers/STM32F3xx_HAL_Driver/Src/stm32f3xx_hal_rcc.c ****         {
 536:Drivers/STM32F3xx_HAL_Driver/Src/stm32f3xx_hal_rcc.c ****           return HAL_TIMEOUT;
 537:Drivers/STM32F3xx_HAL_Driver/Src/stm32f3xx_hal_rcc.c ****         }
 538:Drivers/STM32F3xx_HAL_Driver/Src/stm32f3xx_hal_rcc.c ****       }
 539:Drivers/STM32F3xx_HAL_Driver/Src/stm32f3xx_hal_rcc.c ****     }
 540:Drivers/STM32F3xx_HAL_Driver/Src/stm32f3xx_hal_rcc.c **** 
 541:Drivers/STM32F3xx_HAL_Driver/Src/stm32f3xx_hal_rcc.c ****     /* Set the new LSE configuration -----------------------------------------*/
 542:Drivers/STM32F3xx_HAL_Driver/Src/stm32f3xx_hal_rcc.c ****     __HAL_RCC_LSE_CONFIG(RCC_OscInitStruct->LSEState);
 1227              		.loc 1 542 5 is_stmt 1 view .LVU354
 1228              		.loc 1 542 5 view .LVU355
 1229 0374 A368     		ldr	r3, [r4, #8]
 1230 0376 012B     		cmp	r3, #1
 1231 0378 21D0     		beq	.L122
 1232              		.loc 1 542 5 discriminator 2 view .LVU356
 1233 037a 63BB     		cbnz	r3, .L68
 1234              		.loc 1 542 5 discriminator 3 view .LVU357
 1235 037c 03F18043 		add	r3, r3, #1073741824
 1236 0380 03F50433 		add	r3, r3, #135168
 1237 0384 1A6A     		ldr	r2, [r3, #32]
 1238 0386 22F00102 		bic	r2, r2, #1
ARM GAS  /var/folders/md/lgcc8l7571l9vt9sx0g0zflw0000gn/T//ccUH8gjh.s 			page 45


 1239 038a 1A62     		str	r2, [r3, #32]
 1240              		.loc 1 542 5 discriminator 3 view .LVU358
 1241 038c 1A6A     		ldr	r2, [r3, #32]
 1242 038e 22F00402 		bic	r2, r2, #4
 1243 0392 1A62     		str	r2, [r3, #32]
 1244 0394 18E0     		b	.L67
 1245              	.L121:
 527:Drivers/STM32F3xx_HAL_Driver/Src/stm32f3xx_hal_rcc.c ****       
 1246              		.loc 1 527 7 view .LVU359
 1247 0396 9B4A     		ldr	r2, .L131+4
 1248 0398 1368     		ldr	r3, [r2]
 1249 039a 43F48073 		orr	r3, r3, #256
 1250 039e 1360     		str	r3, [r2]
 530:Drivers/STM32F3xx_HAL_Driver/Src/stm32f3xx_hal_rcc.c **** 
 1251              		.loc 1 530 7 view .LVU360
 530:Drivers/STM32F3xx_HAL_Driver/Src/stm32f3xx_hal_rcc.c **** 
 1252              		.loc 1 530 19 is_stmt 0 view .LVU361
 1253 03a0 FFF7FEFF 		bl	HAL_GetTick
 1254              	.LVL88:
 1255 03a4 0646     		mov	r6, r0
 1256              	.LVL89:
 532:Drivers/STM32F3xx_HAL_Driver/Src/stm32f3xx_hal_rcc.c ****       {
 1257              		.loc 1 532 7 is_stmt 1 view .LVU362
 1258              	.L64:
 532:Drivers/STM32F3xx_HAL_Driver/Src/stm32f3xx_hal_rcc.c ****       {
 1259              		.loc 1 532 13 is_stmt 0 view .LVU363
 1260 03a6 974B     		ldr	r3, .L131+4
 1261 03a8 1B68     		ldr	r3, [r3]
 532:Drivers/STM32F3xx_HAL_Driver/Src/stm32f3xx_hal_rcc.c ****       {
 1262              		.loc 1 532 12 view .LVU364
 1263 03aa 13F4807F 		tst	r3, #256
 1264 03ae E1D1     		bne	.L63
 534:Drivers/STM32F3xx_HAL_Driver/Src/stm32f3xx_hal_rcc.c ****         {
 1265              		.loc 1 534 9 is_stmt 1 view .LVU365
 534:Drivers/STM32F3xx_HAL_Driver/Src/stm32f3xx_hal_rcc.c ****         {
 1266              		.loc 1 534 13 is_stmt 0 view .LVU366
 1267 03b0 FFF7FEFF 		bl	HAL_GetTick
 1268              	.LVL90:
 534:Drivers/STM32F3xx_HAL_Driver/Src/stm32f3xx_hal_rcc.c ****         {
 1269              		.loc 1 534 27 view .LVU367
 1270 03b4 801B     		subs	r0, r0, r6
 534:Drivers/STM32F3xx_HAL_Driver/Src/stm32f3xx_hal_rcc.c ****         {
 1271              		.loc 1 534 11 view .LVU368
 1272 03b6 6428     		cmp	r0, #100
 1273 03b8 F5D9     		bls	.L64
 536:Drivers/STM32F3xx_HAL_Driver/Src/stm32f3xx_hal_rcc.c ****         }
 1274              		.loc 1 536 18 view .LVU369
 1275 03ba 0320     		movs	r0, #3
 1276 03bc 1BE1     		b	.L21
 1277              	.LVL91:
 1278              	.L122:
 1279              		.loc 1 542 5 is_stmt 1 discriminator 1 view .LVU370
 1280 03be 904A     		ldr	r2, .L131
 1281 03c0 136A     		ldr	r3, [r2, #32]
 1282 03c2 43F00103 		orr	r3, r3, #1
 1283 03c6 1362     		str	r3, [r2, #32]
 1284              	.L67:
ARM GAS  /var/folders/md/lgcc8l7571l9vt9sx0g0zflw0000gn/T//ccUH8gjh.s 			page 46


 543:Drivers/STM32F3xx_HAL_Driver/Src/stm32f3xx_hal_rcc.c ****     /* Check the LSE State */
 544:Drivers/STM32F3xx_HAL_Driver/Src/stm32f3xx_hal_rcc.c ****     if(RCC_OscInitStruct->LSEState != RCC_LSE_OFF)
 1285              		.loc 1 544 5 view .LVU371
 1286              		.loc 1 544 25 is_stmt 0 view .LVU372
 1287 03c8 A368     		ldr	r3, [r4, #8]
 1288              		.loc 1 544 7 view .LVU373
 1289 03ca 002B     		cmp	r3, #0
 1290 03cc 3CD0     		beq	.L70
 545:Drivers/STM32F3xx_HAL_Driver/Src/stm32f3xx_hal_rcc.c ****     {
 546:Drivers/STM32F3xx_HAL_Driver/Src/stm32f3xx_hal_rcc.c ****       /* Get Start Tick */
 547:Drivers/STM32F3xx_HAL_Driver/Src/stm32f3xx_hal_rcc.c ****       tickstart = HAL_GetTick();
 1291              		.loc 1 547 7 is_stmt 1 view .LVU374
 1292              		.loc 1 547 19 is_stmt 0 view .LVU375
 1293 03ce FFF7FEFF 		bl	HAL_GetTick
 1294              	.LVL92:
 1295 03d2 0646     		mov	r6, r0
 1296              	.LVL93:
 548:Drivers/STM32F3xx_HAL_Driver/Src/stm32f3xx_hal_rcc.c ****       
 549:Drivers/STM32F3xx_HAL_Driver/Src/stm32f3xx_hal_rcc.c ****       /* Wait till LSE is ready */  
 550:Drivers/STM32F3xx_HAL_Driver/Src/stm32f3xx_hal_rcc.c ****       while(__HAL_RCC_GET_FLAG(RCC_FLAG_LSERDY) == RESET)
 1297              		.loc 1 550 7 is_stmt 1 view .LVU376
 1298              		.loc 1 550 12 is_stmt 0 view .LVU377
 1299 03d4 2EE0     		b	.L71
 1300              	.LVL94:
 1301              	.L68:
 542:Drivers/STM32F3xx_HAL_Driver/Src/stm32f3xx_hal_rcc.c ****     /* Check the LSE State */
 1302              		.loc 1 542 5 is_stmt 1 discriminator 4 view .LVU378
 1303 03d6 052B     		cmp	r3, #5
 1304 03d8 09D0     		beq	.L123
 542:Drivers/STM32F3xx_HAL_Driver/Src/stm32f3xx_hal_rcc.c ****     /* Check the LSE State */
 1305              		.loc 1 542 5 discriminator 6 view .LVU379
 1306 03da 894B     		ldr	r3, .L131
 1307 03dc 1A6A     		ldr	r2, [r3, #32]
 1308 03de 22F00102 		bic	r2, r2, #1
 1309 03e2 1A62     		str	r2, [r3, #32]
 542:Drivers/STM32F3xx_HAL_Driver/Src/stm32f3xx_hal_rcc.c ****     /* Check the LSE State */
 1310              		.loc 1 542 5 discriminator 6 view .LVU380
 1311 03e4 1A6A     		ldr	r2, [r3, #32]
 1312 03e6 22F00402 		bic	r2, r2, #4
 1313 03ea 1A62     		str	r2, [r3, #32]
 1314 03ec ECE7     		b	.L67
 1315              	.L123:
 542:Drivers/STM32F3xx_HAL_Driver/Src/stm32f3xx_hal_rcc.c ****     /* Check the LSE State */
 1316              		.loc 1 542 5 discriminator 5 view .LVU381
 1317 03ee 844B     		ldr	r3, .L131
 1318 03f0 1A6A     		ldr	r2, [r3, #32]
 1319 03f2 42F00402 		orr	r2, r2, #4
 1320 03f6 1A62     		str	r2, [r3, #32]
 542:Drivers/STM32F3xx_HAL_Driver/Src/stm32f3xx_hal_rcc.c ****     /* Check the LSE State */
 1321              		.loc 1 542 5 discriminator 5 view .LVU382
 1322 03f8 1A6A     		ldr	r2, [r3, #32]
 1323 03fa 42F00102 		orr	r2, r2, #1
 1324 03fe 1A62     		str	r2, [r3, #32]
 1325 0400 E2E7     		b	.L67
 1326              	.LVL95:
 1327              	.L72:
 1328              	.LBB224:
ARM GAS  /var/folders/md/lgcc8l7571l9vt9sx0g0zflw0000gn/T//ccUH8gjh.s 			page 47


 1329              	.LBI224:
 526:Drivers/CMSIS/Include/cmsis_gcc.h **** {
 1330              		.loc 2 526 57 view .LVU383
 1331              	.LBB225:
 528:Drivers/CMSIS/Include/cmsis_gcc.h **** 
 1332              		.loc 2 528 3 view .LVU384
 531:Drivers/CMSIS/Include/cmsis_gcc.h **** #else
 1333              		.loc 2 531 4 view .LVU385
 1334 0402 0223     		movs	r3, #2
 1335              		.syntax unified
 1336              	@ 531 "Drivers/CMSIS/Include/cmsis_gcc.h" 1
 1337 0404 93FAA3F3 		rbit r3, r3
 1338              	@ 0 "" 2
 1339              	.LVL96:
 1340              		.loc 2 544 3 view .LVU386
 1341              		.loc 2 544 3 is_stmt 0 view .LVU387
 1342              		.thumb
 1343              		.syntax unified
 1344              	.LBE225:
 1345              	.LBE224:
 1346              		.loc 1 550 13 view .LVU388
 1347 0408 7D4B     		ldr	r3, .L131
 1348 040a 596A     		ldr	r1, [r3, #36]
 1349              	.L73:
 1350              	.LVL97:
 1351              	.LBB226:
 1352              	.LBI226:
 526:Drivers/CMSIS/Include/cmsis_gcc.h **** {
 1353              		.loc 2 526 57 is_stmt 1 discriminator 11 view .LVU389
 1354              	.LBB227:
 528:Drivers/CMSIS/Include/cmsis_gcc.h **** 
 1355              		.loc 2 528 3 discriminator 11 view .LVU390
 531:Drivers/CMSIS/Include/cmsis_gcc.h **** #else
 1356              		.loc 2 531 4 discriminator 11 view .LVU391
 1357 040c 0223     		movs	r3, #2
 1358              		.syntax unified
 1359              	@ 531 "Drivers/CMSIS/Include/cmsis_gcc.h" 1
 1360 040e 93FAA3F3 		rbit r3, r3
 1361              	@ 0 "" 2
 1362              	.LVL98:
 1363              		.loc 2 544 3 discriminator 11 view .LVU392
 1364              		.loc 2 544 3 is_stmt 0 discriminator 11 view .LVU393
 1365              		.thumb
 1366              		.syntax unified
 1367              	.LBE227:
 1368              	.LBE226:
 1369              		.loc 1 550 13 discriminator 11 view .LVU394
 1370 0412 B3FA83F3 		clz	r3, r3
 1371 0416 03F01F03 		and	r3, r3, #31
 1372 041a 0122     		movs	r2, #1
 1373 041c 02FA03F3 		lsl	r3, r2, r3
 1374              		.loc 1 550 12 discriminator 11 view .LVU395
 1375 0420 1942     		tst	r1, r3
 1376 0422 38D1     		bne	.L75
 551:Drivers/STM32F3xx_HAL_Driver/Src/stm32f3xx_hal_rcc.c ****       {
 552:Drivers/STM32F3xx_HAL_Driver/Src/stm32f3xx_hal_rcc.c ****         if((HAL_GetTick() - tickstart ) > RCC_LSE_TIMEOUT_VALUE)
 1377              		.loc 1 552 9 is_stmt 1 view .LVU396
ARM GAS  /var/folders/md/lgcc8l7571l9vt9sx0g0zflw0000gn/T//ccUH8gjh.s 			page 48


 1378              		.loc 1 552 13 is_stmt 0 view .LVU397
 1379 0424 FFF7FEFF 		bl	HAL_GetTick
 1380              	.LVL99:
 1381              		.loc 1 552 27 view .LVU398
 1382 0428 801B     		subs	r0, r0, r6
 1383              		.loc 1 552 11 view .LVU399
 1384 042a 41F28833 		movw	r3, #5000
 1385 042e 9842     		cmp	r0, r3
 1386 0430 00F2DC80 		bhi	.L104
 1387              	.L71:
 1388              	.LVL100:
 1389              	.LBB228:
 1390              	.LBI228:
 526:Drivers/CMSIS/Include/cmsis_gcc.h **** {
 1391              		.loc 2 526 57 is_stmt 1 view .LVU400
 1392              	.LBB229:
 528:Drivers/CMSIS/Include/cmsis_gcc.h **** 
 1393              		.loc 2 528 3 view .LVU401
 531:Drivers/CMSIS/Include/cmsis_gcc.h **** #else
 1394              		.loc 2 531 4 view .LVU402
 1395 0434 0223     		movs	r3, #2
 1396              		.syntax unified
 1397              	@ 531 "Drivers/CMSIS/Include/cmsis_gcc.h" 1
 1398 0436 93FAA3F2 		rbit r2, r3
 1399              	@ 0 "" 2
 1400              	.LVL101:
 1401              		.loc 2 544 3 view .LVU403
 1402              		.loc 2 544 3 is_stmt 0 view .LVU404
 1403              		.thumb
 1404              		.syntax unified
 1405              	.LBE229:
 1406              	.LBE228:
 1407              	.LBB230:
 1408              	.LBI230:
 526:Drivers/CMSIS/Include/cmsis_gcc.h **** {
 1409              		.loc 2 526 57 is_stmt 1 view .LVU405
 1410              	.LBB231:
 528:Drivers/CMSIS/Include/cmsis_gcc.h **** 
 1411              		.loc 2 528 3 view .LVU406
 531:Drivers/CMSIS/Include/cmsis_gcc.h **** #else
 1412              		.loc 2 531 4 view .LVU407
 1413              		.syntax unified
 1414              	@ 531 "Drivers/CMSIS/Include/cmsis_gcc.h" 1
 1415 043a 93FAA3F3 		rbit r3, r3
 1416              	@ 0 "" 2
 1417              	.LVL102:
 1418              		.loc 2 544 3 view .LVU408
 1419              		.loc 2 544 3 is_stmt 0 view .LVU409
 1420              		.thumb
 1421              		.syntax unified
 1422              	.LBE231:
 1423              	.LBE230:
 550:Drivers/STM32F3xx_HAL_Driver/Src/stm32f3xx_hal_rcc.c ****       {
 1424              		.loc 1 550 13 view .LVU410
 1425 043e 002B     		cmp	r3, #0
 1426 0440 DFD0     		beq	.L72
 550:Drivers/STM32F3xx_HAL_Driver/Src/stm32f3xx_hal_rcc.c ****       {
ARM GAS  /var/folders/md/lgcc8l7571l9vt9sx0g0zflw0000gn/T//ccUH8gjh.s 			page 49


 1427              		.loc 1 550 13 discriminator 4 view .LVU411
 1428 0442 6F4B     		ldr	r3, .L131
 1429 0444 196A     		ldr	r1, [r3, #32]
 1430 0446 E1E7     		b	.L73
 1431              	.LVL103:
 1432              	.L70:
 553:Drivers/STM32F3xx_HAL_Driver/Src/stm32f3xx_hal_rcc.c ****         {
 554:Drivers/STM32F3xx_HAL_Driver/Src/stm32f3xx_hal_rcc.c ****           return HAL_TIMEOUT;
 555:Drivers/STM32F3xx_HAL_Driver/Src/stm32f3xx_hal_rcc.c ****         }
 556:Drivers/STM32F3xx_HAL_Driver/Src/stm32f3xx_hal_rcc.c ****       }
 557:Drivers/STM32F3xx_HAL_Driver/Src/stm32f3xx_hal_rcc.c ****     }
 558:Drivers/STM32F3xx_HAL_Driver/Src/stm32f3xx_hal_rcc.c ****     else
 559:Drivers/STM32F3xx_HAL_Driver/Src/stm32f3xx_hal_rcc.c ****     {
 560:Drivers/STM32F3xx_HAL_Driver/Src/stm32f3xx_hal_rcc.c ****       /* Get Start Tick */
 561:Drivers/STM32F3xx_HAL_Driver/Src/stm32f3xx_hal_rcc.c ****       tickstart = HAL_GetTick();
 1433              		.loc 1 561 7 is_stmt 1 view .LVU412
 1434              		.loc 1 561 19 is_stmt 0 view .LVU413
 1435 0448 FFF7FEFF 		bl	HAL_GetTick
 1436              	.LVL104:
 1437 044c 0646     		mov	r6, r0
 1438              	.LVL105:
 562:Drivers/STM32F3xx_HAL_Driver/Src/stm32f3xx_hal_rcc.c ****       
 563:Drivers/STM32F3xx_HAL_Driver/Src/stm32f3xx_hal_rcc.c ****       /* Wait till LSE is disabled */  
 564:Drivers/STM32F3xx_HAL_Driver/Src/stm32f3xx_hal_rcc.c ****       while(__HAL_RCC_GET_FLAG(RCC_FLAG_LSERDY) != RESET)
 1439              		.loc 1 564 7 is_stmt 1 view .LVU414
 1440              		.loc 1 564 12 is_stmt 0 view .LVU415
 1441 044e 18E0     		b	.L76
 1442              	.LVL106:
 1443              	.L77:
 1444              	.LBB232:
 1445              	.LBI232:
 526:Drivers/CMSIS/Include/cmsis_gcc.h **** {
 1446              		.loc 2 526 57 is_stmt 1 view .LVU416
 1447              	.LBB233:
 528:Drivers/CMSIS/Include/cmsis_gcc.h **** 
 1448              		.loc 2 528 3 view .LVU417
 531:Drivers/CMSIS/Include/cmsis_gcc.h **** #else
 1449              		.loc 2 531 4 view .LVU418
 1450 0450 0223     		movs	r3, #2
 1451              		.syntax unified
 1452              	@ 531 "Drivers/CMSIS/Include/cmsis_gcc.h" 1
 1453 0452 93FAA3F3 		rbit r3, r3
 1454              	@ 0 "" 2
 1455              	.LVL107:
 1456              		.loc 2 544 3 view .LVU419
 1457              		.loc 2 544 3 is_stmt 0 view .LVU420
 1458              		.thumb
 1459              		.syntax unified
 1460              	.LBE233:
 1461              	.LBE232:
 1462              		.loc 1 564 13 view .LVU421
 1463 0456 6A4B     		ldr	r3, .L131
 1464 0458 596A     		ldr	r1, [r3, #36]
 1465              	.L78:
 1466              	.LVL108:
 1467              	.LBB234:
 1468              	.LBI234:
ARM GAS  /var/folders/md/lgcc8l7571l9vt9sx0g0zflw0000gn/T//ccUH8gjh.s 			page 50


 526:Drivers/CMSIS/Include/cmsis_gcc.h **** {
 1469              		.loc 2 526 57 is_stmt 1 discriminator 11 view .LVU422
 1470              	.LBB235:
 528:Drivers/CMSIS/Include/cmsis_gcc.h **** 
 1471              		.loc 2 528 3 discriminator 11 view .LVU423
 531:Drivers/CMSIS/Include/cmsis_gcc.h **** #else
 1472              		.loc 2 531 4 discriminator 11 view .LVU424
 1473 045a 0223     		movs	r3, #2
 1474              		.syntax unified
 1475              	@ 531 "Drivers/CMSIS/Include/cmsis_gcc.h" 1
 1476 045c 93FAA3F3 		rbit r3, r3
 1477              	@ 0 "" 2
 1478              	.LVL109:
 1479              		.loc 2 544 3 discriminator 11 view .LVU425
 1480              		.loc 2 544 3 is_stmt 0 discriminator 11 view .LVU426
 1481              		.thumb
 1482              		.syntax unified
 1483              	.LBE235:
 1484              	.LBE234:
 1485              		.loc 1 564 13 discriminator 11 view .LVU427
 1486 0460 B3FA83F3 		clz	r3, r3
 1487 0464 03F01F03 		and	r3, r3, #31
 1488 0468 0122     		movs	r2, #1
 1489 046a 02FA03F3 		lsl	r3, r2, r3
 1490              		.loc 1 564 12 discriminator 11 view .LVU428
 1491 046e 1942     		tst	r1, r3
 1492 0470 11D0     		beq	.L75
 565:Drivers/STM32F3xx_HAL_Driver/Src/stm32f3xx_hal_rcc.c ****       {
 566:Drivers/STM32F3xx_HAL_Driver/Src/stm32f3xx_hal_rcc.c ****         if((HAL_GetTick() - tickstart ) > RCC_LSE_TIMEOUT_VALUE)
 1493              		.loc 1 566 9 is_stmt 1 view .LVU429
 1494              		.loc 1 566 13 is_stmt 0 view .LVU430
 1495 0472 FFF7FEFF 		bl	HAL_GetTick
 1496              	.LVL110:
 1497              		.loc 1 566 27 view .LVU431
 1498 0476 801B     		subs	r0, r0, r6
 1499              		.loc 1 566 11 view .LVU432
 1500 0478 41F28833 		movw	r3, #5000
 1501 047c 9842     		cmp	r0, r3
 1502 047e 00F2B780 		bhi	.L105
 1503              	.L76:
 1504              	.LVL111:
 1505              	.LBB236:
 1506              	.LBI236:
 526:Drivers/CMSIS/Include/cmsis_gcc.h **** {
 1507              		.loc 2 526 57 is_stmt 1 view .LVU433
 1508              	.LBB237:
 528:Drivers/CMSIS/Include/cmsis_gcc.h **** 
 1509              		.loc 2 528 3 view .LVU434
 531:Drivers/CMSIS/Include/cmsis_gcc.h **** #else
 1510              		.loc 2 531 4 view .LVU435
 1511 0482 0223     		movs	r3, #2
 1512              		.syntax unified
 1513              	@ 531 "Drivers/CMSIS/Include/cmsis_gcc.h" 1
 1514 0484 93FAA3F2 		rbit r2, r3
 1515              	@ 0 "" 2
 1516              	.LVL112:
 1517              		.loc 2 544 3 view .LVU436
ARM GAS  /var/folders/md/lgcc8l7571l9vt9sx0g0zflw0000gn/T//ccUH8gjh.s 			page 51


 1518              		.loc 2 544 3 is_stmt 0 view .LVU437
 1519              		.thumb
 1520              		.syntax unified
 1521              	.LBE237:
 1522              	.LBE236:
 1523              	.LBB238:
 1524              	.LBI238:
 526:Drivers/CMSIS/Include/cmsis_gcc.h **** {
 1525              		.loc 2 526 57 is_stmt 1 view .LVU438
 1526              	.LBB239:
 528:Drivers/CMSIS/Include/cmsis_gcc.h **** 
 1527              		.loc 2 528 3 view .LVU439
 531:Drivers/CMSIS/Include/cmsis_gcc.h **** #else
 1528              		.loc 2 531 4 view .LVU440
 1529              		.syntax unified
 1530              	@ 531 "Drivers/CMSIS/Include/cmsis_gcc.h" 1
 1531 0488 93FAA3F3 		rbit r3, r3
 1532              	@ 0 "" 2
 1533              	.LVL113:
 1534              		.loc 2 544 3 view .LVU441
 1535              		.loc 2 544 3 is_stmt 0 view .LVU442
 1536              		.thumb
 1537              		.syntax unified
 1538              	.LBE239:
 1539              	.LBE238:
 564:Drivers/STM32F3xx_HAL_Driver/Src/stm32f3xx_hal_rcc.c ****       {
 1540              		.loc 1 564 13 view .LVU443
 1541 048c 002B     		cmp	r3, #0
 1542 048e DFD0     		beq	.L77
 564:Drivers/STM32F3xx_HAL_Driver/Src/stm32f3xx_hal_rcc.c ****       {
 1543              		.loc 1 564 13 discriminator 4 view .LVU444
 1544 0490 5B4B     		ldr	r3, .L131
 1545 0492 196A     		ldr	r1, [r3, #32]
 1546 0494 E1E7     		b	.L78
 1547              	.L75:
 567:Drivers/STM32F3xx_HAL_Driver/Src/stm32f3xx_hal_rcc.c ****         {
 568:Drivers/STM32F3xx_HAL_Driver/Src/stm32f3xx_hal_rcc.c ****           return HAL_TIMEOUT;
 569:Drivers/STM32F3xx_HAL_Driver/Src/stm32f3xx_hal_rcc.c ****         }
 570:Drivers/STM32F3xx_HAL_Driver/Src/stm32f3xx_hal_rcc.c ****       }
 571:Drivers/STM32F3xx_HAL_Driver/Src/stm32f3xx_hal_rcc.c ****     }
 572:Drivers/STM32F3xx_HAL_Driver/Src/stm32f3xx_hal_rcc.c **** 
 573:Drivers/STM32F3xx_HAL_Driver/Src/stm32f3xx_hal_rcc.c ****     /* Require to disable power clock if necessary */
 574:Drivers/STM32F3xx_HAL_Driver/Src/stm32f3xx_hal_rcc.c ****     if(pwrclkchanged == SET)
 1548              		.loc 1 574 5 is_stmt 1 view .LVU445
 1549              		.loc 1 574 7 is_stmt 0 view .LVU446
 1550 0496 B5BB     		cbnz	r5, .L124
 1551              	.LVL114:
 1552              	.L61:
 1553              		.loc 1 574 7 view .LVU447
 1554              	.LBE222:
 575:Drivers/STM32F3xx_HAL_Driver/Src/stm32f3xx_hal_rcc.c ****     {
 576:Drivers/STM32F3xx_HAL_Driver/Src/stm32f3xx_hal_rcc.c ****       __HAL_RCC_PWR_CLK_DISABLE();
 577:Drivers/STM32F3xx_HAL_Driver/Src/stm32f3xx_hal_rcc.c ****     }
 578:Drivers/STM32F3xx_HAL_Driver/Src/stm32f3xx_hal_rcc.c ****   }
 579:Drivers/STM32F3xx_HAL_Driver/Src/stm32f3xx_hal_rcc.c **** 
 580:Drivers/STM32F3xx_HAL_Driver/Src/stm32f3xx_hal_rcc.c ****   /*-------------------------------- PLL Configuration -----------------------*/
 581:Drivers/STM32F3xx_HAL_Driver/Src/stm32f3xx_hal_rcc.c ****   /* Check the parameters */
ARM GAS  /var/folders/md/lgcc8l7571l9vt9sx0g0zflw0000gn/T//ccUH8gjh.s 			page 52


 582:Drivers/STM32F3xx_HAL_Driver/Src/stm32f3xx_hal_rcc.c ****   assert_param(IS_RCC_PLL(RCC_OscInitStruct->PLL.PLLState));
 1555              		.loc 1 582 3 is_stmt 1 view .LVU448
 583:Drivers/STM32F3xx_HAL_Driver/Src/stm32f3xx_hal_rcc.c ****   if ((RCC_OscInitStruct->PLL.PLLState) != RCC_PLL_NONE)
 1556              		.loc 1 583 3 view .LVU449
 1557              		.loc 1 583 30 is_stmt 0 view .LVU450
 1558 0498 A369     		ldr	r3, [r4, #24]
 1559              		.loc 1 583 6 view .LVU451
 1560 049a 002B     		cmp	r3, #0
 1561 049c 00F0AA80 		beq	.L106
 584:Drivers/STM32F3xx_HAL_Driver/Src/stm32f3xx_hal_rcc.c ****   {
 585:Drivers/STM32F3xx_HAL_Driver/Src/stm32f3xx_hal_rcc.c ****     /* Check if the PLL is used as system clock or not */
 586:Drivers/STM32F3xx_HAL_Driver/Src/stm32f3xx_hal_rcc.c ****     if(__HAL_RCC_GET_SYSCLK_SOURCE() != RCC_SYSCLKSOURCE_STATUS_PLLCLK)
 1562              		.loc 1 586 5 is_stmt 1 view .LVU452
 1563              		.loc 1 586 8 is_stmt 0 view .LVU453
 1564 04a0 574A     		ldr	r2, .L131
 1565 04a2 5268     		ldr	r2, [r2, #4]
 1566 04a4 02F00C02 		and	r2, r2, #12
 1567              		.loc 1 586 7 view .LVU454
 1568 04a8 082A     		cmp	r2, #8
 1569 04aa 00F0A680 		beq	.L107
 587:Drivers/STM32F3xx_HAL_Driver/Src/stm32f3xx_hal_rcc.c ****     { 
 588:Drivers/STM32F3xx_HAL_Driver/Src/stm32f3xx_hal_rcc.c ****       if((RCC_OscInitStruct->PLL.PLLState) == RCC_PLL_ON)
 1570              		.loc 1 588 7 is_stmt 1 view .LVU455
 1571              		.loc 1 588 9 is_stmt 0 view .LVU456
 1572 04ae 022B     		cmp	r3, #2
 1573 04b0 2FD0     		beq	.L125
 589:Drivers/STM32F3xx_HAL_Driver/Src/stm32f3xx_hal_rcc.c ****       {
 590:Drivers/STM32F3xx_HAL_Driver/Src/stm32f3xx_hal_rcc.c ****         /* Check the parameters */
 591:Drivers/STM32F3xx_HAL_Driver/Src/stm32f3xx_hal_rcc.c ****         assert_param(IS_RCC_PLLSOURCE(RCC_OscInitStruct->PLL.PLLSource));
 592:Drivers/STM32F3xx_HAL_Driver/Src/stm32f3xx_hal_rcc.c ****         assert_param(IS_RCC_PLL_MUL(RCC_OscInitStruct->PLL.PLLMUL));
 593:Drivers/STM32F3xx_HAL_Driver/Src/stm32f3xx_hal_rcc.c **** #if   defined(RCC_CFGR_PLLSRC_HSI_PREDIV)
 594:Drivers/STM32F3xx_HAL_Driver/Src/stm32f3xx_hal_rcc.c ****         assert_param(IS_RCC_PREDIV(RCC_OscInitStruct->PLL.PREDIV));
 595:Drivers/STM32F3xx_HAL_Driver/Src/stm32f3xx_hal_rcc.c **** #endif
 596:Drivers/STM32F3xx_HAL_Driver/Src/stm32f3xx_hal_rcc.c ****   
 597:Drivers/STM32F3xx_HAL_Driver/Src/stm32f3xx_hal_rcc.c ****         /* Disable the main PLL. */
 598:Drivers/STM32F3xx_HAL_Driver/Src/stm32f3xx_hal_rcc.c ****         __HAL_RCC_PLL_DISABLE();
 599:Drivers/STM32F3xx_HAL_Driver/Src/stm32f3xx_hal_rcc.c ****         
 600:Drivers/STM32F3xx_HAL_Driver/Src/stm32f3xx_hal_rcc.c ****         /* Get Start Tick */
 601:Drivers/STM32F3xx_HAL_Driver/Src/stm32f3xx_hal_rcc.c ****         tickstart = HAL_GetTick();
 602:Drivers/STM32F3xx_HAL_Driver/Src/stm32f3xx_hal_rcc.c ****         
 603:Drivers/STM32F3xx_HAL_Driver/Src/stm32f3xx_hal_rcc.c ****         /* Wait till PLL is disabled */
 604:Drivers/STM32F3xx_HAL_Driver/Src/stm32f3xx_hal_rcc.c ****         while(__HAL_RCC_GET_FLAG(RCC_FLAG_PLLRDY)  != RESET)
 605:Drivers/STM32F3xx_HAL_Driver/Src/stm32f3xx_hal_rcc.c ****         {
 606:Drivers/STM32F3xx_HAL_Driver/Src/stm32f3xx_hal_rcc.c ****           if((HAL_GetTick() - tickstart ) > PLL_TIMEOUT_VALUE)
 607:Drivers/STM32F3xx_HAL_Driver/Src/stm32f3xx_hal_rcc.c ****           {
 608:Drivers/STM32F3xx_HAL_Driver/Src/stm32f3xx_hal_rcc.c ****             return HAL_TIMEOUT;
 609:Drivers/STM32F3xx_HAL_Driver/Src/stm32f3xx_hal_rcc.c ****           }
 610:Drivers/STM32F3xx_HAL_Driver/Src/stm32f3xx_hal_rcc.c ****         }
 611:Drivers/STM32F3xx_HAL_Driver/Src/stm32f3xx_hal_rcc.c **** 
 612:Drivers/STM32F3xx_HAL_Driver/Src/stm32f3xx_hal_rcc.c **** #if defined(RCC_CFGR_PLLSRC_HSI_PREDIV)
 613:Drivers/STM32F3xx_HAL_Driver/Src/stm32f3xx_hal_rcc.c ****         /* Configure the main PLL clock source, predivider and multiplication factor. */
 614:Drivers/STM32F3xx_HAL_Driver/Src/stm32f3xx_hal_rcc.c ****         __HAL_RCC_PLL_CONFIG(RCC_OscInitStruct->PLL.PLLSource,
 615:Drivers/STM32F3xx_HAL_Driver/Src/stm32f3xx_hal_rcc.c ****                              RCC_OscInitStruct->PLL.PREDIV,
 616:Drivers/STM32F3xx_HAL_Driver/Src/stm32f3xx_hal_rcc.c ****                              RCC_OscInitStruct->PLL.PLLMUL);
 617:Drivers/STM32F3xx_HAL_Driver/Src/stm32f3xx_hal_rcc.c **** #else
 618:Drivers/STM32F3xx_HAL_Driver/Src/stm32f3xx_hal_rcc.c ****       /* Configure the main PLL clock source and multiplication factor. */
 619:Drivers/STM32F3xx_HAL_Driver/Src/stm32f3xx_hal_rcc.c ****       __HAL_RCC_PLL_CONFIG(RCC_OscInitStruct->PLL.PLLSource,
ARM GAS  /var/folders/md/lgcc8l7571l9vt9sx0g0zflw0000gn/T//ccUH8gjh.s 			page 53


 620:Drivers/STM32F3xx_HAL_Driver/Src/stm32f3xx_hal_rcc.c ****                            RCC_OscInitStruct->PLL.PLLMUL);
 621:Drivers/STM32F3xx_HAL_Driver/Src/stm32f3xx_hal_rcc.c **** #endif /* RCC_CFGR_PLLSRC_HSI_PREDIV */
 622:Drivers/STM32F3xx_HAL_Driver/Src/stm32f3xx_hal_rcc.c ****         /* Enable the main PLL. */
 623:Drivers/STM32F3xx_HAL_Driver/Src/stm32f3xx_hal_rcc.c ****         __HAL_RCC_PLL_ENABLE();
 624:Drivers/STM32F3xx_HAL_Driver/Src/stm32f3xx_hal_rcc.c ****         
 625:Drivers/STM32F3xx_HAL_Driver/Src/stm32f3xx_hal_rcc.c ****         /* Get Start Tick */
 626:Drivers/STM32F3xx_HAL_Driver/Src/stm32f3xx_hal_rcc.c ****         tickstart = HAL_GetTick();
 627:Drivers/STM32F3xx_HAL_Driver/Src/stm32f3xx_hal_rcc.c ****         
 628:Drivers/STM32F3xx_HAL_Driver/Src/stm32f3xx_hal_rcc.c ****         /* Wait till PLL is ready */
 629:Drivers/STM32F3xx_HAL_Driver/Src/stm32f3xx_hal_rcc.c ****         while(__HAL_RCC_GET_FLAG(RCC_FLAG_PLLRDY)  == RESET)
 630:Drivers/STM32F3xx_HAL_Driver/Src/stm32f3xx_hal_rcc.c ****         {
 631:Drivers/STM32F3xx_HAL_Driver/Src/stm32f3xx_hal_rcc.c ****           if((HAL_GetTick() - tickstart ) > PLL_TIMEOUT_VALUE)
 632:Drivers/STM32F3xx_HAL_Driver/Src/stm32f3xx_hal_rcc.c ****           {
 633:Drivers/STM32F3xx_HAL_Driver/Src/stm32f3xx_hal_rcc.c ****             return HAL_TIMEOUT;
 634:Drivers/STM32F3xx_HAL_Driver/Src/stm32f3xx_hal_rcc.c ****           }
 635:Drivers/STM32F3xx_HAL_Driver/Src/stm32f3xx_hal_rcc.c ****         }
 636:Drivers/STM32F3xx_HAL_Driver/Src/stm32f3xx_hal_rcc.c ****       }
 637:Drivers/STM32F3xx_HAL_Driver/Src/stm32f3xx_hal_rcc.c ****       else
 638:Drivers/STM32F3xx_HAL_Driver/Src/stm32f3xx_hal_rcc.c ****       {
 639:Drivers/STM32F3xx_HAL_Driver/Src/stm32f3xx_hal_rcc.c ****         /* Disable the main PLL. */
 640:Drivers/STM32F3xx_HAL_Driver/Src/stm32f3xx_hal_rcc.c ****         __HAL_RCC_PLL_DISABLE();
 1574              		.loc 1 640 9 is_stmt 1 view .LVU457
 1575              	.LVL115:
 1576              	.LBB240:
 1577              	.LBI240:
 526:Drivers/CMSIS/Include/cmsis_gcc.h **** {
 1578              		.loc 2 526 57 view .LVU458
 1579              	.LBB241:
 528:Drivers/CMSIS/Include/cmsis_gcc.h **** 
 1580              		.loc 2 528 3 view .LVU459
 531:Drivers/CMSIS/Include/cmsis_gcc.h **** #else
 1581              		.loc 2 531 4 view .LVU460
 1582 04b2 4FF08073 		mov	r3, #16777216
 1583              		.syntax unified
 1584              	@ 531 "Drivers/CMSIS/Include/cmsis_gcc.h" 1
 1585 04b6 93FAA3F3 		rbit r3, r3
 1586              	@ 0 "" 2
 1587              	.LVL116:
 1588              		.loc 2 544 3 view .LVU461
 1589              		.loc 2 544 3 is_stmt 0 view .LVU462
 1590              		.thumb
 1591              		.syntax unified
 1592              	.LBE241:
 1593              	.LBE240:
 1594              		.loc 1 640 9 view .LVU463
 1595 04ba B3FA83F3 		clz	r3, r3
 1596 04be 03F18453 		add	r3, r3, #276824064
 1597 04c2 03F58413 		add	r3, r3, #1081344
 1598 04c6 9B00     		lsls	r3, r3, #2
 1599 04c8 0022     		movs	r2, #0
 1600 04ca 1A60     		str	r2, [r3]
 641:Drivers/STM32F3xx_HAL_Driver/Src/stm32f3xx_hal_rcc.c ****  
 642:Drivers/STM32F3xx_HAL_Driver/Src/stm32f3xx_hal_rcc.c ****         /* Get Start Tick */
 643:Drivers/STM32F3xx_HAL_Driver/Src/stm32f3xx_hal_rcc.c ****         tickstart = HAL_GetTick();
 1601              		.loc 1 643 9 is_stmt 1 view .LVU464
 1602              		.loc 1 643 21 is_stmt 0 view .LVU465
 1603 04cc FFF7FEFF 		bl	HAL_GetTick
ARM GAS  /var/folders/md/lgcc8l7571l9vt9sx0g0zflw0000gn/T//ccUH8gjh.s 			page 54


 1604              	.LVL117:
 1605 04d0 0446     		mov	r4, r0
 1606              	.LVL118:
 644:Drivers/STM32F3xx_HAL_Driver/Src/stm32f3xx_hal_rcc.c ****         
 645:Drivers/STM32F3xx_HAL_Driver/Src/stm32f3xx_hal_rcc.c ****         /* Wait till PLL is disabled */  
 646:Drivers/STM32F3xx_HAL_Driver/Src/stm32f3xx_hal_rcc.c ****         while(__HAL_RCC_GET_FLAG(RCC_FLAG_PLLRDY)  != RESET)
 1607              		.loc 1 646 9 is_stmt 1 view .LVU466
 1608              	.L89:
 1609              	.LBB242:
 1610              	.LBI242:
 526:Drivers/CMSIS/Include/cmsis_gcc.h **** {
 1611              		.loc 2 526 57 view .LVU467
 1612              	.LBB243:
 528:Drivers/CMSIS/Include/cmsis_gcc.h **** 
 1613              		.loc 2 528 3 view .LVU468
 531:Drivers/CMSIS/Include/cmsis_gcc.h **** #else
 1614              		.loc 2 531 4 view .LVU469
 1615 04d2 4FF00073 		mov	r3, #33554432
 1616              		.syntax unified
 1617              	@ 531 "Drivers/CMSIS/Include/cmsis_gcc.h" 1
 1618 04d6 93FAA3F3 		rbit r3, r3
 1619              	@ 0 "" 2
 1620              		.loc 2 544 3 view .LVU470
 1621              	.LVL119:
 1622              		.loc 2 544 3 is_stmt 0 view .LVU471
 1623              		.thumb
 1624              		.syntax unified
 1625              	.LBE243:
 1626              	.LBE242:
 1627              		.loc 1 646 15 view .LVU472
 1628 04da 494B     		ldr	r3, .L131
 1629 04dc 1968     		ldr	r1, [r3]
 1630              	.LVL120:
 1631              	.LBB244:
 1632              	.LBI244:
 526:Drivers/CMSIS/Include/cmsis_gcc.h **** {
 1633              		.loc 2 526 57 is_stmt 1 view .LVU473
 1634              	.LBB245:
 528:Drivers/CMSIS/Include/cmsis_gcc.h **** 
 1635              		.loc 2 528 3 view .LVU474
 531:Drivers/CMSIS/Include/cmsis_gcc.h **** #else
 1636              		.loc 2 531 4 view .LVU475
 1637 04de 4FF00073 		mov	r3, #33554432
 1638              		.syntax unified
 1639              	@ 531 "Drivers/CMSIS/Include/cmsis_gcc.h" 1
 1640 04e2 93FAA3F3 		rbit r3, r3
 1641              	@ 0 "" 2
 1642              	.LVL121:
 1643              		.loc 2 544 3 view .LVU476
 1644              		.loc 2 544 3 is_stmt 0 view .LVU477
 1645              		.thumb
 1646              		.syntax unified
 1647              	.LBE245:
 1648              	.LBE244:
 1649              		.loc 1 646 15 view .LVU478
 1650 04e6 B3FA83F3 		clz	r3, r3
 1651 04ea 03F01F03 		and	r3, r3, #31
ARM GAS  /var/folders/md/lgcc8l7571l9vt9sx0g0zflw0000gn/T//ccUH8gjh.s 			page 55


 1652 04ee 0122     		movs	r2, #1
 1653 04f0 02FA03F3 		lsl	r3, r2, r3
 1654              		.loc 1 646 14 view .LVU479
 1655 04f4 1942     		tst	r1, r3
 1656 04f6 71D0     		beq	.L126
 647:Drivers/STM32F3xx_HAL_Driver/Src/stm32f3xx_hal_rcc.c ****         {
 648:Drivers/STM32F3xx_HAL_Driver/Src/stm32f3xx_hal_rcc.c ****           if((HAL_GetTick() - tickstart ) > PLL_TIMEOUT_VALUE)
 1657              		.loc 1 648 11 is_stmt 1 view .LVU480
 1658              		.loc 1 648 15 is_stmt 0 view .LVU481
 1659 04f8 FFF7FEFF 		bl	HAL_GetTick
 1660              	.LVL122:
 1661              		.loc 1 648 29 view .LVU482
 1662 04fc 001B     		subs	r0, r0, r4
 1663              		.loc 1 648 13 view .LVU483
 1664 04fe 0228     		cmp	r0, #2
 1665 0500 E7D9     		bls	.L89
 649:Drivers/STM32F3xx_HAL_Driver/Src/stm32f3xx_hal_rcc.c ****           {
 650:Drivers/STM32F3xx_HAL_Driver/Src/stm32f3xx_hal_rcc.c ****             return HAL_TIMEOUT;
 1666              		.loc 1 650 20 view .LVU484
 1667 0502 0320     		movs	r0, #3
 1668 0504 77E0     		b	.L21
 1669              	.LVL123:
 1670              	.L124:
 1671              	.LBB246:
 576:Drivers/STM32F3xx_HAL_Driver/Src/stm32f3xx_hal_rcc.c ****     }
 1672              		.loc 1 576 7 is_stmt 1 view .LVU485
 1673 0506 3E4A     		ldr	r2, .L131
 1674 0508 D369     		ldr	r3, [r2, #28]
 1675 050a 23F08053 		bic	r3, r3, #268435456
 1676 050e D361     		str	r3, [r2, #28]
 1677 0510 C2E7     		b	.L61
 1678              	.LVL124:
 1679              	.L125:
 576:Drivers/STM32F3xx_HAL_Driver/Src/stm32f3xx_hal_rcc.c ****     }
 1680              		.loc 1 576 7 is_stmt 0 view .LVU486
 1681              	.LBE246:
 591:Drivers/STM32F3xx_HAL_Driver/Src/stm32f3xx_hal_rcc.c ****         assert_param(IS_RCC_PLL_MUL(RCC_OscInitStruct->PLL.PLLMUL));
 1682              		.loc 1 591 9 is_stmt 1 view .LVU487
 592:Drivers/STM32F3xx_HAL_Driver/Src/stm32f3xx_hal_rcc.c **** #if   defined(RCC_CFGR_PLLSRC_HSI_PREDIV)
 1683              		.loc 1 592 9 view .LVU488
 594:Drivers/STM32F3xx_HAL_Driver/Src/stm32f3xx_hal_rcc.c **** #endif
 1684              		.loc 1 594 9 view .LVU489
 598:Drivers/STM32F3xx_HAL_Driver/Src/stm32f3xx_hal_rcc.c ****         
 1685              		.loc 1 598 9 view .LVU490
 1686              	.LBB247:
 1687              	.LBI247:
 526:Drivers/CMSIS/Include/cmsis_gcc.h **** {
 1688              		.loc 2 526 57 view .LVU491
 1689              	.LBB248:
 528:Drivers/CMSIS/Include/cmsis_gcc.h **** 
 1690              		.loc 2 528 3 view .LVU492
 531:Drivers/CMSIS/Include/cmsis_gcc.h **** #else
 1691              		.loc 2 531 4 view .LVU493
 1692 0512 4FF08073 		mov	r3, #16777216
 1693              		.syntax unified
 1694              	@ 531 "Drivers/CMSIS/Include/cmsis_gcc.h" 1
 1695 0516 93FAA3F3 		rbit r3, r3
ARM GAS  /var/folders/md/lgcc8l7571l9vt9sx0g0zflw0000gn/T//ccUH8gjh.s 			page 56


 1696              	@ 0 "" 2
 1697              	.LVL125:
 1698              		.loc 2 544 3 view .LVU494
 1699              		.loc 2 544 3 is_stmt 0 view .LVU495
 1700              		.thumb
 1701              		.syntax unified
 1702              	.LBE248:
 1703              	.LBE247:
 598:Drivers/STM32F3xx_HAL_Driver/Src/stm32f3xx_hal_rcc.c ****         
 1704              		.loc 1 598 9 view .LVU496
 1705 051a B3FA83F3 		clz	r3, r3
 1706 051e 03F18453 		add	r3, r3, #276824064
 1707 0522 03F58413 		add	r3, r3, #1081344
 1708 0526 9B00     		lsls	r3, r3, #2
 1709 0528 0022     		movs	r2, #0
 1710 052a 1A60     		str	r2, [r3]
 601:Drivers/STM32F3xx_HAL_Driver/Src/stm32f3xx_hal_rcc.c ****         
 1711              		.loc 1 601 9 is_stmt 1 view .LVU497
 601:Drivers/STM32F3xx_HAL_Driver/Src/stm32f3xx_hal_rcc.c ****         
 1712              		.loc 1 601 21 is_stmt 0 view .LVU498
 1713 052c FFF7FEFF 		bl	HAL_GetTick
 1714              	.LVL126:
 1715 0530 0546     		mov	r5, r0
 1716              	.LVL127:
 604:Drivers/STM32F3xx_HAL_Driver/Src/stm32f3xx_hal_rcc.c ****         {
 1717              		.loc 1 604 9 is_stmt 1 view .LVU499
 1718              	.L81:
 1719              	.LBB249:
 1720              	.LBI249:
 526:Drivers/CMSIS/Include/cmsis_gcc.h **** {
 1721              		.loc 2 526 57 view .LVU500
 1722              	.LBB250:
 528:Drivers/CMSIS/Include/cmsis_gcc.h **** 
 1723              		.loc 2 528 3 view .LVU501
 531:Drivers/CMSIS/Include/cmsis_gcc.h **** #else
 1724              		.loc 2 531 4 view .LVU502
 1725 0532 4FF00073 		mov	r3, #33554432
 1726              		.syntax unified
 1727              	@ 531 "Drivers/CMSIS/Include/cmsis_gcc.h" 1
 1728 0536 93FAA3F3 		rbit r3, r3
 1729              	@ 0 "" 2
 1730              		.loc 2 544 3 view .LVU503
 1731              	.LVL128:
 1732              		.loc 2 544 3 is_stmt 0 view .LVU504
 1733              		.thumb
 1734              		.syntax unified
 1735              	.LBE250:
 1736              	.LBE249:
 604:Drivers/STM32F3xx_HAL_Driver/Src/stm32f3xx_hal_rcc.c ****         {
 1737              		.loc 1 604 15 view .LVU505
 1738 053a 314B     		ldr	r3, .L131
 1739 053c 1968     		ldr	r1, [r3]
 1740              	.LVL129:
 1741              	.LBB251:
 1742              	.LBI251:
 526:Drivers/CMSIS/Include/cmsis_gcc.h **** {
 1743              		.loc 2 526 57 is_stmt 1 view .LVU506
ARM GAS  /var/folders/md/lgcc8l7571l9vt9sx0g0zflw0000gn/T//ccUH8gjh.s 			page 57


 1744              	.LBB252:
 528:Drivers/CMSIS/Include/cmsis_gcc.h **** 
 1745              		.loc 2 528 3 view .LVU507
 531:Drivers/CMSIS/Include/cmsis_gcc.h **** #else
 1746              		.loc 2 531 4 view .LVU508
 1747 053e 4FF00073 		mov	r3, #33554432
 1748              		.syntax unified
 1749              	@ 531 "Drivers/CMSIS/Include/cmsis_gcc.h" 1
 1750 0542 93FAA3F3 		rbit r3, r3
 1751              	@ 0 "" 2
 1752              	.LVL130:
 1753              		.loc 2 544 3 view .LVU509
 1754              		.loc 2 544 3 is_stmt 0 view .LVU510
 1755              		.thumb
 1756              		.syntax unified
 1757              	.LBE252:
 1758              	.LBE251:
 604:Drivers/STM32F3xx_HAL_Driver/Src/stm32f3xx_hal_rcc.c ****         {
 1759              		.loc 1 604 15 view .LVU511
 1760 0546 B3FA83F3 		clz	r3, r3
 1761 054a 03F01F03 		and	r3, r3, #31
 1762 054e 0122     		movs	r2, #1
 1763 0550 02FA03F3 		lsl	r3, r2, r3
 604:Drivers/STM32F3xx_HAL_Driver/Src/stm32f3xx_hal_rcc.c ****         {
 1764              		.loc 1 604 14 view .LVU512
 1765 0554 1942     		tst	r1, r3
 1766 0556 06D0     		beq	.L127
 606:Drivers/STM32F3xx_HAL_Driver/Src/stm32f3xx_hal_rcc.c ****           {
 1767              		.loc 1 606 11 is_stmt 1 view .LVU513
 606:Drivers/STM32F3xx_HAL_Driver/Src/stm32f3xx_hal_rcc.c ****           {
 1768              		.loc 1 606 15 is_stmt 0 view .LVU514
 1769 0558 FFF7FEFF 		bl	HAL_GetTick
 1770              	.LVL131:
 606:Drivers/STM32F3xx_HAL_Driver/Src/stm32f3xx_hal_rcc.c ****           {
 1771              		.loc 1 606 29 view .LVU515
 1772 055c 401B     		subs	r0, r0, r5
 606:Drivers/STM32F3xx_HAL_Driver/Src/stm32f3xx_hal_rcc.c ****           {
 1773              		.loc 1 606 13 view .LVU516
 1774 055e 0228     		cmp	r0, #2
 1775 0560 E7D9     		bls	.L81
 608:Drivers/STM32F3xx_HAL_Driver/Src/stm32f3xx_hal_rcc.c ****           }
 1776              		.loc 1 608 20 view .LVU517
 1777 0562 0320     		movs	r0, #3
 1778 0564 47E0     		b	.L21
 1779              	.L127:
 614:Drivers/STM32F3xx_HAL_Driver/Src/stm32f3xx_hal_rcc.c ****                              RCC_OscInitStruct->PLL.PREDIV,
 1780              		.loc 1 614 9 is_stmt 1 view .LVU518
 614:Drivers/STM32F3xx_HAL_Driver/Src/stm32f3xx_hal_rcc.c ****                              RCC_OscInitStruct->PLL.PREDIV,
 1781              		.loc 1 614 9 view .LVU519
 1782 0566 264A     		ldr	r2, .L131
 1783 0568 D36A     		ldr	r3, [r2, #44]
 1784 056a 23F00F03 		bic	r3, r3, #15
 1785 056e 616A     		ldr	r1, [r4, #36]
 1786 0570 0B43     		orrs	r3, r3, r1
 1787 0572 D362     		str	r3, [r2, #44]
 614:Drivers/STM32F3xx_HAL_Driver/Src/stm32f3xx_hal_rcc.c ****                              RCC_OscInitStruct->PLL.PREDIV,
 1788              		.loc 1 614 9 view .LVU520
ARM GAS  /var/folders/md/lgcc8l7571l9vt9sx0g0zflw0000gn/T//ccUH8gjh.s 			page 58


 1789 0574 5368     		ldr	r3, [r2, #4]
 1790 0576 23F47613 		bic	r3, r3, #4030464
 1791 057a 216A     		ldr	r1, [r4, #32]
 1792 057c E069     		ldr	r0, [r4, #28]
 1793 057e 0143     		orrs	r1, r1, r0
 1794 0580 0B43     		orrs	r3, r3, r1
 1795 0582 5360     		str	r3, [r2, #4]
 623:Drivers/STM32F3xx_HAL_Driver/Src/stm32f3xx_hal_rcc.c ****         
 1796              		.loc 1 623 9 view .LVU521
 1797              	.LVL132:
 1798              	.LBB253:
 1799              	.LBI253:
 526:Drivers/CMSIS/Include/cmsis_gcc.h **** {
 1800              		.loc 2 526 57 view .LVU522
 1801              	.LBB254:
 528:Drivers/CMSIS/Include/cmsis_gcc.h **** 
 1802              		.loc 2 528 3 view .LVU523
 531:Drivers/CMSIS/Include/cmsis_gcc.h **** #else
 1803              		.loc 2 531 4 view .LVU524
 1804 0584 4FF08073 		mov	r3, #16777216
 1805              		.syntax unified
 1806              	@ 531 "Drivers/CMSIS/Include/cmsis_gcc.h" 1
 1807 0588 93FAA3F3 		rbit r3, r3
 1808              	@ 0 "" 2
 1809              	.LVL133:
 1810              		.loc 2 544 3 view .LVU525
 1811              		.loc 2 544 3 is_stmt 0 view .LVU526
 1812              		.thumb
 1813              		.syntax unified
 1814              	.LBE254:
 1815              	.LBE253:
 623:Drivers/STM32F3xx_HAL_Driver/Src/stm32f3xx_hal_rcc.c ****         
 1816              		.loc 1 623 9 view .LVU527
 1817 058c B3FA83F3 		clz	r3, r3
 1818 0590 03F18453 		add	r3, r3, #276824064
 1819 0594 03F58413 		add	r3, r3, #1081344
 1820 0598 9B00     		lsls	r3, r3, #2
 1821 059a 0122     		movs	r2, #1
 1822 059c 1A60     		str	r2, [r3]
 626:Drivers/STM32F3xx_HAL_Driver/Src/stm32f3xx_hal_rcc.c ****         
 1823              		.loc 1 626 9 is_stmt 1 view .LVU528
 626:Drivers/STM32F3xx_HAL_Driver/Src/stm32f3xx_hal_rcc.c ****         
 1824              		.loc 1 626 21 is_stmt 0 view .LVU529
 1825 059e FFF7FEFF 		bl	HAL_GetTick
 1826              	.LVL134:
 1827 05a2 0446     		mov	r4, r0
 1828              	.LVL135:
 629:Drivers/STM32F3xx_HAL_Driver/Src/stm32f3xx_hal_rcc.c ****         {
 1829              		.loc 1 629 9 is_stmt 1 view .LVU530
 1830              	.L85:
 1831              	.LBB255:
 1832              	.LBI255:
 526:Drivers/CMSIS/Include/cmsis_gcc.h **** {
 1833              		.loc 2 526 57 view .LVU531
 1834              	.LBB256:
 528:Drivers/CMSIS/Include/cmsis_gcc.h **** 
 1835              		.loc 2 528 3 view .LVU532
ARM GAS  /var/folders/md/lgcc8l7571l9vt9sx0g0zflw0000gn/T//ccUH8gjh.s 			page 59


 531:Drivers/CMSIS/Include/cmsis_gcc.h **** #else
 1836              		.loc 2 531 4 view .LVU533
 1837 05a4 4FF00073 		mov	r3, #33554432
 1838              		.syntax unified
 1839              	@ 531 "Drivers/CMSIS/Include/cmsis_gcc.h" 1
 1840 05a8 93FAA3F3 		rbit r3, r3
 1841              	@ 0 "" 2
 1842              		.loc 2 544 3 view .LVU534
 1843              	.LVL136:
 1844              		.loc 2 544 3 is_stmt 0 view .LVU535
 1845              		.thumb
 1846              		.syntax unified
 1847              	.LBE256:
 1848              	.LBE255:
 629:Drivers/STM32F3xx_HAL_Driver/Src/stm32f3xx_hal_rcc.c ****         {
 1849              		.loc 1 629 15 view .LVU536
 1850 05ac 144B     		ldr	r3, .L131
 1851 05ae 1968     		ldr	r1, [r3]
 1852              	.LVL137:
 1853              	.LBB257:
 1854              	.LBI257:
 526:Drivers/CMSIS/Include/cmsis_gcc.h **** {
 1855              		.loc 2 526 57 is_stmt 1 view .LVU537
 1856              	.LBB258:
 528:Drivers/CMSIS/Include/cmsis_gcc.h **** 
 1857              		.loc 2 528 3 view .LVU538
 531:Drivers/CMSIS/Include/cmsis_gcc.h **** #else
 1858              		.loc 2 531 4 view .LVU539
 1859 05b0 4FF00073 		mov	r3, #33554432
 1860              		.syntax unified
 1861              	@ 531 "Drivers/CMSIS/Include/cmsis_gcc.h" 1
 1862 05b4 93FAA3F3 		rbit r3, r3
 1863              	@ 0 "" 2
 1864              	.LVL138:
 1865              		.loc 2 544 3 view .LVU540
 1866              		.loc 2 544 3 is_stmt 0 view .LVU541
 1867              		.thumb
 1868              		.syntax unified
 1869              	.LBE258:
 1870              	.LBE257:
 629:Drivers/STM32F3xx_HAL_Driver/Src/stm32f3xx_hal_rcc.c ****         {
 1871              		.loc 1 629 15 view .LVU542
 1872 05b8 B3FA83F3 		clz	r3, r3
 1873 05bc 03F01F03 		and	r3, r3, #31
 1874 05c0 0122     		movs	r2, #1
 1875 05c2 02FA03F3 		lsl	r3, r2, r3
 629:Drivers/STM32F3xx_HAL_Driver/Src/stm32f3xx_hal_rcc.c ****         {
 1876              		.loc 1 629 14 view .LVU543
 1877 05c6 1942     		tst	r1, r3
 1878 05c8 06D1     		bne	.L128
 631:Drivers/STM32F3xx_HAL_Driver/Src/stm32f3xx_hal_rcc.c ****           {
 1879              		.loc 1 631 11 is_stmt 1 view .LVU544
 631:Drivers/STM32F3xx_HAL_Driver/Src/stm32f3xx_hal_rcc.c ****           {
 1880              		.loc 1 631 15 is_stmt 0 view .LVU545
 1881 05ca FFF7FEFF 		bl	HAL_GetTick
 1882              	.LVL139:
 631:Drivers/STM32F3xx_HAL_Driver/Src/stm32f3xx_hal_rcc.c ****           {
ARM GAS  /var/folders/md/lgcc8l7571l9vt9sx0g0zflw0000gn/T//ccUH8gjh.s 			page 60


 1883              		.loc 1 631 29 view .LVU546
 1884 05ce 001B     		subs	r0, r0, r4
 631:Drivers/STM32F3xx_HAL_Driver/Src/stm32f3xx_hal_rcc.c ****           {
 1885              		.loc 1 631 13 view .LVU547
 1886 05d0 0228     		cmp	r0, #2
 1887 05d2 E7D9     		bls	.L85
 633:Drivers/STM32F3xx_HAL_Driver/Src/stm32f3xx_hal_rcc.c ****           }
 1888              		.loc 1 633 20 view .LVU548
 1889 05d4 0320     		movs	r0, #3
 1890 05d6 0EE0     		b	.L21
 1891              	.L128:
 651:Drivers/STM32F3xx_HAL_Driver/Src/stm32f3xx_hal_rcc.c ****           }
 652:Drivers/STM32F3xx_HAL_Driver/Src/stm32f3xx_hal_rcc.c ****         }
 653:Drivers/STM32F3xx_HAL_Driver/Src/stm32f3xx_hal_rcc.c ****       }
 654:Drivers/STM32F3xx_HAL_Driver/Src/stm32f3xx_hal_rcc.c ****     }
 655:Drivers/STM32F3xx_HAL_Driver/Src/stm32f3xx_hal_rcc.c ****     else
 656:Drivers/STM32F3xx_HAL_Driver/Src/stm32f3xx_hal_rcc.c ****     {
 657:Drivers/STM32F3xx_HAL_Driver/Src/stm32f3xx_hal_rcc.c ****       return HAL_ERROR;
 658:Drivers/STM32F3xx_HAL_Driver/Src/stm32f3xx_hal_rcc.c ****     }
 659:Drivers/STM32F3xx_HAL_Driver/Src/stm32f3xx_hal_rcc.c ****   }
 660:Drivers/STM32F3xx_HAL_Driver/Src/stm32f3xx_hal_rcc.c ****   
 661:Drivers/STM32F3xx_HAL_Driver/Src/stm32f3xx_hal_rcc.c ****   return HAL_OK;
 1892              		.loc 1 661 10 view .LVU549
 1893 05d8 0020     		movs	r0, #0
 1894 05da 0CE0     		b	.L21
 1895              	.L126:
 1896              		.loc 1 661 10 view .LVU550
 1897 05dc 0020     		movs	r0, #0
 1898 05de 0AE0     		b	.L21
 1899              	.LVL140:
 1900              	.L93:
 1901              	.LCFI3:
 1902              		.cfi_def_cfa_offset 0
 1903              		.cfi_restore 4
 1904              		.cfi_restore 5
 1905              		.cfi_restore 6
 1906              		.cfi_restore 14
 339:Drivers/STM32F3xx_HAL_Driver/Src/stm32f3xx_hal_rcc.c ****   }
 1907              		.loc 1 339 12 view .LVU551
 1908 05e0 0120     		movs	r0, #1
 1909              	.LVL141:
 662:Drivers/STM32F3xx_HAL_Driver/Src/stm32f3xx_hal_rcc.c **** }
 1910              		.loc 1 662 1 view .LVU552
 1911 05e2 7047     		bx	lr
 1912              	.LVL142:
 1913              	.L117:
 1914              	.LCFI4:
 1915              		.cfi_def_cfa_offset 24
 1916              		.cfi_offset 4, -16
 1917              		.cfi_offset 5, -12
 1918              		.cfi_offset 6, -8
 1919              		.cfi_offset 14, -4
 357:Drivers/STM32F3xx_HAL_Driver/Src/stm32f3xx_hal_rcc.c ****       }
 1920              		.loc 1 357 16 view .LVU553
 1921 05e4 0120     		movs	r0, #1
 1922              	.LVL143:
 357:Drivers/STM32F3xx_HAL_Driver/Src/stm32f3xx_hal_rcc.c ****       }
ARM GAS  /var/folders/md/lgcc8l7571l9vt9sx0g0zflw0000gn/T//ccUH8gjh.s 			page 61


 1923              		.loc 1 357 16 view .LVU554
 1924 05e6 06E0     		b	.L21
 1925              	.L97:
 415:Drivers/STM32F3xx_HAL_Driver/Src/stm32f3xx_hal_rcc.c ****       }
 1926              		.loc 1 415 16 view .LVU555
 1927 05e8 0120     		movs	r0, #1
 1928 05ea 04E0     		b	.L21
 1929              	.LVL144:
 1930              	.L104:
 1931              	.LBB259:
 554:Drivers/STM32F3xx_HAL_Driver/Src/stm32f3xx_hal_rcc.c ****         }
 1932              		.loc 1 554 18 view .LVU556
 1933 05ec 0320     		movs	r0, #3
 1934 05ee 02E0     		b	.L21
 1935              	.L105:
 568:Drivers/STM32F3xx_HAL_Driver/Src/stm32f3xx_hal_rcc.c ****         }
 1936              		.loc 1 568 18 view .LVU557
 1937 05f0 0320     		movs	r0, #3
 1938 05f2 00E0     		b	.L21
 1939              	.LVL145:
 1940              	.L106:
 568:Drivers/STM32F3xx_HAL_Driver/Src/stm32f3xx_hal_rcc.c ****         }
 1941              		.loc 1 568 18 view .LVU558
 1942              	.LBE259:
 661:Drivers/STM32F3xx_HAL_Driver/Src/stm32f3xx_hal_rcc.c **** }
 1943              		.loc 1 661 10 view .LVU559
 1944 05f4 0020     		movs	r0, #0
 1945              	.LVL146:
 1946              	.L21:
 1947              		.loc 1 662 1 view .LVU560
 1948 05f6 02B0     		add	sp, sp, #8
 1949              	.LCFI5:
 1950              		.cfi_remember_state
 1951              		.cfi_def_cfa_offset 16
 1952              		@ sp needed
 1953 05f8 70BD     		pop	{r4, r5, r6, pc}
 1954              	.LVL147:
 1955              	.L107:
 1956              	.LCFI6:
 1957              		.cfi_restore_state
 657:Drivers/STM32F3xx_HAL_Driver/Src/stm32f3xx_hal_rcc.c ****     }
 1958              		.loc 1 657 14 view .LVU561
 1959 05fa 0120     		movs	r0, #1
 1960 05fc FBE7     		b	.L21
 1961              	.L132:
 1962 05fe 00BF     		.align	2
 1963              	.L131:
 1964 0600 00100240 		.word	1073876992
 1965 0604 00700040 		.word	1073770496
 1966              		.cfi_endproc
 1967              	.LFE127:
 1969              		.section	.text.HAL_RCC_MCOConfig,"ax",%progbits
 1970              		.align	1
 1971              		.global	HAL_RCC_MCOConfig
 1972              		.syntax unified
 1973              		.thumb
 1974              		.thumb_func
ARM GAS  /var/folders/md/lgcc8l7571l9vt9sx0g0zflw0000gn/T//ccUH8gjh.s 			page 62


 1975              		.fpu fpv4-sp-d16
 1977              	HAL_RCC_MCOConfig:
 1978              	.LVL148:
 1979              	.LFB129:
 663:Drivers/STM32F3xx_HAL_Driver/Src/stm32f3xx_hal_rcc.c **** 
 664:Drivers/STM32F3xx_HAL_Driver/Src/stm32f3xx_hal_rcc.c **** /**
 665:Drivers/STM32F3xx_HAL_Driver/Src/stm32f3xx_hal_rcc.c ****   * @brief  Initializes the CPU, AHB and APB buses clocks according to the specified 
 666:Drivers/STM32F3xx_HAL_Driver/Src/stm32f3xx_hal_rcc.c ****   *         parameters in the RCC_ClkInitStruct.
 667:Drivers/STM32F3xx_HAL_Driver/Src/stm32f3xx_hal_rcc.c ****   * @param  RCC_ClkInitStruct pointer to an RCC_OscInitTypeDef structure that
 668:Drivers/STM32F3xx_HAL_Driver/Src/stm32f3xx_hal_rcc.c ****   *         contains the configuration information for the RCC peripheral.
 669:Drivers/STM32F3xx_HAL_Driver/Src/stm32f3xx_hal_rcc.c ****   * @param  FLatency FLASH Latency                   
 670:Drivers/STM32F3xx_HAL_Driver/Src/stm32f3xx_hal_rcc.c ****   *          The value of this parameter depend on device used within the same series
 671:Drivers/STM32F3xx_HAL_Driver/Src/stm32f3xx_hal_rcc.c ****   * @note   The SystemCoreClock CMSIS variable is used to store System Clock Frequency 
 672:Drivers/STM32F3xx_HAL_Driver/Src/stm32f3xx_hal_rcc.c ****   *         and updated by @ref HAL_RCC_GetHCLKFreq() function called within this function
 673:Drivers/STM32F3xx_HAL_Driver/Src/stm32f3xx_hal_rcc.c ****   *
 674:Drivers/STM32F3xx_HAL_Driver/Src/stm32f3xx_hal_rcc.c ****   * @note   The HSI is used (enabled by hardware) as system clock source after
 675:Drivers/STM32F3xx_HAL_Driver/Src/stm32f3xx_hal_rcc.c ****   *         start-up from Reset, wake-up from STOP and STANDBY mode, or in case
 676:Drivers/STM32F3xx_HAL_Driver/Src/stm32f3xx_hal_rcc.c ****   *         of failure of the HSE used directly or indirectly as system clock
 677:Drivers/STM32F3xx_HAL_Driver/Src/stm32f3xx_hal_rcc.c ****   *         (if the Clock Security System CSS is enabled).
 678:Drivers/STM32F3xx_HAL_Driver/Src/stm32f3xx_hal_rcc.c ****   *           
 679:Drivers/STM32F3xx_HAL_Driver/Src/stm32f3xx_hal_rcc.c ****   * @note   A switch from one clock source to another occurs only if the target
 680:Drivers/STM32F3xx_HAL_Driver/Src/stm32f3xx_hal_rcc.c ****   *         clock source is ready (clock stable after start-up delay or PLL locked). 
 681:Drivers/STM32F3xx_HAL_Driver/Src/stm32f3xx_hal_rcc.c ****   *         If a clock source which is not yet ready is selected, the switch will
 682:Drivers/STM32F3xx_HAL_Driver/Src/stm32f3xx_hal_rcc.c ****   *         occur when the clock source will be ready. 
 683:Drivers/STM32F3xx_HAL_Driver/Src/stm32f3xx_hal_rcc.c ****   *         You can use @ref HAL_RCC_GetClockConfig() function to know which clock is
 684:Drivers/STM32F3xx_HAL_Driver/Src/stm32f3xx_hal_rcc.c ****   *         currently used as system clock source.
 685:Drivers/STM32F3xx_HAL_Driver/Src/stm32f3xx_hal_rcc.c ****   * @retval HAL status
 686:Drivers/STM32F3xx_HAL_Driver/Src/stm32f3xx_hal_rcc.c ****   */
 687:Drivers/STM32F3xx_HAL_Driver/Src/stm32f3xx_hal_rcc.c **** HAL_StatusTypeDef HAL_RCC_ClockConfig(RCC_ClkInitTypeDef  *RCC_ClkInitStruct, uint32_t FLatency)
 688:Drivers/STM32F3xx_HAL_Driver/Src/stm32f3xx_hal_rcc.c **** {
 689:Drivers/STM32F3xx_HAL_Driver/Src/stm32f3xx_hal_rcc.c ****   uint32_t tickstart = 0U;
 690:Drivers/STM32F3xx_HAL_Driver/Src/stm32f3xx_hal_rcc.c **** 
 691:Drivers/STM32F3xx_HAL_Driver/Src/stm32f3xx_hal_rcc.c ****   /* Check Null pointer */
 692:Drivers/STM32F3xx_HAL_Driver/Src/stm32f3xx_hal_rcc.c ****   if(RCC_ClkInitStruct == NULL)
 693:Drivers/STM32F3xx_HAL_Driver/Src/stm32f3xx_hal_rcc.c ****   {
 694:Drivers/STM32F3xx_HAL_Driver/Src/stm32f3xx_hal_rcc.c ****     return HAL_ERROR;
 695:Drivers/STM32F3xx_HAL_Driver/Src/stm32f3xx_hal_rcc.c ****   }
 696:Drivers/STM32F3xx_HAL_Driver/Src/stm32f3xx_hal_rcc.c **** 
 697:Drivers/STM32F3xx_HAL_Driver/Src/stm32f3xx_hal_rcc.c ****   /* Check the parameters */
 698:Drivers/STM32F3xx_HAL_Driver/Src/stm32f3xx_hal_rcc.c ****   assert_param(IS_RCC_CLOCKTYPE(RCC_ClkInitStruct->ClockType));
 699:Drivers/STM32F3xx_HAL_Driver/Src/stm32f3xx_hal_rcc.c ****   assert_param(IS_FLASH_LATENCY(FLatency));
 700:Drivers/STM32F3xx_HAL_Driver/Src/stm32f3xx_hal_rcc.c **** 
 701:Drivers/STM32F3xx_HAL_Driver/Src/stm32f3xx_hal_rcc.c ****   /* To correctly read data from FLASH memory, the number of wait states (LATENCY) 
 702:Drivers/STM32F3xx_HAL_Driver/Src/stm32f3xx_hal_rcc.c ****   must be correctly programmed according to the frequency of the CPU clock 
 703:Drivers/STM32F3xx_HAL_Driver/Src/stm32f3xx_hal_rcc.c ****     (HCLK) of the device. */
 704:Drivers/STM32F3xx_HAL_Driver/Src/stm32f3xx_hal_rcc.c **** 
 705:Drivers/STM32F3xx_HAL_Driver/Src/stm32f3xx_hal_rcc.c ****   /* Increasing the number of wait states because of higher CPU frequency */
 706:Drivers/STM32F3xx_HAL_Driver/Src/stm32f3xx_hal_rcc.c ****   if(FLatency > __HAL_FLASH_GET_LATENCY())
 707:Drivers/STM32F3xx_HAL_Driver/Src/stm32f3xx_hal_rcc.c ****   {    
 708:Drivers/STM32F3xx_HAL_Driver/Src/stm32f3xx_hal_rcc.c ****     /* Program the new number of wait states to the LATENCY bits in the FLASH_ACR register */
 709:Drivers/STM32F3xx_HAL_Driver/Src/stm32f3xx_hal_rcc.c ****     __HAL_FLASH_SET_LATENCY(FLatency);
 710:Drivers/STM32F3xx_HAL_Driver/Src/stm32f3xx_hal_rcc.c ****     
 711:Drivers/STM32F3xx_HAL_Driver/Src/stm32f3xx_hal_rcc.c ****     /* Check that the new number of wait states is taken into account to access the Flash
 712:Drivers/STM32F3xx_HAL_Driver/Src/stm32f3xx_hal_rcc.c ****     memory by reading the FLASH_ACR register */
 713:Drivers/STM32F3xx_HAL_Driver/Src/stm32f3xx_hal_rcc.c ****     if(__HAL_FLASH_GET_LATENCY() != FLatency)
 714:Drivers/STM32F3xx_HAL_Driver/Src/stm32f3xx_hal_rcc.c ****     {
 715:Drivers/STM32F3xx_HAL_Driver/Src/stm32f3xx_hal_rcc.c ****       return HAL_ERROR;
ARM GAS  /var/folders/md/lgcc8l7571l9vt9sx0g0zflw0000gn/T//ccUH8gjh.s 			page 63


 716:Drivers/STM32F3xx_HAL_Driver/Src/stm32f3xx_hal_rcc.c ****     }
 717:Drivers/STM32F3xx_HAL_Driver/Src/stm32f3xx_hal_rcc.c ****   }
 718:Drivers/STM32F3xx_HAL_Driver/Src/stm32f3xx_hal_rcc.c **** 
 719:Drivers/STM32F3xx_HAL_Driver/Src/stm32f3xx_hal_rcc.c ****   /*-------------------------- HCLK Configuration --------------------------*/
 720:Drivers/STM32F3xx_HAL_Driver/Src/stm32f3xx_hal_rcc.c ****   if(((RCC_ClkInitStruct->ClockType) & RCC_CLOCKTYPE_HCLK) == RCC_CLOCKTYPE_HCLK)
 721:Drivers/STM32F3xx_HAL_Driver/Src/stm32f3xx_hal_rcc.c ****   {
 722:Drivers/STM32F3xx_HAL_Driver/Src/stm32f3xx_hal_rcc.c ****     assert_param(IS_RCC_HCLK(RCC_ClkInitStruct->AHBCLKDivider));
 723:Drivers/STM32F3xx_HAL_Driver/Src/stm32f3xx_hal_rcc.c ****     MODIFY_REG(RCC->CFGR, RCC_CFGR_HPRE, RCC_ClkInitStruct->AHBCLKDivider);
 724:Drivers/STM32F3xx_HAL_Driver/Src/stm32f3xx_hal_rcc.c ****   }
 725:Drivers/STM32F3xx_HAL_Driver/Src/stm32f3xx_hal_rcc.c **** 
 726:Drivers/STM32F3xx_HAL_Driver/Src/stm32f3xx_hal_rcc.c ****   /*------------------------- SYSCLK Configuration ---------------------------*/ 
 727:Drivers/STM32F3xx_HAL_Driver/Src/stm32f3xx_hal_rcc.c ****   if(((RCC_ClkInitStruct->ClockType) & RCC_CLOCKTYPE_SYSCLK) == RCC_CLOCKTYPE_SYSCLK)
 728:Drivers/STM32F3xx_HAL_Driver/Src/stm32f3xx_hal_rcc.c ****   {    
 729:Drivers/STM32F3xx_HAL_Driver/Src/stm32f3xx_hal_rcc.c ****     assert_param(IS_RCC_SYSCLKSOURCE(RCC_ClkInitStruct->SYSCLKSource));
 730:Drivers/STM32F3xx_HAL_Driver/Src/stm32f3xx_hal_rcc.c ****     
 731:Drivers/STM32F3xx_HAL_Driver/Src/stm32f3xx_hal_rcc.c ****     /* HSE is selected as System Clock Source */
 732:Drivers/STM32F3xx_HAL_Driver/Src/stm32f3xx_hal_rcc.c ****     if(RCC_ClkInitStruct->SYSCLKSource == RCC_SYSCLKSOURCE_HSE)
 733:Drivers/STM32F3xx_HAL_Driver/Src/stm32f3xx_hal_rcc.c ****     {
 734:Drivers/STM32F3xx_HAL_Driver/Src/stm32f3xx_hal_rcc.c ****       /* Check the HSE ready flag */  
 735:Drivers/STM32F3xx_HAL_Driver/Src/stm32f3xx_hal_rcc.c ****       if(__HAL_RCC_GET_FLAG(RCC_FLAG_HSERDY) == RESET)
 736:Drivers/STM32F3xx_HAL_Driver/Src/stm32f3xx_hal_rcc.c ****       {
 737:Drivers/STM32F3xx_HAL_Driver/Src/stm32f3xx_hal_rcc.c ****         return HAL_ERROR;
 738:Drivers/STM32F3xx_HAL_Driver/Src/stm32f3xx_hal_rcc.c ****       }
 739:Drivers/STM32F3xx_HAL_Driver/Src/stm32f3xx_hal_rcc.c ****     }
 740:Drivers/STM32F3xx_HAL_Driver/Src/stm32f3xx_hal_rcc.c ****     /* PLL is selected as System Clock Source */
 741:Drivers/STM32F3xx_HAL_Driver/Src/stm32f3xx_hal_rcc.c ****     else if(RCC_ClkInitStruct->SYSCLKSource == RCC_SYSCLKSOURCE_PLLCLK)
 742:Drivers/STM32F3xx_HAL_Driver/Src/stm32f3xx_hal_rcc.c ****     {
 743:Drivers/STM32F3xx_HAL_Driver/Src/stm32f3xx_hal_rcc.c ****       /* Check the PLL ready flag */  
 744:Drivers/STM32F3xx_HAL_Driver/Src/stm32f3xx_hal_rcc.c ****       if(__HAL_RCC_GET_FLAG(RCC_FLAG_PLLRDY) == RESET)
 745:Drivers/STM32F3xx_HAL_Driver/Src/stm32f3xx_hal_rcc.c ****       {
 746:Drivers/STM32F3xx_HAL_Driver/Src/stm32f3xx_hal_rcc.c ****         return HAL_ERROR;
 747:Drivers/STM32F3xx_HAL_Driver/Src/stm32f3xx_hal_rcc.c ****       }
 748:Drivers/STM32F3xx_HAL_Driver/Src/stm32f3xx_hal_rcc.c ****     }
 749:Drivers/STM32F3xx_HAL_Driver/Src/stm32f3xx_hal_rcc.c ****     /* HSI is selected as System Clock Source */
 750:Drivers/STM32F3xx_HAL_Driver/Src/stm32f3xx_hal_rcc.c ****     else
 751:Drivers/STM32F3xx_HAL_Driver/Src/stm32f3xx_hal_rcc.c ****     {
 752:Drivers/STM32F3xx_HAL_Driver/Src/stm32f3xx_hal_rcc.c ****       /* Check the HSI ready flag */  
 753:Drivers/STM32F3xx_HAL_Driver/Src/stm32f3xx_hal_rcc.c ****       if(__HAL_RCC_GET_FLAG(RCC_FLAG_HSIRDY) == RESET)
 754:Drivers/STM32F3xx_HAL_Driver/Src/stm32f3xx_hal_rcc.c ****       {
 755:Drivers/STM32F3xx_HAL_Driver/Src/stm32f3xx_hal_rcc.c ****         return HAL_ERROR;
 756:Drivers/STM32F3xx_HAL_Driver/Src/stm32f3xx_hal_rcc.c ****       }
 757:Drivers/STM32F3xx_HAL_Driver/Src/stm32f3xx_hal_rcc.c ****     }
 758:Drivers/STM32F3xx_HAL_Driver/Src/stm32f3xx_hal_rcc.c **** 
 759:Drivers/STM32F3xx_HAL_Driver/Src/stm32f3xx_hal_rcc.c ****     __HAL_RCC_SYSCLK_CONFIG(RCC_ClkInitStruct->SYSCLKSource);
 760:Drivers/STM32F3xx_HAL_Driver/Src/stm32f3xx_hal_rcc.c **** 
 761:Drivers/STM32F3xx_HAL_Driver/Src/stm32f3xx_hal_rcc.c ****     /* Get Start Tick */
 762:Drivers/STM32F3xx_HAL_Driver/Src/stm32f3xx_hal_rcc.c ****     tickstart = HAL_GetTick();
 763:Drivers/STM32F3xx_HAL_Driver/Src/stm32f3xx_hal_rcc.c ****     
 764:Drivers/STM32F3xx_HAL_Driver/Src/stm32f3xx_hal_rcc.c ****     while (__HAL_RCC_GET_SYSCLK_SOURCE() != (RCC_ClkInitStruct->SYSCLKSource << RCC_CFGR_SWS_Pos))
 765:Drivers/STM32F3xx_HAL_Driver/Src/stm32f3xx_hal_rcc.c ****     {
 766:Drivers/STM32F3xx_HAL_Driver/Src/stm32f3xx_hal_rcc.c ****       if ((HAL_GetTick() - tickstart) > CLOCKSWITCH_TIMEOUT_VALUE)
 767:Drivers/STM32F3xx_HAL_Driver/Src/stm32f3xx_hal_rcc.c ****       {
 768:Drivers/STM32F3xx_HAL_Driver/Src/stm32f3xx_hal_rcc.c ****         return HAL_TIMEOUT;
 769:Drivers/STM32F3xx_HAL_Driver/Src/stm32f3xx_hal_rcc.c ****       }
 770:Drivers/STM32F3xx_HAL_Driver/Src/stm32f3xx_hal_rcc.c ****     }
 771:Drivers/STM32F3xx_HAL_Driver/Src/stm32f3xx_hal_rcc.c ****   }
 772:Drivers/STM32F3xx_HAL_Driver/Src/stm32f3xx_hal_rcc.c ****   /* Decreasing the number of wait states because of lower CPU frequency */
ARM GAS  /var/folders/md/lgcc8l7571l9vt9sx0g0zflw0000gn/T//ccUH8gjh.s 			page 64


 773:Drivers/STM32F3xx_HAL_Driver/Src/stm32f3xx_hal_rcc.c ****   if(FLatency < __HAL_FLASH_GET_LATENCY())
 774:Drivers/STM32F3xx_HAL_Driver/Src/stm32f3xx_hal_rcc.c ****   {    
 775:Drivers/STM32F3xx_HAL_Driver/Src/stm32f3xx_hal_rcc.c ****     /* Program the new number of wait states to the LATENCY bits in the FLASH_ACR register */
 776:Drivers/STM32F3xx_HAL_Driver/Src/stm32f3xx_hal_rcc.c ****     __HAL_FLASH_SET_LATENCY(FLatency);
 777:Drivers/STM32F3xx_HAL_Driver/Src/stm32f3xx_hal_rcc.c ****     
 778:Drivers/STM32F3xx_HAL_Driver/Src/stm32f3xx_hal_rcc.c ****     /* Check that the new number of wait states is taken into account to access the Flash
 779:Drivers/STM32F3xx_HAL_Driver/Src/stm32f3xx_hal_rcc.c ****     memory by reading the FLASH_ACR register */
 780:Drivers/STM32F3xx_HAL_Driver/Src/stm32f3xx_hal_rcc.c ****     if(__HAL_FLASH_GET_LATENCY() != FLatency)
 781:Drivers/STM32F3xx_HAL_Driver/Src/stm32f3xx_hal_rcc.c ****     {
 782:Drivers/STM32F3xx_HAL_Driver/Src/stm32f3xx_hal_rcc.c ****       return HAL_ERROR;
 783:Drivers/STM32F3xx_HAL_Driver/Src/stm32f3xx_hal_rcc.c ****     }
 784:Drivers/STM32F3xx_HAL_Driver/Src/stm32f3xx_hal_rcc.c ****   }    
 785:Drivers/STM32F3xx_HAL_Driver/Src/stm32f3xx_hal_rcc.c **** 
 786:Drivers/STM32F3xx_HAL_Driver/Src/stm32f3xx_hal_rcc.c ****   /*-------------------------- PCLK1 Configuration ---------------------------*/ 
 787:Drivers/STM32F3xx_HAL_Driver/Src/stm32f3xx_hal_rcc.c ****   if(((RCC_ClkInitStruct->ClockType) & RCC_CLOCKTYPE_PCLK1) == RCC_CLOCKTYPE_PCLK1)
 788:Drivers/STM32F3xx_HAL_Driver/Src/stm32f3xx_hal_rcc.c ****   {
 789:Drivers/STM32F3xx_HAL_Driver/Src/stm32f3xx_hal_rcc.c ****     assert_param(IS_RCC_PCLK(RCC_ClkInitStruct->APB1CLKDivider));
 790:Drivers/STM32F3xx_HAL_Driver/Src/stm32f3xx_hal_rcc.c ****     MODIFY_REG(RCC->CFGR, RCC_CFGR_PPRE1, RCC_ClkInitStruct->APB1CLKDivider);
 791:Drivers/STM32F3xx_HAL_Driver/Src/stm32f3xx_hal_rcc.c ****   }
 792:Drivers/STM32F3xx_HAL_Driver/Src/stm32f3xx_hal_rcc.c ****   
 793:Drivers/STM32F3xx_HAL_Driver/Src/stm32f3xx_hal_rcc.c ****   /*-------------------------- PCLK2 Configuration ---------------------------*/ 
 794:Drivers/STM32F3xx_HAL_Driver/Src/stm32f3xx_hal_rcc.c ****   if(((RCC_ClkInitStruct->ClockType) & RCC_CLOCKTYPE_PCLK2) == RCC_CLOCKTYPE_PCLK2)
 795:Drivers/STM32F3xx_HAL_Driver/Src/stm32f3xx_hal_rcc.c ****   {
 796:Drivers/STM32F3xx_HAL_Driver/Src/stm32f3xx_hal_rcc.c ****     assert_param(IS_RCC_PCLK(RCC_ClkInitStruct->APB2CLKDivider));
 797:Drivers/STM32F3xx_HAL_Driver/Src/stm32f3xx_hal_rcc.c ****     MODIFY_REG(RCC->CFGR, RCC_CFGR_PPRE2, ((RCC_ClkInitStruct->APB2CLKDivider) << 3U));
 798:Drivers/STM32F3xx_HAL_Driver/Src/stm32f3xx_hal_rcc.c ****   }
 799:Drivers/STM32F3xx_HAL_Driver/Src/stm32f3xx_hal_rcc.c ****  
 800:Drivers/STM32F3xx_HAL_Driver/Src/stm32f3xx_hal_rcc.c ****   /* Update the SystemCoreClock global variable */
 801:Drivers/STM32F3xx_HAL_Driver/Src/stm32f3xx_hal_rcc.c ****   SystemCoreClock = HAL_RCC_GetSysClockFreq() >> AHBPrescTable[(RCC->CFGR & RCC_CFGR_HPRE)>> RCC_CF
 802:Drivers/STM32F3xx_HAL_Driver/Src/stm32f3xx_hal_rcc.c **** 
 803:Drivers/STM32F3xx_HAL_Driver/Src/stm32f3xx_hal_rcc.c ****   /* Configure the source of time base considering new system clocks settings*/
 804:Drivers/STM32F3xx_HAL_Driver/Src/stm32f3xx_hal_rcc.c ****   HAL_InitTick (TICK_INT_PRIORITY);
 805:Drivers/STM32F3xx_HAL_Driver/Src/stm32f3xx_hal_rcc.c ****   
 806:Drivers/STM32F3xx_HAL_Driver/Src/stm32f3xx_hal_rcc.c ****   return HAL_OK;
 807:Drivers/STM32F3xx_HAL_Driver/Src/stm32f3xx_hal_rcc.c **** }
 808:Drivers/STM32F3xx_HAL_Driver/Src/stm32f3xx_hal_rcc.c **** 
 809:Drivers/STM32F3xx_HAL_Driver/Src/stm32f3xx_hal_rcc.c **** /**
 810:Drivers/STM32F3xx_HAL_Driver/Src/stm32f3xx_hal_rcc.c ****   * @}
 811:Drivers/STM32F3xx_HAL_Driver/Src/stm32f3xx_hal_rcc.c ****   */
 812:Drivers/STM32F3xx_HAL_Driver/Src/stm32f3xx_hal_rcc.c **** 
 813:Drivers/STM32F3xx_HAL_Driver/Src/stm32f3xx_hal_rcc.c **** /** @defgroup RCC_Exported_Functions_Group2 Peripheral Control functions
 814:Drivers/STM32F3xx_HAL_Driver/Src/stm32f3xx_hal_rcc.c ****   *  @brief   RCC clocks control functions
 815:Drivers/STM32F3xx_HAL_Driver/Src/stm32f3xx_hal_rcc.c ****   *
 816:Drivers/STM32F3xx_HAL_Driver/Src/stm32f3xx_hal_rcc.c ****   @verbatim   
 817:Drivers/STM32F3xx_HAL_Driver/Src/stm32f3xx_hal_rcc.c ****   ===============================================================================
 818:Drivers/STM32F3xx_HAL_Driver/Src/stm32f3xx_hal_rcc.c ****                   ##### Peripheral Control functions #####
 819:Drivers/STM32F3xx_HAL_Driver/Src/stm32f3xx_hal_rcc.c ****   ===============================================================================  
 820:Drivers/STM32F3xx_HAL_Driver/Src/stm32f3xx_hal_rcc.c ****     [..]
 821:Drivers/STM32F3xx_HAL_Driver/Src/stm32f3xx_hal_rcc.c ****     This subsection provides a set of functions allowing to control the RCC Clocks 
 822:Drivers/STM32F3xx_HAL_Driver/Src/stm32f3xx_hal_rcc.c ****     frequencies.
 823:Drivers/STM32F3xx_HAL_Driver/Src/stm32f3xx_hal_rcc.c **** 
 824:Drivers/STM32F3xx_HAL_Driver/Src/stm32f3xx_hal_rcc.c ****   @endverbatim
 825:Drivers/STM32F3xx_HAL_Driver/Src/stm32f3xx_hal_rcc.c ****   * @{
 826:Drivers/STM32F3xx_HAL_Driver/Src/stm32f3xx_hal_rcc.c ****   */
 827:Drivers/STM32F3xx_HAL_Driver/Src/stm32f3xx_hal_rcc.c **** 
 828:Drivers/STM32F3xx_HAL_Driver/Src/stm32f3xx_hal_rcc.c **** #if defined(RCC_CFGR_MCOPRE)
 829:Drivers/STM32F3xx_HAL_Driver/Src/stm32f3xx_hal_rcc.c **** /**
ARM GAS  /var/folders/md/lgcc8l7571l9vt9sx0g0zflw0000gn/T//ccUH8gjh.s 			page 65


 830:Drivers/STM32F3xx_HAL_Driver/Src/stm32f3xx_hal_rcc.c ****   * @brief  Selects the clock source to output on MCO pin.
 831:Drivers/STM32F3xx_HAL_Driver/Src/stm32f3xx_hal_rcc.c ****   * @note   MCO pin should be configured in alternate function mode.
 832:Drivers/STM32F3xx_HAL_Driver/Src/stm32f3xx_hal_rcc.c ****   * @param  RCC_MCOx specifies the output direction for the clock source.
 833:Drivers/STM32F3xx_HAL_Driver/Src/stm32f3xx_hal_rcc.c ****   *          This parameter can be one of the following values:
 834:Drivers/STM32F3xx_HAL_Driver/Src/stm32f3xx_hal_rcc.c ****   *            @arg @ref RCC_MCO1 Clock source to output on MCO1 pin(PA8).
 835:Drivers/STM32F3xx_HAL_Driver/Src/stm32f3xx_hal_rcc.c ****   * @param  RCC_MCOSource specifies the clock source to output.
 836:Drivers/STM32F3xx_HAL_Driver/Src/stm32f3xx_hal_rcc.c ****   *          This parameter can be one of the following values:
 837:Drivers/STM32F3xx_HAL_Driver/Src/stm32f3xx_hal_rcc.c ****   *            @arg @ref RCC_MCO1SOURCE_NOCLOCK     No clock selected
 838:Drivers/STM32F3xx_HAL_Driver/Src/stm32f3xx_hal_rcc.c ****   *            @arg @ref RCC_MCO1SOURCE_SYSCLK      System Clock selected as MCO clock
 839:Drivers/STM32F3xx_HAL_Driver/Src/stm32f3xx_hal_rcc.c ****   *            @arg @ref RCC_MCO1SOURCE_HSI         HSI selected as MCO clock
 840:Drivers/STM32F3xx_HAL_Driver/Src/stm32f3xx_hal_rcc.c ****   *            @arg @ref RCC_MCO1SOURCE_HSE         HSE selected as MCO clock
 841:Drivers/STM32F3xx_HAL_Driver/Src/stm32f3xx_hal_rcc.c ****   *            @arg @ref RCC_MCO1SOURCE_LSI         LSI selected as MCO clock
 842:Drivers/STM32F3xx_HAL_Driver/Src/stm32f3xx_hal_rcc.c ****   *            @arg @ref RCC_MCO1SOURCE_LSE         LSE selected as MCO clock
 843:Drivers/STM32F3xx_HAL_Driver/Src/stm32f3xx_hal_rcc.c ****   *            @arg @ref RCC_MCO1SOURCE_PLLCLK      PLLCLK selected as MCO clock
 844:Drivers/STM32F3xx_HAL_Driver/Src/stm32f3xx_hal_rcc.c ****   *            @arg @ref RCC_MCO1SOURCE_PLLCLK_DIV2 PLLCLK Divided by 2 selected as MCO clock
 845:Drivers/STM32F3xx_HAL_Driver/Src/stm32f3xx_hal_rcc.c ****   * @param  RCC_MCODiv specifies the MCO DIV.
 846:Drivers/STM32F3xx_HAL_Driver/Src/stm32f3xx_hal_rcc.c ****   *          This parameter can be one of the following values:
 847:Drivers/STM32F3xx_HAL_Driver/Src/stm32f3xx_hal_rcc.c ****   *            @arg @ref RCC_MCODIV_1   no division applied to MCO clock
 848:Drivers/STM32F3xx_HAL_Driver/Src/stm32f3xx_hal_rcc.c ****   *            @arg @ref RCC_MCODIV_2   division by 2 applied to MCO clock
 849:Drivers/STM32F3xx_HAL_Driver/Src/stm32f3xx_hal_rcc.c ****   *            @arg @ref RCC_MCODIV_4   division by 4 applied to MCO clock
 850:Drivers/STM32F3xx_HAL_Driver/Src/stm32f3xx_hal_rcc.c ****   *            @arg @ref RCC_MCODIV_8   division by 8 applied to MCO clock
 851:Drivers/STM32F3xx_HAL_Driver/Src/stm32f3xx_hal_rcc.c ****   *            @arg @ref RCC_MCODIV_16  division by 16 applied to MCO clock
 852:Drivers/STM32F3xx_HAL_Driver/Src/stm32f3xx_hal_rcc.c ****   *            @arg @ref RCC_MCODIV_32  division by 32 applied to MCO clock
 853:Drivers/STM32F3xx_HAL_Driver/Src/stm32f3xx_hal_rcc.c ****   *            @arg @ref RCC_MCODIV_64  division by 64 applied to MCO clock
 854:Drivers/STM32F3xx_HAL_Driver/Src/stm32f3xx_hal_rcc.c ****   *            @arg @ref RCC_MCODIV_128 division by 128 applied to MCO clock
 855:Drivers/STM32F3xx_HAL_Driver/Src/stm32f3xx_hal_rcc.c ****   * @retval None
 856:Drivers/STM32F3xx_HAL_Driver/Src/stm32f3xx_hal_rcc.c ****   */
 857:Drivers/STM32F3xx_HAL_Driver/Src/stm32f3xx_hal_rcc.c **** #else
 858:Drivers/STM32F3xx_HAL_Driver/Src/stm32f3xx_hal_rcc.c **** /**
 859:Drivers/STM32F3xx_HAL_Driver/Src/stm32f3xx_hal_rcc.c ****   * @brief  Selects the clock source to output on MCO pin.
 860:Drivers/STM32F3xx_HAL_Driver/Src/stm32f3xx_hal_rcc.c ****   * @note   MCO pin should be configured in alternate function mode.
 861:Drivers/STM32F3xx_HAL_Driver/Src/stm32f3xx_hal_rcc.c ****   * @param  RCC_MCOx specifies the output direction for the clock source.
 862:Drivers/STM32F3xx_HAL_Driver/Src/stm32f3xx_hal_rcc.c ****   *          This parameter can be one of the following values:
 863:Drivers/STM32F3xx_HAL_Driver/Src/stm32f3xx_hal_rcc.c ****   *            @arg @ref RCC_MCO1 Clock source to output on MCO1 pin(PA8).
 864:Drivers/STM32F3xx_HAL_Driver/Src/stm32f3xx_hal_rcc.c ****   * @param  RCC_MCOSource specifies the clock source to output.
 865:Drivers/STM32F3xx_HAL_Driver/Src/stm32f3xx_hal_rcc.c ****   *          This parameter can be one of the following values:
 866:Drivers/STM32F3xx_HAL_Driver/Src/stm32f3xx_hal_rcc.c ****   *            @arg @ref RCC_MCO1SOURCE_NOCLOCK     No clock selected as MCO clock
 867:Drivers/STM32F3xx_HAL_Driver/Src/stm32f3xx_hal_rcc.c ****   *            @arg @ref RCC_MCO1SOURCE_SYSCLK      System clock selected as MCO clock
 868:Drivers/STM32F3xx_HAL_Driver/Src/stm32f3xx_hal_rcc.c ****   *            @arg @ref RCC_MCO1SOURCE_HSI         HSI selected as MCO clock
 869:Drivers/STM32F3xx_HAL_Driver/Src/stm32f3xx_hal_rcc.c ****   *            @arg @ref RCC_MCO1SOURCE_HSE         HSE selected as MCO clock
 870:Drivers/STM32F3xx_HAL_Driver/Src/stm32f3xx_hal_rcc.c ****   *            @arg @ref RCC_MCO1SOURCE_LSI         LSI selected as MCO clock
 871:Drivers/STM32F3xx_HAL_Driver/Src/stm32f3xx_hal_rcc.c ****   *            @arg @ref RCC_MCO1SOURCE_LSE         LSE selected as MCO clock
 872:Drivers/STM32F3xx_HAL_Driver/Src/stm32f3xx_hal_rcc.c ****   *            @arg @ref RCC_MCO1SOURCE_PLLCLK_DIV2 PLLCLK Divided by 2 selected as MCO clock
 873:Drivers/STM32F3xx_HAL_Driver/Src/stm32f3xx_hal_rcc.c ****   * @param  RCC_MCODiv specifies the MCO DIV.
 874:Drivers/STM32F3xx_HAL_Driver/Src/stm32f3xx_hal_rcc.c ****   *          This parameter can be one of the following values:
 875:Drivers/STM32F3xx_HAL_Driver/Src/stm32f3xx_hal_rcc.c ****   *            @arg @ref RCC_MCODIV_1 no division applied to MCO clock
 876:Drivers/STM32F3xx_HAL_Driver/Src/stm32f3xx_hal_rcc.c ****   * @retval None
 877:Drivers/STM32F3xx_HAL_Driver/Src/stm32f3xx_hal_rcc.c ****   */
 878:Drivers/STM32F3xx_HAL_Driver/Src/stm32f3xx_hal_rcc.c **** #endif
 879:Drivers/STM32F3xx_HAL_Driver/Src/stm32f3xx_hal_rcc.c **** void HAL_RCC_MCOConfig(uint32_t RCC_MCOx, uint32_t RCC_MCOSource, uint32_t RCC_MCODiv)
 880:Drivers/STM32F3xx_HAL_Driver/Src/stm32f3xx_hal_rcc.c **** {
 1980              		.loc 1 880 1 is_stmt 1 view -0
 1981              		.cfi_startproc
 1982              		@ args = 0, pretend = 0, frame = 24
 1983              		@ frame_needed = 0, uses_anonymous_args = 0
 1984              		.loc 1 880 1 is_stmt 0 view .LVU563
 1985 0000 70B5     		push	{r4, r5, r6, lr}
ARM GAS  /var/folders/md/lgcc8l7571l9vt9sx0g0zflw0000gn/T//ccUH8gjh.s 			page 66


 1986              	.LCFI7:
 1987              		.cfi_def_cfa_offset 16
 1988              		.cfi_offset 4, -16
 1989              		.cfi_offset 5, -12
 1990              		.cfi_offset 6, -8
 1991              		.cfi_offset 14, -4
 1992 0002 86B0     		sub	sp, sp, #24
 1993              	.LCFI8:
 1994              		.cfi_def_cfa_offset 40
 1995 0004 0D46     		mov	r5, r1
 1996 0006 1646     		mov	r6, r2
 881:Drivers/STM32F3xx_HAL_Driver/Src/stm32f3xx_hal_rcc.c ****   GPIO_InitTypeDef gpio;
 1997              		.loc 1 881 3 is_stmt 1 view .LVU564
 882:Drivers/STM32F3xx_HAL_Driver/Src/stm32f3xx_hal_rcc.c **** 
 883:Drivers/STM32F3xx_HAL_Driver/Src/stm32f3xx_hal_rcc.c ****   /* Check the parameters */
 884:Drivers/STM32F3xx_HAL_Driver/Src/stm32f3xx_hal_rcc.c ****   assert_param(IS_RCC_MCO(RCC_MCOx));
 1998              		.loc 1 884 3 view .LVU565
 885:Drivers/STM32F3xx_HAL_Driver/Src/stm32f3xx_hal_rcc.c ****   assert_param(IS_RCC_MCODIV(RCC_MCODiv));
 1999              		.loc 1 885 3 view .LVU566
 886:Drivers/STM32F3xx_HAL_Driver/Src/stm32f3xx_hal_rcc.c ****   assert_param(IS_RCC_MCO1SOURCE(RCC_MCOSource));
 2000              		.loc 1 886 3 view .LVU567
 887:Drivers/STM32F3xx_HAL_Driver/Src/stm32f3xx_hal_rcc.c ****   
 888:Drivers/STM32F3xx_HAL_Driver/Src/stm32f3xx_hal_rcc.c ****   /* Configure the MCO1 pin in alternate function mode */
 889:Drivers/STM32F3xx_HAL_Driver/Src/stm32f3xx_hal_rcc.c ****   gpio.Mode      = GPIO_MODE_AF_PP;
 2001              		.loc 1 889 3 view .LVU568
 2002              		.loc 1 889 18 is_stmt 0 view .LVU569
 2003 0008 0223     		movs	r3, #2
 2004 000a 0293     		str	r3, [sp, #8]
 890:Drivers/STM32F3xx_HAL_Driver/Src/stm32f3xx_hal_rcc.c ****   gpio.Speed     = GPIO_SPEED_FREQ_HIGH;
 2005              		.loc 1 890 3 is_stmt 1 view .LVU570
 2006              		.loc 1 890 18 is_stmt 0 view .LVU571
 2007 000c 0323     		movs	r3, #3
 2008 000e 0493     		str	r3, [sp, #16]
 891:Drivers/STM32F3xx_HAL_Driver/Src/stm32f3xx_hal_rcc.c ****   gpio.Pull      = GPIO_NOPULL;
 2009              		.loc 1 891 3 is_stmt 1 view .LVU572
 2010              		.loc 1 891 18 is_stmt 0 view .LVU573
 2011 0010 0023     		movs	r3, #0
 2012 0012 0393     		str	r3, [sp, #12]
 892:Drivers/STM32F3xx_HAL_Driver/Src/stm32f3xx_hal_rcc.c ****   gpio.Pin       = MCO1_PIN;
 2013              		.loc 1 892 3 is_stmt 1 view .LVU574
 2014              		.loc 1 892 18 is_stmt 0 view .LVU575
 2015 0014 4FF48072 		mov	r2, #256
 2016              	.LVL149:
 2017              		.loc 1 892 18 view .LVU576
 2018 0018 0192     		str	r2, [sp, #4]
 893:Drivers/STM32F3xx_HAL_Driver/Src/stm32f3xx_hal_rcc.c ****   gpio.Alternate = GPIO_AF0_MCO;
 2019              		.loc 1 893 3 is_stmt 1 view .LVU577
 2020              		.loc 1 893 18 is_stmt 0 view .LVU578
 2021 001a 0593     		str	r3, [sp, #20]
 894:Drivers/STM32F3xx_HAL_Driver/Src/stm32f3xx_hal_rcc.c **** 
 895:Drivers/STM32F3xx_HAL_Driver/Src/stm32f3xx_hal_rcc.c ****   /* MCO1 Clock Enable */
 896:Drivers/STM32F3xx_HAL_Driver/Src/stm32f3xx_hal_rcc.c ****   MCO1_CLK_ENABLE();
 2022              		.loc 1 896 3 is_stmt 1 view .LVU579
 2023              	.LBB260:
 2024              		.loc 1 896 3 view .LVU580
 2025              		.loc 1 896 3 view .LVU581
 2026 001c 0B4C     		ldr	r4, .L135
ARM GAS  /var/folders/md/lgcc8l7571l9vt9sx0g0zflw0000gn/T//ccUH8gjh.s 			page 67


 2027 001e 6369     		ldr	r3, [r4, #20]
 2028 0020 43F40033 		orr	r3, r3, #131072
 2029 0024 6361     		str	r3, [r4, #20]
 2030              		.loc 1 896 3 view .LVU582
 2031 0026 6369     		ldr	r3, [r4, #20]
 2032 0028 03F40033 		and	r3, r3, #131072
 2033 002c 0093     		str	r3, [sp]
 2034              		.loc 1 896 3 view .LVU583
 2035 002e 009B     		ldr	r3, [sp]
 2036              	.LBE260:
 897:Drivers/STM32F3xx_HAL_Driver/Src/stm32f3xx_hal_rcc.c ****   
 898:Drivers/STM32F3xx_HAL_Driver/Src/stm32f3xx_hal_rcc.c ****   HAL_GPIO_Init(MCO1_GPIO_PORT, &gpio);
 2037              		.loc 1 898 3 view .LVU584
 2038 0030 01A9     		add	r1, sp, #4
 2039              	.LVL150:
 2040              		.loc 1 898 3 is_stmt 0 view .LVU585
 2041 0032 4FF09040 		mov	r0, #1207959552
 2042              	.LVL151:
 2043              		.loc 1 898 3 view .LVU586
 2044 0036 FFF7FEFF 		bl	HAL_GPIO_Init
 2045              	.LVL152:
 899:Drivers/STM32F3xx_HAL_Driver/Src/stm32f3xx_hal_rcc.c ****   
 900:Drivers/STM32F3xx_HAL_Driver/Src/stm32f3xx_hal_rcc.c ****   /* Configure the MCO clock source */
 901:Drivers/STM32F3xx_HAL_Driver/Src/stm32f3xx_hal_rcc.c ****   __HAL_RCC_MCO1_CONFIG(RCC_MCOSource, RCC_MCODiv);
 2046              		.loc 1 901 3 is_stmt 1 view .LVU587
 2047 003a 6268     		ldr	r2, [r4, #4]
 2048 003c 22F0EE42 		bic	r2, r2, #1996488704
 2049 0040 3543     		orrs	r5, r5, r6
 2050              	.LVL153:
 2051              		.loc 1 901 3 is_stmt 0 view .LVU588
 2052 0042 2A43     		orrs	r2, r2, r5
 2053 0044 6260     		str	r2, [r4, #4]
 902:Drivers/STM32F3xx_HAL_Driver/Src/stm32f3xx_hal_rcc.c **** }
 2054              		.loc 1 902 1 view .LVU589
 2055 0046 06B0     		add	sp, sp, #24
 2056              	.LCFI9:
 2057              		.cfi_def_cfa_offset 16
 2058              		@ sp needed
 2059 0048 70BD     		pop	{r4, r5, r6, pc}
 2060              	.LVL154:
 2061              	.L136:
 2062              		.loc 1 902 1 view .LVU590
 2063 004a 00BF     		.align	2
 2064              	.L135:
 2065 004c 00100240 		.word	1073876992
 2066              		.cfi_endproc
 2067              	.LFE129:
 2069              		.section	.text.HAL_RCC_EnableCSS,"ax",%progbits
 2070              		.align	1
 2071              		.global	HAL_RCC_EnableCSS
 2072              		.syntax unified
 2073              		.thumb
 2074              		.thumb_func
 2075              		.fpu fpv4-sp-d16
 2077              	HAL_RCC_EnableCSS:
 2078              	.LFB130:
 903:Drivers/STM32F3xx_HAL_Driver/Src/stm32f3xx_hal_rcc.c **** 
ARM GAS  /var/folders/md/lgcc8l7571l9vt9sx0g0zflw0000gn/T//ccUH8gjh.s 			page 68


 904:Drivers/STM32F3xx_HAL_Driver/Src/stm32f3xx_hal_rcc.c **** /**
 905:Drivers/STM32F3xx_HAL_Driver/Src/stm32f3xx_hal_rcc.c ****   * @brief  Enables the Clock Security System.
 906:Drivers/STM32F3xx_HAL_Driver/Src/stm32f3xx_hal_rcc.c ****   * @note   If a failure is detected on the HSE oscillator clock, this oscillator
 907:Drivers/STM32F3xx_HAL_Driver/Src/stm32f3xx_hal_rcc.c ****   *         is automatically disabled and an interrupt is generated to inform the
 908:Drivers/STM32F3xx_HAL_Driver/Src/stm32f3xx_hal_rcc.c ****   *         software about the failure (Clock Security System Interrupt, CSSI),
 909:Drivers/STM32F3xx_HAL_Driver/Src/stm32f3xx_hal_rcc.c ****   *         allowing the MCU to perform rescue operations. The CSSI is linked to 
 910:Drivers/STM32F3xx_HAL_Driver/Src/stm32f3xx_hal_rcc.c ****   *         the Cortex-M4 NMI (Non-Maskable Interrupt) exception vector.  
 911:Drivers/STM32F3xx_HAL_Driver/Src/stm32f3xx_hal_rcc.c ****   * @retval None
 912:Drivers/STM32F3xx_HAL_Driver/Src/stm32f3xx_hal_rcc.c ****   */
 913:Drivers/STM32F3xx_HAL_Driver/Src/stm32f3xx_hal_rcc.c **** void HAL_RCC_EnableCSS(void)
 914:Drivers/STM32F3xx_HAL_Driver/Src/stm32f3xx_hal_rcc.c **** {
 2079              		.loc 1 914 1 is_stmt 1 view -0
 2080              		.cfi_startproc
 2081              		@ args = 0, pretend = 0, frame = 0
 2082              		@ frame_needed = 0, uses_anonymous_args = 0
 2083              		@ link register save eliminated.
 915:Drivers/STM32F3xx_HAL_Driver/Src/stm32f3xx_hal_rcc.c ****   *(__IO uint32_t *) RCC_CR_CSSON_BB = (uint32_t)ENABLE;
 2084              		.loc 1 915 3 view .LVU592
 2085              	.LVL155:
 2086              	.LBB261:
 2087              	.LBI261:
 526:Drivers/CMSIS/Include/cmsis_gcc.h **** {
 2088              		.loc 2 526 57 view .LVU593
 2089              	.LBB262:
 528:Drivers/CMSIS/Include/cmsis_gcc.h **** 
 2090              		.loc 2 528 3 view .LVU594
 531:Drivers/CMSIS/Include/cmsis_gcc.h **** #else
 2091              		.loc 2 531 4 view .LVU595
 2092 0000 4FF40023 		mov	r3, #524288
 2093              		.syntax unified
 2094              	@ 531 "Drivers/CMSIS/Include/cmsis_gcc.h" 1
 2095 0004 93FAA3F3 		rbit r3, r3
 2096              	@ 0 "" 2
 2097              	.LVL156:
 2098              		.loc 2 544 3 view .LVU596
 2099              		.loc 2 544 3 is_stmt 0 view .LVU597
 2100              		.thumb
 2101              		.syntax unified
 2102              	.LBE262:
 2103              	.LBE261:
 2104              		.loc 1 915 22 view .LVU598
 2105 0008 B3FA83F3 		clz	r3, r3
 2106 000c 03F18453 		add	r3, r3, #276824064
 2107 0010 03F58413 		add	r3, r3, #1081344
 2108 0014 9B00     		lsls	r3, r3, #2
 2109              		.loc 1 915 38 view .LVU599
 2110 0016 0122     		movs	r2, #1
 2111 0018 1A60     		str	r2, [r3]
 916:Drivers/STM32F3xx_HAL_Driver/Src/stm32f3xx_hal_rcc.c **** }
 2112              		.loc 1 916 1 view .LVU600
 2113 001a 7047     		bx	lr
 2114              		.cfi_endproc
 2115              	.LFE130:
 2117              		.section	.text.HAL_RCC_DisableCSS,"ax",%progbits
 2118              		.align	1
 2119              		.global	HAL_RCC_DisableCSS
 2120              		.syntax unified
ARM GAS  /var/folders/md/lgcc8l7571l9vt9sx0g0zflw0000gn/T//ccUH8gjh.s 			page 69


 2121              		.thumb
 2122              		.thumb_func
 2123              		.fpu fpv4-sp-d16
 2125              	HAL_RCC_DisableCSS:
 2126              	.LFB131:
 917:Drivers/STM32F3xx_HAL_Driver/Src/stm32f3xx_hal_rcc.c **** 
 918:Drivers/STM32F3xx_HAL_Driver/Src/stm32f3xx_hal_rcc.c **** /**
 919:Drivers/STM32F3xx_HAL_Driver/Src/stm32f3xx_hal_rcc.c ****   * @brief  Disables the Clock Security System.
 920:Drivers/STM32F3xx_HAL_Driver/Src/stm32f3xx_hal_rcc.c ****   * @retval None
 921:Drivers/STM32F3xx_HAL_Driver/Src/stm32f3xx_hal_rcc.c ****   */
 922:Drivers/STM32F3xx_HAL_Driver/Src/stm32f3xx_hal_rcc.c **** void HAL_RCC_DisableCSS(void)
 923:Drivers/STM32F3xx_HAL_Driver/Src/stm32f3xx_hal_rcc.c **** {
 2127              		.loc 1 923 1 is_stmt 1 view -0
 2128              		.cfi_startproc
 2129              		@ args = 0, pretend = 0, frame = 0
 2130              		@ frame_needed = 0, uses_anonymous_args = 0
 2131              		@ link register save eliminated.
 924:Drivers/STM32F3xx_HAL_Driver/Src/stm32f3xx_hal_rcc.c ****   *(__IO uint32_t *) RCC_CR_CSSON_BB = (uint32_t)DISABLE;
 2132              		.loc 1 924 3 view .LVU602
 2133              	.LVL157:
 2134              	.LBB263:
 2135              	.LBI263:
 526:Drivers/CMSIS/Include/cmsis_gcc.h **** {
 2136              		.loc 2 526 57 view .LVU603
 2137              	.LBB264:
 528:Drivers/CMSIS/Include/cmsis_gcc.h **** 
 2138              		.loc 2 528 3 view .LVU604
 531:Drivers/CMSIS/Include/cmsis_gcc.h **** #else
 2139              		.loc 2 531 4 view .LVU605
 2140 0000 4FF40023 		mov	r3, #524288
 2141              		.syntax unified
 2142              	@ 531 "Drivers/CMSIS/Include/cmsis_gcc.h" 1
 2143 0004 93FAA3F3 		rbit r3, r3
 2144              	@ 0 "" 2
 2145              	.LVL158:
 2146              		.loc 2 544 3 view .LVU606
 2147              		.loc 2 544 3 is_stmt 0 view .LVU607
 2148              		.thumb
 2149              		.syntax unified
 2150              	.LBE264:
 2151              	.LBE263:
 2152              		.loc 1 924 22 view .LVU608
 2153 0008 B3FA83F3 		clz	r3, r3
 2154 000c 03F18453 		add	r3, r3, #276824064
 2155 0010 03F58413 		add	r3, r3, #1081344
 2156 0014 9B00     		lsls	r3, r3, #2
 2157              		.loc 1 924 38 view .LVU609
 2158 0016 0022     		movs	r2, #0
 2159 0018 1A60     		str	r2, [r3]
 925:Drivers/STM32F3xx_HAL_Driver/Src/stm32f3xx_hal_rcc.c **** }
 2160              		.loc 1 925 1 view .LVU610
 2161 001a 7047     		bx	lr
 2162              		.cfi_endproc
 2163              	.LFE131:
 2165              		.section	.text.HAL_RCC_GetSysClockFreq,"ax",%progbits
 2166              		.align	1
 2167              		.global	HAL_RCC_GetSysClockFreq
ARM GAS  /var/folders/md/lgcc8l7571l9vt9sx0g0zflw0000gn/T//ccUH8gjh.s 			page 70


 2168              		.syntax unified
 2169              		.thumb
 2170              		.thumb_func
 2171              		.fpu fpv4-sp-d16
 2173              	HAL_RCC_GetSysClockFreq:
 2174              	.LFB132:
 926:Drivers/STM32F3xx_HAL_Driver/Src/stm32f3xx_hal_rcc.c **** 
 927:Drivers/STM32F3xx_HAL_Driver/Src/stm32f3xx_hal_rcc.c **** /**
 928:Drivers/STM32F3xx_HAL_Driver/Src/stm32f3xx_hal_rcc.c ****   * @brief  Returns the SYSCLK frequency     
 929:Drivers/STM32F3xx_HAL_Driver/Src/stm32f3xx_hal_rcc.c ****   * @note   The system frequency computed by this function is not the real 
 930:Drivers/STM32F3xx_HAL_Driver/Src/stm32f3xx_hal_rcc.c ****   *         frequency in the chip. It is calculated based on the predefined 
 931:Drivers/STM32F3xx_HAL_Driver/Src/stm32f3xx_hal_rcc.c ****   *         constant and the selected clock source:
 932:Drivers/STM32F3xx_HAL_Driver/Src/stm32f3xx_hal_rcc.c ****   * @note     If SYSCLK source is HSI, function returns values based on HSI_VALUE(*)
 933:Drivers/STM32F3xx_HAL_Driver/Src/stm32f3xx_hal_rcc.c ****   * @note     If SYSCLK source is HSE, function returns a value based on HSE_VALUE
 934:Drivers/STM32F3xx_HAL_Driver/Src/stm32f3xx_hal_rcc.c ****   *           divided by PREDIV factor(**)
 935:Drivers/STM32F3xx_HAL_Driver/Src/stm32f3xx_hal_rcc.c ****   * @note     If SYSCLK source is PLL, function returns a value based on HSE_VALUE
 936:Drivers/STM32F3xx_HAL_Driver/Src/stm32f3xx_hal_rcc.c ****   *           divided by PREDIV factor(**) or HSI_VALUE(*) multiplied by the PLL factor.
 937:Drivers/STM32F3xx_HAL_Driver/Src/stm32f3xx_hal_rcc.c ****   * @note     (*) HSI_VALUE is a constant defined in stm32f3xx_hal_conf.h file (default value
 938:Drivers/STM32F3xx_HAL_Driver/Src/stm32f3xx_hal_rcc.c ****   *               8 MHz) but the real value may vary depending on the variations
 939:Drivers/STM32F3xx_HAL_Driver/Src/stm32f3xx_hal_rcc.c ****   *               in voltage and temperature.
 940:Drivers/STM32F3xx_HAL_Driver/Src/stm32f3xx_hal_rcc.c ****   * @note     (**) HSE_VALUE is a constant defined in stm32f3xx_hal_conf.h file (default value
 941:Drivers/STM32F3xx_HAL_Driver/Src/stm32f3xx_hal_rcc.c ****   *                8 MHz), user has to ensure that HSE_VALUE is same as the real
 942:Drivers/STM32F3xx_HAL_Driver/Src/stm32f3xx_hal_rcc.c ****   *                frequency of the crystal used. Otherwise, this function may
 943:Drivers/STM32F3xx_HAL_Driver/Src/stm32f3xx_hal_rcc.c ****   *                have wrong result.
 944:Drivers/STM32F3xx_HAL_Driver/Src/stm32f3xx_hal_rcc.c ****   *                  
 945:Drivers/STM32F3xx_HAL_Driver/Src/stm32f3xx_hal_rcc.c ****   * @note   The result of this function could be not correct when using fractional
 946:Drivers/STM32F3xx_HAL_Driver/Src/stm32f3xx_hal_rcc.c ****   *         value for HSE crystal.
 947:Drivers/STM32F3xx_HAL_Driver/Src/stm32f3xx_hal_rcc.c ****   *           
 948:Drivers/STM32F3xx_HAL_Driver/Src/stm32f3xx_hal_rcc.c ****   * @note   This function can be used by the user application to compute the 
 949:Drivers/STM32F3xx_HAL_Driver/Src/stm32f3xx_hal_rcc.c ****   *         baud-rate for the communication peripherals or configure other parameters.
 950:Drivers/STM32F3xx_HAL_Driver/Src/stm32f3xx_hal_rcc.c ****   *           
 951:Drivers/STM32F3xx_HAL_Driver/Src/stm32f3xx_hal_rcc.c ****   * @note   Each time SYSCLK changes, this function must be called to update the
 952:Drivers/STM32F3xx_HAL_Driver/Src/stm32f3xx_hal_rcc.c ****   *         right SYSCLK value. Otherwise, any configuration based on this function will be incorre
 953:Drivers/STM32F3xx_HAL_Driver/Src/stm32f3xx_hal_rcc.c ****   *         
 954:Drivers/STM32F3xx_HAL_Driver/Src/stm32f3xx_hal_rcc.c ****   * @retval SYSCLK frequency
 955:Drivers/STM32F3xx_HAL_Driver/Src/stm32f3xx_hal_rcc.c ****   */
 956:Drivers/STM32F3xx_HAL_Driver/Src/stm32f3xx_hal_rcc.c **** uint32_t HAL_RCC_GetSysClockFreq(void)
 957:Drivers/STM32F3xx_HAL_Driver/Src/stm32f3xx_hal_rcc.c **** {
 2175              		.loc 1 957 1 is_stmt 1 view -0
 2176              		.cfi_startproc
 2177              		@ args = 0, pretend = 0, frame = 0
 2178              		@ frame_needed = 0, uses_anonymous_args = 0
 2179              		@ link register save eliminated.
 958:Drivers/STM32F3xx_HAL_Driver/Src/stm32f3xx_hal_rcc.c ****   uint32_t tmpreg = 0U, prediv = 0U, pllclk = 0U, pllmul = 0U;
 2180              		.loc 1 958 3 view .LVU612
 2181              	.LVL159:
 959:Drivers/STM32F3xx_HAL_Driver/Src/stm32f3xx_hal_rcc.c ****   uint32_t sysclockfreq = 0U;
 2182              		.loc 1 959 3 view .LVU613
 960:Drivers/STM32F3xx_HAL_Driver/Src/stm32f3xx_hal_rcc.c ****   
 961:Drivers/STM32F3xx_HAL_Driver/Src/stm32f3xx_hal_rcc.c ****   tmpreg = RCC->CFGR;
 2183              		.loc 1 961 3 view .LVU614
 2184              		.loc 1 961 10 is_stmt 0 view .LVU615
 2185 0000 174B     		ldr	r3, .L144
 2186 0002 5B68     		ldr	r3, [r3, #4]
 2187              	.LVL160:
 962:Drivers/STM32F3xx_HAL_Driver/Src/stm32f3xx_hal_rcc.c ****   
 963:Drivers/STM32F3xx_HAL_Driver/Src/stm32f3xx_hal_rcc.c ****   /* Get SYSCLK source -------------------------------------------------------*/
ARM GAS  /var/folders/md/lgcc8l7571l9vt9sx0g0zflw0000gn/T//ccUH8gjh.s 			page 71


 964:Drivers/STM32F3xx_HAL_Driver/Src/stm32f3xx_hal_rcc.c ****   switch (tmpreg & RCC_CFGR_SWS)
 2188              		.loc 1 964 3 is_stmt 1 view .LVU616
 2189              		.loc 1 964 18 is_stmt 0 view .LVU617
 2190 0004 03F00C02 		and	r2, r3, #12
 2191              		.loc 1 964 3 view .LVU618
 2192 0008 082A     		cmp	r2, #8
 2193 000a 01D0     		beq	.L143
 965:Drivers/STM32F3xx_HAL_Driver/Src/stm32f3xx_hal_rcc.c ****   {
 966:Drivers/STM32F3xx_HAL_Driver/Src/stm32f3xx_hal_rcc.c ****     case RCC_SYSCLKSOURCE_STATUS_HSE:  /* HSE used as system clock */
 967:Drivers/STM32F3xx_HAL_Driver/Src/stm32f3xx_hal_rcc.c ****     {
 968:Drivers/STM32F3xx_HAL_Driver/Src/stm32f3xx_hal_rcc.c ****       sysclockfreq = HSE_VALUE;
 2194              		.loc 1 968 20 view .LVU619
 2195 000c 1548     		ldr	r0, .L144+4
 2196              	.LVL161:
 969:Drivers/STM32F3xx_HAL_Driver/Src/stm32f3xx_hal_rcc.c ****       break;
 970:Drivers/STM32F3xx_HAL_Driver/Src/stm32f3xx_hal_rcc.c ****     }
 971:Drivers/STM32F3xx_HAL_Driver/Src/stm32f3xx_hal_rcc.c ****     case RCC_SYSCLKSOURCE_STATUS_PLLCLK:  /* PLL used as system clock */
 972:Drivers/STM32F3xx_HAL_Driver/Src/stm32f3xx_hal_rcc.c ****     {
 973:Drivers/STM32F3xx_HAL_Driver/Src/stm32f3xx_hal_rcc.c ****       pllmul = aPLLMULFactorTable[(uint32_t)(tmpreg & RCC_CFGR_PLLMUL) >> POSITION_VAL(RCC_CFGR_PLL
 974:Drivers/STM32F3xx_HAL_Driver/Src/stm32f3xx_hal_rcc.c ****       prediv = aPredivFactorTable[(uint32_t)(RCC->CFGR2 & RCC_CFGR2_PREDIV) >> POSITION_VAL(RCC_CFG
 975:Drivers/STM32F3xx_HAL_Driver/Src/stm32f3xx_hal_rcc.c **** #if defined(RCC_CFGR_PLLSRC_HSI_DIV2)
 976:Drivers/STM32F3xx_HAL_Driver/Src/stm32f3xx_hal_rcc.c ****       if ((tmpreg & RCC_CFGR_PLLSRC) != RCC_PLLSOURCE_HSI)
 977:Drivers/STM32F3xx_HAL_Driver/Src/stm32f3xx_hal_rcc.c ****       {
 978:Drivers/STM32F3xx_HAL_Driver/Src/stm32f3xx_hal_rcc.c ****         /* HSE used as PLL clock source : PLLCLK = HSE/PREDIV * PLLMUL */
 979:Drivers/STM32F3xx_HAL_Driver/Src/stm32f3xx_hal_rcc.c ****         pllclk = (HSE_VALUE / prediv) * pllmul;
 980:Drivers/STM32F3xx_HAL_Driver/Src/stm32f3xx_hal_rcc.c ****       }
 981:Drivers/STM32F3xx_HAL_Driver/Src/stm32f3xx_hal_rcc.c ****       else
 982:Drivers/STM32F3xx_HAL_Driver/Src/stm32f3xx_hal_rcc.c ****       {
 983:Drivers/STM32F3xx_HAL_Driver/Src/stm32f3xx_hal_rcc.c ****         /* HSI used as PLL clock source : PLLCLK = HSI/2 * PLLMUL */
 984:Drivers/STM32F3xx_HAL_Driver/Src/stm32f3xx_hal_rcc.c ****         pllclk = (HSI_VALUE >> 1U) * pllmul;
 985:Drivers/STM32F3xx_HAL_Driver/Src/stm32f3xx_hal_rcc.c ****       }
 986:Drivers/STM32F3xx_HAL_Driver/Src/stm32f3xx_hal_rcc.c **** #else
 987:Drivers/STM32F3xx_HAL_Driver/Src/stm32f3xx_hal_rcc.c ****       if ((tmpreg & RCC_CFGR_PLLSRC_HSE_PREDIV) == RCC_CFGR_PLLSRC_HSE_PREDIV)
 988:Drivers/STM32F3xx_HAL_Driver/Src/stm32f3xx_hal_rcc.c ****       {
