ARM GAS  /var/folders/8c/gyvcglfx7f97kbqb2h83mm_r0000gn/T//ccxWfLdB.s 			page 1


   1              		.cpu cortex-m4
   2              		.eabi_attribute 27, 1
   3              		.eabi_attribute 28, 1
   4              		.eabi_attribute 20, 1
   5              		.eabi_attribute 21, 1
   6              		.eabi_attribute 23, 3
   7              		.eabi_attribute 24, 1
   8              		.eabi_attribute 25, 1
   9              		.eabi_attribute 26, 1
  10              		.eabi_attribute 30, 2
  11              		.eabi_attribute 34, 1
  12              		.eabi_attribute 18, 4
  13              		.file	"main.c"
  14              		.text
  15              	.Ltext0:
  16              		.cfi_sections	.debug_frame
  17              		.section	.text.SystemClock_Config,"ax",%progbits
  18              		.align	1
  19              		.p2align 2,,3
  20              		.global	SystemClock_Config
  21              		.arch armv7e-m
  22              		.syntax unified
  23              		.thumb
  24              		.thumb_func
  25              		.fpu fpv4-sp-d16
  27              	SystemClock_Config:
  28              	.LFB127:
  29              		.file 1 "Src/main.c"
   1:Src/main.c    **** 
   2:Src/main.c    **** /**
   3:Src/main.c    ****   ******************************************************************************
   4:Src/main.c    ****   * @file           : main.c
   5:Src/main.c    ****   * @brief          : Main program body
   6:Src/main.c    ****   ******************************************************************************
   7:Src/main.c    ****   ** This notice applies to any and all portions of this file
   8:Src/main.c    ****   * that are not between comment pairs USER CODE BEGIN and
   9:Src/main.c    ****   * USER CODE END. Other portions of this file, whether 
  10:Src/main.c    ****   * inserted by the user or by software development tools
  11:Src/main.c    ****   * are owned by their respective copyright owners.
  12:Src/main.c    ****   *
  13:Src/main.c    ****   * COPYRIGHT(c) 2018 STMicroelectronics
  14:Src/main.c    ****   *
  15:Src/main.c    ****   * Redistribution and use in source and binary forms, with or without modification,
  16:Src/main.c    ****   * are permitted provided that the following conditions are met:
  17:Src/main.c    ****   *   1. Redistributions of source code must retain the above copyright notice,
  18:Src/main.c    ****   *      this list of conditions and the following disclaimer.
  19:Src/main.c    ****   *   2. Redistributions in binary form must reproduce the above copyright notice,
  20:Src/main.c    ****   *      this list of conditions and the following disclaimer in the documentation
  21:Src/main.c    ****   *      and/or other materials provided with the distribution.
  22:Src/main.c    ****   *   3. Neither the name of STMicroelectronics nor the names of its contributors
  23:Src/main.c    ****   *      may be used to endorse or promote products derived from this software
  24:Src/main.c    ****   *      without specific prior written permission.
  25:Src/main.c    ****   *
  26:Src/main.c    ****   * THIS SOFTWARE IS PROVIDED BY THE COPYRIGHT HOLDERS AND CONTRIBUTORS "AS IS"
  27:Src/main.c    ****   * AND ANY EXPRESS OR IMPLIED WARRANTIES, INCLUDING, BUT NOT LIMITED TO, THE
  28:Src/main.c    ****   * IMPLIED WARRANTIES OF MERCHANTABILITY AND FITNESS FOR A PARTICULAR PURPOSE ARE
  29:Src/main.c    ****   * DISCLAIMED. IN NO EVENT SHALL THE COPYRIGHT HOLDER OR CONTRIBUTORS BE LIABLE
ARM GAS  /var/folders/8c/gyvcglfx7f97kbqb2h83mm_r0000gn/T//ccxWfLdB.s 			page 2


  30:Src/main.c    ****   * FOR ANY DIRECT, INDIRECT, INCIDENTAL, SPECIAL, EXEMPLARY, OR CONSEQUENTIAL
  31:Src/main.c    ****   * DAMAGES (INCLUDING, BUT NOT LIMITED TO, PROCUREMENT OF SUBSTITUTE GOODS OR
  32:Src/main.c    ****   * SERVICES; LOSS OF USE, DATA, OR PROFITS; OR BUSINESS INTERRUPTION) HOWEVER
  33:Src/main.c    ****   * CAUSED AND ON ANY THEORY OF LIABILITY, WHETHER IN CONTRACT, STRICT LIABILITY,
  34:Src/main.c    ****   * OR TORT (INCLUDING NEGLIGENCE OR OTHERWISE) ARISING IN ANY WAY OUT OF THE USE
  35:Src/main.c    ****   * OF THIS SOFTWARE, EVEN IF ADVISED OF THE POSSIBILITY OF SUCH DAMAGE.
  36:Src/main.c    ****   *
  37:Src/main.c    ****   ******************************************************************************
  38:Src/main.c    ****   */
  39:Src/main.c    **** /* Includes ------------------------------------------------------------------*/
  40:Src/main.c    **** #include "main.h"
  41:Src/main.c    **** #include "stm32f3xx_hal.h"
  42:Src/main.c    **** #include "adc.h"
  43:Src/main.c    **** #include "dma.h"
  44:Src/main.c    **** #include "opamp.h"
  45:Src/main.c    **** #include "tim.h"
  46:Src/main.c    **** #include "usart.h"
  47:Src/main.c    **** #include "gpio.h"
  48:Src/main.c    **** 
  49:Src/main.c    **** /* USER CODE BEGIN Includes */
  50:Src/main.c    **** 
  51:Src/main.c    **** #include <string.h>
  52:Src/main.c    **** #include <math.h>
  53:Src/main.c    **** #include "power.h"
  54:Src/main.c    **** #include "ds18b20.h"
  55:Src/main.c    **** 
  56:Src/main.c    **** /* USER CODE END Includes */
  57:Src/main.c    **** 
  58:Src/main.c    **** /* Private variables ---------------------------------------------------------*/
  59:Src/main.c    **** 
  60:Src/main.c    **** /* USER CODE BEGIN PV */
  61:Src/main.c    **** /* Private variables ---------------------------------------------------------*/
  62:Src/main.c    **** 
  63:Src/main.c    **** char log_buffer[MAX_LOG_BUFFER];
  64:Src/main.c    **** static uint32_t last_readout;
  65:Src/main.c    **** 
  66:Src/main.c    **** /* USER CODE END PV */
  67:Src/main.c    **** 
  68:Src/main.c    **** /* Private function prototypes -----------------------------------------------*/
  69:Src/main.c    **** void SystemClock_Config(void);
  70:Src/main.c    **** 
  71:Src/main.c    **** /* USER CODE BEGIN PFP */
  72:Src/main.c    **** /* Private function prototypes -----------------------------------------------*/
  73:Src/main.c    **** 
  74:Src/main.c    **** /* USER CODE END PFP */
  75:Src/main.c    **** 
  76:Src/main.c    **** /* USER CODE BEGIN 0 */
  77:Src/main.c    **** 
  78:Src/main.c    **** 
  79:Src/main.c    **** /* USER CODE END 0 */
  80:Src/main.c    **** 
  81:Src/main.c    **** /**
  82:Src/main.c    ****   * @brief  The application entry point.
  83:Src/main.c    ****   *
  84:Src/main.c    ****   * @retval None
  85:Src/main.c    ****   */
  86:Src/main.c    **** int main(void)
ARM GAS  /var/folders/8c/gyvcglfx7f97kbqb2h83mm_r0000gn/T//ccxWfLdB.s 			page 3


  87:Src/main.c    **** {
  88:Src/main.c    ****   /* USER CODE BEGIN 1 */
  89:Src/main.c    **** 
  90:Src/main.c    ****   /* USER CODE END 1 */
  91:Src/main.c    **** 
  92:Src/main.c    ****   /* MCU Configuration----------------------------------------------------------*/
  93:Src/main.c    **** 
  94:Src/main.c    ****   /* Reset of all peripherals, Initializes the Flash interface and the Systick. */
  95:Src/main.c    ****   HAL_Init();
  96:Src/main.c    **** 
  97:Src/main.c    ****   /* USER CODE BEGIN Init */
  98:Src/main.c    **** 
  99:Src/main.c    ****   /* USER CODE END Init */
 100:Src/main.c    **** 
 101:Src/main.c    ****   /* Configure the system clock */
 102:Src/main.c    ****   SystemClock_Config();
 103:Src/main.c    **** 
 104:Src/main.c    ****   /* USER CODE BEGIN SysInit */
 105:Src/main.c    **** 
 106:Src/main.c    ****   /* USER CODE END SysInit */
 107:Src/main.c    **** 
 108:Src/main.c    ****   /* Initialize all configured peripherals */
 109:Src/main.c    ****   MX_GPIO_Init();
 110:Src/main.c    ****   MX_DMA_Init();
 111:Src/main.c    ****   MX_USART2_UART_Init();
 112:Src/main.c    ****   MX_ADC1_Init();
 113:Src/main.c    ****   MX_ADC3_Init();
 114:Src/main.c    ****   MX_ADC4_Init();
 115:Src/main.c    ****   MX_TIM8_Init();
 116:Src/main.c    ****   MX_USART1_UART_Init();
 117:Src/main.c    ****   MX_USART3_UART_Init();
 118:Src/main.c    ****   MX_OPAMP2_Init();
 119:Src/main.c    ****   MX_ADC2_Init();
 120:Src/main.c    ****   /* USER CODE BEGIN 2 */
 121:Src/main.c    **** 
 122:Src/main.c    ****   HAL_GPIO_WritePin(LD2_GPIO_Port, LD2_Pin, GPIO_PIN_SET);      // LED on
 123:Src/main.c    ****   snprintf(log_buffer, sizeof(log_buffer),
 124:Src/main.c    **** 	   "\nemonTxshield Demo 1.13\n");
 125:Src/main.c    ****   debug_printf(log_buffer);
 126:Src/main.c    ****   snprintf(log_buffer, sizeof(log_buffer),
 127:Src/main.c    **** 	   "Patch PA0 through to PB14 for V!!!\n");
 128:Src/main.c    ****   debug_printf(log_buffer);
 129:Src/main.c    **** 
 130:Src/main.c    ****   init_opamps();
 131:Src/main.c    ****   init_ds18b20s();
 132:Src/main.c    ****   calibrate_ADCs();
 133:Src/main.c    ****   init_power();                    // Starts ADCs running
 134:Src/main.c    **** 
 135:Src/main.c    ****   /* USER CODE END 2 */
 136:Src/main.c    **** 
 137:Src/main.c    ****   /* Infinite loop */
 138:Src/main.c    ****   /* USER CODE BEGIN WHILE */
 139:Src/main.c    **** 
 140:Src/main.c    ****   while (1)
 141:Src/main.c    ****   {
 142:Src/main.c    **** 
 143:Src/main.c    ****     process_power_data();
ARM GAS  /var/folders/8c/gyvcglfx7f97kbqb2h83mm_r0000gn/T//ccxWfLdB.s 			page 4


 144:Src/main.c    ****     process_ds18b20s();
 145:Src/main.c    **** 
 146:Src/main.c    ****     //
 147:Src/main.c    ****     // Dump out the environmental stats every 10 seconds
 148:Src/main.c    ****     //
 149:Src/main.c    ****     if (HAL_GetTick() - last_readout > 10000) {
 150:Src/main.c    ****  
 151:Src/main.c    ****       snprintf(log_buffer, sizeof(log_buffer), "CPU temp: %dC, Vdda: %dmV\n",
 152:Src/main.c    **** 	       get_cpu_temp(), get_vdd());
 153:Src/main.c    ****       debug_printf(log_buffer);
 154:Src/main.c    ****       last_readout = HAL_GetTick();
 155:Src/main.c    ****     }
 156:Src/main.c    **** 
 157:Src/main.c    ****   /* USER CODE END WHILE */
 158:Src/main.c    **** 
 159:Src/main.c    ****   /* USER CODE BEGIN 3 */
 160:Src/main.c    **** 
 161:Src/main.c    ****   }
 162:Src/main.c    ****   /* USER CODE END 3 */
 163:Src/main.c    **** 
 164:Src/main.c    **** }
 165:Src/main.c    **** 
 166:Src/main.c    **** /**
 167:Src/main.c    ****   * @brief System Clock Configuration
 168:Src/main.c    ****   * @retval None
 169:Src/main.c    ****   */
 170:Src/main.c    **** void SystemClock_Config(void)
 171:Src/main.c    **** {
  30              		.loc 1 171 1 view -0
  31              		.cfi_startproc
  32              		@ args = 0, pretend = 0, frame = 152
  33              		@ frame_needed = 0, uses_anonymous_args = 0
 172:Src/main.c    **** 
 173:Src/main.c    ****   RCC_OscInitTypeDef RCC_OscInitStruct;
  34              		.loc 1 173 3 view .LVU1
 174:Src/main.c    ****   RCC_ClkInitTypeDef RCC_ClkInitStruct;
  35              		.loc 1 174 3 view .LVU2
 175:Src/main.c    ****   RCC_PeriphCLKInitTypeDef PeriphClkInit;
  36              		.loc 1 175 3 view .LVU3
 176:Src/main.c    **** 
 177:Src/main.c    ****     /**Initializes the CPU, AHB and APB busses clocks 
 178:Src/main.c    ****     */
 179:Src/main.c    ****   RCC_OscInitStruct.OscillatorType = RCC_OSCILLATORTYPE_HSI;
  37              		.loc 1 179 3 view .LVU4
 171:Src/main.c    **** 
  38              		.loc 1 171 1 is_stmt 0 view .LVU5
  39 0000 30B5     		push	{r4, r5, lr}
  40              	.LCFI0:
  41              		.cfi_def_cfa_offset 12
  42              		.cfi_offset 4, -12
  43              		.cfi_offset 5, -8
  44              		.cfi_offset 14, -4
  45 0002 A7B0     		sub	sp, sp, #156
  46              	.LCFI1:
  47              		.cfi_def_cfa_offset 168
 180:Src/main.c    ****   RCC_OscInitStruct.HSIState = RCC_HSI_ON;
  48              		.loc 1 180 30 view .LVU6
ARM GAS  /var/folders/8c/gyvcglfx7f97kbqb2h83mm_r0000gn/T//ccxWfLdB.s 			page 5


  49 0004 0120     		movs	r0, #1
 179:Src/main.c    ****   RCC_OscInitStruct.HSIState = RCC_HSI_ON;
  50              		.loc 1 179 36 view .LVU7
  51 0006 0224     		movs	r4, #2
 181:Src/main.c    ****   RCC_OscInitStruct.HSICalibrationValue = 16;
  52              		.loc 1 181 41 view .LVU8
  53 0008 1025     		movs	r5, #16
 182:Src/main.c    ****   RCC_OscInitStruct.PLL.PLLState = RCC_PLL_ON;
 183:Src/main.c    ****   RCC_OscInitStruct.PLL.PLLSource = RCC_PLLSOURCE_HSI;
  54              		.loc 1 183 35 view .LVU9
  55 000a 4FF40041 		mov	r1, #32768
 184:Src/main.c    ****   RCC_OscInitStruct.PLL.PLLMUL = RCC_PLL_MUL9;
  56              		.loc 1 184 32 view .LVU10
  57 000e 4FF4E012 		mov	r2, #1835008
 185:Src/main.c    ****   RCC_OscInitStruct.PLL.PREDIV = RCC_PREDIV_DIV1;
  58              		.loc 1 185 32 view .LVU11
  59 0012 0023     		movs	r3, #0
 180:Src/main.c    ****   RCC_OscInitStruct.HSICalibrationValue = 16;
  60              		.loc 1 180 30 view .LVU12
  61 0014 0990     		str	r0, [sp, #36]
 186:Src/main.c    ****   if (HAL_RCC_OscConfig(&RCC_OscInitStruct) != HAL_OK)
  62              		.loc 1 186 7 view .LVU13
  63 0016 06A8     		add	r0, sp, #24
 179:Src/main.c    ****   RCC_OscInitStruct.HSIState = RCC_HSI_ON;
  64              		.loc 1 179 36 view .LVU14
  65 0018 0694     		str	r4, [sp, #24]
 180:Src/main.c    ****   RCC_OscInitStruct.HSICalibrationValue = 16;
  66              		.loc 1 180 3 is_stmt 1 view .LVU15
 181:Src/main.c    ****   RCC_OscInitStruct.PLL.PLLState = RCC_PLL_ON;
  67              		.loc 1 181 3 view .LVU16
 182:Src/main.c    ****   RCC_OscInitStruct.PLL.PLLSource = RCC_PLLSOURCE_HSI;
  68              		.loc 1 182 34 is_stmt 0 view .LVU17
  69 001a 0C94     		str	r4, [sp, #48]
 181:Src/main.c    ****   RCC_OscInitStruct.PLL.PLLState = RCC_PLL_ON;
  70              		.loc 1 181 41 view .LVU18
  71 001c 0A95     		str	r5, [sp, #40]
 182:Src/main.c    ****   RCC_OscInitStruct.PLL.PLLSource = RCC_PLLSOURCE_HSI;
  72              		.loc 1 182 3 is_stmt 1 view .LVU19
 183:Src/main.c    ****   RCC_OscInitStruct.PLL.PLLMUL = RCC_PLL_MUL9;
  73              		.loc 1 183 3 view .LVU20
 184:Src/main.c    ****   RCC_OscInitStruct.PLL.PREDIV = RCC_PREDIV_DIV1;
  74              		.loc 1 184 32 is_stmt 0 view .LVU21
  75 001e CDE90D12 		strd	r1, r2, [sp, #52]
 185:Src/main.c    ****   if (HAL_RCC_OscConfig(&RCC_OscInitStruct) != HAL_OK)
  76              		.loc 1 185 3 is_stmt 1 view .LVU22
 185:Src/main.c    ****   if (HAL_RCC_OscConfig(&RCC_OscInitStruct) != HAL_OK)
  77              		.loc 1 185 32 is_stmt 0 view .LVU23
  78 0022 0F93     		str	r3, [sp, #60]
  79              		.loc 1 186 3 is_stmt 1 view .LVU24
  80              		.loc 1 186 7 is_stmt 0 view .LVU25
  81 0024 FFF7FEFF 		bl	HAL_RCC_OscConfig
  82              	.LVL0:
  83              		.loc 1 186 6 view .LVU26
  84 0028 00B1     		cbz	r0, .L2
  85              	.L3:
 187:Src/main.c    ****   {
 188:Src/main.c    ****     _Error_Handler(__FILE__, __LINE__);
ARM GAS  /var/folders/8c/gyvcglfx7f97kbqb2h83mm_r0000gn/T//ccxWfLdB.s 			page 6


 189:Src/main.c    ****   }
 190:Src/main.c    **** 
 191:Src/main.c    ****     /**Initializes the CPU, AHB and APB busses clocks 
 192:Src/main.c    ****     */
 193:Src/main.c    ****   RCC_ClkInitStruct.ClockType = RCC_CLOCKTYPE_HCLK|RCC_CLOCKTYPE_SYSCLK
 194:Src/main.c    ****                               |RCC_CLOCKTYPE_PCLK1|RCC_CLOCKTYPE_PCLK2;
 195:Src/main.c    ****   RCC_ClkInitStruct.SYSCLKSource = RCC_SYSCLKSOURCE_PLLCLK;
 196:Src/main.c    ****   RCC_ClkInitStruct.AHBCLKDivider = RCC_SYSCLK_DIV1;
 197:Src/main.c    ****   RCC_ClkInitStruct.APB1CLKDivider = RCC_HCLK_DIV2;
 198:Src/main.c    ****   RCC_ClkInitStruct.APB2CLKDivider = RCC_HCLK_DIV1;
 199:Src/main.c    **** 
 200:Src/main.c    ****   if (HAL_RCC_ClockConfig(&RCC_ClkInitStruct, FLASH_LATENCY_2) != HAL_OK)
 201:Src/main.c    ****   {
 202:Src/main.c    ****     _Error_Handler(__FILE__, __LINE__);
 203:Src/main.c    ****   }
 204:Src/main.c    **** 
 205:Src/main.c    ****   PeriphClkInit.PeriphClockSelection = RCC_PERIPHCLK_USART1|RCC_PERIPHCLK_USART2
 206:Src/main.c    ****                               |RCC_PERIPHCLK_USART3|RCC_PERIPHCLK_TIM8;
 207:Src/main.c    ****   PeriphClkInit.Usart1ClockSelection = RCC_USART1CLKSOURCE_PCLK2;
 208:Src/main.c    ****   PeriphClkInit.Usart2ClockSelection = RCC_USART2CLKSOURCE_PCLK1;
 209:Src/main.c    ****   PeriphClkInit.Usart3ClockSelection = RCC_USART3CLKSOURCE_PCLK1;
 210:Src/main.c    ****   PeriphClkInit.Tim8ClockSelection = RCC_TIM8CLK_HCLK;
 211:Src/main.c    ****   if (HAL_RCCEx_PeriphCLKConfig(&PeriphClkInit) != HAL_OK)
 212:Src/main.c    ****   {
 213:Src/main.c    ****     _Error_Handler(__FILE__, __LINE__);
 214:Src/main.c    ****   }
 215:Src/main.c    **** 
 216:Src/main.c    ****     /**Configure the Systick interrupt time 
 217:Src/main.c    ****     */
 218:Src/main.c    ****   HAL_SYSTICK_Config(HAL_RCC_GetHCLKFreq()/1000);
 219:Src/main.c    **** 
 220:Src/main.c    ****     /**Configure the Systick 
 221:Src/main.c    ****     */
 222:Src/main.c    ****   HAL_SYSTICK_CLKSourceConfig(SYSTICK_CLKSOURCE_HCLK);
 223:Src/main.c    **** 
 224:Src/main.c    ****   /* SysTick_IRQn interrupt configuration */
 225:Src/main.c    ****   HAL_NVIC_SetPriority(SysTick_IRQn, 0, 0);
 226:Src/main.c    **** }
 227:Src/main.c    **** 
 228:Src/main.c    **** /* USER CODE BEGIN 4 */
 229:Src/main.c    **** 
 230:Src/main.c    **** /* USER CODE END 4 */
 231:Src/main.c    **** 
 232:Src/main.c    **** /**
 233:Src/main.c    ****   * @brief  This function is executed in case of error occurrence.
 234:Src/main.c    ****   * @param  file: The file name as string.
 235:Src/main.c    ****   * @param  line: The line in file as a number.
 236:Src/main.c    ****   * @retval None
 237:Src/main.c    ****   */
 238:Src/main.c    **** void _Error_Handler(char *file, int line)
 239:Src/main.c    **** {
 240:Src/main.c    ****   /* USER CODE BEGIN Error_Handler_Debug */
 241:Src/main.c    ****   /* User can add his own implementation to report the HAL error return state */
 242:Src/main.c    ****   while(1)
  86              		.loc 1 242 3 is_stmt 1 view .LVU27
 243:Src/main.c    ****   {
 244:Src/main.c    ****   }
ARM GAS  /var/folders/8c/gyvcglfx7f97kbqb2h83mm_r0000gn/T//ccxWfLdB.s 			page 7


  87              		.loc 1 244 3 view .LVU28
 242:Src/main.c    ****   {
  88              		.loc 1 242 3 view .LVU29
  89              		.loc 1 244 3 view .LVU30
  90 002a FEE7     		b	.L3
  91              	.L2:
 193:Src/main.c    ****                               |RCC_CLOCKTYPE_PCLK1|RCC_CLOCKTYPE_PCLK2;
  92              		.loc 1 193 3 view .LVU31
  93 002c 0346     		mov	r3, r0
 197:Src/main.c    ****   RCC_ClkInitStruct.APB2CLKDivider = RCC_HCLK_DIV1;
  94              		.loc 1 197 36 is_stmt 0 view .LVU32
  95 002e 4FF48062 		mov	r2, #1024
 200:Src/main.c    ****   {
  96              		.loc 1 200 7 view .LVU33
  97 0032 2146     		mov	r1, r4
 193:Src/main.c    ****                               |RCC_CLOCKTYPE_PCLK1|RCC_CLOCKTYPE_PCLK2;
  98              		.loc 1 193 31 view .LVU34
  99 0034 0F25     		movs	r5, #15
 200:Src/main.c    ****   {
 100              		.loc 1 200 7 view .LVU35
 101 0036 01A8     		add	r0, sp, #4
 196:Src/main.c    ****   RCC_ClkInitStruct.APB1CLKDivider = RCC_HCLK_DIV2;
 102              		.loc 1 196 35 view .LVU36
 103 0038 CDE90243 		strd	r4, r3, [sp, #8]
 198:Src/main.c    **** 
 104              		.loc 1 198 36 view .LVU37
 105 003c 0593     		str	r3, [sp, #20]
 193:Src/main.c    ****                               |RCC_CLOCKTYPE_PCLK1|RCC_CLOCKTYPE_PCLK2;
 106              		.loc 1 193 31 view .LVU38
 107 003e 0195     		str	r5, [sp, #4]
 195:Src/main.c    ****   RCC_ClkInitStruct.AHBCLKDivider = RCC_SYSCLK_DIV1;
 108              		.loc 1 195 3 is_stmt 1 view .LVU39
 196:Src/main.c    ****   RCC_ClkInitStruct.APB1CLKDivider = RCC_HCLK_DIV2;
 109              		.loc 1 196 3 view .LVU40
 197:Src/main.c    ****   RCC_ClkInitStruct.APB2CLKDivider = RCC_HCLK_DIV1;
 110              		.loc 1 197 3 view .LVU41
 197:Src/main.c    ****   RCC_ClkInitStruct.APB2CLKDivider = RCC_HCLK_DIV1;
 111              		.loc 1 197 36 is_stmt 0 view .LVU42
 112 0040 0492     		str	r2, [sp, #16]
 198:Src/main.c    **** 
 113              		.loc 1 198 3 is_stmt 1 view .LVU43
 200:Src/main.c    ****   {
 114              		.loc 1 200 3 view .LVU44
 200:Src/main.c    ****   {
 115              		.loc 1 200 7 is_stmt 0 view .LVU45
 116 0042 FFF7FEFF 		bl	HAL_RCC_ClockConfig
 117              	.LVL1:
 200:Src/main.c    ****   {
 118              		.loc 1 200 6 view .LVU46
 119 0046 0346     		mov	r3, r0
 120 0048 00B1     		cbz	r0, .L4
 121              	.L5:
 242:Src/main.c    ****   {
 122              		.loc 1 242 3 is_stmt 1 view .LVU47
 123              		.loc 1 244 3 view .LVU48
 242:Src/main.c    ****   {
 124              		.loc 1 242 3 view .LVU49
ARM GAS  /var/folders/8c/gyvcglfx7f97kbqb2h83mm_r0000gn/T//ccxWfLdB.s 			page 8


 125              		.loc 1 244 3 view .LVU50
 126 004a FEE7     		b	.L5
 127              	.L4:
 205:Src/main.c    ****                               |RCC_PERIPHCLK_USART3|RCC_PERIPHCLK_TIM8;
 128              		.loc 1 205 3 view .LVU51
 205:Src/main.c    ****                               |RCC_PERIPHCLK_USART3|RCC_PERIPHCLK_TIM8;
 129              		.loc 1 205 38 is_stmt 0 view .LVU52
 130 004c 42F20702 		movw	r2, #8199
 211:Src/main.c    ****   {
 131              		.loc 1 211 7 view .LVU53
 132 0050 10A8     		add	r0, sp, #64
 208:Src/main.c    ****   PeriphClkInit.Usart3ClockSelection = RCC_USART3CLKSOURCE_PCLK1;
 133              		.loc 1 208 38 view .LVU54
 134 0052 CDE91233 		strd	r3, r3, [sp, #72]
 209:Src/main.c    ****   PeriphClkInit.Tim8ClockSelection = RCC_TIM8CLK_HCLK;
 135              		.loc 1 209 38 view .LVU55
 136 0056 1493     		str	r3, [sp, #80]
 210:Src/main.c    ****   if (HAL_RCCEx_PeriphCLKConfig(&PeriphClkInit) != HAL_OK)
 137              		.loc 1 210 36 view .LVU56
 138 0058 2093     		str	r3, [sp, #128]
 205:Src/main.c    ****                               |RCC_PERIPHCLK_USART3|RCC_PERIPHCLK_TIM8;
 139              		.loc 1 205 38 view .LVU57
 140 005a 1092     		str	r2, [sp, #64]
 207:Src/main.c    ****   PeriphClkInit.Usart2ClockSelection = RCC_USART2CLKSOURCE_PCLK1;
 141              		.loc 1 207 3 is_stmt 1 view .LVU58
 208:Src/main.c    ****   PeriphClkInit.Usart3ClockSelection = RCC_USART3CLKSOURCE_PCLK1;
 142              		.loc 1 208 3 view .LVU59
 209:Src/main.c    ****   PeriphClkInit.Tim8ClockSelection = RCC_TIM8CLK_HCLK;
 143              		.loc 1 209 3 view .LVU60
 210:Src/main.c    ****   if (HAL_RCCEx_PeriphCLKConfig(&PeriphClkInit) != HAL_OK)
 144              		.loc 1 210 3 view .LVU61
 211:Src/main.c    ****   {
 145              		.loc 1 211 3 view .LVU62
 211:Src/main.c    ****   {
 146              		.loc 1 211 7 is_stmt 0 view .LVU63
 147 005c FFF7FEFF 		bl	HAL_RCCEx_PeriphCLKConfig
 148              	.LVL2:
 211:Src/main.c    ****   {
 149              		.loc 1 211 6 view .LVU64
 150 0060 0446     		mov	r4, r0
 151 0062 00B1     		cbz	r0, .L6
 152              	.L7:
 242:Src/main.c    ****   {
 153              		.loc 1 242 3 is_stmt 1 view .LVU65
 154              		.loc 1 244 3 view .LVU66
 242:Src/main.c    ****   {
 155              		.loc 1 242 3 view .LVU67
 156              		.loc 1 244 3 view .LVU68
 157 0064 FEE7     		b	.L7
 158              	.L6:
 159              	.LBB10:
 160              	.LBI10:
 170:Src/main.c    **** {
 161              		.loc 1 170 6 view .LVU69
 162              	.LBB11:
 218:Src/main.c    **** 
 163              		.loc 1 218 3 view .LVU70
ARM GAS  /var/folders/8c/gyvcglfx7f97kbqb2h83mm_r0000gn/T//ccxWfLdB.s 			page 9


 218:Src/main.c    **** 
 164              		.loc 1 218 22 is_stmt 0 view .LVU71
 165 0066 FFF7FEFF 		bl	HAL_RCC_GetHCLKFreq
 166              	.LVL3:
 218:Src/main.c    **** 
 167              		.loc 1 218 3 view .LVU72
 168 006a 084B     		ldr	r3, .L10
 169 006c A3FB0030 		umull	r3, r0, r3, r0
 170 0070 8009     		lsrs	r0, r0, #6
 171 0072 FFF7FEFF 		bl	HAL_SYSTICK_Config
 172              	.LVL4:
 222:Src/main.c    **** 
 173              		.loc 1 222 3 is_stmt 1 view .LVU73
 174 0076 0420     		movs	r0, #4
 175 0078 FFF7FEFF 		bl	HAL_SYSTICK_CLKSourceConfig
 176              	.LVL5:
 225:Src/main.c    **** }
 177              		.loc 1 225 3 view .LVU74
 178 007c 2246     		mov	r2, r4
 179 007e 2146     		mov	r1, r4
 180 0080 4FF0FF30 		mov	r0, #-1
 181 0084 FFF7FEFF 		bl	HAL_NVIC_SetPriority
 182              	.LVL6:
 183              	.LBE11:
 184              	.LBE10:
 226:Src/main.c    **** 
 185              		.loc 1 226 1 is_stmt 0 view .LVU75
 186 0088 27B0     		add	sp, sp, #156
 187              	.LCFI2:
 188              		.cfi_def_cfa_offset 12
 189              		@ sp needed
 190 008a 30BD     		pop	{r4, r5, pc}
 191              	.L11:
 192              		.align	2
 193              	.L10:
 194 008c D34D6210 		.word	274877907
 195              		.cfi_endproc
 196              	.LFE127:
 198              		.section	.text.startup.main,"ax",%progbits
 199              		.align	1
 200              		.p2align 2,,3
 201              		.global	main
 202              		.syntax unified
 203              		.thumb
 204              		.thumb_func
 205              		.fpu fpv4-sp-d16
 207              	main:
 208              	.LFB126:
  87:Src/main.c    ****   /* USER CODE BEGIN 1 */
 209              		.loc 1 87 1 is_stmt 1 view -0
 210              		.cfi_startproc
 211              		@ Volatile: function does not return.
 212              		@ args = 0, pretend = 0, frame = 0
 213              		@ frame_needed = 0, uses_anonymous_args = 0
  95:Src/main.c    **** 
 214              		.loc 1 95 3 view .LVU77
  87:Src/main.c    ****   /* USER CODE BEGIN 1 */
ARM GAS  /var/folders/8c/gyvcglfx7f97kbqb2h83mm_r0000gn/T//ccxWfLdB.s 			page 10


 215              		.loc 1 87 1 is_stmt 0 view .LVU78
 216 0000 80B5     		push	{r7, lr}
 217              	.LCFI3:
 218              		.cfi_def_cfa_offset 8
 219              		.cfi_offset 7, -8
 220              		.cfi_offset 14, -4
 123:Src/main.c    **** 	   "\nemonTxshield Demo 1.13\n");
 221              		.loc 1 123 3 view .LVU79
 222 0002 374D     		ldr	r5, .L19
 223 0004 374C     		ldr	r4, .L19+4
 126:Src/main.c    **** 	   "Patch PA0 through to PB14 for V!!!\n");
 224              		.loc 1 126 3 view .LVU80
 225 0006 384E     		ldr	r6, .L19+8
  87:Src/main.c    ****   /* USER CODE BEGIN 1 */
 226              		.loc 1 87 1 view .LVU81
 227 0008 82B0     		sub	sp, sp, #8
 228              	.LCFI4:
 229              		.cfi_def_cfa_offset 16
  95:Src/main.c    **** 
 230              		.loc 1 95 3 view .LVU82
 231 000a FFF7FEFF 		bl	HAL_Init
 232              	.LVL7:
 102:Src/main.c    **** 
 233              		.loc 1 102 3 is_stmt 1 view .LVU83
 234 000e FFF7FEFF 		bl	SystemClock_Config
 235              	.LVL8:
 109:Src/main.c    ****   MX_DMA_Init();
 236              		.loc 1 109 3 view .LVU84
 237 0012 FFF7FEFF 		bl	MX_GPIO_Init
 238              	.LVL9:
 110:Src/main.c    ****   MX_USART2_UART_Init();
 239              		.loc 1 110 3 view .LVU85
 240 0016 FFF7FEFF 		bl	MX_DMA_Init
 241              	.LVL10:
 111:Src/main.c    ****   MX_ADC1_Init();
 242              		.loc 1 111 3 view .LVU86
 243 001a FFF7FEFF 		bl	MX_USART2_UART_Init
 244              	.LVL11:
 112:Src/main.c    ****   MX_ADC3_Init();
 245              		.loc 1 112 3 view .LVU87
 246 001e FFF7FEFF 		bl	MX_ADC1_Init
 247              	.LVL12:
 113:Src/main.c    ****   MX_ADC4_Init();
 248              		.loc 1 113 3 view .LVU88
 249 0022 FFF7FEFF 		bl	MX_ADC3_Init
 250              	.LVL13:
 114:Src/main.c    ****   MX_TIM8_Init();
 251              		.loc 1 114 3 view .LVU89
 252 0026 FFF7FEFF 		bl	MX_ADC4_Init
 253              	.LVL14:
 115:Src/main.c    ****   MX_USART1_UART_Init();
 254              		.loc 1 115 3 view .LVU90
 255 002a FFF7FEFF 		bl	MX_TIM8_Init
 256              	.LVL15:
 116:Src/main.c    ****   MX_USART3_UART_Init();
 257              		.loc 1 116 3 view .LVU91
 258 002e FFF7FEFF 		bl	MX_USART1_UART_Init
ARM GAS  /var/folders/8c/gyvcglfx7f97kbqb2h83mm_r0000gn/T//ccxWfLdB.s 			page 11


 259              	.LVL16:
 117:Src/main.c    ****   MX_OPAMP2_Init();
 260              		.loc 1 117 3 view .LVU92
 261 0032 FFF7FEFF 		bl	MX_USART3_UART_Init
 262              	.LVL17:
 118:Src/main.c    ****   MX_ADC2_Init();
 263              		.loc 1 118 3 view .LVU93
 264 0036 FFF7FEFF 		bl	MX_OPAMP2_Init
 265              	.LVL18:
 119:Src/main.c    ****   /* USER CODE BEGIN 2 */
 266              		.loc 1 119 3 view .LVU94
 267 003a FFF7FEFF 		bl	MX_ADC2_Init
 268              	.LVL19:
 122:Src/main.c    ****   snprintf(log_buffer, sizeof(log_buffer),
 269              		.loc 1 122 3 view .LVU95
 270 003e 0122     		movs	r2, #1
 271 0040 2021     		movs	r1, #32
 272 0042 4FF09040 		mov	r0, #1207959552
 273 0046 FFF7FEFF 		bl	HAL_GPIO_WritePin
 274              	.LVL20:
 123:Src/main.c    **** 	   "\nemonTxshield Demo 1.13\n");
 275              		.loc 1 123 3 view .LVU96
 276 004a 0FCD     		ldmia	r5!, {r0, r1, r2, r3}
 277 004c 2060     		str	r0, [r4]	@ unaligned
 278 004e 6160     		str	r1, [r4, #4]	@ unaligned
 279 0050 03CD     		ldmia	r5!, {r0, r1}
 280 0052 2D78     		ldrb	r5, [r5]	@ zero_extendqisi2
 281 0054 2061     		str	r0, [r4, #16]	@ unaligned
 282 0056 A260     		str	r2, [r4, #8]	@ unaligned
 125:Src/main.c    ****   snprintf(log_buffer, sizeof(log_buffer),
 283              		.loc 1 125 3 is_stmt 0 view .LVU97
 284 0058 2046     		mov	r0, r4
 123:Src/main.c    **** 	   "\nemonTxshield Demo 1.13\n");
 285              		.loc 1 123 3 view .LVU98
 286 005a E360     		str	r3, [r4, #12]	@ unaligned
 287 005c 2576     		strb	r5, [r4, #24]
 125:Src/main.c    ****   snprintf(log_buffer, sizeof(log_buffer),
 288              		.loc 1 125 3 is_stmt 1 view .LVU99
 123:Src/main.c    **** 	   "\nemonTxshield Demo 1.13\n");
 289              		.loc 1 123 3 is_stmt 0 view .LVU100
 290 005e 6161     		str	r1, [r4, #20]	@ unaligned
 125:Src/main.c    ****   snprintf(log_buffer, sizeof(log_buffer),
 291              		.loc 1 125 3 view .LVU101
 292 0060 FFF7FEFF 		bl	debug_printf
 293              	.LVL21:
 126:Src/main.c    **** 	   "Patch PA0 through to PB14 for V!!!\n");
 294              		.loc 1 126 3 is_stmt 1 view .LVU102
 295 0064 06F12007 		add	r7, r6, #32
 296              	.L13:
 297 0068 3546     		mov	r5, r6
 298 006a 0FCD     		ldmia	r5!, {r0, r1, r2, r3}
 299 006c BD42     		cmp	r5, r7
 300 006e 2060     		str	r0, [r4]	@ unaligned
 301 0070 6160     		str	r1, [r4, #4]	@ unaligned
 302 0072 A260     		str	r2, [r4, #8]	@ unaligned
 303 0074 E360     		str	r3, [r4, #12]	@ unaligned
 304 0076 2E46     		mov	r6, r5
ARM GAS  /var/folders/8c/gyvcglfx7f97kbqb2h83mm_r0000gn/T//ccxWfLdB.s 			page 12


 305 0078 04F11004 		add	r4, r4, #16
 306 007c F4D1     		bne	.L13
 307 007e 2868     		ldr	r0, [r5]
 308 0080 2060     		str	r0, [r4]	@ unaligned
 128:Src/main.c    **** 
 309              		.loc 1 128 3 view .LVU103
 310 0082 1848     		ldr	r0, .L19+4
 311 0084 194C     		ldr	r4, .L19+12
 151:Src/main.c    **** 	       get_cpu_temp(), get_vdd());
 312              		.loc 1 151 7 is_stmt 0 view .LVU104
 313 0086 DFF86880 		ldr	r8, .L19+16
 314 008a 0646     		mov	r6, r0
 128:Src/main.c    **** 
 315              		.loc 1 128 3 view .LVU105
 316 008c FFF7FEFF 		bl	debug_printf
 317              	.LVL22:
 130:Src/main.c    ****   init_ds18b20s();
 318              		.loc 1 130 3 is_stmt 1 view .LVU106
 319 0090 FFF7FEFF 		bl	init_opamps
 320              	.LVL23:
 131:Src/main.c    ****   calibrate_ADCs();
 321              		.loc 1 131 3 view .LVU107
 322 0094 FFF7FEFF 		bl	init_ds18b20s
 323              	.LVL24:
 132:Src/main.c    ****   init_power();                    // Starts ADCs running
 324              		.loc 1 132 3 view .LVU108
 325 0098 FFF7FEFF 		bl	calibrate_ADCs
 326              	.LVL25:
 133:Src/main.c    **** 
 327              		.loc 1 133 3 view .LVU109
 328 009c FFF7FEFF 		bl	init_power
 329              	.LVL26:
 149:Src/main.c    ****  
 330              		.loc 1 149 8 is_stmt 0 view .LVU110
 331 00a0 42F21075 		movw	r5, #10000
 332              	.L14:
 140:Src/main.c    ****   {
 333              		.loc 1 140 3 is_stmt 1 view .LVU111
 143:Src/main.c    ****     process_ds18b20s();
 334              		.loc 1 143 5 view .LVU112
 335 00a4 FFF7FEFF 		bl	process_power_data
 336              	.LVL27:
 144:Src/main.c    **** 
 337              		.loc 1 144 5 view .LVU113
 338 00a8 FFF7FEFF 		bl	process_ds18b20s
 339              	.LVL28:
 149:Src/main.c    ****  
 340              		.loc 1 149 5 view .LVU114
 149:Src/main.c    ****  
 341              		.loc 1 149 9 is_stmt 0 view .LVU115
 342 00ac FFF7FEFF 		bl	HAL_GetTick
 343              	.LVL29:
 149:Src/main.c    ****  
 344              		.loc 1 149 23 view .LVU116
 345 00b0 2368     		ldr	r3, [r4]
 346 00b2 C01A     		subs	r0, r0, r3
 149:Src/main.c    ****  
ARM GAS  /var/folders/8c/gyvcglfx7f97kbqb2h83mm_r0000gn/T//ccxWfLdB.s 			page 13


 347              		.loc 1 149 8 view .LVU117
 348 00b4 A842     		cmp	r0, r5
 349 00b6 F5D9     		bls	.L14
 151:Src/main.c    **** 	       get_cpu_temp(), get_vdd());
 350              		.loc 1 151 7 is_stmt 1 view .LVU118
 351 00b8 FFF7FEFF 		bl	get_cpu_temp
 352              	.LVL30:
 353 00bc 0746     		mov	r7, r0
 354 00be FFF7FEFF 		bl	get_vdd
 355              	.LVL31:
 356 00c2 3B46     		mov	r3, r7
 357 00c4 4246     		mov	r2, r8
 358 00c6 C821     		movs	r1, #200
 359 00c8 0090     		str	r0, [sp]
 360 00ca 3046     		mov	r0, r6
 361 00cc FFF7FEFF 		bl	snprintf
 362              	.LVL32:
 153:Src/main.c    ****       last_readout = HAL_GetTick();
 363              		.loc 1 153 7 view .LVU119
 364 00d0 3046     		mov	r0, r6
 365 00d2 FFF7FEFF 		bl	debug_printf
 366              	.LVL33:
 154:Src/main.c    ****     }
 367              		.loc 1 154 7 view .LVU120
 154:Src/main.c    ****     }
 368              		.loc 1 154 22 is_stmt 0 view .LVU121
 369 00d6 FFF7FEFF 		bl	HAL_GetTick
 370              	.LVL34:
 154:Src/main.c    ****     }
 371              		.loc 1 154 20 view .LVU122
 372 00da 2060     		str	r0, [r4]
 373 00dc E2E7     		b	.L14
 374              	.L20:
 375 00de 00BF     		.align	2
 376              	.L19:
 377 00e0 00000000 		.word	.LC0
 378 00e4 00000000 		.word	log_buffer
 379 00e8 1C000000 		.word	.LC1
 380 00ec 00000000 		.word	.LANCHOR0
 381 00f0 40000000 		.word	.LC2
 382              		.cfi_endproc
 383              	.LFE126:
 385              		.section	.text._Error_Handler,"ax",%progbits
 386              		.align	1
 387              		.p2align 2,,3
 388              		.global	_Error_Handler
 389              		.syntax unified
 390              		.thumb
 391              		.thumb_func
 392              		.fpu fpv4-sp-d16
 394              	_Error_Handler:
 395              	.LFB128:
 239:Src/main.c    ****   /* USER CODE BEGIN Error_Handler_Debug */
 396              		.loc 1 239 1 is_stmt 1 view -0
 397              		.cfi_startproc
 398              		@ Volatile: function does not return.
 399              		@ args = 0, pretend = 0, frame = 0
ARM GAS  /var/folders/8c/gyvcglfx7f97kbqb2h83mm_r0000gn/T//ccxWfLdB.s 			page 14


 400              		@ frame_needed = 0, uses_anonymous_args = 0
 401              		@ link register save eliminated.
 402              	.LVL35:
 403              	.L22:
 242:Src/main.c    ****   {
 404              		.loc 1 242 3 discriminator 1 view .LVU124
 405              		.loc 1 244 3 discriminator 1 view .LVU125
 406 0000 FEE7     		b	.L22
 407              		.cfi_endproc
 408              	.LFE128:
 410              		.comm	log_buffer,200,4
 411 0002 00BF     		.section	.bss.last_readout,"aw",%nobits
 412              		.align	2
 413              		.set	.LANCHOR0,. + 0
 416              	last_readout:
 417 0000 00000000 		.space	4
 418              		.section	.rodata.main.str1.4,"aMS",%progbits,1
 419              		.align	2
 420              	.LC0:
 421 0000 0A656D6F 		.ascii	"\012emonTxshield Demo 1.13\012\000"
 421      6E547873 
 421      6869656C 
 421      64204465 
 421      6D6F2031 
 422 0019 000000   		.space	3
 423              	.LC1:
 424 001c 50617463 		.ascii	"Patch PA0 through to PB14 for V!!!\012\000"
 424      68205041 
 424      30207468 
 424      726F7567 
 424      6820746F 
 425              	.LC2:
 426 0040 43505520 		.ascii	"CPU temp: %dC, Vdda: %dmV\012\000"
 426      74656D70 
 426      3A202564 
 426      432C2056 
 426      6464613A 
 427              		.text
 428              	.Letext0:
 429              		.file 2 "/usr/local/gcc-arm-none-eabi-8-2018-q4-major/arm-none-eabi/include/machine/_default_types
 430              		.file 3 "/usr/local/gcc-arm-none-eabi-8-2018-q4-major/arm-none-eabi/include/sys/_stdint.h"
 431              		.file 4 "/usr/local/gcc-arm-none-eabi-8-2018-q4-major/arm-none-eabi/include/sys/lock.h"
 432              		.file 5 "/usr/local/gcc-arm-none-eabi-8-2018-q4-major/arm-none-eabi/include/sys/_types.h"
 433              		.file 6 "/usr/local/gcc-arm-none-eabi-8-2018-q4-major/lib/gcc/arm-none-eabi/8.2.1/include/stddef.h
 434              		.file 7 "/usr/local/gcc-arm-none-eabi-8-2018-q4-major/arm-none-eabi/include/sys/reent.h"
 435              		.file 8 "/usr/local/gcc-arm-none-eabi-8-2018-q4-major/arm-none-eabi/include/stdlib.h"
 436              		.file 9 "Drivers/CMSIS/Include/core_cm4.h"
 437              		.file 10 "Drivers/CMSIS/Device/ST/STM32F3xx/Include/system_stm32f3xx.h"
 438              		.file 11 "Drivers/CMSIS/Device/ST/STM32F3xx/Include/stm32f303xe.h"
 439              		.file 12 "Drivers/STM32F3xx_HAL_Driver/Inc/stm32f3xx_hal_def.h"
 440              		.file 13 "Drivers/STM32F3xx_HAL_Driver/Inc/stm32f3xx_hal_rcc.h"
 441              		.file 14 "Drivers/STM32F3xx_HAL_Driver/Inc/stm32f3xx_hal_rcc_ex.h"
 442              		.file 15 "Drivers/STM32F3xx_HAL_Driver/Inc/stm32f3xx_hal_gpio.h"
 443              		.file 16 "Drivers/STM32F3xx_HAL_Driver/Inc/stm32f3xx_hal_dma.h"
 444              		.file 17 "Drivers/STM32F3xx_HAL_Driver/Inc/stm32f3xx_hal_adc_ex.h"
 445              		.file 18 "Drivers/STM32F3xx_HAL_Driver/Inc/stm32f3xx_hal_adc.h"
 446              		.file 19 "Drivers/STM32F3xx_HAL_Driver/Inc/stm32f3xx_hal_opamp.h"
ARM GAS  /var/folders/8c/gyvcglfx7f97kbqb2h83mm_r0000gn/T//ccxWfLdB.s 			page 15


 447              		.file 20 "Drivers/STM32F3xx_HAL_Driver/Inc/stm32f3xx_hal_tim.h"
 448              		.file 21 "Drivers/STM32F3xx_HAL_Driver/Inc/stm32f3xx_hal_uart.h"
 449              		.file 22 "Inc/adc.h"
 450              		.file 23 "Inc/opamp.h"
 451              		.file 24 "Inc/tim.h"
 452              		.file 25 "Inc/usart.h"
 453              		.file 26 "/usr/local/gcc-arm-none-eabi-8-2018-q4-major/arm-none-eabi/include/math.h"
 454              		.file 27 "Drivers/STM32F3xx_HAL_Driver/Inc/stm32f3xx_hal.h"
 455              		.file 28 "Inc/gpio.h"
 456              		.file 29 "Inc/dma.h"
 457              		.file 30 "Inc/ds18b20.h"
 458              		.file 31 "Inc/power.h"
 459              		.file 32 "/usr/local/gcc-arm-none-eabi-8-2018-q4-major/arm-none-eabi/include/stdio.h"
 460              		.file 33 "Drivers/STM32F3xx_HAL_Driver/Inc/stm32f3xx_hal_cortex.h"
ARM GAS  /var/folders/8c/gyvcglfx7f97kbqb2h83mm_r0000gn/T//ccxWfLdB.s 			page 16

