ARM GAS  /var/folders/8c/gyvcglfx7f97kbqb2h83mm_r0000gn/T//ccCOLaPk.s 			page 1


   1              		.cpu cortex-m4
   2              		.eabi_attribute 27, 1
   3              		.eabi_attribute 28, 1
   4              		.eabi_attribute 20, 1
   5              		.eabi_attribute 21, 1
   6              		.eabi_attribute 23, 3
   7              		.eabi_attribute 24, 1
   8              		.eabi_attribute 25, 1
   9              		.eabi_attribute 26, 1
  10              		.eabi_attribute 30, 2
  11              		.eabi_attribute 34, 1
  12              		.eabi_attribute 18, 4
  13              		.file	"stm32f3xx_hal_flash.c"
  14              		.text
  15              	.Ltext0:
  16              		.cfi_sections	.debug_frame
  17              		.section	.text.FLASH_SetErrorCode,"ax",%progbits
  18              		.align	1
  19              		.p2align 2,,3
  20              		.arch armv7e-m
  21              		.syntax unified
  22              		.thumb
  23              		.thumb_func
  24              		.fpu fpv4-sp-d16
  26              	FLASH_SetErrorCode:
  27              	.LFB139:
  28              		.file 1 "Drivers/STM32F3xx_HAL_Driver/Src/stm32f3xx_hal_flash.c"
   1:Drivers/STM32F3xx_HAL_Driver/Src/stm32f3xx_hal_flash.c **** /**
   2:Drivers/STM32F3xx_HAL_Driver/Src/stm32f3xx_hal_flash.c ****   ******************************************************************************
   3:Drivers/STM32F3xx_HAL_Driver/Src/stm32f3xx_hal_flash.c ****   * @file    stm32f3xx_hal_flash.c
   4:Drivers/STM32F3xx_HAL_Driver/Src/stm32f3xx_hal_flash.c ****   * @author  MCD Application Team
   5:Drivers/STM32F3xx_HAL_Driver/Src/stm32f3xx_hal_flash.c ****   * @brief   FLASH HAL module driver.
   6:Drivers/STM32F3xx_HAL_Driver/Src/stm32f3xx_hal_flash.c ****   *          This file provides firmware functions to manage the following 
   7:Drivers/STM32F3xx_HAL_Driver/Src/stm32f3xx_hal_flash.c ****   *          functionalities of the internal FLASH memory:
   8:Drivers/STM32F3xx_HAL_Driver/Src/stm32f3xx_hal_flash.c ****   *           + Program operations functions
   9:Drivers/STM32F3xx_HAL_Driver/Src/stm32f3xx_hal_flash.c ****   *           + Memory Control functions 
  10:Drivers/STM32F3xx_HAL_Driver/Src/stm32f3xx_hal_flash.c ****   *           + Peripheral State functions
  11:Drivers/STM32F3xx_HAL_Driver/Src/stm32f3xx_hal_flash.c ****   *         
  12:Drivers/STM32F3xx_HAL_Driver/Src/stm32f3xx_hal_flash.c ****   @verbatim
  13:Drivers/STM32F3xx_HAL_Driver/Src/stm32f3xx_hal_flash.c ****   ==============================================================================
  14:Drivers/STM32F3xx_HAL_Driver/Src/stm32f3xx_hal_flash.c ****                         ##### FLASH peripheral features #####
  15:Drivers/STM32F3xx_HAL_Driver/Src/stm32f3xx_hal_flash.c ****   ==============================================================================
  16:Drivers/STM32F3xx_HAL_Driver/Src/stm32f3xx_hal_flash.c ****   [..] The Flash memory interface manages CPU AHB I-Code and D-Code accesses 
  17:Drivers/STM32F3xx_HAL_Driver/Src/stm32f3xx_hal_flash.c ****        to the Flash memory. It implements the erase and program Flash memory operations 
  18:Drivers/STM32F3xx_HAL_Driver/Src/stm32f3xx_hal_flash.c ****        and the read and write protection mechanisms.
  19:Drivers/STM32F3xx_HAL_Driver/Src/stm32f3xx_hal_flash.c **** 
  20:Drivers/STM32F3xx_HAL_Driver/Src/stm32f3xx_hal_flash.c ****   [..] The Flash memory interface accelerates code execution with a system of instruction
  21:Drivers/STM32F3xx_HAL_Driver/Src/stm32f3xx_hal_flash.c ****       prefetch. 
  22:Drivers/STM32F3xx_HAL_Driver/Src/stm32f3xx_hal_flash.c **** 
  23:Drivers/STM32F3xx_HAL_Driver/Src/stm32f3xx_hal_flash.c ****   [..] The FLASH main features are:
  24:Drivers/STM32F3xx_HAL_Driver/Src/stm32f3xx_hal_flash.c ****       (+) Flash memory read operations
  25:Drivers/STM32F3xx_HAL_Driver/Src/stm32f3xx_hal_flash.c ****       (+) Flash memory program/erase operations
  26:Drivers/STM32F3xx_HAL_Driver/Src/stm32f3xx_hal_flash.c ****       (+) Read / write protections
  27:Drivers/STM32F3xx_HAL_Driver/Src/stm32f3xx_hal_flash.c ****       (+) Prefetch on I-Code
  28:Drivers/STM32F3xx_HAL_Driver/Src/stm32f3xx_hal_flash.c ****       (+) Option Bytes programming
  29:Drivers/STM32F3xx_HAL_Driver/Src/stm32f3xx_hal_flash.c **** 
  30:Drivers/STM32F3xx_HAL_Driver/Src/stm32f3xx_hal_flash.c **** 
ARM GAS  /var/folders/8c/gyvcglfx7f97kbqb2h83mm_r0000gn/T//ccCOLaPk.s 			page 2


  31:Drivers/STM32F3xx_HAL_Driver/Src/stm32f3xx_hal_flash.c ****                      ##### How to use this driver #####
  32:Drivers/STM32F3xx_HAL_Driver/Src/stm32f3xx_hal_flash.c ****   ==============================================================================
  33:Drivers/STM32F3xx_HAL_Driver/Src/stm32f3xx_hal_flash.c ****   [..]                             
  34:Drivers/STM32F3xx_HAL_Driver/Src/stm32f3xx_hal_flash.c ****       This driver provides functions and macros to configure and program the FLASH 
  35:Drivers/STM32F3xx_HAL_Driver/Src/stm32f3xx_hal_flash.c ****       memory of all STM32F3xx devices.
  36:Drivers/STM32F3xx_HAL_Driver/Src/stm32f3xx_hal_flash.c ****     
  37:Drivers/STM32F3xx_HAL_Driver/Src/stm32f3xx_hal_flash.c ****       (#) FLASH Memory I/O Programming functions: this group includes all needed
  38:Drivers/STM32F3xx_HAL_Driver/Src/stm32f3xx_hal_flash.c ****           functions to erase and program the main memory:
  39:Drivers/STM32F3xx_HAL_Driver/Src/stm32f3xx_hal_flash.c ****         (++) Lock and Unlock the FLASH interface
  40:Drivers/STM32F3xx_HAL_Driver/Src/stm32f3xx_hal_flash.c ****         (++) Erase function: Erase page, erase all pages
  41:Drivers/STM32F3xx_HAL_Driver/Src/stm32f3xx_hal_flash.c ****         (++) Program functions: half word, word and doubleword
  42:Drivers/STM32F3xx_HAL_Driver/Src/stm32f3xx_hal_flash.c ****       (#) FLASH Option Bytes Programming functions: this group includes all needed
  43:Drivers/STM32F3xx_HAL_Driver/Src/stm32f3xx_hal_flash.c ****           functions to manage the Option Bytes:
  44:Drivers/STM32F3xx_HAL_Driver/Src/stm32f3xx_hal_flash.c ****         (++) Lock and Unlock the Option Bytes
  45:Drivers/STM32F3xx_HAL_Driver/Src/stm32f3xx_hal_flash.c ****         (++) Set/Reset the write protection
  46:Drivers/STM32F3xx_HAL_Driver/Src/stm32f3xx_hal_flash.c ****         (++) Set the Read protection Level
  47:Drivers/STM32F3xx_HAL_Driver/Src/stm32f3xx_hal_flash.c ****         (++) Program the user Option Bytes
  48:Drivers/STM32F3xx_HAL_Driver/Src/stm32f3xx_hal_flash.c ****         (++) Launch the Option Bytes loader
  49:Drivers/STM32F3xx_HAL_Driver/Src/stm32f3xx_hal_flash.c ****         (++) Erase Option Bytes
  50:Drivers/STM32F3xx_HAL_Driver/Src/stm32f3xx_hal_flash.c ****         (++) Program the data Option Bytes
  51:Drivers/STM32F3xx_HAL_Driver/Src/stm32f3xx_hal_flash.c ****         (++) Get the Write protection.
  52:Drivers/STM32F3xx_HAL_Driver/Src/stm32f3xx_hal_flash.c ****         (++) Get the user option bytes.
  53:Drivers/STM32F3xx_HAL_Driver/Src/stm32f3xx_hal_flash.c ****     
  54:Drivers/STM32F3xx_HAL_Driver/Src/stm32f3xx_hal_flash.c ****       (#) Interrupts and flags management functions : this group 
  55:Drivers/STM32F3xx_HAL_Driver/Src/stm32f3xx_hal_flash.c ****           includes all needed functions to:
  56:Drivers/STM32F3xx_HAL_Driver/Src/stm32f3xx_hal_flash.c ****         (++) Handle FLASH interrupts
  57:Drivers/STM32F3xx_HAL_Driver/Src/stm32f3xx_hal_flash.c ****         (++) Wait for last FLASH operation according to its status
  58:Drivers/STM32F3xx_HAL_Driver/Src/stm32f3xx_hal_flash.c ****         (++) Get error flag status
  59:Drivers/STM32F3xx_HAL_Driver/Src/stm32f3xx_hal_flash.c **** 
  60:Drivers/STM32F3xx_HAL_Driver/Src/stm32f3xx_hal_flash.c ****   [..] In addition to these function, this driver includes a set of macros allowing
  61:Drivers/STM32F3xx_HAL_Driver/Src/stm32f3xx_hal_flash.c ****        to handle the following operations:
  62:Drivers/STM32F3xx_HAL_Driver/Src/stm32f3xx_hal_flash.c ****       
  63:Drivers/STM32F3xx_HAL_Driver/Src/stm32f3xx_hal_flash.c ****       (+) Set/Get the latency
  64:Drivers/STM32F3xx_HAL_Driver/Src/stm32f3xx_hal_flash.c ****       (+) Enable/Disable the prefetch buffer
  65:Drivers/STM32F3xx_HAL_Driver/Src/stm32f3xx_hal_flash.c ****       (+) Enable/Disable the half cycle access
  66:Drivers/STM32F3xx_HAL_Driver/Src/stm32f3xx_hal_flash.c ****       (+) Enable/Disable the FLASH interrupts
  67:Drivers/STM32F3xx_HAL_Driver/Src/stm32f3xx_hal_flash.c ****       (+) Monitor the FLASH flags status
  68:Drivers/STM32F3xx_HAL_Driver/Src/stm32f3xx_hal_flash.c ****           
  69:Drivers/STM32F3xx_HAL_Driver/Src/stm32f3xx_hal_flash.c ****   @endverbatim
  70:Drivers/STM32F3xx_HAL_Driver/Src/stm32f3xx_hal_flash.c ****   ******************************************************************************
  71:Drivers/STM32F3xx_HAL_Driver/Src/stm32f3xx_hal_flash.c ****   * @attention
  72:Drivers/STM32F3xx_HAL_Driver/Src/stm32f3xx_hal_flash.c ****   *
  73:Drivers/STM32F3xx_HAL_Driver/Src/stm32f3xx_hal_flash.c ****   * <h2><center>&copy; COPYRIGHT(c) 2016 STMicroelectronics</center></h2>
  74:Drivers/STM32F3xx_HAL_Driver/Src/stm32f3xx_hal_flash.c ****   *
  75:Drivers/STM32F3xx_HAL_Driver/Src/stm32f3xx_hal_flash.c ****   * Redistribution and use in source and binary forms, with or without modification,
  76:Drivers/STM32F3xx_HAL_Driver/Src/stm32f3xx_hal_flash.c ****   * are permitted provided that the following conditions are met:
  77:Drivers/STM32F3xx_HAL_Driver/Src/stm32f3xx_hal_flash.c ****   *   1. Redistributions of source code must retain the above copyright notice,
  78:Drivers/STM32F3xx_HAL_Driver/Src/stm32f3xx_hal_flash.c ****   *      this list of conditions and the following disclaimer.
  79:Drivers/STM32F3xx_HAL_Driver/Src/stm32f3xx_hal_flash.c ****   *   2. Redistributions in binary form must reproduce the above copyright notice,
  80:Drivers/STM32F3xx_HAL_Driver/Src/stm32f3xx_hal_flash.c ****   *      this list of conditions and the following disclaimer in the documentation
  81:Drivers/STM32F3xx_HAL_Driver/Src/stm32f3xx_hal_flash.c ****   *      and/or other materials provided with the distribution.
  82:Drivers/STM32F3xx_HAL_Driver/Src/stm32f3xx_hal_flash.c ****   *   3. Neither the name of STMicroelectronics nor the names of its contributors
  83:Drivers/STM32F3xx_HAL_Driver/Src/stm32f3xx_hal_flash.c ****   *      may be used to endorse or promote products derived from this software
  84:Drivers/STM32F3xx_HAL_Driver/Src/stm32f3xx_hal_flash.c ****   *      without specific prior written permission.
  85:Drivers/STM32F3xx_HAL_Driver/Src/stm32f3xx_hal_flash.c ****   *
  86:Drivers/STM32F3xx_HAL_Driver/Src/stm32f3xx_hal_flash.c ****   * THIS SOFTWARE IS PROVIDED BY THE COPYRIGHT HOLDERS AND CONTRIBUTORS "AS IS"
  87:Drivers/STM32F3xx_HAL_Driver/Src/stm32f3xx_hal_flash.c ****   * AND ANY EXPRESS OR IMPLIED WARRANTIES, INCLUDING, BUT NOT LIMITED TO, THE
ARM GAS  /var/folders/8c/gyvcglfx7f97kbqb2h83mm_r0000gn/T//ccCOLaPk.s 			page 3


  88:Drivers/STM32F3xx_HAL_Driver/Src/stm32f3xx_hal_flash.c ****   * IMPLIED WARRANTIES OF MERCHANTABILITY AND FITNESS FOR A PARTICULAR PURPOSE ARE
  89:Drivers/STM32F3xx_HAL_Driver/Src/stm32f3xx_hal_flash.c ****   * DISCLAIMED. IN NO EVENT SHALL THE COPYRIGHT HOLDER OR CONTRIBUTORS BE LIABLE
  90:Drivers/STM32F3xx_HAL_Driver/Src/stm32f3xx_hal_flash.c ****   * FOR ANY DIRECT, INDIRECT, INCIDENTAL, SPECIAL, EXEMPLARY, OR CONSEQUENTIAL
  91:Drivers/STM32F3xx_HAL_Driver/Src/stm32f3xx_hal_flash.c ****   * DAMAGES (INCLUDING, BUT NOT LIMITED TO, PROCUREMENT OF SUBSTITUTE GOODS OR
  92:Drivers/STM32F3xx_HAL_Driver/Src/stm32f3xx_hal_flash.c ****   * SERVICES; LOSS OF USE, DATA, OR PROFITS; OR BUSINESS INTERRUPTION) HOWEVER
  93:Drivers/STM32F3xx_HAL_Driver/Src/stm32f3xx_hal_flash.c ****   * CAUSED AND ON ANY THEORY OF LIABILITY, WHETHER IN CONTRACT, STRICT LIABILITY,
  94:Drivers/STM32F3xx_HAL_Driver/Src/stm32f3xx_hal_flash.c ****   * OR TORT (INCLUDING NEGLIGENCE OR OTHERWISE) ARISING IN ANY WAY OUT OF THE USE
  95:Drivers/STM32F3xx_HAL_Driver/Src/stm32f3xx_hal_flash.c ****   * OF THIS SOFTWARE, EVEN IF ADVISED OF THE POSSIBILITY OF SUCH DAMAGE.
  96:Drivers/STM32F3xx_HAL_Driver/Src/stm32f3xx_hal_flash.c ****   *
  97:Drivers/STM32F3xx_HAL_Driver/Src/stm32f3xx_hal_flash.c ****   ******************************************************************************  
  98:Drivers/STM32F3xx_HAL_Driver/Src/stm32f3xx_hal_flash.c ****   */
  99:Drivers/STM32F3xx_HAL_Driver/Src/stm32f3xx_hal_flash.c **** 
 100:Drivers/STM32F3xx_HAL_Driver/Src/stm32f3xx_hal_flash.c **** /* Includes ------------------------------------------------------------------*/
 101:Drivers/STM32F3xx_HAL_Driver/Src/stm32f3xx_hal_flash.c **** #include "stm32f3xx_hal.h"
 102:Drivers/STM32F3xx_HAL_Driver/Src/stm32f3xx_hal_flash.c **** 
 103:Drivers/STM32F3xx_HAL_Driver/Src/stm32f3xx_hal_flash.c **** /** @addtogroup STM32F3xx_HAL_Driver
 104:Drivers/STM32F3xx_HAL_Driver/Src/stm32f3xx_hal_flash.c ****   * @{
 105:Drivers/STM32F3xx_HAL_Driver/Src/stm32f3xx_hal_flash.c ****   */
 106:Drivers/STM32F3xx_HAL_Driver/Src/stm32f3xx_hal_flash.c **** 
 107:Drivers/STM32F3xx_HAL_Driver/Src/stm32f3xx_hal_flash.c **** #ifdef HAL_FLASH_MODULE_ENABLED
 108:Drivers/STM32F3xx_HAL_Driver/Src/stm32f3xx_hal_flash.c **** 
 109:Drivers/STM32F3xx_HAL_Driver/Src/stm32f3xx_hal_flash.c **** /** @defgroup FLASH FLASH
 110:Drivers/STM32F3xx_HAL_Driver/Src/stm32f3xx_hal_flash.c ****   * @brief FLASH HAL module driver
 111:Drivers/STM32F3xx_HAL_Driver/Src/stm32f3xx_hal_flash.c ****   * @{
 112:Drivers/STM32F3xx_HAL_Driver/Src/stm32f3xx_hal_flash.c ****   */
 113:Drivers/STM32F3xx_HAL_Driver/Src/stm32f3xx_hal_flash.c **** 
 114:Drivers/STM32F3xx_HAL_Driver/Src/stm32f3xx_hal_flash.c **** /* Private typedef -----------------------------------------------------------*/
 115:Drivers/STM32F3xx_HAL_Driver/Src/stm32f3xx_hal_flash.c **** /* Private define ------------------------------------------------------------*/
 116:Drivers/STM32F3xx_HAL_Driver/Src/stm32f3xx_hal_flash.c **** /** @defgroup FLASH_Private_Constants FLASH Private Constants
 117:Drivers/STM32F3xx_HAL_Driver/Src/stm32f3xx_hal_flash.c ****   * @{
 118:Drivers/STM32F3xx_HAL_Driver/Src/stm32f3xx_hal_flash.c ****   */
 119:Drivers/STM32F3xx_HAL_Driver/Src/stm32f3xx_hal_flash.c **** /**
 120:Drivers/STM32F3xx_HAL_Driver/Src/stm32f3xx_hal_flash.c ****   * @}
 121:Drivers/STM32F3xx_HAL_Driver/Src/stm32f3xx_hal_flash.c ****   */
 122:Drivers/STM32F3xx_HAL_Driver/Src/stm32f3xx_hal_flash.c **** 
 123:Drivers/STM32F3xx_HAL_Driver/Src/stm32f3xx_hal_flash.c **** /* Private macro ---------------------------- ---------------------------------*/
 124:Drivers/STM32F3xx_HAL_Driver/Src/stm32f3xx_hal_flash.c **** /** @defgroup FLASH_Private_Macros FLASH Private Macros
 125:Drivers/STM32F3xx_HAL_Driver/Src/stm32f3xx_hal_flash.c ****   * @{
 126:Drivers/STM32F3xx_HAL_Driver/Src/stm32f3xx_hal_flash.c ****   */
 127:Drivers/STM32F3xx_HAL_Driver/Src/stm32f3xx_hal_flash.c ****  
 128:Drivers/STM32F3xx_HAL_Driver/Src/stm32f3xx_hal_flash.c **** /**
 129:Drivers/STM32F3xx_HAL_Driver/Src/stm32f3xx_hal_flash.c ****   * @}
 130:Drivers/STM32F3xx_HAL_Driver/Src/stm32f3xx_hal_flash.c ****   */
 131:Drivers/STM32F3xx_HAL_Driver/Src/stm32f3xx_hal_flash.c **** 
 132:Drivers/STM32F3xx_HAL_Driver/Src/stm32f3xx_hal_flash.c **** /* Private variables ---------------------------------------------------------*/
 133:Drivers/STM32F3xx_HAL_Driver/Src/stm32f3xx_hal_flash.c **** /** @defgroup FLASH_Private_Variables FLASH Private Variables
 134:Drivers/STM32F3xx_HAL_Driver/Src/stm32f3xx_hal_flash.c ****   * @{
 135:Drivers/STM32F3xx_HAL_Driver/Src/stm32f3xx_hal_flash.c ****   */
 136:Drivers/STM32F3xx_HAL_Driver/Src/stm32f3xx_hal_flash.c **** /* Variables used for Erase pages under interruption*/
 137:Drivers/STM32F3xx_HAL_Driver/Src/stm32f3xx_hal_flash.c **** FLASH_ProcessTypeDef pFlash;
 138:Drivers/STM32F3xx_HAL_Driver/Src/stm32f3xx_hal_flash.c **** /**
 139:Drivers/STM32F3xx_HAL_Driver/Src/stm32f3xx_hal_flash.c ****   * @}
 140:Drivers/STM32F3xx_HAL_Driver/Src/stm32f3xx_hal_flash.c ****   */
 141:Drivers/STM32F3xx_HAL_Driver/Src/stm32f3xx_hal_flash.c **** 
 142:Drivers/STM32F3xx_HAL_Driver/Src/stm32f3xx_hal_flash.c **** /* Private function prototypes -----------------------------------------------*/
 143:Drivers/STM32F3xx_HAL_Driver/Src/stm32f3xx_hal_flash.c **** /** @defgroup FLASH_Private_Functions FLASH Private Functions
 144:Drivers/STM32F3xx_HAL_Driver/Src/stm32f3xx_hal_flash.c ****   * @{
ARM GAS  /var/folders/8c/gyvcglfx7f97kbqb2h83mm_r0000gn/T//ccCOLaPk.s 			page 4


 145:Drivers/STM32F3xx_HAL_Driver/Src/stm32f3xx_hal_flash.c ****   */
 146:Drivers/STM32F3xx_HAL_Driver/Src/stm32f3xx_hal_flash.c **** static  void   FLASH_Program_HalfWord(uint32_t Address, uint16_t Data);
 147:Drivers/STM32F3xx_HAL_Driver/Src/stm32f3xx_hal_flash.c **** static  void   FLASH_SetErrorCode(void);
 148:Drivers/STM32F3xx_HAL_Driver/Src/stm32f3xx_hal_flash.c **** extern void    FLASH_PageErase(uint32_t PageAddress);
 149:Drivers/STM32F3xx_HAL_Driver/Src/stm32f3xx_hal_flash.c **** /**
 150:Drivers/STM32F3xx_HAL_Driver/Src/stm32f3xx_hal_flash.c ****   * @}
 151:Drivers/STM32F3xx_HAL_Driver/Src/stm32f3xx_hal_flash.c ****   */
 152:Drivers/STM32F3xx_HAL_Driver/Src/stm32f3xx_hal_flash.c **** 
 153:Drivers/STM32F3xx_HAL_Driver/Src/stm32f3xx_hal_flash.c **** /* Exported functions ---------------------------------------------------------*/
 154:Drivers/STM32F3xx_HAL_Driver/Src/stm32f3xx_hal_flash.c **** /** @defgroup FLASH_Exported_Functions FLASH Exported Functions
 155:Drivers/STM32F3xx_HAL_Driver/Src/stm32f3xx_hal_flash.c ****   * @{
 156:Drivers/STM32F3xx_HAL_Driver/Src/stm32f3xx_hal_flash.c ****   */
 157:Drivers/STM32F3xx_HAL_Driver/Src/stm32f3xx_hal_flash.c ****   
 158:Drivers/STM32F3xx_HAL_Driver/Src/stm32f3xx_hal_flash.c **** /** @defgroup FLASH_Exported_Functions_Group1 Programming operation functions 
 159:Drivers/STM32F3xx_HAL_Driver/Src/stm32f3xx_hal_flash.c ****   *  @brief   Programming operation functions 
 160:Drivers/STM32F3xx_HAL_Driver/Src/stm32f3xx_hal_flash.c ****   *
 161:Drivers/STM32F3xx_HAL_Driver/Src/stm32f3xx_hal_flash.c **** @verbatim   
 162:Drivers/STM32F3xx_HAL_Driver/Src/stm32f3xx_hal_flash.c **** @endverbatim
 163:Drivers/STM32F3xx_HAL_Driver/Src/stm32f3xx_hal_flash.c ****   * @{
 164:Drivers/STM32F3xx_HAL_Driver/Src/stm32f3xx_hal_flash.c ****   */
 165:Drivers/STM32F3xx_HAL_Driver/Src/stm32f3xx_hal_flash.c **** 
 166:Drivers/STM32F3xx_HAL_Driver/Src/stm32f3xx_hal_flash.c **** /**
 167:Drivers/STM32F3xx_HAL_Driver/Src/stm32f3xx_hal_flash.c ****   * @brief  Program halfword, word or double word at a specified address
 168:Drivers/STM32F3xx_HAL_Driver/Src/stm32f3xx_hal_flash.c ****   * @note   The function HAL_FLASH_Unlock() should be called before to unlock the FLASH interface
 169:Drivers/STM32F3xx_HAL_Driver/Src/stm32f3xx_hal_flash.c ****   *         The function HAL_FLASH_Lock() should be called after to lock the FLASH interface
 170:Drivers/STM32F3xx_HAL_Driver/Src/stm32f3xx_hal_flash.c ****   *
 171:Drivers/STM32F3xx_HAL_Driver/Src/stm32f3xx_hal_flash.c ****   * @note   If an erase and a program operations are requested simultaneously,    
 172:Drivers/STM32F3xx_HAL_Driver/Src/stm32f3xx_hal_flash.c ****   *         the erase operation is performed before the program one.
 173:Drivers/STM32F3xx_HAL_Driver/Src/stm32f3xx_hal_flash.c ****   *  
 174:Drivers/STM32F3xx_HAL_Driver/Src/stm32f3xx_hal_flash.c ****   * @note   FLASH should be previously erased before new programmation (only exception to this 
 175:Drivers/STM32F3xx_HAL_Driver/Src/stm32f3xx_hal_flash.c ****   *         is when 0x0000 is programmed)
 176:Drivers/STM32F3xx_HAL_Driver/Src/stm32f3xx_hal_flash.c ****   *
 177:Drivers/STM32F3xx_HAL_Driver/Src/stm32f3xx_hal_flash.c ****   * @param  TypeProgram   Indicate the way to program at a specified address.
 178:Drivers/STM32F3xx_HAL_Driver/Src/stm32f3xx_hal_flash.c ****   *                       This parameter can be a value of @ref FLASH_Type_Program
 179:Drivers/STM32F3xx_HAL_Driver/Src/stm32f3xx_hal_flash.c ****   * @param  Address       Specifie the address to be programmed.
 180:Drivers/STM32F3xx_HAL_Driver/Src/stm32f3xx_hal_flash.c ****   * @param  Data          Specifie the data to be programmed
 181:Drivers/STM32F3xx_HAL_Driver/Src/stm32f3xx_hal_flash.c ****   * 
 182:Drivers/STM32F3xx_HAL_Driver/Src/stm32f3xx_hal_flash.c ****   * @retval HAL_StatusTypeDef HAL Status
 183:Drivers/STM32F3xx_HAL_Driver/Src/stm32f3xx_hal_flash.c ****   */
 184:Drivers/STM32F3xx_HAL_Driver/Src/stm32f3xx_hal_flash.c **** HAL_StatusTypeDef HAL_FLASH_Program(uint32_t TypeProgram, uint32_t Address, uint64_t Data)
 185:Drivers/STM32F3xx_HAL_Driver/Src/stm32f3xx_hal_flash.c **** {
 186:Drivers/STM32F3xx_HAL_Driver/Src/stm32f3xx_hal_flash.c ****   HAL_StatusTypeDef status = HAL_ERROR;
 187:Drivers/STM32F3xx_HAL_Driver/Src/stm32f3xx_hal_flash.c ****   uint8_t index = 0U;
 188:Drivers/STM32F3xx_HAL_Driver/Src/stm32f3xx_hal_flash.c ****   uint8_t nbiterations = 0U;
 189:Drivers/STM32F3xx_HAL_Driver/Src/stm32f3xx_hal_flash.c ****   
 190:Drivers/STM32F3xx_HAL_Driver/Src/stm32f3xx_hal_flash.c ****   /* Process Locked */
 191:Drivers/STM32F3xx_HAL_Driver/Src/stm32f3xx_hal_flash.c ****   __HAL_LOCK(&pFlash);
 192:Drivers/STM32F3xx_HAL_Driver/Src/stm32f3xx_hal_flash.c **** 
 193:Drivers/STM32F3xx_HAL_Driver/Src/stm32f3xx_hal_flash.c ****   /* Check the parameters */
 194:Drivers/STM32F3xx_HAL_Driver/Src/stm32f3xx_hal_flash.c ****   assert_param(IS_FLASH_TYPEPROGRAM(TypeProgram));
 195:Drivers/STM32F3xx_HAL_Driver/Src/stm32f3xx_hal_flash.c ****   assert_param(IS_FLASH_PROGRAM_ADDRESS(Address));
 196:Drivers/STM32F3xx_HAL_Driver/Src/stm32f3xx_hal_flash.c **** 
 197:Drivers/STM32F3xx_HAL_Driver/Src/stm32f3xx_hal_flash.c ****     /* Wait for last operation to be completed */
 198:Drivers/STM32F3xx_HAL_Driver/Src/stm32f3xx_hal_flash.c ****     status = FLASH_WaitForLastOperation(FLASH_TIMEOUT_VALUE);
 199:Drivers/STM32F3xx_HAL_Driver/Src/stm32f3xx_hal_flash.c ****   
 200:Drivers/STM32F3xx_HAL_Driver/Src/stm32f3xx_hal_flash.c ****   if(status == HAL_OK)
 201:Drivers/STM32F3xx_HAL_Driver/Src/stm32f3xx_hal_flash.c ****   {
ARM GAS  /var/folders/8c/gyvcglfx7f97kbqb2h83mm_r0000gn/T//ccCOLaPk.s 			page 5


 202:Drivers/STM32F3xx_HAL_Driver/Src/stm32f3xx_hal_flash.c ****     if(TypeProgram == FLASH_TYPEPROGRAM_HALFWORD)
 203:Drivers/STM32F3xx_HAL_Driver/Src/stm32f3xx_hal_flash.c ****     {
 204:Drivers/STM32F3xx_HAL_Driver/Src/stm32f3xx_hal_flash.c ****       /* Program halfword (16-bit) at a specified address. */
 205:Drivers/STM32F3xx_HAL_Driver/Src/stm32f3xx_hal_flash.c ****       nbiterations = 1U;
 206:Drivers/STM32F3xx_HAL_Driver/Src/stm32f3xx_hal_flash.c ****     }
 207:Drivers/STM32F3xx_HAL_Driver/Src/stm32f3xx_hal_flash.c ****     else if(TypeProgram == FLASH_TYPEPROGRAM_WORD)
 208:Drivers/STM32F3xx_HAL_Driver/Src/stm32f3xx_hal_flash.c ****     {
 209:Drivers/STM32F3xx_HAL_Driver/Src/stm32f3xx_hal_flash.c ****       /* Program word (32-bit = 2*16-bit) at a specified address. */
 210:Drivers/STM32F3xx_HAL_Driver/Src/stm32f3xx_hal_flash.c ****       nbiterations = 2U;
 211:Drivers/STM32F3xx_HAL_Driver/Src/stm32f3xx_hal_flash.c ****     }
 212:Drivers/STM32F3xx_HAL_Driver/Src/stm32f3xx_hal_flash.c ****     else
 213:Drivers/STM32F3xx_HAL_Driver/Src/stm32f3xx_hal_flash.c ****     {
 214:Drivers/STM32F3xx_HAL_Driver/Src/stm32f3xx_hal_flash.c ****       /* Program double word (64-bit = 4*16-bit) at a specified address. */
 215:Drivers/STM32F3xx_HAL_Driver/Src/stm32f3xx_hal_flash.c ****       nbiterations = 4U;
 216:Drivers/STM32F3xx_HAL_Driver/Src/stm32f3xx_hal_flash.c ****     }
 217:Drivers/STM32F3xx_HAL_Driver/Src/stm32f3xx_hal_flash.c **** 
 218:Drivers/STM32F3xx_HAL_Driver/Src/stm32f3xx_hal_flash.c ****     for (index = 0U; index < nbiterations; index++)
 219:Drivers/STM32F3xx_HAL_Driver/Src/stm32f3xx_hal_flash.c ****     {
 220:Drivers/STM32F3xx_HAL_Driver/Src/stm32f3xx_hal_flash.c ****       FLASH_Program_HalfWord((Address + (2U*index)), (uint16_t)(Data >> (16U*index)));
 221:Drivers/STM32F3xx_HAL_Driver/Src/stm32f3xx_hal_flash.c **** 
 222:Drivers/STM32F3xx_HAL_Driver/Src/stm32f3xx_hal_flash.c ****         /* Wait for last operation to be completed */
 223:Drivers/STM32F3xx_HAL_Driver/Src/stm32f3xx_hal_flash.c ****         status = FLASH_WaitForLastOperation(FLASH_TIMEOUT_VALUE);
 224:Drivers/STM32F3xx_HAL_Driver/Src/stm32f3xx_hal_flash.c ****     
 225:Drivers/STM32F3xx_HAL_Driver/Src/stm32f3xx_hal_flash.c ****         /* If the program operation is completed, disable the PG Bit */
 226:Drivers/STM32F3xx_HAL_Driver/Src/stm32f3xx_hal_flash.c ****         CLEAR_BIT(FLASH->CR, FLASH_CR_PG);
 227:Drivers/STM32F3xx_HAL_Driver/Src/stm32f3xx_hal_flash.c ****       /* In case of error, stop programation procedure */
 228:Drivers/STM32F3xx_HAL_Driver/Src/stm32f3xx_hal_flash.c ****       if (status != HAL_OK)
 229:Drivers/STM32F3xx_HAL_Driver/Src/stm32f3xx_hal_flash.c ****       {
 230:Drivers/STM32F3xx_HAL_Driver/Src/stm32f3xx_hal_flash.c ****         break;
 231:Drivers/STM32F3xx_HAL_Driver/Src/stm32f3xx_hal_flash.c ****       }
 232:Drivers/STM32F3xx_HAL_Driver/Src/stm32f3xx_hal_flash.c ****     }
 233:Drivers/STM32F3xx_HAL_Driver/Src/stm32f3xx_hal_flash.c ****   }
 234:Drivers/STM32F3xx_HAL_Driver/Src/stm32f3xx_hal_flash.c **** 
 235:Drivers/STM32F3xx_HAL_Driver/Src/stm32f3xx_hal_flash.c ****   /* Process Unlocked */
 236:Drivers/STM32F3xx_HAL_Driver/Src/stm32f3xx_hal_flash.c ****   __HAL_UNLOCK(&pFlash);
 237:Drivers/STM32F3xx_HAL_Driver/Src/stm32f3xx_hal_flash.c **** 
 238:Drivers/STM32F3xx_HAL_Driver/Src/stm32f3xx_hal_flash.c ****   return status;
 239:Drivers/STM32F3xx_HAL_Driver/Src/stm32f3xx_hal_flash.c **** }
 240:Drivers/STM32F3xx_HAL_Driver/Src/stm32f3xx_hal_flash.c **** 
 241:Drivers/STM32F3xx_HAL_Driver/Src/stm32f3xx_hal_flash.c **** /**
 242:Drivers/STM32F3xx_HAL_Driver/Src/stm32f3xx_hal_flash.c ****   * @brief  Program halfword, word or double word at a specified address  with interrupt enabled.
 243:Drivers/STM32F3xx_HAL_Driver/Src/stm32f3xx_hal_flash.c ****   * @note   The function HAL_FLASH_Unlock() should be called before to unlock the FLASH interface
 244:Drivers/STM32F3xx_HAL_Driver/Src/stm32f3xx_hal_flash.c ****   *         The function HAL_FLASH_Lock() should be called after to lock the FLASH interface
 245:Drivers/STM32F3xx_HAL_Driver/Src/stm32f3xx_hal_flash.c ****   *
 246:Drivers/STM32F3xx_HAL_Driver/Src/stm32f3xx_hal_flash.c ****   * @note   If an erase and a program operations are requested simultaneously,    
 247:Drivers/STM32F3xx_HAL_Driver/Src/stm32f3xx_hal_flash.c ****   *         the erase operation is performed before the program one.
 248:Drivers/STM32F3xx_HAL_Driver/Src/stm32f3xx_hal_flash.c ****   *
 249:Drivers/STM32F3xx_HAL_Driver/Src/stm32f3xx_hal_flash.c ****   * @param  TypeProgram  Indicate the way to program at a specified address.
 250:Drivers/STM32F3xx_HAL_Driver/Src/stm32f3xx_hal_flash.c ****   *                      This parameter can be a value of @ref FLASH_Type_Program
 251:Drivers/STM32F3xx_HAL_Driver/Src/stm32f3xx_hal_flash.c ****   * @param  Address      Specifie the address to be programmed.
 252:Drivers/STM32F3xx_HAL_Driver/Src/stm32f3xx_hal_flash.c ****   * @param  Data         Specifie the data to be programmed
 253:Drivers/STM32F3xx_HAL_Driver/Src/stm32f3xx_hal_flash.c ****   * 
 254:Drivers/STM32F3xx_HAL_Driver/Src/stm32f3xx_hal_flash.c ****   * @retval HAL_StatusTypeDef HAL Status
 255:Drivers/STM32F3xx_HAL_Driver/Src/stm32f3xx_hal_flash.c ****   */
 256:Drivers/STM32F3xx_HAL_Driver/Src/stm32f3xx_hal_flash.c **** HAL_StatusTypeDef HAL_FLASH_Program_IT(uint32_t TypeProgram, uint32_t Address, uint64_t Data)
 257:Drivers/STM32F3xx_HAL_Driver/Src/stm32f3xx_hal_flash.c **** {
 258:Drivers/STM32F3xx_HAL_Driver/Src/stm32f3xx_hal_flash.c ****   HAL_StatusTypeDef status = HAL_OK;
ARM GAS  /var/folders/8c/gyvcglfx7f97kbqb2h83mm_r0000gn/T//ccCOLaPk.s 			page 6


 259:Drivers/STM32F3xx_HAL_Driver/Src/stm32f3xx_hal_flash.c ****   
 260:Drivers/STM32F3xx_HAL_Driver/Src/stm32f3xx_hal_flash.c ****   /* Process Locked */
 261:Drivers/STM32F3xx_HAL_Driver/Src/stm32f3xx_hal_flash.c ****   __HAL_LOCK(&pFlash);
 262:Drivers/STM32F3xx_HAL_Driver/Src/stm32f3xx_hal_flash.c **** 
 263:Drivers/STM32F3xx_HAL_Driver/Src/stm32f3xx_hal_flash.c ****   /* Check the parameters */
 264:Drivers/STM32F3xx_HAL_Driver/Src/stm32f3xx_hal_flash.c ****   assert_param(IS_FLASH_TYPEPROGRAM(TypeProgram));
 265:Drivers/STM32F3xx_HAL_Driver/Src/stm32f3xx_hal_flash.c ****   assert_param(IS_FLASH_PROGRAM_ADDRESS(Address));
 266:Drivers/STM32F3xx_HAL_Driver/Src/stm32f3xx_hal_flash.c **** 
 267:Drivers/STM32F3xx_HAL_Driver/Src/stm32f3xx_hal_flash.c ****   /* Enable End of FLASH Operation and Error source interrupts */
 268:Drivers/STM32F3xx_HAL_Driver/Src/stm32f3xx_hal_flash.c ****   __HAL_FLASH_ENABLE_IT(FLASH_IT_EOP | FLASH_IT_ERR);
 269:Drivers/STM32F3xx_HAL_Driver/Src/stm32f3xx_hal_flash.c ****   
 270:Drivers/STM32F3xx_HAL_Driver/Src/stm32f3xx_hal_flash.c ****   pFlash.Address = Address;
 271:Drivers/STM32F3xx_HAL_Driver/Src/stm32f3xx_hal_flash.c ****   pFlash.Data = Data;
 272:Drivers/STM32F3xx_HAL_Driver/Src/stm32f3xx_hal_flash.c **** 
 273:Drivers/STM32F3xx_HAL_Driver/Src/stm32f3xx_hal_flash.c ****   if(TypeProgram == FLASH_TYPEPROGRAM_HALFWORD)
 274:Drivers/STM32F3xx_HAL_Driver/Src/stm32f3xx_hal_flash.c ****   {
 275:Drivers/STM32F3xx_HAL_Driver/Src/stm32f3xx_hal_flash.c ****     pFlash.ProcedureOnGoing = FLASH_PROC_PROGRAMHALFWORD;
 276:Drivers/STM32F3xx_HAL_Driver/Src/stm32f3xx_hal_flash.c ****     /* Program halfword (16-bit) at a specified address. */
 277:Drivers/STM32F3xx_HAL_Driver/Src/stm32f3xx_hal_flash.c ****     pFlash.DataRemaining = 1U;
 278:Drivers/STM32F3xx_HAL_Driver/Src/stm32f3xx_hal_flash.c ****   }
 279:Drivers/STM32F3xx_HAL_Driver/Src/stm32f3xx_hal_flash.c ****   else if(TypeProgram == FLASH_TYPEPROGRAM_WORD)
 280:Drivers/STM32F3xx_HAL_Driver/Src/stm32f3xx_hal_flash.c ****   {
 281:Drivers/STM32F3xx_HAL_Driver/Src/stm32f3xx_hal_flash.c ****     pFlash.ProcedureOnGoing = FLASH_PROC_PROGRAMWORD;
 282:Drivers/STM32F3xx_HAL_Driver/Src/stm32f3xx_hal_flash.c ****     /* Program word (32-bit : 2*16-bit) at a specified address. */
 283:Drivers/STM32F3xx_HAL_Driver/Src/stm32f3xx_hal_flash.c ****     pFlash.DataRemaining = 2U;
 284:Drivers/STM32F3xx_HAL_Driver/Src/stm32f3xx_hal_flash.c ****   }
 285:Drivers/STM32F3xx_HAL_Driver/Src/stm32f3xx_hal_flash.c ****   else
 286:Drivers/STM32F3xx_HAL_Driver/Src/stm32f3xx_hal_flash.c ****   {
 287:Drivers/STM32F3xx_HAL_Driver/Src/stm32f3xx_hal_flash.c ****     pFlash.ProcedureOnGoing = FLASH_PROC_PROGRAMDOUBLEWORD;
 288:Drivers/STM32F3xx_HAL_Driver/Src/stm32f3xx_hal_flash.c ****     /* Program double word (64-bit : 4*16-bit) at a specified address. */
 289:Drivers/STM32F3xx_HAL_Driver/Src/stm32f3xx_hal_flash.c ****     pFlash.DataRemaining = 4U;
 290:Drivers/STM32F3xx_HAL_Driver/Src/stm32f3xx_hal_flash.c ****   }
 291:Drivers/STM32F3xx_HAL_Driver/Src/stm32f3xx_hal_flash.c **** 
 292:Drivers/STM32F3xx_HAL_Driver/Src/stm32f3xx_hal_flash.c ****   /* Program halfword (16-bit) at a specified address. */
 293:Drivers/STM32F3xx_HAL_Driver/Src/stm32f3xx_hal_flash.c ****   FLASH_Program_HalfWord(Address, (uint16_t)Data);
 294:Drivers/STM32F3xx_HAL_Driver/Src/stm32f3xx_hal_flash.c **** 
 295:Drivers/STM32F3xx_HAL_Driver/Src/stm32f3xx_hal_flash.c ****   return status;
 296:Drivers/STM32F3xx_HAL_Driver/Src/stm32f3xx_hal_flash.c **** }
 297:Drivers/STM32F3xx_HAL_Driver/Src/stm32f3xx_hal_flash.c **** 
 298:Drivers/STM32F3xx_HAL_Driver/Src/stm32f3xx_hal_flash.c **** /**
 299:Drivers/STM32F3xx_HAL_Driver/Src/stm32f3xx_hal_flash.c ****   * @brief This function handles FLASH interrupt request.
 300:Drivers/STM32F3xx_HAL_Driver/Src/stm32f3xx_hal_flash.c ****   * @retval None
 301:Drivers/STM32F3xx_HAL_Driver/Src/stm32f3xx_hal_flash.c ****   */
 302:Drivers/STM32F3xx_HAL_Driver/Src/stm32f3xx_hal_flash.c **** void HAL_FLASH_IRQHandler(void)
 303:Drivers/STM32F3xx_HAL_Driver/Src/stm32f3xx_hal_flash.c **** {
 304:Drivers/STM32F3xx_HAL_Driver/Src/stm32f3xx_hal_flash.c ****   uint32_t addresstmp = 0U;
 305:Drivers/STM32F3xx_HAL_Driver/Src/stm32f3xx_hal_flash.c ****   
 306:Drivers/STM32F3xx_HAL_Driver/Src/stm32f3xx_hal_flash.c ****   /* Check FLASH operation error flags */
 307:Drivers/STM32F3xx_HAL_Driver/Src/stm32f3xx_hal_flash.c ****   if(__HAL_FLASH_GET_FLAG(FLASH_FLAG_WRPERR) ||__HAL_FLASH_GET_FLAG(FLASH_FLAG_PGERR))
 308:Drivers/STM32F3xx_HAL_Driver/Src/stm32f3xx_hal_flash.c ****   {
 309:Drivers/STM32F3xx_HAL_Driver/Src/stm32f3xx_hal_flash.c ****     /* Return the faulty address */
 310:Drivers/STM32F3xx_HAL_Driver/Src/stm32f3xx_hal_flash.c ****     addresstmp = pFlash.Address;
 311:Drivers/STM32F3xx_HAL_Driver/Src/stm32f3xx_hal_flash.c ****     /* Reset address */
 312:Drivers/STM32F3xx_HAL_Driver/Src/stm32f3xx_hal_flash.c ****     pFlash.Address = 0xFFFFFFFFU;
 313:Drivers/STM32F3xx_HAL_Driver/Src/stm32f3xx_hal_flash.c ****   
 314:Drivers/STM32F3xx_HAL_Driver/Src/stm32f3xx_hal_flash.c ****     /* Save the Error code */
 315:Drivers/STM32F3xx_HAL_Driver/Src/stm32f3xx_hal_flash.c ****     FLASH_SetErrorCode();
ARM GAS  /var/folders/8c/gyvcglfx7f97kbqb2h83mm_r0000gn/T//ccCOLaPk.s 			page 7


 316:Drivers/STM32F3xx_HAL_Driver/Src/stm32f3xx_hal_flash.c ****     
 317:Drivers/STM32F3xx_HAL_Driver/Src/stm32f3xx_hal_flash.c ****     /* FLASH error interrupt user callback */
 318:Drivers/STM32F3xx_HAL_Driver/Src/stm32f3xx_hal_flash.c ****     HAL_FLASH_OperationErrorCallback(addresstmp);
 319:Drivers/STM32F3xx_HAL_Driver/Src/stm32f3xx_hal_flash.c **** 
 320:Drivers/STM32F3xx_HAL_Driver/Src/stm32f3xx_hal_flash.c ****     /* Stop the procedure ongoing */
 321:Drivers/STM32F3xx_HAL_Driver/Src/stm32f3xx_hal_flash.c ****     pFlash.ProcedureOnGoing = FLASH_PROC_NONE;
 322:Drivers/STM32F3xx_HAL_Driver/Src/stm32f3xx_hal_flash.c ****   }
 323:Drivers/STM32F3xx_HAL_Driver/Src/stm32f3xx_hal_flash.c **** 
 324:Drivers/STM32F3xx_HAL_Driver/Src/stm32f3xx_hal_flash.c ****   /* Check FLASH End of Operation flag  */
 325:Drivers/STM32F3xx_HAL_Driver/Src/stm32f3xx_hal_flash.c ****   if(__HAL_FLASH_GET_FLAG(FLASH_FLAG_EOP))
 326:Drivers/STM32F3xx_HAL_Driver/Src/stm32f3xx_hal_flash.c ****   {
 327:Drivers/STM32F3xx_HAL_Driver/Src/stm32f3xx_hal_flash.c ****     /* Clear FLASH End of Operation pending bit */
 328:Drivers/STM32F3xx_HAL_Driver/Src/stm32f3xx_hal_flash.c ****     __HAL_FLASH_CLEAR_FLAG(FLASH_FLAG_EOP);
 329:Drivers/STM32F3xx_HAL_Driver/Src/stm32f3xx_hal_flash.c ****     
 330:Drivers/STM32F3xx_HAL_Driver/Src/stm32f3xx_hal_flash.c ****     /* Process can continue only if no error detected */
 331:Drivers/STM32F3xx_HAL_Driver/Src/stm32f3xx_hal_flash.c ****     if(pFlash.ProcedureOnGoing != FLASH_PROC_NONE)
 332:Drivers/STM32F3xx_HAL_Driver/Src/stm32f3xx_hal_flash.c ****     {
 333:Drivers/STM32F3xx_HAL_Driver/Src/stm32f3xx_hal_flash.c ****       if(pFlash.ProcedureOnGoing == FLASH_PROC_PAGEERASE)
 334:Drivers/STM32F3xx_HAL_Driver/Src/stm32f3xx_hal_flash.c ****       {
 335:Drivers/STM32F3xx_HAL_Driver/Src/stm32f3xx_hal_flash.c ****         /* Nb of pages to erased can be decreased */
 336:Drivers/STM32F3xx_HAL_Driver/Src/stm32f3xx_hal_flash.c ****         pFlash.DataRemaining--;
 337:Drivers/STM32F3xx_HAL_Driver/Src/stm32f3xx_hal_flash.c **** 
 338:Drivers/STM32F3xx_HAL_Driver/Src/stm32f3xx_hal_flash.c ****         /* Check if there are still pages to erase */
 339:Drivers/STM32F3xx_HAL_Driver/Src/stm32f3xx_hal_flash.c ****         if(pFlash.DataRemaining != 0U)
 340:Drivers/STM32F3xx_HAL_Driver/Src/stm32f3xx_hal_flash.c ****         {
 341:Drivers/STM32F3xx_HAL_Driver/Src/stm32f3xx_hal_flash.c ****           addresstmp = pFlash.Address;
 342:Drivers/STM32F3xx_HAL_Driver/Src/stm32f3xx_hal_flash.c ****           /*Indicate user which sector has been erased */
 343:Drivers/STM32F3xx_HAL_Driver/Src/stm32f3xx_hal_flash.c ****           HAL_FLASH_EndOfOperationCallback(addresstmp);
 344:Drivers/STM32F3xx_HAL_Driver/Src/stm32f3xx_hal_flash.c **** 
 345:Drivers/STM32F3xx_HAL_Driver/Src/stm32f3xx_hal_flash.c ****           /*Increment sector number*/
 346:Drivers/STM32F3xx_HAL_Driver/Src/stm32f3xx_hal_flash.c ****           addresstmp = pFlash.Address + FLASH_PAGE_SIZE;
 347:Drivers/STM32F3xx_HAL_Driver/Src/stm32f3xx_hal_flash.c ****           pFlash.Address = addresstmp;
 348:Drivers/STM32F3xx_HAL_Driver/Src/stm32f3xx_hal_flash.c **** 
 349:Drivers/STM32F3xx_HAL_Driver/Src/stm32f3xx_hal_flash.c ****           /* If the erase operation is completed, disable the PER Bit */
 350:Drivers/STM32F3xx_HAL_Driver/Src/stm32f3xx_hal_flash.c ****           CLEAR_BIT(FLASH->CR, FLASH_CR_PER);
 351:Drivers/STM32F3xx_HAL_Driver/Src/stm32f3xx_hal_flash.c **** 
 352:Drivers/STM32F3xx_HAL_Driver/Src/stm32f3xx_hal_flash.c ****           FLASH_PageErase(addresstmp);
 353:Drivers/STM32F3xx_HAL_Driver/Src/stm32f3xx_hal_flash.c ****         }
 354:Drivers/STM32F3xx_HAL_Driver/Src/stm32f3xx_hal_flash.c ****         else
 355:Drivers/STM32F3xx_HAL_Driver/Src/stm32f3xx_hal_flash.c ****         {
 356:Drivers/STM32F3xx_HAL_Driver/Src/stm32f3xx_hal_flash.c ****           /* No more pages to Erase, user callback can be called. */
 357:Drivers/STM32F3xx_HAL_Driver/Src/stm32f3xx_hal_flash.c ****           /* Reset Sector and stop Erase pages procedure */
 358:Drivers/STM32F3xx_HAL_Driver/Src/stm32f3xx_hal_flash.c ****           pFlash.Address = addresstmp = 0xFFFFFFFFU;
 359:Drivers/STM32F3xx_HAL_Driver/Src/stm32f3xx_hal_flash.c ****           pFlash.ProcedureOnGoing = FLASH_PROC_NONE;
 360:Drivers/STM32F3xx_HAL_Driver/Src/stm32f3xx_hal_flash.c ****           /* FLASH EOP interrupt user callback */
 361:Drivers/STM32F3xx_HAL_Driver/Src/stm32f3xx_hal_flash.c ****           HAL_FLASH_EndOfOperationCallback(addresstmp);
 362:Drivers/STM32F3xx_HAL_Driver/Src/stm32f3xx_hal_flash.c ****         }
 363:Drivers/STM32F3xx_HAL_Driver/Src/stm32f3xx_hal_flash.c ****       }
 364:Drivers/STM32F3xx_HAL_Driver/Src/stm32f3xx_hal_flash.c ****       else if(pFlash.ProcedureOnGoing == FLASH_PROC_MASSERASE)
 365:Drivers/STM32F3xx_HAL_Driver/Src/stm32f3xx_hal_flash.c ****       {
 366:Drivers/STM32F3xx_HAL_Driver/Src/stm32f3xx_hal_flash.c ****         /* Operation is completed, disable the MER Bit */
 367:Drivers/STM32F3xx_HAL_Driver/Src/stm32f3xx_hal_flash.c ****         CLEAR_BIT(FLASH->CR, FLASH_CR_MER);
 368:Drivers/STM32F3xx_HAL_Driver/Src/stm32f3xx_hal_flash.c **** 
 369:Drivers/STM32F3xx_HAL_Driver/Src/stm32f3xx_hal_flash.c ****           /* MassErase ended. Return the selected bank */
 370:Drivers/STM32F3xx_HAL_Driver/Src/stm32f3xx_hal_flash.c ****           /* FLASH EOP interrupt user callback */
 371:Drivers/STM32F3xx_HAL_Driver/Src/stm32f3xx_hal_flash.c ****           HAL_FLASH_EndOfOperationCallback(0U);
 372:Drivers/STM32F3xx_HAL_Driver/Src/stm32f3xx_hal_flash.c **** 
ARM GAS  /var/folders/8c/gyvcglfx7f97kbqb2h83mm_r0000gn/T//ccCOLaPk.s 			page 8


 373:Drivers/STM32F3xx_HAL_Driver/Src/stm32f3xx_hal_flash.c ****           /* Stop Mass Erase procedure*/
 374:Drivers/STM32F3xx_HAL_Driver/Src/stm32f3xx_hal_flash.c ****           pFlash.ProcedureOnGoing = FLASH_PROC_NONE;
 375:Drivers/STM32F3xx_HAL_Driver/Src/stm32f3xx_hal_flash.c ****         }
 376:Drivers/STM32F3xx_HAL_Driver/Src/stm32f3xx_hal_flash.c ****       else
 377:Drivers/STM32F3xx_HAL_Driver/Src/stm32f3xx_hal_flash.c ****       {
 378:Drivers/STM32F3xx_HAL_Driver/Src/stm32f3xx_hal_flash.c ****         /* Nb of 16-bit data to program can be decreased */
 379:Drivers/STM32F3xx_HAL_Driver/Src/stm32f3xx_hal_flash.c ****         pFlash.DataRemaining--;
 380:Drivers/STM32F3xx_HAL_Driver/Src/stm32f3xx_hal_flash.c ****         
 381:Drivers/STM32F3xx_HAL_Driver/Src/stm32f3xx_hal_flash.c ****         /* Check if there are still 16-bit data to program */
 382:Drivers/STM32F3xx_HAL_Driver/Src/stm32f3xx_hal_flash.c ****         if(pFlash.DataRemaining != 0U)
 383:Drivers/STM32F3xx_HAL_Driver/Src/stm32f3xx_hal_flash.c ****         {
 384:Drivers/STM32F3xx_HAL_Driver/Src/stm32f3xx_hal_flash.c ****           /* Increment address to 16-bit */
 385:Drivers/STM32F3xx_HAL_Driver/Src/stm32f3xx_hal_flash.c ****           pFlash.Address += 2U;
 386:Drivers/STM32F3xx_HAL_Driver/Src/stm32f3xx_hal_flash.c ****           addresstmp = pFlash.Address;
 387:Drivers/STM32F3xx_HAL_Driver/Src/stm32f3xx_hal_flash.c ****           
 388:Drivers/STM32F3xx_HAL_Driver/Src/stm32f3xx_hal_flash.c ****           /* Shift to have next 16-bit data */
 389:Drivers/STM32F3xx_HAL_Driver/Src/stm32f3xx_hal_flash.c ****           pFlash.Data = (pFlash.Data >> 16U);
 390:Drivers/STM32F3xx_HAL_Driver/Src/stm32f3xx_hal_flash.c ****           
 391:Drivers/STM32F3xx_HAL_Driver/Src/stm32f3xx_hal_flash.c ****           /* Operation is completed, disable the PG Bit */
 392:Drivers/STM32F3xx_HAL_Driver/Src/stm32f3xx_hal_flash.c ****           CLEAR_BIT(FLASH->CR, FLASH_CR_PG);
 393:Drivers/STM32F3xx_HAL_Driver/Src/stm32f3xx_hal_flash.c **** 
 394:Drivers/STM32F3xx_HAL_Driver/Src/stm32f3xx_hal_flash.c ****           /*Program halfword (16-bit) at a specified address.*/
 395:Drivers/STM32F3xx_HAL_Driver/Src/stm32f3xx_hal_flash.c ****           FLASH_Program_HalfWord(addresstmp, (uint16_t)pFlash.Data);
 396:Drivers/STM32F3xx_HAL_Driver/Src/stm32f3xx_hal_flash.c ****         }
 397:Drivers/STM32F3xx_HAL_Driver/Src/stm32f3xx_hal_flash.c ****         else
 398:Drivers/STM32F3xx_HAL_Driver/Src/stm32f3xx_hal_flash.c ****         {
 399:Drivers/STM32F3xx_HAL_Driver/Src/stm32f3xx_hal_flash.c ****           /* Program ended. Return the selected address */
 400:Drivers/STM32F3xx_HAL_Driver/Src/stm32f3xx_hal_flash.c ****           /* FLASH EOP interrupt user callback */
 401:Drivers/STM32F3xx_HAL_Driver/Src/stm32f3xx_hal_flash.c ****           if (pFlash.ProcedureOnGoing == FLASH_PROC_PROGRAMHALFWORD)
 402:Drivers/STM32F3xx_HAL_Driver/Src/stm32f3xx_hal_flash.c ****           {
 403:Drivers/STM32F3xx_HAL_Driver/Src/stm32f3xx_hal_flash.c ****             HAL_FLASH_EndOfOperationCallback(pFlash.Address);
 404:Drivers/STM32F3xx_HAL_Driver/Src/stm32f3xx_hal_flash.c ****           }
 405:Drivers/STM32F3xx_HAL_Driver/Src/stm32f3xx_hal_flash.c ****           else if (pFlash.ProcedureOnGoing == FLASH_PROC_PROGRAMWORD)
 406:Drivers/STM32F3xx_HAL_Driver/Src/stm32f3xx_hal_flash.c ****           {
 407:Drivers/STM32F3xx_HAL_Driver/Src/stm32f3xx_hal_flash.c ****             HAL_FLASH_EndOfOperationCallback(pFlash.Address - 2U);
 408:Drivers/STM32F3xx_HAL_Driver/Src/stm32f3xx_hal_flash.c ****           }
 409:Drivers/STM32F3xx_HAL_Driver/Src/stm32f3xx_hal_flash.c ****           else 
 410:Drivers/STM32F3xx_HAL_Driver/Src/stm32f3xx_hal_flash.c ****           {
 411:Drivers/STM32F3xx_HAL_Driver/Src/stm32f3xx_hal_flash.c ****             HAL_FLASH_EndOfOperationCallback(pFlash.Address - 6U);
 412:Drivers/STM32F3xx_HAL_Driver/Src/stm32f3xx_hal_flash.c ****           }
 413:Drivers/STM32F3xx_HAL_Driver/Src/stm32f3xx_hal_flash.c ****         
 414:Drivers/STM32F3xx_HAL_Driver/Src/stm32f3xx_hal_flash.c ****           /* Reset Address and stop Program procedure */
 415:Drivers/STM32F3xx_HAL_Driver/Src/stm32f3xx_hal_flash.c ****           pFlash.Address = 0xFFFFFFFFU;
 416:Drivers/STM32F3xx_HAL_Driver/Src/stm32f3xx_hal_flash.c ****           pFlash.ProcedureOnGoing = FLASH_PROC_NONE;
 417:Drivers/STM32F3xx_HAL_Driver/Src/stm32f3xx_hal_flash.c ****         }
 418:Drivers/STM32F3xx_HAL_Driver/Src/stm32f3xx_hal_flash.c ****       }
 419:Drivers/STM32F3xx_HAL_Driver/Src/stm32f3xx_hal_flash.c ****     }
 420:Drivers/STM32F3xx_HAL_Driver/Src/stm32f3xx_hal_flash.c ****   }
 421:Drivers/STM32F3xx_HAL_Driver/Src/stm32f3xx_hal_flash.c ****   
 422:Drivers/STM32F3xx_HAL_Driver/Src/stm32f3xx_hal_flash.c **** 
 423:Drivers/STM32F3xx_HAL_Driver/Src/stm32f3xx_hal_flash.c ****   if(pFlash.ProcedureOnGoing == FLASH_PROC_NONE)
 424:Drivers/STM32F3xx_HAL_Driver/Src/stm32f3xx_hal_flash.c ****   {
 425:Drivers/STM32F3xx_HAL_Driver/Src/stm32f3xx_hal_flash.c ****     /* Operation is completed, disable the PG, PER and MER Bits */
 426:Drivers/STM32F3xx_HAL_Driver/Src/stm32f3xx_hal_flash.c ****     CLEAR_BIT(FLASH->CR, (FLASH_CR_PG | FLASH_CR_PER | FLASH_CR_MER));
 427:Drivers/STM32F3xx_HAL_Driver/Src/stm32f3xx_hal_flash.c **** 
 428:Drivers/STM32F3xx_HAL_Driver/Src/stm32f3xx_hal_flash.c ****     /* Disable End of FLASH Operation and Error source interrupts */
 429:Drivers/STM32F3xx_HAL_Driver/Src/stm32f3xx_hal_flash.c ****     __HAL_FLASH_DISABLE_IT(FLASH_IT_EOP | FLASH_IT_ERR);
ARM GAS  /var/folders/8c/gyvcglfx7f97kbqb2h83mm_r0000gn/T//ccCOLaPk.s 			page 9


 430:Drivers/STM32F3xx_HAL_Driver/Src/stm32f3xx_hal_flash.c **** 
 431:Drivers/STM32F3xx_HAL_Driver/Src/stm32f3xx_hal_flash.c ****     /* Process Unlocked */
 432:Drivers/STM32F3xx_HAL_Driver/Src/stm32f3xx_hal_flash.c ****     __HAL_UNLOCK(&pFlash);
 433:Drivers/STM32F3xx_HAL_Driver/Src/stm32f3xx_hal_flash.c ****   }
 434:Drivers/STM32F3xx_HAL_Driver/Src/stm32f3xx_hal_flash.c **** }
 435:Drivers/STM32F3xx_HAL_Driver/Src/stm32f3xx_hal_flash.c **** 
 436:Drivers/STM32F3xx_HAL_Driver/Src/stm32f3xx_hal_flash.c **** /**
 437:Drivers/STM32F3xx_HAL_Driver/Src/stm32f3xx_hal_flash.c ****   * @brief  FLASH end of operation interrupt callback
 438:Drivers/STM32F3xx_HAL_Driver/Src/stm32f3xx_hal_flash.c ****   * @param  ReturnValue The value saved in this parameter depends on the ongoing procedure
 439:Drivers/STM32F3xx_HAL_Driver/Src/stm32f3xx_hal_flash.c ****   *                 - Mass Erase: No return value expected
 440:Drivers/STM32F3xx_HAL_Driver/Src/stm32f3xx_hal_flash.c ****   *                 - Pages Erase: Address of the page which has been erased 
 441:Drivers/STM32F3xx_HAL_Driver/Src/stm32f3xx_hal_flash.c ****   *                    (if 0xFFFFFFFF, it means that all the selected pages have been erased)
 442:Drivers/STM32F3xx_HAL_Driver/Src/stm32f3xx_hal_flash.c ****   *                 - Program: Address which was selected for data program
 443:Drivers/STM32F3xx_HAL_Driver/Src/stm32f3xx_hal_flash.c ****   * @retval none
 444:Drivers/STM32F3xx_HAL_Driver/Src/stm32f3xx_hal_flash.c ****   */
 445:Drivers/STM32F3xx_HAL_Driver/Src/stm32f3xx_hal_flash.c **** __weak void HAL_FLASH_EndOfOperationCallback(uint32_t ReturnValue)
 446:Drivers/STM32F3xx_HAL_Driver/Src/stm32f3xx_hal_flash.c **** {
 447:Drivers/STM32F3xx_HAL_Driver/Src/stm32f3xx_hal_flash.c ****   /* Prevent unused argument(s) compilation warning */
 448:Drivers/STM32F3xx_HAL_Driver/Src/stm32f3xx_hal_flash.c ****   UNUSED(ReturnValue);
 449:Drivers/STM32F3xx_HAL_Driver/Src/stm32f3xx_hal_flash.c **** 
 450:Drivers/STM32F3xx_HAL_Driver/Src/stm32f3xx_hal_flash.c ****   /* NOTE : This function Should not be modified, when the callback is needed,
 451:Drivers/STM32F3xx_HAL_Driver/Src/stm32f3xx_hal_flash.c ****             the HAL_FLASH_EndOfOperationCallback could be implemented in the user file
 452:Drivers/STM32F3xx_HAL_Driver/Src/stm32f3xx_hal_flash.c ****    */ 
 453:Drivers/STM32F3xx_HAL_Driver/Src/stm32f3xx_hal_flash.c **** }
 454:Drivers/STM32F3xx_HAL_Driver/Src/stm32f3xx_hal_flash.c **** 
 455:Drivers/STM32F3xx_HAL_Driver/Src/stm32f3xx_hal_flash.c **** /**
 456:Drivers/STM32F3xx_HAL_Driver/Src/stm32f3xx_hal_flash.c ****   * @brief  FLASH operation error interrupt callback
 457:Drivers/STM32F3xx_HAL_Driver/Src/stm32f3xx_hal_flash.c ****   * @param  ReturnValue The value saved in this parameter depends on the ongoing procedure
 458:Drivers/STM32F3xx_HAL_Driver/Src/stm32f3xx_hal_flash.c ****   *                 - Mass Erase: No return value expected
 459:Drivers/STM32F3xx_HAL_Driver/Src/stm32f3xx_hal_flash.c ****   *                 - Pages Erase: Address of the page which returned an error
 460:Drivers/STM32F3xx_HAL_Driver/Src/stm32f3xx_hal_flash.c ****   *                 - Program: Address which was selected for data program
 461:Drivers/STM32F3xx_HAL_Driver/Src/stm32f3xx_hal_flash.c ****   * @retval none
 462:Drivers/STM32F3xx_HAL_Driver/Src/stm32f3xx_hal_flash.c ****   */
 463:Drivers/STM32F3xx_HAL_Driver/Src/stm32f3xx_hal_flash.c **** __weak void HAL_FLASH_OperationErrorCallback(uint32_t ReturnValue)
 464:Drivers/STM32F3xx_HAL_Driver/Src/stm32f3xx_hal_flash.c **** {
 465:Drivers/STM32F3xx_HAL_Driver/Src/stm32f3xx_hal_flash.c ****   /* Prevent unused argument(s) compilation warning */
 466:Drivers/STM32F3xx_HAL_Driver/Src/stm32f3xx_hal_flash.c ****   UNUSED(ReturnValue);
 467:Drivers/STM32F3xx_HAL_Driver/Src/stm32f3xx_hal_flash.c **** 
 468:Drivers/STM32F3xx_HAL_Driver/Src/stm32f3xx_hal_flash.c ****   /* NOTE : This function Should not be modified, when the callback is needed,
 469:Drivers/STM32F3xx_HAL_Driver/Src/stm32f3xx_hal_flash.c ****             the HAL_FLASH_OperationErrorCallback could be implemented in the user file
 470:Drivers/STM32F3xx_HAL_Driver/Src/stm32f3xx_hal_flash.c ****    */ 
 471:Drivers/STM32F3xx_HAL_Driver/Src/stm32f3xx_hal_flash.c **** }
 472:Drivers/STM32F3xx_HAL_Driver/Src/stm32f3xx_hal_flash.c **** 
 473:Drivers/STM32F3xx_HAL_Driver/Src/stm32f3xx_hal_flash.c **** /**
 474:Drivers/STM32F3xx_HAL_Driver/Src/stm32f3xx_hal_flash.c ****   * @}
 475:Drivers/STM32F3xx_HAL_Driver/Src/stm32f3xx_hal_flash.c ****   */
 476:Drivers/STM32F3xx_HAL_Driver/Src/stm32f3xx_hal_flash.c **** 
 477:Drivers/STM32F3xx_HAL_Driver/Src/stm32f3xx_hal_flash.c **** /** @defgroup FLASH_Exported_Functions_Group2 Peripheral Control functions 
 478:Drivers/STM32F3xx_HAL_Driver/Src/stm32f3xx_hal_flash.c ****  *  @brief   management functions 
 479:Drivers/STM32F3xx_HAL_Driver/Src/stm32f3xx_hal_flash.c ****  *
 480:Drivers/STM32F3xx_HAL_Driver/Src/stm32f3xx_hal_flash.c **** @verbatim   
 481:Drivers/STM32F3xx_HAL_Driver/Src/stm32f3xx_hal_flash.c ****  ===============================================================================
 482:Drivers/STM32F3xx_HAL_Driver/Src/stm32f3xx_hal_flash.c ****                       ##### Peripheral Control functions #####
 483:Drivers/STM32F3xx_HAL_Driver/Src/stm32f3xx_hal_flash.c ****  ===============================================================================  
 484:Drivers/STM32F3xx_HAL_Driver/Src/stm32f3xx_hal_flash.c ****     [..]
 485:Drivers/STM32F3xx_HAL_Driver/Src/stm32f3xx_hal_flash.c ****     This subsection provides a set of functions allowing to control the FLASH 
 486:Drivers/STM32F3xx_HAL_Driver/Src/stm32f3xx_hal_flash.c ****     memory operations.
ARM GAS  /var/folders/8c/gyvcglfx7f97kbqb2h83mm_r0000gn/T//ccCOLaPk.s 			page 10


 487:Drivers/STM32F3xx_HAL_Driver/Src/stm32f3xx_hal_flash.c **** 
 488:Drivers/STM32F3xx_HAL_Driver/Src/stm32f3xx_hal_flash.c **** @endverbatim
 489:Drivers/STM32F3xx_HAL_Driver/Src/stm32f3xx_hal_flash.c ****   * @{
 490:Drivers/STM32F3xx_HAL_Driver/Src/stm32f3xx_hal_flash.c ****   */
 491:Drivers/STM32F3xx_HAL_Driver/Src/stm32f3xx_hal_flash.c **** 
 492:Drivers/STM32F3xx_HAL_Driver/Src/stm32f3xx_hal_flash.c **** /**
 493:Drivers/STM32F3xx_HAL_Driver/Src/stm32f3xx_hal_flash.c ****   * @brief  Unlock the FLASH control register access
 494:Drivers/STM32F3xx_HAL_Driver/Src/stm32f3xx_hal_flash.c ****   * @retval HAL Status
 495:Drivers/STM32F3xx_HAL_Driver/Src/stm32f3xx_hal_flash.c ****   */
 496:Drivers/STM32F3xx_HAL_Driver/Src/stm32f3xx_hal_flash.c **** HAL_StatusTypeDef HAL_FLASH_Unlock(void)
 497:Drivers/STM32F3xx_HAL_Driver/Src/stm32f3xx_hal_flash.c **** {
 498:Drivers/STM32F3xx_HAL_Driver/Src/stm32f3xx_hal_flash.c ****   HAL_StatusTypeDef status = HAL_OK;
 499:Drivers/STM32F3xx_HAL_Driver/Src/stm32f3xx_hal_flash.c **** 
 500:Drivers/STM32F3xx_HAL_Driver/Src/stm32f3xx_hal_flash.c ****   if(READ_BIT(FLASH->CR, FLASH_CR_LOCK) != RESET)
 501:Drivers/STM32F3xx_HAL_Driver/Src/stm32f3xx_hal_flash.c ****   {
 502:Drivers/STM32F3xx_HAL_Driver/Src/stm32f3xx_hal_flash.c ****     /* Authorize the FLASH Registers access */
 503:Drivers/STM32F3xx_HAL_Driver/Src/stm32f3xx_hal_flash.c ****     WRITE_REG(FLASH->KEYR, FLASH_KEY1);
 504:Drivers/STM32F3xx_HAL_Driver/Src/stm32f3xx_hal_flash.c ****     WRITE_REG(FLASH->KEYR, FLASH_KEY2);
 505:Drivers/STM32F3xx_HAL_Driver/Src/stm32f3xx_hal_flash.c **** 
 506:Drivers/STM32F3xx_HAL_Driver/Src/stm32f3xx_hal_flash.c ****     /* Verify Flash is unlocked */
 507:Drivers/STM32F3xx_HAL_Driver/Src/stm32f3xx_hal_flash.c ****     if(READ_BIT(FLASH->CR, FLASH_CR_LOCK) != RESET)
 508:Drivers/STM32F3xx_HAL_Driver/Src/stm32f3xx_hal_flash.c ****     {
 509:Drivers/STM32F3xx_HAL_Driver/Src/stm32f3xx_hal_flash.c ****       status = HAL_ERROR;
 510:Drivers/STM32F3xx_HAL_Driver/Src/stm32f3xx_hal_flash.c ****     }
 511:Drivers/STM32F3xx_HAL_Driver/Src/stm32f3xx_hal_flash.c ****   }
 512:Drivers/STM32F3xx_HAL_Driver/Src/stm32f3xx_hal_flash.c **** 
 513:Drivers/STM32F3xx_HAL_Driver/Src/stm32f3xx_hal_flash.c ****   return status;
 514:Drivers/STM32F3xx_HAL_Driver/Src/stm32f3xx_hal_flash.c **** }
 515:Drivers/STM32F3xx_HAL_Driver/Src/stm32f3xx_hal_flash.c **** 
 516:Drivers/STM32F3xx_HAL_Driver/Src/stm32f3xx_hal_flash.c **** /**
 517:Drivers/STM32F3xx_HAL_Driver/Src/stm32f3xx_hal_flash.c ****   * @brief  Locks the FLASH control register access
 518:Drivers/STM32F3xx_HAL_Driver/Src/stm32f3xx_hal_flash.c ****   * @retval HAL Status
 519:Drivers/STM32F3xx_HAL_Driver/Src/stm32f3xx_hal_flash.c ****   */
 520:Drivers/STM32F3xx_HAL_Driver/Src/stm32f3xx_hal_flash.c **** HAL_StatusTypeDef HAL_FLASH_Lock(void)
 521:Drivers/STM32F3xx_HAL_Driver/Src/stm32f3xx_hal_flash.c **** {
 522:Drivers/STM32F3xx_HAL_Driver/Src/stm32f3xx_hal_flash.c ****   /* Set the LOCK Bit to lock the FLASH Registers access */
 523:Drivers/STM32F3xx_HAL_Driver/Src/stm32f3xx_hal_flash.c ****   SET_BIT(FLASH->CR, FLASH_CR_LOCK);
 524:Drivers/STM32F3xx_HAL_Driver/Src/stm32f3xx_hal_flash.c ****   
 525:Drivers/STM32F3xx_HAL_Driver/Src/stm32f3xx_hal_flash.c ****   return HAL_OK;  
 526:Drivers/STM32F3xx_HAL_Driver/Src/stm32f3xx_hal_flash.c **** }
 527:Drivers/STM32F3xx_HAL_Driver/Src/stm32f3xx_hal_flash.c **** 
 528:Drivers/STM32F3xx_HAL_Driver/Src/stm32f3xx_hal_flash.c **** /**
 529:Drivers/STM32F3xx_HAL_Driver/Src/stm32f3xx_hal_flash.c ****   * @brief  Unlock the FLASH Option Control Registers access.
 530:Drivers/STM32F3xx_HAL_Driver/Src/stm32f3xx_hal_flash.c ****   * @retval HAL Status
 531:Drivers/STM32F3xx_HAL_Driver/Src/stm32f3xx_hal_flash.c ****   */
 532:Drivers/STM32F3xx_HAL_Driver/Src/stm32f3xx_hal_flash.c **** HAL_StatusTypeDef HAL_FLASH_OB_Unlock(void)
 533:Drivers/STM32F3xx_HAL_Driver/Src/stm32f3xx_hal_flash.c **** {
 534:Drivers/STM32F3xx_HAL_Driver/Src/stm32f3xx_hal_flash.c ****   if (HAL_IS_BIT_CLR(FLASH->CR, FLASH_CR_OPTWRE))
 535:Drivers/STM32F3xx_HAL_Driver/Src/stm32f3xx_hal_flash.c ****   {
 536:Drivers/STM32F3xx_HAL_Driver/Src/stm32f3xx_hal_flash.c ****     /* Authorizes the Option Byte register programming */
 537:Drivers/STM32F3xx_HAL_Driver/Src/stm32f3xx_hal_flash.c ****     WRITE_REG(FLASH->OPTKEYR, FLASH_OPTKEY1);
 538:Drivers/STM32F3xx_HAL_Driver/Src/stm32f3xx_hal_flash.c ****     WRITE_REG(FLASH->OPTKEYR, FLASH_OPTKEY2);
 539:Drivers/STM32F3xx_HAL_Driver/Src/stm32f3xx_hal_flash.c ****   }
 540:Drivers/STM32F3xx_HAL_Driver/Src/stm32f3xx_hal_flash.c ****   else
 541:Drivers/STM32F3xx_HAL_Driver/Src/stm32f3xx_hal_flash.c ****   {
 542:Drivers/STM32F3xx_HAL_Driver/Src/stm32f3xx_hal_flash.c ****     return HAL_ERROR;
 543:Drivers/STM32F3xx_HAL_Driver/Src/stm32f3xx_hal_flash.c ****   }  
ARM GAS  /var/folders/8c/gyvcglfx7f97kbqb2h83mm_r0000gn/T//ccCOLaPk.s 			page 11


 544:Drivers/STM32F3xx_HAL_Driver/Src/stm32f3xx_hal_flash.c ****   
 545:Drivers/STM32F3xx_HAL_Driver/Src/stm32f3xx_hal_flash.c ****   return HAL_OK;  
 546:Drivers/STM32F3xx_HAL_Driver/Src/stm32f3xx_hal_flash.c **** }
 547:Drivers/STM32F3xx_HAL_Driver/Src/stm32f3xx_hal_flash.c **** 
 548:Drivers/STM32F3xx_HAL_Driver/Src/stm32f3xx_hal_flash.c **** /**
 549:Drivers/STM32F3xx_HAL_Driver/Src/stm32f3xx_hal_flash.c ****   * @brief  Lock the FLASH Option Control Registers access.
 550:Drivers/STM32F3xx_HAL_Driver/Src/stm32f3xx_hal_flash.c ****   * @retval HAL Status 
 551:Drivers/STM32F3xx_HAL_Driver/Src/stm32f3xx_hal_flash.c ****   */
 552:Drivers/STM32F3xx_HAL_Driver/Src/stm32f3xx_hal_flash.c **** HAL_StatusTypeDef HAL_FLASH_OB_Lock(void)
 553:Drivers/STM32F3xx_HAL_Driver/Src/stm32f3xx_hal_flash.c **** {
 554:Drivers/STM32F3xx_HAL_Driver/Src/stm32f3xx_hal_flash.c ****   /* Clear the OPTWRE Bit to lock the FLASH Option Byte Registers access */
 555:Drivers/STM32F3xx_HAL_Driver/Src/stm32f3xx_hal_flash.c ****   CLEAR_BIT(FLASH->CR, FLASH_CR_OPTWRE);
 556:Drivers/STM32F3xx_HAL_Driver/Src/stm32f3xx_hal_flash.c ****   
 557:Drivers/STM32F3xx_HAL_Driver/Src/stm32f3xx_hal_flash.c ****   return HAL_OK;  
 558:Drivers/STM32F3xx_HAL_Driver/Src/stm32f3xx_hal_flash.c **** }
 559:Drivers/STM32F3xx_HAL_Driver/Src/stm32f3xx_hal_flash.c ****   
 560:Drivers/STM32F3xx_HAL_Driver/Src/stm32f3xx_hal_flash.c **** /**
 561:Drivers/STM32F3xx_HAL_Driver/Src/stm32f3xx_hal_flash.c ****   * @brief  Launch the option byte loading.
 562:Drivers/STM32F3xx_HAL_Driver/Src/stm32f3xx_hal_flash.c ****   * @note   This function will reset automatically the MCU.
 563:Drivers/STM32F3xx_HAL_Driver/Src/stm32f3xx_hal_flash.c ****   * @retval HAL Status
 564:Drivers/STM32F3xx_HAL_Driver/Src/stm32f3xx_hal_flash.c ****   */
 565:Drivers/STM32F3xx_HAL_Driver/Src/stm32f3xx_hal_flash.c **** HAL_StatusTypeDef HAL_FLASH_OB_Launch(void)
 566:Drivers/STM32F3xx_HAL_Driver/Src/stm32f3xx_hal_flash.c **** {
 567:Drivers/STM32F3xx_HAL_Driver/Src/stm32f3xx_hal_flash.c ****   /* Set the OBL_Launch bit to launch the option byte loading */
 568:Drivers/STM32F3xx_HAL_Driver/Src/stm32f3xx_hal_flash.c ****   SET_BIT(FLASH->CR, FLASH_CR_OBL_LAUNCH);
 569:Drivers/STM32F3xx_HAL_Driver/Src/stm32f3xx_hal_flash.c ****   
 570:Drivers/STM32F3xx_HAL_Driver/Src/stm32f3xx_hal_flash.c ****   /* Wait for last operation to be completed */
 571:Drivers/STM32F3xx_HAL_Driver/Src/stm32f3xx_hal_flash.c ****   return(FLASH_WaitForLastOperation(FLASH_TIMEOUT_VALUE));
 572:Drivers/STM32F3xx_HAL_Driver/Src/stm32f3xx_hal_flash.c **** }
 573:Drivers/STM32F3xx_HAL_Driver/Src/stm32f3xx_hal_flash.c **** 
 574:Drivers/STM32F3xx_HAL_Driver/Src/stm32f3xx_hal_flash.c **** /**
 575:Drivers/STM32F3xx_HAL_Driver/Src/stm32f3xx_hal_flash.c ****   * @}
 576:Drivers/STM32F3xx_HAL_Driver/Src/stm32f3xx_hal_flash.c ****   */  
 577:Drivers/STM32F3xx_HAL_Driver/Src/stm32f3xx_hal_flash.c **** 
 578:Drivers/STM32F3xx_HAL_Driver/Src/stm32f3xx_hal_flash.c **** /** @defgroup FLASH_Exported_Functions_Group3 Peripheral errors functions 
 579:Drivers/STM32F3xx_HAL_Driver/Src/stm32f3xx_hal_flash.c ****  *  @brief    Peripheral errors functions 
 580:Drivers/STM32F3xx_HAL_Driver/Src/stm32f3xx_hal_flash.c ****  *
 581:Drivers/STM32F3xx_HAL_Driver/Src/stm32f3xx_hal_flash.c **** @verbatim   
 582:Drivers/STM32F3xx_HAL_Driver/Src/stm32f3xx_hal_flash.c ****  ===============================================================================
 583:Drivers/STM32F3xx_HAL_Driver/Src/stm32f3xx_hal_flash.c ****                       ##### Peripheral Errors functions #####
 584:Drivers/STM32F3xx_HAL_Driver/Src/stm32f3xx_hal_flash.c ****  ===============================================================================  
 585:Drivers/STM32F3xx_HAL_Driver/Src/stm32f3xx_hal_flash.c ****     [..]
 586:Drivers/STM32F3xx_HAL_Driver/Src/stm32f3xx_hal_flash.c ****     This subsection permit to get in run-time errors of  the FLASH peripheral.
 587:Drivers/STM32F3xx_HAL_Driver/Src/stm32f3xx_hal_flash.c **** 
 588:Drivers/STM32F3xx_HAL_Driver/Src/stm32f3xx_hal_flash.c **** @endverbatim
 589:Drivers/STM32F3xx_HAL_Driver/Src/stm32f3xx_hal_flash.c ****   * @{
 590:Drivers/STM32F3xx_HAL_Driver/Src/stm32f3xx_hal_flash.c ****   */
 591:Drivers/STM32F3xx_HAL_Driver/Src/stm32f3xx_hal_flash.c **** 
 592:Drivers/STM32F3xx_HAL_Driver/Src/stm32f3xx_hal_flash.c **** /**
 593:Drivers/STM32F3xx_HAL_Driver/Src/stm32f3xx_hal_flash.c ****   * @brief  Get the specific FLASH error flag.
 594:Drivers/STM32F3xx_HAL_Driver/Src/stm32f3xx_hal_flash.c ****   * @retval FLASH_ErrorCode The returned value can be:
 595:Drivers/STM32F3xx_HAL_Driver/Src/stm32f3xx_hal_flash.c ****   *            @ref FLASH_Error_Codes
 596:Drivers/STM32F3xx_HAL_Driver/Src/stm32f3xx_hal_flash.c ****   */
 597:Drivers/STM32F3xx_HAL_Driver/Src/stm32f3xx_hal_flash.c **** uint32_t HAL_FLASH_GetError(void)
 598:Drivers/STM32F3xx_HAL_Driver/Src/stm32f3xx_hal_flash.c **** {
 599:Drivers/STM32F3xx_HAL_Driver/Src/stm32f3xx_hal_flash.c ****    return pFlash.ErrorCode;
 600:Drivers/STM32F3xx_HAL_Driver/Src/stm32f3xx_hal_flash.c **** }
ARM GAS  /var/folders/8c/gyvcglfx7f97kbqb2h83mm_r0000gn/T//ccCOLaPk.s 			page 12


 601:Drivers/STM32F3xx_HAL_Driver/Src/stm32f3xx_hal_flash.c **** 
 602:Drivers/STM32F3xx_HAL_Driver/Src/stm32f3xx_hal_flash.c **** /**
 603:Drivers/STM32F3xx_HAL_Driver/Src/stm32f3xx_hal_flash.c ****   * @}
 604:Drivers/STM32F3xx_HAL_Driver/Src/stm32f3xx_hal_flash.c ****   */
 605:Drivers/STM32F3xx_HAL_Driver/Src/stm32f3xx_hal_flash.c **** 
 606:Drivers/STM32F3xx_HAL_Driver/Src/stm32f3xx_hal_flash.c **** /**
 607:Drivers/STM32F3xx_HAL_Driver/Src/stm32f3xx_hal_flash.c ****   * @}
 608:Drivers/STM32F3xx_HAL_Driver/Src/stm32f3xx_hal_flash.c ****   */
 609:Drivers/STM32F3xx_HAL_Driver/Src/stm32f3xx_hal_flash.c **** 
 610:Drivers/STM32F3xx_HAL_Driver/Src/stm32f3xx_hal_flash.c **** /** @addtogroup FLASH_Private_Functions
 611:Drivers/STM32F3xx_HAL_Driver/Src/stm32f3xx_hal_flash.c ****  * @{
 612:Drivers/STM32F3xx_HAL_Driver/Src/stm32f3xx_hal_flash.c ****  */
 613:Drivers/STM32F3xx_HAL_Driver/Src/stm32f3xx_hal_flash.c **** 
 614:Drivers/STM32F3xx_HAL_Driver/Src/stm32f3xx_hal_flash.c **** /**
 615:Drivers/STM32F3xx_HAL_Driver/Src/stm32f3xx_hal_flash.c ****   * @brief  Program a half-word (16-bit) at a specified address.
 616:Drivers/STM32F3xx_HAL_Driver/Src/stm32f3xx_hal_flash.c ****   * @param  Address specify the address to be programmed.
 617:Drivers/STM32F3xx_HAL_Driver/Src/stm32f3xx_hal_flash.c ****   * @param  Data    specify the data to be programmed.
 618:Drivers/STM32F3xx_HAL_Driver/Src/stm32f3xx_hal_flash.c ****   * @retval None
 619:Drivers/STM32F3xx_HAL_Driver/Src/stm32f3xx_hal_flash.c ****   */
 620:Drivers/STM32F3xx_HAL_Driver/Src/stm32f3xx_hal_flash.c **** static void FLASH_Program_HalfWord(uint32_t Address, uint16_t Data)
 621:Drivers/STM32F3xx_HAL_Driver/Src/stm32f3xx_hal_flash.c **** {
 622:Drivers/STM32F3xx_HAL_Driver/Src/stm32f3xx_hal_flash.c ****   /* Clean the error context */
 623:Drivers/STM32F3xx_HAL_Driver/Src/stm32f3xx_hal_flash.c ****   pFlash.ErrorCode = HAL_FLASH_ERROR_NONE;
 624:Drivers/STM32F3xx_HAL_Driver/Src/stm32f3xx_hal_flash.c ****   
 625:Drivers/STM32F3xx_HAL_Driver/Src/stm32f3xx_hal_flash.c ****     /* Proceed to program the new data */
 626:Drivers/STM32F3xx_HAL_Driver/Src/stm32f3xx_hal_flash.c ****     SET_BIT(FLASH->CR, FLASH_CR_PG);
 627:Drivers/STM32F3xx_HAL_Driver/Src/stm32f3xx_hal_flash.c **** 
 628:Drivers/STM32F3xx_HAL_Driver/Src/stm32f3xx_hal_flash.c ****   /* Write data in the address */
 629:Drivers/STM32F3xx_HAL_Driver/Src/stm32f3xx_hal_flash.c ****   *(__IO uint16_t*)Address = Data;
 630:Drivers/STM32F3xx_HAL_Driver/Src/stm32f3xx_hal_flash.c **** }
 631:Drivers/STM32F3xx_HAL_Driver/Src/stm32f3xx_hal_flash.c **** 
 632:Drivers/STM32F3xx_HAL_Driver/Src/stm32f3xx_hal_flash.c **** /**
 633:Drivers/STM32F3xx_HAL_Driver/Src/stm32f3xx_hal_flash.c ****   * @brief  Wait for a FLASH operation to complete.
 634:Drivers/STM32F3xx_HAL_Driver/Src/stm32f3xx_hal_flash.c ****   * @param  Timeout  maximum flash operation timeout
 635:Drivers/STM32F3xx_HAL_Driver/Src/stm32f3xx_hal_flash.c ****   * @retval HAL Status
 636:Drivers/STM32F3xx_HAL_Driver/Src/stm32f3xx_hal_flash.c ****   */
 637:Drivers/STM32F3xx_HAL_Driver/Src/stm32f3xx_hal_flash.c **** HAL_StatusTypeDef FLASH_WaitForLastOperation(uint32_t Timeout)
 638:Drivers/STM32F3xx_HAL_Driver/Src/stm32f3xx_hal_flash.c **** {
 639:Drivers/STM32F3xx_HAL_Driver/Src/stm32f3xx_hal_flash.c ****   /* Wait for the FLASH operation to complete by polling on BUSY flag to be reset.
 640:Drivers/STM32F3xx_HAL_Driver/Src/stm32f3xx_hal_flash.c ****      Even if the FLASH operation fails, the BUSY flag will be reset and an error
 641:Drivers/STM32F3xx_HAL_Driver/Src/stm32f3xx_hal_flash.c ****      flag will be set */
 642:Drivers/STM32F3xx_HAL_Driver/Src/stm32f3xx_hal_flash.c ****      
 643:Drivers/STM32F3xx_HAL_Driver/Src/stm32f3xx_hal_flash.c ****   uint32_t tickstart = HAL_GetTick();
 644:Drivers/STM32F3xx_HAL_Driver/Src/stm32f3xx_hal_flash.c ****      
 645:Drivers/STM32F3xx_HAL_Driver/Src/stm32f3xx_hal_flash.c ****   while(__HAL_FLASH_GET_FLAG(FLASH_FLAG_BSY)) 
 646:Drivers/STM32F3xx_HAL_Driver/Src/stm32f3xx_hal_flash.c ****   { 
 647:Drivers/STM32F3xx_HAL_Driver/Src/stm32f3xx_hal_flash.c ****     if (Timeout != HAL_MAX_DELAY)
 648:Drivers/STM32F3xx_HAL_Driver/Src/stm32f3xx_hal_flash.c ****     {
 649:Drivers/STM32F3xx_HAL_Driver/Src/stm32f3xx_hal_flash.c ****       if((Timeout == 0U) || ((HAL_GetTick()-tickstart) > Timeout))
 650:Drivers/STM32F3xx_HAL_Driver/Src/stm32f3xx_hal_flash.c ****       {
 651:Drivers/STM32F3xx_HAL_Driver/Src/stm32f3xx_hal_flash.c ****         return HAL_TIMEOUT;
 652:Drivers/STM32F3xx_HAL_Driver/Src/stm32f3xx_hal_flash.c ****       }
 653:Drivers/STM32F3xx_HAL_Driver/Src/stm32f3xx_hal_flash.c ****     }
 654:Drivers/STM32F3xx_HAL_Driver/Src/stm32f3xx_hal_flash.c ****   }
 655:Drivers/STM32F3xx_HAL_Driver/Src/stm32f3xx_hal_flash.c ****   
 656:Drivers/STM32F3xx_HAL_Driver/Src/stm32f3xx_hal_flash.c ****   /* Check FLASH End of Operation flag  */
 657:Drivers/STM32F3xx_HAL_Driver/Src/stm32f3xx_hal_flash.c ****   if (__HAL_FLASH_GET_FLAG(FLASH_FLAG_EOP))
ARM GAS  /var/folders/8c/gyvcglfx7f97kbqb2h83mm_r0000gn/T//ccCOLaPk.s 			page 13


 658:Drivers/STM32F3xx_HAL_Driver/Src/stm32f3xx_hal_flash.c ****   {
 659:Drivers/STM32F3xx_HAL_Driver/Src/stm32f3xx_hal_flash.c ****     /* Clear FLASH End of Operation pending bit */
 660:Drivers/STM32F3xx_HAL_Driver/Src/stm32f3xx_hal_flash.c ****     __HAL_FLASH_CLEAR_FLAG(FLASH_FLAG_EOP);
 661:Drivers/STM32F3xx_HAL_Driver/Src/stm32f3xx_hal_flash.c ****   }
 662:Drivers/STM32F3xx_HAL_Driver/Src/stm32f3xx_hal_flash.c ****   
 663:Drivers/STM32F3xx_HAL_Driver/Src/stm32f3xx_hal_flash.c ****   if(__HAL_FLASH_GET_FLAG(FLASH_FLAG_WRPERR)  || 
 664:Drivers/STM32F3xx_HAL_Driver/Src/stm32f3xx_hal_flash.c ****      __HAL_FLASH_GET_FLAG(FLASH_FLAG_PGERR))
 665:Drivers/STM32F3xx_HAL_Driver/Src/stm32f3xx_hal_flash.c ****   {
 666:Drivers/STM32F3xx_HAL_Driver/Src/stm32f3xx_hal_flash.c ****     /*Save the error code*/
 667:Drivers/STM32F3xx_HAL_Driver/Src/stm32f3xx_hal_flash.c ****     FLASH_SetErrorCode();
 668:Drivers/STM32F3xx_HAL_Driver/Src/stm32f3xx_hal_flash.c ****     return HAL_ERROR;
 669:Drivers/STM32F3xx_HAL_Driver/Src/stm32f3xx_hal_flash.c ****   }
 670:Drivers/STM32F3xx_HAL_Driver/Src/stm32f3xx_hal_flash.c **** 
 671:Drivers/STM32F3xx_HAL_Driver/Src/stm32f3xx_hal_flash.c ****   /* There is no error flag set */
 672:Drivers/STM32F3xx_HAL_Driver/Src/stm32f3xx_hal_flash.c ****   return HAL_OK;
 673:Drivers/STM32F3xx_HAL_Driver/Src/stm32f3xx_hal_flash.c **** }
 674:Drivers/STM32F3xx_HAL_Driver/Src/stm32f3xx_hal_flash.c **** 
 675:Drivers/STM32F3xx_HAL_Driver/Src/stm32f3xx_hal_flash.c **** 
 676:Drivers/STM32F3xx_HAL_Driver/Src/stm32f3xx_hal_flash.c **** /**
 677:Drivers/STM32F3xx_HAL_Driver/Src/stm32f3xx_hal_flash.c ****   * @brief  Set the specific FLASH error flag.
 678:Drivers/STM32F3xx_HAL_Driver/Src/stm32f3xx_hal_flash.c ****   * @retval None
 679:Drivers/STM32F3xx_HAL_Driver/Src/stm32f3xx_hal_flash.c ****   */
 680:Drivers/STM32F3xx_HAL_Driver/Src/stm32f3xx_hal_flash.c **** static void FLASH_SetErrorCode(void)
 681:Drivers/STM32F3xx_HAL_Driver/Src/stm32f3xx_hal_flash.c **** {
  29              		.loc 1 681 1 view -0
  30              		.cfi_startproc
  31              		@ args = 0, pretend = 0, frame = 0
  32              		@ frame_needed = 0, uses_anonymous_args = 0
  33              		@ link register save eliminated.
 682:Drivers/STM32F3xx_HAL_Driver/Src/stm32f3xx_hal_flash.c ****   uint32_t flags = 0U;
  34              		.loc 1 682 3 view .LVU1
  35              	.LVL0:
 683:Drivers/STM32F3xx_HAL_Driver/Src/stm32f3xx_hal_flash.c ****   
 684:Drivers/STM32F3xx_HAL_Driver/Src/stm32f3xx_hal_flash.c ****   if(__HAL_FLASH_GET_FLAG(FLASH_FLAG_WRPERR))
  36              		.loc 1 684 3 view .LVU2
  37              		.loc 1 684 6 is_stmt 0 view .LVU3
  38 0000 0C4B     		ldr	r3, .L9
  39 0002 DB68     		ldr	r3, [r3, #12]
  40              		.loc 1 684 5 view .LVU4
  41 0004 13F01003 		ands	r3, r3, #16
  42 0008 05D0     		beq	.L2
 685:Drivers/STM32F3xx_HAL_Driver/Src/stm32f3xx_hal_flash.c ****   {
 686:Drivers/STM32F3xx_HAL_Driver/Src/stm32f3xx_hal_flash.c ****     pFlash.ErrorCode |= HAL_FLASH_ERROR_WRP;
  43              		.loc 1 686 5 is_stmt 1 view .LVU5
  44              		.loc 1 686 22 is_stmt 0 view .LVU6
  45 000a 0B4A     		ldr	r2, .L9+4
  46 000c D369     		ldr	r3, [r2, #28]
  47 000e 43F00203 		orr	r3, r3, #2
  48 0012 D361     		str	r3, [r2, #28]
 687:Drivers/STM32F3xx_HAL_Driver/Src/stm32f3xx_hal_flash.c ****     flags |= FLASH_FLAG_WRPERR;
  49              		.loc 1 687 5 is_stmt 1 view .LVU7
  50              	.LVL1:
  51              		.loc 1 687 11 is_stmt 0 view .LVU8
  52 0014 1023     		movs	r3, #16
  53              	.LVL2:
  54              	.L2:
 688:Drivers/STM32F3xx_HAL_Driver/Src/stm32f3xx_hal_flash.c ****   }
ARM GAS  /var/folders/8c/gyvcglfx7f97kbqb2h83mm_r0000gn/T//ccCOLaPk.s 			page 14


 689:Drivers/STM32F3xx_HAL_Driver/Src/stm32f3xx_hal_flash.c ****   if(__HAL_FLASH_GET_FLAG(FLASH_FLAG_PGERR))
  55              		.loc 1 689 3 is_stmt 1 view .LVU9
  56              		.loc 1 689 6 is_stmt 0 view .LVU10
  57 0016 074A     		ldr	r2, .L9
  58 0018 D268     		ldr	r2, [r2, #12]
  59              		.loc 1 689 5 view .LVU11
  60 001a 5207     		lsls	r2, r2, #29
  61 001c 06D5     		bpl	.L3
 690:Drivers/STM32F3xx_HAL_Driver/Src/stm32f3xx_hal_flash.c ****   {
 691:Drivers/STM32F3xx_HAL_Driver/Src/stm32f3xx_hal_flash.c ****     pFlash.ErrorCode |= HAL_FLASH_ERROR_PROG;
  62              		.loc 1 691 5 is_stmt 1 view .LVU12
  63              		.loc 1 691 22 is_stmt 0 view .LVU13
  64 001e 0649     		ldr	r1, .L9+4
  65 0020 CA69     		ldr	r2, [r1, #28]
  66 0022 42F00102 		orr	r2, r2, #1
 692:Drivers/STM32F3xx_HAL_Driver/Src/stm32f3xx_hal_flash.c ****     flags |= FLASH_FLAG_PGERR;
  67              		.loc 1 692 11 view .LVU14
  68 0026 43F00403 		orr	r3, r3, #4
  69              	.LVL3:
 691:Drivers/STM32F3xx_HAL_Driver/Src/stm32f3xx_hal_flash.c ****     flags |= FLASH_FLAG_PGERR;
  70              		.loc 1 691 22 view .LVU15
  71 002a CA61     		str	r2, [r1, #28]
  72              		.loc 1 692 5 is_stmt 1 view .LVU16
  73              	.LVL4:
  74              	.L3:
 693:Drivers/STM32F3xx_HAL_Driver/Src/stm32f3xx_hal_flash.c ****   }
 694:Drivers/STM32F3xx_HAL_Driver/Src/stm32f3xx_hal_flash.c ****   /* Clear FLASH error pending bits */
 695:Drivers/STM32F3xx_HAL_Driver/Src/stm32f3xx_hal_flash.c ****   __HAL_FLASH_CLEAR_FLAG(flags);
  75              		.loc 1 695 3 view .LVU17
  76 002c 014A     		ldr	r2, .L9
  77 002e D360     		str	r3, [r2, #12]
 696:Drivers/STM32F3xx_HAL_Driver/Src/stm32f3xx_hal_flash.c **** }  
  78              		.loc 1 696 1 is_stmt 0 view .LVU18
  79 0030 7047     		bx	lr
  80              	.L10:
  81 0032 00BF     		.align	2
  82              	.L9:
  83 0034 00200240 		.word	1073881088
  84 0038 00000000 		.word	pFlash
  85              		.cfi_endproc
  86              	.LFE139:
  88              		.section	.text.HAL_FLASH_Program_IT,"ax",%progbits
  89              		.align	1
  90              		.p2align 2,,3
  91              		.global	HAL_FLASH_Program_IT
  92              		.syntax unified
  93              		.thumb
  94              		.thumb_func
  95              		.fpu fpv4-sp-d16
  97              	HAL_FLASH_Program_IT:
  98              	.LVL5:
  99              	.LFB127:
 257:Drivers/STM32F3xx_HAL_Driver/Src/stm32f3xx_hal_flash.c ****   HAL_StatusTypeDef status = HAL_OK;
 100              		.loc 1 257 1 is_stmt 1 view -0
 101              		.cfi_startproc
 102              		@ args = 0, pretend = 0, frame = 0
 103              		@ frame_needed = 0, uses_anonymous_args = 0
ARM GAS  /var/folders/8c/gyvcglfx7f97kbqb2h83mm_r0000gn/T//ccCOLaPk.s 			page 15


 104              		@ link register save eliminated.
 258:Drivers/STM32F3xx_HAL_Driver/Src/stm32f3xx_hal_flash.c ****   
 105              		.loc 1 258 3 view .LVU20
 261:Drivers/STM32F3xx_HAL_Driver/Src/stm32f3xx_hal_flash.c **** 
 106              		.loc 1 261 3 view .LVU21
 261:Drivers/STM32F3xx_HAL_Driver/Src/stm32f3xx_hal_flash.c **** 
 107              		.loc 1 261 3 view .LVU22
 257:Drivers/STM32F3xx_HAL_Driver/Src/stm32f3xx_hal_flash.c ****   HAL_StatusTypeDef status = HAL_OK;
 108              		.loc 1 257 1 is_stmt 0 view .LVU23
 109 0000 2DE9F008 		push	{r4, r5, r6, r7, fp}
 110              	.LCFI0:
 111              		.cfi_def_cfa_offset 20
 112              		.cfi_offset 4, -20
 113              		.cfi_offset 5, -16
 114              		.cfi_offset 6, -12
 115              		.cfi_offset 7, -8
 116              		.cfi_offset 11, -4
 261:Drivers/STM32F3xx_HAL_Driver/Src/stm32f3xx_hal_flash.c **** 
 117              		.loc 1 261 3 view .LVU24
 118 0004 164C     		ldr	r4, .L19
 119 0006 257E     		ldrb	r5, [r4, #24]	@ zero_extendqisi2
 120 0008 012D     		cmp	r5, #1
 121 000a 25D0     		beq	.L16
 268:Drivers/STM32F3xx_HAL_Driver/Src/stm32f3xx_hal_flash.c ****   
 122              		.loc 1 268 3 discriminator 2 view .LVU25
 123 000c 154E     		ldr	r6, .L19+4
 124 000e 3569     		ldr	r5, [r6, #16]
 261:Drivers/STM32F3xx_HAL_Driver/Src/stm32f3xx_hal_flash.c **** 
 125              		.loc 1 261 3 discriminator 2 view .LVU26
 126 0010 0127     		movs	r7, #1
 127 0012 9346     		mov	fp, r2
 128 0014 9C46     		mov	ip, r3
 261:Drivers/STM32F3xx_HAL_Driver/Src/stm32f3xx_hal_flash.c **** 
 129              		.loc 1 261 3 is_stmt 1 discriminator 2 view .LVU27
 268:Drivers/STM32F3xx_HAL_Driver/Src/stm32f3xx_hal_flash.c ****   
 130              		.loc 1 268 3 is_stmt 0 discriminator 2 view .LVU28
 131 0016 45F4A055 		orr	r5, r5, #5120
 273:Drivers/STM32F3xx_HAL_Driver/Src/stm32f3xx_hal_flash.c ****   {
 132              		.loc 1 273 5 discriminator 2 view .LVU29
 133 001a B842     		cmp	r0, r7
 268:Drivers/STM32F3xx_HAL_Driver/Src/stm32f3xx_hal_flash.c ****   
 134              		.loc 1 268 3 discriminator 2 view .LVU30
 135 001c 3561     		str	r5, [r6, #16]
 270:Drivers/STM32F3xx_HAL_Driver/Src/stm32f3xx_hal_flash.c ****   pFlash.Data = Data;
 136              		.loc 1 270 18 discriminator 2 view .LVU31
 137 001e A160     		str	r1, [r4, #8]
 261:Drivers/STM32F3xx_HAL_Driver/Src/stm32f3xx_hal_flash.c **** 
 138              		.loc 1 261 3 discriminator 2 view .LVU32
 139 0020 2776     		strb	r7, [r4, #24]
 264:Drivers/STM32F3xx_HAL_Driver/Src/stm32f3xx_hal_flash.c ****   assert_param(IS_FLASH_PROGRAM_ADDRESS(Address));
 140              		.loc 1 264 3 is_stmt 1 discriminator 2 view .LVU33
 265:Drivers/STM32F3xx_HAL_Driver/Src/stm32f3xx_hal_flash.c **** 
 141              		.loc 1 265 3 discriminator 2 view .LVU34
 268:Drivers/STM32F3xx_HAL_Driver/Src/stm32f3xx_hal_flash.c ****   
 142              		.loc 1 268 3 discriminator 2 view .LVU35
 270:Drivers/STM32F3xx_HAL_Driver/Src/stm32f3xx_hal_flash.c ****   pFlash.Data = Data;
 143              		.loc 1 270 3 discriminator 2 view .LVU36
ARM GAS  /var/folders/8c/gyvcglfx7f97kbqb2h83mm_r0000gn/T//ccCOLaPk.s 			page 16


 271:Drivers/STM32F3xx_HAL_Driver/Src/stm32f3xx_hal_flash.c **** 
 144              		.loc 1 271 3 discriminator 2 view .LVU37
 271:Drivers/STM32F3xx_HAL_Driver/Src/stm32f3xx_hal_flash.c **** 
 145              		.loc 1 271 15 is_stmt 0 discriminator 2 view .LVU38
 146 0022 C4E904BC 		strd	fp, [r4, #16]
 273:Drivers/STM32F3xx_HAL_Driver/Src/stm32f3xx_hal_flash.c ****   {
 147              		.loc 1 273 3 is_stmt 1 discriminator 2 view .LVU39
 273:Drivers/STM32F3xx_HAL_Driver/Src/stm32f3xx_hal_flash.c ****   {
 148              		.loc 1 273 5 is_stmt 0 discriminator 2 view .LVU40
 149 0026 13D0     		beq	.L18
 279:Drivers/STM32F3xx_HAL_Driver/Src/stm32f3xx_hal_flash.c ****   {
 150              		.loc 1 279 8 is_stmt 1 view .LVU41
 279:Drivers/STM32F3xx_HAL_Driver/Src/stm32f3xx_hal_flash.c ****   {
 151              		.loc 1 279 10 is_stmt 0 view .LVU42
 152 0028 0228     		cmp	r0, #2
 281:Drivers/STM32F3xx_HAL_Driver/Src/stm32f3xx_hal_flash.c ****     /* Program word (32-bit : 2*16-bit) at a specified address. */
 153              		.loc 1 281 5 is_stmt 1 view .LVU43
 281:Drivers/STM32F3xx_HAL_Driver/Src/stm32f3xx_hal_flash.c ****     /* Program word (32-bit : 2*16-bit) at a specified address. */
 154              		.loc 1 281 29 is_stmt 0 view .LVU44
 155 002a 0EBF     		itee	eq
 156 002c 0425     		moveq	r5, #4
 287:Drivers/STM32F3xx_HAL_Driver/Src/stm32f3xx_hal_flash.c ****     /* Program double word (64-bit : 4*16-bit) at a specified address. */
 157              		.loc 1 287 5 is_stmt 1 view .LVU45
 287:Drivers/STM32F3xx_HAL_Driver/Src/stm32f3xx_hal_flash.c ****     /* Program double word (64-bit : 4*16-bit) at a specified address. */
 158              		.loc 1 287 29 is_stmt 0 view .LVU46
 159 002e 0525     		movne	r5, #5
 289:Drivers/STM32F3xx_HAL_Driver/Src/stm32f3xx_hal_flash.c ****   }
 160              		.loc 1 289 26 view .LVU47
 161 0030 0420     		movne	r0, #4
 162              	.LVL6:
 287:Drivers/STM32F3xx_HAL_Driver/Src/stm32f3xx_hal_flash.c ****     /* Program double word (64-bit : 4*16-bit) at a specified address. */
 163              		.loc 1 287 29 view .LVU48
 164 0032 2570     		strb	r5, [r4]
 289:Drivers/STM32F3xx_HAL_Driver/Src/stm32f3xx_hal_flash.c ****   }
 165              		.loc 1 289 5 is_stmt 1 view .LVU49
 289:Drivers/STM32F3xx_HAL_Driver/Src/stm32f3xx_hal_flash.c ****   }
 166              		.loc 1 289 26 is_stmt 0 view .LVU50
 167 0034 6060     		str	r0, [r4, #4]
 168              	.L14:
 293:Drivers/STM32F3xx_HAL_Driver/Src/stm32f3xx_hal_flash.c **** 
 169              		.loc 1 293 3 is_stmt 1 view .LVU51
 170              	.LBB8:
 171              	.LBB9:
 626:Drivers/STM32F3xx_HAL_Driver/Src/stm32f3xx_hal_flash.c **** 
 172              		.loc 1 626 5 is_stmt 0 view .LVU52
 173 0036 0B4D     		ldr	r5, .L19+4
 623:Drivers/STM32F3xx_HAL_Driver/Src/stm32f3xx_hal_flash.c ****   
 174              		.loc 1 623 20 view .LVU53
 175 0038 0020     		movs	r0, #0
 176 003a E061     		str	r0, [r4, #28]
 626:Drivers/STM32F3xx_HAL_Driver/Src/stm32f3xx_hal_flash.c **** 
 177              		.loc 1 626 5 view .LVU54
 178 003c 2B69     		ldr	r3, [r5, #16]
 179              	.LBE9:
 180              	.LBE8:
 293:Drivers/STM32F3xx_HAL_Driver/Src/stm32f3xx_hal_flash.c **** 
 181              		.loc 1 293 3 view .LVU55
ARM GAS  /var/folders/8c/gyvcglfx7f97kbqb2h83mm_r0000gn/T//ccCOLaPk.s 			page 17


 182 003e 1FFA8BF2 		uxth	r2, fp
 183              	.LVL7:
 184              	.LBB11:
 185              	.LBI8:
 620:Drivers/STM32F3xx_HAL_Driver/Src/stm32f3xx_hal_flash.c **** {
 186              		.loc 1 620 13 is_stmt 1 view .LVU56
 187              	.LBB10:
 623:Drivers/STM32F3xx_HAL_Driver/Src/stm32f3xx_hal_flash.c ****   
 188              		.loc 1 623 3 view .LVU57
 626:Drivers/STM32F3xx_HAL_Driver/Src/stm32f3xx_hal_flash.c **** 
 189              		.loc 1 626 5 view .LVU58
 190 0042 43F00103 		orr	r3, r3, #1
 191 0046 2B61     		str	r3, [r5, #16]
 629:Drivers/STM32F3xx_HAL_Driver/Src/stm32f3xx_hal_flash.c **** }
 192              		.loc 1 629 3 view .LVU59
 629:Drivers/STM32F3xx_HAL_Driver/Src/stm32f3xx_hal_flash.c **** }
 193              		.loc 1 629 28 is_stmt 0 view .LVU60
 194 0048 0A80     		strh	r2, [r1]	@ movhi
 195              	.LVL8:
 629:Drivers/STM32F3xx_HAL_Driver/Src/stm32f3xx_hal_flash.c **** }
 196              		.loc 1 629 28 view .LVU61
 197              	.LBE10:
 198              	.LBE11:
 295:Drivers/STM32F3xx_HAL_Driver/Src/stm32f3xx_hal_flash.c **** }
 199              		.loc 1 295 3 is_stmt 1 view .LVU62
 296:Drivers/STM32F3xx_HAL_Driver/Src/stm32f3xx_hal_flash.c **** 
 200              		.loc 1 296 1 is_stmt 0 view .LVU63
 201 004a BDE8F008 		pop	{r4, r5, r6, r7, fp}
 202              	.LCFI1:
 203              		.cfi_remember_state
 204              		.cfi_restore 11
 205              		.cfi_restore 7
 206              		.cfi_restore 6
 207              		.cfi_restore 5
 208              		.cfi_restore 4
 209              		.cfi_def_cfa_offset 0
 210 004e 7047     		bx	lr
 211              	.LVL9:
 212              	.L18:
 213              	.LCFI2:
 214              		.cfi_restore_state
 275:Drivers/STM32F3xx_HAL_Driver/Src/stm32f3xx_hal_flash.c ****     /* Program halfword (16-bit) at a specified address. */
 215              		.loc 1 275 5 is_stmt 1 view .LVU64
 275:Drivers/STM32F3xx_HAL_Driver/Src/stm32f3xx_hal_flash.c ****     /* Program halfword (16-bit) at a specified address. */
 216              		.loc 1 275 29 is_stmt 0 view .LVU65
 217 0050 0325     		movs	r5, #3
 218 0052 2570     		strb	r5, [r4]
 277:Drivers/STM32F3xx_HAL_Driver/Src/stm32f3xx_hal_flash.c ****   }
 219              		.loc 1 277 5 is_stmt 1 view .LVU66
 277:Drivers/STM32F3xx_HAL_Driver/Src/stm32f3xx_hal_flash.c ****   }
 220              		.loc 1 277 26 is_stmt 0 view .LVU67
 221 0054 6060     		str	r0, [r4, #4]
 222 0056 EEE7     		b	.L14
 223              	.L16:
 261:Drivers/STM32F3xx_HAL_Driver/Src/stm32f3xx_hal_flash.c **** 
 224              		.loc 1 261 3 view .LVU68
 225 0058 0220     		movs	r0, #2
ARM GAS  /var/folders/8c/gyvcglfx7f97kbqb2h83mm_r0000gn/T//ccCOLaPk.s 			page 18


 226              	.LVL10:
 296:Drivers/STM32F3xx_HAL_Driver/Src/stm32f3xx_hal_flash.c **** 
 227              		.loc 1 296 1 view .LVU69
 228 005a BDE8F008 		pop	{r4, r5, r6, r7, fp}
 229              	.LCFI3:
 230              		.cfi_restore 11
 231              		.cfi_restore 7
 232              		.cfi_restore 6
 233              		.cfi_restore 5
 234              		.cfi_restore 4
 235              		.cfi_def_cfa_offset 0
 236 005e 7047     		bx	lr
 237              	.L20:
 238              		.align	2
 239              	.L19:
 240 0060 00000000 		.word	pFlash
 241 0064 00200240 		.word	1073881088
 242              		.cfi_endproc
 243              	.LFE127:
 245              		.section	.text.HAL_FLASH_EndOfOperationCallback,"ax",%progbits
 246              		.align	1
 247              		.p2align 2,,3
 248              		.weak	HAL_FLASH_EndOfOperationCallback
 249              		.syntax unified
 250              		.thumb
 251              		.thumb_func
 252              		.fpu fpv4-sp-d16
 254              	HAL_FLASH_EndOfOperationCallback:
 255              	.LVL11:
 256              	.LFB129:
 446:Drivers/STM32F3xx_HAL_Driver/Src/stm32f3xx_hal_flash.c ****   /* Prevent unused argument(s) compilation warning */
 257              		.loc 1 446 1 is_stmt 1 view -0
 258              		.cfi_startproc
 259              		@ args = 0, pretend = 0, frame = 0
 260              		@ frame_needed = 0, uses_anonymous_args = 0
 261              		@ link register save eliminated.
 448:Drivers/STM32F3xx_HAL_Driver/Src/stm32f3xx_hal_flash.c **** 
 262              		.loc 1 448 3 view .LVU71
 453:Drivers/STM32F3xx_HAL_Driver/Src/stm32f3xx_hal_flash.c **** 
 263              		.loc 1 453 1 is_stmt 0 view .LVU72
 264 0000 7047     		bx	lr
 265              		.cfi_endproc
 266              	.LFE129:
 268 0002 00BF     		.section	.text.HAL_FLASH_OperationErrorCallback,"ax",%progbits
 269              		.align	1
 270              		.p2align 2,,3
 271              		.weak	HAL_FLASH_OperationErrorCallback
 272              		.syntax unified
 273              		.thumb
 274              		.thumb_func
 275              		.fpu fpv4-sp-d16
 277              	HAL_FLASH_OperationErrorCallback:
 278              	.LFB141:
 279              		.cfi_startproc
 280              		@ args = 0, pretend = 0, frame = 0
 281              		@ frame_needed = 0, uses_anonymous_args = 0
 282              		@ link register save eliminated.
ARM GAS  /var/folders/8c/gyvcglfx7f97kbqb2h83mm_r0000gn/T//ccCOLaPk.s 			page 19


 283 0000 7047     		bx	lr
 284              		.cfi_endproc
 285              	.LFE141:
 287 0002 00BF     		.section	.text.HAL_FLASH_IRQHandler,"ax",%progbits
 288              		.align	1
 289              		.p2align 2,,3
 290              		.global	HAL_FLASH_IRQHandler
 291              		.syntax unified
 292              		.thumb
 293              		.thumb_func
 294              		.fpu fpv4-sp-d16
 296              	HAL_FLASH_IRQHandler:
 297              	.LFB128:
 303:Drivers/STM32F3xx_HAL_Driver/Src/stm32f3xx_hal_flash.c ****   uint32_t addresstmp = 0U;
 298              		.loc 1 303 1 is_stmt 1 view -0
 299              		.cfi_startproc
 300              		@ args = 0, pretend = 0, frame = 0
 301              		@ frame_needed = 0, uses_anonymous_args = 0
 304:Drivers/STM32F3xx_HAL_Driver/Src/stm32f3xx_hal_flash.c ****   
 302              		.loc 1 304 3 view .LVU74
 303              	.LVL12:
 307:Drivers/STM32F3xx_HAL_Driver/Src/stm32f3xx_hal_flash.c ****   {
 304              		.loc 1 307 3 view .LVU75
 303:Drivers/STM32F3xx_HAL_Driver/Src/stm32f3xx_hal_flash.c ****   uint32_t addresstmp = 0U;
 305              		.loc 1 303 1 is_stmt 0 view .LVU76
 306 0000 2DE97848 		push	{r3, r4, r5, r6, fp, lr}
 307              	.LCFI4:
 308              		.cfi_def_cfa_offset 24
 309              		.cfi_offset 3, -24
 310              		.cfi_offset 4, -20
 311              		.cfi_offset 5, -16
 312              		.cfi_offset 6, -12
 313              		.cfi_offset 11, -8
 314              		.cfi_offset 14, -4
 307:Drivers/STM32F3xx_HAL_Driver/Src/stm32f3xx_hal_flash.c ****   {
 315              		.loc 1 307 6 view .LVU77
 316 0004 454B     		ldr	r3, .L47
 310:Drivers/STM32F3xx_HAL_Driver/Src/stm32f3xx_hal_flash.c ****     /* Reset address */
 317              		.loc 1 310 16 view .LVU78
 318 0006 464C     		ldr	r4, .L47+4
 307:Drivers/STM32F3xx_HAL_Driver/Src/stm32f3xx_hal_flash.c ****   {
 319              		.loc 1 307 6 view .LVU79
 320 0008 DA68     		ldr	r2, [r3, #12]
 307:Drivers/STM32F3xx_HAL_Driver/Src/stm32f3xx_hal_flash.c ****   {
 321              		.loc 1 307 5 view .LVU80
 322 000a D106     		lsls	r1, r2, #27
 323 000c 1AD4     		bmi	.L24
 307:Drivers/STM32F3xx_HAL_Driver/Src/stm32f3xx_hal_flash.c ****   {
 324              		.loc 1 307 48 discriminator 1 view .LVU81
 325 000e DB68     		ldr	r3, [r3, #12]
 307:Drivers/STM32F3xx_HAL_Driver/Src/stm32f3xx_hal_flash.c ****   {
 326              		.loc 1 307 46 discriminator 1 view .LVU82
 327 0010 5A07     		lsls	r2, r3, #29
 328 0012 17D4     		bmi	.L24
 329              	.LVL13:
 330              	.L25:
 325:Drivers/STM32F3xx_HAL_Driver/Src/stm32f3xx_hal_flash.c ****   {
ARM GAS  /var/folders/8c/gyvcglfx7f97kbqb2h83mm_r0000gn/T//ccCOLaPk.s 			page 20


 331              		.loc 1 325 3 is_stmt 1 view .LVU83
 325:Drivers/STM32F3xx_HAL_Driver/Src/stm32f3xx_hal_flash.c ****   {
 332              		.loc 1 325 6 is_stmt 0 view .LVU84
 333 0014 414D     		ldr	r5, .L47
 334 0016 EB68     		ldr	r3, [r5, #12]
 325:Drivers/STM32F3xx_HAL_Driver/Src/stm32f3xx_hal_flash.c ****   {
 335              		.loc 1 325 5 view .LVU85
 336 0018 9B06     		lsls	r3, r3, #26
 337 001a 03D5     		bpl	.L27
 328:Drivers/STM32F3xx_HAL_Driver/Src/stm32f3xx_hal_flash.c ****     
 338              		.loc 1 328 5 is_stmt 1 view .LVU86
 339 001c 2023     		movs	r3, #32
 340 001e EB60     		str	r3, [r5, #12]
 331:Drivers/STM32F3xx_HAL_Driver/Src/stm32f3xx_hal_flash.c ****     {
 341              		.loc 1 331 5 view .LVU87
 331:Drivers/STM32F3xx_HAL_Driver/Src/stm32f3xx_hal_flash.c ****     {
 342              		.loc 1 331 14 is_stmt 0 view .LVU88
 343 0020 2378     		ldrb	r3, [r4]	@ zero_extendqisi2
 331:Drivers/STM32F3xx_HAL_Driver/Src/stm32f3xx_hal_flash.c ****     {
 344              		.loc 1 331 7 view .LVU89
 345 0022 D3B9     		cbnz	r3, .L43
 346              	.L27:
 423:Drivers/STM32F3xx_HAL_Driver/Src/stm32f3xx_hal_flash.c ****   {
 347              		.loc 1 423 3 is_stmt 1 view .LVU90
 423:Drivers/STM32F3xx_HAL_Driver/Src/stm32f3xx_hal_flash.c ****   {
 348              		.loc 1 423 12 is_stmt 0 view .LVU91
 349 0024 2378     		ldrb	r3, [r4]	@ zero_extendqisi2
 423:Drivers/STM32F3xx_HAL_Driver/Src/stm32f3xx_hal_flash.c ****   {
 350              		.loc 1 423 5 view .LVU92
 351 0026 03F0FF01 		and	r1, r3, #255
 352 002a 4BB9     		cbnz	r3, .L23
 426:Drivers/STM32F3xx_HAL_Driver/Src/stm32f3xx_hal_flash.c **** 
 353              		.loc 1 426 5 is_stmt 1 view .LVU93
 354 002c 3B4B     		ldr	r3, .L47
 355 002e 1A69     		ldr	r2, [r3, #16]
 356 0030 22F00702 		bic	r2, r2, #7
 357 0034 1A61     		str	r2, [r3, #16]
 429:Drivers/STM32F3xx_HAL_Driver/Src/stm32f3xx_hal_flash.c **** 
 358              		.loc 1 429 5 view .LVU94
 359 0036 1A69     		ldr	r2, [r3, #16]
 360 0038 22F4A052 		bic	r2, r2, #5120
 361 003c 1A61     		str	r2, [r3, #16]
 432:Drivers/STM32F3xx_HAL_Driver/Src/stm32f3xx_hal_flash.c ****   }
 362              		.loc 1 432 5 view .LVU95
 432:Drivers/STM32F3xx_HAL_Driver/Src/stm32f3xx_hal_flash.c ****   }
 363              		.loc 1 432 5 view .LVU96
 364 003e 2176     		strb	r1, [r4, #24]
 365              	.L23:
 434:Drivers/STM32F3xx_HAL_Driver/Src/stm32f3xx_hal_flash.c **** 
 366              		.loc 1 434 1 is_stmt 0 view .LVU97
 367 0040 BDE87888 		pop	{r3, r4, r5, r6, fp, pc}
 368              	.LVL14:
 369              	.L24:
 310:Drivers/STM32F3xx_HAL_Driver/Src/stm32f3xx_hal_flash.c ****     /* Reset address */
 370              		.loc 1 310 5 is_stmt 1 view .LVU98
 312:Drivers/STM32F3xx_HAL_Driver/Src/stm32f3xx_hal_flash.c ****   
 371              		.loc 1 312 20 is_stmt 0 view .LVU99
ARM GAS  /var/folders/8c/gyvcglfx7f97kbqb2h83mm_r0000gn/T//ccCOLaPk.s 			page 21


 372 0044 4FF0FF33 		mov	r3, #-1
 310:Drivers/STM32F3xx_HAL_Driver/Src/stm32f3xx_hal_flash.c ****     /* Reset address */
 373              		.loc 1 310 16 view .LVU100
 374 0048 A068     		ldr	r0, [r4, #8]
 375              	.LVL15:
 312:Drivers/STM32F3xx_HAL_Driver/Src/stm32f3xx_hal_flash.c ****   
 376              		.loc 1 312 5 is_stmt 1 view .LVU101
 312:Drivers/STM32F3xx_HAL_Driver/Src/stm32f3xx_hal_flash.c ****   
 377              		.loc 1 312 20 is_stmt 0 view .LVU102
 378 004a A360     		str	r3, [r4, #8]
 315:Drivers/STM32F3xx_HAL_Driver/Src/stm32f3xx_hal_flash.c ****     
 379              		.loc 1 315 5 is_stmt 1 view .LVU103
 380 004c FFF7FEFF 		bl	FLASH_SetErrorCode
 381              	.LVL16:
 318:Drivers/STM32F3xx_HAL_Driver/Src/stm32f3xx_hal_flash.c **** 
 382              		.loc 1 318 5 view .LVU104
 383 0050 FFF7FEFF 		bl	HAL_FLASH_OperationErrorCallback
 384              	.LVL17:
 321:Drivers/STM32F3xx_HAL_Driver/Src/stm32f3xx_hal_flash.c ****   }
 385              		.loc 1 321 5 view .LVU105
 321:Drivers/STM32F3xx_HAL_Driver/Src/stm32f3xx_hal_flash.c ****   }
 386              		.loc 1 321 29 is_stmt 0 view .LVU106
 387 0054 0023     		movs	r3, #0
 388 0056 2370     		strb	r3, [r4]
 389 0058 DCE7     		b	.L25
 390              	.L43:
 333:Drivers/STM32F3xx_HAL_Driver/Src/stm32f3xx_hal_flash.c ****       {
 391              		.loc 1 333 7 is_stmt 1 view .LVU107
 333:Drivers/STM32F3xx_HAL_Driver/Src/stm32f3xx_hal_flash.c ****       {
 392              		.loc 1 333 16 is_stmt 0 view .LVU108
 393 005a 2378     		ldrb	r3, [r4]	@ zero_extendqisi2
 333:Drivers/STM32F3xx_HAL_Driver/Src/stm32f3xx_hal_flash.c ****       {
 394              		.loc 1 333 9 view .LVU109
 395 005c 012B     		cmp	r3, #1
 396 005e 23D0     		beq	.L44
 364:Drivers/STM32F3xx_HAL_Driver/Src/stm32f3xx_hal_flash.c ****       {
 397              		.loc 1 364 12 is_stmt 1 view .LVU110
 364:Drivers/STM32F3xx_HAL_Driver/Src/stm32f3xx_hal_flash.c ****       {
 398              		.loc 1 364 21 is_stmt 0 view .LVU111
 399 0060 2378     		ldrb	r3, [r4]	@ zero_extendqisi2
 364:Drivers/STM32F3xx_HAL_Driver/Src/stm32f3xx_hal_flash.c ****       {
 400              		.loc 1 364 14 view .LVU112
 401 0062 022B     		cmp	r3, #2
 402 0064 4CD0     		beq	.L45
 379:Drivers/STM32F3xx_HAL_Driver/Src/stm32f3xx_hal_flash.c ****         
 403              		.loc 1 379 9 is_stmt 1 view .LVU113
 379:Drivers/STM32F3xx_HAL_Driver/Src/stm32f3xx_hal_flash.c ****         
 404              		.loc 1 379 15 is_stmt 0 view .LVU114
 405 0066 6368     		ldr	r3, [r4, #4]
 379:Drivers/STM32F3xx_HAL_Driver/Src/stm32f3xx_hal_flash.c ****         
 406              		.loc 1 379 29 view .LVU115
 407 0068 013B     		subs	r3, r3, #1
 408 006a 6360     		str	r3, [r4, #4]
 382:Drivers/STM32F3xx_HAL_Driver/Src/stm32f3xx_hal_flash.c ****         {
 409              		.loc 1 382 9 is_stmt 1 view .LVU116
 382:Drivers/STM32F3xx_HAL_Driver/Src/stm32f3xx_hal_flash.c ****         {
 410              		.loc 1 382 18 is_stmt 0 view .LVU117
ARM GAS  /var/folders/8c/gyvcglfx7f97kbqb2h83mm_r0000gn/T//ccCOLaPk.s 			page 22


 411 006c 6368     		ldr	r3, [r4, #4]
 382:Drivers/STM32F3xx_HAL_Driver/Src/stm32f3xx_hal_flash.c ****         {
 412              		.loc 1 382 11 view .LVU118
 413 006e 73B3     		cbz	r3, .L32
 385:Drivers/STM32F3xx_HAL_Driver/Src/stm32f3xx_hal_flash.c ****           addresstmp = pFlash.Address;
 414              		.loc 1 385 11 is_stmt 1 view .LVU119
 385:Drivers/STM32F3xx_HAL_Driver/Src/stm32f3xx_hal_flash.c ****           addresstmp = pFlash.Address;
 415              		.loc 1 385 26 is_stmt 0 view .LVU120
 416 0070 A368     		ldr	r3, [r4, #8]
 417 0072 0233     		adds	r3, r3, #2
 418 0074 A360     		str	r3, [r4, #8]
 386:Drivers/STM32F3xx_HAL_Driver/Src/stm32f3xx_hal_flash.c ****           
 419              		.loc 1 386 11 is_stmt 1 view .LVU121
 386:Drivers/STM32F3xx_HAL_Driver/Src/stm32f3xx_hal_flash.c ****           
 420              		.loc 1 386 22 is_stmt 0 view .LVU122
 421 0076 A668     		ldr	r6, [r4, #8]
 422              	.LVL18:
 389:Drivers/STM32F3xx_HAL_Driver/Src/stm32f3xx_hal_flash.c ****           
 423              		.loc 1 389 11 is_stmt 1 view .LVU123
 389:Drivers/STM32F3xx_HAL_Driver/Src/stm32f3xx_hal_flash.c ****           
 424              		.loc 1 389 32 is_stmt 0 view .LVU124
 425 0078 D4E90401 		ldrd	r0, [r4, #16]
 389:Drivers/STM32F3xx_HAL_Driver/Src/stm32f3xx_hal_flash.c ****           
 426              		.loc 1 389 38 view .LVU125
 427 007c 020C     		lsrs	r2, r0, #16
 428 007e 42EA0142 		orr	r2, r2, r1, lsl #16
 429 0082 0B0C     		lsrs	r3, r1, #16
 389:Drivers/STM32F3xx_HAL_Driver/Src/stm32f3xx_hal_flash.c ****           
 430              		.loc 1 389 23 view .LVU126
 431 0084 C4E90423 		strd	r2, [r4, #16]
 392:Drivers/STM32F3xx_HAL_Driver/Src/stm32f3xx_hal_flash.c **** 
 432              		.loc 1 392 11 is_stmt 1 view .LVU127
 433 0088 2B69     		ldr	r3, [r5, #16]
 434 008a 23F00103 		bic	r3, r3, #1
 435 008e 2B61     		str	r3, [r5, #16]
 395:Drivers/STM32F3xx_HAL_Driver/Src/stm32f3xx_hal_flash.c ****         }
 436              		.loc 1 395 11 view .LVU128
 437              	.LBB12:
 438              	.LBB13:
 623:Drivers/STM32F3xx_HAL_Driver/Src/stm32f3xx_hal_flash.c ****   
 439              		.loc 1 623 20 is_stmt 0 view .LVU129
 440 0090 0021     		movs	r1, #0
 441              	.LBE13:
 442              	.LBE12:
 395:Drivers/STM32F3xx_HAL_Driver/Src/stm32f3xx_hal_flash.c ****         }
 443              		.loc 1 395 62 view .LVU130
 444 0092 D4E904BC 		ldrd	fp, [r4, #16]
 445              	.LBB16:
 446              	.LBB14:
 623:Drivers/STM32F3xx_HAL_Driver/Src/stm32f3xx_hal_flash.c ****   
 447              		.loc 1 623 20 view .LVU131
 448 0096 E161     		str	r1, [r4, #28]
 626:Drivers/STM32F3xx_HAL_Driver/Src/stm32f3xx_hal_flash.c **** 
 449              		.loc 1 626 5 view .LVU132
 450 0098 2B69     		ldr	r3, [r5, #16]
 451              	.LBE14:
 452              	.LBE16:
ARM GAS  /var/folders/8c/gyvcglfx7f97kbqb2h83mm_r0000gn/T//ccCOLaPk.s 			page 23


 395:Drivers/STM32F3xx_HAL_Driver/Src/stm32f3xx_hal_flash.c ****         }
 453              		.loc 1 395 11 view .LVU133
 454 009a 1FFA8BF2 		uxth	r2, fp
 455              	.LVL19:
 456              	.LBB17:
 457              	.LBI12:
 620:Drivers/STM32F3xx_HAL_Driver/Src/stm32f3xx_hal_flash.c **** {
 458              		.loc 1 620 13 is_stmt 1 view .LVU134
 459              	.LBB15:
 623:Drivers/STM32F3xx_HAL_Driver/Src/stm32f3xx_hal_flash.c ****   
 460              		.loc 1 623 3 view .LVU135
 626:Drivers/STM32F3xx_HAL_Driver/Src/stm32f3xx_hal_flash.c **** 
 461              		.loc 1 626 5 view .LVU136
 462 009e 43F00103 		orr	r3, r3, #1
 463 00a2 2B61     		str	r3, [r5, #16]
 629:Drivers/STM32F3xx_HAL_Driver/Src/stm32f3xx_hal_flash.c **** }
 464              		.loc 1 629 3 view .LVU137
 629:Drivers/STM32F3xx_HAL_Driver/Src/stm32f3xx_hal_flash.c **** }
 465              		.loc 1 629 28 is_stmt 0 view .LVU138
 466 00a4 3280     		strh	r2, [r6]	@ movhi
 467 00a6 BDE7     		b	.L27
 468              	.LVL20:
 469              	.L44:
 629:Drivers/STM32F3xx_HAL_Driver/Src/stm32f3xx_hal_flash.c **** }
 470              		.loc 1 629 28 view .LVU139
 471              	.LBE15:
 472              	.LBE17:
 336:Drivers/STM32F3xx_HAL_Driver/Src/stm32f3xx_hal_flash.c **** 
 473              		.loc 1 336 9 is_stmt 1 view .LVU140
 336:Drivers/STM32F3xx_HAL_Driver/Src/stm32f3xx_hal_flash.c **** 
 474              		.loc 1 336 15 is_stmt 0 view .LVU141
 475 00a8 6368     		ldr	r3, [r4, #4]
 336:Drivers/STM32F3xx_HAL_Driver/Src/stm32f3xx_hal_flash.c **** 
 476              		.loc 1 336 29 view .LVU142
 477 00aa 013B     		subs	r3, r3, #1
 478 00ac 6360     		str	r3, [r4, #4]
 339:Drivers/STM32F3xx_HAL_Driver/Src/stm32f3xx_hal_flash.c ****         {
 479              		.loc 1 339 9 is_stmt 1 view .LVU143
 339:Drivers/STM32F3xx_HAL_Driver/Src/stm32f3xx_hal_flash.c ****         {
 480              		.loc 1 339 18 is_stmt 0 view .LVU144
 481 00ae 6368     		ldr	r3, [r4, #4]
 339:Drivers/STM32F3xx_HAL_Driver/Src/stm32f3xx_hal_flash.c ****         {
 482              		.loc 1 339 11 view .LVU145
 483 00b0 F3B1     		cbz	r3, .L30
 341:Drivers/STM32F3xx_HAL_Driver/Src/stm32f3xx_hal_flash.c ****           /*Indicate user which sector has been erased */
 484              		.loc 1 341 11 is_stmt 1 view .LVU146
 341:Drivers/STM32F3xx_HAL_Driver/Src/stm32f3xx_hal_flash.c ****           /*Indicate user which sector has been erased */
 485              		.loc 1 341 22 is_stmt 0 view .LVU147
 486 00b2 A068     		ldr	r0, [r4, #8]
 487              	.LVL21:
 343:Drivers/STM32F3xx_HAL_Driver/Src/stm32f3xx_hal_flash.c **** 
 488              		.loc 1 343 11 is_stmt 1 view .LVU148
 489 00b4 FFF7FEFF 		bl	HAL_FLASH_EndOfOperationCallback
 490              	.LVL22:
 346:Drivers/STM32F3xx_HAL_Driver/Src/stm32f3xx_hal_flash.c ****           pFlash.Address = addresstmp;
 491              		.loc 1 346 11 view .LVU149
 346:Drivers/STM32F3xx_HAL_Driver/Src/stm32f3xx_hal_flash.c ****           pFlash.Address = addresstmp;
ARM GAS  /var/folders/8c/gyvcglfx7f97kbqb2h83mm_r0000gn/T//ccCOLaPk.s 			page 24


 492              		.loc 1 346 30 is_stmt 0 view .LVU150
 493 00b8 A068     		ldr	r0, [r4, #8]
 346:Drivers/STM32F3xx_HAL_Driver/Src/stm32f3xx_hal_flash.c ****           pFlash.Address = addresstmp;
 494              		.loc 1 346 22 view .LVU151
 495 00ba 00F50060 		add	r0, r0, #2048
 496              	.LVL23:
 347:Drivers/STM32F3xx_HAL_Driver/Src/stm32f3xx_hal_flash.c **** 
 497              		.loc 1 347 11 is_stmt 1 view .LVU152
 347:Drivers/STM32F3xx_HAL_Driver/Src/stm32f3xx_hal_flash.c **** 
 498              		.loc 1 347 26 is_stmt 0 view .LVU153
 499 00be A060     		str	r0, [r4, #8]
 350:Drivers/STM32F3xx_HAL_Driver/Src/stm32f3xx_hal_flash.c **** 
 500              		.loc 1 350 11 is_stmt 1 view .LVU154
 501 00c0 2B69     		ldr	r3, [r5, #16]
 502 00c2 23F00203 		bic	r3, r3, #2
 503 00c6 2B61     		str	r3, [r5, #16]
 352:Drivers/STM32F3xx_HAL_Driver/Src/stm32f3xx_hal_flash.c ****         }
 504              		.loc 1 352 11 view .LVU155
 505 00c8 FFF7FEFF 		bl	FLASH_PageErase
 506              	.LVL24:
 352:Drivers/STM32F3xx_HAL_Driver/Src/stm32f3xx_hal_flash.c ****         }
 507              		.loc 1 352 11 is_stmt 0 view .LVU156
 508 00cc AAE7     		b	.L27
 509              	.L32:
 401:Drivers/STM32F3xx_HAL_Driver/Src/stm32f3xx_hal_flash.c ****           {
 510              		.loc 1 401 11 is_stmt 1 view .LVU157
 401:Drivers/STM32F3xx_HAL_Driver/Src/stm32f3xx_hal_flash.c ****           {
 511              		.loc 1 401 21 is_stmt 0 view .LVU158
 512 00ce 2378     		ldrb	r3, [r4]	@ zero_extendqisi2
 401:Drivers/STM32F3xx_HAL_Driver/Src/stm32f3xx_hal_flash.c ****           {
 513              		.loc 1 401 14 view .LVU159
 514 00d0 032B     		cmp	r3, #3
 515 00d2 1FD0     		beq	.L46
 405:Drivers/STM32F3xx_HAL_Driver/Src/stm32f3xx_hal_flash.c ****           {
 516              		.loc 1 405 16 is_stmt 1 view .LVU160
 407:Drivers/STM32F3xx_HAL_Driver/Src/stm32f3xx_hal_flash.c ****           }
 517              		.loc 1 407 13 view .LVU161
 411:Drivers/STM32F3xx_HAL_Driver/Src/stm32f3xx_hal_flash.c ****           }
 518              		.loc 1 411 13 view .LVU162
 405:Drivers/STM32F3xx_HAL_Driver/Src/stm32f3xx_hal_flash.c ****           {
 519              		.loc 1 405 26 is_stmt 0 view .LVU163
 520 00d4 2378     		ldrb	r3, [r4]	@ zero_extendqisi2
 407:Drivers/STM32F3xx_HAL_Driver/Src/stm32f3xx_hal_flash.c ****           }
 521              		.loc 1 407 52 view .LVU164
 522 00d6 A068     		ldr	r0, [r4, #8]
 405:Drivers/STM32F3xx_HAL_Driver/Src/stm32f3xx_hal_flash.c ****           {
 523              		.loc 1 405 19 view .LVU165
 524 00d8 042B     		cmp	r3, #4
 407:Drivers/STM32F3xx_HAL_Driver/Src/stm32f3xx_hal_flash.c ****           }
 525              		.loc 1 407 13 view .LVU166
 526 00da 0CBF     		ite	eq
 527 00dc 0238     		subeq	r0, r0, #2
 411:Drivers/STM32F3xx_HAL_Driver/Src/stm32f3xx_hal_flash.c ****           }
 528              		.loc 1 411 13 view .LVU167
 529 00de 0638     		subne	r0, r0, #6
 530 00e0 FFF7FEFF 		bl	HAL_FLASH_EndOfOperationCallback
 531              	.LVL25:
ARM GAS  /var/folders/8c/gyvcglfx7f97kbqb2h83mm_r0000gn/T//ccCOLaPk.s 			page 25


 532              	.L34:
 415:Drivers/STM32F3xx_HAL_Driver/Src/stm32f3xx_hal_flash.c ****           pFlash.ProcedureOnGoing = FLASH_PROC_NONE;
 533              		.loc 1 415 11 is_stmt 1 view .LVU168
 415:Drivers/STM32F3xx_HAL_Driver/Src/stm32f3xx_hal_flash.c ****           pFlash.ProcedureOnGoing = FLASH_PROC_NONE;
 534              		.loc 1 415 26 is_stmt 0 view .LVU169
 535 00e4 4FF0FF32 		mov	r2, #-1
 416:Drivers/STM32F3xx_HAL_Driver/Src/stm32f3xx_hal_flash.c ****         }
 536              		.loc 1 416 35 view .LVU170
 537 00e8 0023     		movs	r3, #0
 415:Drivers/STM32F3xx_HAL_Driver/Src/stm32f3xx_hal_flash.c ****           pFlash.ProcedureOnGoing = FLASH_PROC_NONE;
 538              		.loc 1 415 26 view .LVU171
 539 00ea A260     		str	r2, [r4, #8]
 416:Drivers/STM32F3xx_HAL_Driver/Src/stm32f3xx_hal_flash.c ****         }
 540              		.loc 1 416 11 is_stmt 1 view .LVU172
 416:Drivers/STM32F3xx_HAL_Driver/Src/stm32f3xx_hal_flash.c ****         }
 541              		.loc 1 416 35 is_stmt 0 view .LVU173
 542 00ec 2370     		strb	r3, [r4]
 543 00ee 99E7     		b	.L27
 544              	.L30:
 358:Drivers/STM32F3xx_HAL_Driver/Src/stm32f3xx_hal_flash.c ****           pFlash.ProcedureOnGoing = FLASH_PROC_NONE;
 545              		.loc 1 358 11 is_stmt 1 view .LVU174
 546              	.LVL26:
 358:Drivers/STM32F3xx_HAL_Driver/Src/stm32f3xx_hal_flash.c ****           pFlash.ProcedureOnGoing = FLASH_PROC_NONE;
 547              		.loc 1 358 26 is_stmt 0 view .LVU175
 548 00f0 4FF0FF32 		mov	r2, #-1
 361:Drivers/STM32F3xx_HAL_Driver/Src/stm32f3xx_hal_flash.c ****         }
 549              		.loc 1 361 11 view .LVU176
 550 00f4 1046     		mov	r0, r2
 358:Drivers/STM32F3xx_HAL_Driver/Src/stm32f3xx_hal_flash.c ****           pFlash.ProcedureOnGoing = FLASH_PROC_NONE;
 551              		.loc 1 358 26 view .LVU177
 552 00f6 A260     		str	r2, [r4, #8]
 359:Drivers/STM32F3xx_HAL_Driver/Src/stm32f3xx_hal_flash.c ****           /* FLASH EOP interrupt user callback */
 553              		.loc 1 359 11 is_stmt 1 view .LVU178
 359:Drivers/STM32F3xx_HAL_Driver/Src/stm32f3xx_hal_flash.c ****           /* FLASH EOP interrupt user callback */
 554              		.loc 1 359 35 is_stmt 0 view .LVU179
 555 00f8 2370     		strb	r3, [r4]
 361:Drivers/STM32F3xx_HAL_Driver/Src/stm32f3xx_hal_flash.c ****         }
 556              		.loc 1 361 11 is_stmt 1 view .LVU180
 557 00fa FFF7FEFF 		bl	HAL_FLASH_EndOfOperationCallback
 558              	.LVL27:
 559 00fe 91E7     		b	.L27
 560              	.LVL28:
 561              	.L45:
 367:Drivers/STM32F3xx_HAL_Driver/Src/stm32f3xx_hal_flash.c **** 
 562              		.loc 1 367 9 view .LVU181
 563 0100 2B69     		ldr	r3, [r5, #16]
 564 0102 23F00403 		bic	r3, r3, #4
 565 0106 2B61     		str	r3, [r5, #16]
 371:Drivers/STM32F3xx_HAL_Driver/Src/stm32f3xx_hal_flash.c **** 
 566              		.loc 1 371 11 view .LVU182
 567 0108 0020     		movs	r0, #0
 568 010a FFF7FEFF 		bl	HAL_FLASH_EndOfOperationCallback
 569              	.LVL29:
 374:Drivers/STM32F3xx_HAL_Driver/Src/stm32f3xx_hal_flash.c ****         }
 570              		.loc 1 374 11 view .LVU183
 374:Drivers/STM32F3xx_HAL_Driver/Src/stm32f3xx_hal_flash.c ****         }
 571              		.loc 1 374 35 is_stmt 0 view .LVU184
ARM GAS  /var/folders/8c/gyvcglfx7f97kbqb2h83mm_r0000gn/T//ccCOLaPk.s 			page 26


 572 010e 0023     		movs	r3, #0
 573 0110 2370     		strb	r3, [r4]
 574 0112 87E7     		b	.L27
 575              	.L46:
 403:Drivers/STM32F3xx_HAL_Driver/Src/stm32f3xx_hal_flash.c ****           }
 576              		.loc 1 403 13 is_stmt 1 view .LVU185
 577 0114 A068     		ldr	r0, [r4, #8]
 578 0116 FFF7FEFF 		bl	HAL_FLASH_EndOfOperationCallback
 579              	.LVL30:
 580 011a E3E7     		b	.L34
 581              	.L48:
 582              		.align	2
 583              	.L47:
 584 011c 00200240 		.word	1073881088
 585 0120 00000000 		.word	pFlash
 586              		.cfi_endproc
 587              	.LFE128:
 589              		.section	.text.HAL_FLASH_Unlock,"ax",%progbits
 590              		.align	1
 591              		.p2align 2,,3
 592              		.global	HAL_FLASH_Unlock
 593              		.syntax unified
 594              		.thumb
 595              		.thumb_func
 596              		.fpu fpv4-sp-d16
 598              	HAL_FLASH_Unlock:
 599              	.LFB131:
 497:Drivers/STM32F3xx_HAL_Driver/Src/stm32f3xx_hal_flash.c ****   HAL_StatusTypeDef status = HAL_OK;
 600              		.loc 1 497 1 view -0
 601              		.cfi_startproc
 602              		@ args = 0, pretend = 0, frame = 0
 603              		@ frame_needed = 0, uses_anonymous_args = 0
 604              		@ link register save eliminated.
 498:Drivers/STM32F3xx_HAL_Driver/Src/stm32f3xx_hal_flash.c **** 
 605              		.loc 1 498 3 view .LVU187
 606              	.LVL31:
 500:Drivers/STM32F3xx_HAL_Driver/Src/stm32f3xx_hal_flash.c ****   {
 607              		.loc 1 500 3 view .LVU188
 500:Drivers/STM32F3xx_HAL_Driver/Src/stm32f3xx_hal_flash.c ****   {
 608              		.loc 1 500 6 is_stmt 0 view .LVU189
 609 0000 064B     		ldr	r3, .L52
 610 0002 1869     		ldr	r0, [r3, #16]
 500:Drivers/STM32F3xx_HAL_Driver/Src/stm32f3xx_hal_flash.c ****   {
 611              		.loc 1 500 5 view .LVU190
 612 0004 10F08000 		ands	r0, r0, #128
 613 0008 06D0     		beq	.L50
 503:Drivers/STM32F3xx_HAL_Driver/Src/stm32f3xx_hal_flash.c ****     WRITE_REG(FLASH->KEYR, FLASH_KEY2);
 614              		.loc 1 503 5 is_stmt 1 view .LVU191
 615 000a 0549     		ldr	r1, .L52+4
 504:Drivers/STM32F3xx_HAL_Driver/Src/stm32f3xx_hal_flash.c **** 
 616              		.loc 1 504 5 is_stmt 0 view .LVU192
 617 000c 054A     		ldr	r2, .L52+8
 503:Drivers/STM32F3xx_HAL_Driver/Src/stm32f3xx_hal_flash.c ****     WRITE_REG(FLASH->KEYR, FLASH_KEY2);
 618              		.loc 1 503 5 view .LVU193
 619 000e 5960     		str	r1, [r3, #4]
 504:Drivers/STM32F3xx_HAL_Driver/Src/stm32f3xx_hal_flash.c **** 
 620              		.loc 1 504 5 is_stmt 1 view .LVU194
ARM GAS  /var/folders/8c/gyvcglfx7f97kbqb2h83mm_r0000gn/T//ccCOLaPk.s 			page 27


 621 0010 5A60     		str	r2, [r3, #4]
 507:Drivers/STM32F3xx_HAL_Driver/Src/stm32f3xx_hal_flash.c ****     {
 622              		.loc 1 507 5 view .LVU195
 507:Drivers/STM32F3xx_HAL_Driver/Src/stm32f3xx_hal_flash.c ****     {
 623              		.loc 1 507 8 is_stmt 0 view .LVU196
 624 0012 1869     		ldr	r0, [r3, #16]
 498:Drivers/STM32F3xx_HAL_Driver/Src/stm32f3xx_hal_flash.c **** 
 625              		.loc 1 498 21 view .LVU197
 626 0014 C0F3C010 		ubfx	r0, r0, #7, #1
 627              	.L50:
 628              	.LVL32:
 513:Drivers/STM32F3xx_HAL_Driver/Src/stm32f3xx_hal_flash.c **** }
 629              		.loc 1 513 3 is_stmt 1 view .LVU198
 514:Drivers/STM32F3xx_HAL_Driver/Src/stm32f3xx_hal_flash.c **** 
 630              		.loc 1 514 1 is_stmt 0 view .LVU199
 631 0018 7047     		bx	lr
 632              	.L53:
 633 001a 00BF     		.align	2
 634              	.L52:
 635 001c 00200240 		.word	1073881088
 636 0020 23016745 		.word	1164378403
 637 0024 AB89EFCD 		.word	-839939669
 638              		.cfi_endproc
 639              	.LFE131:
 641              		.section	.text.HAL_FLASH_Lock,"ax",%progbits
 642              		.align	1
 643              		.p2align 2,,3
 644              		.global	HAL_FLASH_Lock
 645              		.syntax unified
 646              		.thumb
 647              		.thumb_func
 648              		.fpu fpv4-sp-d16
 650              	HAL_FLASH_Lock:
 651              	.LFB132:
 521:Drivers/STM32F3xx_HAL_Driver/Src/stm32f3xx_hal_flash.c ****   /* Set the LOCK Bit to lock the FLASH Registers access */
 652              		.loc 1 521 1 is_stmt 1 view -0
 653              		.cfi_startproc
 654              		@ args = 0, pretend = 0, frame = 0
 655              		@ frame_needed = 0, uses_anonymous_args = 0
 656              		@ link register save eliminated.
 523:Drivers/STM32F3xx_HAL_Driver/Src/stm32f3xx_hal_flash.c ****   
 657              		.loc 1 523 3 view .LVU201
 658 0000 034A     		ldr	r2, .L55
 659 0002 1369     		ldr	r3, [r2, #16]
 660 0004 43F08003 		orr	r3, r3, #128
 661 0008 1361     		str	r3, [r2, #16]
 525:Drivers/STM32F3xx_HAL_Driver/Src/stm32f3xx_hal_flash.c **** }
 662              		.loc 1 525 3 view .LVU202
 526:Drivers/STM32F3xx_HAL_Driver/Src/stm32f3xx_hal_flash.c **** 
 663              		.loc 1 526 1 is_stmt 0 view .LVU203
 664 000a 0020     		movs	r0, #0
 665 000c 7047     		bx	lr
 666              	.L56:
 667 000e 00BF     		.align	2
 668              	.L55:
 669 0010 00200240 		.word	1073881088
 670              		.cfi_endproc
ARM GAS  /var/folders/8c/gyvcglfx7f97kbqb2h83mm_r0000gn/T//ccCOLaPk.s 			page 28


 671              	.LFE132:
 673              		.section	.text.HAL_FLASH_OB_Unlock,"ax",%progbits
 674              		.align	1
 675              		.p2align 2,,3
 676              		.global	HAL_FLASH_OB_Unlock
 677              		.syntax unified
 678              		.thumb
 679              		.thumb_func
 680              		.fpu fpv4-sp-d16
 682              	HAL_FLASH_OB_Unlock:
 683              	.LFB133:
 533:Drivers/STM32F3xx_HAL_Driver/Src/stm32f3xx_hal_flash.c ****   if (HAL_IS_BIT_CLR(FLASH->CR, FLASH_CR_OPTWRE))
 684              		.loc 1 533 1 is_stmt 1 view -0
 685              		.cfi_startproc
 686              		@ args = 0, pretend = 0, frame = 0
 687              		@ frame_needed = 0, uses_anonymous_args = 0
 688              		@ link register save eliminated.
 534:Drivers/STM32F3xx_HAL_Driver/Src/stm32f3xx_hal_flash.c ****   {
 689              		.loc 1 534 3 view .LVU205
 534:Drivers/STM32F3xx_HAL_Driver/Src/stm32f3xx_hal_flash.c ****   {
 690              		.loc 1 534 7 is_stmt 0 view .LVU206
 691 0000 054B     		ldr	r3, .L60
 692 0002 1869     		ldr	r0, [r3, #16]
 534:Drivers/STM32F3xx_HAL_Driver/Src/stm32f3xx_hal_flash.c ****   {
 693              		.loc 1 534 6 view .LVU207
 694 0004 10F40070 		ands	r0, r0, #512
 695 0008 04D1     		bne	.L59
 537:Drivers/STM32F3xx_HAL_Driver/Src/stm32f3xx_hal_flash.c ****     WRITE_REG(FLASH->OPTKEYR, FLASH_OPTKEY2);
 696              		.loc 1 537 5 is_stmt 1 view .LVU208
 697 000a 0449     		ldr	r1, .L60+4
 538:Drivers/STM32F3xx_HAL_Driver/Src/stm32f3xx_hal_flash.c ****   }
 698              		.loc 1 538 5 is_stmt 0 view .LVU209
 699 000c 044A     		ldr	r2, .L60+8
 537:Drivers/STM32F3xx_HAL_Driver/Src/stm32f3xx_hal_flash.c ****     WRITE_REG(FLASH->OPTKEYR, FLASH_OPTKEY2);
 700              		.loc 1 537 5 view .LVU210
 701 000e 9960     		str	r1, [r3, #8]
 538:Drivers/STM32F3xx_HAL_Driver/Src/stm32f3xx_hal_flash.c ****   }
 702              		.loc 1 538 5 is_stmt 1 view .LVU211
 703 0010 9A60     		str	r2, [r3, #8]
 545:Drivers/STM32F3xx_HAL_Driver/Src/stm32f3xx_hal_flash.c **** }
 704              		.loc 1 545 3 view .LVU212
 545:Drivers/STM32F3xx_HAL_Driver/Src/stm32f3xx_hal_flash.c **** }
 705              		.loc 1 545 10 is_stmt 0 view .LVU213
 706 0012 7047     		bx	lr
 707              	.L59:
 542:Drivers/STM32F3xx_HAL_Driver/Src/stm32f3xx_hal_flash.c ****   }  
 708              		.loc 1 542 12 view .LVU214
 709 0014 0120     		movs	r0, #1
 546:Drivers/STM32F3xx_HAL_Driver/Src/stm32f3xx_hal_flash.c **** 
 710              		.loc 1 546 1 view .LVU215
 711 0016 7047     		bx	lr
 712              	.L61:
 713              		.align	2
 714              	.L60:
 715 0018 00200240 		.word	1073881088
 716 001c 23016745 		.word	1164378403
 717 0020 AB89EFCD 		.word	-839939669
ARM GAS  /var/folders/8c/gyvcglfx7f97kbqb2h83mm_r0000gn/T//ccCOLaPk.s 			page 29


 718              		.cfi_endproc
 719              	.LFE133:
 721              		.section	.text.HAL_FLASH_OB_Lock,"ax",%progbits
 722              		.align	1
 723              		.p2align 2,,3
 724              		.global	HAL_FLASH_OB_Lock
 725              		.syntax unified
 726              		.thumb
 727              		.thumb_func
 728              		.fpu fpv4-sp-d16
 730              	HAL_FLASH_OB_Lock:
 731              	.LFB134:
 553:Drivers/STM32F3xx_HAL_Driver/Src/stm32f3xx_hal_flash.c ****   /* Clear the OPTWRE Bit to lock the FLASH Option Byte Registers access */
 732              		.loc 1 553 1 is_stmt 1 view -0
 733              		.cfi_startproc
 734              		@ args = 0, pretend = 0, frame = 0
 735              		@ frame_needed = 0, uses_anonymous_args = 0
 736              		@ link register save eliminated.
 555:Drivers/STM32F3xx_HAL_Driver/Src/stm32f3xx_hal_flash.c ****   
 737              		.loc 1 555 3 view .LVU217
 738 0000 034A     		ldr	r2, .L63
 739 0002 1369     		ldr	r3, [r2, #16]
 740 0004 23F40073 		bic	r3, r3, #512
 741 0008 1361     		str	r3, [r2, #16]
 557:Drivers/STM32F3xx_HAL_Driver/Src/stm32f3xx_hal_flash.c **** }
 742              		.loc 1 557 3 view .LVU218
 558:Drivers/STM32F3xx_HAL_Driver/Src/stm32f3xx_hal_flash.c ****   
 743              		.loc 1 558 1 is_stmt 0 view .LVU219
 744 000a 0020     		movs	r0, #0
 745 000c 7047     		bx	lr
 746              	.L64:
 747 000e 00BF     		.align	2
 748              	.L63:
 749 0010 00200240 		.word	1073881088
 750              		.cfi_endproc
 751              	.LFE134:
 753              		.section	.text.HAL_FLASH_GetError,"ax",%progbits
 754              		.align	1
 755              		.p2align 2,,3
 756              		.global	HAL_FLASH_GetError
 757              		.syntax unified
 758              		.thumb
 759              		.thumb_func
 760              		.fpu fpv4-sp-d16
 762              	HAL_FLASH_GetError:
 763              	.LFB136:
 598:Drivers/STM32F3xx_HAL_Driver/Src/stm32f3xx_hal_flash.c ****    return pFlash.ErrorCode;
 764              		.loc 1 598 1 is_stmt 1 view -0
 765              		.cfi_startproc
 766              		@ args = 0, pretend = 0, frame = 0
 767              		@ frame_needed = 0, uses_anonymous_args = 0
 768              		@ link register save eliminated.
 599:Drivers/STM32F3xx_HAL_Driver/Src/stm32f3xx_hal_flash.c **** }
 769              		.loc 1 599 4 view .LVU221
 599:Drivers/STM32F3xx_HAL_Driver/Src/stm32f3xx_hal_flash.c **** }
 770              		.loc 1 599 17 is_stmt 0 view .LVU222
 771 0000 014B     		ldr	r3, .L66
ARM GAS  /var/folders/8c/gyvcglfx7f97kbqb2h83mm_r0000gn/T//ccCOLaPk.s 			page 30


 772 0002 D869     		ldr	r0, [r3, #28]
 600:Drivers/STM32F3xx_HAL_Driver/Src/stm32f3xx_hal_flash.c **** 
 773              		.loc 1 600 1 view .LVU223
 774 0004 7047     		bx	lr
 775              	.L67:
 776 0006 00BF     		.align	2
 777              	.L66:
 778 0008 00000000 		.word	pFlash
 779              		.cfi_endproc
 780              	.LFE136:
 782              		.section	.text.FLASH_WaitForLastOperation,"ax",%progbits
 783              		.align	1
 784              		.p2align 2,,3
 785              		.global	FLASH_WaitForLastOperation
 786              		.syntax unified
 787              		.thumb
 788              		.thumb_func
 789              		.fpu fpv4-sp-d16
 791              	FLASH_WaitForLastOperation:
 792              	.LVL33:
 793              	.LFB138:
 638:Drivers/STM32F3xx_HAL_Driver/Src/stm32f3xx_hal_flash.c ****   /* Wait for the FLASH operation to complete by polling on BUSY flag to be reset.
 794              		.loc 1 638 1 is_stmt 1 view -0
 795              		.cfi_startproc
 796              		@ args = 0, pretend = 0, frame = 0
 797              		@ frame_needed = 0, uses_anonymous_args = 0
 643:Drivers/STM32F3xx_HAL_Driver/Src/stm32f3xx_hal_flash.c ****      
 798              		.loc 1 643 3 view .LVU225
 638:Drivers/STM32F3xx_HAL_Driver/Src/stm32f3xx_hal_flash.c ****   /* Wait for the FLASH operation to complete by polling on BUSY flag to be reset.
 799              		.loc 1 638 1 is_stmt 0 view .LVU226
 800 0000 70B5     		push	{r4, r5, r6, lr}
 801              	.LCFI5:
 802              		.cfi_def_cfa_offset 16
 803              		.cfi_offset 4, -16
 804              		.cfi_offset 5, -12
 805              		.cfi_offset 6, -8
 806              		.cfi_offset 14, -4
 638:Drivers/STM32F3xx_HAL_Driver/Src/stm32f3xx_hal_flash.c ****   /* Wait for the FLASH operation to complete by polling on BUSY flag to be reset.
 807              		.loc 1 638 1 view .LVU227
 808 0002 0546     		mov	r5, r0
 643:Drivers/STM32F3xx_HAL_Driver/Src/stm32f3xx_hal_flash.c ****      
 809              		.loc 1 643 24 view .LVU228
 810 0004 FFF7FEFF 		bl	HAL_GetTick
 811              	.LVL34:
 645:Drivers/STM32F3xx_HAL_Driver/Src/stm32f3xx_hal_flash.c ****   { 
 812              		.loc 1 645 9 view .LVU229
 813 0008 104C     		ldr	r4, .L85
 643:Drivers/STM32F3xx_HAL_Driver/Src/stm32f3xx_hal_flash.c ****      
 814              		.loc 1 643 24 view .LVU230
 815 000a 0646     		mov	r6, r0
 816              	.LVL35:
 645:Drivers/STM32F3xx_HAL_Driver/Src/stm32f3xx_hal_flash.c ****   { 
 817              		.loc 1 645 3 is_stmt 1 view .LVU231
 645:Drivers/STM32F3xx_HAL_Driver/Src/stm32f3xx_hal_flash.c ****   { 
 818              		.loc 1 645 8 is_stmt 0 view .LVU232
 819 000c 01E0     		b	.L70
 820              	.LVL36:
ARM GAS  /var/folders/8c/gyvcglfx7f97kbqb2h83mm_r0000gn/T//ccCOLaPk.s 			page 31


 821              	.L74:
 647:Drivers/STM32F3xx_HAL_Driver/Src/stm32f3xx_hal_flash.c ****     {
 822              		.loc 1 647 8 view .LVU233
 823 000e 6B1C     		adds	r3, r5, #1
 824 0010 10D1     		bne	.L84
 825              	.L70:
 647:Drivers/STM32F3xx_HAL_Driver/Src/stm32f3xx_hal_flash.c ****     {
 826              		.loc 1 647 5 is_stmt 1 view .LVU234
 645:Drivers/STM32F3xx_HAL_Driver/Src/stm32f3xx_hal_flash.c ****   { 
 827              		.loc 1 645 9 is_stmt 0 view .LVU235
 828 0012 E368     		ldr	r3, [r4, #12]
 645:Drivers/STM32F3xx_HAL_Driver/Src/stm32f3xx_hal_flash.c ****   { 
 829              		.loc 1 645 8 view .LVU236
 830 0014 D807     		lsls	r0, r3, #31
 831 0016 FAD4     		bmi	.L74
 657:Drivers/STM32F3xx_HAL_Driver/Src/stm32f3xx_hal_flash.c ****   {
 832              		.loc 1 657 3 is_stmt 1 view .LVU237
 657:Drivers/STM32F3xx_HAL_Driver/Src/stm32f3xx_hal_flash.c ****   {
 833              		.loc 1 657 7 is_stmt 0 view .LVU238
 834 0018 E368     		ldr	r3, [r4, #12]
 657:Drivers/STM32F3xx_HAL_Driver/Src/stm32f3xx_hal_flash.c ****   {
 835              		.loc 1 657 6 view .LVU239
 836 001a 9906     		lsls	r1, r3, #26
 660:Drivers/STM32F3xx_HAL_Driver/Src/stm32f3xx_hal_flash.c ****   }
 837              		.loc 1 660 5 is_stmt 1 view .LVU240
 663:Drivers/STM32F3xx_HAL_Driver/Src/stm32f3xx_hal_flash.c ****      __HAL_FLASH_GET_FLAG(FLASH_FLAG_PGERR))
 838              		.loc 1 663 3 view .LVU241
 660:Drivers/STM32F3xx_HAL_Driver/Src/stm32f3xx_hal_flash.c ****   }
 839              		.loc 1 660 5 is_stmt 0 view .LVU242
 840 001c 44BF     		itt	mi
 841 001e 2023     		movmi	r3, #32
 842 0020 E360     		strmi	r3, [r4, #12]
 663:Drivers/STM32F3xx_HAL_Driver/Src/stm32f3xx_hal_flash.c ****      __HAL_FLASH_GET_FLAG(FLASH_FLAG_PGERR))
 843              		.loc 1 663 6 view .LVU243
 844 0022 0A4B     		ldr	r3, .L85
 845 0024 DA68     		ldr	r2, [r3, #12]
 663:Drivers/STM32F3xx_HAL_Driver/Src/stm32f3xx_hal_flash.c ****      __HAL_FLASH_GET_FLAG(FLASH_FLAG_PGERR))
 846              		.loc 1 663 5 view .LVU244
 847 0026 D206     		lsls	r2, r2, #27
 848 0028 0CD4     		bmi	.L76
 664:Drivers/STM32F3xx_HAL_Driver/Src/stm32f3xx_hal_flash.c ****   {
 849              		.loc 1 664 6 discriminator 1 view .LVU245
 850 002a D868     		ldr	r0, [r3, #12]
 663:Drivers/STM32F3xx_HAL_Driver/Src/stm32f3xx_hal_flash.c ****      __HAL_FLASH_GET_FLAG(FLASH_FLAG_PGERR))
 851              		.loc 1 663 47 discriminator 1 view .LVU246
 852 002c 10F00400 		ands	r0, r0, #4
 853 0030 08D1     		bne	.L76
 673:Drivers/STM32F3xx_HAL_Driver/Src/stm32f3xx_hal_flash.c **** 
 854              		.loc 1 673 1 view .LVU247
 855 0032 70BD     		pop	{r4, r5, r6, pc}
 856              	.LVL37:
 857              	.L84:
 649:Drivers/STM32F3xx_HAL_Driver/Src/stm32f3xx_hal_flash.c ****       {
 858              		.loc 1 649 7 is_stmt 1 view .LVU248
 649:Drivers/STM32F3xx_HAL_Driver/Src/stm32f3xx_hal_flash.c ****       {
 859              		.loc 1 649 9 is_stmt 0 view .LVU249
 860 0034 25B1     		cbz	r5, .L73
ARM GAS  /var/folders/8c/gyvcglfx7f97kbqb2h83mm_r0000gn/T//ccCOLaPk.s 			page 32


 649:Drivers/STM32F3xx_HAL_Driver/Src/stm32f3xx_hal_flash.c ****       {
 861              		.loc 1 649 31 discriminator 1 view .LVU250
 862 0036 FFF7FEFF 		bl	HAL_GetTick
 863              	.LVL38:
 649:Drivers/STM32F3xx_HAL_Driver/Src/stm32f3xx_hal_flash.c ****       {
 864              		.loc 1 649 44 discriminator 1 view .LVU251
 865 003a 801B     		subs	r0, r0, r6
 649:Drivers/STM32F3xx_HAL_Driver/Src/stm32f3xx_hal_flash.c ****       {
 866              		.loc 1 649 26 discriminator 1 view .LVU252
 867 003c A842     		cmp	r0, r5
 868 003e E8D9     		bls	.L70
 869              	.L73:
 651:Drivers/STM32F3xx_HAL_Driver/Src/stm32f3xx_hal_flash.c ****       }
 870              		.loc 1 651 16 view .LVU253
 871 0040 0320     		movs	r0, #3
 673:Drivers/STM32F3xx_HAL_Driver/Src/stm32f3xx_hal_flash.c **** 
 872              		.loc 1 673 1 view .LVU254
 873 0042 70BD     		pop	{r4, r5, r6, pc}
 874              	.LVL39:
 875              	.L76:
 667:Drivers/STM32F3xx_HAL_Driver/Src/stm32f3xx_hal_flash.c ****     return HAL_ERROR;
 876              		.loc 1 667 5 is_stmt 1 view .LVU255
 877 0044 FFF7FEFF 		bl	FLASH_SetErrorCode
 878              	.LVL40:
 668:Drivers/STM32F3xx_HAL_Driver/Src/stm32f3xx_hal_flash.c ****   }
 879              		.loc 1 668 5 view .LVU256
 668:Drivers/STM32F3xx_HAL_Driver/Src/stm32f3xx_hal_flash.c ****   }
 880              		.loc 1 668 12 is_stmt 0 view .LVU257
 881 0048 0120     		movs	r0, #1
 673:Drivers/STM32F3xx_HAL_Driver/Src/stm32f3xx_hal_flash.c **** 
 882              		.loc 1 673 1 view .LVU258
 883 004a 70BD     		pop	{r4, r5, r6, pc}
 884              	.LVL41:
 885              	.L86:
 673:Drivers/STM32F3xx_HAL_Driver/Src/stm32f3xx_hal_flash.c **** 
 886              		.loc 1 673 1 view .LVU259
 887              		.align	2
 888              	.L85:
 889 004c 00200240 		.word	1073881088
 890              		.cfi_endproc
 891              	.LFE138:
 893              		.section	.text.HAL_FLASH_Program,"ax",%progbits
 894              		.align	1
 895              		.p2align 2,,3
 896              		.global	HAL_FLASH_Program
 897              		.syntax unified
 898              		.thumb
 899              		.thumb_func
 900              		.fpu fpv4-sp-d16
 902              	HAL_FLASH_Program:
 903              	.LVL42:
 904              	.LFB126:
 185:Drivers/STM32F3xx_HAL_Driver/Src/stm32f3xx_hal_flash.c ****   HAL_StatusTypeDef status = HAL_ERROR;
 905              		.loc 1 185 1 is_stmt 1 view -0
 906              		.cfi_startproc
 907              		@ args = 0, pretend = 0, frame = 0
 908              		@ frame_needed = 0, uses_anonymous_args = 0
ARM GAS  /var/folders/8c/gyvcglfx7f97kbqb2h83mm_r0000gn/T//ccCOLaPk.s 			page 33


 186:Drivers/STM32F3xx_HAL_Driver/Src/stm32f3xx_hal_flash.c ****   uint8_t index = 0U;
 909              		.loc 1 186 3 view .LVU261
 187:Drivers/STM32F3xx_HAL_Driver/Src/stm32f3xx_hal_flash.c ****   uint8_t nbiterations = 0U;
 910              		.loc 1 187 3 view .LVU262
 188:Drivers/STM32F3xx_HAL_Driver/Src/stm32f3xx_hal_flash.c ****   
 911              		.loc 1 188 3 view .LVU263
 191:Drivers/STM32F3xx_HAL_Driver/Src/stm32f3xx_hal_flash.c **** 
 912              		.loc 1 191 3 view .LVU264
 191:Drivers/STM32F3xx_HAL_Driver/Src/stm32f3xx_hal_flash.c **** 
 913              		.loc 1 191 3 view .LVU265
 185:Drivers/STM32F3xx_HAL_Driver/Src/stm32f3xx_hal_flash.c ****   HAL_StatusTypeDef status = HAL_ERROR;
 914              		.loc 1 185 1 is_stmt 0 view .LVU266
 915 0000 2DE9F84F 		push	{r3, r4, r5, r6, r7, r8, r9, r10, fp, lr}
 916              	.LCFI6:
 917              		.cfi_def_cfa_offset 40
 918              		.cfi_offset 3, -40
 919              		.cfi_offset 4, -36
 920              		.cfi_offset 5, -32
 921              		.cfi_offset 6, -28
 922              		.cfi_offset 7, -24
 923              		.cfi_offset 8, -20
 924              		.cfi_offset 9, -16
 925              		.cfi_offset 10, -12
 926              		.cfi_offset 11, -8
 927              		.cfi_offset 14, -4
 191:Drivers/STM32F3xx_HAL_Driver/Src/stm32f3xx_hal_flash.c **** 
 928              		.loc 1 191 3 view .LVU267
 929 0004 244E     		ldr	r6, .L97
 930 0006 347E     		ldrb	r4, [r6, #24]	@ zero_extendqisi2
 931 0008 012C     		cmp	r4, #1
 932 000a 41D0     		beq	.L92
 191:Drivers/STM32F3xx_HAL_Driver/Src/stm32f3xx_hal_flash.c **** 
 933              		.loc 1 191 3 is_stmt 1 discriminator 2 view .LVU268
 934 000c 0746     		mov	r7, r0
 935 000e 1D46     		mov	r5, r3
 198:Drivers/STM32F3xx_HAL_Driver/Src/stm32f3xx_hal_flash.c ****   
 936              		.loc 1 198 14 is_stmt 0 discriminator 2 view .LVU269
 937 0010 4CF25030 		movw	r0, #50000
 938              	.LVL43:
 191:Drivers/STM32F3xx_HAL_Driver/Src/stm32f3xx_hal_flash.c **** 
 939              		.loc 1 191 3 discriminator 2 view .LVU270
 940 0014 0123     		movs	r3, #1
 941 0016 8A46     		mov	r10, r1
 942 0018 9046     		mov	r8, r2
 943 001a 3376     		strb	r3, [r6, #24]
 194:Drivers/STM32F3xx_HAL_Driver/Src/stm32f3xx_hal_flash.c ****   assert_param(IS_FLASH_PROGRAM_ADDRESS(Address));
 944              		.loc 1 194 3 is_stmt 1 discriminator 2 view .LVU271
 195:Drivers/STM32F3xx_HAL_Driver/Src/stm32f3xx_hal_flash.c **** 
 945              		.loc 1 195 3 discriminator 2 view .LVU272
 198:Drivers/STM32F3xx_HAL_Driver/Src/stm32f3xx_hal_flash.c ****   
 946              		.loc 1 198 5 discriminator 2 view .LVU273
 198:Drivers/STM32F3xx_HAL_Driver/Src/stm32f3xx_hal_flash.c ****   
 947              		.loc 1 198 14 is_stmt 0 discriminator 2 view .LVU274
 948 001c FFF7FEFF 		bl	FLASH_WaitForLastOperation
 949              	.LVL44:
 200:Drivers/STM32F3xx_HAL_Driver/Src/stm32f3xx_hal_flash.c ****   {
 950              		.loc 1 200 3 is_stmt 1 discriminator 2 view .LVU275
ARM GAS  /var/folders/8c/gyvcglfx7f97kbqb2h83mm_r0000gn/T//ccCOLaPk.s 			page 34


 200:Drivers/STM32F3xx_HAL_Driver/Src/stm32f3xx_hal_flash.c ****   {
 951              		.loc 1 200 5 is_stmt 0 discriminator 2 view .LVU276
 952 0020 90BB     		cbnz	r0, .L89
 202:Drivers/STM32F3xx_HAL_Driver/Src/stm32f3xx_hal_flash.c ****     {
 953              		.loc 1 202 5 is_stmt 1 view .LVU277
 202:Drivers/STM32F3xx_HAL_Driver/Src/stm32f3xx_hal_flash.c ****     {
 954              		.loc 1 202 7 is_stmt 0 view .LVU278
 955 0022 012F     		cmp	r7, #1
 956 0024 03D0     		beq	.L90
 207:Drivers/STM32F3xx_HAL_Driver/Src/stm32f3xx_hal_flash.c ****     {
 957              		.loc 1 207 10 is_stmt 1 view .LVU279
 215:Drivers/STM32F3xx_HAL_Driver/Src/stm32f3xx_hal_flash.c ****     }
 958              		.loc 1 215 20 is_stmt 0 view .LVU280
 959 0026 022F     		cmp	r7, #2
 960 0028 0CBF     		ite	eq
 961 002a 0227     		moveq	r7, #2
 962              	.LVL45:
 215:Drivers/STM32F3xx_HAL_Driver/Src/stm32f3xx_hal_flash.c ****     }
 963              		.loc 1 215 20 view .LVU281
 964 002c 0427     		movne	r7, #4
 965              	.L90:
 966              	.LVL46:
 218:Drivers/STM32F3xx_HAL_Driver/Src/stm32f3xx_hal_flash.c ****     {
 967              		.loc 1 218 5 is_stmt 1 view .LVU282
 215:Drivers/STM32F3xx_HAL_Driver/Src/stm32f3xx_hal_flash.c ****     }
 968              		.loc 1 215 20 is_stmt 0 view .LVU283
 969 002e 0024     		movs	r4, #0
 970              	.LBB18:
 971              	.LBB19:
 626:Drivers/STM32F3xx_HAL_Driver/Src/stm32f3xx_hal_flash.c **** 
 972              		.loc 1 626 5 view .LVU284
 973 0030 DFF868B0 		ldr	fp, .L97+4
 974 0034 0AEB4707 		add	r7, r10, r7, lsl #1
 975              	.LVL47:
 623:Drivers/STM32F3xx_HAL_Driver/Src/stm32f3xx_hal_flash.c ****   
 976              		.loc 1 623 20 view .LVU285
 977 0038 A146     		mov	r9, r4
 978              	.LVL48:
 979              	.L91:
 623:Drivers/STM32F3xx_HAL_Driver/Src/stm32f3xx_hal_flash.c ****   
 980              		.loc 1 623 20 view .LVU286
 981              	.LBE19:
 982              	.LBE18:
 220:Drivers/STM32F3xx_HAL_Driver/Src/stm32f3xx_hal_flash.c **** 
 983              		.loc 1 220 7 is_stmt 1 view .LVU287
 220:Drivers/STM32F3xx_HAL_Driver/Src/stm32f3xx_hal_flash.c **** 
 984              		.loc 1 220 70 is_stmt 0 view .LVU288
 985 003a C4F12002 		rsb	r2, r4, #32
 986              	.LBB24:
 987              	.LBB20:
 623:Drivers/STM32F3xx_HAL_Driver/Src/stm32f3xx_hal_flash.c ****   
 988              		.loc 1 623 20 view .LVU289
 989 003e C6F81C90 		str	r9, [r6, #28]
 990              	.LBE20:
 991              	.LBE24:
 220:Drivers/STM32F3xx_HAL_Driver/Src/stm32f3xx_hal_flash.c **** 
 992              		.loc 1 220 70 view .LVU290
ARM GAS  /var/folders/8c/gyvcglfx7f97kbqb2h83mm_r0000gn/T//ccCOLaPk.s 			page 35


 993 0042 05FA02F2 		lsl	r2, r5, r2
 994 0046 28FA04F3 		lsr	r3, r8, r4
 995 004a A4F12001 		sub	r1, r4, #32
 996 004e 1343     		orrs	r3, r3, r2
 997 0050 25FA01F1 		lsr	r1, r5, r1
 998              	.LBB25:
 999              	.LBB21:
 626:Drivers/STM32F3xx_HAL_Driver/Src/stm32f3xx_hal_flash.c **** 
 1000              		.loc 1 626 5 view .LVU291
 1001 0054 DBF81020 		ldr	r2, [fp, #16]
 1002              	.LBE21:
 1003              	.LBE25:
 220:Drivers/STM32F3xx_HAL_Driver/Src/stm32f3xx_hal_flash.c **** 
 1004              		.loc 1 220 70 view .LVU292
 1005 0058 0B43     		orrs	r3, r3, r1
 220:Drivers/STM32F3xx_HAL_Driver/Src/stm32f3xx_hal_flash.c **** 
 1006              		.loc 1 220 7 view .LVU293
 1007 005a 9BB2     		uxth	r3, r3
 1008              	.LVL49:
 1009              	.LBB26:
 1010              	.LBI18:
 620:Drivers/STM32F3xx_HAL_Driver/Src/stm32f3xx_hal_flash.c **** {
 1011              		.loc 1 620 13 is_stmt 1 view .LVU294
 1012              	.LBB22:
 623:Drivers/STM32F3xx_HAL_Driver/Src/stm32f3xx_hal_flash.c ****   
 1013              		.loc 1 623 3 view .LVU295
 626:Drivers/STM32F3xx_HAL_Driver/Src/stm32f3xx_hal_flash.c **** 
 1014              		.loc 1 626 5 view .LVU296
 1015 005c 42F00102 		orr	r2, r2, #1
 1016 0060 CBF81020 		str	r2, [fp, #16]
 629:Drivers/STM32F3xx_HAL_Driver/Src/stm32f3xx_hal_flash.c **** }
 1017              		.loc 1 629 3 view .LVU297
 1018              	.LBE22:
 1019              	.LBE26:
 223:Drivers/STM32F3xx_HAL_Driver/Src/stm32f3xx_hal_flash.c ****     
 1020              		.loc 1 223 18 is_stmt 0 view .LVU298
 1021 0064 4CF25030 		movw	r0, #50000
 1022              	.LBB27:
 1023              	.LBB23:
 629:Drivers/STM32F3xx_HAL_Driver/Src/stm32f3xx_hal_flash.c **** }
 1024              		.loc 1 629 28 view .LVU299
 1025 0068 AAF80030 		strh	r3, [r10]	@ movhi
 1026              	.LVL50:
 629:Drivers/STM32F3xx_HAL_Driver/Src/stm32f3xx_hal_flash.c **** }
 1027              		.loc 1 629 28 view .LVU300
 1028              	.LBE23:
 1029              	.LBE27:
 223:Drivers/STM32F3xx_HAL_Driver/Src/stm32f3xx_hal_flash.c ****     
 1030              		.loc 1 223 9 is_stmt 1 view .LVU301
 223:Drivers/STM32F3xx_HAL_Driver/Src/stm32f3xx_hal_flash.c ****     
 1031              		.loc 1 223 18 is_stmt 0 view .LVU302
 1032 006c FFF7FEFF 		bl	FLASH_WaitForLastOperation
 1033              	.LVL51:
 226:Drivers/STM32F3xx_HAL_Driver/Src/stm32f3xx_hal_flash.c ****       /* In case of error, stop programation procedure */
 1034              		.loc 1 226 9 is_stmt 1 view .LVU303
 226:Drivers/STM32F3xx_HAL_Driver/Src/stm32f3xx_hal_flash.c ****       /* In case of error, stop programation procedure */
 1035              		.loc 1 226 9 is_stmt 0 view .LVU304
ARM GAS  /var/folders/8c/gyvcglfx7f97kbqb2h83mm_r0000gn/T//ccCOLaPk.s 			page 36


 1036 0070 DBF81030 		ldr	r3, [fp, #16]
 1037 0074 23F00103 		bic	r3, r3, #1
 1038 0078 0AF1020A 		add	r10, r10, #2
 1039 007c 1034     		adds	r4, r4, #16
 1040 007e CBF81030 		str	r3, [fp, #16]
 228:Drivers/STM32F3xx_HAL_Driver/Src/stm32f3xx_hal_flash.c ****       {
 1041              		.loc 1 228 7 is_stmt 1 view .LVU305
 228:Drivers/STM32F3xx_HAL_Driver/Src/stm32f3xx_hal_flash.c ****       {
 1042              		.loc 1 228 10 is_stmt 0 view .LVU306
 1043 0082 08B9     		cbnz	r0, .L89
 218:Drivers/STM32F3xx_HAL_Driver/Src/stm32f3xx_hal_flash.c ****     {
 1044              		.loc 1 218 5 discriminator 2 view .LVU307
 1045 0084 BA45     		cmp	r10, r7
 1046 0086 D8D1     		bne	.L91
 1047              	.LVL52:
 1048              	.L89:
 236:Drivers/STM32F3xx_HAL_Driver/Src/stm32f3xx_hal_flash.c **** 
 1049              		.loc 1 236 3 is_stmt 1 view .LVU308
 236:Drivers/STM32F3xx_HAL_Driver/Src/stm32f3xx_hal_flash.c **** 
 1050              		.loc 1 236 3 view .LVU309
 1051 0088 0023     		movs	r3, #0
 1052 008a 3376     		strb	r3, [r6, #24]
 238:Drivers/STM32F3xx_HAL_Driver/Src/stm32f3xx_hal_flash.c **** }
 1053              		.loc 1 238 3 view .LVU310
 239:Drivers/STM32F3xx_HAL_Driver/Src/stm32f3xx_hal_flash.c **** 
 1054              		.loc 1 239 1 is_stmt 0 view .LVU311
 1055 008c BDE8F88F 		pop	{r3, r4, r5, r6, r7, r8, r9, r10, fp, pc}
 1056              	.LVL53:
 1057              	.L92:
 191:Drivers/STM32F3xx_HAL_Driver/Src/stm32f3xx_hal_flash.c **** 
 1058              		.loc 1 191 3 view .LVU312
 1059 0090 0220     		movs	r0, #2
 1060              	.LVL54:
 239:Drivers/STM32F3xx_HAL_Driver/Src/stm32f3xx_hal_flash.c **** 
 1061              		.loc 1 239 1 view .LVU313
 1062 0092 BDE8F88F 		pop	{r3, r4, r5, r6, r7, r8, r9, r10, fp, pc}
 1063              	.L98:
 1064 0096 00BF     		.align	2
 1065              	.L97:
 1066 0098 00000000 		.word	pFlash
 1067 009c 00200240 		.word	1073881088
 1068              		.cfi_endproc
 1069              	.LFE126:
 1071              		.section	.text.HAL_FLASH_OB_Launch,"ax",%progbits
 1072              		.align	1
 1073              		.p2align 2,,3
 1074              		.global	HAL_FLASH_OB_Launch
 1075              		.syntax unified
 1076              		.thumb
 1077              		.thumb_func
 1078              		.fpu fpv4-sp-d16
 1080              	HAL_FLASH_OB_Launch:
 1081              	.LFB135:
 566:Drivers/STM32F3xx_HAL_Driver/Src/stm32f3xx_hal_flash.c ****   /* Set the OBL_Launch bit to launch the option byte loading */
 1082              		.loc 1 566 1 is_stmt 1 view -0
 1083              		.cfi_startproc
 1084              		@ args = 0, pretend = 0, frame = 0
ARM GAS  /var/folders/8c/gyvcglfx7f97kbqb2h83mm_r0000gn/T//ccCOLaPk.s 			page 37


 1085              		@ frame_needed = 0, uses_anonymous_args = 0
 1086              		@ link register save eliminated.
 568:Drivers/STM32F3xx_HAL_Driver/Src/stm32f3xx_hal_flash.c ****   
 1087              		.loc 1 568 3 view .LVU315
 1088 0000 044A     		ldr	r2, .L100
 1089 0002 1369     		ldr	r3, [r2, #16]
 1090 0004 43F40053 		orr	r3, r3, #8192
 1091 0008 1361     		str	r3, [r2, #16]
 571:Drivers/STM32F3xx_HAL_Driver/Src/stm32f3xx_hal_flash.c **** }
 1092              		.loc 1 571 3 view .LVU316
 571:Drivers/STM32F3xx_HAL_Driver/Src/stm32f3xx_hal_flash.c **** }
 1093              		.loc 1 571 10 is_stmt 0 view .LVU317
 1094 000a 4CF25030 		movw	r0, #50000
 1095 000e FFF7FEBF 		b	FLASH_WaitForLastOperation
 1096              	.LVL55:
 1097              	.L101:
 1098 0012 00BF     		.align	2
 1099              	.L100:
 1100 0014 00200240 		.word	1073881088
 1101              		.cfi_endproc
 1102              	.LFE135:
 1104              		.comm	pFlash,32,8
 1105              		.text
 1106              	.Letext0:
 1107              		.file 2 "/usr/local/gcc-arm-none-eabi-8-2018-q4-major/arm-none-eabi/include/machine/_default_types
 1108              		.file 3 "/usr/local/gcc-arm-none-eabi-8-2018-q4-major/arm-none-eabi/include/sys/_stdint.h"
 1109              		.file 4 "/usr/local/gcc-arm-none-eabi-8-2018-q4-major/arm-none-eabi/include/sys/lock.h"
 1110              		.file 5 "/usr/local/gcc-arm-none-eabi-8-2018-q4-major/arm-none-eabi/include/sys/_types.h"
 1111              		.file 6 "/usr/local/gcc-arm-none-eabi-8-2018-q4-major/lib/gcc/arm-none-eabi/8.2.1/include/stddef.h
 1112              		.file 7 "/usr/local/gcc-arm-none-eabi-8-2018-q4-major/arm-none-eabi/include/sys/reent.h"
 1113              		.file 8 "/usr/local/gcc-arm-none-eabi-8-2018-q4-major/arm-none-eabi/include/stdlib.h"
 1114              		.file 9 "Drivers/CMSIS/Include/core_cm4.h"
 1115              		.file 10 "Drivers/CMSIS/Device/ST/STM32F3xx/Include/system_stm32f3xx.h"
 1116              		.file 11 "Drivers/CMSIS/Device/ST/STM32F3xx/Include/stm32f303xe.h"
 1117              		.file 12 "Drivers/CMSIS/Device/ST/STM32F3xx/Include/stm32f3xx.h"
 1118              		.file 13 "Drivers/STM32F3xx_HAL_Driver/Inc/stm32f3xx_hal_def.h"
 1119              		.file 14 "Drivers/STM32F3xx_HAL_Driver/Inc/stm32f3xx_hal_flash.h"
 1120              		.file 15 "Drivers/STM32F3xx_HAL_Driver/Inc/stm32f3xx_hal.h"
ARM GAS  /var/folders/8c/gyvcglfx7f97kbqb2h83mm_r0000gn/T//ccCOLaPk.s 			page 38

