ARM GAS  /var/folders/8c/gyvcglfx7f97kbqb2h83mm_r0000gn/T//cc2L7hyi.s 			page 1


   1              		.cpu cortex-m4
   2              		.eabi_attribute 27, 1
   3              		.eabi_attribute 28, 1
   4              		.eabi_attribute 20, 1
   5              		.eabi_attribute 21, 1
   6              		.eabi_attribute 23, 3
   7              		.eabi_attribute 24, 1
   8              		.eabi_attribute 25, 1
   9              		.eabi_attribute 26, 1
  10              		.eabi_attribute 30, 2
  11              		.eabi_attribute 34, 1
  12              		.eabi_attribute 18, 4
  13              		.file	"stm32f3xx_hal_opamp_ex.c"
  14              		.text
  15              	.Ltext0:
  16              		.cfi_sections	.debug_frame
  17              		.section	.text.HAL_OPAMPEx_SelfCalibrateAll,"ax",%progbits
  18              		.align	1
  19              		.p2align 2,,3
  20              		.global	HAL_OPAMPEx_SelfCalibrateAll
  21              		.arch armv7e-m
  22              		.syntax unified
  23              		.thumb
  24              		.thumb_func
  25              		.fpu fpv4-sp-d16
  27              	HAL_OPAMPEx_SelfCalibrateAll:
  28              	.LVL0:
  29              	.LFB126:
  30              		.file 1 "Drivers/STM32F3xx_HAL_Driver/Src/stm32f3xx_hal_opamp_ex.c"
   1:Drivers/STM32F3xx_HAL_Driver/Src/stm32f3xx_hal_opamp_ex.c **** /**
   2:Drivers/STM32F3xx_HAL_Driver/Src/stm32f3xx_hal_opamp_ex.c ****   ******************************************************************************
   3:Drivers/STM32F3xx_HAL_Driver/Src/stm32f3xx_hal_opamp_ex.c ****   * @file    stm32f3xx_hal_opamp_ex.c
   4:Drivers/STM32F3xx_HAL_Driver/Src/stm32f3xx_hal_opamp_ex.c ****   * @author  MCD Application Team
   5:Drivers/STM32F3xx_HAL_Driver/Src/stm32f3xx_hal_opamp_ex.c ****   * @brief   Extended OPAMP HAL module driver.
   6:Drivers/STM32F3xx_HAL_Driver/Src/stm32f3xx_hal_opamp_ex.c ****   *
   7:Drivers/STM32F3xx_HAL_Driver/Src/stm32f3xx_hal_opamp_ex.c ****   *          This file provides firmware functions to manage the following
   8:Drivers/STM32F3xx_HAL_Driver/Src/stm32f3xx_hal_opamp_ex.c ****   *          functionalities of the Power Controller (OPAMP) peripheral:
   9:Drivers/STM32F3xx_HAL_Driver/Src/stm32f3xx_hal_opamp_ex.c ****   *           + Extended Initialization and de-initialization  functions
  10:Drivers/STM32F3xx_HAL_Driver/Src/stm32f3xx_hal_opamp_ex.c ****   *           + Extended Peripheral Control  functions
  11:Drivers/STM32F3xx_HAL_Driver/Src/stm32f3xx_hal_opamp_ex.c ****   *         
  12:Drivers/STM32F3xx_HAL_Driver/Src/stm32f3xx_hal_opamp_ex.c ****   @verbatim
  13:Drivers/STM32F3xx_HAL_Driver/Src/stm32f3xx_hal_opamp_ex.c ****   ******************************************************************************
  14:Drivers/STM32F3xx_HAL_Driver/Src/stm32f3xx_hal_opamp_ex.c ****   * @attention
  15:Drivers/STM32F3xx_HAL_Driver/Src/stm32f3xx_hal_opamp_ex.c ****   *
  16:Drivers/STM32F3xx_HAL_Driver/Src/stm32f3xx_hal_opamp_ex.c ****   * <h2><center>&copy; COPYRIGHT(c) 2016 STMicroelectronics</center></h2>
  17:Drivers/STM32F3xx_HAL_Driver/Src/stm32f3xx_hal_opamp_ex.c ****   *
  18:Drivers/STM32F3xx_HAL_Driver/Src/stm32f3xx_hal_opamp_ex.c ****   * Redistribution and use in source and binary forms, with or without modification,
  19:Drivers/STM32F3xx_HAL_Driver/Src/stm32f3xx_hal_opamp_ex.c ****   * are permitted provided that the following conditions are met:
  20:Drivers/STM32F3xx_HAL_Driver/Src/stm32f3xx_hal_opamp_ex.c ****   *   1. Redistributions of source code must retain the above copyright notice,
  21:Drivers/STM32F3xx_HAL_Driver/Src/stm32f3xx_hal_opamp_ex.c ****   *      this list of conditions and the following disclaimer.
  22:Drivers/STM32F3xx_HAL_Driver/Src/stm32f3xx_hal_opamp_ex.c ****   *   2. Redistributions in binary form must reproduce the above copyright notice,
  23:Drivers/STM32F3xx_HAL_Driver/Src/stm32f3xx_hal_opamp_ex.c ****   *      this list of conditions and the following disclaimer in the documentation
  24:Drivers/STM32F3xx_HAL_Driver/Src/stm32f3xx_hal_opamp_ex.c ****   *      and/or other materials provided with the distribution.
  25:Drivers/STM32F3xx_HAL_Driver/Src/stm32f3xx_hal_opamp_ex.c ****   *   3. Neither the name of STMicroelectronics nor the names of its contributors
  26:Drivers/STM32F3xx_HAL_Driver/Src/stm32f3xx_hal_opamp_ex.c ****   *      may be used to endorse or promote products derived from this software
  27:Drivers/STM32F3xx_HAL_Driver/Src/stm32f3xx_hal_opamp_ex.c ****   *      without specific prior written permission.
  28:Drivers/STM32F3xx_HAL_Driver/Src/stm32f3xx_hal_opamp_ex.c ****   *
ARM GAS  /var/folders/8c/gyvcglfx7f97kbqb2h83mm_r0000gn/T//cc2L7hyi.s 			page 2


  29:Drivers/STM32F3xx_HAL_Driver/Src/stm32f3xx_hal_opamp_ex.c ****   * THIS SOFTWARE IS PROVIDED BY THE COPYRIGHT HOLDERS AND CONTRIBUTORS "AS IS"
  30:Drivers/STM32F3xx_HAL_Driver/Src/stm32f3xx_hal_opamp_ex.c ****   * AND ANY EXPRESS OR IMPLIED WARRANTIES, INCLUDING, BUT NOT LIMITED TO, THE
  31:Drivers/STM32F3xx_HAL_Driver/Src/stm32f3xx_hal_opamp_ex.c ****   * IMPLIED WARRANTIES OF MERCHANTABILITY AND FITNESS FOR A PARTICULAR PURPOSE ARE
  32:Drivers/STM32F3xx_HAL_Driver/Src/stm32f3xx_hal_opamp_ex.c ****   * DISCLAIMED. IN NO EVENT SHALL THE COPYRIGHT HOLDER OR CONTRIBUTORS BE LIABLE
  33:Drivers/STM32F3xx_HAL_Driver/Src/stm32f3xx_hal_opamp_ex.c ****   * FOR ANY DIRECT, INDIRECT, INCIDENTAL, SPECIAL, EXEMPLARY, OR CONSEQUENTIAL
  34:Drivers/STM32F3xx_HAL_Driver/Src/stm32f3xx_hal_opamp_ex.c ****   * DAMAGES (INCLUDING, BUT NOT LIMITED TO, PROCUREMENT OF SUBSTITUTE GOODS OR
  35:Drivers/STM32F3xx_HAL_Driver/Src/stm32f3xx_hal_opamp_ex.c ****   * SERVICES; LOSS OF USE, DATA, OR PROFITS; OR BUSINESS INTERRUPTION) HOWEVER
  36:Drivers/STM32F3xx_HAL_Driver/Src/stm32f3xx_hal_opamp_ex.c ****   * CAUSED AND ON ANY THEORY OF LIABILITY, WHETHER IN CONTRACT, STRICT LIABILITY,
  37:Drivers/STM32F3xx_HAL_Driver/Src/stm32f3xx_hal_opamp_ex.c ****   * OR TORT (INCLUDING NEGLIGENCE OR OTHERWISE) ARISING IN ANY WAY OUT OF THE USE
  38:Drivers/STM32F3xx_HAL_Driver/Src/stm32f3xx_hal_opamp_ex.c ****   * OF THIS SOFTWARE, EVEN IF ADVISED OF THE POSSIBILITY OF SUCH DAMAGE.
  39:Drivers/STM32F3xx_HAL_Driver/Src/stm32f3xx_hal_opamp_ex.c ****   *
  40:Drivers/STM32F3xx_HAL_Driver/Src/stm32f3xx_hal_opamp_ex.c ****   ******************************************************************************
  41:Drivers/STM32F3xx_HAL_Driver/Src/stm32f3xx_hal_opamp_ex.c ****   */
  42:Drivers/STM32F3xx_HAL_Driver/Src/stm32f3xx_hal_opamp_ex.c **** 
  43:Drivers/STM32F3xx_HAL_Driver/Src/stm32f3xx_hal_opamp_ex.c **** /* Includes ------------------------------------------------------------------*/
  44:Drivers/STM32F3xx_HAL_Driver/Src/stm32f3xx_hal_opamp_ex.c **** #include "stm32f3xx_hal.h"
  45:Drivers/STM32F3xx_HAL_Driver/Src/stm32f3xx_hal_opamp_ex.c **** 
  46:Drivers/STM32F3xx_HAL_Driver/Src/stm32f3xx_hal_opamp_ex.c **** /** @addtogroup STM32F3xx_HAL_Driver
  47:Drivers/STM32F3xx_HAL_Driver/Src/stm32f3xx_hal_opamp_ex.c ****   * @{
  48:Drivers/STM32F3xx_HAL_Driver/Src/stm32f3xx_hal_opamp_ex.c ****   */
  49:Drivers/STM32F3xx_HAL_Driver/Src/stm32f3xx_hal_opamp_ex.c **** 
  50:Drivers/STM32F3xx_HAL_Driver/Src/stm32f3xx_hal_opamp_ex.c **** #ifdef HAL_OPAMP_MODULE_ENABLED
  51:Drivers/STM32F3xx_HAL_Driver/Src/stm32f3xx_hal_opamp_ex.c **** 
  52:Drivers/STM32F3xx_HAL_Driver/Src/stm32f3xx_hal_opamp_ex.c **** #if defined(STM32F302xE) || defined(STM32F303xE) || defined(STM32F398xx) || \
  53:Drivers/STM32F3xx_HAL_Driver/Src/stm32f3xx_hal_opamp_ex.c ****     defined(STM32F302xC) || defined(STM32F303xC) || defined(STM32F358xx) || \
  54:Drivers/STM32F3xx_HAL_Driver/Src/stm32f3xx_hal_opamp_ex.c ****     defined(STM32F303x8) || defined(STM32F334x8) || defined(STM32F328xx) || \
  55:Drivers/STM32F3xx_HAL_Driver/Src/stm32f3xx_hal_opamp_ex.c ****     defined(STM32F301x8) || defined(STM32F302x8) || defined(STM32F318xx)
  56:Drivers/STM32F3xx_HAL_Driver/Src/stm32f3xx_hal_opamp_ex.c **** 
  57:Drivers/STM32F3xx_HAL_Driver/Src/stm32f3xx_hal_opamp_ex.c **** /** @defgroup OPAMPEx OPAMPEx
  58:Drivers/STM32F3xx_HAL_Driver/Src/stm32f3xx_hal_opamp_ex.c ****   * @brief OPAMP Extended HAL module driver.
  59:Drivers/STM32F3xx_HAL_Driver/Src/stm32f3xx_hal_opamp_ex.c ****   * @{
  60:Drivers/STM32F3xx_HAL_Driver/Src/stm32f3xx_hal_opamp_ex.c ****   */
  61:Drivers/STM32F3xx_HAL_Driver/Src/stm32f3xx_hal_opamp_ex.c **** 
  62:Drivers/STM32F3xx_HAL_Driver/Src/stm32f3xx_hal_opamp_ex.c **** 
  63:Drivers/STM32F3xx_HAL_Driver/Src/stm32f3xx_hal_opamp_ex.c **** /* Private typedef -----------------------------------------------------------*/
  64:Drivers/STM32F3xx_HAL_Driver/Src/stm32f3xx_hal_opamp_ex.c **** /* Private define ------------------------------------------------------------*/
  65:Drivers/STM32F3xx_HAL_Driver/Src/stm32f3xx_hal_opamp_ex.c **** /* Private macro -------------------------------------------------------------*/
  66:Drivers/STM32F3xx_HAL_Driver/Src/stm32f3xx_hal_opamp_ex.c **** /* Private variables ---------------------------------------------------------*/
  67:Drivers/STM32F3xx_HAL_Driver/Src/stm32f3xx_hal_opamp_ex.c **** /* Private function prototypes -----------------------------------------------*/
  68:Drivers/STM32F3xx_HAL_Driver/Src/stm32f3xx_hal_opamp_ex.c **** /* Exported functions ---------------------------------------------------------*/
  69:Drivers/STM32F3xx_HAL_Driver/Src/stm32f3xx_hal_opamp_ex.c **** 
  70:Drivers/STM32F3xx_HAL_Driver/Src/stm32f3xx_hal_opamp_ex.c **** /** @defgroup OPAMPEx_Exported_Functions OPAMP Extended Exported Functions
  71:Drivers/STM32F3xx_HAL_Driver/Src/stm32f3xx_hal_opamp_ex.c ****   * @{
  72:Drivers/STM32F3xx_HAL_Driver/Src/stm32f3xx_hal_opamp_ex.c ****   */
  73:Drivers/STM32F3xx_HAL_Driver/Src/stm32f3xx_hal_opamp_ex.c **** 
  74:Drivers/STM32F3xx_HAL_Driver/Src/stm32f3xx_hal_opamp_ex.c **** 
  75:Drivers/STM32F3xx_HAL_Driver/Src/stm32f3xx_hal_opamp_ex.c **** /** @defgroup OPAMPEx_Exported_Functions_Group1 Extended Input and Output operation functions
  76:Drivers/STM32F3xx_HAL_Driver/Src/stm32f3xx_hal_opamp_ex.c ****   * @brief    Extended Self calibration functions
  77:Drivers/STM32F3xx_HAL_Driver/Src/stm32f3xx_hal_opamp_ex.c ****   *
  78:Drivers/STM32F3xx_HAL_Driver/Src/stm32f3xx_hal_opamp_ex.c **** @verbatim
  79:Drivers/STM32F3xx_HAL_Driver/Src/stm32f3xx_hal_opamp_ex.c ****  ===============================================================================
  80:Drivers/STM32F3xx_HAL_Driver/Src/stm32f3xx_hal_opamp_ex.c ****               ##### Extended IO operation functions #####
  81:Drivers/STM32F3xx_HAL_Driver/Src/stm32f3xx_hal_opamp_ex.c ****  ===============================================================================
  82:Drivers/STM32F3xx_HAL_Driver/Src/stm32f3xx_hal_opamp_ex.c ****   [..]
  83:Drivers/STM32F3xx_HAL_Driver/Src/stm32f3xx_hal_opamp_ex.c **** 
  84:Drivers/STM32F3xx_HAL_Driver/Src/stm32f3xx_hal_opamp_ex.c **** @endverbatim
  85:Drivers/STM32F3xx_HAL_Driver/Src/stm32f3xx_hal_opamp_ex.c ****   * @{
ARM GAS  /var/folders/8c/gyvcglfx7f97kbqb2h83mm_r0000gn/T//cc2L7hyi.s 			page 3


  86:Drivers/STM32F3xx_HAL_Driver/Src/stm32f3xx_hal_opamp_ex.c ****   */
  87:Drivers/STM32F3xx_HAL_Driver/Src/stm32f3xx_hal_opamp_ex.c **** 
  88:Drivers/STM32F3xx_HAL_Driver/Src/stm32f3xx_hal_opamp_ex.c **** #if defined(STM32F302xE) || \
  89:Drivers/STM32F3xx_HAL_Driver/Src/stm32f3xx_hal_opamp_ex.c ****     defined(STM32F302xC)
  90:Drivers/STM32F3xx_HAL_Driver/Src/stm32f3xx_hal_opamp_ex.c **** /*  2 OPAMPS available */
  91:Drivers/STM32F3xx_HAL_Driver/Src/stm32f3xx_hal_opamp_ex.c **** /*  2 OPAMPS can be calibrated in parallel */
  92:Drivers/STM32F3xx_HAL_Driver/Src/stm32f3xx_hal_opamp_ex.c **** 
  93:Drivers/STM32F3xx_HAL_Driver/Src/stm32f3xx_hal_opamp_ex.c **** /**
  94:Drivers/STM32F3xx_HAL_Driver/Src/stm32f3xx_hal_opamp_ex.c ****   * @brief  Run the self calibration of 2 OPAMPs in parallel.
  95:Drivers/STM32F3xx_HAL_Driver/Src/stm32f3xx_hal_opamp_ex.c ****   * @param  hopamp1 handle
  96:Drivers/STM32F3xx_HAL_Driver/Src/stm32f3xx_hal_opamp_ex.c ****   * @param  hopamp2 handle
  97:Drivers/STM32F3xx_HAL_Driver/Src/stm32f3xx_hal_opamp_ex.c ****   * @retval HAL status
  98:Drivers/STM32F3xx_HAL_Driver/Src/stm32f3xx_hal_opamp_ex.c ****   * @note   Updated offset trimming values (PMOS & NMOS), user trimming is enabled
  99:Drivers/STM32F3xx_HAL_Driver/Src/stm32f3xx_hal_opamp_ex.c ****   * @note   Calibration runs about 25 ms.
 100:Drivers/STM32F3xx_HAL_Driver/Src/stm32f3xx_hal_opamp_ex.c ****   */
 101:Drivers/STM32F3xx_HAL_Driver/Src/stm32f3xx_hal_opamp_ex.c **** 
 102:Drivers/STM32F3xx_HAL_Driver/Src/stm32f3xx_hal_opamp_ex.c **** HAL_StatusTypeDef HAL_OPAMPEx_SelfCalibrateAll(OPAMP_HandleTypeDef *hopamp1, OPAMP_HandleTypeDef *h
 103:Drivers/STM32F3xx_HAL_Driver/Src/stm32f3xx_hal_opamp_ex.c **** {
 104:Drivers/STM32F3xx_HAL_Driver/Src/stm32f3xx_hal_opamp_ex.c ****   HAL_StatusTypeDef status = HAL_OK;
 105:Drivers/STM32F3xx_HAL_Driver/Src/stm32f3xx_hal_opamp_ex.c ****   
 106:Drivers/STM32F3xx_HAL_Driver/Src/stm32f3xx_hal_opamp_ex.c ****   uint32_t trimmingvaluen1 = 0U;
 107:Drivers/STM32F3xx_HAL_Driver/Src/stm32f3xx_hal_opamp_ex.c ****   uint32_t trimmingvaluep1 = 0U;
 108:Drivers/STM32F3xx_HAL_Driver/Src/stm32f3xx_hal_opamp_ex.c ****   uint32_t trimmingvaluen2 = 0U;
 109:Drivers/STM32F3xx_HAL_Driver/Src/stm32f3xx_hal_opamp_ex.c ****   uint32_t trimmingvaluep2 = 0U;
 110:Drivers/STM32F3xx_HAL_Driver/Src/stm32f3xx_hal_opamp_ex.c **** 
 111:Drivers/STM32F3xx_HAL_Driver/Src/stm32f3xx_hal_opamp_ex.c ****   uint32_t delta;
 112:Drivers/STM32F3xx_HAL_Driver/Src/stm32f3xx_hal_opamp_ex.c **** 
 113:Drivers/STM32F3xx_HAL_Driver/Src/stm32f3xx_hal_opamp_ex.c ****   if((hopamp1 == NULL) || (hopamp1->State == HAL_OPAMP_STATE_BUSYLOCKED) || \
 114:Drivers/STM32F3xx_HAL_Driver/Src/stm32f3xx_hal_opamp_ex.c ****      (hopamp2 == NULL) || (hopamp2->State == HAL_OPAMP_STATE_BUSYLOCKED)) 
 115:Drivers/STM32F3xx_HAL_Driver/Src/stm32f3xx_hal_opamp_ex.c ****   {
 116:Drivers/STM32F3xx_HAL_Driver/Src/stm32f3xx_hal_opamp_ex.c ****     status = HAL_ERROR;
 117:Drivers/STM32F3xx_HAL_Driver/Src/stm32f3xx_hal_opamp_ex.c ****   }
 118:Drivers/STM32F3xx_HAL_Driver/Src/stm32f3xx_hal_opamp_ex.c ****  
 119:Drivers/STM32F3xx_HAL_Driver/Src/stm32f3xx_hal_opamp_ex.c ****   if(status == HAL_OK)
 120:Drivers/STM32F3xx_HAL_Driver/Src/stm32f3xx_hal_opamp_ex.c ****   {
 121:Drivers/STM32F3xx_HAL_Driver/Src/stm32f3xx_hal_opamp_ex.c ****     /* Check if OPAMP in calibration mode and calibration not yet enable */
 122:Drivers/STM32F3xx_HAL_Driver/Src/stm32f3xx_hal_opamp_ex.c ****     if((hopamp1->State ==  HAL_OPAMP_STATE_READY) && (hopamp2->State ==  HAL_OPAMP_STATE_READY))
 123:Drivers/STM32F3xx_HAL_Driver/Src/stm32f3xx_hal_opamp_ex.c ****     {
 124:Drivers/STM32F3xx_HAL_Driver/Src/stm32f3xx_hal_opamp_ex.c ****       /* Check the parameter */
 125:Drivers/STM32F3xx_HAL_Driver/Src/stm32f3xx_hal_opamp_ex.c ****       assert_param(IS_OPAMP_ALL_INSTANCE(hopamp1->Instance));
 126:Drivers/STM32F3xx_HAL_Driver/Src/stm32f3xx_hal_opamp_ex.c ****       assert_param(IS_OPAMP_ALL_INSTANCE(hopamp2->Instance));
 127:Drivers/STM32F3xx_HAL_Driver/Src/stm32f3xx_hal_opamp_ex.c **** 
 128:Drivers/STM32F3xx_HAL_Driver/Src/stm32f3xx_hal_opamp_ex.c ****       /* Set Calibration mode */
 129:Drivers/STM32F3xx_HAL_Driver/Src/stm32f3xx_hal_opamp_ex.c ****       /* Non-inverting input connected to calibration reference voltage. */
 130:Drivers/STM32F3xx_HAL_Driver/Src/stm32f3xx_hal_opamp_ex.c ****       SET_BIT(hopamp1->Instance->CSR, OPAMP_CSR_FORCEVP);
 131:Drivers/STM32F3xx_HAL_Driver/Src/stm32f3xx_hal_opamp_ex.c ****       SET_BIT(hopamp2->Instance->CSR, OPAMP_CSR_FORCEVP);
 132:Drivers/STM32F3xx_HAL_Driver/Src/stm32f3xx_hal_opamp_ex.c ****       
 133:Drivers/STM32F3xx_HAL_Driver/Src/stm32f3xx_hal_opamp_ex.c ****       /*  user trimming values are used for offset calibration */
 134:Drivers/STM32F3xx_HAL_Driver/Src/stm32f3xx_hal_opamp_ex.c ****       SET_BIT(hopamp1->Instance->CSR, OPAMP_CSR_USERTRIM);
 135:Drivers/STM32F3xx_HAL_Driver/Src/stm32f3xx_hal_opamp_ex.c ****       SET_BIT(hopamp2->Instance->CSR, OPAMP_CSR_USERTRIM);
 136:Drivers/STM32F3xx_HAL_Driver/Src/stm32f3xx_hal_opamp_ex.c ****       
 137:Drivers/STM32F3xx_HAL_Driver/Src/stm32f3xx_hal_opamp_ex.c ****       /* Enable calibration */
 138:Drivers/STM32F3xx_HAL_Driver/Src/stm32f3xx_hal_opamp_ex.c ****       SET_BIT (hopamp1->Instance->CSR, OPAMP_CSR_CALON);
 139:Drivers/STM32F3xx_HAL_Driver/Src/stm32f3xx_hal_opamp_ex.c ****       SET_BIT (hopamp2->Instance->CSR, OPAMP_CSR_CALON);
 140:Drivers/STM32F3xx_HAL_Driver/Src/stm32f3xx_hal_opamp_ex.c ****       
 141:Drivers/STM32F3xx_HAL_Driver/Src/stm32f3xx_hal_opamp_ex.c ****       /* 1st calibration - N */
 142:Drivers/STM32F3xx_HAL_Driver/Src/stm32f3xx_hal_opamp_ex.c ****       /* Select 90U% VREF */
ARM GAS  /var/folders/8c/gyvcglfx7f97kbqb2h83mm_r0000gn/T//cc2L7hyi.s 			page 4


 143:Drivers/STM32F3xx_HAL_Driver/Src/stm32f3xx_hal_opamp_ex.c ****       MODIFY_REG(hopamp1->Instance->CSR, OPAMP_CSR_CALSEL, OPAMP_VREF_90VDDA);
 144:Drivers/STM32F3xx_HAL_Driver/Src/stm32f3xx_hal_opamp_ex.c ****       MODIFY_REG(hopamp2->Instance->CSR, OPAMP_CSR_CALSEL, OPAMP_VREF_90VDDA);
 145:Drivers/STM32F3xx_HAL_Driver/Src/stm32f3xx_hal_opamp_ex.c ****       
 146:Drivers/STM32F3xx_HAL_Driver/Src/stm32f3xx_hal_opamp_ex.c ****       /* Enable the opamps */
 147:Drivers/STM32F3xx_HAL_Driver/Src/stm32f3xx_hal_opamp_ex.c ****       SET_BIT (hopamp1->Instance->CSR, OPAMP_CSR_OPAMPxEN);
 148:Drivers/STM32F3xx_HAL_Driver/Src/stm32f3xx_hal_opamp_ex.c ****       SET_BIT (hopamp2->Instance->CSR, OPAMP_CSR_OPAMPxEN);
 149:Drivers/STM32F3xx_HAL_Driver/Src/stm32f3xx_hal_opamp_ex.c ****       
 150:Drivers/STM32F3xx_HAL_Driver/Src/stm32f3xx_hal_opamp_ex.c ****       /* Init trimming counter */    
 151:Drivers/STM32F3xx_HAL_Driver/Src/stm32f3xx_hal_opamp_ex.c ****       /* Medium value */
 152:Drivers/STM32F3xx_HAL_Driver/Src/stm32f3xx_hal_opamp_ex.c ****       trimmingvaluen1 = 16U; 
 153:Drivers/STM32F3xx_HAL_Driver/Src/stm32f3xx_hal_opamp_ex.c ****       trimmingvaluen2 = 16U; 
 154:Drivers/STM32F3xx_HAL_Driver/Src/stm32f3xx_hal_opamp_ex.c ****       delta = 8U; 
 155:Drivers/STM32F3xx_HAL_Driver/Src/stm32f3xx_hal_opamp_ex.c ****     
 156:Drivers/STM32F3xx_HAL_Driver/Src/stm32f3xx_hal_opamp_ex.c ****       while (delta != 0U)
 157:Drivers/STM32F3xx_HAL_Driver/Src/stm32f3xx_hal_opamp_ex.c ****       {
 158:Drivers/STM32F3xx_HAL_Driver/Src/stm32f3xx_hal_opamp_ex.c ****         /* Set candidate trimming */
 159:Drivers/STM32F3xx_HAL_Driver/Src/stm32f3xx_hal_opamp_ex.c ****         MODIFY_REG(hopamp1->Instance->CSR, OPAMP_CSR_TRIMOFFSETN, trimmingvaluen1<<OPAMP_INPUT_INVE
 160:Drivers/STM32F3xx_HAL_Driver/Src/stm32f3xx_hal_opamp_ex.c ****         MODIFY_REG(hopamp2->Instance->CSR, OPAMP_CSR_TRIMOFFSETN, trimmingvaluen2<<OPAMP_INPUT_INVE
 161:Drivers/STM32F3xx_HAL_Driver/Src/stm32f3xx_hal_opamp_ex.c ****               
 162:Drivers/STM32F3xx_HAL_Driver/Src/stm32f3xx_hal_opamp_ex.c ****         /* OFFTRIMmax delay 2 ms as per datasheet (electrical characteristics */ 
 163:Drivers/STM32F3xx_HAL_Driver/Src/stm32f3xx_hal_opamp_ex.c ****         /* Offset trim time: during calibration, minimum time needed between */
 164:Drivers/STM32F3xx_HAL_Driver/Src/stm32f3xx_hal_opamp_ex.c ****         /* two steps to have 1 mV accuracy */
 165:Drivers/STM32F3xx_HAL_Driver/Src/stm32f3xx_hal_opamp_ex.c ****         HAL_Delay(2U);
 166:Drivers/STM32F3xx_HAL_Driver/Src/stm32f3xx_hal_opamp_ex.c **** 
 167:Drivers/STM32F3xx_HAL_Driver/Src/stm32f3xx_hal_opamp_ex.c ****         if (hopamp1->Instance->CSR & OPAMP_CSR_OUTCAL) 
 168:Drivers/STM32F3xx_HAL_Driver/Src/stm32f3xx_hal_opamp_ex.c ****         { 
 169:Drivers/STM32F3xx_HAL_Driver/Src/stm32f3xx_hal_opamp_ex.c ****           /* OPAMP_CSR_OUTCAL is HIGH try higher trimming */
 170:Drivers/STM32F3xx_HAL_Driver/Src/stm32f3xx_hal_opamp_ex.c ****           trimmingvaluen1 += delta;
 171:Drivers/STM32F3xx_HAL_Driver/Src/stm32f3xx_hal_opamp_ex.c ****         }
 172:Drivers/STM32F3xx_HAL_Driver/Src/stm32f3xx_hal_opamp_ex.c ****         else
 173:Drivers/STM32F3xx_HAL_Driver/Src/stm32f3xx_hal_opamp_ex.c ****         {
 174:Drivers/STM32F3xx_HAL_Driver/Src/stm32f3xx_hal_opamp_ex.c ****           /* OPAMP_CSR_OUTCAL is LOW try lower trimming */
 175:Drivers/STM32F3xx_HAL_Driver/Src/stm32f3xx_hal_opamp_ex.c ****           trimmingvaluen1 -= delta;
 176:Drivers/STM32F3xx_HAL_Driver/Src/stm32f3xx_hal_opamp_ex.c ****         }
 177:Drivers/STM32F3xx_HAL_Driver/Src/stm32f3xx_hal_opamp_ex.c **** 
 178:Drivers/STM32F3xx_HAL_Driver/Src/stm32f3xx_hal_opamp_ex.c ****         if (hopamp2->Instance->CSR & OPAMP_CSR_OUTCAL) 
 179:Drivers/STM32F3xx_HAL_Driver/Src/stm32f3xx_hal_opamp_ex.c ****         { 
 180:Drivers/STM32F3xx_HAL_Driver/Src/stm32f3xx_hal_opamp_ex.c ****           /* OPAMP_CSR_OUTCAL is HIGH try higher trimming */
 181:Drivers/STM32F3xx_HAL_Driver/Src/stm32f3xx_hal_opamp_ex.c ****           trimmingvaluen2 += delta;
 182:Drivers/STM32F3xx_HAL_Driver/Src/stm32f3xx_hal_opamp_ex.c ****         }
 183:Drivers/STM32F3xx_HAL_Driver/Src/stm32f3xx_hal_opamp_ex.c ****         else
 184:Drivers/STM32F3xx_HAL_Driver/Src/stm32f3xx_hal_opamp_ex.c ****         {
 185:Drivers/STM32F3xx_HAL_Driver/Src/stm32f3xx_hal_opamp_ex.c ****           /* OPAMP_CSR_OUTCAL is LOW try lower trimming */
 186:Drivers/STM32F3xx_HAL_Driver/Src/stm32f3xx_hal_opamp_ex.c ****           trimmingvaluen2 -= delta;
 187:Drivers/STM32F3xx_HAL_Driver/Src/stm32f3xx_hal_opamp_ex.c ****         }
 188:Drivers/STM32F3xx_HAL_Driver/Src/stm32f3xx_hal_opamp_ex.c ****                       
 189:Drivers/STM32F3xx_HAL_Driver/Src/stm32f3xx_hal_opamp_ex.c ****         delta >>= 1U;
 190:Drivers/STM32F3xx_HAL_Driver/Src/stm32f3xx_hal_opamp_ex.c ****       }
 191:Drivers/STM32F3xx_HAL_Driver/Src/stm32f3xx_hal_opamp_ex.c **** 
 192:Drivers/STM32F3xx_HAL_Driver/Src/stm32f3xx_hal_opamp_ex.c ****       // Still need to check if righ calibration is current value or un step below
 193:Drivers/STM32F3xx_HAL_Driver/Src/stm32f3xx_hal_opamp_ex.c ****       // Indeed the first value that causes the OUTCAL bit to change from 1 to 0 
 194:Drivers/STM32F3xx_HAL_Driver/Src/stm32f3xx_hal_opamp_ex.c ****       MODIFY_REG(hopamp1->Instance->CSR, OPAMP_CSR_TRIMOFFSETN, trimmingvaluen1<<OPAMP_INPUT_INVERT
 195:Drivers/STM32F3xx_HAL_Driver/Src/stm32f3xx_hal_opamp_ex.c ****       MODIFY_REG(hopamp2->Instance->CSR, OPAMP_CSR_TRIMOFFSETN, trimmingvaluen2<<OPAMP_INPUT_INVERT
 196:Drivers/STM32F3xx_HAL_Driver/Src/stm32f3xx_hal_opamp_ex.c ****       
 197:Drivers/STM32F3xx_HAL_Driver/Src/stm32f3xx_hal_opamp_ex.c ****       /* OFFTRIMmax delay 2 ms as per datasheet (electrical characteristics */ 
 198:Drivers/STM32F3xx_HAL_Driver/Src/stm32f3xx_hal_opamp_ex.c ****       /* Offset trim time: during calibration, minimum time needed between */
 199:Drivers/STM32F3xx_HAL_Driver/Src/stm32f3xx_hal_opamp_ex.c ****       /* two steps to have 1 mV accuracy */
ARM GAS  /var/folders/8c/gyvcglfx7f97kbqb2h83mm_r0000gn/T//cc2L7hyi.s 			page 5


 200:Drivers/STM32F3xx_HAL_Driver/Src/stm32f3xx_hal_opamp_ex.c ****       HAL_Delay(2U);
 201:Drivers/STM32F3xx_HAL_Driver/Src/stm32f3xx_hal_opamp_ex.c ****       
 202:Drivers/STM32F3xx_HAL_Driver/Src/stm32f3xx_hal_opamp_ex.c ****       if (hopamp1->Instance->CSR & OPAMP_CSR_OUTCAL) 
 203:Drivers/STM32F3xx_HAL_Driver/Src/stm32f3xx_hal_opamp_ex.c ****         { 
 204:Drivers/STM32F3xx_HAL_Driver/Src/stm32f3xx_hal_opamp_ex.c ****           /* OPAMP_CSR_OUTCAL is actually one value more */
 205:Drivers/STM32F3xx_HAL_Driver/Src/stm32f3xx_hal_opamp_ex.c ****           trimmingvaluen1++;
 206:Drivers/STM32F3xx_HAL_Driver/Src/stm32f3xx_hal_opamp_ex.c ****           /* Set right trimming */
 207:Drivers/STM32F3xx_HAL_Driver/Src/stm32f3xx_hal_opamp_ex.c ****           MODIFY_REG(hopamp1->Instance->CSR, OPAMP_CSR_TRIMOFFSETN, trimmingvaluen1<<OPAMP_INPUT_IN
 208:Drivers/STM32F3xx_HAL_Driver/Src/stm32f3xx_hal_opamp_ex.c ****         }
 209:Drivers/STM32F3xx_HAL_Driver/Src/stm32f3xx_hal_opamp_ex.c **** 
 210:Drivers/STM32F3xx_HAL_Driver/Src/stm32f3xx_hal_opamp_ex.c ****       if (hopamp2->Instance->CSR & OPAMP_CSR_OUTCAL) 
 211:Drivers/STM32F3xx_HAL_Driver/Src/stm32f3xx_hal_opamp_ex.c ****         { 
 212:Drivers/STM32F3xx_HAL_Driver/Src/stm32f3xx_hal_opamp_ex.c ****           /* OPAMP_CSR_OUTCAL is actually one value more */
 213:Drivers/STM32F3xx_HAL_Driver/Src/stm32f3xx_hal_opamp_ex.c ****           trimmingvaluen2++;
 214:Drivers/STM32F3xx_HAL_Driver/Src/stm32f3xx_hal_opamp_ex.c ****           /* Set right trimming */
 215:Drivers/STM32F3xx_HAL_Driver/Src/stm32f3xx_hal_opamp_ex.c ****           MODIFY_REG(hopamp1->Instance->CSR, OPAMP_CSR_TRIMOFFSETN, trimmingvaluen2<<OPAMP_INPUT_IN
 216:Drivers/STM32F3xx_HAL_Driver/Src/stm32f3xx_hal_opamp_ex.c ****         }
 217:Drivers/STM32F3xx_HAL_Driver/Src/stm32f3xx_hal_opamp_ex.c ****     
 218:Drivers/STM32F3xx_HAL_Driver/Src/stm32f3xx_hal_opamp_ex.c ****       /* 2nd calibration - P */
 219:Drivers/STM32F3xx_HAL_Driver/Src/stm32f3xx_hal_opamp_ex.c ****       /* Select 10U% VREF */
 220:Drivers/STM32F3xx_HAL_Driver/Src/stm32f3xx_hal_opamp_ex.c ****       MODIFY_REG(hopamp1->Instance->CSR, OPAMP_CSR_CALSEL, OPAMP_VREF_10VDDA);
 221:Drivers/STM32F3xx_HAL_Driver/Src/stm32f3xx_hal_opamp_ex.c ****       MODIFY_REG(hopamp2->Instance->CSR, OPAMP_CSR_CALSEL, OPAMP_VREF_10VDDA);
 222:Drivers/STM32F3xx_HAL_Driver/Src/stm32f3xx_hal_opamp_ex.c ****       
 223:Drivers/STM32F3xx_HAL_Driver/Src/stm32f3xx_hal_opamp_ex.c ****       /* Init trimming counter */    
 224:Drivers/STM32F3xx_HAL_Driver/Src/stm32f3xx_hal_opamp_ex.c ****       /* Medium value */
 225:Drivers/STM32F3xx_HAL_Driver/Src/stm32f3xx_hal_opamp_ex.c ****       trimmingvaluep1 = 16U; 
 226:Drivers/STM32F3xx_HAL_Driver/Src/stm32f3xx_hal_opamp_ex.c ****       trimmingvaluep2 = 16U; 
 227:Drivers/STM32F3xx_HAL_Driver/Src/stm32f3xx_hal_opamp_ex.c ****       delta = 8U;
 228:Drivers/STM32F3xx_HAL_Driver/Src/stm32f3xx_hal_opamp_ex.c ****       
 229:Drivers/STM32F3xx_HAL_Driver/Src/stm32f3xx_hal_opamp_ex.c ****       while (delta != 0U)
 230:Drivers/STM32F3xx_HAL_Driver/Src/stm32f3xx_hal_opamp_ex.c ****       {
 231:Drivers/STM32F3xx_HAL_Driver/Src/stm32f3xx_hal_opamp_ex.c ****         /* Set candidate trimming */
 232:Drivers/STM32F3xx_HAL_Driver/Src/stm32f3xx_hal_opamp_ex.c ****         MODIFY_REG(hopamp1->Instance->CSR, OPAMP_CSR_TRIMOFFSETP, trimmingvaluep1<<OPAMP_INPUT_NONI
 233:Drivers/STM32F3xx_HAL_Driver/Src/stm32f3xx_hal_opamp_ex.c ****         MODIFY_REG(hopamp2->Instance->CSR, OPAMP_CSR_TRIMOFFSETP, trimmingvaluep2<<OPAMP_INPUT_NONI
 234:Drivers/STM32F3xx_HAL_Driver/Src/stm32f3xx_hal_opamp_ex.c ****                
 235:Drivers/STM32F3xx_HAL_Driver/Src/stm32f3xx_hal_opamp_ex.c ****         /* OFFTRIMmax delay 2 ms as per datasheet (electrical characteristics */ 
 236:Drivers/STM32F3xx_HAL_Driver/Src/stm32f3xx_hal_opamp_ex.c ****         /* Offset trim time: during calibration, minimum time needed between */
 237:Drivers/STM32F3xx_HAL_Driver/Src/stm32f3xx_hal_opamp_ex.c ****         /* two steps to have 1 mV accuracy */
 238:Drivers/STM32F3xx_HAL_Driver/Src/stm32f3xx_hal_opamp_ex.c ****         HAL_Delay(2U);
 239:Drivers/STM32F3xx_HAL_Driver/Src/stm32f3xx_hal_opamp_ex.c **** 
 240:Drivers/STM32F3xx_HAL_Driver/Src/stm32f3xx_hal_opamp_ex.c ****         if (hopamp1->Instance->CSR & OPAMP_CSR_OUTCAL) 
 241:Drivers/STM32F3xx_HAL_Driver/Src/stm32f3xx_hal_opamp_ex.c ****         { 
 242:Drivers/STM32F3xx_HAL_Driver/Src/stm32f3xx_hal_opamp_ex.c ****           /* OPAMP_CSR_OUTCAL is HIGH try higher trimming */
 243:Drivers/STM32F3xx_HAL_Driver/Src/stm32f3xx_hal_opamp_ex.c ****           trimmingvaluep1 += delta;
 244:Drivers/STM32F3xx_HAL_Driver/Src/stm32f3xx_hal_opamp_ex.c ****         }
 245:Drivers/STM32F3xx_HAL_Driver/Src/stm32f3xx_hal_opamp_ex.c ****         else
 246:Drivers/STM32F3xx_HAL_Driver/Src/stm32f3xx_hal_opamp_ex.c ****         {
 247:Drivers/STM32F3xx_HAL_Driver/Src/stm32f3xx_hal_opamp_ex.c ****           trimmingvaluep1 -= delta;
 248:Drivers/STM32F3xx_HAL_Driver/Src/stm32f3xx_hal_opamp_ex.c ****         }
 249:Drivers/STM32F3xx_HAL_Driver/Src/stm32f3xx_hal_opamp_ex.c ****          
 250:Drivers/STM32F3xx_HAL_Driver/Src/stm32f3xx_hal_opamp_ex.c ****         if (hopamp2->Instance->CSR & OPAMP_CSR_OUTCAL) 
 251:Drivers/STM32F3xx_HAL_Driver/Src/stm32f3xx_hal_opamp_ex.c ****         { 
 252:Drivers/STM32F3xx_HAL_Driver/Src/stm32f3xx_hal_opamp_ex.c ****           /* OPAMP_CSR_OUTCAL is HIGH try higher trimming */
 253:Drivers/STM32F3xx_HAL_Driver/Src/stm32f3xx_hal_opamp_ex.c ****           trimmingvaluep2 += delta;
 254:Drivers/STM32F3xx_HAL_Driver/Src/stm32f3xx_hal_opamp_ex.c ****         }
 255:Drivers/STM32F3xx_HAL_Driver/Src/stm32f3xx_hal_opamp_ex.c ****         else
 256:Drivers/STM32F3xx_HAL_Driver/Src/stm32f3xx_hal_opamp_ex.c ****         {
ARM GAS  /var/folders/8c/gyvcglfx7f97kbqb2h83mm_r0000gn/T//cc2L7hyi.s 			page 6


 257:Drivers/STM32F3xx_HAL_Driver/Src/stm32f3xx_hal_opamp_ex.c ****           trimmingvaluep2 -= delta;
 258:Drivers/STM32F3xx_HAL_Driver/Src/stm32f3xx_hal_opamp_ex.c ****         }
 259:Drivers/STM32F3xx_HAL_Driver/Src/stm32f3xx_hal_opamp_ex.c ****                       
 260:Drivers/STM32F3xx_HAL_Driver/Src/stm32f3xx_hal_opamp_ex.c ****         delta >>= 1U;
 261:Drivers/STM32F3xx_HAL_Driver/Src/stm32f3xx_hal_opamp_ex.c ****       }
 262:Drivers/STM32F3xx_HAL_Driver/Src/stm32f3xx_hal_opamp_ex.c ****       
 263:Drivers/STM32F3xx_HAL_Driver/Src/stm32f3xx_hal_opamp_ex.c ****       // Still need to check if righ calibration is current value or un step below
 264:Drivers/STM32F3xx_HAL_Driver/Src/stm32f3xx_hal_opamp_ex.c ****       // Indeed the first value that causes the OUTCAL bit to change from 1 to 0 
 265:Drivers/STM32F3xx_HAL_Driver/Src/stm32f3xx_hal_opamp_ex.c ****       /* Set candidate trimming */
 266:Drivers/STM32F3xx_HAL_Driver/Src/stm32f3xx_hal_opamp_ex.c ****       MODIFY_REG(hopamp1->Instance->CSR, OPAMP_CSR_TRIMOFFSETP, trimmingvaluep1<<OPAMP_INPUT_NONINV
 267:Drivers/STM32F3xx_HAL_Driver/Src/stm32f3xx_hal_opamp_ex.c ****       MODIFY_REG(hopamp2->Instance->CSR, OPAMP_CSR_TRIMOFFSETP, trimmingvaluep2<<OPAMP_INPUT_NONINV
 268:Drivers/STM32F3xx_HAL_Driver/Src/stm32f3xx_hal_opamp_ex.c **** 
 269:Drivers/STM32F3xx_HAL_Driver/Src/stm32f3xx_hal_opamp_ex.c ****        /* OFFTRIMmax delay 2 ms as per datasheet (electrical characteristics */ 
 270:Drivers/STM32F3xx_HAL_Driver/Src/stm32f3xx_hal_opamp_ex.c ****        /* Offset trim time: during calibration, minimum time needed between */
 271:Drivers/STM32F3xx_HAL_Driver/Src/stm32f3xx_hal_opamp_ex.c ****        /* two steps to have 1 mV accuracy */
 272:Drivers/STM32F3xx_HAL_Driver/Src/stm32f3xx_hal_opamp_ex.c ****        HAL_Delay(2U);
 273:Drivers/STM32F3xx_HAL_Driver/Src/stm32f3xx_hal_opamp_ex.c ****       
 274:Drivers/STM32F3xx_HAL_Driver/Src/stm32f3xx_hal_opamp_ex.c ****       if (hopamp1->Instance->CSR & OPAMP_CSR_OUTCAL) 
 275:Drivers/STM32F3xx_HAL_Driver/Src/stm32f3xx_hal_opamp_ex.c ****         { 
 276:Drivers/STM32F3xx_HAL_Driver/Src/stm32f3xx_hal_opamp_ex.c ****           /* OPAMP_CSR_OUTCAL is actually one value more */
 277:Drivers/STM32F3xx_HAL_Driver/Src/stm32f3xx_hal_opamp_ex.c ****           trimmingvaluep1++;
 278:Drivers/STM32F3xx_HAL_Driver/Src/stm32f3xx_hal_opamp_ex.c ****           /* Set right trimming */
 279:Drivers/STM32F3xx_HAL_Driver/Src/stm32f3xx_hal_opamp_ex.c ****           MODIFY_REG(hopamp1->Instance->CSR, OPAMP_CSR_TRIMOFFSETP, trimmingvaluep1<<OPAMP_INPUT_NO
 280:Drivers/STM32F3xx_HAL_Driver/Src/stm32f3xx_hal_opamp_ex.c ****         }
 281:Drivers/STM32F3xx_HAL_Driver/Src/stm32f3xx_hal_opamp_ex.c ****     
 282:Drivers/STM32F3xx_HAL_Driver/Src/stm32f3xx_hal_opamp_ex.c ****       if (hopamp2->Instance->CSR & OPAMP_CSR_OUTCAL) 
 283:Drivers/STM32F3xx_HAL_Driver/Src/stm32f3xx_hal_opamp_ex.c ****         { 
 284:Drivers/STM32F3xx_HAL_Driver/Src/stm32f3xx_hal_opamp_ex.c ****           /* OPAMP_CSR_OUTCAL is actually one value more */
 285:Drivers/STM32F3xx_HAL_Driver/Src/stm32f3xx_hal_opamp_ex.c ****           trimmingvaluep2++;
 286:Drivers/STM32F3xx_HAL_Driver/Src/stm32f3xx_hal_opamp_ex.c ****           /* Set right trimming */
 287:Drivers/STM32F3xx_HAL_Driver/Src/stm32f3xx_hal_opamp_ex.c ****           MODIFY_REG(hopamp2->Instance->CSR, OPAMP_CSR_TRIMOFFSETP, trimmingvaluep2<<OPAMP_INPUT_NO
 288:Drivers/STM32F3xx_HAL_Driver/Src/stm32f3xx_hal_opamp_ex.c ****         }
 289:Drivers/STM32F3xx_HAL_Driver/Src/stm32f3xx_hal_opamp_ex.c **** 
 290:Drivers/STM32F3xx_HAL_Driver/Src/stm32f3xx_hal_opamp_ex.c ****       /* Disable calibration */
 291:Drivers/STM32F3xx_HAL_Driver/Src/stm32f3xx_hal_opamp_ex.c ****       CLEAR_BIT (hopamp1->Instance->CSR, OPAMP_CSR_CALON);
 292:Drivers/STM32F3xx_HAL_Driver/Src/stm32f3xx_hal_opamp_ex.c ****       CLEAR_BIT (hopamp2->Instance->CSR, OPAMP_CSR_CALON);
 293:Drivers/STM32F3xx_HAL_Driver/Src/stm32f3xx_hal_opamp_ex.c **** 
 294:Drivers/STM32F3xx_HAL_Driver/Src/stm32f3xx_hal_opamp_ex.c ****       /* Disable the OPAMPs */
 295:Drivers/STM32F3xx_HAL_Driver/Src/stm32f3xx_hal_opamp_ex.c ****       CLEAR_BIT (hopamp1->Instance->CSR, OPAMP_CSR_OPAMPxEN);
 296:Drivers/STM32F3xx_HAL_Driver/Src/stm32f3xx_hal_opamp_ex.c ****       CLEAR_BIT (hopamp2->Instance->CSR, OPAMP_CSR_OPAMPxEN);
 297:Drivers/STM32F3xx_HAL_Driver/Src/stm32f3xx_hal_opamp_ex.c **** 
 298:Drivers/STM32F3xx_HAL_Driver/Src/stm32f3xx_hal_opamp_ex.c ****       /* Set operating mode back */
 299:Drivers/STM32F3xx_HAL_Driver/Src/stm32f3xx_hal_opamp_ex.c ****       CLEAR_BIT(hopamp1->Instance->CSR, OPAMP_CSR_FORCEVP);
 300:Drivers/STM32F3xx_HAL_Driver/Src/stm32f3xx_hal_opamp_ex.c ****       CLEAR_BIT(hopamp2->Instance->CSR, OPAMP_CSR_FORCEVP);
 301:Drivers/STM32F3xx_HAL_Driver/Src/stm32f3xx_hal_opamp_ex.c ****       
 302:Drivers/STM32F3xx_HAL_Driver/Src/stm32f3xx_hal_opamp_ex.c ****       /* Self calibration is successful  */
 303:Drivers/STM32F3xx_HAL_Driver/Src/stm32f3xx_hal_opamp_ex.c ****       /* Store calibration(user timming) results in init structure. */
 304:Drivers/STM32F3xx_HAL_Driver/Src/stm32f3xx_hal_opamp_ex.c ****       /* Select user timming mode */
 305:Drivers/STM32F3xx_HAL_Driver/Src/stm32f3xx_hal_opamp_ex.c **** 
 306:Drivers/STM32F3xx_HAL_Driver/Src/stm32f3xx_hal_opamp_ex.c ****       /* Write calibration result N */
 307:Drivers/STM32F3xx_HAL_Driver/Src/stm32f3xx_hal_opamp_ex.c ****       hopamp1->Init.TrimmingValueN = trimmingvaluen1;
 308:Drivers/STM32F3xx_HAL_Driver/Src/stm32f3xx_hal_opamp_ex.c ****       hopamp2->Init.TrimmingValueN = trimmingvaluen2;
 309:Drivers/STM32F3xx_HAL_Driver/Src/stm32f3xx_hal_opamp_ex.c ****      
 310:Drivers/STM32F3xx_HAL_Driver/Src/stm32f3xx_hal_opamp_ex.c ****       /* Write calibration result P */
 311:Drivers/STM32F3xx_HAL_Driver/Src/stm32f3xx_hal_opamp_ex.c ****       hopamp1->Init.TrimmingValueP = trimmingvaluep1;
 312:Drivers/STM32F3xx_HAL_Driver/Src/stm32f3xx_hal_opamp_ex.c ****       hopamp2->Init.TrimmingValueP = trimmingvaluep2;
 313:Drivers/STM32F3xx_HAL_Driver/Src/stm32f3xx_hal_opamp_ex.c ****             
ARM GAS  /var/folders/8c/gyvcglfx7f97kbqb2h83mm_r0000gn/T//cc2L7hyi.s 			page 7


 314:Drivers/STM32F3xx_HAL_Driver/Src/stm32f3xx_hal_opamp_ex.c ****       /* Calibration */
 315:Drivers/STM32F3xx_HAL_Driver/Src/stm32f3xx_hal_opamp_ex.c ****       hopamp1->Init.UserTrimming = OPAMP_TRIMMING_USER;
 316:Drivers/STM32F3xx_HAL_Driver/Src/stm32f3xx_hal_opamp_ex.c ****       hopamp2->Init.UserTrimming = OPAMP_TRIMMING_USER;
 317:Drivers/STM32F3xx_HAL_Driver/Src/stm32f3xx_hal_opamp_ex.c ****     
 318:Drivers/STM32F3xx_HAL_Driver/Src/stm32f3xx_hal_opamp_ex.c ****       /* Select user timming mode */      
 319:Drivers/STM32F3xx_HAL_Driver/Src/stm32f3xx_hal_opamp_ex.c ****       /* And updated with calibrated settings */
 320:Drivers/STM32F3xx_HAL_Driver/Src/stm32f3xx_hal_opamp_ex.c ****       hopamp1->Init.UserTrimming = OPAMP_TRIMMING_USER;
 321:Drivers/STM32F3xx_HAL_Driver/Src/stm32f3xx_hal_opamp_ex.c ****       hopamp2->Init.UserTrimming = OPAMP_TRIMMING_USER;
 322:Drivers/STM32F3xx_HAL_Driver/Src/stm32f3xx_hal_opamp_ex.c ****       
 323:Drivers/STM32F3xx_HAL_Driver/Src/stm32f3xx_hal_opamp_ex.c ****       MODIFY_REG(hopamp1->Instance->CSR, OPAMP_CSR_TRIMOFFSETN, trimmingvaluen1<<OPAMP_INPUT_INVERT
 324:Drivers/STM32F3xx_HAL_Driver/Src/stm32f3xx_hal_opamp_ex.c ****       MODIFY_REG(hopamp2->Instance->CSR, OPAMP_CSR_TRIMOFFSETN, trimmingvaluen2<<OPAMP_INPUT_INVERT
 325:Drivers/STM32F3xx_HAL_Driver/Src/stm32f3xx_hal_opamp_ex.c ****      
 326:Drivers/STM32F3xx_HAL_Driver/Src/stm32f3xx_hal_opamp_ex.c ****       MODIFY_REG(hopamp1->Instance->CSR, OPAMP_CSR_TRIMOFFSETP, trimmingvaluep1<<OPAMP_INPUT_NONINV
 327:Drivers/STM32F3xx_HAL_Driver/Src/stm32f3xx_hal_opamp_ex.c ****       MODIFY_REG(hopamp2->Instance->CSR, OPAMP_CSR_TRIMOFFSETP, trimmingvaluep2<<OPAMP_INPUT_NONINV
 328:Drivers/STM32F3xx_HAL_Driver/Src/stm32f3xx_hal_opamp_ex.c ****           
 329:Drivers/STM32F3xx_HAL_Driver/Src/stm32f3xx_hal_opamp_ex.c ****     }
 330:Drivers/STM32F3xx_HAL_Driver/Src/stm32f3xx_hal_opamp_ex.c ****     
 331:Drivers/STM32F3xx_HAL_Driver/Src/stm32f3xx_hal_opamp_ex.c ****     else
 332:Drivers/STM32F3xx_HAL_Driver/Src/stm32f3xx_hal_opamp_ex.c ****     {
 333:Drivers/STM32F3xx_HAL_Driver/Src/stm32f3xx_hal_opamp_ex.c ****       /* At least one OPAMP can not be calibrated */ 
 334:Drivers/STM32F3xx_HAL_Driver/Src/stm32f3xx_hal_opamp_ex.c ****       status = HAL_ERROR;
 335:Drivers/STM32F3xx_HAL_Driver/Src/stm32f3xx_hal_opamp_ex.c ****     }   
 336:Drivers/STM32F3xx_HAL_Driver/Src/stm32f3xx_hal_opamp_ex.c ****   }
 337:Drivers/STM32F3xx_HAL_Driver/Src/stm32f3xx_hal_opamp_ex.c ****   
 338:Drivers/STM32F3xx_HAL_Driver/Src/stm32f3xx_hal_opamp_ex.c ****   return status;
 339:Drivers/STM32F3xx_HAL_Driver/Src/stm32f3xx_hal_opamp_ex.c **** }
 340:Drivers/STM32F3xx_HAL_Driver/Src/stm32f3xx_hal_opamp_ex.c **** #endif /* STM32F302xE || */
 341:Drivers/STM32F3xx_HAL_Driver/Src/stm32f3xx_hal_opamp_ex.c ****        /* STM32F302xC    */
 342:Drivers/STM32F3xx_HAL_Driver/Src/stm32f3xx_hal_opamp_ex.c **** 
 343:Drivers/STM32F3xx_HAL_Driver/Src/stm32f3xx_hal_opamp_ex.c **** #if defined(STM32F303xE) || defined(STM32F398xx) || \
 344:Drivers/STM32F3xx_HAL_Driver/Src/stm32f3xx_hal_opamp_ex.c ****     defined(STM32F303xC) || defined(STM32F358xx)
 345:Drivers/STM32F3xx_HAL_Driver/Src/stm32f3xx_hal_opamp_ex.c **** /*  4 OPAMPS available */
 346:Drivers/STM32F3xx_HAL_Driver/Src/stm32f3xx_hal_opamp_ex.c **** /*  4 OPAMPS can be calibrated in parallel */
 347:Drivers/STM32F3xx_HAL_Driver/Src/stm32f3xx_hal_opamp_ex.c **** 
 348:Drivers/STM32F3xx_HAL_Driver/Src/stm32f3xx_hal_opamp_ex.c **** /**
 349:Drivers/STM32F3xx_HAL_Driver/Src/stm32f3xx_hal_opamp_ex.c ****   * @brief  Run the self calibration of 4 OPAMPs in parallel.
 350:Drivers/STM32F3xx_HAL_Driver/Src/stm32f3xx_hal_opamp_ex.c ****   * @param  hopamp1 handle
 351:Drivers/STM32F3xx_HAL_Driver/Src/stm32f3xx_hal_opamp_ex.c ****   * @param  hopamp2 handle
 352:Drivers/STM32F3xx_HAL_Driver/Src/stm32f3xx_hal_opamp_ex.c ****   * @param  hopamp3 handle
 353:Drivers/STM32F3xx_HAL_Driver/Src/stm32f3xx_hal_opamp_ex.c ****   * @param  hopamp4 handle
 354:Drivers/STM32F3xx_HAL_Driver/Src/stm32f3xx_hal_opamp_ex.c ****   * @retval HAL status
 355:Drivers/STM32F3xx_HAL_Driver/Src/stm32f3xx_hal_opamp_ex.c ****   * @note   Updated offset trimming values (PMOS & NMOS), user trimming is enabled
 356:Drivers/STM32F3xx_HAL_Driver/Src/stm32f3xx_hal_opamp_ex.c ****   * @note   Calibration runs about 25 ms.
 357:Drivers/STM32F3xx_HAL_Driver/Src/stm32f3xx_hal_opamp_ex.c ****   */
 358:Drivers/STM32F3xx_HAL_Driver/Src/stm32f3xx_hal_opamp_ex.c **** 
 359:Drivers/STM32F3xx_HAL_Driver/Src/stm32f3xx_hal_opamp_ex.c **** HAL_StatusTypeDef HAL_OPAMPEx_SelfCalibrateAll(OPAMP_HandleTypeDef *hopamp1, OPAMP_HandleTypeDef *h
 360:Drivers/STM32F3xx_HAL_Driver/Src/stm32f3xx_hal_opamp_ex.c **** {
  31              		.loc 1 360 1 view -0
  32              		.cfi_startproc
  33              		@ args = 0, pretend = 0, frame = 56
  34              		@ frame_needed = 0, uses_anonymous_args = 0
 361:Drivers/STM32F3xx_HAL_Driver/Src/stm32f3xx_hal_opamp_ex.c ****   HAL_StatusTypeDef status = HAL_OK;
  35              		.loc 1 361 3 view .LVU1
 362:Drivers/STM32F3xx_HAL_Driver/Src/stm32f3xx_hal_opamp_ex.c ****   
 363:Drivers/STM32F3xx_HAL_Driver/Src/stm32f3xx_hal_opamp_ex.c ****   uint32_t trimmingvaluen1 = 0U;
  36              		.loc 1 363 3 view .LVU2
 364:Drivers/STM32F3xx_HAL_Driver/Src/stm32f3xx_hal_opamp_ex.c ****   uint32_t trimmingvaluep1 = 0U;
ARM GAS  /var/folders/8c/gyvcglfx7f97kbqb2h83mm_r0000gn/T//cc2L7hyi.s 			page 8


  37              		.loc 1 364 3 view .LVU3
 365:Drivers/STM32F3xx_HAL_Driver/Src/stm32f3xx_hal_opamp_ex.c ****   uint32_t trimmingvaluen2 = 0U;
  38              		.loc 1 365 3 view .LVU4
 366:Drivers/STM32F3xx_HAL_Driver/Src/stm32f3xx_hal_opamp_ex.c ****   uint32_t trimmingvaluep2 = 0U;
  39              		.loc 1 366 3 view .LVU5
 367:Drivers/STM32F3xx_HAL_Driver/Src/stm32f3xx_hal_opamp_ex.c ****   uint32_t trimmingvaluen3 = 0U;
  40              		.loc 1 367 3 view .LVU6
 368:Drivers/STM32F3xx_HAL_Driver/Src/stm32f3xx_hal_opamp_ex.c ****   uint32_t trimmingvaluep3 = 0U;
  41              		.loc 1 368 3 view .LVU7
 369:Drivers/STM32F3xx_HAL_Driver/Src/stm32f3xx_hal_opamp_ex.c ****   uint32_t trimmingvaluen4 = 0U;
  42              		.loc 1 369 3 view .LVU8
 370:Drivers/STM32F3xx_HAL_Driver/Src/stm32f3xx_hal_opamp_ex.c ****   uint32_t trimmingvaluep4 = 0U;
  43              		.loc 1 370 3 view .LVU9
 371:Drivers/STM32F3xx_HAL_Driver/Src/stm32f3xx_hal_opamp_ex.c **** 
 372:Drivers/STM32F3xx_HAL_Driver/Src/stm32f3xx_hal_opamp_ex.c ****   uint32_t delta;
  44              		.loc 1 372 3 view .LVU10
 373:Drivers/STM32F3xx_HAL_Driver/Src/stm32f3xx_hal_opamp_ex.c **** 
 374:Drivers/STM32F3xx_HAL_Driver/Src/stm32f3xx_hal_opamp_ex.c ****   if((hopamp1 == NULL) || (hopamp1->State == HAL_OPAMP_STATE_BUSYLOCKED) || \
  45              		.loc 1 374 3 view .LVU11
  46              		.loc 1 374 5 is_stmt 0 view .LVU12
  47 0000 60B3     		cbz	r0, .L29
 360:Drivers/STM32F3xx_HAL_Driver/Src/stm32f3xx_hal_opamp_ex.c ****   HAL_StatusTypeDef status = HAL_OK;
  48              		.loc 1 360 1 discriminator 1 view .LVU13
  49 0002 2DE9F04F 		push	{r4, r5, r6, r7, r8, r9, r10, fp, lr}
  50              	.LCFI0:
  51              		.cfi_def_cfa_offset 36
  52              		.cfi_offset 4, -36
  53              		.cfi_offset 5, -32
  54              		.cfi_offset 6, -28
  55              		.cfi_offset 7, -24
  56              		.cfi_offset 8, -20
  57              		.cfi_offset 9, -16
  58              		.cfi_offset 10, -12
  59              		.cfi_offset 11, -8
  60              		.cfi_offset 14, -4
  61              		.loc 1 374 35 discriminator 1 view .LVU14
  62 0006 90F83240 		ldrb	r4, [r0, #50]	@ zero_extendqisi2
  63              		.loc 1 374 24 discriminator 1 view .LVU15
  64 000a 052C     		cmp	r4, #5
 360:Drivers/STM32F3xx_HAL_Driver/Src/stm32f3xx_hal_opamp_ex.c ****   HAL_StatusTypeDef status = HAL_OK;
  65              		.loc 1 360 1 discriminator 1 view .LVU16
  66 000c 8FB0     		sub	sp, sp, #60
  67              	.LCFI1:
  68              		.cfi_def_cfa_offset 96
  69              		.loc 1 374 24 discriminator 1 view .LVU17
  70 000e 21D0     		beq	.L39
  71              		.loc 1 374 74 discriminator 2 view .LVU18
  72 0010 01B3     		cbz	r1, .L39
 375:Drivers/STM32F3xx_HAL_Driver/Src/stm32f3xx_hal_opamp_ex.c ****      (hopamp2 == NULL) || (hopamp2->State == HAL_OPAMP_STATE_BUSYLOCKED) || \
  73              		.loc 1 375 35 view .LVU19
  74 0012 91F83240 		ldrb	r4, [r1, #50]	@ zero_extendqisi2
  75              		.loc 1 375 24 view .LVU20
  76 0016 052C     		cmp	r4, #5
  77 0018 1CD0     		beq	.L39
  78              		.loc 1 375 74 discriminator 1 view .LVU21
  79 001a DAB1     		cbz	r2, .L39
 376:Drivers/STM32F3xx_HAL_Driver/Src/stm32f3xx_hal_opamp_ex.c ****      (hopamp3 == NULL) || (hopamp3->State == HAL_OPAMP_STATE_BUSYLOCKED) || \
ARM GAS  /var/folders/8c/gyvcglfx7f97kbqb2h83mm_r0000gn/T//cc2L7hyi.s 			page 9


  80              		.loc 1 376 35 view .LVU22
  81 001c 92F83240 		ldrb	r4, [r2, #50]	@ zero_extendqisi2
  82              		.loc 1 376 24 view .LVU23
  83 0020 052C     		cmp	r4, #5
  84 0022 17D0     		beq	.L39
  85              		.loc 1 376 74 discriminator 1 view .LVU24
  86 0024 B3B1     		cbz	r3, .L39
 377:Drivers/STM32F3xx_HAL_Driver/Src/stm32f3xx_hal_opamp_ex.c ****      (hopamp4 == NULL) || (hopamp4->State == HAL_OPAMP_STATE_BUSYLOCKED)) 
  87              		.loc 1 377 35 view .LVU25
  88 0026 93F83240 		ldrb	r4, [r3, #50]	@ zero_extendqisi2
  89              		.loc 1 377 24 view .LVU26
  90 002a 052C     		cmp	r4, #5
  91 002c 12D0     		beq	.L39
 378:Drivers/STM32F3xx_HAL_Driver/Src/stm32f3xx_hal_opamp_ex.c ****   {
 379:Drivers/STM32F3xx_HAL_Driver/Src/stm32f3xx_hal_opamp_ex.c ****     status = HAL_ERROR;
 380:Drivers/STM32F3xx_HAL_Driver/Src/stm32f3xx_hal_opamp_ex.c ****   }
 381:Drivers/STM32F3xx_HAL_Driver/Src/stm32f3xx_hal_opamp_ex.c ****  
 382:Drivers/STM32F3xx_HAL_Driver/Src/stm32f3xx_hal_opamp_ex.c ****   if(status == HAL_OK)
  92              		.loc 1 382 3 is_stmt 1 view .LVU27
 383:Drivers/STM32F3xx_HAL_Driver/Src/stm32f3xx_hal_opamp_ex.c ****   {
 384:Drivers/STM32F3xx_HAL_Driver/Src/stm32f3xx_hal_opamp_ex.c ****     /* Check if OPAMP in calibration mode and calibration not yet enable */
 385:Drivers/STM32F3xx_HAL_Driver/Src/stm32f3xx_hal_opamp_ex.c ****     if((hopamp1->State ==  HAL_OPAMP_STATE_READY) && (hopamp2->State ==  HAL_OPAMP_STATE_READY) && 
  93              		.loc 1 385 5 view .LVU28
  94              		.loc 1 385 16 is_stmt 0 view .LVU29
  95 002e 90F83240 		ldrb	r4, [r0, #50]	@ zero_extendqisi2
  96              		.loc 1 385 7 view .LVU30
  97 0032 012C     		cmp	r4, #1
  98 0034 0ED1     		bne	.L39
  99              		.loc 1 385 62 discriminator 1 view .LVU31
 100 0036 91F83240 		ldrb	r4, [r1, #50]	@ zero_extendqisi2
 101              		.loc 1 385 51 discriminator 1 view .LVU32
 102 003a 012C     		cmp	r4, #1
 103 003c 0AD1     		bne	.L39
 386:Drivers/STM32F3xx_HAL_Driver/Src/stm32f3xx_hal_opamp_ex.c ****        (hopamp3->State ==  HAL_OPAMP_STATE_READY) && (hopamp4->State ==  HAL_OPAMP_STATE_READY))
 104              		.loc 1 386 16 discriminator 2 view .LVU33
 105 003e 92F83240 		ldrb	r4, [r2, #50]	@ zero_extendqisi2
 106 0042 E4B2     		uxtb	r4, r4
 385:Drivers/STM32F3xx_HAL_Driver/Src/stm32f3xx_hal_opamp_ex.c ****        (hopamp3->State ==  HAL_OPAMP_STATE_READY) && (hopamp4->State ==  HAL_OPAMP_STATE_READY))
 107              		.loc 1 385 97 discriminator 2 view .LVU34
 108 0044 012C     		cmp	r4, #1
 109 0046 05D1     		bne	.L39
 110              		.loc 1 386 62 view .LVU35
 111 0048 93F83250 		ldrb	r5, [r3, #50]	@ zero_extendqisi2
 112              		.loc 1 386 51 view .LVU36
 113 004c 012D     		cmp	r5, #1
 114 004e 07D0     		beq	.L72
 115 0050 2046     		mov	r0, r4
 116              	.LVL1:
 117              		.loc 1 386 51 view .LVU37
 118 0052 00E0     		b	.L2
 119              	.LVL2:
 120              	.L39:
 121              		.loc 1 386 51 view .LVU38
 122 0054 0120     		movs	r0, #1
 123              	.LVL3:
 124              	.L2:
 387:Drivers/STM32F3xx_HAL_Driver/Src/stm32f3xx_hal_opamp_ex.c ****     {
ARM GAS  /var/folders/8c/gyvcglfx7f97kbqb2h83mm_r0000gn/T//cc2L7hyi.s 			page 10


 388:Drivers/STM32F3xx_HAL_Driver/Src/stm32f3xx_hal_opamp_ex.c ****       /* Check the parameter */
 389:Drivers/STM32F3xx_HAL_Driver/Src/stm32f3xx_hal_opamp_ex.c ****       assert_param(IS_OPAMP_ALL_INSTANCE(hopamp1->Instance));
 390:Drivers/STM32F3xx_HAL_Driver/Src/stm32f3xx_hal_opamp_ex.c ****       assert_param(IS_OPAMP_ALL_INSTANCE(hopamp2->Instance));
 391:Drivers/STM32F3xx_HAL_Driver/Src/stm32f3xx_hal_opamp_ex.c ****       assert_param(IS_OPAMP_ALL_INSTANCE(hopamp3->Instance));
 392:Drivers/STM32F3xx_HAL_Driver/Src/stm32f3xx_hal_opamp_ex.c ****       assert_param(IS_OPAMP_ALL_INSTANCE(hopamp4->Instance));
 393:Drivers/STM32F3xx_HAL_Driver/Src/stm32f3xx_hal_opamp_ex.c **** 
 394:Drivers/STM32F3xx_HAL_Driver/Src/stm32f3xx_hal_opamp_ex.c ****       /* Set Calibration mode */
 395:Drivers/STM32F3xx_HAL_Driver/Src/stm32f3xx_hal_opamp_ex.c ****       /* Non-inverting input connected to calibration reference voltage. */
 396:Drivers/STM32F3xx_HAL_Driver/Src/stm32f3xx_hal_opamp_ex.c ****       SET_BIT(hopamp1->Instance->CSR, OPAMP_CSR_FORCEVP);
 397:Drivers/STM32F3xx_HAL_Driver/Src/stm32f3xx_hal_opamp_ex.c ****       SET_BIT(hopamp2->Instance->CSR, OPAMP_CSR_FORCEVP);
 398:Drivers/STM32F3xx_HAL_Driver/Src/stm32f3xx_hal_opamp_ex.c ****       SET_BIT(hopamp3->Instance->CSR, OPAMP_CSR_FORCEVP);
 399:Drivers/STM32F3xx_HAL_Driver/Src/stm32f3xx_hal_opamp_ex.c ****       SET_BIT(hopamp4->Instance->CSR, OPAMP_CSR_FORCEVP);
 400:Drivers/STM32F3xx_HAL_Driver/Src/stm32f3xx_hal_opamp_ex.c ****       
 401:Drivers/STM32F3xx_HAL_Driver/Src/stm32f3xx_hal_opamp_ex.c ****       /*  user trimming values are used for offset calibration */
 402:Drivers/STM32F3xx_HAL_Driver/Src/stm32f3xx_hal_opamp_ex.c ****       SET_BIT(hopamp1->Instance->CSR, OPAMP_CSR_USERTRIM);
 403:Drivers/STM32F3xx_HAL_Driver/Src/stm32f3xx_hal_opamp_ex.c ****       SET_BIT(hopamp2->Instance->CSR, OPAMP_CSR_USERTRIM);
 404:Drivers/STM32F3xx_HAL_Driver/Src/stm32f3xx_hal_opamp_ex.c ****       SET_BIT(hopamp3->Instance->CSR, OPAMP_CSR_USERTRIM);
 405:Drivers/STM32F3xx_HAL_Driver/Src/stm32f3xx_hal_opamp_ex.c ****       SET_BIT(hopamp4->Instance->CSR, OPAMP_CSR_USERTRIM);
 406:Drivers/STM32F3xx_HAL_Driver/Src/stm32f3xx_hal_opamp_ex.c ****       
 407:Drivers/STM32F3xx_HAL_Driver/Src/stm32f3xx_hal_opamp_ex.c ****       /* Enable calibration */
 408:Drivers/STM32F3xx_HAL_Driver/Src/stm32f3xx_hal_opamp_ex.c ****       SET_BIT (hopamp1->Instance->CSR, OPAMP_CSR_CALON);
 409:Drivers/STM32F3xx_HAL_Driver/Src/stm32f3xx_hal_opamp_ex.c ****       SET_BIT (hopamp2->Instance->CSR, OPAMP_CSR_CALON);
 410:Drivers/STM32F3xx_HAL_Driver/Src/stm32f3xx_hal_opamp_ex.c ****       SET_BIT (hopamp3->Instance->CSR, OPAMP_CSR_CALON);
 411:Drivers/STM32F3xx_HAL_Driver/Src/stm32f3xx_hal_opamp_ex.c ****       SET_BIT (hopamp4->Instance->CSR, OPAMP_CSR_CALON);
 412:Drivers/STM32F3xx_HAL_Driver/Src/stm32f3xx_hal_opamp_ex.c ****       
 413:Drivers/STM32F3xx_HAL_Driver/Src/stm32f3xx_hal_opamp_ex.c ****       /* 1st calibration - N */
 414:Drivers/STM32F3xx_HAL_Driver/Src/stm32f3xx_hal_opamp_ex.c ****       /* Select 90U% VREF */
 415:Drivers/STM32F3xx_HAL_Driver/Src/stm32f3xx_hal_opamp_ex.c ****       MODIFY_REG(hopamp1->Instance->CSR, OPAMP_CSR_CALSEL, OPAMP_VREF_90VDDA);
 416:Drivers/STM32F3xx_HAL_Driver/Src/stm32f3xx_hal_opamp_ex.c ****       MODIFY_REG(hopamp2->Instance->CSR, OPAMP_CSR_CALSEL, OPAMP_VREF_90VDDA);
 417:Drivers/STM32F3xx_HAL_Driver/Src/stm32f3xx_hal_opamp_ex.c ****       MODIFY_REG(hopamp3->Instance->CSR, OPAMP_CSR_CALSEL, OPAMP_VREF_90VDDA);
 418:Drivers/STM32F3xx_HAL_Driver/Src/stm32f3xx_hal_opamp_ex.c ****       MODIFY_REG(hopamp4->Instance->CSR, OPAMP_CSR_CALSEL, OPAMP_VREF_90VDDA);
 419:Drivers/STM32F3xx_HAL_Driver/Src/stm32f3xx_hal_opamp_ex.c ****       
 420:Drivers/STM32F3xx_HAL_Driver/Src/stm32f3xx_hal_opamp_ex.c ****       /* Enable the opamps */
 421:Drivers/STM32F3xx_HAL_Driver/Src/stm32f3xx_hal_opamp_ex.c ****       SET_BIT (hopamp1->Instance->CSR, OPAMP_CSR_OPAMPxEN);
 422:Drivers/STM32F3xx_HAL_Driver/Src/stm32f3xx_hal_opamp_ex.c ****       SET_BIT (hopamp2->Instance->CSR, OPAMP_CSR_OPAMPxEN);
 423:Drivers/STM32F3xx_HAL_Driver/Src/stm32f3xx_hal_opamp_ex.c ****       SET_BIT (hopamp3->Instance->CSR, OPAMP_CSR_OPAMPxEN);
 424:Drivers/STM32F3xx_HAL_Driver/Src/stm32f3xx_hal_opamp_ex.c ****       SET_BIT (hopamp4->Instance->CSR, OPAMP_CSR_OPAMPxEN);
 425:Drivers/STM32F3xx_HAL_Driver/Src/stm32f3xx_hal_opamp_ex.c ****       
 426:Drivers/STM32F3xx_HAL_Driver/Src/stm32f3xx_hal_opamp_ex.c ****       /* Init trimming counter */    
 427:Drivers/STM32F3xx_HAL_Driver/Src/stm32f3xx_hal_opamp_ex.c ****       /* Medium value */
 428:Drivers/STM32F3xx_HAL_Driver/Src/stm32f3xx_hal_opamp_ex.c ****       trimmingvaluen1 = 16U; 
 429:Drivers/STM32F3xx_HAL_Driver/Src/stm32f3xx_hal_opamp_ex.c ****       trimmingvaluen2 = 16U; 
 430:Drivers/STM32F3xx_HAL_Driver/Src/stm32f3xx_hal_opamp_ex.c ****       trimmingvaluen3 = 16U; 
 431:Drivers/STM32F3xx_HAL_Driver/Src/stm32f3xx_hal_opamp_ex.c ****       trimmingvaluen4 = 16U; 
 432:Drivers/STM32F3xx_HAL_Driver/Src/stm32f3xx_hal_opamp_ex.c ****       delta = 8U; 
 433:Drivers/STM32F3xx_HAL_Driver/Src/stm32f3xx_hal_opamp_ex.c ****     
 434:Drivers/STM32F3xx_HAL_Driver/Src/stm32f3xx_hal_opamp_ex.c ****       while (delta != 0U)
 435:Drivers/STM32F3xx_HAL_Driver/Src/stm32f3xx_hal_opamp_ex.c ****       {
 436:Drivers/STM32F3xx_HAL_Driver/Src/stm32f3xx_hal_opamp_ex.c ****         /* Set candidate trimming */
 437:Drivers/STM32F3xx_HAL_Driver/Src/stm32f3xx_hal_opamp_ex.c ****         MODIFY_REG(hopamp1->Instance->CSR, OPAMP_CSR_TRIMOFFSETN, trimmingvaluen1<<OPAMP_INPUT_INVE
 438:Drivers/STM32F3xx_HAL_Driver/Src/stm32f3xx_hal_opamp_ex.c ****         MODIFY_REG(hopamp2->Instance->CSR, OPAMP_CSR_TRIMOFFSETN, trimmingvaluen2<<OPAMP_INPUT_INVE
 439:Drivers/STM32F3xx_HAL_Driver/Src/stm32f3xx_hal_opamp_ex.c ****         MODIFY_REG(hopamp3->Instance->CSR, OPAMP_CSR_TRIMOFFSETN, trimmingvaluen3<<OPAMP_INPUT_INVE
 440:Drivers/STM32F3xx_HAL_Driver/Src/stm32f3xx_hal_opamp_ex.c ****         MODIFY_REG(hopamp4->Instance->CSR, OPAMP_CSR_TRIMOFFSETN, trimmingvaluen4<<OPAMP_INPUT_INVE
 441:Drivers/STM32F3xx_HAL_Driver/Src/stm32f3xx_hal_opamp_ex.c ****               
 442:Drivers/STM32F3xx_HAL_Driver/Src/stm32f3xx_hal_opamp_ex.c ****         /* OFFTRIMmax delay 2 ms as per datasheet (electrical characteristics */ 
 443:Drivers/STM32F3xx_HAL_Driver/Src/stm32f3xx_hal_opamp_ex.c ****         /* Offset trim time: during calibration, minimum time needed between */
 444:Drivers/STM32F3xx_HAL_Driver/Src/stm32f3xx_hal_opamp_ex.c ****         /* two steps to have 1 mV accuracy */
ARM GAS  /var/folders/8c/gyvcglfx7f97kbqb2h83mm_r0000gn/T//cc2L7hyi.s 			page 11


 445:Drivers/STM32F3xx_HAL_Driver/Src/stm32f3xx_hal_opamp_ex.c ****         HAL_Delay(2U);
 446:Drivers/STM32F3xx_HAL_Driver/Src/stm32f3xx_hal_opamp_ex.c **** 
 447:Drivers/STM32F3xx_HAL_Driver/Src/stm32f3xx_hal_opamp_ex.c ****         if ((hopamp1->Instance->CSR & OPAMP_CSR_OUTCAL) != RESET) 
 448:Drivers/STM32F3xx_HAL_Driver/Src/stm32f3xx_hal_opamp_ex.c ****         { 
 449:Drivers/STM32F3xx_HAL_Driver/Src/stm32f3xx_hal_opamp_ex.c ****           /* OPAMP_CSR_OUTCAL is HIGH try higher trimming */
 450:Drivers/STM32F3xx_HAL_Driver/Src/stm32f3xx_hal_opamp_ex.c ****           trimmingvaluen1 += delta;
 451:Drivers/STM32F3xx_HAL_Driver/Src/stm32f3xx_hal_opamp_ex.c ****         }
 452:Drivers/STM32F3xx_HAL_Driver/Src/stm32f3xx_hal_opamp_ex.c ****         else
 453:Drivers/STM32F3xx_HAL_Driver/Src/stm32f3xx_hal_opamp_ex.c ****         {
 454:Drivers/STM32F3xx_HAL_Driver/Src/stm32f3xx_hal_opamp_ex.c ****           /* OPAMP_CSR_OUTCAL is LOW try lower trimming */
 455:Drivers/STM32F3xx_HAL_Driver/Src/stm32f3xx_hal_opamp_ex.c ****           trimmingvaluen1 -= delta;
 456:Drivers/STM32F3xx_HAL_Driver/Src/stm32f3xx_hal_opamp_ex.c ****         }
 457:Drivers/STM32F3xx_HAL_Driver/Src/stm32f3xx_hal_opamp_ex.c **** 
 458:Drivers/STM32F3xx_HAL_Driver/Src/stm32f3xx_hal_opamp_ex.c ****         if ((hopamp2->Instance->CSR & OPAMP_CSR_OUTCAL) != RESET) 
 459:Drivers/STM32F3xx_HAL_Driver/Src/stm32f3xx_hal_opamp_ex.c ****         { 
 460:Drivers/STM32F3xx_HAL_Driver/Src/stm32f3xx_hal_opamp_ex.c ****           /* OPAMP_CSR_OUTCAL is HIGH try higher trimming */
 461:Drivers/STM32F3xx_HAL_Driver/Src/stm32f3xx_hal_opamp_ex.c ****           trimmingvaluen2 += delta;
 462:Drivers/STM32F3xx_HAL_Driver/Src/stm32f3xx_hal_opamp_ex.c ****         }
 463:Drivers/STM32F3xx_HAL_Driver/Src/stm32f3xx_hal_opamp_ex.c ****         else
 464:Drivers/STM32F3xx_HAL_Driver/Src/stm32f3xx_hal_opamp_ex.c ****         {
 465:Drivers/STM32F3xx_HAL_Driver/Src/stm32f3xx_hal_opamp_ex.c ****           /* OPAMP_CSR_OUTCAL is LOW try lower trimming */
 466:Drivers/STM32F3xx_HAL_Driver/Src/stm32f3xx_hal_opamp_ex.c ****           trimmingvaluen2 -= delta;
 467:Drivers/STM32F3xx_HAL_Driver/Src/stm32f3xx_hal_opamp_ex.c ****         }
 468:Drivers/STM32F3xx_HAL_Driver/Src/stm32f3xx_hal_opamp_ex.c **** 
 469:Drivers/STM32F3xx_HAL_Driver/Src/stm32f3xx_hal_opamp_ex.c ****         if ((hopamp3->Instance->CSR & OPAMP_CSR_OUTCAL) != RESET) 
 470:Drivers/STM32F3xx_HAL_Driver/Src/stm32f3xx_hal_opamp_ex.c ****         { 
 471:Drivers/STM32F3xx_HAL_Driver/Src/stm32f3xx_hal_opamp_ex.c ****           /* OPAMP_CSR_OUTCAL is HIGH try higher trimming */
 472:Drivers/STM32F3xx_HAL_Driver/Src/stm32f3xx_hal_opamp_ex.c ****           trimmingvaluen3 += delta;
 473:Drivers/STM32F3xx_HAL_Driver/Src/stm32f3xx_hal_opamp_ex.c ****         }
 474:Drivers/STM32F3xx_HAL_Driver/Src/stm32f3xx_hal_opamp_ex.c ****         else
 475:Drivers/STM32F3xx_HAL_Driver/Src/stm32f3xx_hal_opamp_ex.c ****         {
 476:Drivers/STM32F3xx_HAL_Driver/Src/stm32f3xx_hal_opamp_ex.c ****           /* OPAMP_CSR_OUTCAL is LOW try lower trimming */
 477:Drivers/STM32F3xx_HAL_Driver/Src/stm32f3xx_hal_opamp_ex.c ****           trimmingvaluen3 -= delta;
 478:Drivers/STM32F3xx_HAL_Driver/Src/stm32f3xx_hal_opamp_ex.c ****         }
 479:Drivers/STM32F3xx_HAL_Driver/Src/stm32f3xx_hal_opamp_ex.c **** 
 480:Drivers/STM32F3xx_HAL_Driver/Src/stm32f3xx_hal_opamp_ex.c ****         if ((hopamp4->Instance->CSR & OPAMP_CSR_OUTCAL) != RESET) 
 481:Drivers/STM32F3xx_HAL_Driver/Src/stm32f3xx_hal_opamp_ex.c ****         { 
 482:Drivers/STM32F3xx_HAL_Driver/Src/stm32f3xx_hal_opamp_ex.c ****           /* OPAMP_CSR_OUTCAL is HIGH try higher trimming */
 483:Drivers/STM32F3xx_HAL_Driver/Src/stm32f3xx_hal_opamp_ex.c ****           trimmingvaluen4 += delta;
 484:Drivers/STM32F3xx_HAL_Driver/Src/stm32f3xx_hal_opamp_ex.c ****         }
 485:Drivers/STM32F3xx_HAL_Driver/Src/stm32f3xx_hal_opamp_ex.c ****         else
 486:Drivers/STM32F3xx_HAL_Driver/Src/stm32f3xx_hal_opamp_ex.c ****         {
 487:Drivers/STM32F3xx_HAL_Driver/Src/stm32f3xx_hal_opamp_ex.c ****           /* OPAMP_CSR_OUTCAL is LOW try lower trimming */
 488:Drivers/STM32F3xx_HAL_Driver/Src/stm32f3xx_hal_opamp_ex.c ****           trimmingvaluen4 -= delta;
 489:Drivers/STM32F3xx_HAL_Driver/Src/stm32f3xx_hal_opamp_ex.c ****         }
 490:Drivers/STM32F3xx_HAL_Driver/Src/stm32f3xx_hal_opamp_ex.c ****                       
 491:Drivers/STM32F3xx_HAL_Driver/Src/stm32f3xx_hal_opamp_ex.c ****         delta >>= 1U;
 492:Drivers/STM32F3xx_HAL_Driver/Src/stm32f3xx_hal_opamp_ex.c ****       }
 493:Drivers/STM32F3xx_HAL_Driver/Src/stm32f3xx_hal_opamp_ex.c **** 
 494:Drivers/STM32F3xx_HAL_Driver/Src/stm32f3xx_hal_opamp_ex.c ****       /* Still need to check if righ calibration is current value or un step below */
 495:Drivers/STM32F3xx_HAL_Driver/Src/stm32f3xx_hal_opamp_ex.c ****       /* Indeed the first value that causes the OUTCAL bit to change from 1 to 0U */
 496:Drivers/STM32F3xx_HAL_Driver/Src/stm32f3xx_hal_opamp_ex.c ****       MODIFY_REG(hopamp1->Instance->CSR, OPAMP_CSR_TRIMOFFSETN, trimmingvaluen1<<OPAMP_INPUT_INVERT
 497:Drivers/STM32F3xx_HAL_Driver/Src/stm32f3xx_hal_opamp_ex.c ****       MODIFY_REG(hopamp2->Instance->CSR, OPAMP_CSR_TRIMOFFSETN, trimmingvaluen2<<OPAMP_INPUT_INVERT
 498:Drivers/STM32F3xx_HAL_Driver/Src/stm32f3xx_hal_opamp_ex.c ****       MODIFY_REG(hopamp3->Instance->CSR, OPAMP_CSR_TRIMOFFSETN, trimmingvaluen3<<OPAMP_INPUT_INVERT
 499:Drivers/STM32F3xx_HAL_Driver/Src/stm32f3xx_hal_opamp_ex.c ****       MODIFY_REG(hopamp4->Instance->CSR, OPAMP_CSR_TRIMOFFSETN, trimmingvaluen4<<OPAMP_INPUT_INVERT
 500:Drivers/STM32F3xx_HAL_Driver/Src/stm32f3xx_hal_opamp_ex.c ****       
 501:Drivers/STM32F3xx_HAL_Driver/Src/stm32f3xx_hal_opamp_ex.c ****       /* OFFTRIMmax delay 2 ms as per datasheet (electrical characteristics */ 
ARM GAS  /var/folders/8c/gyvcglfx7f97kbqb2h83mm_r0000gn/T//cc2L7hyi.s 			page 12


 502:Drivers/STM32F3xx_HAL_Driver/Src/stm32f3xx_hal_opamp_ex.c ****       /* Offset trim time: during calibration, minimum time needed between */
 503:Drivers/STM32F3xx_HAL_Driver/Src/stm32f3xx_hal_opamp_ex.c ****       /* two steps to have 1 mV accuracy */
 504:Drivers/STM32F3xx_HAL_Driver/Src/stm32f3xx_hal_opamp_ex.c ****       HAL_Delay(2U);
 505:Drivers/STM32F3xx_HAL_Driver/Src/stm32f3xx_hal_opamp_ex.c ****       
 506:Drivers/STM32F3xx_HAL_Driver/Src/stm32f3xx_hal_opamp_ex.c ****       if ((hopamp1->Instance->CSR & OPAMP_CSR_OUTCAL) != RESET) 
 507:Drivers/STM32F3xx_HAL_Driver/Src/stm32f3xx_hal_opamp_ex.c ****       { 
 508:Drivers/STM32F3xx_HAL_Driver/Src/stm32f3xx_hal_opamp_ex.c ****         /* OPAMP_CSR_OUTCAL is actually one value more */
 509:Drivers/STM32F3xx_HAL_Driver/Src/stm32f3xx_hal_opamp_ex.c ****         trimmingvaluen1++;
 510:Drivers/STM32F3xx_HAL_Driver/Src/stm32f3xx_hal_opamp_ex.c ****         /* Set right trimming */
 511:Drivers/STM32F3xx_HAL_Driver/Src/stm32f3xx_hal_opamp_ex.c ****         MODIFY_REG(hopamp1->Instance->CSR, OPAMP_CSR_TRIMOFFSETN, trimmingvaluen1<<OPAMP_INPUT_INVE
 512:Drivers/STM32F3xx_HAL_Driver/Src/stm32f3xx_hal_opamp_ex.c ****       }
 513:Drivers/STM32F3xx_HAL_Driver/Src/stm32f3xx_hal_opamp_ex.c **** 
 514:Drivers/STM32F3xx_HAL_Driver/Src/stm32f3xx_hal_opamp_ex.c ****       if ((hopamp2->Instance->CSR & OPAMP_CSR_OUTCAL) != RESET) 
 515:Drivers/STM32F3xx_HAL_Driver/Src/stm32f3xx_hal_opamp_ex.c ****       { 
 516:Drivers/STM32F3xx_HAL_Driver/Src/stm32f3xx_hal_opamp_ex.c ****         /* OPAMP_CSR_OUTCAL is actually one value more */
 517:Drivers/STM32F3xx_HAL_Driver/Src/stm32f3xx_hal_opamp_ex.c ****         trimmingvaluen2++;
 518:Drivers/STM32F3xx_HAL_Driver/Src/stm32f3xx_hal_opamp_ex.c ****         /* Set right trimming */
 519:Drivers/STM32F3xx_HAL_Driver/Src/stm32f3xx_hal_opamp_ex.c ****         MODIFY_REG(hopamp2->Instance->CSR, OPAMP_CSR_TRIMOFFSETN, trimmingvaluen2<<OPAMP_INPUT_INVE
 520:Drivers/STM32F3xx_HAL_Driver/Src/stm32f3xx_hal_opamp_ex.c ****       }
 521:Drivers/STM32F3xx_HAL_Driver/Src/stm32f3xx_hal_opamp_ex.c **** 
 522:Drivers/STM32F3xx_HAL_Driver/Src/stm32f3xx_hal_opamp_ex.c ****       if ((hopamp3->Instance->CSR & OPAMP_CSR_OUTCAL) != RESET) 
 523:Drivers/STM32F3xx_HAL_Driver/Src/stm32f3xx_hal_opamp_ex.c ****       { 
 524:Drivers/STM32F3xx_HAL_Driver/Src/stm32f3xx_hal_opamp_ex.c ****         /* OPAMP_CSR_OUTCAL is actually one value more */
 525:Drivers/STM32F3xx_HAL_Driver/Src/stm32f3xx_hal_opamp_ex.c ****         trimmingvaluen3++;
 526:Drivers/STM32F3xx_HAL_Driver/Src/stm32f3xx_hal_opamp_ex.c ****         /* Set right trimming */
 527:Drivers/STM32F3xx_HAL_Driver/Src/stm32f3xx_hal_opamp_ex.c ****         MODIFY_REG(hopamp3->Instance->CSR, OPAMP_CSR_TRIMOFFSETN, trimmingvaluen3<<OPAMP_INPUT_INVE
 528:Drivers/STM32F3xx_HAL_Driver/Src/stm32f3xx_hal_opamp_ex.c ****       }
 529:Drivers/STM32F3xx_HAL_Driver/Src/stm32f3xx_hal_opamp_ex.c **** 
 530:Drivers/STM32F3xx_HAL_Driver/Src/stm32f3xx_hal_opamp_ex.c ****       if ((hopamp4->Instance->CSR & OPAMP_CSR_OUTCAL) != RESET) 
 531:Drivers/STM32F3xx_HAL_Driver/Src/stm32f3xx_hal_opamp_ex.c ****       { 
 532:Drivers/STM32F3xx_HAL_Driver/Src/stm32f3xx_hal_opamp_ex.c ****         /* OPAMP_CSR_OUTCAL is actually one value more */
 533:Drivers/STM32F3xx_HAL_Driver/Src/stm32f3xx_hal_opamp_ex.c ****         trimmingvaluen4++;
 534:Drivers/STM32F3xx_HAL_Driver/Src/stm32f3xx_hal_opamp_ex.c ****         /* Set right trimming */
 535:Drivers/STM32F3xx_HAL_Driver/Src/stm32f3xx_hal_opamp_ex.c ****         MODIFY_REG(hopamp4->Instance->CSR, OPAMP_CSR_TRIMOFFSETN, trimmingvaluen4<<OPAMP_INPUT_INVE
 536:Drivers/STM32F3xx_HAL_Driver/Src/stm32f3xx_hal_opamp_ex.c ****       }
 537:Drivers/STM32F3xx_HAL_Driver/Src/stm32f3xx_hal_opamp_ex.c ****             
 538:Drivers/STM32F3xx_HAL_Driver/Src/stm32f3xx_hal_opamp_ex.c ****       /* 2nd calibration - P */
 539:Drivers/STM32F3xx_HAL_Driver/Src/stm32f3xx_hal_opamp_ex.c ****       /* Select 10U% VREF */
 540:Drivers/STM32F3xx_HAL_Driver/Src/stm32f3xx_hal_opamp_ex.c ****       MODIFY_REG(hopamp1->Instance->CSR, OPAMP_CSR_CALSEL, OPAMP_VREF_10VDDA);
 541:Drivers/STM32F3xx_HAL_Driver/Src/stm32f3xx_hal_opamp_ex.c ****       MODIFY_REG(hopamp2->Instance->CSR, OPAMP_CSR_CALSEL, OPAMP_VREF_10VDDA);
 542:Drivers/STM32F3xx_HAL_Driver/Src/stm32f3xx_hal_opamp_ex.c ****       MODIFY_REG(hopamp3->Instance->CSR, OPAMP_CSR_CALSEL, OPAMP_VREF_10VDDA);
 543:Drivers/STM32F3xx_HAL_Driver/Src/stm32f3xx_hal_opamp_ex.c ****       MODIFY_REG(hopamp4->Instance->CSR, OPAMP_CSR_CALSEL, OPAMP_VREF_10VDDA);
 544:Drivers/STM32F3xx_HAL_Driver/Src/stm32f3xx_hal_opamp_ex.c ****       
 545:Drivers/STM32F3xx_HAL_Driver/Src/stm32f3xx_hal_opamp_ex.c ****       /* Init trimming counter */    
 546:Drivers/STM32F3xx_HAL_Driver/Src/stm32f3xx_hal_opamp_ex.c ****       /* Medium value */
 547:Drivers/STM32F3xx_HAL_Driver/Src/stm32f3xx_hal_opamp_ex.c ****       trimmingvaluep1 = 16U; 
 548:Drivers/STM32F3xx_HAL_Driver/Src/stm32f3xx_hal_opamp_ex.c ****       trimmingvaluep2 = 16U; 
 549:Drivers/STM32F3xx_HAL_Driver/Src/stm32f3xx_hal_opamp_ex.c ****       trimmingvaluep3 = 16U; 
 550:Drivers/STM32F3xx_HAL_Driver/Src/stm32f3xx_hal_opamp_ex.c ****       trimmingvaluep4 = 16U; 
 551:Drivers/STM32F3xx_HAL_Driver/Src/stm32f3xx_hal_opamp_ex.c ****       
 552:Drivers/STM32F3xx_HAL_Driver/Src/stm32f3xx_hal_opamp_ex.c ****       delta = 8U;
 553:Drivers/STM32F3xx_HAL_Driver/Src/stm32f3xx_hal_opamp_ex.c ****       
 554:Drivers/STM32F3xx_HAL_Driver/Src/stm32f3xx_hal_opamp_ex.c ****       while (delta != 0U)
 555:Drivers/STM32F3xx_HAL_Driver/Src/stm32f3xx_hal_opamp_ex.c ****       {
 556:Drivers/STM32F3xx_HAL_Driver/Src/stm32f3xx_hal_opamp_ex.c ****         /* Set candidate trimming */
 557:Drivers/STM32F3xx_HAL_Driver/Src/stm32f3xx_hal_opamp_ex.c ****         MODIFY_REG(hopamp1->Instance->CSR, OPAMP_CSR_TRIMOFFSETP, trimmingvaluep1<<OPAMP_INPUT_NONI
 558:Drivers/STM32F3xx_HAL_Driver/Src/stm32f3xx_hal_opamp_ex.c ****         MODIFY_REG(hopamp2->Instance->CSR, OPAMP_CSR_TRIMOFFSETP, trimmingvaluep2<<OPAMP_INPUT_NONI
ARM GAS  /var/folders/8c/gyvcglfx7f97kbqb2h83mm_r0000gn/T//cc2L7hyi.s 			page 13


 559:Drivers/STM32F3xx_HAL_Driver/Src/stm32f3xx_hal_opamp_ex.c ****         MODIFY_REG(hopamp3->Instance->CSR, OPAMP_CSR_TRIMOFFSETP, trimmingvaluep3<<OPAMP_INPUT_NONI
 560:Drivers/STM32F3xx_HAL_Driver/Src/stm32f3xx_hal_opamp_ex.c ****         MODIFY_REG(hopamp4->Instance->CSR, OPAMP_CSR_TRIMOFFSETP, trimmingvaluep4<<OPAMP_INPUT_NONI
 561:Drivers/STM32F3xx_HAL_Driver/Src/stm32f3xx_hal_opamp_ex.c ****                
 562:Drivers/STM32F3xx_HAL_Driver/Src/stm32f3xx_hal_opamp_ex.c ****         /* OFFTRIMmax delay 2 ms as per datasheet (electrical characteristics */ 
 563:Drivers/STM32F3xx_HAL_Driver/Src/stm32f3xx_hal_opamp_ex.c ****         /* Offset trim time: during calibration, minimum time needed between */
 564:Drivers/STM32F3xx_HAL_Driver/Src/stm32f3xx_hal_opamp_ex.c ****         /* two steps to have 1 mV accuracy */
 565:Drivers/STM32F3xx_HAL_Driver/Src/stm32f3xx_hal_opamp_ex.c ****         HAL_Delay(2U);
 566:Drivers/STM32F3xx_HAL_Driver/Src/stm32f3xx_hal_opamp_ex.c **** 
 567:Drivers/STM32F3xx_HAL_Driver/Src/stm32f3xx_hal_opamp_ex.c ****         if ((hopamp1->Instance->CSR & OPAMP_CSR_OUTCAL) != RESET) 
 568:Drivers/STM32F3xx_HAL_Driver/Src/stm32f3xx_hal_opamp_ex.c ****         { 
 569:Drivers/STM32F3xx_HAL_Driver/Src/stm32f3xx_hal_opamp_ex.c ****           /* OPAMP_CSR_OUTCAL is HIGH try higher trimming */
 570:Drivers/STM32F3xx_HAL_Driver/Src/stm32f3xx_hal_opamp_ex.c ****           trimmingvaluep1 += delta;
 571:Drivers/STM32F3xx_HAL_Driver/Src/stm32f3xx_hal_opamp_ex.c ****         }
 572:Drivers/STM32F3xx_HAL_Driver/Src/stm32f3xx_hal_opamp_ex.c ****         else
 573:Drivers/STM32F3xx_HAL_Driver/Src/stm32f3xx_hal_opamp_ex.c ****         {
 574:Drivers/STM32F3xx_HAL_Driver/Src/stm32f3xx_hal_opamp_ex.c ****           trimmingvaluep1 -= delta;
 575:Drivers/STM32F3xx_HAL_Driver/Src/stm32f3xx_hal_opamp_ex.c ****         }
 576:Drivers/STM32F3xx_HAL_Driver/Src/stm32f3xx_hal_opamp_ex.c ****          
 577:Drivers/STM32F3xx_HAL_Driver/Src/stm32f3xx_hal_opamp_ex.c ****         if ((hopamp2->Instance->CSR & OPAMP_CSR_OUTCAL) != RESET) 
 578:Drivers/STM32F3xx_HAL_Driver/Src/stm32f3xx_hal_opamp_ex.c ****         { 
 579:Drivers/STM32F3xx_HAL_Driver/Src/stm32f3xx_hal_opamp_ex.c ****           /* OPAMP_CSR_OUTCAL is HIGH try higher trimming */
 580:Drivers/STM32F3xx_HAL_Driver/Src/stm32f3xx_hal_opamp_ex.c ****           trimmingvaluep2 += delta;
 581:Drivers/STM32F3xx_HAL_Driver/Src/stm32f3xx_hal_opamp_ex.c ****         }
 582:Drivers/STM32F3xx_HAL_Driver/Src/stm32f3xx_hal_opamp_ex.c ****         else
 583:Drivers/STM32F3xx_HAL_Driver/Src/stm32f3xx_hal_opamp_ex.c ****         {
 584:Drivers/STM32F3xx_HAL_Driver/Src/stm32f3xx_hal_opamp_ex.c ****           trimmingvaluep2 -= delta;
 585:Drivers/STM32F3xx_HAL_Driver/Src/stm32f3xx_hal_opamp_ex.c ****         }
 586:Drivers/STM32F3xx_HAL_Driver/Src/stm32f3xx_hal_opamp_ex.c **** 
 587:Drivers/STM32F3xx_HAL_Driver/Src/stm32f3xx_hal_opamp_ex.c ****         if ((hopamp3->Instance->CSR & OPAMP_CSR_OUTCAL) != RESET) 
 588:Drivers/STM32F3xx_HAL_Driver/Src/stm32f3xx_hal_opamp_ex.c ****         { 
 589:Drivers/STM32F3xx_HAL_Driver/Src/stm32f3xx_hal_opamp_ex.c ****           /* OPAMP_CSR_OUTCAL is HIGH try higher trimming */
 590:Drivers/STM32F3xx_HAL_Driver/Src/stm32f3xx_hal_opamp_ex.c ****           trimmingvaluep3 += delta;
 591:Drivers/STM32F3xx_HAL_Driver/Src/stm32f3xx_hal_opamp_ex.c ****         }
 592:Drivers/STM32F3xx_HAL_Driver/Src/stm32f3xx_hal_opamp_ex.c ****         else
 593:Drivers/STM32F3xx_HAL_Driver/Src/stm32f3xx_hal_opamp_ex.c ****         {
 594:Drivers/STM32F3xx_HAL_Driver/Src/stm32f3xx_hal_opamp_ex.c ****           trimmingvaluep3 -= delta;
 595:Drivers/STM32F3xx_HAL_Driver/Src/stm32f3xx_hal_opamp_ex.c ****         }
 596:Drivers/STM32F3xx_HAL_Driver/Src/stm32f3xx_hal_opamp_ex.c **** 
 597:Drivers/STM32F3xx_HAL_Driver/Src/stm32f3xx_hal_opamp_ex.c ****         if ((hopamp4->Instance->CSR & OPAMP_CSR_OUTCAL) != RESET) 
 598:Drivers/STM32F3xx_HAL_Driver/Src/stm32f3xx_hal_opamp_ex.c ****         { 
 599:Drivers/STM32F3xx_HAL_Driver/Src/stm32f3xx_hal_opamp_ex.c ****           /* OPAMP_CSR_OUTCAL is HIGH try higher trimming */
 600:Drivers/STM32F3xx_HAL_Driver/Src/stm32f3xx_hal_opamp_ex.c ****           trimmingvaluep4 += delta;
 601:Drivers/STM32F3xx_HAL_Driver/Src/stm32f3xx_hal_opamp_ex.c ****         }
 602:Drivers/STM32F3xx_HAL_Driver/Src/stm32f3xx_hal_opamp_ex.c ****         else
 603:Drivers/STM32F3xx_HAL_Driver/Src/stm32f3xx_hal_opamp_ex.c ****         {
 604:Drivers/STM32F3xx_HAL_Driver/Src/stm32f3xx_hal_opamp_ex.c ****           trimmingvaluep4 -= delta;
 605:Drivers/STM32F3xx_HAL_Driver/Src/stm32f3xx_hal_opamp_ex.c ****         }
 606:Drivers/STM32F3xx_HAL_Driver/Src/stm32f3xx_hal_opamp_ex.c ****                      
 607:Drivers/STM32F3xx_HAL_Driver/Src/stm32f3xx_hal_opamp_ex.c ****         delta >>= 1U;
 608:Drivers/STM32F3xx_HAL_Driver/Src/stm32f3xx_hal_opamp_ex.c ****       }
 609:Drivers/STM32F3xx_HAL_Driver/Src/stm32f3xx_hal_opamp_ex.c ****       
 610:Drivers/STM32F3xx_HAL_Driver/Src/stm32f3xx_hal_opamp_ex.c ****       /* Still need to check if righ calibration is current value or un step below */
 611:Drivers/STM32F3xx_HAL_Driver/Src/stm32f3xx_hal_opamp_ex.c ****       /* Indeed the first value that causes the OUTCAL bit to change from 1 to 0U */
 612:Drivers/STM32F3xx_HAL_Driver/Src/stm32f3xx_hal_opamp_ex.c ****       /* Set candidate trimming */
 613:Drivers/STM32F3xx_HAL_Driver/Src/stm32f3xx_hal_opamp_ex.c ****       MODIFY_REG(hopamp1->Instance->CSR, OPAMP_CSR_TRIMOFFSETP, trimmingvaluep1<<OPAMP_INPUT_NONINV
 614:Drivers/STM32F3xx_HAL_Driver/Src/stm32f3xx_hal_opamp_ex.c ****       MODIFY_REG(hopamp2->Instance->CSR, OPAMP_CSR_TRIMOFFSETP, trimmingvaluep2<<OPAMP_INPUT_NONINV
 615:Drivers/STM32F3xx_HAL_Driver/Src/stm32f3xx_hal_opamp_ex.c ****       MODIFY_REG(hopamp3->Instance->CSR, OPAMP_CSR_TRIMOFFSETP, trimmingvaluep3<<OPAMP_INPUT_NONINV
ARM GAS  /var/folders/8c/gyvcglfx7f97kbqb2h83mm_r0000gn/T//cc2L7hyi.s 			page 14


 616:Drivers/STM32F3xx_HAL_Driver/Src/stm32f3xx_hal_opamp_ex.c ****       MODIFY_REG(hopamp4->Instance->CSR, OPAMP_CSR_TRIMOFFSETP, trimmingvaluep4<<OPAMP_INPUT_NONINV
 617:Drivers/STM32F3xx_HAL_Driver/Src/stm32f3xx_hal_opamp_ex.c **** 
 618:Drivers/STM32F3xx_HAL_Driver/Src/stm32f3xx_hal_opamp_ex.c ****       /* OFFTRIMmax delay 2 ms as per datasheet (electrical characteristics */ 
 619:Drivers/STM32F3xx_HAL_Driver/Src/stm32f3xx_hal_opamp_ex.c ****       /* Offset trim time: during calibration, minimum time needed between */
 620:Drivers/STM32F3xx_HAL_Driver/Src/stm32f3xx_hal_opamp_ex.c ****       /* two steps to have 1 mV accuracy */
 621:Drivers/STM32F3xx_HAL_Driver/Src/stm32f3xx_hal_opamp_ex.c ****       HAL_Delay(2U);
 622:Drivers/STM32F3xx_HAL_Driver/Src/stm32f3xx_hal_opamp_ex.c ****       
 623:Drivers/STM32F3xx_HAL_Driver/Src/stm32f3xx_hal_opamp_ex.c ****       if ((hopamp1->Instance->CSR & OPAMP_CSR_OUTCAL) != RESET) 
 624:Drivers/STM32F3xx_HAL_Driver/Src/stm32f3xx_hal_opamp_ex.c ****       { 
 625:Drivers/STM32F3xx_HAL_Driver/Src/stm32f3xx_hal_opamp_ex.c ****         /* Trimming value is actually one value more */
 626:Drivers/STM32F3xx_HAL_Driver/Src/stm32f3xx_hal_opamp_ex.c ****         trimmingvaluep1++;
 627:Drivers/STM32F3xx_HAL_Driver/Src/stm32f3xx_hal_opamp_ex.c ****         /* Set right trimming */
 628:Drivers/STM32F3xx_HAL_Driver/Src/stm32f3xx_hal_opamp_ex.c ****         MODIFY_REG(hopamp1->Instance->CSR, OPAMP_CSR_TRIMOFFSETP, trimmingvaluep1<<OPAMP_INPUT_NONI
 629:Drivers/STM32F3xx_HAL_Driver/Src/stm32f3xx_hal_opamp_ex.c ****       }
 630:Drivers/STM32F3xx_HAL_Driver/Src/stm32f3xx_hal_opamp_ex.c ****     
 631:Drivers/STM32F3xx_HAL_Driver/Src/stm32f3xx_hal_opamp_ex.c ****       if ((hopamp2->Instance->CSR & OPAMP_CSR_OUTCAL) != RESET) 
 632:Drivers/STM32F3xx_HAL_Driver/Src/stm32f3xx_hal_opamp_ex.c ****       { 
 633:Drivers/STM32F3xx_HAL_Driver/Src/stm32f3xx_hal_opamp_ex.c ****         /* Trimming value is actually one value more */
 634:Drivers/STM32F3xx_HAL_Driver/Src/stm32f3xx_hal_opamp_ex.c ****         trimmingvaluep2++;
 635:Drivers/STM32F3xx_HAL_Driver/Src/stm32f3xx_hal_opamp_ex.c ****         /* Set right trimming */
 636:Drivers/STM32F3xx_HAL_Driver/Src/stm32f3xx_hal_opamp_ex.c ****         MODIFY_REG(hopamp2->Instance->CSR, OPAMP_CSR_TRIMOFFSETP, trimmingvaluep2<<OPAMP_INPUT_NONI
 637:Drivers/STM32F3xx_HAL_Driver/Src/stm32f3xx_hal_opamp_ex.c ****       }
 638:Drivers/STM32F3xx_HAL_Driver/Src/stm32f3xx_hal_opamp_ex.c **** 
 639:Drivers/STM32F3xx_HAL_Driver/Src/stm32f3xx_hal_opamp_ex.c ****       if ((hopamp3->Instance->CSR & OPAMP_CSR_OUTCAL) != RESET) 
 640:Drivers/STM32F3xx_HAL_Driver/Src/stm32f3xx_hal_opamp_ex.c ****       { 
 641:Drivers/STM32F3xx_HAL_Driver/Src/stm32f3xx_hal_opamp_ex.c ****         /* Trimming value is actually one value more */
 642:Drivers/STM32F3xx_HAL_Driver/Src/stm32f3xx_hal_opamp_ex.c ****         trimmingvaluep3++;
 643:Drivers/STM32F3xx_HAL_Driver/Src/stm32f3xx_hal_opamp_ex.c ****         /* Set right trimming */
 644:Drivers/STM32F3xx_HAL_Driver/Src/stm32f3xx_hal_opamp_ex.c ****         MODIFY_REG(hopamp3->Instance->CSR, OPAMP_CSR_TRIMOFFSETP, trimmingvaluep3<<OPAMP_INPUT_NONI
 645:Drivers/STM32F3xx_HAL_Driver/Src/stm32f3xx_hal_opamp_ex.c ****       }
 646:Drivers/STM32F3xx_HAL_Driver/Src/stm32f3xx_hal_opamp_ex.c **** 
 647:Drivers/STM32F3xx_HAL_Driver/Src/stm32f3xx_hal_opamp_ex.c ****       if ((hopamp4->Instance->CSR & OPAMP_CSR_OUTCAL) != RESET) 
 648:Drivers/STM32F3xx_HAL_Driver/Src/stm32f3xx_hal_opamp_ex.c ****       { 
 649:Drivers/STM32F3xx_HAL_Driver/Src/stm32f3xx_hal_opamp_ex.c ****         /* Trimming value is actually one value more */
 650:Drivers/STM32F3xx_HAL_Driver/Src/stm32f3xx_hal_opamp_ex.c ****         trimmingvaluep4++;
 651:Drivers/STM32F3xx_HAL_Driver/Src/stm32f3xx_hal_opamp_ex.c ****         /* Set right trimming */
 652:Drivers/STM32F3xx_HAL_Driver/Src/stm32f3xx_hal_opamp_ex.c ****         MODIFY_REG(hopamp4->Instance->CSR, OPAMP_CSR_TRIMOFFSETP, trimmingvaluep4<<OPAMP_INPUT_NONI
 653:Drivers/STM32F3xx_HAL_Driver/Src/stm32f3xx_hal_opamp_ex.c ****       }
 654:Drivers/STM32F3xx_HAL_Driver/Src/stm32f3xx_hal_opamp_ex.c **** 
 655:Drivers/STM32F3xx_HAL_Driver/Src/stm32f3xx_hal_opamp_ex.c ****       /* Disable calibration */
 656:Drivers/STM32F3xx_HAL_Driver/Src/stm32f3xx_hal_opamp_ex.c ****       CLEAR_BIT (hopamp1->Instance->CSR, OPAMP_CSR_CALON);
 657:Drivers/STM32F3xx_HAL_Driver/Src/stm32f3xx_hal_opamp_ex.c ****       CLEAR_BIT (hopamp2->Instance->CSR, OPAMP_CSR_CALON);
 658:Drivers/STM32F3xx_HAL_Driver/Src/stm32f3xx_hal_opamp_ex.c ****       CLEAR_BIT (hopamp3->Instance->CSR, OPAMP_CSR_CALON);
 659:Drivers/STM32F3xx_HAL_Driver/Src/stm32f3xx_hal_opamp_ex.c ****       CLEAR_BIT (hopamp4->Instance->CSR, OPAMP_CSR_CALON);
 660:Drivers/STM32F3xx_HAL_Driver/Src/stm32f3xx_hal_opamp_ex.c **** 
 661:Drivers/STM32F3xx_HAL_Driver/Src/stm32f3xx_hal_opamp_ex.c ****       /* Disable the OPAMPs */
 662:Drivers/STM32F3xx_HAL_Driver/Src/stm32f3xx_hal_opamp_ex.c ****       CLEAR_BIT (hopamp1->Instance->CSR, OPAMP_CSR_OPAMPxEN);
 663:Drivers/STM32F3xx_HAL_Driver/Src/stm32f3xx_hal_opamp_ex.c ****       CLEAR_BIT (hopamp2->Instance->CSR, OPAMP_CSR_OPAMPxEN);
 664:Drivers/STM32F3xx_HAL_Driver/Src/stm32f3xx_hal_opamp_ex.c ****       CLEAR_BIT (hopamp3->Instance->CSR, OPAMP_CSR_OPAMPxEN);
 665:Drivers/STM32F3xx_HAL_Driver/Src/stm32f3xx_hal_opamp_ex.c ****       CLEAR_BIT (hopamp4->Instance->CSR, OPAMP_CSR_OPAMPxEN);
 666:Drivers/STM32F3xx_HAL_Driver/Src/stm32f3xx_hal_opamp_ex.c **** 
 667:Drivers/STM32F3xx_HAL_Driver/Src/stm32f3xx_hal_opamp_ex.c ****       /* Set normal operating mode back */
 668:Drivers/STM32F3xx_HAL_Driver/Src/stm32f3xx_hal_opamp_ex.c ****       CLEAR_BIT(hopamp1->Instance->CSR, OPAMP_CSR_FORCEVP);
 669:Drivers/STM32F3xx_HAL_Driver/Src/stm32f3xx_hal_opamp_ex.c ****       CLEAR_BIT(hopamp2->Instance->CSR, OPAMP_CSR_FORCEVP);
 670:Drivers/STM32F3xx_HAL_Driver/Src/stm32f3xx_hal_opamp_ex.c ****       CLEAR_BIT(hopamp3->Instance->CSR, OPAMP_CSR_FORCEVP);
 671:Drivers/STM32F3xx_HAL_Driver/Src/stm32f3xx_hal_opamp_ex.c ****       CLEAR_BIT(hopamp4->Instance->CSR, OPAMP_CSR_FORCEVP);
 672:Drivers/STM32F3xx_HAL_Driver/Src/stm32f3xx_hal_opamp_ex.c ****       
ARM GAS  /var/folders/8c/gyvcglfx7f97kbqb2h83mm_r0000gn/T//cc2L7hyi.s 			page 15


 673:Drivers/STM32F3xx_HAL_Driver/Src/stm32f3xx_hal_opamp_ex.c ****       /* Self calibration is successful  */
 674:Drivers/STM32F3xx_HAL_Driver/Src/stm32f3xx_hal_opamp_ex.c ****       /* Store calibration(user timming) results in init structure. */
 675:Drivers/STM32F3xx_HAL_Driver/Src/stm32f3xx_hal_opamp_ex.c ****       /* Select user timming mode */
 676:Drivers/STM32F3xx_HAL_Driver/Src/stm32f3xx_hal_opamp_ex.c **** 
 677:Drivers/STM32F3xx_HAL_Driver/Src/stm32f3xx_hal_opamp_ex.c ****       /* Write calibration result N */
 678:Drivers/STM32F3xx_HAL_Driver/Src/stm32f3xx_hal_opamp_ex.c ****       hopamp1->Init.TrimmingValueN = trimmingvaluen1;
 679:Drivers/STM32F3xx_HAL_Driver/Src/stm32f3xx_hal_opamp_ex.c ****       hopamp2->Init.TrimmingValueN = trimmingvaluen2;
 680:Drivers/STM32F3xx_HAL_Driver/Src/stm32f3xx_hal_opamp_ex.c ****       hopamp3->Init.TrimmingValueN = trimmingvaluen3;
 681:Drivers/STM32F3xx_HAL_Driver/Src/stm32f3xx_hal_opamp_ex.c ****       hopamp4->Init.TrimmingValueN = trimmingvaluen4;
 682:Drivers/STM32F3xx_HAL_Driver/Src/stm32f3xx_hal_opamp_ex.c ****      
 683:Drivers/STM32F3xx_HAL_Driver/Src/stm32f3xx_hal_opamp_ex.c ****       /* Write calibration result P */
 684:Drivers/STM32F3xx_HAL_Driver/Src/stm32f3xx_hal_opamp_ex.c ****       hopamp1->Init.TrimmingValueP = trimmingvaluep1;
 685:Drivers/STM32F3xx_HAL_Driver/Src/stm32f3xx_hal_opamp_ex.c ****       hopamp2->Init.TrimmingValueP = trimmingvaluep2;
 686:Drivers/STM32F3xx_HAL_Driver/Src/stm32f3xx_hal_opamp_ex.c ****       hopamp3->Init.TrimmingValueP = trimmingvaluep3;
 687:Drivers/STM32F3xx_HAL_Driver/Src/stm32f3xx_hal_opamp_ex.c ****       hopamp4->Init.TrimmingValueP = trimmingvaluep4;
 688:Drivers/STM32F3xx_HAL_Driver/Src/stm32f3xx_hal_opamp_ex.c ****             
 689:Drivers/STM32F3xx_HAL_Driver/Src/stm32f3xx_hal_opamp_ex.c ****       /* Select user timming mode */      
 690:Drivers/STM32F3xx_HAL_Driver/Src/stm32f3xx_hal_opamp_ex.c ****       /* And updated with calibrated settings */
 691:Drivers/STM32F3xx_HAL_Driver/Src/stm32f3xx_hal_opamp_ex.c ****       hopamp1->Init.UserTrimming = OPAMP_TRIMMING_USER;
 692:Drivers/STM32F3xx_HAL_Driver/Src/stm32f3xx_hal_opamp_ex.c ****       hopamp2->Init.UserTrimming = OPAMP_TRIMMING_USER;
 693:Drivers/STM32F3xx_HAL_Driver/Src/stm32f3xx_hal_opamp_ex.c ****       hopamp3->Init.UserTrimming = OPAMP_TRIMMING_USER;
 694:Drivers/STM32F3xx_HAL_Driver/Src/stm32f3xx_hal_opamp_ex.c ****       hopamp4->Init.UserTrimming = OPAMP_TRIMMING_USER;
 695:Drivers/STM32F3xx_HAL_Driver/Src/stm32f3xx_hal_opamp_ex.c ****            
 696:Drivers/STM32F3xx_HAL_Driver/Src/stm32f3xx_hal_opamp_ex.c ****       MODIFY_REG(hopamp1->Instance->CSR, OPAMP_CSR_TRIMOFFSETN, trimmingvaluen1<<OPAMP_INPUT_INVERT
 697:Drivers/STM32F3xx_HAL_Driver/Src/stm32f3xx_hal_opamp_ex.c ****       MODIFY_REG(hopamp2->Instance->CSR, OPAMP_CSR_TRIMOFFSETN, trimmingvaluen2<<OPAMP_INPUT_INVERT
 698:Drivers/STM32F3xx_HAL_Driver/Src/stm32f3xx_hal_opamp_ex.c ****       MODIFY_REG(hopamp3->Instance->CSR, OPAMP_CSR_TRIMOFFSETN, trimmingvaluen3<<OPAMP_INPUT_INVERT
 699:Drivers/STM32F3xx_HAL_Driver/Src/stm32f3xx_hal_opamp_ex.c ****       MODIFY_REG(hopamp4->Instance->CSR, OPAMP_CSR_TRIMOFFSETN, trimmingvaluen4<<OPAMP_INPUT_INVERT
 700:Drivers/STM32F3xx_HAL_Driver/Src/stm32f3xx_hal_opamp_ex.c ****      
 701:Drivers/STM32F3xx_HAL_Driver/Src/stm32f3xx_hal_opamp_ex.c ****       MODIFY_REG(hopamp1->Instance->CSR, OPAMP_CSR_TRIMOFFSETP, trimmingvaluep1<<OPAMP_INPUT_NONINV
 702:Drivers/STM32F3xx_HAL_Driver/Src/stm32f3xx_hal_opamp_ex.c ****       MODIFY_REG(hopamp2->Instance->CSR, OPAMP_CSR_TRIMOFFSETP, trimmingvaluep2<<OPAMP_INPUT_NONINV
 703:Drivers/STM32F3xx_HAL_Driver/Src/stm32f3xx_hal_opamp_ex.c ****       MODIFY_REG(hopamp3->Instance->CSR, OPAMP_CSR_TRIMOFFSETP, trimmingvaluep3<<OPAMP_INPUT_NONINV
 704:Drivers/STM32F3xx_HAL_Driver/Src/stm32f3xx_hal_opamp_ex.c ****       MODIFY_REG(hopamp4->Instance->CSR, OPAMP_CSR_TRIMOFFSETP, trimmingvaluep4<<OPAMP_INPUT_NONINV
 705:Drivers/STM32F3xx_HAL_Driver/Src/stm32f3xx_hal_opamp_ex.c ****     
 706:Drivers/STM32F3xx_HAL_Driver/Src/stm32f3xx_hal_opamp_ex.c ****     }
 707:Drivers/STM32F3xx_HAL_Driver/Src/stm32f3xx_hal_opamp_ex.c ****     
 708:Drivers/STM32F3xx_HAL_Driver/Src/stm32f3xx_hal_opamp_ex.c ****     else
 709:Drivers/STM32F3xx_HAL_Driver/Src/stm32f3xx_hal_opamp_ex.c ****     {
 710:Drivers/STM32F3xx_HAL_Driver/Src/stm32f3xx_hal_opamp_ex.c ****       /* At least one OPAMP can not be calibrated */ 
 711:Drivers/STM32F3xx_HAL_Driver/Src/stm32f3xx_hal_opamp_ex.c ****       status = HAL_ERROR;
 712:Drivers/STM32F3xx_HAL_Driver/Src/stm32f3xx_hal_opamp_ex.c ****     }   
 713:Drivers/STM32F3xx_HAL_Driver/Src/stm32f3xx_hal_opamp_ex.c ****   }
 714:Drivers/STM32F3xx_HAL_Driver/Src/stm32f3xx_hal_opamp_ex.c ****   
 715:Drivers/STM32F3xx_HAL_Driver/Src/stm32f3xx_hal_opamp_ex.c ****   return status;
 125              		.loc 1 715 3 is_stmt 1 view .LVU39
 716:Drivers/STM32F3xx_HAL_Driver/Src/stm32f3xx_hal_opamp_ex.c **** }
 126              		.loc 1 716 1 is_stmt 0 view .LVU40
 127 0056 0FB0     		add	sp, sp, #60
 128              	.LCFI2:
 129              		.cfi_def_cfa_offset 36
 130              		@ sp needed
 131 0058 BDE8F08F 		pop	{r4, r5, r6, r7, r8, r9, r10, fp, pc}
 132              	.LVL4:
 133              	.L29:
 134              	.LCFI3:
 135              		.cfi_def_cfa_offset 0
 136              		.cfi_restore 4
 137              		.cfi_restore 5
ARM GAS  /var/folders/8c/gyvcglfx7f97kbqb2h83mm_r0000gn/T//cc2L7hyi.s 			page 16


 138              		.cfi_restore 6
 139              		.cfi_restore 7
 140              		.cfi_restore 8
 141              		.cfi_restore 9
 142              		.cfi_restore 10
 143              		.cfi_restore 11
 144              		.cfi_restore 14
 145              		.loc 1 716 1 view .LVU41
 146 005c 0120     		movs	r0, #1
 147              	.LVL5:
 715:Drivers/STM32F3xx_HAL_Driver/Src/stm32f3xx_hal_opamp_ex.c **** }
 148              		.loc 1 715 3 is_stmt 1 view .LVU42
 149              		.loc 1 716 1 is_stmt 0 view .LVU43
 150 005e 7047     		bx	lr
 151              	.LVL6:
 152              	.L72:
 153              	.LCFI4:
 154              		.cfi_def_cfa_offset 96
 155              		.cfi_offset 4, -36
 156              		.cfi_offset 5, -32
 157              		.cfi_offset 6, -28
 158              		.cfi_offset 7, -24
 159              		.cfi_offset 8, -20
 160              		.cfi_offset 9, -16
 161              		.cfi_offset 10, -12
 162              		.cfi_offset 11, -8
 163              		.cfi_offset 14, -4
 396:Drivers/STM32F3xx_HAL_Driver/Src/stm32f3xx_hal_opamp_ex.c ****       SET_BIT(hopamp2->Instance->CSR, OPAMP_CSR_FORCEVP);
 164              		.loc 1 396 7 view .LVU44
 165 0060 0768     		ldr	r7, [r0]
 166 0062 0091     		str	r1, [sp]
 389:Drivers/STM32F3xx_HAL_Driver/Src/stm32f3xx_hal_opamp_ex.c ****       assert_param(IS_OPAMP_ALL_INSTANCE(hopamp2->Instance));
 167              		.loc 1 389 7 is_stmt 1 view .LVU45
 390:Drivers/STM32F3xx_HAL_Driver/Src/stm32f3xx_hal_opamp_ex.c ****       assert_param(IS_OPAMP_ALL_INSTANCE(hopamp3->Instance));
 168              		.loc 1 390 7 view .LVU46
 391:Drivers/STM32F3xx_HAL_Driver/Src/stm32f3xx_hal_opamp_ex.c ****       assert_param(IS_OPAMP_ALL_INSTANCE(hopamp4->Instance));
 169              		.loc 1 391 7 view .LVU47
 392:Drivers/STM32F3xx_HAL_Driver/Src/stm32f3xx_hal_opamp_ex.c **** 
 170              		.loc 1 392 7 view .LVU48
 396:Drivers/STM32F3xx_HAL_Driver/Src/stm32f3xx_hal_opamp_ex.c ****       SET_BIT(hopamp2->Instance->CSR, OPAMP_CSR_FORCEVP);
 171              		.loc 1 396 7 view .LVU49
 172 0064 CDE90130 		strd	r3, r0, [sp, #4]
 397:Drivers/STM32F3xx_HAL_Driver/Src/stm32f3xx_hal_opamp_ex.c ****       SET_BIT(hopamp3->Instance->CSR, OPAMP_CSR_FORCEVP);
 173              		.loc 1 397 7 is_stmt 0 view .LVU50
 174 0068 0868     		ldr	r0, [r1]
 175              	.LVL7:
 396:Drivers/STM32F3xx_HAL_Driver/Src/stm32f3xx_hal_opamp_ex.c ****       SET_BIT(hopamp2->Instance->CSR, OPAMP_CSR_FORCEVP);
 176              		.loc 1 396 7 view .LVU51
 177 006a 3968     		ldr	r1, [r7]
 178              	.LVL8:
 399:Drivers/STM32F3xx_HAL_Driver/Src/stm32f3xx_hal_opamp_ex.c ****       
 179              		.loc 1 399 7 view .LVU52
 180 006c 1B68     		ldr	r3, [r3]
 181              	.LVL9:
 398:Drivers/STM32F3xx_HAL_Driver/Src/stm32f3xx_hal_opamp_ex.c ****       SET_BIT(hopamp4->Instance->CSR, OPAMP_CSR_FORCEVP);
 182              		.loc 1 398 7 view .LVU53
 183 006e 0392     		str	r2, [sp, #12]
ARM GAS  /var/folders/8c/gyvcglfx7f97kbqb2h83mm_r0000gn/T//cc2L7hyi.s 			page 17


 396:Drivers/STM32F3xx_HAL_Driver/Src/stm32f3xx_hal_opamp_ex.c ****       SET_BIT(hopamp2->Instance->CSR, OPAMP_CSR_FORCEVP);
 184              		.loc 1 396 7 view .LVU54
 185 0070 41F00201 		orr	r1, r1, #2
 186 0074 9146     		mov	r9, r2
 398:Drivers/STM32F3xx_HAL_Driver/Src/stm32f3xx_hal_opamp_ex.c ****       SET_BIT(hopamp4->Instance->CSR, OPAMP_CSR_FORCEVP);
 187              		.loc 1 398 7 view .LVU55
 188 0076 1268     		ldr	r2, [r2]
 189              	.LVL10:
 396:Drivers/STM32F3xx_HAL_Driver/Src/stm32f3xx_hal_opamp_ex.c ****       SET_BIT(hopamp2->Instance->CSR, OPAMP_CSR_FORCEVP);
 190              		.loc 1 396 7 view .LVU56
 191 0078 3960     		str	r1, [r7]
 397:Drivers/STM32F3xx_HAL_Driver/Src/stm32f3xx_hal_opamp_ex.c ****       SET_BIT(hopamp3->Instance->CSR, OPAMP_CSR_FORCEVP);
 192              		.loc 1 397 7 is_stmt 1 view .LVU57
 193 007a 0168     		ldr	r1, [r0]
 194 007c 41F00201 		orr	r1, r1, #2
 195 0080 0160     		str	r1, [r0]
 398:Drivers/STM32F3xx_HAL_Driver/Src/stm32f3xx_hal_opamp_ex.c ****       SET_BIT(hopamp4->Instance->CSR, OPAMP_CSR_FORCEVP);
 196              		.loc 1 398 7 view .LVU58
 197 0082 1168     		ldr	r1, [r2]
 198 0084 41F00201 		orr	r1, r1, #2
 199 0088 1160     		str	r1, [r2]
 399:Drivers/STM32F3xx_HAL_Driver/Src/stm32f3xx_hal_opamp_ex.c ****       
 200              		.loc 1 399 7 view .LVU59
 201 008a 1968     		ldr	r1, [r3]
 202 008c 41F00201 		orr	r1, r1, #2
 203 0090 1960     		str	r1, [r3]
 402:Drivers/STM32F3xx_HAL_Driver/Src/stm32f3xx_hal_opamp_ex.c ****       SET_BIT(hopamp2->Instance->CSR, OPAMP_CSR_USERTRIM);
 204              		.loc 1 402 7 view .LVU60
 205 0092 3968     		ldr	r1, [r7]
 206 0094 41F48021 		orr	r1, r1, #262144
 207 0098 3960     		str	r1, [r7]
 403:Drivers/STM32F3xx_HAL_Driver/Src/stm32f3xx_hal_opamp_ex.c ****       SET_BIT(hopamp3->Instance->CSR, OPAMP_CSR_USERTRIM);
 208              		.loc 1 403 7 view .LVU61
 209 009a 0168     		ldr	r1, [r0]
 210 009c 41F48021 		orr	r1, r1, #262144
 211 00a0 0160     		str	r1, [r0]
 404:Drivers/STM32F3xx_HAL_Driver/Src/stm32f3xx_hal_opamp_ex.c ****       SET_BIT(hopamp4->Instance->CSR, OPAMP_CSR_USERTRIM);
 212              		.loc 1 404 7 view .LVU62
 213 00a2 1168     		ldr	r1, [r2]
 214 00a4 41F48021 		orr	r1, r1, #262144
 215 00a8 1160     		str	r1, [r2]
 405:Drivers/STM32F3xx_HAL_Driver/Src/stm32f3xx_hal_opamp_ex.c ****       
 216              		.loc 1 405 7 view .LVU63
 217 00aa 1968     		ldr	r1, [r3]
 218 00ac 41F48021 		orr	r1, r1, #262144
 219 00b0 1960     		str	r1, [r3]
 408:Drivers/STM32F3xx_HAL_Driver/Src/stm32f3xx_hal_opamp_ex.c ****       SET_BIT (hopamp2->Instance->CSR, OPAMP_CSR_CALON);
 220              		.loc 1 408 7 view .LVU64
 221 00b2 3968     		ldr	r1, [r7]
 222 00b4 41F40061 		orr	r1, r1, #2048
 223 00b8 3960     		str	r1, [r7]
 409:Drivers/STM32F3xx_HAL_Driver/Src/stm32f3xx_hal_opamp_ex.c ****       SET_BIT (hopamp3->Instance->CSR, OPAMP_CSR_CALON);
 224              		.loc 1 409 7 view .LVU65
 225 00ba 0168     		ldr	r1, [r0]
 226 00bc 41F40061 		orr	r1, r1, #2048
 227 00c0 0160     		str	r1, [r0]
 410:Drivers/STM32F3xx_HAL_Driver/Src/stm32f3xx_hal_opamp_ex.c ****       SET_BIT (hopamp4->Instance->CSR, OPAMP_CSR_CALON);
ARM GAS  /var/folders/8c/gyvcglfx7f97kbqb2h83mm_r0000gn/T//cc2L7hyi.s 			page 18


 228              		.loc 1 410 7 view .LVU66
 229 00c2 1168     		ldr	r1, [r2]
 230 00c4 41F40061 		orr	r1, r1, #2048
 231 00c8 1160     		str	r1, [r2]
 411:Drivers/STM32F3xx_HAL_Driver/Src/stm32f3xx_hal_opamp_ex.c ****       
 232              		.loc 1 411 7 view .LVU67
 233 00ca 1968     		ldr	r1, [r3]
 234 00cc 41F40061 		orr	r1, r1, #2048
 235 00d0 1960     		str	r1, [r3]
 415:Drivers/STM32F3xx_HAL_Driver/Src/stm32f3xx_hal_opamp_ex.c ****       MODIFY_REG(hopamp2->Instance->CSR, OPAMP_CSR_CALSEL, OPAMP_VREF_90VDDA);
 236              		.loc 1 415 7 view .LVU68
 237 00d2 3968     		ldr	r1, [r7]
 238 00d4 41F44051 		orr	r1, r1, #12288
 239 00d8 3960     		str	r1, [r7]
 416:Drivers/STM32F3xx_HAL_Driver/Src/stm32f3xx_hal_opamp_ex.c ****       MODIFY_REG(hopamp3->Instance->CSR, OPAMP_CSR_CALSEL, OPAMP_VREF_90VDDA);
 240              		.loc 1 416 7 view .LVU69
 241 00da 0168     		ldr	r1, [r0]
 242 00dc 41F44051 		orr	r1, r1, #12288
 243 00e0 0160     		str	r1, [r0]
 417:Drivers/STM32F3xx_HAL_Driver/Src/stm32f3xx_hal_opamp_ex.c ****       MODIFY_REG(hopamp4->Instance->CSR, OPAMP_CSR_CALSEL, OPAMP_VREF_90VDDA);
 244              		.loc 1 417 7 view .LVU70
 245 00e2 1168     		ldr	r1, [r2]
 246 00e4 41F44051 		orr	r1, r1, #12288
 247 00e8 1160     		str	r1, [r2]
 418:Drivers/STM32F3xx_HAL_Driver/Src/stm32f3xx_hal_opamp_ex.c ****       
 248              		.loc 1 418 7 view .LVU71
 249 00ea 1968     		ldr	r1, [r3]
 250 00ec 41F44051 		orr	r1, r1, #12288
 251 00f0 1960     		str	r1, [r3]
 421:Drivers/STM32F3xx_HAL_Driver/Src/stm32f3xx_hal_opamp_ex.c ****       SET_BIT (hopamp2->Instance->CSR, OPAMP_CSR_OPAMPxEN);
 252              		.loc 1 421 7 view .LVU72
 253 00f2 3968     		ldr	r1, [r7]
 254 00f4 41F00101 		orr	r1, r1, #1
 255 00f8 3960     		str	r1, [r7]
 422:Drivers/STM32F3xx_HAL_Driver/Src/stm32f3xx_hal_opamp_ex.c ****       SET_BIT (hopamp3->Instance->CSR, OPAMP_CSR_OPAMPxEN);
 256              		.loc 1 422 7 view .LVU73
 257 00fa 0168     		ldr	r1, [r0]
 258 00fc 41F00101 		orr	r1, r1, #1
 259 0100 0160     		str	r1, [r0]
 423:Drivers/STM32F3xx_HAL_Driver/Src/stm32f3xx_hal_opamp_ex.c ****       SET_BIT (hopamp4->Instance->CSR, OPAMP_CSR_OPAMPxEN);
 260              		.loc 1 423 7 view .LVU74
 261 0102 1168     		ldr	r1, [r2]
 262 0104 41F00101 		orr	r1, r1, #1
 263 0108 1160     		str	r1, [r2]
 424:Drivers/STM32F3xx_HAL_Driver/Src/stm32f3xx_hal_opamp_ex.c ****       
 264              		.loc 1 424 7 view .LVU75
 265 010a 1968     		ldr	r1, [r3]
 431:Drivers/STM32F3xx_HAL_Driver/Src/stm32f3xx_hal_opamp_ex.c ****       delta = 8U; 
 266              		.loc 1 431 23 is_stmt 0 view .LVU76
 267 010c 1025     		movs	r5, #16
 424:Drivers/STM32F3xx_HAL_Driver/Src/stm32f3xx_hal_opamp_ex.c ****       
 268              		.loc 1 424 7 view .LVU77
 269 010e 41F00101 		orr	r1, r1, #1
 270 0112 1960     		str	r1, [r3]
 428:Drivers/STM32F3xx_HAL_Driver/Src/stm32f3xx_hal_opamp_ex.c ****       trimmingvaluen2 = 16U; 
 271              		.loc 1 428 7 is_stmt 1 view .LVU78
 272              	.LVL11:
ARM GAS  /var/folders/8c/gyvcglfx7f97kbqb2h83mm_r0000gn/T//cc2L7hyi.s 			page 19


 429:Drivers/STM32F3xx_HAL_Driver/Src/stm32f3xx_hal_opamp_ex.c ****       trimmingvaluen3 = 16U; 
 273              		.loc 1 429 7 view .LVU79
 430:Drivers/STM32F3xx_HAL_Driver/Src/stm32f3xx_hal_opamp_ex.c ****       trimmingvaluen4 = 16U; 
 274              		.loc 1 430 7 view .LVU80
 431:Drivers/STM32F3xx_HAL_Driver/Src/stm32f3xx_hal_opamp_ex.c ****       delta = 8U; 
 275              		.loc 1 431 7 view .LVU81
 432:Drivers/STM32F3xx_HAL_Driver/Src/stm32f3xx_hal_opamp_ex.c ****     
 276              		.loc 1 432 7 view .LVU82
 434:Drivers/STM32F3xx_HAL_Driver/Src/stm32f3xx_hal_opamp_ex.c ****       {
 277              		.loc 1 434 7 view .LVU83
 430:Drivers/STM32F3xx_HAL_Driver/Src/stm32f3xx_hal_opamp_ex.c ****       trimmingvaluen4 = 16U; 
 278              		.loc 1 430 23 is_stmt 0 view .LVU84
 279 0114 AA46     		mov	r10, r5
 429:Drivers/STM32F3xx_HAL_Driver/Src/stm32f3xx_hal_opamp_ex.c ****       trimmingvaluen3 = 16U; 
 280              		.loc 1 429 23 view .LVU85
 281 0116 AB46     		mov	fp, r5
 428:Drivers/STM32F3xx_HAL_Driver/Src/stm32f3xx_hal_opamp_ex.c ****       trimmingvaluen2 = 16U; 
 282              		.loc 1 428 23 view .LVU86
 283 0118 A846     		mov	r8, r5
 424:Drivers/STM32F3xx_HAL_Driver/Src/stm32f3xx_hal_opamp_ex.c ****       
 284              		.loc 1 424 7 view .LVU87
 285 011a 0426     		movs	r6, #4
 432:Drivers/STM32F3xx_HAL_Driver/Src/stm32f3xx_hal_opamp_ex.c ****     
 286              		.loc 1 432 13 view .LVU88
 287 011c 0824     		movs	r4, #8
 288              	.LVL12:
 289              	.L11:
 437:Drivers/STM32F3xx_HAL_Driver/Src/stm32f3xx_hal_opamp_ex.c ****         MODIFY_REG(hopamp2->Instance->CSR, OPAMP_CSR_TRIMOFFSETN, trimmingvaluen2<<OPAMP_INPUT_INVE
 290              		.loc 1 437 9 is_stmt 1 view .LVU89
 291 011e 3968     		ldr	r1, [r7]
 292 0120 21F0F851 		bic	r1, r1, #520093696
 293 0124 41EA0861 		orr	r1, r1, r8, lsl #24
 294 0128 3960     		str	r1, [r7]
 438:Drivers/STM32F3xx_HAL_Driver/Src/stm32f3xx_hal_opamp_ex.c ****         MODIFY_REG(hopamp3->Instance->CSR, OPAMP_CSR_TRIMOFFSETN, trimmingvaluen3<<OPAMP_INPUT_INVE
 295              		.loc 1 438 9 view .LVU90
 296 012a 0168     		ldr	r1, [r0]
 297 012c 21F0F851 		bic	r1, r1, #520093696
 298 0130 41EA0B61 		orr	r1, r1, fp, lsl #24
 299 0134 0160     		str	r1, [r0]
 439:Drivers/STM32F3xx_HAL_Driver/Src/stm32f3xx_hal_opamp_ex.c ****         MODIFY_REG(hopamp4->Instance->CSR, OPAMP_CSR_TRIMOFFSETN, trimmingvaluen4<<OPAMP_INPUT_INVE
 300              		.loc 1 439 9 view .LVU91
 301 0136 1168     		ldr	r1, [r2]
 302 0138 21F0F851 		bic	r1, r1, #520093696
 303 013c 41EA0A61 		orr	r1, r1, r10, lsl #24
 304 0140 1160     		str	r1, [r2]
 440:Drivers/STM32F3xx_HAL_Driver/Src/stm32f3xx_hal_opamp_ex.c ****               
 305              		.loc 1 440 9 view .LVU92
 306 0142 1A68     		ldr	r2, [r3]
 307 0144 22F0F852 		bic	r2, r2, #520093696
 308 0148 42EA0562 		orr	r2, r2, r5, lsl #24
 309 014c 1A60     		str	r2, [r3]
 445:Drivers/STM32F3xx_HAL_Driver/Src/stm32f3xx_hal_opamp_ex.c **** 
 310              		.loc 1 445 9 view .LVU93
 311 014e 0220     		movs	r0, #2
 312 0150 FFF7FEFF 		bl	HAL_Delay
 313              	.LVL13:
 447:Drivers/STM32F3xx_HAL_Driver/Src/stm32f3xx_hal_opamp_ex.c ****         { 
ARM GAS  /var/folders/8c/gyvcglfx7f97kbqb2h83mm_r0000gn/T//cc2L7hyi.s 			page 20


 314              		.loc 1 447 9 view .LVU94
 447:Drivers/STM32F3xx_HAL_Driver/Src/stm32f3xx_hal_opamp_ex.c ****         { 
 315              		.loc 1 447 21 is_stmt 0 view .LVU95
 316 0154 029B     		ldr	r3, [sp, #8]
 317 0156 1F68     		ldr	r7, [r3]
 447:Drivers/STM32F3xx_HAL_Driver/Src/stm32f3xx_hal_opamp_ex.c ****         { 
 318              		.loc 1 447 31 view .LVU96
 319 0158 3B68     		ldr	r3, [r7]
 447:Drivers/STM32F3xx_HAL_Driver/Src/stm32f3xx_hal_opamp_ex.c ****         { 
 320              		.loc 1 447 12 view .LVU97
 321 015a 5900     		lsls	r1, r3, #1
 450:Drivers/STM32F3xx_HAL_Driver/Src/stm32f3xx_hal_opamp_ex.c ****         }
 322              		.loc 1 450 11 is_stmt 1 view .LVU98
 458:Drivers/STM32F3xx_HAL_Driver/Src/stm32f3xx_hal_opamp_ex.c ****         { 
 323              		.loc 1 458 21 is_stmt 0 view .LVU99
 324 015c 009B     		ldr	r3, [sp]
 325 015e 1868     		ldr	r0, [r3]
 458:Drivers/STM32F3xx_HAL_Driver/Src/stm32f3xx_hal_opamp_ex.c ****         { 
 326              		.loc 1 458 31 view .LVU100
 327 0160 0368     		ldr	r3, [r0]
 450:Drivers/STM32F3xx_HAL_Driver/Src/stm32f3xx_hal_opamp_ex.c ****         }
 328              		.loc 1 450 27 view .LVU101
 329 0162 4CBF     		ite	mi
 330 0164 A044     		addmi	r8, r8, r4
 331              	.LVL14:
 455:Drivers/STM32F3xx_HAL_Driver/Src/stm32f3xx_hal_opamp_ex.c ****         }
 332              		.loc 1 455 11 is_stmt 1 view .LVU102
 455:Drivers/STM32F3xx_HAL_Driver/Src/stm32f3xx_hal_opamp_ex.c ****         }
 333              		.loc 1 455 27 is_stmt 0 view .LVU103
 334 0166 A8EB0408 		subpl	r8, r8, r4
 335              	.LVL15:
 458:Drivers/STM32F3xx_HAL_Driver/Src/stm32f3xx_hal_opamp_ex.c ****         { 
 336              		.loc 1 458 9 is_stmt 1 view .LVU104
 458:Drivers/STM32F3xx_HAL_Driver/Src/stm32f3xx_hal_opamp_ex.c ****         { 
 337              		.loc 1 458 12 is_stmt 0 view .LVU105
 338 016a 5A00     		lsls	r2, r3, #1
 461:Drivers/STM32F3xx_HAL_Driver/Src/stm32f3xx_hal_opamp_ex.c ****         }
 339              		.loc 1 461 11 is_stmt 1 view .LVU106
 469:Drivers/STM32F3xx_HAL_Driver/Src/stm32f3xx_hal_opamp_ex.c ****         { 
 340              		.loc 1 469 21 is_stmt 0 view .LVU107
 341 016c D9F80020 		ldr	r2, [r9]
 469:Drivers/STM32F3xx_HAL_Driver/Src/stm32f3xx_hal_opamp_ex.c ****         { 
 342              		.loc 1 469 31 view .LVU108
 343 0170 1368     		ldr	r3, [r2]
 461:Drivers/STM32F3xx_HAL_Driver/Src/stm32f3xx_hal_opamp_ex.c ****         }
 344              		.loc 1 461 27 view .LVU109
 345 0172 4CBF     		ite	mi
 346 0174 A344     		addmi	fp, fp, r4
 347              	.LVL16:
 466:Drivers/STM32F3xx_HAL_Driver/Src/stm32f3xx_hal_opamp_ex.c ****         }
 348              		.loc 1 466 11 is_stmt 1 view .LVU110
 466:Drivers/STM32F3xx_HAL_Driver/Src/stm32f3xx_hal_opamp_ex.c ****         }
 349              		.loc 1 466 27 is_stmt 0 view .LVU111
 350 0176 ABEB040B 		subpl	fp, fp, r4
 351              	.LVL17:
 469:Drivers/STM32F3xx_HAL_Driver/Src/stm32f3xx_hal_opamp_ex.c ****         { 
 352              		.loc 1 469 9 is_stmt 1 view .LVU112
ARM GAS  /var/folders/8c/gyvcglfx7f97kbqb2h83mm_r0000gn/T//cc2L7hyi.s 			page 21


 469:Drivers/STM32F3xx_HAL_Driver/Src/stm32f3xx_hal_opamp_ex.c ****         { 
 353              		.loc 1 469 12 is_stmt 0 view .LVU113
 354 017a 5B00     		lsls	r3, r3, #1
 472:Drivers/STM32F3xx_HAL_Driver/Src/stm32f3xx_hal_opamp_ex.c ****         }
 355              		.loc 1 472 11 is_stmt 1 view .LVU114
 480:Drivers/STM32F3xx_HAL_Driver/Src/stm32f3xx_hal_opamp_ex.c ****         { 
 356              		.loc 1 480 21 is_stmt 0 view .LVU115
 357 017c 019B     		ldr	r3, [sp, #4]
 358 017e 1B68     		ldr	r3, [r3]
 480:Drivers/STM32F3xx_HAL_Driver/Src/stm32f3xx_hal_opamp_ex.c ****         { 
 359              		.loc 1 480 31 view .LVU116
 360 0180 1968     		ldr	r1, [r3]
 472:Drivers/STM32F3xx_HAL_Driver/Src/stm32f3xx_hal_opamp_ex.c ****         }
 361              		.loc 1 472 27 view .LVU117
 362 0182 4CBF     		ite	mi
 363 0184 A244     		addmi	r10, r10, r4
 364              	.LVL18:
 477:Drivers/STM32F3xx_HAL_Driver/Src/stm32f3xx_hal_opamp_ex.c ****         }
 365              		.loc 1 477 11 is_stmt 1 view .LVU118
 477:Drivers/STM32F3xx_HAL_Driver/Src/stm32f3xx_hal_opamp_ex.c ****         }
 366              		.loc 1 477 27 is_stmt 0 view .LVU119
 367 0186 AAEB040A 		subpl	r10, r10, r4
 368              	.LVL19:
 480:Drivers/STM32F3xx_HAL_Driver/Src/stm32f3xx_hal_opamp_ex.c ****         { 
 369              		.loc 1 480 9 is_stmt 1 view .LVU120
 480:Drivers/STM32F3xx_HAL_Driver/Src/stm32f3xx_hal_opamp_ex.c ****         { 
 370              		.loc 1 480 12 is_stmt 0 view .LVU121
 371 018a 4900     		lsls	r1, r1, #1
 483:Drivers/STM32F3xx_HAL_Driver/Src/stm32f3xx_hal_opamp_ex.c ****         }
 372              		.loc 1 483 11 is_stmt 1 view .LVU122
 483:Drivers/STM32F3xx_HAL_Driver/Src/stm32f3xx_hal_opamp_ex.c ****         }
 373              		.loc 1 483 27 is_stmt 0 view .LVU123
 374 018c 4CBF     		ite	mi
 375 018e 2D19     		addmi	r5, r5, r4
 376              	.LVL20:
 488:Drivers/STM32F3xx_HAL_Driver/Src/stm32f3xx_hal_opamp_ex.c ****         }
 377              		.loc 1 488 11 is_stmt 1 view .LVU124
 488:Drivers/STM32F3xx_HAL_Driver/Src/stm32f3xx_hal_opamp_ex.c ****         }
 378              		.loc 1 488 27 is_stmt 0 view .LVU125
 379 0190 2D1B     		subpl	r5, r5, r4
 380              	.LVL21:
 491:Drivers/STM32F3xx_HAL_Driver/Src/stm32f3xx_hal_opamp_ex.c ****       }
 381              		.loc 1 491 9 is_stmt 1 view .LVU126
 434:Drivers/STM32F3xx_HAL_Driver/Src/stm32f3xx_hal_opamp_ex.c ****       {
 382              		.loc 1 434 13 is_stmt 0 view .LVU127
 383 0192 013E     		subs	r6, r6, #1
 491:Drivers/STM32F3xx_HAL_Driver/Src/stm32f3xx_hal_opamp_ex.c ****       }
 384              		.loc 1 491 15 view .LVU128
 385 0194 4FEA5404 		lsr	r4, r4, #1
 386              	.LVL22:
 434:Drivers/STM32F3xx_HAL_Driver/Src/stm32f3xx_hal_opamp_ex.c ****       {
 387              		.loc 1 434 13 view .LVU129
 388 0198 C1D1     		bne	.L11
 496:Drivers/STM32F3xx_HAL_Driver/Src/stm32f3xx_hal_opamp_ex.c ****       MODIFY_REG(hopamp2->Instance->CSR, OPAMP_CSR_TRIMOFFSETN, trimmingvaluen2<<OPAMP_INPUT_INVERT
 389              		.loc 1 496 7 is_stmt 1 view .LVU130
 390 019a 3C68     		ldr	r4, [r7]
 391              	.LVL23:
ARM GAS  /var/folders/8c/gyvcglfx7f97kbqb2h83mm_r0000gn/T//cc2L7hyi.s 			page 22


 496:Drivers/STM32F3xx_HAL_Driver/Src/stm32f3xx_hal_opamp_ex.c ****       MODIFY_REG(hopamp2->Instance->CSR, OPAMP_CSR_TRIMOFFSETN, trimmingvaluen2<<OPAMP_INPUT_INVERT
 392              		.loc 1 496 7 is_stmt 0 view .LVU131
 393 019c CDF81480 		str	r8, [sp, #20]
 394 01a0 4646     		mov	r6, r8
 395 01a2 3106     		lsls	r1, r6, #24
 396 01a4 24F0F854 		bic	r4, r4, #520093696
 397 01a8 0C43     		orrs	r4, r4, r1
 398 01aa 3C60     		str	r4, [r7]
 497:Drivers/STM32F3xx_HAL_Driver/Src/stm32f3xx_hal_opamp_ex.c ****       MODIFY_REG(hopamp3->Instance->CSR, OPAMP_CSR_TRIMOFFSETN, trimmingvaluen3<<OPAMP_INPUT_INVERT
 399              		.loc 1 497 7 is_stmt 1 view .LVU132
 400 01ac 0468     		ldr	r4, [r0]
 496:Drivers/STM32F3xx_HAL_Driver/Src/stm32f3xx_hal_opamp_ex.c ****       MODIFY_REG(hopamp2->Instance->CSR, OPAMP_CSR_TRIMOFFSETN, trimmingvaluen2<<OPAMP_INPUT_INVERT
 401              		.loc 1 496 7 is_stmt 0 view .LVU133
 402 01ae 0891     		str	r1, [sp, #32]
 497:Drivers/STM32F3xx_HAL_Driver/Src/stm32f3xx_hal_opamp_ex.c ****       MODIFY_REG(hopamp3->Instance->CSR, OPAMP_CSR_TRIMOFFSETN, trimmingvaluen3<<OPAMP_INPUT_INVERT
 403              		.loc 1 497 7 view .LVU134
 404 01b0 24F0F854 		bic	r4, r4, #520093696
 405 01b4 4FEA0B61 		lsl	r1, fp, #24
 406 01b8 0C43     		orrs	r4, r4, r1
 407 01ba 0460     		str	r4, [r0]
 498:Drivers/STM32F3xx_HAL_Driver/Src/stm32f3xx_hal_opamp_ex.c ****       MODIFY_REG(hopamp4->Instance->CSR, OPAMP_CSR_TRIMOFFSETN, trimmingvaluen4<<OPAMP_INPUT_INVERT
 408              		.loc 1 498 7 is_stmt 1 view .LVU135
 409 01bc 1068     		ldr	r0, [r2]
 497:Drivers/STM32F3xx_HAL_Driver/Src/stm32f3xx_hal_opamp_ex.c ****       MODIFY_REG(hopamp3->Instance->CSR, OPAMP_CSR_TRIMOFFSETN, trimmingvaluen3<<OPAMP_INPUT_INVERT
 410              		.loc 1 497 7 is_stmt 0 view .LVU136
 411 01be 0A91     		str	r1, [sp, #40]
 498:Drivers/STM32F3xx_HAL_Driver/Src/stm32f3xx_hal_opamp_ex.c ****       MODIFY_REG(hopamp4->Instance->CSR, OPAMP_CSR_TRIMOFFSETN, trimmingvaluen4<<OPAMP_INPUT_INVERT
 412              		.loc 1 498 7 view .LVU137
 413 01c0 20F0F850 		bic	r0, r0, #520093696
 414 01c4 4FEA0A61 		lsl	r1, r10, #24
 415 01c8 0843     		orrs	r0, r0, r1
 416 01ca 1060     		str	r0, [r2]
 499:Drivers/STM32F3xx_HAL_Driver/Src/stm32f3xx_hal_opamp_ex.c ****       
 417              		.loc 1 499 7 is_stmt 1 view .LVU138
 418 01cc 1A68     		ldr	r2, [r3]
 498:Drivers/STM32F3xx_HAL_Driver/Src/stm32f3xx_hal_opamp_ex.c ****       MODIFY_REG(hopamp4->Instance->CSR, OPAMP_CSR_TRIMOFFSETN, trimmingvaluen4<<OPAMP_INPUT_INVERT
 419              		.loc 1 498 7 is_stmt 0 view .LVU139
 420 01ce 0C91     		str	r1, [sp, #48]
 499:Drivers/STM32F3xx_HAL_Driver/Src/stm32f3xx_hal_opamp_ex.c ****       
 421              		.loc 1 499 7 view .LVU140
 422 01d0 22F0F852 		bic	r2, r2, #520093696
 423 01d4 2906     		lsls	r1, r5, #24
 424 01d6 0A43     		orrs	r2, r2, r1
 425 01d8 1A60     		str	r2, [r3]
 504:Drivers/STM32F3xx_HAL_Driver/Src/stm32f3xx_hal_opamp_ex.c ****       
 426              		.loc 1 504 7 is_stmt 1 view .LVU141
 427 01da 0220     		movs	r0, #2
 499:Drivers/STM32F3xx_HAL_Driver/Src/stm32f3xx_hal_opamp_ex.c ****       
 428              		.loc 1 499 7 is_stmt 0 view .LVU142
 429 01dc 0D91     		str	r1, [sp, #52]
 504:Drivers/STM32F3xx_HAL_Driver/Src/stm32f3xx_hal_opamp_ex.c ****       
 430              		.loc 1 504 7 view .LVU143
 431 01de FFF7FEFF 		bl	HAL_Delay
 432              	.LVL24:
 506:Drivers/STM32F3xx_HAL_Driver/Src/stm32f3xx_hal_opamp_ex.c ****       { 
 433              		.loc 1 506 7 is_stmt 1 view .LVU144
 506:Drivers/STM32F3xx_HAL_Driver/Src/stm32f3xx_hal_opamp_ex.c ****       { 
ARM GAS  /var/folders/8c/gyvcglfx7f97kbqb2h83mm_r0000gn/T//cc2L7hyi.s 			page 23


 434              		.loc 1 506 19 is_stmt 0 view .LVU145
 435 01e2 029B     		ldr	r3, [sp, #8]
 436 01e4 1968     		ldr	r1, [r3]
 506:Drivers/STM32F3xx_HAL_Driver/Src/stm32f3xx_hal_opamp_ex.c ****       { 
 437              		.loc 1 506 29 view .LVU146
 438 01e6 0B68     		ldr	r3, [r1]
 506:Drivers/STM32F3xx_HAL_Driver/Src/stm32f3xx_hal_opamp_ex.c ****       { 
 439              		.loc 1 506 10 view .LVU147
 440 01e8 5B00     		lsls	r3, r3, #1
 441 01ea 08D5     		bpl	.L12
 509:Drivers/STM32F3xx_HAL_Driver/Src/stm32f3xx_hal_opamp_ex.c ****         /* Set right trimming */
 442              		.loc 1 509 9 is_stmt 1 view .LVU148
 511:Drivers/STM32F3xx_HAL_Driver/Src/stm32f3xx_hal_opamp_ex.c ****       }
 443              		.loc 1 511 9 is_stmt 0 view .LVU149
 444 01ec 0B68     		ldr	r3, [r1]
 509:Drivers/STM32F3xx_HAL_Driver/Src/stm32f3xx_hal_opamp_ex.c ****         /* Set right trimming */
 445              		.loc 1 509 24 view .LVU150
 446 01ee 0136     		adds	r6, r6, #1
 511:Drivers/STM32F3xx_HAL_Driver/Src/stm32f3xx_hal_opamp_ex.c ****       }
 447              		.loc 1 511 9 view .LVU151
 448 01f0 3206     		lsls	r2, r6, #24
 449 01f2 23F0F853 		bic	r3, r3, #520093696
 450 01f6 1343     		orrs	r3, r3, r2
 509:Drivers/STM32F3xx_HAL_Driver/Src/stm32f3xx_hal_opamp_ex.c ****         /* Set right trimming */
 451              		.loc 1 509 24 view .LVU152
 452 01f8 0596     		str	r6, [sp, #20]
 453              	.LVL25:
 511:Drivers/STM32F3xx_HAL_Driver/Src/stm32f3xx_hal_opamp_ex.c ****       }
 454              		.loc 1 511 9 is_stmt 1 view .LVU153
 455 01fa 0892     		str	r2, [sp, #32]
 456 01fc 0B60     		str	r3, [r1]
 457              	.L12:
 458              	.LVL26:
 514:Drivers/STM32F3xx_HAL_Driver/Src/stm32f3xx_hal_opamp_ex.c ****       { 
 459              		.loc 1 514 7 view .LVU154
 514:Drivers/STM32F3xx_HAL_Driver/Src/stm32f3xx_hal_opamp_ex.c ****       { 
 460              		.loc 1 514 19 is_stmt 0 view .LVU155
 461 01fe 009B     		ldr	r3, [sp]
 462 0200 1868     		ldr	r0, [r3]
 514:Drivers/STM32F3xx_HAL_Driver/Src/stm32f3xx_hal_opamp_ex.c ****       { 
 463              		.loc 1 514 29 view .LVU156
 464 0202 0368     		ldr	r3, [r0]
 514:Drivers/STM32F3xx_HAL_Driver/Src/stm32f3xx_hal_opamp_ex.c ****       { 
 465              		.loc 1 514 10 view .LVU157
 466 0204 5F00     		lsls	r7, r3, #1
 467 0206 09D5     		bpl	.L13
 517:Drivers/STM32F3xx_HAL_Driver/Src/stm32f3xx_hal_opamp_ex.c ****         /* Set right trimming */
 468              		.loc 1 517 9 is_stmt 1 view .LVU158
 519:Drivers/STM32F3xx_HAL_Driver/Src/stm32f3xx_hal_opamp_ex.c ****       }
 469              		.loc 1 519 9 is_stmt 0 view .LVU159
 470 0208 0368     		ldr	r3, [r0]
 517:Drivers/STM32F3xx_HAL_Driver/Src/stm32f3xx_hal_opamp_ex.c ****         /* Set right trimming */
 471              		.loc 1 517 24 view .LVU160
 472 020a 0BF1010B 		add	fp, fp, #1
 473              	.LVL27:
 519:Drivers/STM32F3xx_HAL_Driver/Src/stm32f3xx_hal_opamp_ex.c ****       }
 474              		.loc 1 519 9 is_stmt 1 view .LVU161
ARM GAS  /var/folders/8c/gyvcglfx7f97kbqb2h83mm_r0000gn/T//cc2L7hyi.s 			page 24


 475 020e 4FEA0B62 		lsl	r2, fp, #24
 476 0212 23F0F853 		bic	r3, r3, #520093696
 477 0216 1343     		orrs	r3, r3, r2
 478 0218 0A92     		str	r2, [sp, #40]
 479 021a 0360     		str	r3, [r0]
 480              	.L13:
 522:Drivers/STM32F3xx_HAL_Driver/Src/stm32f3xx_hal_opamp_ex.c ****       { 
 481              		.loc 1 522 7 view .LVU162
 522:Drivers/STM32F3xx_HAL_Driver/Src/stm32f3xx_hal_opamp_ex.c ****       { 
 482              		.loc 1 522 19 is_stmt 0 view .LVU163
 483 021c 039B     		ldr	r3, [sp, #12]
 484 021e 1A68     		ldr	r2, [r3]
 522:Drivers/STM32F3xx_HAL_Driver/Src/stm32f3xx_hal_opamp_ex.c ****       { 
 485              		.loc 1 522 29 view .LVU164
 486 0220 1368     		ldr	r3, [r2]
 522:Drivers/STM32F3xx_HAL_Driver/Src/stm32f3xx_hal_opamp_ex.c ****       { 
 487              		.loc 1 522 10 view .LVU165
 488 0222 5E00     		lsls	r6, r3, #1
 489 0224 09D5     		bpl	.L14
 525:Drivers/STM32F3xx_HAL_Driver/Src/stm32f3xx_hal_opamp_ex.c ****         /* Set right trimming */
 490              		.loc 1 525 9 is_stmt 1 view .LVU166
 527:Drivers/STM32F3xx_HAL_Driver/Src/stm32f3xx_hal_opamp_ex.c ****       }
 491              		.loc 1 527 9 is_stmt 0 view .LVU167
 492 0226 1368     		ldr	r3, [r2]
 525:Drivers/STM32F3xx_HAL_Driver/Src/stm32f3xx_hal_opamp_ex.c ****         /* Set right trimming */
 493              		.loc 1 525 24 view .LVU168
 494 0228 0AF1010A 		add	r10, r10, #1
 495              	.LVL28:
 527:Drivers/STM32F3xx_HAL_Driver/Src/stm32f3xx_hal_opamp_ex.c ****       }
 496              		.loc 1 527 9 is_stmt 1 view .LVU169
 497 022c 4FEA0A64 		lsl	r4, r10, #24
 498 0230 23F0F853 		bic	r3, r3, #520093696
 499 0234 2343     		orrs	r3, r3, r4
 500 0236 0C94     		str	r4, [sp, #48]
 501 0238 1360     		str	r3, [r2]
 502              	.L14:
 530:Drivers/STM32F3xx_HAL_Driver/Src/stm32f3xx_hal_opamp_ex.c ****       { 
 503              		.loc 1 530 7 view .LVU170
 530:Drivers/STM32F3xx_HAL_Driver/Src/stm32f3xx_hal_opamp_ex.c ****       { 
 504              		.loc 1 530 19 is_stmt 0 view .LVU171
 505 023a 019B     		ldr	r3, [sp, #4]
 506 023c 1B68     		ldr	r3, [r3]
 530:Drivers/STM32F3xx_HAL_Driver/Src/stm32f3xx_hal_opamp_ex.c ****       { 
 507              		.loc 1 530 29 view .LVU172
 508 023e 1C68     		ldr	r4, [r3]
 530:Drivers/STM32F3xx_HAL_Driver/Src/stm32f3xx_hal_opamp_ex.c ****       { 
 509              		.loc 1 530 10 view .LVU173
 510 0240 6400     		lsls	r4, r4, #1
 511 0242 07D5     		bpl	.L15
 533:Drivers/STM32F3xx_HAL_Driver/Src/stm32f3xx_hal_opamp_ex.c ****         /* Set right trimming */
 512              		.loc 1 533 9 is_stmt 1 view .LVU174
 535:Drivers/STM32F3xx_HAL_Driver/Src/stm32f3xx_hal_opamp_ex.c ****       }
 513              		.loc 1 535 9 is_stmt 0 view .LVU175
 514 0244 1C68     		ldr	r4, [r3]
 533:Drivers/STM32F3xx_HAL_Driver/Src/stm32f3xx_hal_opamp_ex.c ****         /* Set right trimming */
 515              		.loc 1 533 24 view .LVU176
 516 0246 0135     		adds	r5, r5, #1
ARM GAS  /var/folders/8c/gyvcglfx7f97kbqb2h83mm_r0000gn/T//cc2L7hyi.s 			page 25


 517              	.LVL29:
 535:Drivers/STM32F3xx_HAL_Driver/Src/stm32f3xx_hal_opamp_ex.c ****       }
 518              		.loc 1 535 9 is_stmt 1 view .LVU177
 519 0248 2E06     		lsls	r6, r5, #24
 520 024a 24F0F854 		bic	r4, r4, #520093696
 521 024e 3443     		orrs	r4, r4, r6
 522 0250 0D96     		str	r6, [sp, #52]
 523 0252 1C60     		str	r4, [r3]
 524              	.L15:
 540:Drivers/STM32F3xx_HAL_Driver/Src/stm32f3xx_hal_opamp_ex.c ****       MODIFY_REG(hopamp2->Instance->CSR, OPAMP_CSR_CALSEL, OPAMP_VREF_10VDDA);
 525              		.loc 1 540 7 view .LVU178
 526 0254 0C68     		ldr	r4, [r1]
 527 0256 24F44054 		bic	r4, r4, #12288
 528 025a 44F48054 		orr	r4, r4, #4096
 529 025e 0C60     		str	r4, [r1]
 541:Drivers/STM32F3xx_HAL_Driver/Src/stm32f3xx_hal_opamp_ex.c ****       MODIFY_REG(hopamp3->Instance->CSR, OPAMP_CSR_CALSEL, OPAMP_VREF_10VDDA);
 530              		.loc 1 541 7 view .LVU179
 531 0260 0468     		ldr	r4, [r0]
 532 0262 24F44054 		bic	r4, r4, #12288
 533 0266 44F48054 		orr	r4, r4, #4096
 534 026a 0460     		str	r4, [r0]
 542:Drivers/STM32F3xx_HAL_Driver/Src/stm32f3xx_hal_opamp_ex.c ****       MODIFY_REG(hopamp4->Instance->CSR, OPAMP_CSR_CALSEL, OPAMP_VREF_10VDDA);
 535              		.loc 1 542 7 view .LVU180
 536 026c 1468     		ldr	r4, [r2]
 537 026e 24F44054 		bic	r4, r4, #12288
 538 0272 44F48054 		orr	r4, r4, #4096
 539 0276 1460     		str	r4, [r2]
 543:Drivers/STM32F3xx_HAL_Driver/Src/stm32f3xx_hal_opamp_ex.c ****       
 540              		.loc 1 543 7 view .LVU181
 541 0278 1E68     		ldr	r6, [r3]
 542 027a 26F44056 		bic	r6, r6, #12288
 543 027e 46F48056 		orr	r6, r6, #4096
 550:Drivers/STM32F3xx_HAL_Driver/Src/stm32f3xx_hal_opamp_ex.c ****       
 544              		.loc 1 550 23 is_stmt 0 view .LVU182
 545 0282 1024     		movs	r4, #16
 543:Drivers/STM32F3xx_HAL_Driver/Src/stm32f3xx_hal_opamp_ex.c ****       
 546              		.loc 1 543 7 view .LVU183
 547 0284 1E60     		str	r6, [r3]
 547:Drivers/STM32F3xx_HAL_Driver/Src/stm32f3xx_hal_opamp_ex.c ****       trimmingvaluep2 = 16U; 
 548              		.loc 1 547 7 is_stmt 1 view .LVU184
 549              	.LVL30:
 548:Drivers/STM32F3xx_HAL_Driver/Src/stm32f3xx_hal_opamp_ex.c ****       trimmingvaluep3 = 16U; 
 550              		.loc 1 548 7 view .LVU185
 549:Drivers/STM32F3xx_HAL_Driver/Src/stm32f3xx_hal_opamp_ex.c ****       trimmingvaluep4 = 16U; 
 551              		.loc 1 549 7 view .LVU186
 550:Drivers/STM32F3xx_HAL_Driver/Src/stm32f3xx_hal_opamp_ex.c ****       
 552              		.loc 1 550 7 view .LVU187
 552:Drivers/STM32F3xx_HAL_Driver/Src/stm32f3xx_hal_opamp_ex.c ****       
 553              		.loc 1 552 7 view .LVU188
 554:Drivers/STM32F3xx_HAL_Driver/Src/stm32f3xx_hal_opamp_ex.c ****       {
 554              		.loc 1 554 7 view .LVU189
 543:Drivers/STM32F3xx_HAL_Driver/Src/stm32f3xx_hal_opamp_ex.c ****       
 555              		.loc 1 543 7 is_stmt 0 view .LVU190
 556 0286 0426     		movs	r6, #4
 557 0288 0496     		str	r6, [sp, #16]
 549:Drivers/STM32F3xx_HAL_Driver/Src/stm32f3xx_hal_opamp_ex.c ****       trimmingvaluep4 = 16U; 
 558              		.loc 1 549 23 view .LVU191
ARM GAS  /var/folders/8c/gyvcglfx7f97kbqb2h83mm_r0000gn/T//cc2L7hyi.s 			page 26


 559 028a 2746     		mov	r7, r4
 548:Drivers/STM32F3xx_HAL_Driver/Src/stm32f3xx_hal_opamp_ex.c ****       trimmingvaluep3 = 16U; 
 560              		.loc 1 548 23 view .LVU192
 561 028c A046     		mov	r8, r4
 547:Drivers/STM32F3xx_HAL_Driver/Src/stm32f3xx_hal_opamp_ex.c ****       trimmingvaluep2 = 16U; 
 562              		.loc 1 547 23 view .LVU193
 563 028e A146     		mov	r9, r4
 564              	.LVL31:
 552:Drivers/STM32F3xx_HAL_Driver/Src/stm32f3xx_hal_opamp_ex.c ****       
 565              		.loc 1 552 13 view .LVU194
 566 0290 0826     		movs	r6, #8
 567 0292 9446     		mov	ip, r2
 568 0294 9E46     		mov	lr, r3
 569              	.LVL32:
 570              	.L24:
 557:Drivers/STM32F3xx_HAL_Driver/Src/stm32f3xx_hal_opamp_ex.c ****         MODIFY_REG(hopamp2->Instance->CSR, OPAMP_CSR_TRIMOFFSETP, trimmingvaluep2<<OPAMP_INPUT_NONI
 571              		.loc 1 557 9 is_stmt 1 view .LVU195
 572 0296 0B68     		ldr	r3, [r1]
 573 0298 23F47803 		bic	r3, r3, #16252928
 574 029c 43EAC943 		orr	r3, r3, r9, lsl #19
 575 02a0 0B60     		str	r3, [r1]
 558:Drivers/STM32F3xx_HAL_Driver/Src/stm32f3xx_hal_opamp_ex.c ****         MODIFY_REG(hopamp3->Instance->CSR, OPAMP_CSR_TRIMOFFSETP, trimmingvaluep3<<OPAMP_INPUT_NONI
 576              		.loc 1 558 9 view .LVU196
 577 02a2 0368     		ldr	r3, [r0]
 578 02a4 23F47803 		bic	r3, r3, #16252928
 579 02a8 43EAC843 		orr	r3, r3, r8, lsl #19
 580 02ac 0360     		str	r3, [r0]
 559:Drivers/STM32F3xx_HAL_Driver/Src/stm32f3xx_hal_opamp_ex.c ****         MODIFY_REG(hopamp4->Instance->CSR, OPAMP_CSR_TRIMOFFSETP, trimmingvaluep4<<OPAMP_INPUT_NONI
 581              		.loc 1 559 9 view .LVU197
 582 02ae DCF80030 		ldr	r3, [ip]
 583 02b2 23F47803 		bic	r3, r3, #16252928
 584 02b6 43EAC743 		orr	r3, r3, r7, lsl #19
 585 02ba CCF80030 		str	r3, [ip]
 560:Drivers/STM32F3xx_HAL_Driver/Src/stm32f3xx_hal_opamp_ex.c ****                
 586              		.loc 1 560 9 view .LVU198
 587 02be DEF80030 		ldr	r3, [lr]
 588 02c2 23F47803 		bic	r3, r3, #16252928
 589 02c6 43EAC443 		orr	r3, r3, r4, lsl #19
 590 02ca CEF80030 		str	r3, [lr]
 565:Drivers/STM32F3xx_HAL_Driver/Src/stm32f3xx_hal_opamp_ex.c **** 
 591              		.loc 1 565 9 view .LVU199
 592 02ce 0220     		movs	r0, #2
 593 02d0 FFF7FEFF 		bl	HAL_Delay
 594              	.LVL33:
 567:Drivers/STM32F3xx_HAL_Driver/Src/stm32f3xx_hal_opamp_ex.c ****         { 
 595              		.loc 1 567 9 view .LVU200
 567:Drivers/STM32F3xx_HAL_Driver/Src/stm32f3xx_hal_opamp_ex.c ****         { 
 596              		.loc 1 567 21 is_stmt 0 view .LVU201
 597 02d4 029B     		ldr	r3, [sp, #8]
 598 02d6 1968     		ldr	r1, [r3]
 567:Drivers/STM32F3xx_HAL_Driver/Src/stm32f3xx_hal_opamp_ex.c ****         { 
 599              		.loc 1 567 31 view .LVU202
 600 02d8 0B68     		ldr	r3, [r1]
 567:Drivers/STM32F3xx_HAL_Driver/Src/stm32f3xx_hal_opamp_ex.c ****         { 
 601              		.loc 1 567 12 view .LVU203
 602 02da 5A00     		lsls	r2, r3, #1
 570:Drivers/STM32F3xx_HAL_Driver/Src/stm32f3xx_hal_opamp_ex.c ****         }
ARM GAS  /var/folders/8c/gyvcglfx7f97kbqb2h83mm_r0000gn/T//cc2L7hyi.s 			page 27


 603              		.loc 1 570 11 is_stmt 1 view .LVU204
 577:Drivers/STM32F3xx_HAL_Driver/Src/stm32f3xx_hal_opamp_ex.c ****         { 
 604              		.loc 1 577 21 is_stmt 0 view .LVU205
 605 02dc 009B     		ldr	r3, [sp]
 606 02de 1868     		ldr	r0, [r3]
 577:Drivers/STM32F3xx_HAL_Driver/Src/stm32f3xx_hal_opamp_ex.c ****         { 
 607              		.loc 1 577 31 view .LVU206
 608 02e0 0368     		ldr	r3, [r0]
 570:Drivers/STM32F3xx_HAL_Driver/Src/stm32f3xx_hal_opamp_ex.c ****         }
 609              		.loc 1 570 27 view .LVU207
 610 02e2 4CBF     		ite	mi
 611 02e4 B144     		addmi	r9, r9, r6
 612              	.LVL34:
 574:Drivers/STM32F3xx_HAL_Driver/Src/stm32f3xx_hal_opamp_ex.c ****         }
 613              		.loc 1 574 11 is_stmt 1 view .LVU208
 574:Drivers/STM32F3xx_HAL_Driver/Src/stm32f3xx_hal_opamp_ex.c ****         }
 614              		.loc 1 574 27 is_stmt 0 view .LVU209
 615 02e6 A9EB0609 		subpl	r9, r9, r6
 616              	.LVL35:
 577:Drivers/STM32F3xx_HAL_Driver/Src/stm32f3xx_hal_opamp_ex.c ****         { 
 617              		.loc 1 577 9 is_stmt 1 view .LVU210
 577:Drivers/STM32F3xx_HAL_Driver/Src/stm32f3xx_hal_opamp_ex.c ****         { 
 618              		.loc 1 577 12 is_stmt 0 view .LVU211
 619 02ea 5B00     		lsls	r3, r3, #1
 580:Drivers/STM32F3xx_HAL_Driver/Src/stm32f3xx_hal_opamp_ex.c ****         }
 620              		.loc 1 580 11 is_stmt 1 view .LVU212
 587:Drivers/STM32F3xx_HAL_Driver/Src/stm32f3xx_hal_opamp_ex.c ****         { 
 621              		.loc 1 587 21 is_stmt 0 view .LVU213
 622 02ec 039B     		ldr	r3, [sp, #12]
 623 02ee D3F800C0 		ldr	ip, [r3]
 587:Drivers/STM32F3xx_HAL_Driver/Src/stm32f3xx_hal_opamp_ex.c ****         { 
 624              		.loc 1 587 31 view .LVU214
 625 02f2 DCF80030 		ldr	r3, [ip]
 580:Drivers/STM32F3xx_HAL_Driver/Src/stm32f3xx_hal_opamp_ex.c ****         }
 626              		.loc 1 580 27 view .LVU215
 627 02f6 4CBF     		ite	mi
 628 02f8 B044     		addmi	r8, r8, r6
 629              	.LVL36:
 584:Drivers/STM32F3xx_HAL_Driver/Src/stm32f3xx_hal_opamp_ex.c ****         }
 630              		.loc 1 584 11 is_stmt 1 view .LVU216
 584:Drivers/STM32F3xx_HAL_Driver/Src/stm32f3xx_hal_opamp_ex.c ****         }
 631              		.loc 1 584 27 is_stmt 0 view .LVU217
 632 02fa A8EB0608 		subpl	r8, r8, r6
 633              	.LVL37:
 587:Drivers/STM32F3xx_HAL_Driver/Src/stm32f3xx_hal_opamp_ex.c ****         { 
 634              		.loc 1 587 9 is_stmt 1 view .LVU218
 587:Drivers/STM32F3xx_HAL_Driver/Src/stm32f3xx_hal_opamp_ex.c ****         { 
 635              		.loc 1 587 12 is_stmt 0 view .LVU219
 636 02fe 5A00     		lsls	r2, r3, #1
 590:Drivers/STM32F3xx_HAL_Driver/Src/stm32f3xx_hal_opamp_ex.c ****         }
 637              		.loc 1 590 11 is_stmt 1 view .LVU220
 597:Drivers/STM32F3xx_HAL_Driver/Src/stm32f3xx_hal_opamp_ex.c ****         { 
 638              		.loc 1 597 21 is_stmt 0 view .LVU221
 639 0300 019B     		ldr	r3, [sp, #4]
 640 0302 D3F800E0 		ldr	lr, [r3]
 597:Drivers/STM32F3xx_HAL_Driver/Src/stm32f3xx_hal_opamp_ex.c ****         { 
 641              		.loc 1 597 31 view .LVU222
ARM GAS  /var/folders/8c/gyvcglfx7f97kbqb2h83mm_r0000gn/T//cc2L7hyi.s 			page 28


 642 0306 DEF80030 		ldr	r3, [lr]
 590:Drivers/STM32F3xx_HAL_Driver/Src/stm32f3xx_hal_opamp_ex.c ****         }
 643              		.loc 1 590 27 view .LVU223
 644 030a 4CBF     		ite	mi
 645 030c BF19     		addmi	r7, r7, r6
 646              	.LVL38:
 594:Drivers/STM32F3xx_HAL_Driver/Src/stm32f3xx_hal_opamp_ex.c ****         }
 647              		.loc 1 594 11 is_stmt 1 view .LVU224
 594:Drivers/STM32F3xx_HAL_Driver/Src/stm32f3xx_hal_opamp_ex.c ****         }
 648              		.loc 1 594 27 is_stmt 0 view .LVU225
 649 030e BF1B     		subpl	r7, r7, r6
 650              	.LVL39:
 597:Drivers/STM32F3xx_HAL_Driver/Src/stm32f3xx_hal_opamp_ex.c ****         { 
 651              		.loc 1 597 9 is_stmt 1 view .LVU226
 597:Drivers/STM32F3xx_HAL_Driver/Src/stm32f3xx_hal_opamp_ex.c ****         { 
 652              		.loc 1 597 12 is_stmt 0 view .LVU227
 653 0310 5B00     		lsls	r3, r3, #1
 600:Drivers/STM32F3xx_HAL_Driver/Src/stm32f3xx_hal_opamp_ex.c ****         }
 654              		.loc 1 600 11 is_stmt 1 view .LVU228
 554:Drivers/STM32F3xx_HAL_Driver/Src/stm32f3xx_hal_opamp_ex.c ****       {
 655              		.loc 1 554 13 is_stmt 0 view .LVU229
 656 0312 049B     		ldr	r3, [sp, #16]
 600:Drivers/STM32F3xx_HAL_Driver/Src/stm32f3xx_hal_opamp_ex.c ****         }
 657              		.loc 1 600 27 view .LVU230
 658 0314 4CBF     		ite	mi
 659 0316 A419     		addmi	r4, r4, r6
 660              	.LVL40:
 604:Drivers/STM32F3xx_HAL_Driver/Src/stm32f3xx_hal_opamp_ex.c ****         }
 661              		.loc 1 604 11 is_stmt 1 view .LVU231
 604:Drivers/STM32F3xx_HAL_Driver/Src/stm32f3xx_hal_opamp_ex.c ****         }
 662              		.loc 1 604 27 is_stmt 0 view .LVU232
 663 0318 A41B     		subpl	r4, r4, r6
 664              	.LVL41:
 607:Drivers/STM32F3xx_HAL_Driver/Src/stm32f3xx_hal_opamp_ex.c ****       }
 665              		.loc 1 607 9 is_stmt 1 view .LVU233
 554:Drivers/STM32F3xx_HAL_Driver/Src/stm32f3xx_hal_opamp_ex.c ****       {
 666              		.loc 1 554 13 is_stmt 0 view .LVU234
 667 031a 013B     		subs	r3, r3, #1
 607:Drivers/STM32F3xx_HAL_Driver/Src/stm32f3xx_hal_opamp_ex.c ****       }
 668              		.loc 1 607 15 view .LVU235
 669 031c 4FEA5606 		lsr	r6, r6, #1
 670              	.LVL42:
 554:Drivers/STM32F3xx_HAL_Driver/Src/stm32f3xx_hal_opamp_ex.c ****       {
 671              		.loc 1 554 13 view .LVU236
 672 0320 0493     		str	r3, [sp, #16]
 673 0322 B8D1     		bne	.L24
 613:Drivers/STM32F3xx_HAL_Driver/Src/stm32f3xx_hal_opamp_ex.c ****       MODIFY_REG(hopamp2->Instance->CSR, OPAMP_CSR_TRIMOFFSETP, trimmingvaluep2<<OPAMP_INPUT_NONINV
 674              		.loc 1 613 7 is_stmt 1 view .LVU237
 675 0324 0E68     		ldr	r6, [r1]
 676              	.LVL43:
 613:Drivers/STM32F3xx_HAL_Driver/Src/stm32f3xx_hal_opamp_ex.c ****       MODIFY_REG(hopamp2->Instance->CSR, OPAMP_CSR_TRIMOFFSETP, trimmingvaluep2<<OPAMP_INPUT_NONINV
 677              		.loc 1 613 7 is_stmt 0 view .LVU238
 678 0326 0497     		str	r7, [sp, #16]
 679 0328 6246     		mov	r2, ip
 680 032a 26F47806 		bic	r6, r6, #16252928
 681 032e BC46     		mov	ip, r7
 682 0330 4FEAC947 		lsl	r7, r9, #19
ARM GAS  /var/folders/8c/gyvcglfx7f97kbqb2h83mm_r0000gn/T//cc2L7hyi.s 			page 29


 683              	.LVL44:
 613:Drivers/STM32F3xx_HAL_Driver/Src/stm32f3xx_hal_opamp_ex.c ****       MODIFY_REG(hopamp2->Instance->CSR, OPAMP_CSR_TRIMOFFSETP, trimmingvaluep2<<OPAMP_INPUT_NONINV
 684              		.loc 1 613 7 view .LVU239
 685 0334 3E43     		orrs	r6, r6, r7
 686 0336 0E60     		str	r6, [r1]
 614:Drivers/STM32F3xx_HAL_Driver/Src/stm32f3xx_hal_opamp_ex.c ****       MODIFY_REG(hopamp3->Instance->CSR, OPAMP_CSR_TRIMOFFSETP, trimmingvaluep3<<OPAMP_INPUT_NONINV
 687              		.loc 1 614 7 is_stmt 1 view .LVU240
 688 0338 0668     		ldr	r6, [r0]
 613:Drivers/STM32F3xx_HAL_Driver/Src/stm32f3xx_hal_opamp_ex.c ****       MODIFY_REG(hopamp2->Instance->CSR, OPAMP_CSR_TRIMOFFSETP, trimmingvaluep2<<OPAMP_INPUT_NONINV
 689              		.loc 1 613 7 is_stmt 0 view .LVU241
 690 033a 0697     		str	r7, [sp, #24]
 614:Drivers/STM32F3xx_HAL_Driver/Src/stm32f3xx_hal_opamp_ex.c ****       MODIFY_REG(hopamp3->Instance->CSR, OPAMP_CSR_TRIMOFFSETP, trimmingvaluep3<<OPAMP_INPUT_NONINV
 691              		.loc 1 614 7 view .LVU242
 692 033c 4FEAC841 		lsl	r1, r8, #19
 693 0340 26F47806 		bic	r6, r6, #16252928
 694 0344 0E43     		orrs	r6, r6, r1
 695 0346 0660     		str	r6, [r0]
 615:Drivers/STM32F3xx_HAL_Driver/Src/stm32f3xx_hal_opamp_ex.c ****       MODIFY_REG(hopamp4->Instance->CSR, OPAMP_CSR_TRIMOFFSETP, trimmingvaluep4<<OPAMP_INPUT_NONINV
 696              		.loc 1 615 7 is_stmt 1 view .LVU243
 697 0348 1068     		ldr	r0, [r2]
 614:Drivers/STM32F3xx_HAL_Driver/Src/stm32f3xx_hal_opamp_ex.c ****       MODIFY_REG(hopamp3->Instance->CSR, OPAMP_CSR_TRIMOFFSETP, trimmingvaluep3<<OPAMP_INPUT_NONINV
 698              		.loc 1 614 7 is_stmt 0 view .LVU244
 699 034a 0791     		str	r1, [sp, #28]
 615:Drivers/STM32F3xx_HAL_Driver/Src/stm32f3xx_hal_opamp_ex.c ****       MODIFY_REG(hopamp4->Instance->CSR, OPAMP_CSR_TRIMOFFSETP, trimmingvaluep4<<OPAMP_INPUT_NONINV
 700              		.loc 1 615 7 view .LVU245
 701 034c 6146     		mov	r1, ip
 702 034e C904     		lsls	r1, r1, #19
 703 0350 20F47800 		bic	r0, r0, #16252928
 704 0354 0843     		orrs	r0, r0, r1
 705 0356 1060     		str	r0, [r2]
 616:Drivers/STM32F3xx_HAL_Driver/Src/stm32f3xx_hal_opamp_ex.c **** 
 706              		.loc 1 616 7 is_stmt 1 view .LVU246
 707 0358 DEF80020 		ldr	r2, [lr]
 615:Drivers/STM32F3xx_HAL_Driver/Src/stm32f3xx_hal_opamp_ex.c ****       MODIFY_REG(hopamp4->Instance->CSR, OPAMP_CSR_TRIMOFFSETP, trimmingvaluep4<<OPAMP_INPUT_NONINV
 708              		.loc 1 615 7 is_stmt 0 view .LVU247
 709 035c 0991     		str	r1, [sp, #36]
 616:Drivers/STM32F3xx_HAL_Driver/Src/stm32f3xx_hal_opamp_ex.c **** 
 710              		.loc 1 616 7 view .LVU248
 711 035e 22F47802 		bic	r2, r2, #16252928
 712 0362 E104     		lsls	r1, r4, #19
 713 0364 0A43     		orrs	r2, r2, r1
 714 0366 CEF80020 		str	r2, [lr]
 621:Drivers/STM32F3xx_HAL_Driver/Src/stm32f3xx_hal_opamp_ex.c ****       
 715              		.loc 1 621 7 is_stmt 1 view .LVU249
 716 036a 0220     		movs	r0, #2
 616:Drivers/STM32F3xx_HAL_Driver/Src/stm32f3xx_hal_opamp_ex.c **** 
 717              		.loc 1 616 7 is_stmt 0 view .LVU250
 718 036c 0B91     		str	r1, [sp, #44]
 621:Drivers/STM32F3xx_HAL_Driver/Src/stm32f3xx_hal_opamp_ex.c ****       
 719              		.loc 1 621 7 view .LVU251
 720 036e FFF7FEFF 		bl	HAL_Delay
 721              	.LVL45:
 623:Drivers/STM32F3xx_HAL_Driver/Src/stm32f3xx_hal_opamp_ex.c ****       { 
 722              		.loc 1 623 7 is_stmt 1 view .LVU252
 623:Drivers/STM32F3xx_HAL_Driver/Src/stm32f3xx_hal_opamp_ex.c ****       { 
 723              		.loc 1 623 19 is_stmt 0 view .LVU253
 724 0372 029B     		ldr	r3, [sp, #8]
ARM GAS  /var/folders/8c/gyvcglfx7f97kbqb2h83mm_r0000gn/T//cc2L7hyi.s 			page 30


 725 0374 1E68     		ldr	r6, [r3]
 623:Drivers/STM32F3xx_HAL_Driver/Src/stm32f3xx_hal_opamp_ex.c ****       { 
 726              		.loc 1 623 29 view .LVU254
 727 0376 3368     		ldr	r3, [r6]
 623:Drivers/STM32F3xx_HAL_Driver/Src/stm32f3xx_hal_opamp_ex.c ****       { 
 728              		.loc 1 623 10 view .LVU255
 729 0378 5A00     		lsls	r2, r3, #1
 730 037a 09D5     		bpl	.L25
 626:Drivers/STM32F3xx_HAL_Driver/Src/stm32f3xx_hal_opamp_ex.c ****         /* Set right trimming */
 731              		.loc 1 626 9 is_stmt 1 view .LVU256
 628:Drivers/STM32F3xx_HAL_Driver/Src/stm32f3xx_hal_opamp_ex.c ****       }
 732              		.loc 1 628 9 is_stmt 0 view .LVU257
 733 037c 3368     		ldr	r3, [r6]
 626:Drivers/STM32F3xx_HAL_Driver/Src/stm32f3xx_hal_opamp_ex.c ****         /* Set right trimming */
 734              		.loc 1 626 24 view .LVU258
 735 037e 09F10109 		add	r9, r9, #1
 736              	.LVL46:
 628:Drivers/STM32F3xx_HAL_Driver/Src/stm32f3xx_hal_opamp_ex.c ****       }
 737              		.loc 1 628 9 is_stmt 1 view .LVU259
 738 0382 4FEAC942 		lsl	r2, r9, #19
 739 0386 23F47803 		bic	r3, r3, #16252928
 740 038a 1343     		orrs	r3, r3, r2
 741 038c 0692     		str	r2, [sp, #24]
 742 038e 3360     		str	r3, [r6]
 743              	.L25:
 631:Drivers/STM32F3xx_HAL_Driver/Src/stm32f3xx_hal_opamp_ex.c ****       { 
 744              		.loc 1 631 7 view .LVU260
 631:Drivers/STM32F3xx_HAL_Driver/Src/stm32f3xx_hal_opamp_ex.c ****       { 
 745              		.loc 1 631 19 is_stmt 0 view .LVU261
 746 0390 009B     		ldr	r3, [sp]
 747 0392 1868     		ldr	r0, [r3]
 631:Drivers/STM32F3xx_HAL_Driver/Src/stm32f3xx_hal_opamp_ex.c ****       { 
 748              		.loc 1 631 29 view .LVU262
 749 0394 0368     		ldr	r3, [r0]
 631:Drivers/STM32F3xx_HAL_Driver/Src/stm32f3xx_hal_opamp_ex.c ****       { 
 750              		.loc 1 631 10 view .LVU263
 751 0396 5B00     		lsls	r3, r3, #1
 752 0398 09D5     		bpl	.L26
 634:Drivers/STM32F3xx_HAL_Driver/Src/stm32f3xx_hal_opamp_ex.c ****         /* Set right trimming */
 753              		.loc 1 634 9 is_stmt 1 view .LVU264
 636:Drivers/STM32F3xx_HAL_Driver/Src/stm32f3xx_hal_opamp_ex.c ****       }
 754              		.loc 1 636 9 is_stmt 0 view .LVU265
 755 039a 0368     		ldr	r3, [r0]
 634:Drivers/STM32F3xx_HAL_Driver/Src/stm32f3xx_hal_opamp_ex.c ****         /* Set right trimming */
 756              		.loc 1 634 24 view .LVU266
 757 039c 08F10108 		add	r8, r8, #1
 758              	.LVL47:
 636:Drivers/STM32F3xx_HAL_Driver/Src/stm32f3xx_hal_opamp_ex.c ****       }
 759              		.loc 1 636 9 is_stmt 1 view .LVU267
 760 03a0 4FEAC842 		lsl	r2, r8, #19
 761 03a4 23F47803 		bic	r3, r3, #16252928
 762 03a8 1343     		orrs	r3, r3, r2
 763 03aa 0792     		str	r2, [sp, #28]
 764 03ac 0360     		str	r3, [r0]
 765              	.L26:
 639:Drivers/STM32F3xx_HAL_Driver/Src/stm32f3xx_hal_opamp_ex.c ****       { 
 766              		.loc 1 639 7 view .LVU268
ARM GAS  /var/folders/8c/gyvcglfx7f97kbqb2h83mm_r0000gn/T//cc2L7hyi.s 			page 31


 639:Drivers/STM32F3xx_HAL_Driver/Src/stm32f3xx_hal_opamp_ex.c ****       { 
 767              		.loc 1 639 19 is_stmt 0 view .LVU269
 768 03ae 039B     		ldr	r3, [sp, #12]
 769 03b0 1A68     		ldr	r2, [r3]
 639:Drivers/STM32F3xx_HAL_Driver/Src/stm32f3xx_hal_opamp_ex.c ****       { 
 770              		.loc 1 639 29 view .LVU270
 771 03b2 1368     		ldr	r3, [r2]
 639:Drivers/STM32F3xx_HAL_Driver/Src/stm32f3xx_hal_opamp_ex.c ****       { 
 772              		.loc 1 639 10 view .LVU271
 773 03b4 5F00     		lsls	r7, r3, #1
 774 03b6 09D5     		bpl	.L27
 642:Drivers/STM32F3xx_HAL_Driver/Src/stm32f3xx_hal_opamp_ex.c ****         /* Set right trimming */
 775              		.loc 1 642 9 is_stmt 1 view .LVU272
 642:Drivers/STM32F3xx_HAL_Driver/Src/stm32f3xx_hal_opamp_ex.c ****         /* Set right trimming */
 776              		.loc 1 642 24 is_stmt 0 view .LVU273
 777 03b8 0499     		ldr	r1, [sp, #16]
 644:Drivers/STM32F3xx_HAL_Driver/Src/stm32f3xx_hal_opamp_ex.c ****       }
 778              		.loc 1 644 9 view .LVU274
 779 03ba 1368     		ldr	r3, [r2]
 642:Drivers/STM32F3xx_HAL_Driver/Src/stm32f3xx_hal_opamp_ex.c ****         /* Set right trimming */
 780              		.loc 1 642 24 view .LVU275
 781 03bc 0131     		adds	r1, r1, #1
 782 03be 0491     		str	r1, [sp, #16]
 783              	.LVL48:
 644:Drivers/STM32F3xx_HAL_Driver/Src/stm32f3xx_hal_opamp_ex.c ****       }
 784              		.loc 1 644 9 is_stmt 1 view .LVU276
 785 03c0 23F47803 		bic	r3, r3, #16252928
 786 03c4 C904     		lsls	r1, r1, #19
 787              	.LVL49:
 644:Drivers/STM32F3xx_HAL_Driver/Src/stm32f3xx_hal_opamp_ex.c ****       }
 788              		.loc 1 644 9 is_stmt 0 view .LVU277
 789 03c6 0B43     		orrs	r3, r3, r1
 790 03c8 0991     		str	r1, [sp, #36]
 791 03ca 1360     		str	r3, [r2]
 792              	.L27:
 647:Drivers/STM32F3xx_HAL_Driver/Src/stm32f3xx_hal_opamp_ex.c ****       { 
 793              		.loc 1 647 7 is_stmt 1 view .LVU278
 647:Drivers/STM32F3xx_HAL_Driver/Src/stm32f3xx_hal_opamp_ex.c ****       { 
 794              		.loc 1 647 19 is_stmt 0 view .LVU279
 795 03cc 019B     		ldr	r3, [sp, #4]
 796 03ce 1B68     		ldr	r3, [r3]
 647:Drivers/STM32F3xx_HAL_Driver/Src/stm32f3xx_hal_opamp_ex.c ****       { 
 797              		.loc 1 647 29 view .LVU280
 798 03d0 1968     		ldr	r1, [r3]
 647:Drivers/STM32F3xx_HAL_Driver/Src/stm32f3xx_hal_opamp_ex.c ****       { 
 799              		.loc 1 647 10 view .LVU281
 800 03d2 4900     		lsls	r1, r1, #1
 801 03d4 0AD5     		bpl	.L28
 650:Drivers/STM32F3xx_HAL_Driver/Src/stm32f3xx_hal_opamp_ex.c ****         /* Set right trimming */
 802              		.loc 1 650 9 is_stmt 1 view .LVU282
 652:Drivers/STM32F3xx_HAL_Driver/Src/stm32f3xx_hal_opamp_ex.c ****       }
 803              		.loc 1 652 9 is_stmt 0 view .LVU283
 804 03d6 D3F800C0 		ldr	ip, [r3]
 650:Drivers/STM32F3xx_HAL_Driver/Src/stm32f3xx_hal_opamp_ex.c ****         /* Set right trimming */
 805              		.loc 1 650 24 view .LVU284
 806 03da 0134     		adds	r4, r4, #1
 807              	.LVL50:
ARM GAS  /var/folders/8c/gyvcglfx7f97kbqb2h83mm_r0000gn/T//cc2L7hyi.s 			page 32


 652:Drivers/STM32F3xx_HAL_Driver/Src/stm32f3xx_hal_opamp_ex.c ****       }
 808              		.loc 1 652 9 is_stmt 1 view .LVU285
 809 03dc E104     		lsls	r1, r4, #19
 810 03de 2CF4780C 		bic	ip, ip, #16252928
 811 03e2 4CEA010C 		orr	ip, ip, r1
 812 03e6 0B91     		str	r1, [sp, #44]
 813 03e8 C3F800C0 		str	ip, [r3]
 814              	.L28:
 656:Drivers/STM32F3xx_HAL_Driver/Src/stm32f3xx_hal_opamp_ex.c ****       CLEAR_BIT (hopamp2->Instance->CSR, OPAMP_CSR_CALON);
 815              		.loc 1 656 7 view .LVU286
 816 03ec D6F800C0 		ldr	ip, [r6]
 678:Drivers/STM32F3xx_HAL_Driver/Src/stm32f3xx_hal_opamp_ex.c ****       hopamp2->Init.TrimmingValueN = trimmingvaluen2;
 817              		.loc 1 678 36 is_stmt 0 view .LVU287
 818 03f0 029F     		ldr	r7, [sp, #8]
 819 03f2 0599     		ldr	r1, [sp, #20]
 656:Drivers/STM32F3xx_HAL_Driver/Src/stm32f3xx_hal_opamp_ex.c ****       CLEAR_BIT (hopamp2->Instance->CSR, OPAMP_CSR_CALON);
 820              		.loc 1 656 7 view .LVU288
 821 03f4 2CF4006C 		bic	ip, ip, #2048
 822 03f8 C6F800C0 		str	ip, [r6]
 657:Drivers/STM32F3xx_HAL_Driver/Src/stm32f3xx_hal_opamp_ex.c ****       CLEAR_BIT (hopamp3->Instance->CSR, OPAMP_CSR_CALON);
 823              		.loc 1 657 7 is_stmt 1 view .LVU289
 824 03fc D0F800C0 		ldr	ip, [r0]
 825 0400 2CF4006C 		bic	ip, ip, #2048
 826 0404 C0F800C0 		str	ip, [r0]
 658:Drivers/STM32F3xx_HAL_Driver/Src/stm32f3xx_hal_opamp_ex.c ****       CLEAR_BIT (hopamp4->Instance->CSR, OPAMP_CSR_CALON);
 827              		.loc 1 658 7 view .LVU290
 828 0408 D2F800C0 		ldr	ip, [r2]
 829 040c 2CF4006C 		bic	ip, ip, #2048
 830 0410 C2F800C0 		str	ip, [r2]
 659:Drivers/STM32F3xx_HAL_Driver/Src/stm32f3xx_hal_opamp_ex.c **** 
 831              		.loc 1 659 7 view .LVU291
 832 0414 D3F800C0 		ldr	ip, [r3]
 833 0418 2CF4006C 		bic	ip, ip, #2048
 834 041c C3F800C0 		str	ip, [r3]
 662:Drivers/STM32F3xx_HAL_Driver/Src/stm32f3xx_hal_opamp_ex.c ****       CLEAR_BIT (hopamp2->Instance->CSR, OPAMP_CSR_OPAMPxEN);
 835              		.loc 1 662 7 view .LVU292
 836 0420 D6F800C0 		ldr	ip, [r6]
 837 0424 2CF0010C 		bic	ip, ip, #1
 838 0428 C6F800C0 		str	ip, [r6]
 663:Drivers/STM32F3xx_HAL_Driver/Src/stm32f3xx_hal_opamp_ex.c ****       CLEAR_BIT (hopamp3->Instance->CSR, OPAMP_CSR_OPAMPxEN);
 839              		.loc 1 663 7 view .LVU293
 840 042c D0F800C0 		ldr	ip, [r0]
 841 0430 2CF0010C 		bic	ip, ip, #1
 842 0434 C0F800C0 		str	ip, [r0]
 664:Drivers/STM32F3xx_HAL_Driver/Src/stm32f3xx_hal_opamp_ex.c ****       CLEAR_BIT (hopamp4->Instance->CSR, OPAMP_CSR_OPAMPxEN);
 843              		.loc 1 664 7 view .LVU294
 844 0438 D2F800C0 		ldr	ip, [r2]
 845 043c 2CF0010C 		bic	ip, ip, #1
 846 0440 C2F800C0 		str	ip, [r2]
 665:Drivers/STM32F3xx_HAL_Driver/Src/stm32f3xx_hal_opamp_ex.c **** 
 847              		.loc 1 665 7 view .LVU295
 848 0444 D3F800C0 		ldr	ip, [r3]
 849 0448 2CF0010C 		bic	ip, ip, #1
 850 044c C3F800C0 		str	ip, [r3]
 668:Drivers/STM32F3xx_HAL_Driver/Src/stm32f3xx_hal_opamp_ex.c ****       CLEAR_BIT(hopamp2->Instance->CSR, OPAMP_CSR_FORCEVP);
 851              		.loc 1 668 7 view .LVU296
 852 0450 D6F800C0 		ldr	ip, [r6]
ARM GAS  /var/folders/8c/gyvcglfx7f97kbqb2h83mm_r0000gn/T//cc2L7hyi.s 			page 33


 853 0454 2CF0020C 		bic	ip, ip, #2
 854 0458 C6F800C0 		str	ip, [r6]
 669:Drivers/STM32F3xx_HAL_Driver/Src/stm32f3xx_hal_opamp_ex.c ****       CLEAR_BIT(hopamp3->Instance->CSR, OPAMP_CSR_FORCEVP);
 855              		.loc 1 669 7 view .LVU297
 856 045c D0F800C0 		ldr	ip, [r0]
 857 0460 2CF0020C 		bic	ip, ip, #2
 858 0464 C0F800C0 		str	ip, [r0]
 670:Drivers/STM32F3xx_HAL_Driver/Src/stm32f3xx_hal_opamp_ex.c ****       CLEAR_BIT(hopamp4->Instance->CSR, OPAMP_CSR_FORCEVP);
 859              		.loc 1 670 7 view .LVU298
 860 0468 D2F800C0 		ldr	ip, [r2]
 861 046c 2CF0020C 		bic	ip, ip, #2
 862 0470 C2F800C0 		str	ip, [r2]
 671:Drivers/STM32F3xx_HAL_Driver/Src/stm32f3xx_hal_opamp_ex.c ****       
 863              		.loc 1 671 7 view .LVU299
 864 0474 D3F800E0 		ldr	lr, [r3]
 865 0478 2EF0020E 		bic	lr, lr, #2
 866 047c C3F800E0 		str	lr, [r3]
 678:Drivers/STM32F3xx_HAL_Driver/Src/stm32f3xx_hal_opamp_ex.c ****       hopamp2->Init.TrimmingValueN = trimmingvaluen2;
 867              		.loc 1 678 7 view .LVU300
 678:Drivers/STM32F3xx_HAL_Driver/Src/stm32f3xx_hal_opamp_ex.c ****       hopamp2->Init.TrimmingValueN = trimmingvaluen2;
 868              		.loc 1 678 36 is_stmt 0 view .LVU301
 869 0480 F962     		str	r1, [r7, #44]
 679:Drivers/STM32F3xx_HAL_Driver/Src/stm32f3xx_hal_opamp_ex.c ****       hopamp3->Init.TrimmingValueN = trimmingvaluen3;
 870              		.loc 1 679 7 is_stmt 1 view .LVU302
 679:Drivers/STM32F3xx_HAL_Driver/Src/stm32f3xx_hal_opamp_ex.c ****       hopamp3->Init.TrimmingValueN = trimmingvaluen3;
 871              		.loc 1 679 36 is_stmt 0 view .LVU303
 872 0482 009F     		ldr	r7, [sp]
 680:Drivers/STM32F3xx_HAL_Driver/Src/stm32f3xx_hal_opamp_ex.c ****       hopamp4->Init.TrimmingValueN = trimmingvaluen4;
 873              		.loc 1 680 36 view .LVU304
 874 0484 0399     		ldr	r1, [sp, #12]
 679:Drivers/STM32F3xx_HAL_Driver/Src/stm32f3xx_hal_opamp_ex.c ****       hopamp3->Init.TrimmingValueN = trimmingvaluen3;
 875              		.loc 1 679 36 view .LVU305
 876 0486 C7F82CB0 		str	fp, [r7, #44]
 680:Drivers/STM32F3xx_HAL_Driver/Src/stm32f3xx_hal_opamp_ex.c ****       hopamp4->Init.TrimmingValueN = trimmingvaluen4;
 877              		.loc 1 680 7 is_stmt 1 view .LVU306
 680:Drivers/STM32F3xx_HAL_Driver/Src/stm32f3xx_hal_opamp_ex.c ****       hopamp4->Init.TrimmingValueN = trimmingvaluen4;
 878              		.loc 1 680 36 is_stmt 0 view .LVU307
 879 048a C1F82CA0 		str	r10, [r1, #44]
 681:Drivers/STM32F3xx_HAL_Driver/Src/stm32f3xx_hal_opamp_ex.c ****      
 880              		.loc 1 681 7 is_stmt 1 view .LVU308
 681:Drivers/STM32F3xx_HAL_Driver/Src/stm32f3xx_hal_opamp_ex.c ****      
 881              		.loc 1 681 36 is_stmt 0 view .LVU309
 882 048e 0199     		ldr	r1, [sp, #4]
 883 0490 CD62     		str	r5, [r1, #44]
 684:Drivers/STM32F3xx_HAL_Driver/Src/stm32f3xx_hal_opamp_ex.c ****       hopamp2->Init.TrimmingValueP = trimmingvaluep2;
 884              		.loc 1 684 7 is_stmt 1 view .LVU310
 684:Drivers/STM32F3xx_HAL_Driver/Src/stm32f3xx_hal_opamp_ex.c ****       hopamp2->Init.TrimmingValueP = trimmingvaluep2;
 885              		.loc 1 684 36 is_stmt 0 view .LVU311
 886 0492 0299     		ldr	r1, [sp, #8]
 887 0494 C1F82890 		str	r9, [r1, #40]
 685:Drivers/STM32F3xx_HAL_Driver/Src/stm32f3xx_hal_opamp_ex.c ****       hopamp3->Init.TrimmingValueP = trimmingvaluep3;
 888              		.loc 1 685 7 is_stmt 1 view .LVU312
 685:Drivers/STM32F3xx_HAL_Driver/Src/stm32f3xx_hal_opamp_ex.c ****       hopamp3->Init.TrimmingValueP = trimmingvaluep3;
 889              		.loc 1 685 36 is_stmt 0 view .LVU313
 890 0498 C7F82880 		str	r8, [r7, #40]
 686:Drivers/STM32F3xx_HAL_Driver/Src/stm32f3xx_hal_opamp_ex.c ****       hopamp4->Init.TrimmingValueP = trimmingvaluep4;
 891              		.loc 1 686 7 is_stmt 1 view .LVU314
ARM GAS  /var/folders/8c/gyvcglfx7f97kbqb2h83mm_r0000gn/T//cc2L7hyi.s 			page 34


 686:Drivers/STM32F3xx_HAL_Driver/Src/stm32f3xx_hal_opamp_ex.c ****       hopamp4->Init.TrimmingValueP = trimmingvaluep4;
 892              		.loc 1 686 36 is_stmt 0 view .LVU315
 893 049c DDE90375 		ldrd	r7, r5, [sp, #12]
 894              	.LVL51:
 686:Drivers/STM32F3xx_HAL_Driver/Src/stm32f3xx_hal_opamp_ex.c ****       hopamp4->Init.TrimmingValueP = trimmingvaluep4;
 895              		.loc 1 686 36 view .LVU316
 896 04a0 BD62     		str	r5, [r7, #40]
 687:Drivers/STM32F3xx_HAL_Driver/Src/stm32f3xx_hal_opamp_ex.c ****             
 897              		.loc 1 687 7 is_stmt 1 view .LVU317
 687:Drivers/STM32F3xx_HAL_Driver/Src/stm32f3xx_hal_opamp_ex.c ****             
 898              		.loc 1 687 36 is_stmt 0 view .LVU318
 899 04a2 019D     		ldr	r5, [sp, #4]
 691:Drivers/STM32F3xx_HAL_Driver/Src/stm32f3xx_hal_opamp_ex.c ****       hopamp2->Init.UserTrimming = OPAMP_TRIMMING_USER;
 900              		.loc 1 691 34 view .LVU319
 901 04a4 4FF4802C 		mov	ip, #262144
 687:Drivers/STM32F3xx_HAL_Driver/Src/stm32f3xx_hal_opamp_ex.c ****             
 902              		.loc 1 687 36 view .LVU320
 903 04a8 AC62     		str	r4, [r5, #40]
 691:Drivers/STM32F3xx_HAL_Driver/Src/stm32f3xx_hal_opamp_ex.c ****       hopamp2->Init.UserTrimming = OPAMP_TRIMMING_USER;
 904              		.loc 1 691 7 is_stmt 1 view .LVU321
 691:Drivers/STM32F3xx_HAL_Driver/Src/stm32f3xx_hal_opamp_ex.c ****       hopamp2->Init.UserTrimming = OPAMP_TRIMMING_USER;
 905              		.loc 1 691 34 is_stmt 0 view .LVU322
 906 04aa C1F824C0 		str	ip, [r1, #36]
 692:Drivers/STM32F3xx_HAL_Driver/Src/stm32f3xx_hal_opamp_ex.c ****       hopamp3->Init.UserTrimming = OPAMP_TRIMMING_USER;
 907              		.loc 1 692 7 is_stmt 1 view .LVU323
 692:Drivers/STM32F3xx_HAL_Driver/Src/stm32f3xx_hal_opamp_ex.c ****       hopamp3->Init.UserTrimming = OPAMP_TRIMMING_USER;
 908              		.loc 1 692 34 is_stmt 0 view .LVU324
 909 04ae 009D     		ldr	r5, [sp]
 696:Drivers/STM32F3xx_HAL_Driver/Src/stm32f3xx_hal_opamp_ex.c ****       MODIFY_REG(hopamp2->Instance->CSR, OPAMP_CSR_TRIMOFFSETN, trimmingvaluen2<<OPAMP_INPUT_INVERT
 910              		.loc 1 696 7 view .LVU325
 911 04b0 3168     		ldr	r1, [r6]
 912 04b2 089C     		ldr	r4, [sp, #32]
 913              	.LVL52:
 692:Drivers/STM32F3xx_HAL_Driver/Src/stm32f3xx_hal_opamp_ex.c ****       hopamp3->Init.UserTrimming = OPAMP_TRIMMING_USER;
 914              		.loc 1 692 34 view .LVU326
 915 04b4 C5F824C0 		str	ip, [r5, #36]
 693:Drivers/STM32F3xx_HAL_Driver/Src/stm32f3xx_hal_opamp_ex.c ****       hopamp4->Init.UserTrimming = OPAMP_TRIMMING_USER;
 916              		.loc 1 693 7 is_stmt 1 view .LVU327
 696:Drivers/STM32F3xx_HAL_Driver/Src/stm32f3xx_hal_opamp_ex.c ****       MODIFY_REG(hopamp2->Instance->CSR, OPAMP_CSR_TRIMOFFSETN, trimmingvaluen2<<OPAMP_INPUT_INVERT
 917              		.loc 1 696 7 is_stmt 0 view .LVU328
 918 04b8 21F0F851 		bic	r1, r1, #520093696
 694:Drivers/STM32F3xx_HAL_Driver/Src/stm32f3xx_hal_opamp_ex.c ****            
 919              		.loc 1 694 34 view .LVU329
 920 04bc 019D     		ldr	r5, [sp, #4]
 693:Drivers/STM32F3xx_HAL_Driver/Src/stm32f3xx_hal_opamp_ex.c ****       hopamp4->Init.UserTrimming = OPAMP_TRIMMING_USER;
 921              		.loc 1 693 34 view .LVU330
 922 04be C7F824C0 		str	ip, [r7, #36]
 694:Drivers/STM32F3xx_HAL_Driver/Src/stm32f3xx_hal_opamp_ex.c ****            
 923              		.loc 1 694 7 is_stmt 1 view .LVU331
 696:Drivers/STM32F3xx_HAL_Driver/Src/stm32f3xx_hal_opamp_ex.c ****       MODIFY_REG(hopamp2->Instance->CSR, OPAMP_CSR_TRIMOFFSETN, trimmingvaluen2<<OPAMP_INPUT_INVERT
 924              		.loc 1 696 7 is_stmt 0 view .LVU332
 925 04c2 2143     		orrs	r1, r1, r4
 694:Drivers/STM32F3xx_HAL_Driver/Src/stm32f3xx_hal_opamp_ex.c ****            
 926              		.loc 1 694 34 view .LVU333
 927 04c4 C5F824C0 		str	ip, [r5, #36]
 696:Drivers/STM32F3xx_HAL_Driver/Src/stm32f3xx_hal_opamp_ex.c ****       MODIFY_REG(hopamp2->Instance->CSR, OPAMP_CSR_TRIMOFFSETN, trimmingvaluen2<<OPAMP_INPUT_INVERT
 928              		.loc 1 696 7 is_stmt 1 view .LVU334
ARM GAS  /var/folders/8c/gyvcglfx7f97kbqb2h83mm_r0000gn/T//cc2L7hyi.s 			page 35


 929 04c8 3160     		str	r1, [r6]
 697:Drivers/STM32F3xx_HAL_Driver/Src/stm32f3xx_hal_opamp_ex.c ****       MODIFY_REG(hopamp3->Instance->CSR, OPAMP_CSR_TRIMOFFSETN, trimmingvaluen3<<OPAMP_INPUT_INVERT
 930              		.loc 1 697 7 view .LVU335
 931 04ca 0168     		ldr	r1, [r0]
 932 04cc 0A9C     		ldr	r4, [sp, #40]
 933 04ce 21F0F851 		bic	r1, r1, #520093696
 934 04d2 2143     		orrs	r1, r1, r4
 935 04d4 0160     		str	r1, [r0]
 698:Drivers/STM32F3xx_HAL_Driver/Src/stm32f3xx_hal_opamp_ex.c ****       MODIFY_REG(hopamp4->Instance->CSR, OPAMP_CSR_TRIMOFFSETN, trimmingvaluen4<<OPAMP_INPUT_INVERT
 936              		.loc 1 698 7 view .LVU336
 937 04d6 1168     		ldr	r1, [r2]
 938 04d8 0C9C     		ldr	r4, [sp, #48]
 939 04da 21F0F851 		bic	r1, r1, #520093696
 940 04de 2143     		orrs	r1, r1, r4
 941 04e0 1160     		str	r1, [r2]
 699:Drivers/STM32F3xx_HAL_Driver/Src/stm32f3xx_hal_opamp_ex.c ****      
 942              		.loc 1 699 7 view .LVU337
 943 04e2 1968     		ldr	r1, [r3]
 944 04e4 0D9C     		ldr	r4, [sp, #52]
 945 04e6 21F0F851 		bic	r1, r1, #520093696
 946 04ea 2143     		orrs	r1, r1, r4
 947 04ec 1960     		str	r1, [r3]
 701:Drivers/STM32F3xx_HAL_Driver/Src/stm32f3xx_hal_opamp_ex.c ****       MODIFY_REG(hopamp2->Instance->CSR, OPAMP_CSR_TRIMOFFSETP, trimmingvaluep2<<OPAMP_INPUT_NONINV
 948              		.loc 1 701 7 view .LVU338
 949 04ee 3168     		ldr	r1, [r6]
 950 04f0 069C     		ldr	r4, [sp, #24]
 951 04f2 21F47801 		bic	r1, r1, #16252928
 952 04f6 2143     		orrs	r1, r1, r4
 953 04f8 3160     		str	r1, [r6]
 702:Drivers/STM32F3xx_HAL_Driver/Src/stm32f3xx_hal_opamp_ex.c ****       MODIFY_REG(hopamp3->Instance->CSR, OPAMP_CSR_TRIMOFFSETP, trimmingvaluep3<<OPAMP_INPUT_NONINV
 954              		.loc 1 702 7 view .LVU339
 955 04fa 0168     		ldr	r1, [r0]
 956 04fc 079C     		ldr	r4, [sp, #28]
 957 04fe 21F47801 		bic	r1, r1, #16252928
 958 0502 2143     		orrs	r1, r1, r4
 959 0504 0160     		str	r1, [r0]
 703:Drivers/STM32F3xx_HAL_Driver/Src/stm32f3xx_hal_opamp_ex.c ****       MODIFY_REG(hopamp4->Instance->CSR, OPAMP_CSR_TRIMOFFSETP, trimmingvaluep4<<OPAMP_INPUT_NONINV
 960              		.loc 1 703 7 view .LVU340
 961 0506 1168     		ldr	r1, [r2]
 962 0508 0998     		ldr	r0, [sp, #36]
 963 050a 21F47801 		bic	r1, r1, #16252928
 964 050e 0143     		orrs	r1, r1, r0
 965 0510 1160     		str	r1, [r2]
 704:Drivers/STM32F3xx_HAL_Driver/Src/stm32f3xx_hal_opamp_ex.c ****     
 966              		.loc 1 704 7 view .LVU341
 967 0512 1A68     		ldr	r2, [r3]
 968 0514 0B99     		ldr	r1, [sp, #44]
 969 0516 22F47802 		bic	r2, r2, #16252928
 970 051a 0A43     		orrs	r2, r2, r1
 971 051c 1A60     		str	r2, [r3]
 361:Drivers/STM32F3xx_HAL_Driver/Src/stm32f3xx_hal_opamp_ex.c ****   
 972              		.loc 1 361 21 is_stmt 0 view .LVU342
 973 051e 0020     		movs	r0, #0
 704:Drivers/STM32F3xx_HAL_Driver/Src/stm32f3xx_hal_opamp_ex.c ****     
 974              		.loc 1 704 7 view .LVU343
 975 0520 99E5     		b	.L2
 976              		.cfi_endproc
ARM GAS  /var/folders/8c/gyvcglfx7f97kbqb2h83mm_r0000gn/T//cc2L7hyi.s 			page 36


 977              	.LFE126:
 979 0522 00BF     		.text
 980              	.Letext0:
 981              		.file 2 "/usr/local/gcc-arm-none-eabi-8-2018-q4-major/arm-none-eabi/include/machine/_default_types
 982              		.file 3 "/usr/local/gcc-arm-none-eabi-8-2018-q4-major/arm-none-eabi/include/sys/_stdint.h"
 983              		.file 4 "/usr/local/gcc-arm-none-eabi-8-2018-q4-major/arm-none-eabi/include/sys/lock.h"
 984              		.file 5 "/usr/local/gcc-arm-none-eabi-8-2018-q4-major/arm-none-eabi/include/sys/_types.h"
 985              		.file 6 "/usr/local/gcc-arm-none-eabi-8-2018-q4-major/lib/gcc/arm-none-eabi/8.2.1/include/stddef.h
 986              		.file 7 "/usr/local/gcc-arm-none-eabi-8-2018-q4-major/arm-none-eabi/include/sys/reent.h"
 987              		.file 8 "/usr/local/gcc-arm-none-eabi-8-2018-q4-major/arm-none-eabi/include/stdlib.h"
 988              		.file 9 "Drivers/CMSIS/Include/core_cm4.h"
 989              		.file 10 "Drivers/CMSIS/Device/ST/STM32F3xx/Include/system_stm32f3xx.h"
 990              		.file 11 "Drivers/CMSIS/Device/ST/STM32F3xx/Include/stm32f303xe.h"
 991              		.file 12 "Drivers/CMSIS/Device/ST/STM32F3xx/Include/stm32f3xx.h"
 992              		.file 13 "Drivers/STM32F3xx_HAL_Driver/Inc/stm32f3xx_hal_def.h"
 993              		.file 14 "Drivers/STM32F3xx_HAL_Driver/Inc/stm32f3xx_hal_opamp.h"
 994              		.file 15 "Drivers/STM32F3xx_HAL_Driver/Inc/stm32f3xx_hal.h"
ARM GAS  /var/folders/8c/gyvcglfx7f97kbqb2h83mm_r0000gn/T//cc2L7hyi.s 			page 37

