ARM GAS  /var/folders/8c/gyvcglfx7f97kbqb2h83mm_r0000gn/T//ccv1qdBn.s 			page 1


   1              		.cpu cortex-m4
   2              		.eabi_attribute 27, 1
   3              		.eabi_attribute 28, 1
   4              		.eabi_attribute 20, 1
   5              		.eabi_attribute 21, 1
   6              		.eabi_attribute 23, 3
   7              		.eabi_attribute 24, 1
   8              		.eabi_attribute 25, 1
   9              		.eabi_attribute 26, 1
  10              		.eabi_attribute 30, 2
  11              		.eabi_attribute 34, 1
  12              		.eabi_attribute 18, 4
  13              		.file	"stm32f3xx_hal_uart.c"
  14              		.text
  15              	.Ltext0:
  16              		.cfi_sections	.debug_frame
  17              		.section	.text.HAL_UART_MspInit,"ax",%progbits
  18              		.align	1
  19              		.p2align 2,,3
  20              		.weak	HAL_UART_MspInit
  21              		.arch armv7e-m
  22              		.syntax unified
  23              		.thumb
  24              		.thumb_func
  25              		.fpu fpv4-sp-d16
  27              	HAL_UART_MspInit:
  28              	.LVL0:
  29              	.LFB131:
  30              		.file 1 "Drivers/STM32F3xx_HAL_Driver/Src/stm32f3xx_hal_uart.c"
   1:Drivers/STM32F3xx_HAL_Driver/Src/stm32f3xx_hal_uart.c **** /**
   2:Drivers/STM32F3xx_HAL_Driver/Src/stm32f3xx_hal_uart.c ****   ******************************************************************************
   3:Drivers/STM32F3xx_HAL_Driver/Src/stm32f3xx_hal_uart.c ****   * @file    stm32f3xx_hal_uart.c
   4:Drivers/STM32F3xx_HAL_Driver/Src/stm32f3xx_hal_uart.c ****   * @author  MCD Application Team
   5:Drivers/STM32F3xx_HAL_Driver/Src/stm32f3xx_hal_uart.c ****   * @brief   UART HAL module driver.
   6:Drivers/STM32F3xx_HAL_Driver/Src/stm32f3xx_hal_uart.c ****   *          This file provides firmware functions to manage the following 
   7:Drivers/STM32F3xx_HAL_Driver/Src/stm32f3xx_hal_uart.c ****   *          functionalities of the Universal Asynchronous Receiver Transmitter (UART) peripheral:
   8:Drivers/STM32F3xx_HAL_Driver/Src/stm32f3xx_hal_uart.c ****   *           + Initialization and de-initialization functions
   9:Drivers/STM32F3xx_HAL_Driver/Src/stm32f3xx_hal_uart.c ****   *           + IO operation functions
  10:Drivers/STM32F3xx_HAL_Driver/Src/stm32f3xx_hal_uart.c ****   *           + Peripheral Control functions
  11:Drivers/STM32F3xx_HAL_Driver/Src/stm32f3xx_hal_uart.c ****   *           + Peripheral State and Errors functions
  12:Drivers/STM32F3xx_HAL_Driver/Src/stm32f3xx_hal_uart.c ****   *
  13:Drivers/STM32F3xx_HAL_Driver/Src/stm32f3xx_hal_uart.c ****   @verbatim
  14:Drivers/STM32F3xx_HAL_Driver/Src/stm32f3xx_hal_uart.c ****  ===============================================================================
  15:Drivers/STM32F3xx_HAL_Driver/Src/stm32f3xx_hal_uart.c ****                         ##### How to use this driver #####
  16:Drivers/STM32F3xx_HAL_Driver/Src/stm32f3xx_hal_uart.c ****  ===============================================================================
  17:Drivers/STM32F3xx_HAL_Driver/Src/stm32f3xx_hal_uart.c ****   [..]
  18:Drivers/STM32F3xx_HAL_Driver/Src/stm32f3xx_hal_uart.c ****     The UART HAL driver can be used as follows:
  19:Drivers/STM32F3xx_HAL_Driver/Src/stm32f3xx_hal_uart.c **** 
  20:Drivers/STM32F3xx_HAL_Driver/Src/stm32f3xx_hal_uart.c ****     (#) Declare a UART_HandleTypeDef handle structure (eg. UART_HandleTypeDef huart).
  21:Drivers/STM32F3xx_HAL_Driver/Src/stm32f3xx_hal_uart.c ****     (#) Initialize the UART low level resources by implementing the HAL_UART_MspInit() API:
  22:Drivers/STM32F3xx_HAL_Driver/Src/stm32f3xx_hal_uart.c ****         (++) Enable the USARTx interface clock.
  23:Drivers/STM32F3xx_HAL_Driver/Src/stm32f3xx_hal_uart.c ****         (++) UART pins configuration:
  24:Drivers/STM32F3xx_HAL_Driver/Src/stm32f3xx_hal_uart.c ****             (+++) Enable the clock for the UART GPIOs.
  25:Drivers/STM32F3xx_HAL_Driver/Src/stm32f3xx_hal_uart.c ****             (+++) Configure these UART pins as alternate function pull-up.
  26:Drivers/STM32F3xx_HAL_Driver/Src/stm32f3xx_hal_uart.c ****         (++) NVIC configuration if you need to use interrupt process (HAL_UART_Transmit_IT()
  27:Drivers/STM32F3xx_HAL_Driver/Src/stm32f3xx_hal_uart.c ****              and HAL_UART_Receive_IT() APIs):
  28:Drivers/STM32F3xx_HAL_Driver/Src/stm32f3xx_hal_uart.c ****             (+++) Configure the USARTx interrupt priority.
ARM GAS  /var/folders/8c/gyvcglfx7f97kbqb2h83mm_r0000gn/T//ccv1qdBn.s 			page 2


  29:Drivers/STM32F3xx_HAL_Driver/Src/stm32f3xx_hal_uart.c ****             (+++) Enable the NVIC USART IRQ handle.
  30:Drivers/STM32F3xx_HAL_Driver/Src/stm32f3xx_hal_uart.c ****         (++) UART interrupts handling:
  31:Drivers/STM32F3xx_HAL_Driver/Src/stm32f3xx_hal_uart.c ****               -@@-  The specific UART interrupts (Transmission complete interrupt,
  32:Drivers/STM32F3xx_HAL_Driver/Src/stm32f3xx_hal_uart.c ****                 RXNE interrupt and Error Interrupts) are managed using the macros
  33:Drivers/STM32F3xx_HAL_Driver/Src/stm32f3xx_hal_uart.c ****                 __HAL_UART_ENABLE_IT() and __HAL_UART_DISABLE_IT() inside the transmit and receive 
  34:Drivers/STM32F3xx_HAL_Driver/Src/stm32f3xx_hal_uart.c ****         (++) DMA Configuration if you need to use DMA process (HAL_UART_Transmit_DMA()
  35:Drivers/STM32F3xx_HAL_Driver/Src/stm32f3xx_hal_uart.c ****              and HAL_UART_Receive_DMA() APIs):
  36:Drivers/STM32F3xx_HAL_Driver/Src/stm32f3xx_hal_uart.c ****             (+++) Declare a DMA handle structure for the Tx/Rx channel.
  37:Drivers/STM32F3xx_HAL_Driver/Src/stm32f3xx_hal_uart.c ****             (+++) Enable the DMAx interface clock.
  38:Drivers/STM32F3xx_HAL_Driver/Src/stm32f3xx_hal_uart.c ****             (+++) Configure the declared DMA handle structure with the required Tx/Rx parameters.
  39:Drivers/STM32F3xx_HAL_Driver/Src/stm32f3xx_hal_uart.c ****             (+++) Configure the DMA Tx/Rx channel.
  40:Drivers/STM32F3xx_HAL_Driver/Src/stm32f3xx_hal_uart.c ****             (+++) Associate the initialized DMA handle to the UART DMA Tx/Rx handle.
  41:Drivers/STM32F3xx_HAL_Driver/Src/stm32f3xx_hal_uart.c ****             (+++) Configure the priority and enable the NVIC for the transfer complete interrupt on
  42:Drivers/STM32F3xx_HAL_Driver/Src/stm32f3xx_hal_uart.c **** 
  43:Drivers/STM32F3xx_HAL_Driver/Src/stm32f3xx_hal_uart.c ****     (#) Program the Baud Rate, Word Length, Stop Bit, Parity, Hardware
  44:Drivers/STM32F3xx_HAL_Driver/Src/stm32f3xx_hal_uart.c ****         flow control and Mode (Receiver/Transmitter) in the huart handle Init structure.
  45:Drivers/STM32F3xx_HAL_Driver/Src/stm32f3xx_hal_uart.c **** 
  46:Drivers/STM32F3xx_HAL_Driver/Src/stm32f3xx_hal_uart.c ****     (#) If required, program UART advanced features (TX/RX pins swap, auto Baud rate detection,...)
  47:Drivers/STM32F3xx_HAL_Driver/Src/stm32f3xx_hal_uart.c ****         in the huart handle AdvancedInit structure.
  48:Drivers/STM32F3xx_HAL_Driver/Src/stm32f3xx_hal_uart.c **** 
  49:Drivers/STM32F3xx_HAL_Driver/Src/stm32f3xx_hal_uart.c ****     (#) For the UART asynchronous mode, initialize the UART registers by calling
  50:Drivers/STM32F3xx_HAL_Driver/Src/stm32f3xx_hal_uart.c ****         the HAL_UART_Init() API.
  51:Drivers/STM32F3xx_HAL_Driver/Src/stm32f3xx_hal_uart.c **** 
  52:Drivers/STM32F3xx_HAL_Driver/Src/stm32f3xx_hal_uart.c ****     (#) For the UART Half duplex mode, initialize the UART registers by calling
  53:Drivers/STM32F3xx_HAL_Driver/Src/stm32f3xx_hal_uart.c ****         the HAL_HalfDuplex_Init() API.
  54:Drivers/STM32F3xx_HAL_Driver/Src/stm32f3xx_hal_uart.c **** 
  55:Drivers/STM32F3xx_HAL_Driver/Src/stm32f3xx_hal_uart.c ****     (#) For the UART LIN (Local Interconnection Network) mode, initialize the UART registers
  56:Drivers/STM32F3xx_HAL_Driver/Src/stm32f3xx_hal_uart.c ****         by calling the HAL_LIN_Init() API.
  57:Drivers/STM32F3xx_HAL_Driver/Src/stm32f3xx_hal_uart.c **** 
  58:Drivers/STM32F3xx_HAL_Driver/Src/stm32f3xx_hal_uart.c ****     (#) For the UART Multiprocessor mode, initialize the UART registers
  59:Drivers/STM32F3xx_HAL_Driver/Src/stm32f3xx_hal_uart.c ****         by calling the HAL_MultiProcessor_Init() API.
  60:Drivers/STM32F3xx_HAL_Driver/Src/stm32f3xx_hal_uart.c **** 
  61:Drivers/STM32F3xx_HAL_Driver/Src/stm32f3xx_hal_uart.c ****     (#) For the UART RS485 Driver Enabled mode, initialize the UART registers
  62:Drivers/STM32F3xx_HAL_Driver/Src/stm32f3xx_hal_uart.c ****         by calling the HAL_RS485Ex_Init() API.
  63:Drivers/STM32F3xx_HAL_Driver/Src/stm32f3xx_hal_uart.c **** 
  64:Drivers/STM32F3xx_HAL_Driver/Src/stm32f3xx_hal_uart.c ****    [..]
  65:Drivers/STM32F3xx_HAL_Driver/Src/stm32f3xx_hal_uart.c ****     (@) These APIs (HAL_UART_Init(), HAL_HalfDuplex_Init(), HAL_MultiProcessor_Init(),
  66:Drivers/STM32F3xx_HAL_Driver/Src/stm32f3xx_hal_uart.c ****         also configure the low level Hardware (GPIO, CLOCK, CORTEX...etc) by
  67:Drivers/STM32F3xx_HAL_Driver/Src/stm32f3xx_hal_uart.c ****         calling the customized HAL_UART_MspInit() API.
  68:Drivers/STM32F3xx_HAL_Driver/Src/stm32f3xx_hal_uart.c **** 
  69:Drivers/STM32F3xx_HAL_Driver/Src/stm32f3xx_hal_uart.c ****    [..]
  70:Drivers/STM32F3xx_HAL_Driver/Src/stm32f3xx_hal_uart.c ****    [..] Three operation modes are available within this driver :
  71:Drivers/STM32F3xx_HAL_Driver/Src/stm32f3xx_hal_uart.c ****   
  72:Drivers/STM32F3xx_HAL_Driver/Src/stm32f3xx_hal_uart.c ****      *** Polling mode IO operation ***
  73:Drivers/STM32F3xx_HAL_Driver/Src/stm32f3xx_hal_uart.c ****      =================================
  74:Drivers/STM32F3xx_HAL_Driver/Src/stm32f3xx_hal_uart.c ****      [..]
  75:Drivers/STM32F3xx_HAL_Driver/Src/stm32f3xx_hal_uart.c ****        (+) Send an amount of data in blocking mode using HAL_UART_Transmit()
  76:Drivers/STM32F3xx_HAL_Driver/Src/stm32f3xx_hal_uart.c ****        (+) Receive an amount of data in blocking mode using HAL_UART_Receive()
  77:Drivers/STM32F3xx_HAL_Driver/Src/stm32f3xx_hal_uart.c **** 
  78:Drivers/STM32F3xx_HAL_Driver/Src/stm32f3xx_hal_uart.c ****      *** Interrupt mode IO operation ***
  79:Drivers/STM32F3xx_HAL_Driver/Src/stm32f3xx_hal_uart.c ****      ===================================
  80:Drivers/STM32F3xx_HAL_Driver/Src/stm32f3xx_hal_uart.c ****      [..]
  81:Drivers/STM32F3xx_HAL_Driver/Src/stm32f3xx_hal_uart.c ****        (+) Send an amount of data in non blocking mode using HAL_UART_Transmit_IT()
  82:Drivers/STM32F3xx_HAL_Driver/Src/stm32f3xx_hal_uart.c ****        (+) At transmission end of half transfer HAL_UART_TxHalfCpltCallback is executed and user ca
  83:Drivers/STM32F3xx_HAL_Driver/Src/stm32f3xx_hal_uart.c ****             add his own code by customization of function pointer HAL_UART_TxHalfCpltCallback
  84:Drivers/STM32F3xx_HAL_Driver/Src/stm32f3xx_hal_uart.c ****        (+) At transmission end of transfer HAL_UART_TxCpltCallback is executed and user can
  85:Drivers/STM32F3xx_HAL_Driver/Src/stm32f3xx_hal_uart.c ****             add his own code by customization of function pointer HAL_UART_TxCpltCallback
ARM GAS  /var/folders/8c/gyvcglfx7f97kbqb2h83mm_r0000gn/T//ccv1qdBn.s 			page 3


  86:Drivers/STM32F3xx_HAL_Driver/Src/stm32f3xx_hal_uart.c ****        (+) Receive an amount of data in non blocking mode using HAL_UART_Receive_IT()
  87:Drivers/STM32F3xx_HAL_Driver/Src/stm32f3xx_hal_uart.c ****        (+) At reception end of half transfer HAL_UART_RxHalfCpltCallback is executed and user can
  88:Drivers/STM32F3xx_HAL_Driver/Src/stm32f3xx_hal_uart.c ****             add his own code by customization of function pointer HAL_UART_RxHalfCpltCallback
  89:Drivers/STM32F3xx_HAL_Driver/Src/stm32f3xx_hal_uart.c ****        (+) At reception end of transfer HAL_UART_RxCpltCallback is executed and user can
  90:Drivers/STM32F3xx_HAL_Driver/Src/stm32f3xx_hal_uart.c ****             add his own code by customization of function pointer HAL_UART_RxCpltCallback
  91:Drivers/STM32F3xx_HAL_Driver/Src/stm32f3xx_hal_uart.c ****        (+) In case of transfer Error, HAL_UART_ErrorCallback() function is executed and user can
  92:Drivers/STM32F3xx_HAL_Driver/Src/stm32f3xx_hal_uart.c ****             add his own code by customization of function pointer HAL_UART_ErrorCallback
  93:Drivers/STM32F3xx_HAL_Driver/Src/stm32f3xx_hal_uart.c **** 
  94:Drivers/STM32F3xx_HAL_Driver/Src/stm32f3xx_hal_uart.c ****      *** DMA mode IO operation ***
  95:Drivers/STM32F3xx_HAL_Driver/Src/stm32f3xx_hal_uart.c ****      ==============================
  96:Drivers/STM32F3xx_HAL_Driver/Src/stm32f3xx_hal_uart.c ****      [..]
  97:Drivers/STM32F3xx_HAL_Driver/Src/stm32f3xx_hal_uart.c ****        (+) Send an amount of data in non blocking mode (DMA) using HAL_UART_Transmit_DMA()
  98:Drivers/STM32F3xx_HAL_Driver/Src/stm32f3xx_hal_uart.c ****        (+) At transmission end of half transfer HAL_UART_TxHalfCpltCallback is executed and user ca
  99:Drivers/STM32F3xx_HAL_Driver/Src/stm32f3xx_hal_uart.c ****             add his own code by customization of function pointer HAL_UART_TxHalfCpltCallback
 100:Drivers/STM32F3xx_HAL_Driver/Src/stm32f3xx_hal_uart.c ****        (+) At transmission end of transfer HAL_UART_TxCpltCallback is executed and user can
 101:Drivers/STM32F3xx_HAL_Driver/Src/stm32f3xx_hal_uart.c ****             add his own code by customization of function pointer HAL_UART_TxCpltCallback
 102:Drivers/STM32F3xx_HAL_Driver/Src/stm32f3xx_hal_uart.c ****        (+) Receive an amount of data in non blocking mode (DMA) using HAL_UART_Receive_DMA()
 103:Drivers/STM32F3xx_HAL_Driver/Src/stm32f3xx_hal_uart.c ****        (+) At reception end of half transfer HAL_UART_RxHalfCpltCallback is executed and user can
 104:Drivers/STM32F3xx_HAL_Driver/Src/stm32f3xx_hal_uart.c ****             add his own code by customization of function pointer HAL_UART_RxHalfCpltCallback
 105:Drivers/STM32F3xx_HAL_Driver/Src/stm32f3xx_hal_uart.c ****        (+) At reception end of transfer HAL_UART_RxCpltCallback is executed and user can
 106:Drivers/STM32F3xx_HAL_Driver/Src/stm32f3xx_hal_uart.c ****             add his own code by customization of function pointer HAL_UART_RxCpltCallback
 107:Drivers/STM32F3xx_HAL_Driver/Src/stm32f3xx_hal_uart.c ****        (+) In case of transfer Error, HAL_UART_ErrorCallback() function is executed and user can
 108:Drivers/STM32F3xx_HAL_Driver/Src/stm32f3xx_hal_uart.c ****             add his own code by customization of function pointer HAL_UART_ErrorCallback
 109:Drivers/STM32F3xx_HAL_Driver/Src/stm32f3xx_hal_uart.c ****        (+) Pause the DMA Transfer using HAL_UART_DMAPause()
 110:Drivers/STM32F3xx_HAL_Driver/Src/stm32f3xx_hal_uart.c ****        (+) Resume the DMA Transfer using HAL_UART_DMAResume()
 111:Drivers/STM32F3xx_HAL_Driver/Src/stm32f3xx_hal_uart.c ****        (+) Stop the DMA Transfer using HAL_UART_DMAStop()
 112:Drivers/STM32F3xx_HAL_Driver/Src/stm32f3xx_hal_uart.c **** 
 113:Drivers/STM32F3xx_HAL_Driver/Src/stm32f3xx_hal_uart.c ****      *** UART HAL driver macros list ***
 114:Drivers/STM32F3xx_HAL_Driver/Src/stm32f3xx_hal_uart.c ****      =============================================
 115:Drivers/STM32F3xx_HAL_Driver/Src/stm32f3xx_hal_uart.c ****      [..]
 116:Drivers/STM32F3xx_HAL_Driver/Src/stm32f3xx_hal_uart.c ****        Below the list of most used macros in UART HAL driver.
 117:Drivers/STM32F3xx_HAL_Driver/Src/stm32f3xx_hal_uart.c **** 
 118:Drivers/STM32F3xx_HAL_Driver/Src/stm32f3xx_hal_uart.c ****       (+) __HAL_UART_ENABLE: Enable the UART peripheral
 119:Drivers/STM32F3xx_HAL_Driver/Src/stm32f3xx_hal_uart.c ****       (+) __HAL_UART_DISABLE: Disable the UART peripheral
 120:Drivers/STM32F3xx_HAL_Driver/Src/stm32f3xx_hal_uart.c ****       (+) __HAL_UART_GET_FLAG : Check whether the specified UART flag is set or not
 121:Drivers/STM32F3xx_HAL_Driver/Src/stm32f3xx_hal_uart.c ****       (+) __HAL_UART_CLEAR_FLAG : Clear the specified UART pending flag
 122:Drivers/STM32F3xx_HAL_Driver/Src/stm32f3xx_hal_uart.c ****       (+) __HAL_UART_ENABLE_IT: Enable the specified UART interrupt
 123:Drivers/STM32F3xx_HAL_Driver/Src/stm32f3xx_hal_uart.c ****       (+) __HAL_UART_DISABLE_IT: Disable the specified UART interrupt
 124:Drivers/STM32F3xx_HAL_Driver/Src/stm32f3xx_hal_uart.c **** 
 125:Drivers/STM32F3xx_HAL_Driver/Src/stm32f3xx_hal_uart.c ****      [..]
 126:Drivers/STM32F3xx_HAL_Driver/Src/stm32f3xx_hal_uart.c ****        (@) You can refer to the UART HAL driver header file for more useful macros
 127:Drivers/STM32F3xx_HAL_Driver/Src/stm32f3xx_hal_uart.c **** 
 128:Drivers/STM32F3xx_HAL_Driver/Src/stm32f3xx_hal_uart.c ****   @endverbatim
 129:Drivers/STM32F3xx_HAL_Driver/Src/stm32f3xx_hal_uart.c ****   ******************************************************************************
 130:Drivers/STM32F3xx_HAL_Driver/Src/stm32f3xx_hal_uart.c ****   * @attention
 131:Drivers/STM32F3xx_HAL_Driver/Src/stm32f3xx_hal_uart.c ****   *
 132:Drivers/STM32F3xx_HAL_Driver/Src/stm32f3xx_hal_uart.c ****   * <h2><center>&copy; COPYRIGHT(c) 2016 STMicroelectronics</center></h2>
 133:Drivers/STM32F3xx_HAL_Driver/Src/stm32f3xx_hal_uart.c ****   *
 134:Drivers/STM32F3xx_HAL_Driver/Src/stm32f3xx_hal_uart.c ****   * Redistribution and use in source and binary forms, with or without modification,
 135:Drivers/STM32F3xx_HAL_Driver/Src/stm32f3xx_hal_uart.c ****   * are permitted provided that the following conditions are met:
 136:Drivers/STM32F3xx_HAL_Driver/Src/stm32f3xx_hal_uart.c ****   *   1. Redistributions of source code must retain the above copyright notice,
 137:Drivers/STM32F3xx_HAL_Driver/Src/stm32f3xx_hal_uart.c ****   *      this list of conditions and the following disclaimer.
 138:Drivers/STM32F3xx_HAL_Driver/Src/stm32f3xx_hal_uart.c ****   *   2. Redistributions in binary form must reproduce the above copyright notice,
 139:Drivers/STM32F3xx_HAL_Driver/Src/stm32f3xx_hal_uart.c ****   *      this list of conditions and the following disclaimer in the documentation
 140:Drivers/STM32F3xx_HAL_Driver/Src/stm32f3xx_hal_uart.c ****   *      and/or other materials provided with the distribution.
 141:Drivers/STM32F3xx_HAL_Driver/Src/stm32f3xx_hal_uart.c ****   *   3. Neither the name of STMicroelectronics nor the names of its contributors
 142:Drivers/STM32F3xx_HAL_Driver/Src/stm32f3xx_hal_uart.c ****   *      may be used to endorse or promote products derived from this software
ARM GAS  /var/folders/8c/gyvcglfx7f97kbqb2h83mm_r0000gn/T//ccv1qdBn.s 			page 4


 143:Drivers/STM32F3xx_HAL_Driver/Src/stm32f3xx_hal_uart.c ****   *      without specific prior written permission.
 144:Drivers/STM32F3xx_HAL_Driver/Src/stm32f3xx_hal_uart.c ****   *
 145:Drivers/STM32F3xx_HAL_Driver/Src/stm32f3xx_hal_uart.c ****   * THIS SOFTWARE IS PROVIDED BY THE COPYRIGHT HOLDERS AND CONTRIBUTORS "AS IS"
 146:Drivers/STM32F3xx_HAL_Driver/Src/stm32f3xx_hal_uart.c ****   * AND ANY EXPRESS OR IMPLIED WARRANTIES, INCLUDING, BUT NOT LIMITED TO, THE
 147:Drivers/STM32F3xx_HAL_Driver/Src/stm32f3xx_hal_uart.c ****   * IMPLIED WARRANTIES OF MERCHANTABILITY AND FITNESS FOR A PARTICULAR PURPOSE ARE
 148:Drivers/STM32F3xx_HAL_Driver/Src/stm32f3xx_hal_uart.c ****   * DISCLAIMED. IN NO EVENT SHALL THE COPYRIGHT HOLDER OR CONTRIBUTORS BE LIABLE
 149:Drivers/STM32F3xx_HAL_Driver/Src/stm32f3xx_hal_uart.c ****   * FOR ANY DIRECT, INDIRECT, INCIDENTAL, SPECIAL, EXEMPLARY, OR CONSEQUENTIAL
 150:Drivers/STM32F3xx_HAL_Driver/Src/stm32f3xx_hal_uart.c ****   * DAMAGES (INCLUDING, BUT NOT LIMITED TO, PROCUREMENT OF SUBSTITUTE GOODS OR
 151:Drivers/STM32F3xx_HAL_Driver/Src/stm32f3xx_hal_uart.c ****   * SERVICES; LOSS OF USE, DATA, OR PROFITS; OR BUSINESS INTERRUPTION) HOWEVER
 152:Drivers/STM32F3xx_HAL_Driver/Src/stm32f3xx_hal_uart.c ****   * CAUSED AND ON ANY THEORY OF LIABILITY, WHETHER IN CONTRACT, STRICT LIABILITY,
 153:Drivers/STM32F3xx_HAL_Driver/Src/stm32f3xx_hal_uart.c ****   * OR TORT (INCLUDING NEGLIGENCE OR OTHERWISE) ARISING IN ANY WAY OUT OF THE USE
 154:Drivers/STM32F3xx_HAL_Driver/Src/stm32f3xx_hal_uart.c ****   * OF THIS SOFTWARE, EVEN IF ADVISED OF THE POSSIBILITY OF SUCH DAMAGE.
 155:Drivers/STM32F3xx_HAL_Driver/Src/stm32f3xx_hal_uart.c ****   *
 156:Drivers/STM32F3xx_HAL_Driver/Src/stm32f3xx_hal_uart.c ****   ******************************************************************************
 157:Drivers/STM32F3xx_HAL_Driver/Src/stm32f3xx_hal_uart.c ****   */
 158:Drivers/STM32F3xx_HAL_Driver/Src/stm32f3xx_hal_uart.c **** 
 159:Drivers/STM32F3xx_HAL_Driver/Src/stm32f3xx_hal_uart.c **** /* Includes ------------------------------------------------------------------*/
 160:Drivers/STM32F3xx_HAL_Driver/Src/stm32f3xx_hal_uart.c **** #include "stm32f3xx_hal.h"
 161:Drivers/STM32F3xx_HAL_Driver/Src/stm32f3xx_hal_uart.c **** 
 162:Drivers/STM32F3xx_HAL_Driver/Src/stm32f3xx_hal_uart.c **** /** @addtogroup STM32F3xx_HAL_Driver
 163:Drivers/STM32F3xx_HAL_Driver/Src/stm32f3xx_hal_uart.c ****   * @{
 164:Drivers/STM32F3xx_HAL_Driver/Src/stm32f3xx_hal_uart.c ****   */
 165:Drivers/STM32F3xx_HAL_Driver/Src/stm32f3xx_hal_uart.c **** 
 166:Drivers/STM32F3xx_HAL_Driver/Src/stm32f3xx_hal_uart.c **** /** @defgroup UART UART
 167:Drivers/STM32F3xx_HAL_Driver/Src/stm32f3xx_hal_uart.c ****   * @brief UART HAL module driver
 168:Drivers/STM32F3xx_HAL_Driver/Src/stm32f3xx_hal_uart.c ****   * @{
 169:Drivers/STM32F3xx_HAL_Driver/Src/stm32f3xx_hal_uart.c ****   */
 170:Drivers/STM32F3xx_HAL_Driver/Src/stm32f3xx_hal_uart.c **** 
 171:Drivers/STM32F3xx_HAL_Driver/Src/stm32f3xx_hal_uart.c **** #ifdef HAL_UART_MODULE_ENABLED
 172:Drivers/STM32F3xx_HAL_Driver/Src/stm32f3xx_hal_uart.c **** 
 173:Drivers/STM32F3xx_HAL_Driver/Src/stm32f3xx_hal_uart.c **** /* Private typedef -----------------------------------------------------------*/
 174:Drivers/STM32F3xx_HAL_Driver/Src/stm32f3xx_hal_uart.c **** /* Private define ------------------------------------------------------------*/
 175:Drivers/STM32F3xx_HAL_Driver/Src/stm32f3xx_hal_uart.c **** /** @defgroup UART_Private_Constants UART Private Constants
 176:Drivers/STM32F3xx_HAL_Driver/Src/stm32f3xx_hal_uart.c ****   * @{
 177:Drivers/STM32F3xx_HAL_Driver/Src/stm32f3xx_hal_uart.c ****   */
 178:Drivers/STM32F3xx_HAL_Driver/Src/stm32f3xx_hal_uart.c **** #define UART_CR1_FIELDS  ((uint32_t)(USART_CR1_M | USART_CR1_PCE | USART_CR1_PS | \
 179:Drivers/STM32F3xx_HAL_Driver/Src/stm32f3xx_hal_uart.c ****                                      USART_CR1_TE | USART_CR1_RE | USART_CR1_OVER8)) /*!< UART or U
 180:Drivers/STM32F3xx_HAL_Driver/Src/stm32f3xx_hal_uart.c **** /**
 181:Drivers/STM32F3xx_HAL_Driver/Src/stm32f3xx_hal_uart.c ****   * @}
 182:Drivers/STM32F3xx_HAL_Driver/Src/stm32f3xx_hal_uart.c ****   */
 183:Drivers/STM32F3xx_HAL_Driver/Src/stm32f3xx_hal_uart.c **** 
 184:Drivers/STM32F3xx_HAL_Driver/Src/stm32f3xx_hal_uart.c **** /* Private macros ------------------------------------------------------------*/
 185:Drivers/STM32F3xx_HAL_Driver/Src/stm32f3xx_hal_uart.c **** /* Private variables ---------------------------------------------------------*/
 186:Drivers/STM32F3xx_HAL_Driver/Src/stm32f3xx_hal_uart.c **** /* Private function prototypes -----------------------------------------------*/
 187:Drivers/STM32F3xx_HAL_Driver/Src/stm32f3xx_hal_uart.c **** /** @addtogroup UART_Private_Functions
 188:Drivers/STM32F3xx_HAL_Driver/Src/stm32f3xx_hal_uart.c ****   * @{
 189:Drivers/STM32F3xx_HAL_Driver/Src/stm32f3xx_hal_uart.c ****   */
 190:Drivers/STM32F3xx_HAL_Driver/Src/stm32f3xx_hal_uart.c **** static void UART_EndTxTransfer(UART_HandleTypeDef *huart);
 191:Drivers/STM32F3xx_HAL_Driver/Src/stm32f3xx_hal_uart.c **** static void UART_EndRxTransfer(UART_HandleTypeDef *huart);
 192:Drivers/STM32F3xx_HAL_Driver/Src/stm32f3xx_hal_uart.c **** static void UART_DMATransmitCplt(DMA_HandleTypeDef *hdma);
 193:Drivers/STM32F3xx_HAL_Driver/Src/stm32f3xx_hal_uart.c **** static void UART_DMATxHalfCplt(DMA_HandleTypeDef *hdma);
 194:Drivers/STM32F3xx_HAL_Driver/Src/stm32f3xx_hal_uart.c **** static void UART_DMAReceiveCplt(DMA_HandleTypeDef *hdma);
 195:Drivers/STM32F3xx_HAL_Driver/Src/stm32f3xx_hal_uart.c **** static void UART_DMARxHalfCplt(DMA_HandleTypeDef *hdma);
 196:Drivers/STM32F3xx_HAL_Driver/Src/stm32f3xx_hal_uart.c **** static void UART_DMAError(DMA_HandleTypeDef *hdma);
 197:Drivers/STM32F3xx_HAL_Driver/Src/stm32f3xx_hal_uart.c **** static void UART_DMAAbortOnError(DMA_HandleTypeDef *hdma);
 198:Drivers/STM32F3xx_HAL_Driver/Src/stm32f3xx_hal_uart.c **** static void UART_DMATxAbortCallback(DMA_HandleTypeDef *hdma);
 199:Drivers/STM32F3xx_HAL_Driver/Src/stm32f3xx_hal_uart.c **** static void UART_DMARxAbortCallback(DMA_HandleTypeDef *hdma);
ARM GAS  /var/folders/8c/gyvcglfx7f97kbqb2h83mm_r0000gn/T//ccv1qdBn.s 			page 5


 200:Drivers/STM32F3xx_HAL_Driver/Src/stm32f3xx_hal_uart.c **** static void UART_DMATxOnlyAbortCallback(DMA_HandleTypeDef *hdma);
 201:Drivers/STM32F3xx_HAL_Driver/Src/stm32f3xx_hal_uart.c **** static void UART_DMARxOnlyAbortCallback(DMA_HandleTypeDef *hdma);
 202:Drivers/STM32F3xx_HAL_Driver/Src/stm32f3xx_hal_uart.c **** HAL_StatusTypeDef UART_Transmit_IT(UART_HandleTypeDef *huart);
 203:Drivers/STM32F3xx_HAL_Driver/Src/stm32f3xx_hal_uart.c **** HAL_StatusTypeDef UART_EndTransmit_IT(UART_HandleTypeDef *huart);
 204:Drivers/STM32F3xx_HAL_Driver/Src/stm32f3xx_hal_uart.c **** HAL_StatusTypeDef UART_Receive_IT(UART_HandleTypeDef *huart);
 205:Drivers/STM32F3xx_HAL_Driver/Src/stm32f3xx_hal_uart.c **** /**
 206:Drivers/STM32F3xx_HAL_Driver/Src/stm32f3xx_hal_uart.c ****   * @}
 207:Drivers/STM32F3xx_HAL_Driver/Src/stm32f3xx_hal_uart.c ****   */
 208:Drivers/STM32F3xx_HAL_Driver/Src/stm32f3xx_hal_uart.c **** 
 209:Drivers/STM32F3xx_HAL_Driver/Src/stm32f3xx_hal_uart.c **** /* Exported functions --------------------------------------------------------*/
 210:Drivers/STM32F3xx_HAL_Driver/Src/stm32f3xx_hal_uart.c **** 
 211:Drivers/STM32F3xx_HAL_Driver/Src/stm32f3xx_hal_uart.c **** /** @defgroup UART_Exported_Functions UART Exported Functions
 212:Drivers/STM32F3xx_HAL_Driver/Src/stm32f3xx_hal_uart.c ****   * @{
 213:Drivers/STM32F3xx_HAL_Driver/Src/stm32f3xx_hal_uart.c ****   */
 214:Drivers/STM32F3xx_HAL_Driver/Src/stm32f3xx_hal_uart.c **** 
 215:Drivers/STM32F3xx_HAL_Driver/Src/stm32f3xx_hal_uart.c **** /** @defgroup UART_Exported_Functions_Group1 Initialization and de-initialization functions
 216:Drivers/STM32F3xx_HAL_Driver/Src/stm32f3xx_hal_uart.c ****   *  @brief    Initialization and Configuration functions
 217:Drivers/STM32F3xx_HAL_Driver/Src/stm32f3xx_hal_uart.c ****   *
 218:Drivers/STM32F3xx_HAL_Driver/Src/stm32f3xx_hal_uart.c **** @verbatim
 219:Drivers/STM32F3xx_HAL_Driver/Src/stm32f3xx_hal_uart.c **** ===============================================================================
 220:Drivers/STM32F3xx_HAL_Driver/Src/stm32f3xx_hal_uart.c ****             ##### Initialization and Configuration functions #####
 221:Drivers/STM32F3xx_HAL_Driver/Src/stm32f3xx_hal_uart.c ****  ===============================================================================
 222:Drivers/STM32F3xx_HAL_Driver/Src/stm32f3xx_hal_uart.c ****     [..]
 223:Drivers/STM32F3xx_HAL_Driver/Src/stm32f3xx_hal_uart.c ****     This subsection provides a set of functions allowing to initialize the USARTx or the UARTy
 224:Drivers/STM32F3xx_HAL_Driver/Src/stm32f3xx_hal_uart.c ****     in asynchronous mode.
 225:Drivers/STM32F3xx_HAL_Driver/Src/stm32f3xx_hal_uart.c ****       (+) For the asynchronous mode the parameters below can be configured:
 226:Drivers/STM32F3xx_HAL_Driver/Src/stm32f3xx_hal_uart.c ****         (++) Baud Rate
 227:Drivers/STM32F3xx_HAL_Driver/Src/stm32f3xx_hal_uart.c ****         (++) Word Length
 228:Drivers/STM32F3xx_HAL_Driver/Src/stm32f3xx_hal_uart.c ****         (++) Stop Bit
 229:Drivers/STM32F3xx_HAL_Driver/Src/stm32f3xx_hal_uart.c ****         (++) Parity
 230:Drivers/STM32F3xx_HAL_Driver/Src/stm32f3xx_hal_uart.c ****         (++) Hardware flow control
 231:Drivers/STM32F3xx_HAL_Driver/Src/stm32f3xx_hal_uart.c ****         (++) Receiver/transmitter modes
 232:Drivers/STM32F3xx_HAL_Driver/Src/stm32f3xx_hal_uart.c ****         (++) Over Sampling Method
 233:Drivers/STM32F3xx_HAL_Driver/Src/stm32f3xx_hal_uart.c ****         (++) One-Bit Sampling Method
 234:Drivers/STM32F3xx_HAL_Driver/Src/stm32f3xx_hal_uart.c ****       (+) For the asynchronous mode, the following advanced features can be configured as well:
 235:Drivers/STM32F3xx_HAL_Driver/Src/stm32f3xx_hal_uart.c ****         (++) TX and/or RX pin level inversion
 236:Drivers/STM32F3xx_HAL_Driver/Src/stm32f3xx_hal_uart.c ****         (++) data logical level inversion
 237:Drivers/STM32F3xx_HAL_Driver/Src/stm32f3xx_hal_uart.c ****         (++) RX and TX pins swap
 238:Drivers/STM32F3xx_HAL_Driver/Src/stm32f3xx_hal_uart.c ****         (++) RX overrun detection disabling
 239:Drivers/STM32F3xx_HAL_Driver/Src/stm32f3xx_hal_uart.c ****         (++) DMA disabling on RX error
 240:Drivers/STM32F3xx_HAL_Driver/Src/stm32f3xx_hal_uart.c ****         (++) MSB first on communication line
 241:Drivers/STM32F3xx_HAL_Driver/Src/stm32f3xx_hal_uart.c ****         (++) auto Baud rate detection
 242:Drivers/STM32F3xx_HAL_Driver/Src/stm32f3xx_hal_uart.c ****     [..]
 243:Drivers/STM32F3xx_HAL_Driver/Src/stm32f3xx_hal_uart.c ****     The HAL_UART_Init(), HAL_HalfDuplex_Init(), HAL_LIN_Init() and HAL_MultiProcessor_Init()
 244:Drivers/STM32F3xx_HAL_Driver/Src/stm32f3xx_hal_uart.c ****     API follow respectively the UART asynchronous, UART Half duplex, UART LIN mode and
 245:Drivers/STM32F3xx_HAL_Driver/Src/stm32f3xx_hal_uart.c ****     multiprocessor configuration procedures (details for the procedures are available in reference 
 246:Drivers/STM32F3xx_HAL_Driver/Src/stm32f3xx_hal_uart.c **** 
 247:Drivers/STM32F3xx_HAL_Driver/Src/stm32f3xx_hal_uart.c **** @endverbatim
 248:Drivers/STM32F3xx_HAL_Driver/Src/stm32f3xx_hal_uart.c ****   * @{
 249:Drivers/STM32F3xx_HAL_Driver/Src/stm32f3xx_hal_uart.c ****   */
 250:Drivers/STM32F3xx_HAL_Driver/Src/stm32f3xx_hal_uart.c **** 
 251:Drivers/STM32F3xx_HAL_Driver/Src/stm32f3xx_hal_uart.c **** /*
 252:Drivers/STM32F3xx_HAL_Driver/Src/stm32f3xx_hal_uart.c ****   Additional Table: If the parity is enabled, then the MSB bit of the data written
 253:Drivers/STM32F3xx_HAL_Driver/Src/stm32f3xx_hal_uart.c ****                     in the data register is transmitted but is changed by the parity bit.
 254:Drivers/STM32F3xx_HAL_Driver/Src/stm32f3xx_hal_uart.c ****                     According to device capability (support or not of 7-bit word length),
 255:Drivers/STM32F3xx_HAL_Driver/Src/stm32f3xx_hal_uart.c ****                     frame length is either defined by the M bit (8-bits or 9-bits)
 256:Drivers/STM32F3xx_HAL_Driver/Src/stm32f3xx_hal_uart.c ****                     or by the M1 and M0 bits (7-bit, 8-bit or 9-bit).
ARM GAS  /var/folders/8c/gyvcglfx7f97kbqb2h83mm_r0000gn/T//ccv1qdBn.s 			page 6


 257:Drivers/STM32F3xx_HAL_Driver/Src/stm32f3xx_hal_uart.c ****                     Possible UART frame formats are as listed in the following table:
 258:Drivers/STM32F3xx_HAL_Driver/Src/stm32f3xx_hal_uart.c **** 
 259:Drivers/STM32F3xx_HAL_Driver/Src/stm32f3xx_hal_uart.c ****       Table 1. UART frame format.             
 260:Drivers/STM32F3xx_HAL_Driver/Src/stm32f3xx_hal_uart.c ****       +-----------------------------------------------------------------------+
 261:Drivers/STM32F3xx_HAL_Driver/Src/stm32f3xx_hal_uart.c ****       |       M bit       |  PCE bit  |             UART frame                |
 262:Drivers/STM32F3xx_HAL_Driver/Src/stm32f3xx_hal_uart.c ****       |-------------------|-----------|---------------------------------------|
 263:Drivers/STM32F3xx_HAL_Driver/Src/stm32f3xx_hal_uart.c ****       |         0         |     0     |    | SB |    8-bit data   | STB |     |
 264:Drivers/STM32F3xx_HAL_Driver/Src/stm32f3xx_hal_uart.c ****       |-------------------|-----------|---------------------------------------|
 265:Drivers/STM32F3xx_HAL_Driver/Src/stm32f3xx_hal_uart.c ****       |         0         |     1     |    | SB | 7-bit data | PB | STB |     |
 266:Drivers/STM32F3xx_HAL_Driver/Src/stm32f3xx_hal_uart.c ****       |-------------------|-----------|---------------------------------------|
 267:Drivers/STM32F3xx_HAL_Driver/Src/stm32f3xx_hal_uart.c ****       |         1         |     0     |    | SB |    9-bit data   | STB |     |
 268:Drivers/STM32F3xx_HAL_Driver/Src/stm32f3xx_hal_uart.c ****       |-------------------|-----------|---------------------------------------|
 269:Drivers/STM32F3xx_HAL_Driver/Src/stm32f3xx_hal_uart.c ****       |         1         |     1     |    | SB | 8-bit data | PB | STB |     |
 270:Drivers/STM32F3xx_HAL_Driver/Src/stm32f3xx_hal_uart.c ****       +-----------------------------------------------------------------------+
 271:Drivers/STM32F3xx_HAL_Driver/Src/stm32f3xx_hal_uart.c ****       |  M1 bit |  M0 bit |  PCE bit  |             UART frame                |
 272:Drivers/STM32F3xx_HAL_Driver/Src/stm32f3xx_hal_uart.c ****       |---------|---------|-----------|---------------------------------------|
 273:Drivers/STM32F3xx_HAL_Driver/Src/stm32f3xx_hal_uart.c ****       |    0    |    0    |     0     |    | SB |    8 bit data   | STB |     |
 274:Drivers/STM32F3xx_HAL_Driver/Src/stm32f3xx_hal_uart.c ****       |---------|---------|-----------|---------------------------------------|
 275:Drivers/STM32F3xx_HAL_Driver/Src/stm32f3xx_hal_uart.c ****       |    0    |    0    |     1     |    | SB | 7 bit data | PB | STB |     |
 276:Drivers/STM32F3xx_HAL_Driver/Src/stm32f3xx_hal_uart.c ****       |---------|---------|-----------|---------------------------------------|
 277:Drivers/STM32F3xx_HAL_Driver/Src/stm32f3xx_hal_uart.c ****       |    0    |    1    |     0     |    | SB |    9 bit data   | STB |     |
 278:Drivers/STM32F3xx_HAL_Driver/Src/stm32f3xx_hal_uart.c ****       |---------|---------|-----------|---------------------------------------|
 279:Drivers/STM32F3xx_HAL_Driver/Src/stm32f3xx_hal_uart.c ****       |    0    |    1    |     1     |    | SB | 8 bit data | PB | STB |     |
 280:Drivers/STM32F3xx_HAL_Driver/Src/stm32f3xx_hal_uart.c ****       |---------|---------|-----------|---------------------------------------|
 281:Drivers/STM32F3xx_HAL_Driver/Src/stm32f3xx_hal_uart.c ****       |    1    |    0    |     0     |    | SB |    7 bit data   | STB |     |
 282:Drivers/STM32F3xx_HAL_Driver/Src/stm32f3xx_hal_uart.c ****       |---------|---------|-----------|---------------------------------------|
 283:Drivers/STM32F3xx_HAL_Driver/Src/stm32f3xx_hal_uart.c ****       |    1    |    0    |     1     |    | SB | 6 bit data | PB | STB |     |
 284:Drivers/STM32F3xx_HAL_Driver/Src/stm32f3xx_hal_uart.c ****       +-----------------------------------------------------------------------+
 285:Drivers/STM32F3xx_HAL_Driver/Src/stm32f3xx_hal_uart.c **** 
 286:Drivers/STM32F3xx_HAL_Driver/Src/stm32f3xx_hal_uart.c **** */
 287:Drivers/STM32F3xx_HAL_Driver/Src/stm32f3xx_hal_uart.c **** 
 288:Drivers/STM32F3xx_HAL_Driver/Src/stm32f3xx_hal_uart.c **** /**
 289:Drivers/STM32F3xx_HAL_Driver/Src/stm32f3xx_hal_uart.c ****   * @brief Initialize the UART mode according to the specified
 290:Drivers/STM32F3xx_HAL_Driver/Src/stm32f3xx_hal_uart.c ****   *        parameters in the UART_InitTypeDef and initialize the associated handle.
 291:Drivers/STM32F3xx_HAL_Driver/Src/stm32f3xx_hal_uart.c ****   * @param huart UART handle.
 292:Drivers/STM32F3xx_HAL_Driver/Src/stm32f3xx_hal_uart.c ****   * @retval HAL status
 293:Drivers/STM32F3xx_HAL_Driver/Src/stm32f3xx_hal_uart.c ****   */
 294:Drivers/STM32F3xx_HAL_Driver/Src/stm32f3xx_hal_uart.c **** HAL_StatusTypeDef HAL_UART_Init(UART_HandleTypeDef *huart)
 295:Drivers/STM32F3xx_HAL_Driver/Src/stm32f3xx_hal_uart.c **** {
 296:Drivers/STM32F3xx_HAL_Driver/Src/stm32f3xx_hal_uart.c ****   /* Check the UART handle allocation */
 297:Drivers/STM32F3xx_HAL_Driver/Src/stm32f3xx_hal_uart.c ****   if(huart == NULL)
 298:Drivers/STM32F3xx_HAL_Driver/Src/stm32f3xx_hal_uart.c ****   {
 299:Drivers/STM32F3xx_HAL_Driver/Src/stm32f3xx_hal_uart.c ****     return HAL_ERROR;
 300:Drivers/STM32F3xx_HAL_Driver/Src/stm32f3xx_hal_uart.c ****   }
 301:Drivers/STM32F3xx_HAL_Driver/Src/stm32f3xx_hal_uart.c **** 
 302:Drivers/STM32F3xx_HAL_Driver/Src/stm32f3xx_hal_uart.c ****   if(huart->Init.HwFlowCtl != UART_HWCONTROL_NONE)
 303:Drivers/STM32F3xx_HAL_Driver/Src/stm32f3xx_hal_uart.c ****   {
 304:Drivers/STM32F3xx_HAL_Driver/Src/stm32f3xx_hal_uart.c ****     /* Check the parameters */
 305:Drivers/STM32F3xx_HAL_Driver/Src/stm32f3xx_hal_uart.c ****     assert_param(IS_UART_HWFLOW_INSTANCE(huart->Instance));
 306:Drivers/STM32F3xx_HAL_Driver/Src/stm32f3xx_hal_uart.c ****   }
 307:Drivers/STM32F3xx_HAL_Driver/Src/stm32f3xx_hal_uart.c ****   else
 308:Drivers/STM32F3xx_HAL_Driver/Src/stm32f3xx_hal_uart.c ****   {
 309:Drivers/STM32F3xx_HAL_Driver/Src/stm32f3xx_hal_uart.c ****     /* Check the parameters */
 310:Drivers/STM32F3xx_HAL_Driver/Src/stm32f3xx_hal_uart.c ****     assert_param(IS_UART_INSTANCE(huart->Instance));
 311:Drivers/STM32F3xx_HAL_Driver/Src/stm32f3xx_hal_uart.c ****   }
 312:Drivers/STM32F3xx_HAL_Driver/Src/stm32f3xx_hal_uart.c **** 
 313:Drivers/STM32F3xx_HAL_Driver/Src/stm32f3xx_hal_uart.c ****   if(huart->gState == HAL_UART_STATE_RESET)
ARM GAS  /var/folders/8c/gyvcglfx7f97kbqb2h83mm_r0000gn/T//ccv1qdBn.s 			page 7


 314:Drivers/STM32F3xx_HAL_Driver/Src/stm32f3xx_hal_uart.c ****   {
 315:Drivers/STM32F3xx_HAL_Driver/Src/stm32f3xx_hal_uart.c ****     /* Allocate lock resource and initialize it */
 316:Drivers/STM32F3xx_HAL_Driver/Src/stm32f3xx_hal_uart.c ****     huart->Lock = HAL_UNLOCKED;
 317:Drivers/STM32F3xx_HAL_Driver/Src/stm32f3xx_hal_uart.c **** 
 318:Drivers/STM32F3xx_HAL_Driver/Src/stm32f3xx_hal_uart.c ****     /* Init the low level hardware : GPIO, CLOCK */
 319:Drivers/STM32F3xx_HAL_Driver/Src/stm32f3xx_hal_uart.c ****     HAL_UART_MspInit(huart);
 320:Drivers/STM32F3xx_HAL_Driver/Src/stm32f3xx_hal_uart.c ****   }
 321:Drivers/STM32F3xx_HAL_Driver/Src/stm32f3xx_hal_uart.c **** 
 322:Drivers/STM32F3xx_HAL_Driver/Src/stm32f3xx_hal_uart.c ****   huart->gState = HAL_UART_STATE_BUSY;
 323:Drivers/STM32F3xx_HAL_Driver/Src/stm32f3xx_hal_uart.c **** 
 324:Drivers/STM32F3xx_HAL_Driver/Src/stm32f3xx_hal_uart.c ****   /* Disable the Peripheral */
 325:Drivers/STM32F3xx_HAL_Driver/Src/stm32f3xx_hal_uart.c ****   __HAL_UART_DISABLE(huart);
 326:Drivers/STM32F3xx_HAL_Driver/Src/stm32f3xx_hal_uart.c **** 
 327:Drivers/STM32F3xx_HAL_Driver/Src/stm32f3xx_hal_uart.c ****   /* Set the UART Communication parameters */
 328:Drivers/STM32F3xx_HAL_Driver/Src/stm32f3xx_hal_uart.c ****   if (UART_SetConfig(huart) == HAL_ERROR)
 329:Drivers/STM32F3xx_HAL_Driver/Src/stm32f3xx_hal_uart.c ****   {
 330:Drivers/STM32F3xx_HAL_Driver/Src/stm32f3xx_hal_uart.c ****     return HAL_ERROR;
 331:Drivers/STM32F3xx_HAL_Driver/Src/stm32f3xx_hal_uart.c ****   }
 332:Drivers/STM32F3xx_HAL_Driver/Src/stm32f3xx_hal_uart.c **** 
 333:Drivers/STM32F3xx_HAL_Driver/Src/stm32f3xx_hal_uart.c ****   if (huart->AdvancedInit.AdvFeatureInit != UART_ADVFEATURE_NO_INIT)
 334:Drivers/STM32F3xx_HAL_Driver/Src/stm32f3xx_hal_uart.c ****   {
 335:Drivers/STM32F3xx_HAL_Driver/Src/stm32f3xx_hal_uart.c ****     UART_AdvFeatureConfig(huart);
 336:Drivers/STM32F3xx_HAL_Driver/Src/stm32f3xx_hal_uart.c ****   }
 337:Drivers/STM32F3xx_HAL_Driver/Src/stm32f3xx_hal_uart.c **** 
 338:Drivers/STM32F3xx_HAL_Driver/Src/stm32f3xx_hal_uart.c ****   /* In asynchronous mode, the following bits must be kept cleared:
 339:Drivers/STM32F3xx_HAL_Driver/Src/stm32f3xx_hal_uart.c ****   - LINEN and CLKEN bits in the USART_CR2 register,
 340:Drivers/STM32F3xx_HAL_Driver/Src/stm32f3xx_hal_uart.c ****   - SCEN, HDSEL and IREN  bits in the USART_CR3 register.*/
 341:Drivers/STM32F3xx_HAL_Driver/Src/stm32f3xx_hal_uart.c ****   CLEAR_BIT(huart->Instance->CR2, (USART_CR2_LINEN | USART_CR2_CLKEN));
 342:Drivers/STM32F3xx_HAL_Driver/Src/stm32f3xx_hal_uart.c ****   CLEAR_BIT(huart->Instance->CR3, (USART_CR3_SCEN | USART_CR3_HDSEL | USART_CR3_IREN));
 343:Drivers/STM32F3xx_HAL_Driver/Src/stm32f3xx_hal_uart.c **** 
 344:Drivers/STM32F3xx_HAL_Driver/Src/stm32f3xx_hal_uart.c ****   /* Enable the Peripheral */
 345:Drivers/STM32F3xx_HAL_Driver/Src/stm32f3xx_hal_uart.c ****   __HAL_UART_ENABLE(huart);
 346:Drivers/STM32F3xx_HAL_Driver/Src/stm32f3xx_hal_uart.c **** 
 347:Drivers/STM32F3xx_HAL_Driver/Src/stm32f3xx_hal_uart.c ****   /* TEACK and/or REACK to check before moving huart->gState and huart->RxState to Ready */
 348:Drivers/STM32F3xx_HAL_Driver/Src/stm32f3xx_hal_uart.c ****   return (UART_CheckIdleState(huart));
 349:Drivers/STM32F3xx_HAL_Driver/Src/stm32f3xx_hal_uart.c **** }
 350:Drivers/STM32F3xx_HAL_Driver/Src/stm32f3xx_hal_uart.c **** 
 351:Drivers/STM32F3xx_HAL_Driver/Src/stm32f3xx_hal_uart.c **** /**
 352:Drivers/STM32F3xx_HAL_Driver/Src/stm32f3xx_hal_uart.c ****   * @brief Initialize the half-duplex mode according to the specified
 353:Drivers/STM32F3xx_HAL_Driver/Src/stm32f3xx_hal_uart.c ****   *        parameters in the UART_InitTypeDef and creates the associated handle.
 354:Drivers/STM32F3xx_HAL_Driver/Src/stm32f3xx_hal_uart.c ****   * @param huart UART handle.
 355:Drivers/STM32F3xx_HAL_Driver/Src/stm32f3xx_hal_uart.c ****   * @retval HAL status
 356:Drivers/STM32F3xx_HAL_Driver/Src/stm32f3xx_hal_uart.c ****   */
 357:Drivers/STM32F3xx_HAL_Driver/Src/stm32f3xx_hal_uart.c **** HAL_StatusTypeDef HAL_HalfDuplex_Init(UART_HandleTypeDef *huart)
 358:Drivers/STM32F3xx_HAL_Driver/Src/stm32f3xx_hal_uart.c **** {
 359:Drivers/STM32F3xx_HAL_Driver/Src/stm32f3xx_hal_uart.c ****   /* Check the UART handle allocation */
 360:Drivers/STM32F3xx_HAL_Driver/Src/stm32f3xx_hal_uart.c ****   if(huart == NULL)
 361:Drivers/STM32F3xx_HAL_Driver/Src/stm32f3xx_hal_uart.c ****   {
 362:Drivers/STM32F3xx_HAL_Driver/Src/stm32f3xx_hal_uart.c ****     return HAL_ERROR;
 363:Drivers/STM32F3xx_HAL_Driver/Src/stm32f3xx_hal_uart.c ****   }
 364:Drivers/STM32F3xx_HAL_Driver/Src/stm32f3xx_hal_uart.c **** 
 365:Drivers/STM32F3xx_HAL_Driver/Src/stm32f3xx_hal_uart.c ****   /* Check UART instance */
 366:Drivers/STM32F3xx_HAL_Driver/Src/stm32f3xx_hal_uart.c ****   assert_param(IS_UART_HALFDUPLEX_INSTANCE(huart->Instance));
 367:Drivers/STM32F3xx_HAL_Driver/Src/stm32f3xx_hal_uart.c **** 
 368:Drivers/STM32F3xx_HAL_Driver/Src/stm32f3xx_hal_uart.c ****   if(huart->gState == HAL_UART_STATE_RESET)
 369:Drivers/STM32F3xx_HAL_Driver/Src/stm32f3xx_hal_uart.c ****   {
 370:Drivers/STM32F3xx_HAL_Driver/Src/stm32f3xx_hal_uart.c ****     /* Allocate lock resource and initialize it */
ARM GAS  /var/folders/8c/gyvcglfx7f97kbqb2h83mm_r0000gn/T//ccv1qdBn.s 			page 8


 371:Drivers/STM32F3xx_HAL_Driver/Src/stm32f3xx_hal_uart.c ****     huart->Lock = HAL_UNLOCKED;
 372:Drivers/STM32F3xx_HAL_Driver/Src/stm32f3xx_hal_uart.c **** 
 373:Drivers/STM32F3xx_HAL_Driver/Src/stm32f3xx_hal_uart.c ****     /* Init the low level hardware : GPIO, CLOCK */
 374:Drivers/STM32F3xx_HAL_Driver/Src/stm32f3xx_hal_uart.c ****     HAL_UART_MspInit(huart);
 375:Drivers/STM32F3xx_HAL_Driver/Src/stm32f3xx_hal_uart.c ****   }
 376:Drivers/STM32F3xx_HAL_Driver/Src/stm32f3xx_hal_uart.c **** 
 377:Drivers/STM32F3xx_HAL_Driver/Src/stm32f3xx_hal_uart.c ****   huart->gState = HAL_UART_STATE_BUSY;
 378:Drivers/STM32F3xx_HAL_Driver/Src/stm32f3xx_hal_uart.c **** 
 379:Drivers/STM32F3xx_HAL_Driver/Src/stm32f3xx_hal_uart.c ****   /* Disable the Peripheral */
 380:Drivers/STM32F3xx_HAL_Driver/Src/stm32f3xx_hal_uart.c ****   __HAL_UART_DISABLE(huart);
 381:Drivers/STM32F3xx_HAL_Driver/Src/stm32f3xx_hal_uart.c **** 
 382:Drivers/STM32F3xx_HAL_Driver/Src/stm32f3xx_hal_uart.c ****   /* Set the UART Communication parameters */
 383:Drivers/STM32F3xx_HAL_Driver/Src/stm32f3xx_hal_uart.c ****   if (UART_SetConfig(huart) == HAL_ERROR)
 384:Drivers/STM32F3xx_HAL_Driver/Src/stm32f3xx_hal_uart.c ****   {
 385:Drivers/STM32F3xx_HAL_Driver/Src/stm32f3xx_hal_uart.c ****     return HAL_ERROR;
 386:Drivers/STM32F3xx_HAL_Driver/Src/stm32f3xx_hal_uart.c ****   }
 387:Drivers/STM32F3xx_HAL_Driver/Src/stm32f3xx_hal_uart.c **** 
 388:Drivers/STM32F3xx_HAL_Driver/Src/stm32f3xx_hal_uart.c ****   if (huart->AdvancedInit.AdvFeatureInit != UART_ADVFEATURE_NO_INIT)
 389:Drivers/STM32F3xx_HAL_Driver/Src/stm32f3xx_hal_uart.c ****   {
 390:Drivers/STM32F3xx_HAL_Driver/Src/stm32f3xx_hal_uart.c ****     UART_AdvFeatureConfig(huart);
 391:Drivers/STM32F3xx_HAL_Driver/Src/stm32f3xx_hal_uart.c ****   }
 392:Drivers/STM32F3xx_HAL_Driver/Src/stm32f3xx_hal_uart.c **** 
 393:Drivers/STM32F3xx_HAL_Driver/Src/stm32f3xx_hal_uart.c ****   /* In half-duplex mode, the following bits must be kept cleared:
 394:Drivers/STM32F3xx_HAL_Driver/Src/stm32f3xx_hal_uart.c ****   - LINEN and CLKEN bits in the USART_CR2 register,
 395:Drivers/STM32F3xx_HAL_Driver/Src/stm32f3xx_hal_uart.c ****   - SCEN and IREN bits in the USART_CR3 register.*/
 396:Drivers/STM32F3xx_HAL_Driver/Src/stm32f3xx_hal_uart.c ****   CLEAR_BIT(huart->Instance->CR2, (USART_CR2_LINEN | USART_CR2_CLKEN));
 397:Drivers/STM32F3xx_HAL_Driver/Src/stm32f3xx_hal_uart.c ****   CLEAR_BIT(huart->Instance->CR3, (USART_CR3_IREN | USART_CR3_SCEN));
 398:Drivers/STM32F3xx_HAL_Driver/Src/stm32f3xx_hal_uart.c **** 
 399:Drivers/STM32F3xx_HAL_Driver/Src/stm32f3xx_hal_uart.c ****   /* Enable the Half-Duplex mode by setting the HDSEL bit in the CR3 register */
 400:Drivers/STM32F3xx_HAL_Driver/Src/stm32f3xx_hal_uart.c ****   SET_BIT(huart->Instance->CR3, USART_CR3_HDSEL);
 401:Drivers/STM32F3xx_HAL_Driver/Src/stm32f3xx_hal_uart.c **** 
 402:Drivers/STM32F3xx_HAL_Driver/Src/stm32f3xx_hal_uart.c ****   /* Enable the Peripheral */
 403:Drivers/STM32F3xx_HAL_Driver/Src/stm32f3xx_hal_uart.c ****   __HAL_UART_ENABLE(huart);
 404:Drivers/STM32F3xx_HAL_Driver/Src/stm32f3xx_hal_uart.c **** 
 405:Drivers/STM32F3xx_HAL_Driver/Src/stm32f3xx_hal_uart.c ****   /* TEACK and/or REACK to check before moving huart->gState and huart->RxState to Ready */
 406:Drivers/STM32F3xx_HAL_Driver/Src/stm32f3xx_hal_uart.c ****   return (UART_CheckIdleState(huart));
 407:Drivers/STM32F3xx_HAL_Driver/Src/stm32f3xx_hal_uart.c **** }
 408:Drivers/STM32F3xx_HAL_Driver/Src/stm32f3xx_hal_uart.c **** 
 409:Drivers/STM32F3xx_HAL_Driver/Src/stm32f3xx_hal_uart.c **** 
 410:Drivers/STM32F3xx_HAL_Driver/Src/stm32f3xx_hal_uart.c **** /**
 411:Drivers/STM32F3xx_HAL_Driver/Src/stm32f3xx_hal_uart.c ****   * @brief Initialize the LIN mode according to the specified
 412:Drivers/STM32F3xx_HAL_Driver/Src/stm32f3xx_hal_uart.c ****   *        parameters in the UART_InitTypeDef and creates the associated handle .
 413:Drivers/STM32F3xx_HAL_Driver/Src/stm32f3xx_hal_uart.c ****   * @param huart UART handle.
 414:Drivers/STM32F3xx_HAL_Driver/Src/stm32f3xx_hal_uart.c ****   * @param BreakDetectLength specifies the LIN break detection length.
 415:Drivers/STM32F3xx_HAL_Driver/Src/stm32f3xx_hal_uart.c ****   *        This parameter can be one of the following values:
 416:Drivers/STM32F3xx_HAL_Driver/Src/stm32f3xx_hal_uart.c ****   *          @arg @ref UART_LINBREAKDETECTLENGTH_10B 10-bit break detection
 417:Drivers/STM32F3xx_HAL_Driver/Src/stm32f3xx_hal_uart.c ****   *          @arg @ref UART_LINBREAKDETECTLENGTH_11B 11-bit break detection
 418:Drivers/STM32F3xx_HAL_Driver/Src/stm32f3xx_hal_uart.c ****   * @retval HAL status
 419:Drivers/STM32F3xx_HAL_Driver/Src/stm32f3xx_hal_uart.c ****   */
 420:Drivers/STM32F3xx_HAL_Driver/Src/stm32f3xx_hal_uart.c **** HAL_StatusTypeDef HAL_LIN_Init(UART_HandleTypeDef *huart, uint32_t BreakDetectLength)
 421:Drivers/STM32F3xx_HAL_Driver/Src/stm32f3xx_hal_uart.c **** {
 422:Drivers/STM32F3xx_HAL_Driver/Src/stm32f3xx_hal_uart.c ****   /* Check the UART handle allocation */
 423:Drivers/STM32F3xx_HAL_Driver/Src/stm32f3xx_hal_uart.c ****   if(huart == NULL)
 424:Drivers/STM32F3xx_HAL_Driver/Src/stm32f3xx_hal_uart.c ****   {
 425:Drivers/STM32F3xx_HAL_Driver/Src/stm32f3xx_hal_uart.c ****     return HAL_ERROR;
 426:Drivers/STM32F3xx_HAL_Driver/Src/stm32f3xx_hal_uart.c ****   }
 427:Drivers/STM32F3xx_HAL_Driver/Src/stm32f3xx_hal_uart.c **** 
ARM GAS  /var/folders/8c/gyvcglfx7f97kbqb2h83mm_r0000gn/T//ccv1qdBn.s 			page 9


 428:Drivers/STM32F3xx_HAL_Driver/Src/stm32f3xx_hal_uart.c ****   /* Check the LIN UART instance */
 429:Drivers/STM32F3xx_HAL_Driver/Src/stm32f3xx_hal_uart.c ****   assert_param(IS_UART_LIN_INSTANCE(huart->Instance));
 430:Drivers/STM32F3xx_HAL_Driver/Src/stm32f3xx_hal_uart.c ****   /* Check the Break detection length parameter */
 431:Drivers/STM32F3xx_HAL_Driver/Src/stm32f3xx_hal_uart.c ****   assert_param(IS_UART_LIN_BREAK_DETECT_LENGTH(BreakDetectLength));
 432:Drivers/STM32F3xx_HAL_Driver/Src/stm32f3xx_hal_uart.c **** 
 433:Drivers/STM32F3xx_HAL_Driver/Src/stm32f3xx_hal_uart.c ****   /* LIN mode limited to 16-bit oversampling only */
 434:Drivers/STM32F3xx_HAL_Driver/Src/stm32f3xx_hal_uart.c ****   if(huart->Init.OverSampling == UART_OVERSAMPLING_8)
 435:Drivers/STM32F3xx_HAL_Driver/Src/stm32f3xx_hal_uart.c ****   {
 436:Drivers/STM32F3xx_HAL_Driver/Src/stm32f3xx_hal_uart.c ****     return HAL_ERROR;
 437:Drivers/STM32F3xx_HAL_Driver/Src/stm32f3xx_hal_uart.c ****   }
 438:Drivers/STM32F3xx_HAL_Driver/Src/stm32f3xx_hal_uart.c ****   /* LIN mode limited to 8-bit data length */
 439:Drivers/STM32F3xx_HAL_Driver/Src/stm32f3xx_hal_uart.c ****   if(huart->Init.WordLength != UART_WORDLENGTH_8B)
 440:Drivers/STM32F3xx_HAL_Driver/Src/stm32f3xx_hal_uart.c ****   {
 441:Drivers/STM32F3xx_HAL_Driver/Src/stm32f3xx_hal_uart.c ****     return HAL_ERROR;
 442:Drivers/STM32F3xx_HAL_Driver/Src/stm32f3xx_hal_uart.c ****   }
 443:Drivers/STM32F3xx_HAL_Driver/Src/stm32f3xx_hal_uart.c **** 
 444:Drivers/STM32F3xx_HAL_Driver/Src/stm32f3xx_hal_uart.c ****   if(huart->gState == HAL_UART_STATE_RESET)
 445:Drivers/STM32F3xx_HAL_Driver/Src/stm32f3xx_hal_uart.c ****   {
 446:Drivers/STM32F3xx_HAL_Driver/Src/stm32f3xx_hal_uart.c ****     /* Allocate lock resource and initialize it */
 447:Drivers/STM32F3xx_HAL_Driver/Src/stm32f3xx_hal_uart.c ****     huart->Lock = HAL_UNLOCKED;
 448:Drivers/STM32F3xx_HAL_Driver/Src/stm32f3xx_hal_uart.c **** 
 449:Drivers/STM32F3xx_HAL_Driver/Src/stm32f3xx_hal_uart.c ****     /* Init the low level hardware : GPIO, CLOCK */
 450:Drivers/STM32F3xx_HAL_Driver/Src/stm32f3xx_hal_uart.c ****     HAL_UART_MspInit(huart);
 451:Drivers/STM32F3xx_HAL_Driver/Src/stm32f3xx_hal_uart.c ****   }
 452:Drivers/STM32F3xx_HAL_Driver/Src/stm32f3xx_hal_uart.c **** 
 453:Drivers/STM32F3xx_HAL_Driver/Src/stm32f3xx_hal_uart.c ****   huart->gState = HAL_UART_STATE_BUSY;
 454:Drivers/STM32F3xx_HAL_Driver/Src/stm32f3xx_hal_uart.c **** 
 455:Drivers/STM32F3xx_HAL_Driver/Src/stm32f3xx_hal_uart.c ****   /* Disable the Peripheral */
 456:Drivers/STM32F3xx_HAL_Driver/Src/stm32f3xx_hal_uart.c ****   __HAL_UART_DISABLE(huart);
 457:Drivers/STM32F3xx_HAL_Driver/Src/stm32f3xx_hal_uart.c **** 
 458:Drivers/STM32F3xx_HAL_Driver/Src/stm32f3xx_hal_uart.c ****   /* Set the UART Communication parameters */
 459:Drivers/STM32F3xx_HAL_Driver/Src/stm32f3xx_hal_uart.c ****   if (UART_SetConfig(huart) == HAL_ERROR)
 460:Drivers/STM32F3xx_HAL_Driver/Src/stm32f3xx_hal_uart.c ****   {
 461:Drivers/STM32F3xx_HAL_Driver/Src/stm32f3xx_hal_uart.c ****     return HAL_ERROR;
 462:Drivers/STM32F3xx_HAL_Driver/Src/stm32f3xx_hal_uart.c ****   }
 463:Drivers/STM32F3xx_HAL_Driver/Src/stm32f3xx_hal_uart.c **** 
 464:Drivers/STM32F3xx_HAL_Driver/Src/stm32f3xx_hal_uart.c ****   if (huart->AdvancedInit.AdvFeatureInit != UART_ADVFEATURE_NO_INIT)
 465:Drivers/STM32F3xx_HAL_Driver/Src/stm32f3xx_hal_uart.c ****   {
 466:Drivers/STM32F3xx_HAL_Driver/Src/stm32f3xx_hal_uart.c ****     UART_AdvFeatureConfig(huart);
 467:Drivers/STM32F3xx_HAL_Driver/Src/stm32f3xx_hal_uart.c ****   }
 468:Drivers/STM32F3xx_HAL_Driver/Src/stm32f3xx_hal_uart.c **** 
 469:Drivers/STM32F3xx_HAL_Driver/Src/stm32f3xx_hal_uart.c ****   /* In LIN mode, the following bits must be kept cleared:
 470:Drivers/STM32F3xx_HAL_Driver/Src/stm32f3xx_hal_uart.c ****   - LINEN and CLKEN bits in the USART_CR2 register,
 471:Drivers/STM32F3xx_HAL_Driver/Src/stm32f3xx_hal_uart.c ****   - SCEN and IREN bits in the USART_CR3 register.*/
 472:Drivers/STM32F3xx_HAL_Driver/Src/stm32f3xx_hal_uart.c ****   CLEAR_BIT(huart->Instance->CR2, USART_CR2_CLKEN);
 473:Drivers/STM32F3xx_HAL_Driver/Src/stm32f3xx_hal_uart.c ****   CLEAR_BIT(huart->Instance->CR3, (USART_CR3_HDSEL | USART_CR3_IREN | USART_CR3_SCEN));
 474:Drivers/STM32F3xx_HAL_Driver/Src/stm32f3xx_hal_uart.c **** 
 475:Drivers/STM32F3xx_HAL_Driver/Src/stm32f3xx_hal_uart.c ****   /* Enable the LIN mode by setting the LINEN bit in the CR2 register */
 476:Drivers/STM32F3xx_HAL_Driver/Src/stm32f3xx_hal_uart.c ****   SET_BIT(huart->Instance->CR2, USART_CR2_LINEN);
 477:Drivers/STM32F3xx_HAL_Driver/Src/stm32f3xx_hal_uart.c **** 
 478:Drivers/STM32F3xx_HAL_Driver/Src/stm32f3xx_hal_uart.c ****   /* Set the USART LIN Break detection length. */
 479:Drivers/STM32F3xx_HAL_Driver/Src/stm32f3xx_hal_uart.c ****   MODIFY_REG(huart->Instance->CR2, USART_CR2_LBDL, BreakDetectLength);
 480:Drivers/STM32F3xx_HAL_Driver/Src/stm32f3xx_hal_uart.c **** 
 481:Drivers/STM32F3xx_HAL_Driver/Src/stm32f3xx_hal_uart.c ****   /* Enable the Peripheral */
 482:Drivers/STM32F3xx_HAL_Driver/Src/stm32f3xx_hal_uart.c ****   __HAL_UART_ENABLE(huart);
 483:Drivers/STM32F3xx_HAL_Driver/Src/stm32f3xx_hal_uart.c **** 
 484:Drivers/STM32F3xx_HAL_Driver/Src/stm32f3xx_hal_uart.c ****   /* TEACK and/or REACK to check before moving huart->gState and huart->RxState to Ready */
ARM GAS  /var/folders/8c/gyvcglfx7f97kbqb2h83mm_r0000gn/T//ccv1qdBn.s 			page 10


 485:Drivers/STM32F3xx_HAL_Driver/Src/stm32f3xx_hal_uart.c ****   return (UART_CheckIdleState(huart));
 486:Drivers/STM32F3xx_HAL_Driver/Src/stm32f3xx_hal_uart.c **** }
 487:Drivers/STM32F3xx_HAL_Driver/Src/stm32f3xx_hal_uart.c **** 
 488:Drivers/STM32F3xx_HAL_Driver/Src/stm32f3xx_hal_uart.c **** 
 489:Drivers/STM32F3xx_HAL_Driver/Src/stm32f3xx_hal_uart.c **** /**
 490:Drivers/STM32F3xx_HAL_Driver/Src/stm32f3xx_hal_uart.c ****   * @brief Initialize the multiprocessor mode according to the specified
 491:Drivers/STM32F3xx_HAL_Driver/Src/stm32f3xx_hal_uart.c ****   *        parameters in the UART_InitTypeDef and initialize the associated handle.
 492:Drivers/STM32F3xx_HAL_Driver/Src/stm32f3xx_hal_uart.c ****   * @param huart UART handle.
 493:Drivers/STM32F3xx_HAL_Driver/Src/stm32f3xx_hal_uart.c ****   * @param Address UART node address (4-, 6-, 7- or 8-bit long).
 494:Drivers/STM32F3xx_HAL_Driver/Src/stm32f3xx_hal_uart.c ****   * @param WakeUpMethod specifies the UART wakeup method.
 495:Drivers/STM32F3xx_HAL_Driver/Src/stm32f3xx_hal_uart.c ****   *        This parameter can be one of the following values:
 496:Drivers/STM32F3xx_HAL_Driver/Src/stm32f3xx_hal_uart.c ****   *          @arg @ref UART_WAKEUPMETHOD_IDLELINE WakeUp by an idle line detection
 497:Drivers/STM32F3xx_HAL_Driver/Src/stm32f3xx_hal_uart.c ****   *          @arg @ref UART_WAKEUPMETHOD_ADDRESSMARK WakeUp by an address mark
 498:Drivers/STM32F3xx_HAL_Driver/Src/stm32f3xx_hal_uart.c ****   * @note  If the user resorts to idle line detection wake up, the Address parameter
 499:Drivers/STM32F3xx_HAL_Driver/Src/stm32f3xx_hal_uart.c ****   *        is useless and ignored by the initialization function.
 500:Drivers/STM32F3xx_HAL_Driver/Src/stm32f3xx_hal_uart.c ****   * @note  If the user resorts to address mark wake up, the address length detection
 501:Drivers/STM32F3xx_HAL_Driver/Src/stm32f3xx_hal_uart.c ****   *        is configured by default to 4 bits only. For the UART to be able to
 502:Drivers/STM32F3xx_HAL_Driver/Src/stm32f3xx_hal_uart.c ****   *        manage 6-, 7- or 8-bit long addresses detection, the API
 503:Drivers/STM32F3xx_HAL_Driver/Src/stm32f3xx_hal_uart.c ****   *        HAL_MultiProcessorEx_AddressLength_Set() must be called after
 504:Drivers/STM32F3xx_HAL_Driver/Src/stm32f3xx_hal_uart.c ****   *        HAL_MultiProcessor_Init().
 505:Drivers/STM32F3xx_HAL_Driver/Src/stm32f3xx_hal_uart.c ****   * @retval HAL status
 506:Drivers/STM32F3xx_HAL_Driver/Src/stm32f3xx_hal_uart.c ****   */
 507:Drivers/STM32F3xx_HAL_Driver/Src/stm32f3xx_hal_uart.c **** HAL_StatusTypeDef HAL_MultiProcessor_Init(UART_HandleTypeDef *huart, uint8_t Address, uint32_t Wake
 508:Drivers/STM32F3xx_HAL_Driver/Src/stm32f3xx_hal_uart.c **** {
 509:Drivers/STM32F3xx_HAL_Driver/Src/stm32f3xx_hal_uart.c ****   /* Check the UART handle allocation */
 510:Drivers/STM32F3xx_HAL_Driver/Src/stm32f3xx_hal_uart.c ****   if(huart == NULL)
 511:Drivers/STM32F3xx_HAL_Driver/Src/stm32f3xx_hal_uart.c ****   {
 512:Drivers/STM32F3xx_HAL_Driver/Src/stm32f3xx_hal_uart.c ****     return HAL_ERROR;
 513:Drivers/STM32F3xx_HAL_Driver/Src/stm32f3xx_hal_uart.c ****   }
 514:Drivers/STM32F3xx_HAL_Driver/Src/stm32f3xx_hal_uart.c **** 
 515:Drivers/STM32F3xx_HAL_Driver/Src/stm32f3xx_hal_uart.c ****   /* Check the wake up method parameter */
 516:Drivers/STM32F3xx_HAL_Driver/Src/stm32f3xx_hal_uart.c ****   assert_param(IS_UART_WAKEUPMETHOD(WakeUpMethod));
 517:Drivers/STM32F3xx_HAL_Driver/Src/stm32f3xx_hal_uart.c **** 
 518:Drivers/STM32F3xx_HAL_Driver/Src/stm32f3xx_hal_uart.c ****   if(huart->gState == HAL_UART_STATE_RESET)
 519:Drivers/STM32F3xx_HAL_Driver/Src/stm32f3xx_hal_uart.c ****   {
 520:Drivers/STM32F3xx_HAL_Driver/Src/stm32f3xx_hal_uart.c ****     /* Allocate lock resource and initialize it */
 521:Drivers/STM32F3xx_HAL_Driver/Src/stm32f3xx_hal_uart.c ****     huart->Lock = HAL_UNLOCKED;
 522:Drivers/STM32F3xx_HAL_Driver/Src/stm32f3xx_hal_uart.c **** 
 523:Drivers/STM32F3xx_HAL_Driver/Src/stm32f3xx_hal_uart.c ****     /* Init the low level hardware : GPIO, CLOCK */
 524:Drivers/STM32F3xx_HAL_Driver/Src/stm32f3xx_hal_uart.c ****     HAL_UART_MspInit(huart);
 525:Drivers/STM32F3xx_HAL_Driver/Src/stm32f3xx_hal_uart.c ****   }
 526:Drivers/STM32F3xx_HAL_Driver/Src/stm32f3xx_hal_uart.c **** 
 527:Drivers/STM32F3xx_HAL_Driver/Src/stm32f3xx_hal_uart.c ****   huart->gState = HAL_UART_STATE_BUSY;
 528:Drivers/STM32F3xx_HAL_Driver/Src/stm32f3xx_hal_uart.c **** 
 529:Drivers/STM32F3xx_HAL_Driver/Src/stm32f3xx_hal_uart.c ****   /* Disable the Peripheral */
 530:Drivers/STM32F3xx_HAL_Driver/Src/stm32f3xx_hal_uart.c ****   __HAL_UART_DISABLE(huart);
 531:Drivers/STM32F3xx_HAL_Driver/Src/stm32f3xx_hal_uart.c **** 
 532:Drivers/STM32F3xx_HAL_Driver/Src/stm32f3xx_hal_uart.c ****   /* Set the UART Communication parameters */
 533:Drivers/STM32F3xx_HAL_Driver/Src/stm32f3xx_hal_uart.c ****   if (UART_SetConfig(huart) == HAL_ERROR)
 534:Drivers/STM32F3xx_HAL_Driver/Src/stm32f3xx_hal_uart.c ****   {
 535:Drivers/STM32F3xx_HAL_Driver/Src/stm32f3xx_hal_uart.c ****     return HAL_ERROR;
 536:Drivers/STM32F3xx_HAL_Driver/Src/stm32f3xx_hal_uart.c ****   }
 537:Drivers/STM32F3xx_HAL_Driver/Src/stm32f3xx_hal_uart.c **** 
 538:Drivers/STM32F3xx_HAL_Driver/Src/stm32f3xx_hal_uart.c ****   if (huart->AdvancedInit.AdvFeatureInit != UART_ADVFEATURE_NO_INIT)
 539:Drivers/STM32F3xx_HAL_Driver/Src/stm32f3xx_hal_uart.c ****   {
 540:Drivers/STM32F3xx_HAL_Driver/Src/stm32f3xx_hal_uart.c ****     UART_AdvFeatureConfig(huart);
 541:Drivers/STM32F3xx_HAL_Driver/Src/stm32f3xx_hal_uart.c ****   }
ARM GAS  /var/folders/8c/gyvcglfx7f97kbqb2h83mm_r0000gn/T//ccv1qdBn.s 			page 11


 542:Drivers/STM32F3xx_HAL_Driver/Src/stm32f3xx_hal_uart.c **** 
 543:Drivers/STM32F3xx_HAL_Driver/Src/stm32f3xx_hal_uart.c ****   /* In multiprocessor mode, the following bits must be kept cleared:
 544:Drivers/STM32F3xx_HAL_Driver/Src/stm32f3xx_hal_uart.c ****   - LINEN and CLKEN bits in the USART_CR2 register,
 545:Drivers/STM32F3xx_HAL_Driver/Src/stm32f3xx_hal_uart.c ****   - SCEN, HDSEL and IREN  bits in the USART_CR3 register. */
 546:Drivers/STM32F3xx_HAL_Driver/Src/stm32f3xx_hal_uart.c ****   CLEAR_BIT(huart->Instance->CR2, (USART_CR2_LINEN | USART_CR2_CLKEN));
 547:Drivers/STM32F3xx_HAL_Driver/Src/stm32f3xx_hal_uart.c ****   CLEAR_BIT(huart->Instance->CR3, (USART_CR3_SCEN | USART_CR3_HDSEL | USART_CR3_IREN));
 548:Drivers/STM32F3xx_HAL_Driver/Src/stm32f3xx_hal_uart.c **** 
 549:Drivers/STM32F3xx_HAL_Driver/Src/stm32f3xx_hal_uart.c ****   if (WakeUpMethod == UART_WAKEUPMETHOD_ADDRESSMARK)
 550:Drivers/STM32F3xx_HAL_Driver/Src/stm32f3xx_hal_uart.c ****   {
 551:Drivers/STM32F3xx_HAL_Driver/Src/stm32f3xx_hal_uart.c ****     /* If address mark wake up method is chosen, set the USART address node */
 552:Drivers/STM32F3xx_HAL_Driver/Src/stm32f3xx_hal_uart.c ****     MODIFY_REG(huart->Instance->CR2, USART_CR2_ADD, ((uint32_t)Address << UART_CR2_ADDRESS_LSB_POS)
 553:Drivers/STM32F3xx_HAL_Driver/Src/stm32f3xx_hal_uart.c ****   }
 554:Drivers/STM32F3xx_HAL_Driver/Src/stm32f3xx_hal_uart.c **** 
 555:Drivers/STM32F3xx_HAL_Driver/Src/stm32f3xx_hal_uart.c ****   /* Set the wake up method by setting the WAKE bit in the CR1 register */
 556:Drivers/STM32F3xx_HAL_Driver/Src/stm32f3xx_hal_uart.c ****   MODIFY_REG(huart->Instance->CR1, USART_CR1_WAKE, WakeUpMethod);
 557:Drivers/STM32F3xx_HAL_Driver/Src/stm32f3xx_hal_uart.c **** 
 558:Drivers/STM32F3xx_HAL_Driver/Src/stm32f3xx_hal_uart.c ****   /* Enable the Peripheral */
 559:Drivers/STM32F3xx_HAL_Driver/Src/stm32f3xx_hal_uart.c ****   __HAL_UART_ENABLE(huart);
 560:Drivers/STM32F3xx_HAL_Driver/Src/stm32f3xx_hal_uart.c **** 
 561:Drivers/STM32F3xx_HAL_Driver/Src/stm32f3xx_hal_uart.c ****   /* TEACK and/or REACK to check before moving huart->gState and huart->RxState to Ready */
 562:Drivers/STM32F3xx_HAL_Driver/Src/stm32f3xx_hal_uart.c ****   return (UART_CheckIdleState(huart));
 563:Drivers/STM32F3xx_HAL_Driver/Src/stm32f3xx_hal_uart.c **** }
 564:Drivers/STM32F3xx_HAL_Driver/Src/stm32f3xx_hal_uart.c **** 
 565:Drivers/STM32F3xx_HAL_Driver/Src/stm32f3xx_hal_uart.c **** 
 566:Drivers/STM32F3xx_HAL_Driver/Src/stm32f3xx_hal_uart.c **** /**
 567:Drivers/STM32F3xx_HAL_Driver/Src/stm32f3xx_hal_uart.c ****   * @brief DeInitialize the UART peripheral.
 568:Drivers/STM32F3xx_HAL_Driver/Src/stm32f3xx_hal_uart.c ****   * @param huart UART handle.
 569:Drivers/STM32F3xx_HAL_Driver/Src/stm32f3xx_hal_uart.c ****   * @retval HAL status
 570:Drivers/STM32F3xx_HAL_Driver/Src/stm32f3xx_hal_uart.c ****   */
 571:Drivers/STM32F3xx_HAL_Driver/Src/stm32f3xx_hal_uart.c **** HAL_StatusTypeDef HAL_UART_DeInit(UART_HandleTypeDef *huart)
 572:Drivers/STM32F3xx_HAL_Driver/Src/stm32f3xx_hal_uart.c **** {
 573:Drivers/STM32F3xx_HAL_Driver/Src/stm32f3xx_hal_uart.c ****   /* Check the UART handle allocation */
 574:Drivers/STM32F3xx_HAL_Driver/Src/stm32f3xx_hal_uart.c ****   if(huart == NULL)
 575:Drivers/STM32F3xx_HAL_Driver/Src/stm32f3xx_hal_uart.c ****   {
 576:Drivers/STM32F3xx_HAL_Driver/Src/stm32f3xx_hal_uart.c ****     return HAL_ERROR;
 577:Drivers/STM32F3xx_HAL_Driver/Src/stm32f3xx_hal_uart.c ****   }
 578:Drivers/STM32F3xx_HAL_Driver/Src/stm32f3xx_hal_uart.c **** 
 579:Drivers/STM32F3xx_HAL_Driver/Src/stm32f3xx_hal_uart.c ****   /* Check the parameters */
 580:Drivers/STM32F3xx_HAL_Driver/Src/stm32f3xx_hal_uart.c ****   assert_param(IS_UART_INSTANCE(huart->Instance));
 581:Drivers/STM32F3xx_HAL_Driver/Src/stm32f3xx_hal_uart.c **** 
 582:Drivers/STM32F3xx_HAL_Driver/Src/stm32f3xx_hal_uart.c ****   huart->gState = HAL_UART_STATE_BUSY;
 583:Drivers/STM32F3xx_HAL_Driver/Src/stm32f3xx_hal_uart.c **** 
 584:Drivers/STM32F3xx_HAL_Driver/Src/stm32f3xx_hal_uart.c ****   /* Disable the Peripheral */
 585:Drivers/STM32F3xx_HAL_Driver/Src/stm32f3xx_hal_uart.c ****   __HAL_UART_DISABLE(huart);
 586:Drivers/STM32F3xx_HAL_Driver/Src/stm32f3xx_hal_uart.c **** 
 587:Drivers/STM32F3xx_HAL_Driver/Src/stm32f3xx_hal_uart.c ****   huart->Instance->CR1 = 0x0U;
 588:Drivers/STM32F3xx_HAL_Driver/Src/stm32f3xx_hal_uart.c ****   huart->Instance->CR2 = 0x0U;
 589:Drivers/STM32F3xx_HAL_Driver/Src/stm32f3xx_hal_uart.c ****   huart->Instance->CR3 = 0x0U;
 590:Drivers/STM32F3xx_HAL_Driver/Src/stm32f3xx_hal_uart.c **** 
 591:Drivers/STM32F3xx_HAL_Driver/Src/stm32f3xx_hal_uart.c ****   /* DeInit the low level hardware */
 592:Drivers/STM32F3xx_HAL_Driver/Src/stm32f3xx_hal_uart.c ****   HAL_UART_MspDeInit(huart);
 593:Drivers/STM32F3xx_HAL_Driver/Src/stm32f3xx_hal_uart.c **** 
 594:Drivers/STM32F3xx_HAL_Driver/Src/stm32f3xx_hal_uart.c ****   huart->ErrorCode = HAL_UART_ERROR_NONE;
 595:Drivers/STM32F3xx_HAL_Driver/Src/stm32f3xx_hal_uart.c ****   huart->gState    = HAL_UART_STATE_RESET;
 596:Drivers/STM32F3xx_HAL_Driver/Src/stm32f3xx_hal_uart.c ****   huart->RxState   = HAL_UART_STATE_RESET;
 597:Drivers/STM32F3xx_HAL_Driver/Src/stm32f3xx_hal_uart.c **** 
 598:Drivers/STM32F3xx_HAL_Driver/Src/stm32f3xx_hal_uart.c ****   /* Process Unlock */
ARM GAS  /var/folders/8c/gyvcglfx7f97kbqb2h83mm_r0000gn/T//ccv1qdBn.s 			page 12


 599:Drivers/STM32F3xx_HAL_Driver/Src/stm32f3xx_hal_uart.c ****   __HAL_UNLOCK(huart);
 600:Drivers/STM32F3xx_HAL_Driver/Src/stm32f3xx_hal_uart.c **** 
 601:Drivers/STM32F3xx_HAL_Driver/Src/stm32f3xx_hal_uart.c ****   return HAL_OK;
 602:Drivers/STM32F3xx_HAL_Driver/Src/stm32f3xx_hal_uart.c **** }
 603:Drivers/STM32F3xx_HAL_Driver/Src/stm32f3xx_hal_uart.c **** 
 604:Drivers/STM32F3xx_HAL_Driver/Src/stm32f3xx_hal_uart.c **** /**
 605:Drivers/STM32F3xx_HAL_Driver/Src/stm32f3xx_hal_uart.c ****   * @brief Initialize the UART MSP.
 606:Drivers/STM32F3xx_HAL_Driver/Src/stm32f3xx_hal_uart.c ****   * @param huart UART handle.
 607:Drivers/STM32F3xx_HAL_Driver/Src/stm32f3xx_hal_uart.c ****   * @retval None
 608:Drivers/STM32F3xx_HAL_Driver/Src/stm32f3xx_hal_uart.c ****   */
 609:Drivers/STM32F3xx_HAL_Driver/Src/stm32f3xx_hal_uart.c **** __weak void HAL_UART_MspInit(UART_HandleTypeDef *huart)
 610:Drivers/STM32F3xx_HAL_Driver/Src/stm32f3xx_hal_uart.c **** {
  31              		.loc 1 610 1 view -0
  32              		.cfi_startproc
  33              		@ args = 0, pretend = 0, frame = 0
  34              		@ frame_needed = 0, uses_anonymous_args = 0
  35              		@ link register save eliminated.
 611:Drivers/STM32F3xx_HAL_Driver/Src/stm32f3xx_hal_uart.c ****   /* Prevent unused argument(s) compilation warning */
 612:Drivers/STM32F3xx_HAL_Driver/Src/stm32f3xx_hal_uart.c ****   UNUSED(huart);
  36              		.loc 1 612 3 view .LVU1
 613:Drivers/STM32F3xx_HAL_Driver/Src/stm32f3xx_hal_uart.c **** 
 614:Drivers/STM32F3xx_HAL_Driver/Src/stm32f3xx_hal_uart.c ****   /* NOTE : This function should not be modified, when the callback is needed,
 615:Drivers/STM32F3xx_HAL_Driver/Src/stm32f3xx_hal_uart.c ****             the HAL_UART_MspInit can be implemented in the user file
 616:Drivers/STM32F3xx_HAL_Driver/Src/stm32f3xx_hal_uart.c ****    */
 617:Drivers/STM32F3xx_HAL_Driver/Src/stm32f3xx_hal_uart.c **** }
  37              		.loc 1 617 1 is_stmt 0 view .LVU2
  38 0000 7047     		bx	lr
  39              		.cfi_endproc
  40              	.LFE131:
  42 0002 00BF     		.section	.text.HAL_UART_MspDeInit,"ax",%progbits
  43              		.align	1
  44              		.p2align 2,,3
  45              		.weak	HAL_UART_MspDeInit
  46              		.syntax unified
  47              		.thumb
  48              		.thumb_func
  49              		.fpu fpv4-sp-d16
  51              	HAL_UART_MspDeInit:
  52              	.LFB189:
  53              		.cfi_startproc
  54              		@ args = 0, pretend = 0, frame = 0
  55              		@ frame_needed = 0, uses_anonymous_args = 0
  56              		@ link register save eliminated.
  57 0000 7047     		bx	lr
  58              		.cfi_endproc
  59              	.LFE189:
  61 0002 00BF     		.section	.text.HAL_UART_DeInit,"ax",%progbits
  62              		.align	1
  63              		.p2align 2,,3
  64              		.global	HAL_UART_DeInit
  65              		.syntax unified
  66              		.thumb
  67              		.thumb_func
  68              		.fpu fpv4-sp-d16
  70              	HAL_UART_DeInit:
  71              	.LVL1:
  72              	.LFB130:
ARM GAS  /var/folders/8c/gyvcglfx7f97kbqb2h83mm_r0000gn/T//ccv1qdBn.s 			page 13


 572:Drivers/STM32F3xx_HAL_Driver/Src/stm32f3xx_hal_uart.c ****   /* Check the UART handle allocation */
  73              		.loc 1 572 1 is_stmt 1 view -0
  74              		.cfi_startproc
  75              		@ args = 0, pretend = 0, frame = 0
  76              		@ frame_needed = 0, uses_anonymous_args = 0
 574:Drivers/STM32F3xx_HAL_Driver/Src/stm32f3xx_hal_uart.c ****   {
  77              		.loc 1 574 3 view .LVU4
 574:Drivers/STM32F3xx_HAL_Driver/Src/stm32f3xx_hal_uart.c ****   {
  78              		.loc 1 574 5 is_stmt 0 view .LVU5
  79 0000 C0B1     		cbz	r0, .L6
 572:Drivers/STM32F3xx_HAL_Driver/Src/stm32f3xx_hal_uart.c ****   /* Check the UART handle allocation */
  80              		.loc 1 572 1 view .LVU6
  81 0002 38B5     		push	{r3, r4, r5, lr}
  82              	.LCFI0:
  83              		.cfi_def_cfa_offset 16
  84              		.cfi_offset 3, -16
  85              		.cfi_offset 4, -12
  86              		.cfi_offset 5, -8
  87              		.cfi_offset 14, -4
 582:Drivers/STM32F3xx_HAL_Driver/Src/stm32f3xx_hal_uart.c **** 
  88              		.loc 1 582 17 view .LVU7
  89 0004 2422     		movs	r2, #36
 585:Drivers/STM32F3xx_HAL_Driver/Src/stm32f3xx_hal_uart.c **** 
  90              		.loc 1 585 3 view .LVU8
  91 0006 0368     		ldr	r3, [r0]
 582:Drivers/STM32F3xx_HAL_Driver/Src/stm32f3xx_hal_uart.c **** 
  92              		.loc 1 582 17 view .LVU9
  93 0008 80F86920 		strb	r2, [r0, #105]
 585:Drivers/STM32F3xx_HAL_Driver/Src/stm32f3xx_hal_uart.c **** 
  94              		.loc 1 585 3 view .LVU10
  95 000c 1A68     		ldr	r2, [r3]
 587:Drivers/STM32F3xx_HAL_Driver/Src/stm32f3xx_hal_uart.c ****   huart->Instance->CR2 = 0x0U;
  96              		.loc 1 587 24 view .LVU11
  97 000e 0025     		movs	r5, #0
  98 0010 0446     		mov	r4, r0
 580:Drivers/STM32F3xx_HAL_Driver/Src/stm32f3xx_hal_uart.c **** 
  99              		.loc 1 580 3 is_stmt 1 view .LVU12
 582:Drivers/STM32F3xx_HAL_Driver/Src/stm32f3xx_hal_uart.c **** 
 100              		.loc 1 582 3 view .LVU13
 585:Drivers/STM32F3xx_HAL_Driver/Src/stm32f3xx_hal_uart.c **** 
 101              		.loc 1 585 3 view .LVU14
 102 0012 22F00102 		bic	r2, r2, #1
 103 0016 1A60     		str	r2, [r3]
 587:Drivers/STM32F3xx_HAL_Driver/Src/stm32f3xx_hal_uart.c ****   huart->Instance->CR2 = 0x0U;
 104              		.loc 1 587 3 view .LVU15
 587:Drivers/STM32F3xx_HAL_Driver/Src/stm32f3xx_hal_uart.c ****   huart->Instance->CR2 = 0x0U;
 105              		.loc 1 587 24 is_stmt 0 view .LVU16
 106 0018 1D60     		str	r5, [r3]
 588:Drivers/STM32F3xx_HAL_Driver/Src/stm32f3xx_hal_uart.c ****   huart->Instance->CR3 = 0x0U;
 107              		.loc 1 588 3 is_stmt 1 view .LVU17
 588:Drivers/STM32F3xx_HAL_Driver/Src/stm32f3xx_hal_uart.c ****   huart->Instance->CR3 = 0x0U;
 108              		.loc 1 588 24 is_stmt 0 view .LVU18
 109 001a 5D60     		str	r5, [r3, #4]
 589:Drivers/STM32F3xx_HAL_Driver/Src/stm32f3xx_hal_uart.c **** 
 110              		.loc 1 589 3 is_stmt 1 view .LVU19
 589:Drivers/STM32F3xx_HAL_Driver/Src/stm32f3xx_hal_uart.c **** 
 111              		.loc 1 589 24 is_stmt 0 view .LVU20
ARM GAS  /var/folders/8c/gyvcglfx7f97kbqb2h83mm_r0000gn/T//ccv1qdBn.s 			page 14


 112 001c 9D60     		str	r5, [r3, #8]
 592:Drivers/STM32F3xx_HAL_Driver/Src/stm32f3xx_hal_uart.c **** 
 113              		.loc 1 592 3 is_stmt 1 view .LVU21
 114 001e FFF7FEFF 		bl	HAL_UART_MspDeInit
 115              	.LVL2:
 594:Drivers/STM32F3xx_HAL_Driver/Src/stm32f3xx_hal_uart.c ****   huart->gState    = HAL_UART_STATE_RESET;
 116              		.loc 1 594 3 view .LVU22
 594:Drivers/STM32F3xx_HAL_Driver/Src/stm32f3xx_hal_uart.c ****   huart->gState    = HAL_UART_STATE_RESET;
 117              		.loc 1 594 20 is_stmt 0 view .LVU23
 118 0022 E566     		str	r5, [r4, #108]
 595:Drivers/STM32F3xx_HAL_Driver/Src/stm32f3xx_hal_uart.c ****   huart->RxState   = HAL_UART_STATE_RESET;
 119              		.loc 1 595 3 is_stmt 1 view .LVU24
 599:Drivers/STM32F3xx_HAL_Driver/Src/stm32f3xx_hal_uart.c **** 
 120              		.loc 1 599 3 is_stmt 0 view .LVU25
 121 0024 84F86850 		strb	r5, [r4, #104]
 595:Drivers/STM32F3xx_HAL_Driver/Src/stm32f3xx_hal_uart.c ****   huart->RxState   = HAL_UART_STATE_RESET;
 122              		.loc 1 595 20 view .LVU26
 123 0028 84F86950 		strb	r5, [r4, #105]
 596:Drivers/STM32F3xx_HAL_Driver/Src/stm32f3xx_hal_uart.c **** 
 124              		.loc 1 596 3 is_stmt 1 view .LVU27
 601:Drivers/STM32F3xx_HAL_Driver/Src/stm32f3xx_hal_uart.c **** }
 125              		.loc 1 601 10 is_stmt 0 view .LVU28
 126 002c 2846     		mov	r0, r5
 596:Drivers/STM32F3xx_HAL_Driver/Src/stm32f3xx_hal_uart.c **** 
 127              		.loc 1 596 20 view .LVU29
 128 002e 84F86A50 		strb	r5, [r4, #106]
 599:Drivers/STM32F3xx_HAL_Driver/Src/stm32f3xx_hal_uart.c **** 
 129              		.loc 1 599 3 is_stmt 1 view .LVU30
 599:Drivers/STM32F3xx_HAL_Driver/Src/stm32f3xx_hal_uart.c **** 
 130              		.loc 1 599 3 view .LVU31
 601:Drivers/STM32F3xx_HAL_Driver/Src/stm32f3xx_hal_uart.c **** }
 131              		.loc 1 601 3 view .LVU32
 602:Drivers/STM32F3xx_HAL_Driver/Src/stm32f3xx_hal_uart.c **** 
 132              		.loc 1 602 1 is_stmt 0 view .LVU33
 133 0032 38BD     		pop	{r3, r4, r5, pc}
 134              	.LVL3:
 135              	.L6:
 136              	.LCFI1:
 137              		.cfi_def_cfa_offset 0
 138              		.cfi_restore 3
 139              		.cfi_restore 4
 140              		.cfi_restore 5
 141              		.cfi_restore 14
 576:Drivers/STM32F3xx_HAL_Driver/Src/stm32f3xx_hal_uart.c ****   }
 142              		.loc 1 576 12 view .LVU34
 143 0034 0120     		movs	r0, #1
 144              	.LVL4:
 602:Drivers/STM32F3xx_HAL_Driver/Src/stm32f3xx_hal_uart.c **** 
 145              		.loc 1 602 1 view .LVU35
 146 0036 7047     		bx	lr
 147              		.cfi_endproc
 148              	.LFE130:
 150              		.section	.text.HAL_UART_Transmit_IT,"ax",%progbits
 151              		.align	1
 152              		.p2align 2,,3
 153              		.global	HAL_UART_Transmit_IT
 154              		.syntax unified
ARM GAS  /var/folders/8c/gyvcglfx7f97kbqb2h83mm_r0000gn/T//ccv1qdBn.s 			page 15


 155              		.thumb
 156              		.thumb_func
 157              		.fpu fpv4-sp-d16
 159              	HAL_UART_Transmit_IT:
 160              	.LVL5:
 161              	.LFB135:
 618:Drivers/STM32F3xx_HAL_Driver/Src/stm32f3xx_hal_uart.c **** 
 619:Drivers/STM32F3xx_HAL_Driver/Src/stm32f3xx_hal_uart.c **** /**
 620:Drivers/STM32F3xx_HAL_Driver/Src/stm32f3xx_hal_uart.c ****   * @brief DeInitialize the UART MSP.
 621:Drivers/STM32F3xx_HAL_Driver/Src/stm32f3xx_hal_uart.c ****   * @param huart UART handle.
 622:Drivers/STM32F3xx_HAL_Driver/Src/stm32f3xx_hal_uart.c ****   * @retval None
 623:Drivers/STM32F3xx_HAL_Driver/Src/stm32f3xx_hal_uart.c ****   */
 624:Drivers/STM32F3xx_HAL_Driver/Src/stm32f3xx_hal_uart.c **** __weak void HAL_UART_MspDeInit(UART_HandleTypeDef *huart)
 625:Drivers/STM32F3xx_HAL_Driver/Src/stm32f3xx_hal_uart.c **** {
 626:Drivers/STM32F3xx_HAL_Driver/Src/stm32f3xx_hal_uart.c ****   /* Prevent unused argument(s) compilation warning */
 627:Drivers/STM32F3xx_HAL_Driver/Src/stm32f3xx_hal_uart.c ****   UNUSED(huart);
 628:Drivers/STM32F3xx_HAL_Driver/Src/stm32f3xx_hal_uart.c **** 
 629:Drivers/STM32F3xx_HAL_Driver/Src/stm32f3xx_hal_uart.c ****   /* NOTE : This function should not be modified, when the callback is needed,
 630:Drivers/STM32F3xx_HAL_Driver/Src/stm32f3xx_hal_uart.c ****             the HAL_UART_MspDeInit can be implemented in the user file
 631:Drivers/STM32F3xx_HAL_Driver/Src/stm32f3xx_hal_uart.c ****    */
 632:Drivers/STM32F3xx_HAL_Driver/Src/stm32f3xx_hal_uart.c **** }
 633:Drivers/STM32F3xx_HAL_Driver/Src/stm32f3xx_hal_uart.c **** 
 634:Drivers/STM32F3xx_HAL_Driver/Src/stm32f3xx_hal_uart.c **** /**
 635:Drivers/STM32F3xx_HAL_Driver/Src/stm32f3xx_hal_uart.c ****   * @}
 636:Drivers/STM32F3xx_HAL_Driver/Src/stm32f3xx_hal_uart.c ****   */
 637:Drivers/STM32F3xx_HAL_Driver/Src/stm32f3xx_hal_uart.c **** 
 638:Drivers/STM32F3xx_HAL_Driver/Src/stm32f3xx_hal_uart.c **** /** @defgroup UART_Exported_Functions_Group2 IO operation functions
 639:Drivers/STM32F3xx_HAL_Driver/Src/stm32f3xx_hal_uart.c ****   * @brief UART Transmit/Receive functions
 640:Drivers/STM32F3xx_HAL_Driver/Src/stm32f3xx_hal_uart.c ****   *
 641:Drivers/STM32F3xx_HAL_Driver/Src/stm32f3xx_hal_uart.c **** @verbatim
 642:Drivers/STM32F3xx_HAL_Driver/Src/stm32f3xx_hal_uart.c ****  ===============================================================================
 643:Drivers/STM32F3xx_HAL_Driver/Src/stm32f3xx_hal_uart.c ****                       ##### IO operation functions #####
 644:Drivers/STM32F3xx_HAL_Driver/Src/stm32f3xx_hal_uart.c ****  ===============================================================================
 645:Drivers/STM32F3xx_HAL_Driver/Src/stm32f3xx_hal_uart.c ****     This subsection provides a set of functions allowing to manage the UART asynchronous
 646:Drivers/STM32F3xx_HAL_Driver/Src/stm32f3xx_hal_uart.c ****     and Half duplex data transfers.
 647:Drivers/STM32F3xx_HAL_Driver/Src/stm32f3xx_hal_uart.c **** 
 648:Drivers/STM32F3xx_HAL_Driver/Src/stm32f3xx_hal_uart.c ****     (#) There are two mode of transfer:
 649:Drivers/STM32F3xx_HAL_Driver/Src/stm32f3xx_hal_uart.c ****        (++) Blocking mode: The communication is performed in polling mode.
 650:Drivers/STM32F3xx_HAL_Driver/Src/stm32f3xx_hal_uart.c ****            The HAL status of all data processing is returned by the same function
 651:Drivers/STM32F3xx_HAL_Driver/Src/stm32f3xx_hal_uart.c ****            after finishing transfer.
 652:Drivers/STM32F3xx_HAL_Driver/Src/stm32f3xx_hal_uart.c ****        (++) Non-Blocking mode: The communication is performed using Interrupts
 653:Drivers/STM32F3xx_HAL_Driver/Src/stm32f3xx_hal_uart.c ****            or DMA, These API's return the HAL status.
 654:Drivers/STM32F3xx_HAL_Driver/Src/stm32f3xx_hal_uart.c ****            The end of the data processing will be indicated through the
 655:Drivers/STM32F3xx_HAL_Driver/Src/stm32f3xx_hal_uart.c ****            dedicated UART IRQ when using Interrupt mode or the DMA IRQ when
 656:Drivers/STM32F3xx_HAL_Driver/Src/stm32f3xx_hal_uart.c ****            using DMA mode.
 657:Drivers/STM32F3xx_HAL_Driver/Src/stm32f3xx_hal_uart.c ****            The HAL_UART_TxCpltCallback(), HAL_UART_RxCpltCallback() user callbacks
 658:Drivers/STM32F3xx_HAL_Driver/Src/stm32f3xx_hal_uart.c ****            will be executed respectively at the end of the transmit or Receive process
 659:Drivers/STM32F3xx_HAL_Driver/Src/stm32f3xx_hal_uart.c ****            The HAL_UART_ErrorCallback()user callback will be executed when a communication error is
 660:Drivers/STM32F3xx_HAL_Driver/Src/stm32f3xx_hal_uart.c **** 
 661:Drivers/STM32F3xx_HAL_Driver/Src/stm32f3xx_hal_uart.c ****     (#) Blocking mode API's are :
 662:Drivers/STM32F3xx_HAL_Driver/Src/stm32f3xx_hal_uart.c ****         (++) HAL_UART_Transmit()
 663:Drivers/STM32F3xx_HAL_Driver/Src/stm32f3xx_hal_uart.c ****         (++) HAL_UART_Receive()
 664:Drivers/STM32F3xx_HAL_Driver/Src/stm32f3xx_hal_uart.c **** 
 665:Drivers/STM32F3xx_HAL_Driver/Src/stm32f3xx_hal_uart.c ****     (#) Non-Blocking mode API's with Interrupt are :
 666:Drivers/STM32F3xx_HAL_Driver/Src/stm32f3xx_hal_uart.c ****         (++) HAL_UART_Transmit_IT()
 667:Drivers/STM32F3xx_HAL_Driver/Src/stm32f3xx_hal_uart.c ****         (++) HAL_UART_Receive_IT()
 668:Drivers/STM32F3xx_HAL_Driver/Src/stm32f3xx_hal_uart.c ****         (++) HAL_UART_IRQHandler()
ARM GAS  /var/folders/8c/gyvcglfx7f97kbqb2h83mm_r0000gn/T//ccv1qdBn.s 			page 16


 669:Drivers/STM32F3xx_HAL_Driver/Src/stm32f3xx_hal_uart.c **** 
 670:Drivers/STM32F3xx_HAL_Driver/Src/stm32f3xx_hal_uart.c ****     (#) Non-Blocking mode API's with DMA are :
 671:Drivers/STM32F3xx_HAL_Driver/Src/stm32f3xx_hal_uart.c ****         (++) HAL_UART_Transmit_DMA()
 672:Drivers/STM32F3xx_HAL_Driver/Src/stm32f3xx_hal_uart.c ****         (++) HAL_UART_Receive_DMA()
 673:Drivers/STM32F3xx_HAL_Driver/Src/stm32f3xx_hal_uart.c ****         (++) HAL_UART_DMAPause()
 674:Drivers/STM32F3xx_HAL_Driver/Src/stm32f3xx_hal_uart.c ****         (++) HAL_UART_DMAResume()
 675:Drivers/STM32F3xx_HAL_Driver/Src/stm32f3xx_hal_uart.c ****         (++) HAL_UART_DMAStop()
 676:Drivers/STM32F3xx_HAL_Driver/Src/stm32f3xx_hal_uart.c **** 
 677:Drivers/STM32F3xx_HAL_Driver/Src/stm32f3xx_hal_uart.c ****     (#) A set of Transfer Complete Callbacks are provided in Non_Blocking mode:
 678:Drivers/STM32F3xx_HAL_Driver/Src/stm32f3xx_hal_uart.c ****         (++) HAL_UART_TxHalfCpltCallback()
 679:Drivers/STM32F3xx_HAL_Driver/Src/stm32f3xx_hal_uart.c ****         (++) HAL_UART_TxCpltCallback()
 680:Drivers/STM32F3xx_HAL_Driver/Src/stm32f3xx_hal_uart.c ****         (++) HAL_UART_RxHalfCpltCallback()
 681:Drivers/STM32F3xx_HAL_Driver/Src/stm32f3xx_hal_uart.c ****         (++) HAL_UART_RxCpltCallback()
 682:Drivers/STM32F3xx_HAL_Driver/Src/stm32f3xx_hal_uart.c ****         (++) HAL_UART_ErrorCallback()
 683:Drivers/STM32F3xx_HAL_Driver/Src/stm32f3xx_hal_uart.c **** 
 684:Drivers/STM32F3xx_HAL_Driver/Src/stm32f3xx_hal_uart.c ****     (#) Non-Blocking mode transfers could be aborted using Abort API's :
 685:Drivers/STM32F3xx_HAL_Driver/Src/stm32f3xx_hal_uart.c ****         (++) HAL_UART_Abort()
 686:Drivers/STM32F3xx_HAL_Driver/Src/stm32f3xx_hal_uart.c ****         (++) HAL_UART_AbortTransmit()
 687:Drivers/STM32F3xx_HAL_Driver/Src/stm32f3xx_hal_uart.c ****         (++) HAL_UART_AbortReceive()
 688:Drivers/STM32F3xx_HAL_Driver/Src/stm32f3xx_hal_uart.c ****         (++) HAL_UART_Abort_IT()
 689:Drivers/STM32F3xx_HAL_Driver/Src/stm32f3xx_hal_uart.c ****         (++) HAL_UART_AbortTransmit_IT()
 690:Drivers/STM32F3xx_HAL_Driver/Src/stm32f3xx_hal_uart.c ****         (++) HAL_UART_AbortReceive_IT()
 691:Drivers/STM32F3xx_HAL_Driver/Src/stm32f3xx_hal_uart.c **** 
 692:Drivers/STM32F3xx_HAL_Driver/Src/stm32f3xx_hal_uart.c ****     (#) For Abort services based on interrupts (HAL_UART_Abortxxx_IT), a set of Abort Complete Call
 693:Drivers/STM32F3xx_HAL_Driver/Src/stm32f3xx_hal_uart.c ****         (++) HAL_UART_AbortCpltCallback()
 694:Drivers/STM32F3xx_HAL_Driver/Src/stm32f3xx_hal_uart.c ****         (++) HAL_UART_AbortTransmitCpltCallback()
 695:Drivers/STM32F3xx_HAL_Driver/Src/stm32f3xx_hal_uart.c ****         (++) HAL_UART_AbortReceiveCpltCallback()
 696:Drivers/STM32F3xx_HAL_Driver/Src/stm32f3xx_hal_uart.c **** 
 697:Drivers/STM32F3xx_HAL_Driver/Src/stm32f3xx_hal_uart.c ****     (#) In Non-Blocking mode transfers, possible errors are split into 2 categories.
 698:Drivers/STM32F3xx_HAL_Driver/Src/stm32f3xx_hal_uart.c ****         Errors are handled as follows :
 699:Drivers/STM32F3xx_HAL_Driver/Src/stm32f3xx_hal_uart.c ****         (++) Error is considered as Recoverable and non blocking : Transfer could go till end, but 
 700:Drivers/STM32F3xx_HAL_Driver/Src/stm32f3xx_hal_uart.c ****              to be evaluated by user : this concerns Frame Error, Parity Error or Noise Error in In
 701:Drivers/STM32F3xx_HAL_Driver/Src/stm32f3xx_hal_uart.c ****              Received character is then retrieved and stored in Rx buffer, Error code is set to all
 702:Drivers/STM32F3xx_HAL_Driver/Src/stm32f3xx_hal_uart.c ****              and HAL_UART_ErrorCallback() user callback is executed. Transfer is kept ongoing on UA
 703:Drivers/STM32F3xx_HAL_Driver/Src/stm32f3xx_hal_uart.c ****              If user wants to abort it, Abort services should be called by user.
 704:Drivers/STM32F3xx_HAL_Driver/Src/stm32f3xx_hal_uart.c ****         (++) Error is considered as Blocking : Transfer could not be completed properly and is abor
 705:Drivers/STM32F3xx_HAL_Driver/Src/stm32f3xx_hal_uart.c ****              This concerns Overrun Error In Interrupt mode reception and all errors in DMA mode.
 706:Drivers/STM32F3xx_HAL_Driver/Src/stm32f3xx_hal_uart.c ****              Error code is set to allow user to identify error type, and HAL_UART_ErrorCallback() u
 707:Drivers/STM32F3xx_HAL_Driver/Src/stm32f3xx_hal_uart.c **** 
 708:Drivers/STM32F3xx_HAL_Driver/Src/stm32f3xx_hal_uart.c ****     -@- In the Half duplex communication, it is forbidden to run the transmit
 709:Drivers/STM32F3xx_HAL_Driver/Src/stm32f3xx_hal_uart.c ****         and receive process in parallel, the UART state HAL_UART_STATE_BUSY_TX_RX can't be useful.
 710:Drivers/STM32F3xx_HAL_Driver/Src/stm32f3xx_hal_uart.c **** 
 711:Drivers/STM32F3xx_HAL_Driver/Src/stm32f3xx_hal_uart.c **** @endverbatim
 712:Drivers/STM32F3xx_HAL_Driver/Src/stm32f3xx_hal_uart.c ****   * @{
 713:Drivers/STM32F3xx_HAL_Driver/Src/stm32f3xx_hal_uart.c ****   */
 714:Drivers/STM32F3xx_HAL_Driver/Src/stm32f3xx_hal_uart.c **** 
 715:Drivers/STM32F3xx_HAL_Driver/Src/stm32f3xx_hal_uart.c **** /**
 716:Drivers/STM32F3xx_HAL_Driver/Src/stm32f3xx_hal_uart.c ****   * @brief Send an amount of data in blocking mode.
 717:Drivers/STM32F3xx_HAL_Driver/Src/stm32f3xx_hal_uart.c ****   * @param huart UART handle.
 718:Drivers/STM32F3xx_HAL_Driver/Src/stm32f3xx_hal_uart.c ****   * @param pData Pointer to data buffer.
 719:Drivers/STM32F3xx_HAL_Driver/Src/stm32f3xx_hal_uart.c ****   * @param Size Amount of data to be sent.
 720:Drivers/STM32F3xx_HAL_Driver/Src/stm32f3xx_hal_uart.c ****   * @param Timeout Timeout duration.
 721:Drivers/STM32F3xx_HAL_Driver/Src/stm32f3xx_hal_uart.c ****   * @retval HAL status
 722:Drivers/STM32F3xx_HAL_Driver/Src/stm32f3xx_hal_uart.c ****   */
 723:Drivers/STM32F3xx_HAL_Driver/Src/stm32f3xx_hal_uart.c **** HAL_StatusTypeDef HAL_UART_Transmit(UART_HandleTypeDef *huart, uint8_t *pData, uint16_t Size, uint3
 724:Drivers/STM32F3xx_HAL_Driver/Src/stm32f3xx_hal_uart.c **** {
 725:Drivers/STM32F3xx_HAL_Driver/Src/stm32f3xx_hal_uart.c ****   uint16_t* tmp;
ARM GAS  /var/folders/8c/gyvcglfx7f97kbqb2h83mm_r0000gn/T//ccv1qdBn.s 			page 17


 726:Drivers/STM32F3xx_HAL_Driver/Src/stm32f3xx_hal_uart.c ****   uint32_t tickstart = 0U;
 727:Drivers/STM32F3xx_HAL_Driver/Src/stm32f3xx_hal_uart.c **** 
 728:Drivers/STM32F3xx_HAL_Driver/Src/stm32f3xx_hal_uart.c ****   /* Check that a Tx process is not already ongoing */
 729:Drivers/STM32F3xx_HAL_Driver/Src/stm32f3xx_hal_uart.c ****   if(huart->gState == HAL_UART_STATE_READY)
 730:Drivers/STM32F3xx_HAL_Driver/Src/stm32f3xx_hal_uart.c ****   {
 731:Drivers/STM32F3xx_HAL_Driver/Src/stm32f3xx_hal_uart.c ****     if((pData == NULL ) || (Size == 0U))
 732:Drivers/STM32F3xx_HAL_Driver/Src/stm32f3xx_hal_uart.c ****     {
 733:Drivers/STM32F3xx_HAL_Driver/Src/stm32f3xx_hal_uart.c ****       return  HAL_ERROR;
 734:Drivers/STM32F3xx_HAL_Driver/Src/stm32f3xx_hal_uart.c ****     }
 735:Drivers/STM32F3xx_HAL_Driver/Src/stm32f3xx_hal_uart.c **** 
 736:Drivers/STM32F3xx_HAL_Driver/Src/stm32f3xx_hal_uart.c ****     /* Process Locked */
 737:Drivers/STM32F3xx_HAL_Driver/Src/stm32f3xx_hal_uart.c ****     __HAL_LOCK(huart);
 738:Drivers/STM32F3xx_HAL_Driver/Src/stm32f3xx_hal_uart.c **** 
 739:Drivers/STM32F3xx_HAL_Driver/Src/stm32f3xx_hal_uart.c ****     huart->ErrorCode = HAL_UART_ERROR_NONE;
 740:Drivers/STM32F3xx_HAL_Driver/Src/stm32f3xx_hal_uart.c ****     huart->gState = HAL_UART_STATE_BUSY_TX;
 741:Drivers/STM32F3xx_HAL_Driver/Src/stm32f3xx_hal_uart.c **** 
 742:Drivers/STM32F3xx_HAL_Driver/Src/stm32f3xx_hal_uart.c ****     /* Init tickstart for timeout managment*/
 743:Drivers/STM32F3xx_HAL_Driver/Src/stm32f3xx_hal_uart.c ****     tickstart = HAL_GetTick();
 744:Drivers/STM32F3xx_HAL_Driver/Src/stm32f3xx_hal_uart.c **** 
 745:Drivers/STM32F3xx_HAL_Driver/Src/stm32f3xx_hal_uart.c ****     huart->TxXferSize = Size;
 746:Drivers/STM32F3xx_HAL_Driver/Src/stm32f3xx_hal_uart.c ****     huart->TxXferCount = Size;
 747:Drivers/STM32F3xx_HAL_Driver/Src/stm32f3xx_hal_uart.c ****     while(huart->TxXferCount > 0U)
 748:Drivers/STM32F3xx_HAL_Driver/Src/stm32f3xx_hal_uart.c ****     {
 749:Drivers/STM32F3xx_HAL_Driver/Src/stm32f3xx_hal_uart.c ****       huart->TxXferCount--;
 750:Drivers/STM32F3xx_HAL_Driver/Src/stm32f3xx_hal_uart.c ****       if(UART_WaitOnFlagUntilTimeout(huart, UART_FLAG_TXE, RESET, tickstart, Timeout) != HAL_OK)
 751:Drivers/STM32F3xx_HAL_Driver/Src/stm32f3xx_hal_uart.c ****       {
 752:Drivers/STM32F3xx_HAL_Driver/Src/stm32f3xx_hal_uart.c ****         return HAL_TIMEOUT;
 753:Drivers/STM32F3xx_HAL_Driver/Src/stm32f3xx_hal_uart.c ****       }
 754:Drivers/STM32F3xx_HAL_Driver/Src/stm32f3xx_hal_uart.c ****       if ((huart->Init.WordLength == UART_WORDLENGTH_9B) && (huart->Init.Parity == UART_PARITY_NONE
 755:Drivers/STM32F3xx_HAL_Driver/Src/stm32f3xx_hal_uart.c ****       {
 756:Drivers/STM32F3xx_HAL_Driver/Src/stm32f3xx_hal_uart.c ****         tmp = (uint16_t*) pData;
 757:Drivers/STM32F3xx_HAL_Driver/Src/stm32f3xx_hal_uart.c ****         huart->Instance->TDR = (*tmp & (uint16_t)0x01FFU);
 758:Drivers/STM32F3xx_HAL_Driver/Src/stm32f3xx_hal_uart.c ****         pData += 2U;
 759:Drivers/STM32F3xx_HAL_Driver/Src/stm32f3xx_hal_uart.c ****       }
 760:Drivers/STM32F3xx_HAL_Driver/Src/stm32f3xx_hal_uart.c ****       else
 761:Drivers/STM32F3xx_HAL_Driver/Src/stm32f3xx_hal_uart.c ****       {
 762:Drivers/STM32F3xx_HAL_Driver/Src/stm32f3xx_hal_uart.c ****         huart->Instance->TDR = (*pData++ & (uint8_t)0xFFU);
 763:Drivers/STM32F3xx_HAL_Driver/Src/stm32f3xx_hal_uart.c ****       }
 764:Drivers/STM32F3xx_HAL_Driver/Src/stm32f3xx_hal_uart.c ****     }
 765:Drivers/STM32F3xx_HAL_Driver/Src/stm32f3xx_hal_uart.c ****     if(UART_WaitOnFlagUntilTimeout(huart, UART_FLAG_TC, RESET, tickstart, Timeout) != HAL_OK)
 766:Drivers/STM32F3xx_HAL_Driver/Src/stm32f3xx_hal_uart.c ****     {
 767:Drivers/STM32F3xx_HAL_Driver/Src/stm32f3xx_hal_uart.c ****       return HAL_TIMEOUT;
 768:Drivers/STM32F3xx_HAL_Driver/Src/stm32f3xx_hal_uart.c ****     }
 769:Drivers/STM32F3xx_HAL_Driver/Src/stm32f3xx_hal_uart.c **** 
 770:Drivers/STM32F3xx_HAL_Driver/Src/stm32f3xx_hal_uart.c ****     /* At end of Tx process, restore huart->gState to Ready */
 771:Drivers/STM32F3xx_HAL_Driver/Src/stm32f3xx_hal_uart.c ****     huart->gState = HAL_UART_STATE_READY;
 772:Drivers/STM32F3xx_HAL_Driver/Src/stm32f3xx_hal_uart.c **** 
 773:Drivers/STM32F3xx_HAL_Driver/Src/stm32f3xx_hal_uart.c ****     /* Process Unlocked */
 774:Drivers/STM32F3xx_HAL_Driver/Src/stm32f3xx_hal_uart.c ****     __HAL_UNLOCK(huart);
 775:Drivers/STM32F3xx_HAL_Driver/Src/stm32f3xx_hal_uart.c **** 
 776:Drivers/STM32F3xx_HAL_Driver/Src/stm32f3xx_hal_uart.c ****     return HAL_OK;
 777:Drivers/STM32F3xx_HAL_Driver/Src/stm32f3xx_hal_uart.c ****   }
 778:Drivers/STM32F3xx_HAL_Driver/Src/stm32f3xx_hal_uart.c ****   else
 779:Drivers/STM32F3xx_HAL_Driver/Src/stm32f3xx_hal_uart.c ****   {
 780:Drivers/STM32F3xx_HAL_Driver/Src/stm32f3xx_hal_uart.c ****     return HAL_BUSY;
 781:Drivers/STM32F3xx_HAL_Driver/Src/stm32f3xx_hal_uart.c ****   }
 782:Drivers/STM32F3xx_HAL_Driver/Src/stm32f3xx_hal_uart.c **** }
ARM GAS  /var/folders/8c/gyvcglfx7f97kbqb2h83mm_r0000gn/T//ccv1qdBn.s 			page 18


 783:Drivers/STM32F3xx_HAL_Driver/Src/stm32f3xx_hal_uart.c **** 
 784:Drivers/STM32F3xx_HAL_Driver/Src/stm32f3xx_hal_uart.c **** /**
 785:Drivers/STM32F3xx_HAL_Driver/Src/stm32f3xx_hal_uart.c ****   * @brief Receive an amount of data in blocking mode.
 786:Drivers/STM32F3xx_HAL_Driver/Src/stm32f3xx_hal_uart.c ****   * @param huart UART handle.
 787:Drivers/STM32F3xx_HAL_Driver/Src/stm32f3xx_hal_uart.c ****   * @param pData pointer to data buffer.
 788:Drivers/STM32F3xx_HAL_Driver/Src/stm32f3xx_hal_uart.c ****   * @param Size amount of data to be received.
 789:Drivers/STM32F3xx_HAL_Driver/Src/stm32f3xx_hal_uart.c ****   * @param Timeout Timeout duration.
 790:Drivers/STM32F3xx_HAL_Driver/Src/stm32f3xx_hal_uart.c ****   * @retval HAL status
 791:Drivers/STM32F3xx_HAL_Driver/Src/stm32f3xx_hal_uart.c ****   */
 792:Drivers/STM32F3xx_HAL_Driver/Src/stm32f3xx_hal_uart.c **** HAL_StatusTypeDef HAL_UART_Receive(UART_HandleTypeDef *huart, uint8_t *pData, uint16_t Size, uint32
 793:Drivers/STM32F3xx_HAL_Driver/Src/stm32f3xx_hal_uart.c **** {
 794:Drivers/STM32F3xx_HAL_Driver/Src/stm32f3xx_hal_uart.c ****   uint16_t* tmp;
 795:Drivers/STM32F3xx_HAL_Driver/Src/stm32f3xx_hal_uart.c ****   uint16_t uhMask;
 796:Drivers/STM32F3xx_HAL_Driver/Src/stm32f3xx_hal_uart.c ****   uint32_t tickstart = 0U;
 797:Drivers/STM32F3xx_HAL_Driver/Src/stm32f3xx_hal_uart.c **** 
 798:Drivers/STM32F3xx_HAL_Driver/Src/stm32f3xx_hal_uart.c ****   /* Check that a Rx process is not already ongoing */
 799:Drivers/STM32F3xx_HAL_Driver/Src/stm32f3xx_hal_uart.c ****   if(huart->RxState == HAL_UART_STATE_READY)
 800:Drivers/STM32F3xx_HAL_Driver/Src/stm32f3xx_hal_uart.c ****   {
 801:Drivers/STM32F3xx_HAL_Driver/Src/stm32f3xx_hal_uart.c ****     if((pData == NULL ) || (Size == 0U))
 802:Drivers/STM32F3xx_HAL_Driver/Src/stm32f3xx_hal_uart.c ****     {
 803:Drivers/STM32F3xx_HAL_Driver/Src/stm32f3xx_hal_uart.c ****       return  HAL_ERROR;
 804:Drivers/STM32F3xx_HAL_Driver/Src/stm32f3xx_hal_uart.c ****     }
 805:Drivers/STM32F3xx_HAL_Driver/Src/stm32f3xx_hal_uart.c **** 
 806:Drivers/STM32F3xx_HAL_Driver/Src/stm32f3xx_hal_uart.c ****     /* Process Locked */
 807:Drivers/STM32F3xx_HAL_Driver/Src/stm32f3xx_hal_uart.c ****     __HAL_LOCK(huart);
 808:Drivers/STM32F3xx_HAL_Driver/Src/stm32f3xx_hal_uart.c **** 
 809:Drivers/STM32F3xx_HAL_Driver/Src/stm32f3xx_hal_uart.c ****     huart->ErrorCode = HAL_UART_ERROR_NONE;
 810:Drivers/STM32F3xx_HAL_Driver/Src/stm32f3xx_hal_uart.c ****     huart->RxState = HAL_UART_STATE_BUSY_RX;
 811:Drivers/STM32F3xx_HAL_Driver/Src/stm32f3xx_hal_uart.c **** 
 812:Drivers/STM32F3xx_HAL_Driver/Src/stm32f3xx_hal_uart.c ****     /* Init tickstart for timeout managment*/
 813:Drivers/STM32F3xx_HAL_Driver/Src/stm32f3xx_hal_uart.c ****     tickstart = HAL_GetTick();
 814:Drivers/STM32F3xx_HAL_Driver/Src/stm32f3xx_hal_uart.c **** 
 815:Drivers/STM32F3xx_HAL_Driver/Src/stm32f3xx_hal_uart.c ****     huart->RxXferSize = Size;
 816:Drivers/STM32F3xx_HAL_Driver/Src/stm32f3xx_hal_uart.c ****     huart->RxXferCount = Size;
 817:Drivers/STM32F3xx_HAL_Driver/Src/stm32f3xx_hal_uart.c **** 
 818:Drivers/STM32F3xx_HAL_Driver/Src/stm32f3xx_hal_uart.c ****     /* Computation of UART mask to apply to RDR register */
 819:Drivers/STM32F3xx_HAL_Driver/Src/stm32f3xx_hal_uart.c ****     UART_MASK_COMPUTATION(huart);
 820:Drivers/STM32F3xx_HAL_Driver/Src/stm32f3xx_hal_uart.c ****     uhMask = huart->Mask;
 821:Drivers/STM32F3xx_HAL_Driver/Src/stm32f3xx_hal_uart.c **** 
 822:Drivers/STM32F3xx_HAL_Driver/Src/stm32f3xx_hal_uart.c ****     /* as long as data have to be received */
 823:Drivers/STM32F3xx_HAL_Driver/Src/stm32f3xx_hal_uart.c ****     while(huart->RxXferCount > 0U)
 824:Drivers/STM32F3xx_HAL_Driver/Src/stm32f3xx_hal_uart.c ****     {
 825:Drivers/STM32F3xx_HAL_Driver/Src/stm32f3xx_hal_uart.c ****       huart->RxXferCount--;
 826:Drivers/STM32F3xx_HAL_Driver/Src/stm32f3xx_hal_uart.c ****       if(UART_WaitOnFlagUntilTimeout(huart, UART_FLAG_RXNE, RESET, tickstart, Timeout) != HAL_OK)
 827:Drivers/STM32F3xx_HAL_Driver/Src/stm32f3xx_hal_uart.c ****       {
 828:Drivers/STM32F3xx_HAL_Driver/Src/stm32f3xx_hal_uart.c ****         return HAL_TIMEOUT;
 829:Drivers/STM32F3xx_HAL_Driver/Src/stm32f3xx_hal_uart.c ****       }
 830:Drivers/STM32F3xx_HAL_Driver/Src/stm32f3xx_hal_uart.c ****       if ((huart->Init.WordLength == UART_WORDLENGTH_9B) && (huart->Init.Parity == UART_PARITY_NONE
 831:Drivers/STM32F3xx_HAL_Driver/Src/stm32f3xx_hal_uart.c ****       {
 832:Drivers/STM32F3xx_HAL_Driver/Src/stm32f3xx_hal_uart.c ****         tmp = (uint16_t*) pData ;
 833:Drivers/STM32F3xx_HAL_Driver/Src/stm32f3xx_hal_uart.c ****         *tmp = (uint16_t)(huart->Instance->RDR & uhMask);
 834:Drivers/STM32F3xx_HAL_Driver/Src/stm32f3xx_hal_uart.c ****         pData +=2U;
 835:Drivers/STM32F3xx_HAL_Driver/Src/stm32f3xx_hal_uart.c ****       }
 836:Drivers/STM32F3xx_HAL_Driver/Src/stm32f3xx_hal_uart.c ****       else
 837:Drivers/STM32F3xx_HAL_Driver/Src/stm32f3xx_hal_uart.c ****       {
 838:Drivers/STM32F3xx_HAL_Driver/Src/stm32f3xx_hal_uart.c ****         *pData++ = (uint8_t)(huart->Instance->RDR & (uint8_t)uhMask);
 839:Drivers/STM32F3xx_HAL_Driver/Src/stm32f3xx_hal_uart.c ****       }
ARM GAS  /var/folders/8c/gyvcglfx7f97kbqb2h83mm_r0000gn/T//ccv1qdBn.s 			page 19


 840:Drivers/STM32F3xx_HAL_Driver/Src/stm32f3xx_hal_uart.c ****     }
 841:Drivers/STM32F3xx_HAL_Driver/Src/stm32f3xx_hal_uart.c **** 
 842:Drivers/STM32F3xx_HAL_Driver/Src/stm32f3xx_hal_uart.c ****     /* At end of Rx process, restore huart->RxState to Ready */
 843:Drivers/STM32F3xx_HAL_Driver/Src/stm32f3xx_hal_uart.c ****     huart->RxState = HAL_UART_STATE_READY;
 844:Drivers/STM32F3xx_HAL_Driver/Src/stm32f3xx_hal_uart.c **** 
 845:Drivers/STM32F3xx_HAL_Driver/Src/stm32f3xx_hal_uart.c ****     /* Process Unlocked */
 846:Drivers/STM32F3xx_HAL_Driver/Src/stm32f3xx_hal_uart.c ****     __HAL_UNLOCK(huart);
 847:Drivers/STM32F3xx_HAL_Driver/Src/stm32f3xx_hal_uart.c **** 
 848:Drivers/STM32F3xx_HAL_Driver/Src/stm32f3xx_hal_uart.c ****     return HAL_OK;
 849:Drivers/STM32F3xx_HAL_Driver/Src/stm32f3xx_hal_uart.c ****   }
 850:Drivers/STM32F3xx_HAL_Driver/Src/stm32f3xx_hal_uart.c ****   else
 851:Drivers/STM32F3xx_HAL_Driver/Src/stm32f3xx_hal_uart.c ****   {
 852:Drivers/STM32F3xx_HAL_Driver/Src/stm32f3xx_hal_uart.c ****     return HAL_BUSY;
 853:Drivers/STM32F3xx_HAL_Driver/Src/stm32f3xx_hal_uart.c ****   }
 854:Drivers/STM32F3xx_HAL_Driver/Src/stm32f3xx_hal_uart.c **** }
 855:Drivers/STM32F3xx_HAL_Driver/Src/stm32f3xx_hal_uart.c **** 
 856:Drivers/STM32F3xx_HAL_Driver/Src/stm32f3xx_hal_uart.c **** /**
 857:Drivers/STM32F3xx_HAL_Driver/Src/stm32f3xx_hal_uart.c ****   * @brief Send an amount of data in interrupt mode.
 858:Drivers/STM32F3xx_HAL_Driver/Src/stm32f3xx_hal_uart.c ****   * @param huart UART handle.
 859:Drivers/STM32F3xx_HAL_Driver/Src/stm32f3xx_hal_uart.c ****   * @param pData pointer to data buffer.
 860:Drivers/STM32F3xx_HAL_Driver/Src/stm32f3xx_hal_uart.c ****   * @param Size amount of data to be sent.
 861:Drivers/STM32F3xx_HAL_Driver/Src/stm32f3xx_hal_uart.c ****   * @retval HAL status
 862:Drivers/STM32F3xx_HAL_Driver/Src/stm32f3xx_hal_uart.c ****   */
 863:Drivers/STM32F3xx_HAL_Driver/Src/stm32f3xx_hal_uart.c **** HAL_StatusTypeDef HAL_UART_Transmit_IT(UART_HandleTypeDef *huart, uint8_t *pData, uint16_t Size)
 864:Drivers/STM32F3xx_HAL_Driver/Src/stm32f3xx_hal_uart.c **** {
 162              		.loc 1 864 1 is_stmt 1 view -0
 163              		.cfi_startproc
 164              		@ args = 0, pretend = 0, frame = 0
 165              		@ frame_needed = 0, uses_anonymous_args = 0
 166              		@ link register save eliminated.
 865:Drivers/STM32F3xx_HAL_Driver/Src/stm32f3xx_hal_uart.c ****   /* Check that a Tx process is not already ongoing */
 866:Drivers/STM32F3xx_HAL_Driver/Src/stm32f3xx_hal_uart.c ****   if(huart->gState == HAL_UART_STATE_READY)
 167              		.loc 1 866 3 view .LVU37
 168              		.loc 1 866 11 is_stmt 0 view .LVU38
 169 0000 90F86930 		ldrb	r3, [r0, #105]	@ zero_extendqisi2
 170              		.loc 1 866 5 view .LVU39
 171 0004 202B     		cmp	r3, #32
 172 0006 1CD1     		bne	.L16
 867:Drivers/STM32F3xx_HAL_Driver/Src/stm32f3xx_hal_uart.c ****   {
 868:Drivers/STM32F3xx_HAL_Driver/Src/stm32f3xx_hal_uart.c ****     if((pData == NULL ) || (Size == 0U))
 173              		.loc 1 868 5 is_stmt 1 view .LVU40
 174              		.loc 1 868 7 is_stmt 0 view .LVU41
 175 0008 C9B1     		cbz	r1, .L15
 176              		.loc 1 868 25 discriminator 1 view .LVU42
 177 000a C2B1     		cbz	r2, .L15
 869:Drivers/STM32F3xx_HAL_Driver/Src/stm32f3xx_hal_uart.c ****     {
 870:Drivers/STM32F3xx_HAL_Driver/Src/stm32f3xx_hal_uart.c ****       return HAL_ERROR;
 871:Drivers/STM32F3xx_HAL_Driver/Src/stm32f3xx_hal_uart.c ****     }
 872:Drivers/STM32F3xx_HAL_Driver/Src/stm32f3xx_hal_uart.c **** 
 873:Drivers/STM32F3xx_HAL_Driver/Src/stm32f3xx_hal_uart.c ****     /* Process Locked */
 874:Drivers/STM32F3xx_HAL_Driver/Src/stm32f3xx_hal_uart.c ****     __HAL_LOCK(huart);
 178              		.loc 1 874 5 is_stmt 1 view .LVU43
 179              		.loc 1 874 5 view .LVU44
 180 000c 90F86830 		ldrb	r3, [r0, #104]	@ zero_extendqisi2
 181 0010 012B     		cmp	r3, #1
 182 0012 16D0     		beq	.L16
 183              		.loc 1 874 5 discriminator 2 view .LVU45
ARM GAS  /var/folders/8c/gyvcglfx7f97kbqb2h83mm_r0000gn/T//ccv1qdBn.s 			page 20


 875:Drivers/STM32F3xx_HAL_Driver/Src/stm32f3xx_hal_uart.c **** 
 876:Drivers/STM32F3xx_HAL_Driver/Src/stm32f3xx_hal_uart.c ****     huart->pTxBuffPtr = pData;
 184              		.loc 1 876 5 discriminator 2 view .LVU46
 864:Drivers/STM32F3xx_HAL_Driver/Src/stm32f3xx_hal_uart.c ****   /* Check that a Tx process is not already ongoing */
 185              		.loc 1 864 1 is_stmt 0 discriminator 2 view .LVU47
 186 0014 30B4     		push	{r4, r5}
 187              	.LCFI2:
 188              		.cfi_def_cfa_offset 8
 189              		.cfi_offset 4, -8
 190              		.cfi_offset 5, -4
 877:Drivers/STM32F3xx_HAL_Driver/Src/stm32f3xx_hal_uart.c ****     huart->TxXferSize = Size;
 878:Drivers/STM32F3xx_HAL_Driver/Src/stm32f3xx_hal_uart.c ****     huart->TxXferCount = Size;
 879:Drivers/STM32F3xx_HAL_Driver/Src/stm32f3xx_hal_uart.c **** 
 880:Drivers/STM32F3xx_HAL_Driver/Src/stm32f3xx_hal_uart.c ****     huart->ErrorCode = HAL_UART_ERROR_NONE;
 191              		.loc 1 880 22 discriminator 2 view .LVU48
 192 0016 0023     		movs	r3, #0
 881:Drivers/STM32F3xx_HAL_Driver/Src/stm32f3xx_hal_uart.c ****     huart->gState = HAL_UART_STATE_BUSY_TX;
 882:Drivers/STM32F3xx_HAL_Driver/Src/stm32f3xx_hal_uart.c **** 
 883:Drivers/STM32F3xx_HAL_Driver/Src/stm32f3xx_hal_uart.c ****     /* Process Unlocked */
 884:Drivers/STM32F3xx_HAL_Driver/Src/stm32f3xx_hal_uart.c ****     __HAL_UNLOCK(huart);
 885:Drivers/STM32F3xx_HAL_Driver/Src/stm32f3xx_hal_uart.c **** 
 886:Drivers/STM32F3xx_HAL_Driver/Src/stm32f3xx_hal_uart.c ****     /* Enable the UART Transmit Data Register Empty Interrupt */
 887:Drivers/STM32F3xx_HAL_Driver/Src/stm32f3xx_hal_uart.c ****     SET_BIT(huart->Instance->CR1, USART_CR1_TXEIE);
 193              		.loc 1 887 5 discriminator 2 view .LVU49
 194 0018 0568     		ldr	r5, [r0]
 878:Drivers/STM32F3xx_HAL_Driver/Src/stm32f3xx_hal_uart.c **** 
 195              		.loc 1 878 24 discriminator 2 view .LVU50
 196 001a A0F85220 		strh	r2, [r0, #82]	@ movhi
 881:Drivers/STM32F3xx_HAL_Driver/Src/stm32f3xx_hal_uart.c ****     huart->gState = HAL_UART_STATE_BUSY_TX;
 197              		.loc 1 881 19 discriminator 2 view .LVU51
 198 001e 2124     		movs	r4, #33
 880:Drivers/STM32F3xx_HAL_Driver/Src/stm32f3xx_hal_uart.c ****     huart->gState = HAL_UART_STATE_BUSY_TX;
 199              		.loc 1 880 22 discriminator 2 view .LVU52
 200 0020 C366     		str	r3, [r0, #108]
 881:Drivers/STM32F3xx_HAL_Driver/Src/stm32f3xx_hal_uart.c ****     huart->gState = HAL_UART_STATE_BUSY_TX;
 201              		.loc 1 881 19 discriminator 2 view .LVU53
 202 0022 80F86940 		strb	r4, [r0, #105]
 203              		.loc 1 887 5 discriminator 2 view .LVU54
 204 0026 2C68     		ldr	r4, [r5]
 876:Drivers/STM32F3xx_HAL_Driver/Src/stm32f3xx_hal_uart.c ****     huart->TxXferSize = Size;
 205              		.loc 1 876 23 discriminator 2 view .LVU55
 206 0028 C164     		str	r1, [r0, #76]
 877:Drivers/STM32F3xx_HAL_Driver/Src/stm32f3xx_hal_uart.c ****     huart->TxXferCount = Size;
 207              		.loc 1 877 5 is_stmt 1 discriminator 2 view .LVU56
 208              		.loc 1 887 5 is_stmt 0 discriminator 2 view .LVU57
 209 002a 44F08004 		orr	r4, r4, #128
 877:Drivers/STM32F3xx_HAL_Driver/Src/stm32f3xx_hal_uart.c ****     huart->TxXferCount = Size;
 210              		.loc 1 877 23 discriminator 2 view .LVU58
 211 002e A0F85020 		strh	r2, [r0, #80]	@ movhi
 878:Drivers/STM32F3xx_HAL_Driver/Src/stm32f3xx_hal_uart.c **** 
 212              		.loc 1 878 5 is_stmt 1 discriminator 2 view .LVU59
 880:Drivers/STM32F3xx_HAL_Driver/Src/stm32f3xx_hal_uart.c ****     huart->gState = HAL_UART_STATE_BUSY_TX;
 213              		.loc 1 880 5 discriminator 2 view .LVU60
 881:Drivers/STM32F3xx_HAL_Driver/Src/stm32f3xx_hal_uart.c **** 
 214              		.loc 1 881 5 discriminator 2 view .LVU61
 884:Drivers/STM32F3xx_HAL_Driver/Src/stm32f3xx_hal_uart.c **** 
 215              		.loc 1 884 5 discriminator 2 view .LVU62
ARM GAS  /var/folders/8c/gyvcglfx7f97kbqb2h83mm_r0000gn/T//ccv1qdBn.s 			page 21


 884:Drivers/STM32F3xx_HAL_Driver/Src/stm32f3xx_hal_uart.c **** 
 216              		.loc 1 884 5 discriminator 2 view .LVU63
 217 0032 80F86830 		strb	r3, [r0, #104]
 218              		.loc 1 887 5 discriminator 2 view .LVU64
 888:Drivers/STM32F3xx_HAL_Driver/Src/stm32f3xx_hal_uart.c **** 
 889:Drivers/STM32F3xx_HAL_Driver/Src/stm32f3xx_hal_uart.c ****     return HAL_OK;
 219              		.loc 1 889 12 is_stmt 0 discriminator 2 view .LVU65
 220 0036 1846     		mov	r0, r3
 221              	.LVL6:
 887:Drivers/STM32F3xx_HAL_Driver/Src/stm32f3xx_hal_uart.c **** 
 222              		.loc 1 887 5 discriminator 2 view .LVU66
 223 0038 2C60     		str	r4, [r5]
 224              		.loc 1 889 5 is_stmt 1 discriminator 2 view .LVU67
 890:Drivers/STM32F3xx_HAL_Driver/Src/stm32f3xx_hal_uart.c ****   }
 891:Drivers/STM32F3xx_HAL_Driver/Src/stm32f3xx_hal_uart.c ****   else
 892:Drivers/STM32F3xx_HAL_Driver/Src/stm32f3xx_hal_uart.c ****   {
 893:Drivers/STM32F3xx_HAL_Driver/Src/stm32f3xx_hal_uart.c ****     return HAL_BUSY;
 894:Drivers/STM32F3xx_HAL_Driver/Src/stm32f3xx_hal_uart.c ****   }
 895:Drivers/STM32F3xx_HAL_Driver/Src/stm32f3xx_hal_uart.c **** }
 225              		.loc 1 895 1 is_stmt 0 discriminator 2 view .LVU68
 226 003a 30BC     		pop	{r4, r5}
 227              	.LCFI3:
 228              		.cfi_restore 5
 229              		.cfi_restore 4
 230              		.cfi_def_cfa_offset 0
 231 003c 7047     		bx	lr
 232              	.LVL7:
 233              	.L15:
 870:Drivers/STM32F3xx_HAL_Driver/Src/stm32f3xx_hal_uart.c ****     }
 234              		.loc 1 870 14 view .LVU69
 235 003e 0120     		movs	r0, #1
 236              	.LVL8:
 870:Drivers/STM32F3xx_HAL_Driver/Src/stm32f3xx_hal_uart.c ****     }
 237              		.loc 1 870 14 view .LVU70
 238 0040 7047     		bx	lr
 239              	.LVL9:
 240              	.L16:
 893:Drivers/STM32F3xx_HAL_Driver/Src/stm32f3xx_hal_uart.c ****   }
 241              		.loc 1 893 12 view .LVU71
 242 0042 0220     		movs	r0, #2
 243              	.LVL10:
 244              		.loc 1 895 1 view .LVU72
 245 0044 7047     		bx	lr
 246              		.cfi_endproc
 247              	.LFE135:
 249 0046 00BF     		.section	.text.HAL_UART_Receive_IT,"ax",%progbits
 250              		.align	1
 251              		.p2align 2,,3
 252              		.global	HAL_UART_Receive_IT
 253              		.syntax unified
 254              		.thumb
 255              		.thumb_func
 256              		.fpu fpv4-sp-d16
 258              	HAL_UART_Receive_IT:
 259              	.LVL11:
 260              	.LFB136:
 896:Drivers/STM32F3xx_HAL_Driver/Src/stm32f3xx_hal_uart.c **** 
ARM GAS  /var/folders/8c/gyvcglfx7f97kbqb2h83mm_r0000gn/T//ccv1qdBn.s 			page 22


 897:Drivers/STM32F3xx_HAL_Driver/Src/stm32f3xx_hal_uart.c **** /**
 898:Drivers/STM32F3xx_HAL_Driver/Src/stm32f3xx_hal_uart.c ****   * @brief Receive an amount of data in interrupt mode.
 899:Drivers/STM32F3xx_HAL_Driver/Src/stm32f3xx_hal_uart.c ****   * @param huart UART handle.
 900:Drivers/STM32F3xx_HAL_Driver/Src/stm32f3xx_hal_uart.c ****   * @param pData pointer to data buffer.
 901:Drivers/STM32F3xx_HAL_Driver/Src/stm32f3xx_hal_uart.c ****   * @param Size amount of data to be received.
 902:Drivers/STM32F3xx_HAL_Driver/Src/stm32f3xx_hal_uart.c ****   * @retval HAL status
 903:Drivers/STM32F3xx_HAL_Driver/Src/stm32f3xx_hal_uart.c ****   */
 904:Drivers/STM32F3xx_HAL_Driver/Src/stm32f3xx_hal_uart.c **** HAL_StatusTypeDef HAL_UART_Receive_IT(UART_HandleTypeDef *huart, uint8_t *pData, uint16_t Size)
 905:Drivers/STM32F3xx_HAL_Driver/Src/stm32f3xx_hal_uart.c **** {
 261              		.loc 1 905 1 is_stmt 1 view -0
 262              		.cfi_startproc
 263              		@ args = 0, pretend = 0, frame = 0
 264              		@ frame_needed = 0, uses_anonymous_args = 0
 265              		@ link register save eliminated.
 906:Drivers/STM32F3xx_HAL_Driver/Src/stm32f3xx_hal_uart.c ****   /* Check that a Rx process is not already ongoing */
 907:Drivers/STM32F3xx_HAL_Driver/Src/stm32f3xx_hal_uart.c ****   if(huart->RxState == HAL_UART_STATE_READY)
 266              		.loc 1 907 3 view .LVU74
 267              		.loc 1 907 11 is_stmt 0 view .LVU75
 268 0000 90F86A30 		ldrb	r3, [r0, #106]	@ zero_extendqisi2
 269              		.loc 1 907 5 view .LVU76
 270 0004 202B     		cmp	r3, #32
 271 0006 2CD1     		bne	.L31
 908:Drivers/STM32F3xx_HAL_Driver/Src/stm32f3xx_hal_uart.c ****   {
 909:Drivers/STM32F3xx_HAL_Driver/Src/stm32f3xx_hal_uart.c ****     if((pData == NULL ) || (Size == 0U))
 272              		.loc 1 909 5 is_stmt 1 view .LVU77
 273              		.loc 1 909 7 is_stmt 0 view .LVU78
 274 0008 49B3     		cbz	r1, .L30
 275              		.loc 1 909 25 discriminator 1 view .LVU79
 276 000a 42B3     		cbz	r2, .L30
 910:Drivers/STM32F3xx_HAL_Driver/Src/stm32f3xx_hal_uart.c ****     {
 911:Drivers/STM32F3xx_HAL_Driver/Src/stm32f3xx_hal_uart.c ****       return HAL_ERROR;
 912:Drivers/STM32F3xx_HAL_Driver/Src/stm32f3xx_hal_uart.c ****     }
 913:Drivers/STM32F3xx_HAL_Driver/Src/stm32f3xx_hal_uart.c **** 
 914:Drivers/STM32F3xx_HAL_Driver/Src/stm32f3xx_hal_uart.c ****     /* Process Locked */
 915:Drivers/STM32F3xx_HAL_Driver/Src/stm32f3xx_hal_uart.c ****     __HAL_LOCK(huart);
 277              		.loc 1 915 5 is_stmt 1 view .LVU80
 278              		.loc 1 915 5 view .LVU81
 279 000c 90F86830 		ldrb	r3, [r0, #104]	@ zero_extendqisi2
 280 0010 012B     		cmp	r3, #1
 281 0012 26D0     		beq	.L31
 282              		.loc 1 915 5 discriminator 2 view .LVU82
 916:Drivers/STM32F3xx_HAL_Driver/Src/stm32f3xx_hal_uart.c **** 
 917:Drivers/STM32F3xx_HAL_Driver/Src/stm32f3xx_hal_uart.c ****     huart->pRxBuffPtr = pData;
 918:Drivers/STM32F3xx_HAL_Driver/Src/stm32f3xx_hal_uart.c ****     huart->RxXferSize = Size;
 919:Drivers/STM32F3xx_HAL_Driver/Src/stm32f3xx_hal_uart.c ****     huart->RxXferCount = Size;
 920:Drivers/STM32F3xx_HAL_Driver/Src/stm32f3xx_hal_uart.c **** 
 921:Drivers/STM32F3xx_HAL_Driver/Src/stm32f3xx_hal_uart.c ****     /* Computation of UART mask to apply to RDR register */
 922:Drivers/STM32F3xx_HAL_Driver/Src/stm32f3xx_hal_uart.c ****     UART_MASK_COMPUTATION(huart);
 283              		.loc 1 922 5 is_stmt 0 discriminator 2 view .LVU83
 284 0014 8368     		ldr	r3, [r0, #8]
 917:Drivers/STM32F3xx_HAL_Driver/Src/stm32f3xx_hal_uart.c ****     huart->RxXferSize = Size;
 285              		.loc 1 917 23 discriminator 2 view .LVU84
 286 0016 4165     		str	r1, [r0, #84]
 287              		.loc 1 922 5 discriminator 2 view .LVU85
 288 0018 B3F5805F 		cmp	r3, #4096
 915:Drivers/STM32F3xx_HAL_Driver/Src/stm32f3xx_hal_uart.c **** 
 289              		.loc 1 915 5 discriminator 2 view .LVU86
ARM GAS  /var/folders/8c/gyvcglfx7f97kbqb2h83mm_r0000gn/T//ccv1qdBn.s 			page 23


 290 001c 4FF00101 		mov	r1, #1
 291              	.LVL12:
 918:Drivers/STM32F3xx_HAL_Driver/Src/stm32f3xx_hal_uart.c ****     huart->RxXferCount = Size;
 292              		.loc 1 918 23 discriminator 2 view .LVU87
 293 0020 A0F85820 		strh	r2, [r0, #88]	@ movhi
 919:Drivers/STM32F3xx_HAL_Driver/Src/stm32f3xx_hal_uart.c **** 
 294              		.loc 1 919 24 discriminator 2 view .LVU88
 295 0024 A0F85A20 		strh	r2, [r0, #90]	@ movhi
 915:Drivers/STM32F3xx_HAL_Driver/Src/stm32f3xx_hal_uart.c **** 
 296              		.loc 1 915 5 discriminator 2 view .LVU89
 297 0028 80F86810 		strb	r1, [r0, #104]
 917:Drivers/STM32F3xx_HAL_Driver/Src/stm32f3xx_hal_uart.c ****     huart->RxXferSize = Size;
 298              		.loc 1 917 5 is_stmt 1 discriminator 2 view .LVU90
 918:Drivers/STM32F3xx_HAL_Driver/Src/stm32f3xx_hal_uart.c ****     huart->RxXferCount = Size;
 299              		.loc 1 918 5 discriminator 2 view .LVU91
 919:Drivers/STM32F3xx_HAL_Driver/Src/stm32f3xx_hal_uart.c **** 
 300              		.loc 1 919 5 discriminator 2 view .LVU92
 301              		.loc 1 922 5 discriminator 2 view .LVU93
 302              		.loc 1 922 5 discriminator 2 view .LVU94
 303 002c 1BD0     		beq	.L38
 304              		.loc 1 922 5 discriminator 2 view .LVU95
 305 002e 33BB     		cbnz	r3, .L26
 306              		.loc 1 922 5 discriminator 5 view .LVU96
 307 0030 0369     		ldr	r3, [r0, #16]
 308 0032 03BB     		cbnz	r3, .L27
 309              	.L24:
 310              		.loc 1 922 5 discriminator 4 view .LVU97
 311 0034 FF23     		movs	r3, #255
 312 0036 A0F85C30 		strh	r3, [r0, #92]	@ movhi
 313              	.L25:
 923:Drivers/STM32F3xx_HAL_Driver/Src/stm32f3xx_hal_uart.c **** 
 924:Drivers/STM32F3xx_HAL_Driver/Src/stm32f3xx_hal_uart.c ****     huart->ErrorCode = HAL_UART_ERROR_NONE;
 314              		.loc 1 924 5 view .LVU98
 925:Drivers/STM32F3xx_HAL_Driver/Src/stm32f3xx_hal_uart.c ****     huart->RxState = HAL_UART_STATE_BUSY_RX;
 926:Drivers/STM32F3xx_HAL_Driver/Src/stm32f3xx_hal_uart.c **** 
 927:Drivers/STM32F3xx_HAL_Driver/Src/stm32f3xx_hal_uart.c ****     /* Process Unlocked */
 928:Drivers/STM32F3xx_HAL_Driver/Src/stm32f3xx_hal_uart.c ****     __HAL_UNLOCK(huart);
 929:Drivers/STM32F3xx_HAL_Driver/Src/stm32f3xx_hal_uart.c **** 
 930:Drivers/STM32F3xx_HAL_Driver/Src/stm32f3xx_hal_uart.c ****     /* Enable the UART Error Interrupt: (Frame error, noise error, overrun error) */
 931:Drivers/STM32F3xx_HAL_Driver/Src/stm32f3xx_hal_uart.c ****     SET_BIT(huart->Instance->CR3, USART_CR3_EIE);
 315              		.loc 1 931 5 is_stmt 0 view .LVU99
 316 003a 0268     		ldr	r2, [r0]
 317              	.LVL13:
 924:Drivers/STM32F3xx_HAL_Driver/Src/stm32f3xx_hal_uart.c ****     huart->RxState = HAL_UART_STATE_BUSY_RX;
 318              		.loc 1 924 22 view .LVU100
 319 003c 0023     		movs	r3, #0
 925:Drivers/STM32F3xx_HAL_Driver/Src/stm32f3xx_hal_uart.c ****     huart->RxState = HAL_UART_STATE_BUSY_RX;
 320              		.loc 1 925 20 view .LVU101
 321 003e 2221     		movs	r1, #34
 924:Drivers/STM32F3xx_HAL_Driver/Src/stm32f3xx_hal_uart.c ****     huart->RxState = HAL_UART_STATE_BUSY_RX;
 322              		.loc 1 924 22 view .LVU102
 323 0040 C366     		str	r3, [r0, #108]
 925:Drivers/STM32F3xx_HAL_Driver/Src/stm32f3xx_hal_uart.c ****     huart->RxState = HAL_UART_STATE_BUSY_RX;
 324              		.loc 1 925 5 is_stmt 1 view .LVU103
 925:Drivers/STM32F3xx_HAL_Driver/Src/stm32f3xx_hal_uart.c ****     huart->RxState = HAL_UART_STATE_BUSY_RX;
 325              		.loc 1 925 20 is_stmt 0 view .LVU104
 326 0042 80F86A10 		strb	r1, [r0, #106]
ARM GAS  /var/folders/8c/gyvcglfx7f97kbqb2h83mm_r0000gn/T//ccv1qdBn.s 			page 24


 928:Drivers/STM32F3xx_HAL_Driver/Src/stm32f3xx_hal_uart.c **** 
 327              		.loc 1 928 5 is_stmt 1 view .LVU105
 928:Drivers/STM32F3xx_HAL_Driver/Src/stm32f3xx_hal_uart.c **** 
 328              		.loc 1 928 5 view .LVU106
 329              		.loc 1 931 5 is_stmt 0 view .LVU107
 330 0046 9168     		ldr	r1, [r2, #8]
 928:Drivers/STM32F3xx_HAL_Driver/Src/stm32f3xx_hal_uart.c **** 
 331              		.loc 1 928 5 view .LVU108
 332 0048 80F86830 		strb	r3, [r0, #104]
 333              		.loc 1 931 5 is_stmt 1 view .LVU109
 334 004c 41F00101 		orr	r1, r1, #1
 335 0050 9160     		str	r1, [r2, #8]
 932:Drivers/STM32F3xx_HAL_Driver/Src/stm32f3xx_hal_uart.c **** 
 933:Drivers/STM32F3xx_HAL_Driver/Src/stm32f3xx_hal_uart.c ****     /* Enable the UART Parity Error and Data Register not empty Interrupts */
 934:Drivers/STM32F3xx_HAL_Driver/Src/stm32f3xx_hal_uart.c ****     SET_BIT(huart->Instance->CR1, USART_CR1_PEIE | USART_CR1_RXNEIE);
 336              		.loc 1 934 5 view .LVU110
 337 0052 1168     		ldr	r1, [r2]
 338 0054 41F49071 		orr	r1, r1, #288
 935:Drivers/STM32F3xx_HAL_Driver/Src/stm32f3xx_hal_uart.c **** 
 936:Drivers/STM32F3xx_HAL_Driver/Src/stm32f3xx_hal_uart.c ****     return HAL_OK;
 339              		.loc 1 936 12 is_stmt 0 view .LVU111
 340 0058 1846     		mov	r0, r3
 341              	.LVL14:
 934:Drivers/STM32F3xx_HAL_Driver/Src/stm32f3xx_hal_uart.c **** 
 342              		.loc 1 934 5 view .LVU112
 343 005a 1160     		str	r1, [r2]
 344              		.loc 1 936 5 is_stmt 1 view .LVU113
 345              		.loc 1 936 12 is_stmt 0 view .LVU114
 346 005c 7047     		bx	lr
 347              	.LVL15:
 348              	.L30:
 911:Drivers/STM32F3xx_HAL_Driver/Src/stm32f3xx_hal_uart.c ****     }
 349              		.loc 1 911 14 view .LVU115
 350 005e 0120     		movs	r0, #1
 351              	.LVL16:
 911:Drivers/STM32F3xx_HAL_Driver/Src/stm32f3xx_hal_uart.c ****     }
 352              		.loc 1 911 14 view .LVU116
 353 0060 7047     		bx	lr
 354              	.LVL17:
 355              	.L31:
 937:Drivers/STM32F3xx_HAL_Driver/Src/stm32f3xx_hal_uart.c ****   }
 938:Drivers/STM32F3xx_HAL_Driver/Src/stm32f3xx_hal_uart.c ****   else
 939:Drivers/STM32F3xx_HAL_Driver/Src/stm32f3xx_hal_uart.c ****   {
 940:Drivers/STM32F3xx_HAL_Driver/Src/stm32f3xx_hal_uart.c ****     return HAL_BUSY;
 356              		.loc 1 940 12 view .LVU117
 357 0062 0220     		movs	r0, #2
 358              	.LVL18:
 941:Drivers/STM32F3xx_HAL_Driver/Src/stm32f3xx_hal_uart.c ****   }
 942:Drivers/STM32F3xx_HAL_Driver/Src/stm32f3xx_hal_uart.c **** }
 359              		.loc 1 942 1 view .LVU118
 360 0064 7047     		bx	lr
 361              	.LVL19:
 362              	.L38:
 922:Drivers/STM32F3xx_HAL_Driver/Src/stm32f3xx_hal_uart.c **** 
 363              		.loc 1 922 5 is_stmt 1 discriminator 1 view .LVU119
 364 0066 0369     		ldr	r3, [r0, #16]
 365 0068 002B     		cmp	r3, #0
ARM GAS  /var/folders/8c/gyvcglfx7f97kbqb2h83mm_r0000gn/T//ccv1qdBn.s 			page 25


 366 006a E3D1     		bne	.L24
 922:Drivers/STM32F3xx_HAL_Driver/Src/stm32f3xx_hal_uart.c **** 
 367              		.loc 1 922 5 discriminator 3 view .LVU120
 368 006c 40F2FF13 		movw	r3, #511
 369 0070 A0F85C30 		strh	r3, [r0, #92]	@ movhi
 370 0074 E1E7     		b	.L25
 371              	.L27:
 922:Drivers/STM32F3xx_HAL_Driver/Src/stm32f3xx_hal_uart.c **** 
 372              		.loc 1 922 5 discriminator 8 view .LVU121
 373 0076 7F23     		movs	r3, #127
 374 0078 A0F85C30 		strh	r3, [r0, #92]	@ movhi
 375 007c DDE7     		b	.L25
 376              	.L26:
 922:Drivers/STM32F3xx_HAL_Driver/Src/stm32f3xx_hal_uart.c **** 
 377              		.loc 1 922 5 discriminator 6 view .LVU122
 378 007e B3F1805F 		cmp	r3, #268435456
 379 0082 DAD1     		bne	.L25
 922:Drivers/STM32F3xx_HAL_Driver/Src/stm32f3xx_hal_uart.c **** 
 380              		.loc 1 922 5 discriminator 9 view .LVU123
 381 0084 0369     		ldr	r3, [r0, #16]
 382 0086 002B     		cmp	r3, #0
 383 0088 F5D0     		beq	.L27
 922:Drivers/STM32F3xx_HAL_Driver/Src/stm32f3xx_hal_uart.c **** 
 384              		.loc 1 922 5 discriminator 11 view .LVU124
 385 008a 3F23     		movs	r3, #63
 386 008c A0F85C30 		strh	r3, [r0, #92]	@ movhi
 387 0090 D3E7     		b	.L25
 388              		.cfi_endproc
 389              	.LFE136:
 391 0092 00BF     		.section	.text.HAL_UART_Transmit_DMA,"ax",%progbits
 392              		.align	1
 393              		.p2align 2,,3
 394              		.global	HAL_UART_Transmit_DMA
 395              		.syntax unified
 396              		.thumb
 397              		.thumb_func
 398              		.fpu fpv4-sp-d16
 400              	HAL_UART_Transmit_DMA:
 401              	.LVL20:
 402              	.LFB137:
 943:Drivers/STM32F3xx_HAL_Driver/Src/stm32f3xx_hal_uart.c **** 
 944:Drivers/STM32F3xx_HAL_Driver/Src/stm32f3xx_hal_uart.c **** /**
 945:Drivers/STM32F3xx_HAL_Driver/Src/stm32f3xx_hal_uart.c ****   * @brief Send an amount of data in DMA mode.
 946:Drivers/STM32F3xx_HAL_Driver/Src/stm32f3xx_hal_uart.c ****   * @param huart UART handle.
 947:Drivers/STM32F3xx_HAL_Driver/Src/stm32f3xx_hal_uart.c ****   * @param pData pointer to data buffer.
 948:Drivers/STM32F3xx_HAL_Driver/Src/stm32f3xx_hal_uart.c ****   * @param Size amount of data to be sent.
 949:Drivers/STM32F3xx_HAL_Driver/Src/stm32f3xx_hal_uart.c ****   * @note This function starts a DMA transfer in interrupt mode meaning that
 950:Drivers/STM32F3xx_HAL_Driver/Src/stm32f3xx_hal_uart.c ****   *       DMA half transfer complete, DMA transfer complete and DMA transfer
 951:Drivers/STM32F3xx_HAL_Driver/Src/stm32f3xx_hal_uart.c ****   *       error interrupts are enabled
 952:Drivers/STM32F3xx_HAL_Driver/Src/stm32f3xx_hal_uart.c ****   * @retval HAL status
 953:Drivers/STM32F3xx_HAL_Driver/Src/stm32f3xx_hal_uart.c ****   */
 954:Drivers/STM32F3xx_HAL_Driver/Src/stm32f3xx_hal_uart.c **** HAL_StatusTypeDef HAL_UART_Transmit_DMA(UART_HandleTypeDef *huart, uint8_t *pData, uint16_t Size)
 955:Drivers/STM32F3xx_HAL_Driver/Src/stm32f3xx_hal_uart.c **** {
 403              		.loc 1 955 1 view -0
 404              		.cfi_startproc
 405              		@ args = 0, pretend = 0, frame = 0
 406              		@ frame_needed = 0, uses_anonymous_args = 0
ARM GAS  /var/folders/8c/gyvcglfx7f97kbqb2h83mm_r0000gn/T//ccv1qdBn.s 			page 26


 956:Drivers/STM32F3xx_HAL_Driver/Src/stm32f3xx_hal_uart.c ****   /* Check if UART instance supports continuous communication using DMA */
 957:Drivers/STM32F3xx_HAL_Driver/Src/stm32f3xx_hal_uart.c ****   assert_param(IS_UART_DMA_INSTANCE(huart->Instance));
 407              		.loc 1 957 3 view .LVU126
 958:Drivers/STM32F3xx_HAL_Driver/Src/stm32f3xx_hal_uart.c **** 
 959:Drivers/STM32F3xx_HAL_Driver/Src/stm32f3xx_hal_uart.c ****   /* Check that a Tx process is not already ongoing */
 960:Drivers/STM32F3xx_HAL_Driver/Src/stm32f3xx_hal_uart.c ****   if(huart->gState == HAL_UART_STATE_READY)
 408              		.loc 1 960 3 view .LVU127
 955:Drivers/STM32F3xx_HAL_Driver/Src/stm32f3xx_hal_uart.c ****   /* Check if UART instance supports continuous communication using DMA */
 409              		.loc 1 955 1 is_stmt 0 view .LVU128
 410 0000 70B5     		push	{r4, r5, r6, lr}
 411              	.LCFI4:
 412              		.cfi_def_cfa_offset 16
 413              		.cfi_offset 4, -16
 414              		.cfi_offset 5, -12
 415              		.cfi_offset 6, -8
 416              		.cfi_offset 14, -4
 417              		.loc 1 960 11 view .LVU129
 418 0002 90F86940 		ldrb	r4, [r0, #105]	@ zero_extendqisi2
 419              		.loc 1 960 5 view .LVU130
 420 0006 202C     		cmp	r4, #32
 421 0008 2DD1     		bne	.L44
 961:Drivers/STM32F3xx_HAL_Driver/Src/stm32f3xx_hal_uart.c ****   {
 962:Drivers/STM32F3xx_HAL_Driver/Src/stm32f3xx_hal_uart.c ****     if((pData == NULL ) || (Size == 0U))
 422              		.loc 1 962 5 is_stmt 1 view .LVU131
 423              		.loc 1 962 7 is_stmt 0 view .LVU132
 424 000a 51B3     		cbz	r1, .L43
 425              		.loc 1 962 25 discriminator 1 view .LVU133
 426 000c 4AB3     		cbz	r2, .L43
 963:Drivers/STM32F3xx_HAL_Driver/Src/stm32f3xx_hal_uart.c ****     {
 964:Drivers/STM32F3xx_HAL_Driver/Src/stm32f3xx_hal_uart.c ****       return HAL_ERROR;
 965:Drivers/STM32F3xx_HAL_Driver/Src/stm32f3xx_hal_uart.c ****     }
 966:Drivers/STM32F3xx_HAL_Driver/Src/stm32f3xx_hal_uart.c **** 
 967:Drivers/STM32F3xx_HAL_Driver/Src/stm32f3xx_hal_uart.c ****     /* Process Locked */
 968:Drivers/STM32F3xx_HAL_Driver/Src/stm32f3xx_hal_uart.c ****     __HAL_LOCK(huart);
 427              		.loc 1 968 5 is_stmt 1 view .LVU134
 428              		.loc 1 968 5 view .LVU135
 429 000e 90F86840 		ldrb	r4, [r0, #104]	@ zero_extendqisi2
 430 0012 012C     		cmp	r4, #1
 431 0014 27D0     		beq	.L44
 432              		.loc 1 968 5 discriminator 2 view .LVU136
 433 0016 0446     		mov	r4, r0
 434 0018 0126     		movs	r6, #1
 969:Drivers/STM32F3xx_HAL_Driver/Src/stm32f3xx_hal_uart.c **** 
 970:Drivers/STM32F3xx_HAL_Driver/Src/stm32f3xx_hal_uart.c ****     huart->pTxBuffPtr = pData;
 971:Drivers/STM32F3xx_HAL_Driver/Src/stm32f3xx_hal_uart.c ****     huart->TxXferSize = Size;
 972:Drivers/STM32F3xx_HAL_Driver/Src/stm32f3xx_hal_uart.c ****     huart->TxXferCount = Size;
 973:Drivers/STM32F3xx_HAL_Driver/Src/stm32f3xx_hal_uart.c **** 
 974:Drivers/STM32F3xx_HAL_Driver/Src/stm32f3xx_hal_uart.c ****     huart->ErrorCode = HAL_UART_ERROR_NONE;
 975:Drivers/STM32F3xx_HAL_Driver/Src/stm32f3xx_hal_uart.c ****     huart->gState = HAL_UART_STATE_BUSY_TX;
 976:Drivers/STM32F3xx_HAL_Driver/Src/stm32f3xx_hal_uart.c **** 
 977:Drivers/STM32F3xx_HAL_Driver/Src/stm32f3xx_hal_uart.c ****     /* Set the UART DMA transfer complete callback */
 978:Drivers/STM32F3xx_HAL_Driver/Src/stm32f3xx_hal_uart.c ****     huart->hdmatx->XferCpltCallback = UART_DMATransmitCplt;
 435              		.loc 1 978 10 is_stmt 0 discriminator 2 view .LVU137
 436 001a 006E     		ldr	r0, [r0, #96]
 437              	.LVL21:
 968:Drivers/STM32F3xx_HAL_Driver/Src/stm32f3xx_hal_uart.c **** 
 438              		.loc 1 968 5 discriminator 2 view .LVU138
ARM GAS  /var/folders/8c/gyvcglfx7f97kbqb2h83mm_r0000gn/T//ccv1qdBn.s 			page 27


 439 001c 84F86860 		strb	r6, [r4, #104]
 970:Drivers/STM32F3xx_HAL_Driver/Src/stm32f3xx_hal_uart.c ****     huart->TxXferSize = Size;
 440              		.loc 1 970 5 is_stmt 1 discriminator 2 view .LVU139
 971:Drivers/STM32F3xx_HAL_Driver/Src/stm32f3xx_hal_uart.c ****     huart->TxXferCount = Size;
 441              		.loc 1 971 5 discriminator 2 view .LVU140
 972:Drivers/STM32F3xx_HAL_Driver/Src/stm32f3xx_hal_uart.c **** 
 442              		.loc 1 972 5 discriminator 2 view .LVU141
 974:Drivers/STM32F3xx_HAL_Driver/Src/stm32f3xx_hal_uart.c ****     huart->gState = HAL_UART_STATE_BUSY_TX;
 443              		.loc 1 974 5 discriminator 2 view .LVU142
 975:Drivers/STM32F3xx_HAL_Driver/Src/stm32f3xx_hal_uart.c **** 
 444              		.loc 1 975 5 discriminator 2 view .LVU143
 445 0020 1346     		mov	r3, r2
 974:Drivers/STM32F3xx_HAL_Driver/Src/stm32f3xx_hal_uart.c ****     huart->gState = HAL_UART_STATE_BUSY_TX;
 446              		.loc 1 974 22 is_stmt 0 discriminator 2 view .LVU144
 447 0022 0025     		movs	r5, #0
 975:Drivers/STM32F3xx_HAL_Driver/Src/stm32f3xx_hal_uart.c **** 
 448              		.loc 1 975 19 discriminator 2 view .LVU145
 449 0024 2126     		movs	r6, #33
 972:Drivers/STM32F3xx_HAL_Driver/Src/stm32f3xx_hal_uart.c **** 
 450              		.loc 1 972 24 discriminator 2 view .LVU146
 451 0026 A4F85230 		strh	r3, [r4, #82]	@ movhi
 974:Drivers/STM32F3xx_HAL_Driver/Src/stm32f3xx_hal_uart.c ****     huart->gState = HAL_UART_STATE_BUSY_TX;
 452              		.loc 1 974 22 discriminator 2 view .LVU147
 453 002a E566     		str	r5, [r4, #108]
 975:Drivers/STM32F3xx_HAL_Driver/Src/stm32f3xx_hal_uart.c **** 
 454              		.loc 1 975 19 discriminator 2 view .LVU148
 455 002c 84F86960 		strb	r6, [r4, #105]
 456              		.loc 1 978 5 is_stmt 1 discriminator 2 view .LVU149
 457              		.loc 1 978 37 is_stmt 0 discriminator 2 view .LVU150
 458 0030 0E4E     		ldr	r6, .L46
 979:Drivers/STM32F3xx_HAL_Driver/Src/stm32f3xx_hal_uart.c **** 
 980:Drivers/STM32F3xx_HAL_Driver/Src/stm32f3xx_hal_uart.c ****     /* Set the UART DMA Half transfer complete callback */
 981:Drivers/STM32F3xx_HAL_Driver/Src/stm32f3xx_hal_uart.c ****     huart->hdmatx->XferHalfCpltCallback = UART_DMATxHalfCplt;
 982:Drivers/STM32F3xx_HAL_Driver/Src/stm32f3xx_hal_uart.c **** 
 983:Drivers/STM32F3xx_HAL_Driver/Src/stm32f3xx_hal_uart.c ****     /* Set the DMA error callback */
 984:Drivers/STM32F3xx_HAL_Driver/Src/stm32f3xx_hal_uart.c ****     huart->hdmatx->XferErrorCallback = UART_DMAError;
 985:Drivers/STM32F3xx_HAL_Driver/Src/stm32f3xx_hal_uart.c **** 
 986:Drivers/STM32F3xx_HAL_Driver/Src/stm32f3xx_hal_uart.c ****     /* Set the DMA abort callback */
 987:Drivers/STM32F3xx_HAL_Driver/Src/stm32f3xx_hal_uart.c ****     huart->hdmatx->XferAbortCallback = NULL;
 988:Drivers/STM32F3xx_HAL_Driver/Src/stm32f3xx_hal_uart.c **** 
 989:Drivers/STM32F3xx_HAL_Driver/Src/stm32f3xx_hal_uart.c ****     /* Enable the UART transmit DMA channel */
 990:Drivers/STM32F3xx_HAL_Driver/Src/stm32f3xx_hal_uart.c ****     HAL_DMA_Start_IT(huart->hdmatx, (uint32_t)huart->pTxBuffPtr, (uint32_t)&huart->Instance->TDR, S
 459              		.loc 1 990 76 discriminator 2 view .LVU151
 460 0032 2268     		ldr	r2, [r4]
 461              	.LVL22:
 971:Drivers/STM32F3xx_HAL_Driver/Src/stm32f3xx_hal_uart.c ****     huart->TxXferCount = Size;
 462              		.loc 1 971 23 discriminator 2 view .LVU152
 463 0034 A4F85030 		strh	r3, [r4, #80]	@ movhi
 970:Drivers/STM32F3xx_HAL_Driver/Src/stm32f3xx_hal_uart.c ****     huart->TxXferSize = Size;
 464              		.loc 1 970 23 discriminator 2 view .LVU153
 465 0038 E164     		str	r1, [r4, #76]
 978:Drivers/STM32F3xx_HAL_Driver/Src/stm32f3xx_hal_uart.c **** 
 466              		.loc 1 978 37 discriminator 2 view .LVU154
 467 003a 8662     		str	r6, [r0, #40]
 981:Drivers/STM32F3xx_HAL_Driver/Src/stm32f3xx_hal_uart.c **** 
 468              		.loc 1 981 5 is_stmt 1 discriminator 2 view .LVU155
 981:Drivers/STM32F3xx_HAL_Driver/Src/stm32f3xx_hal_uart.c **** 
ARM GAS  /var/folders/8c/gyvcglfx7f97kbqb2h83mm_r0000gn/T//ccv1qdBn.s 			page 28


 469              		.loc 1 981 41 is_stmt 0 discriminator 2 view .LVU156
 470 003c 0C4E     		ldr	r6, .L46+4
 471 003e C662     		str	r6, [r0, #44]
 984:Drivers/STM32F3xx_HAL_Driver/Src/stm32f3xx_hal_uart.c **** 
 472              		.loc 1 984 5 is_stmt 1 discriminator 2 view .LVU157
 984:Drivers/STM32F3xx_HAL_Driver/Src/stm32f3xx_hal_uart.c **** 
 473              		.loc 1 984 38 is_stmt 0 discriminator 2 view .LVU158
 474 0040 0C4E     		ldr	r6, .L46+8
 987:Drivers/STM32F3xx_HAL_Driver/Src/stm32f3xx_hal_uart.c **** 
 475              		.loc 1 987 38 discriminator 2 view .LVU159
 476 0042 4563     		str	r5, [r0, #52]
 984:Drivers/STM32F3xx_HAL_Driver/Src/stm32f3xx_hal_uart.c **** 
 477              		.loc 1 984 38 discriminator 2 view .LVU160
 478 0044 0663     		str	r6, [r0, #48]
 987:Drivers/STM32F3xx_HAL_Driver/Src/stm32f3xx_hal_uart.c **** 
 479              		.loc 1 987 5 is_stmt 1 discriminator 2 view .LVU161
 480              		.loc 1 990 5 discriminator 2 view .LVU162
 481 0046 2832     		adds	r2, r2, #40
 482 0048 FFF7FEFF 		bl	HAL_DMA_Start_IT
 483              	.LVL23:
 991:Drivers/STM32F3xx_HAL_Driver/Src/stm32f3xx_hal_uart.c **** 
 992:Drivers/STM32F3xx_HAL_Driver/Src/stm32f3xx_hal_uart.c ****     /* Clear the TC flag in the ICR register */
 993:Drivers/STM32F3xx_HAL_Driver/Src/stm32f3xx_hal_uart.c ****     __HAL_UART_CLEAR_FLAG(huart, UART_CLEAR_TCF);
 484              		.loc 1 993 5 discriminator 2 view .LVU163
 485 004c 2368     		ldr	r3, [r4]
 486 004e 4022     		movs	r2, #64
 487 0050 1A62     		str	r2, [r3, #32]
 994:Drivers/STM32F3xx_HAL_Driver/Src/stm32f3xx_hal_uart.c **** 
 995:Drivers/STM32F3xx_HAL_Driver/Src/stm32f3xx_hal_uart.c ****     /* Process Unlocked */
 996:Drivers/STM32F3xx_HAL_Driver/Src/stm32f3xx_hal_uart.c ****     __HAL_UNLOCK(huart);
 488              		.loc 1 996 5 discriminator 2 view .LVU164
 489              		.loc 1 996 5 discriminator 2 view .LVU165
 997:Drivers/STM32F3xx_HAL_Driver/Src/stm32f3xx_hal_uart.c **** 
 998:Drivers/STM32F3xx_HAL_Driver/Src/stm32f3xx_hal_uart.c ****     /* Enable the DMA transfer for transmit request by setting the DMAT bit
 999:Drivers/STM32F3xx_HAL_Driver/Src/stm32f3xx_hal_uart.c ****        in the UART CR3 register */
1000:Drivers/STM32F3xx_HAL_Driver/Src/stm32f3xx_hal_uart.c ****     SET_BIT(huart->Instance->CR3, USART_CR3_DMAT);
 490              		.loc 1 1000 5 is_stmt 0 discriminator 2 view .LVU166
 491 0052 9A68     		ldr	r2, [r3, #8]
 996:Drivers/STM32F3xx_HAL_Driver/Src/stm32f3xx_hal_uart.c **** 
 492              		.loc 1 996 5 discriminator 2 view .LVU167
 493 0054 84F86850 		strb	r5, [r4, #104]
 494              		.loc 1 1000 5 is_stmt 1 discriminator 2 view .LVU168
 495 0058 42F08002 		orr	r2, r2, #128
1001:Drivers/STM32F3xx_HAL_Driver/Src/stm32f3xx_hal_uart.c **** 
1002:Drivers/STM32F3xx_HAL_Driver/Src/stm32f3xx_hal_uart.c ****     return HAL_OK;
 496              		.loc 1 1002 12 is_stmt 0 discriminator 2 view .LVU169
 497 005c 2846     		mov	r0, r5
1000:Drivers/STM32F3xx_HAL_Driver/Src/stm32f3xx_hal_uart.c **** 
 498              		.loc 1 1000 5 discriminator 2 view .LVU170
 499 005e 9A60     		str	r2, [r3, #8]
 500              		.loc 1 1002 5 is_stmt 1 discriminator 2 view .LVU171
1003:Drivers/STM32F3xx_HAL_Driver/Src/stm32f3xx_hal_uart.c ****   }
1004:Drivers/STM32F3xx_HAL_Driver/Src/stm32f3xx_hal_uart.c ****   else
1005:Drivers/STM32F3xx_HAL_Driver/Src/stm32f3xx_hal_uart.c ****   {
1006:Drivers/STM32F3xx_HAL_Driver/Src/stm32f3xx_hal_uart.c ****     return HAL_BUSY;
1007:Drivers/STM32F3xx_HAL_Driver/Src/stm32f3xx_hal_uart.c ****   }
1008:Drivers/STM32F3xx_HAL_Driver/Src/stm32f3xx_hal_uart.c **** }
ARM GAS  /var/folders/8c/gyvcglfx7f97kbqb2h83mm_r0000gn/T//ccv1qdBn.s 			page 29


 501              		.loc 1 1008 1 is_stmt 0 discriminator 2 view .LVU172
 502 0060 70BD     		pop	{r4, r5, r6, pc}
 503              	.LVL24:
 504              	.L43:
 964:Drivers/STM32F3xx_HAL_Driver/Src/stm32f3xx_hal_uart.c ****     }
 505              		.loc 1 964 14 view .LVU173
 506 0062 0120     		movs	r0, #1
 507              	.LVL25:
 508              		.loc 1 1008 1 view .LVU174
 509 0064 70BD     		pop	{r4, r5, r6, pc}
 510              	.LVL26:
 511              	.L44:
1006:Drivers/STM32F3xx_HAL_Driver/Src/stm32f3xx_hal_uart.c ****   }
 512              		.loc 1 1006 12 view .LVU175
 513 0066 0220     		movs	r0, #2
 514              	.LVL27:
 515              		.loc 1 1008 1 view .LVU176
 516 0068 70BD     		pop	{r4, r5, r6, pc}
 517              	.L47:
 518 006a 00BF     		.align	2
 519              	.L46:
 520 006c 00000000 		.word	UART_DMATransmitCplt
 521 0070 00000000 		.word	UART_DMATxHalfCplt
 522 0074 00000000 		.word	UART_DMAError
 523              		.cfi_endproc
 524              	.LFE137:
 526              		.section	.text.HAL_UART_Receive_DMA,"ax",%progbits
 527              		.align	1
 528              		.p2align 2,,3
 529              		.global	HAL_UART_Receive_DMA
 530              		.syntax unified
 531              		.thumb
 532              		.thumb_func
 533              		.fpu fpv4-sp-d16
 535              	HAL_UART_Receive_DMA:
 536              	.LVL28:
 537              	.LFB138:
1009:Drivers/STM32F3xx_HAL_Driver/Src/stm32f3xx_hal_uart.c **** 
1010:Drivers/STM32F3xx_HAL_Driver/Src/stm32f3xx_hal_uart.c **** /**
1011:Drivers/STM32F3xx_HAL_Driver/Src/stm32f3xx_hal_uart.c ****   * @brief Receive an amount of data in DMA mode.
1012:Drivers/STM32F3xx_HAL_Driver/Src/stm32f3xx_hal_uart.c ****   * @param huart UART handle.
1013:Drivers/STM32F3xx_HAL_Driver/Src/stm32f3xx_hal_uart.c ****   * @param pData pointer to data buffer.
1014:Drivers/STM32F3xx_HAL_Driver/Src/stm32f3xx_hal_uart.c ****   * @param Size amount of data to be received.
1015:Drivers/STM32F3xx_HAL_Driver/Src/stm32f3xx_hal_uart.c ****   * @note   When the UART parity is enabled (PCE = 1), the received data contain
1016:Drivers/STM32F3xx_HAL_Driver/Src/stm32f3xx_hal_uart.c ****   *         the parity bit (MSB position).
1017:Drivers/STM32F3xx_HAL_Driver/Src/stm32f3xx_hal_uart.c ****   * @note This function starts a DMA transfer in interrupt mode meaning that
1018:Drivers/STM32F3xx_HAL_Driver/Src/stm32f3xx_hal_uart.c ****   *       DMA half transfer complete, DMA transfer complete and DMA transfer
1019:Drivers/STM32F3xx_HAL_Driver/Src/stm32f3xx_hal_uart.c ****   *       error interrupts are enabled
1020:Drivers/STM32F3xx_HAL_Driver/Src/stm32f3xx_hal_uart.c ****   * @retval HAL status
1021:Drivers/STM32F3xx_HAL_Driver/Src/stm32f3xx_hal_uart.c ****   */
1022:Drivers/STM32F3xx_HAL_Driver/Src/stm32f3xx_hal_uart.c **** HAL_StatusTypeDef HAL_UART_Receive_DMA(UART_HandleTypeDef *huart, uint8_t *pData, uint16_t Size)
1023:Drivers/STM32F3xx_HAL_Driver/Src/stm32f3xx_hal_uart.c **** {
 538              		.loc 1 1023 1 is_stmt 1 view -0
 539              		.cfi_startproc
 540              		@ args = 0, pretend = 0, frame = 0
 541              		@ frame_needed = 0, uses_anonymous_args = 0
1024:Drivers/STM32F3xx_HAL_Driver/Src/stm32f3xx_hal_uart.c ****   /* Check if UART instance supports continuous communication using DMA */
ARM GAS  /var/folders/8c/gyvcglfx7f97kbqb2h83mm_r0000gn/T//ccv1qdBn.s 			page 30


1025:Drivers/STM32F3xx_HAL_Driver/Src/stm32f3xx_hal_uart.c ****   assert_param(IS_UART_DMA_INSTANCE(huart->Instance));
 542              		.loc 1 1025 3 view .LVU178
1026:Drivers/STM32F3xx_HAL_Driver/Src/stm32f3xx_hal_uart.c **** 
1027:Drivers/STM32F3xx_HAL_Driver/Src/stm32f3xx_hal_uart.c ****   /* Check that a Rx process is not already ongoing */
1028:Drivers/STM32F3xx_HAL_Driver/Src/stm32f3xx_hal_uart.c ****   if(huart->RxState == HAL_UART_STATE_READY)
 543              		.loc 1 1028 3 view .LVU179
 544              		.loc 1 1028 11 is_stmt 0 view .LVU180
 545 0000 90F86A30 		ldrb	r3, [r0, #106]	@ zero_extendqisi2
 546              		.loc 1 1028 5 view .LVU181
 547 0004 202B     		cmp	r3, #32
 548 0006 35D1     		bne	.L53
1029:Drivers/STM32F3xx_HAL_Driver/Src/stm32f3xx_hal_uart.c ****   {
1030:Drivers/STM32F3xx_HAL_Driver/Src/stm32f3xx_hal_uart.c ****     if((pData == NULL ) || (Size == 0U))
 549              		.loc 1 1030 5 is_stmt 1 view .LVU182
 550              		.loc 1 1030 7 is_stmt 0 view .LVU183
 551 0008 0029     		cmp	r1, #0
 552 000a 31D0     		beq	.L52
 553              		.loc 1 1030 25 discriminator 1 view .LVU184
 554 000c 002A     		cmp	r2, #0
 555 000e 2FD0     		beq	.L52
1031:Drivers/STM32F3xx_HAL_Driver/Src/stm32f3xx_hal_uart.c ****     {
1032:Drivers/STM32F3xx_HAL_Driver/Src/stm32f3xx_hal_uart.c ****       return HAL_ERROR;
1033:Drivers/STM32F3xx_HAL_Driver/Src/stm32f3xx_hal_uart.c ****     }
1034:Drivers/STM32F3xx_HAL_Driver/Src/stm32f3xx_hal_uart.c **** 
1035:Drivers/STM32F3xx_HAL_Driver/Src/stm32f3xx_hal_uart.c ****     /* Process Locked */
1036:Drivers/STM32F3xx_HAL_Driver/Src/stm32f3xx_hal_uart.c ****     __HAL_LOCK(huart);
 556              		.loc 1 1036 5 is_stmt 1 view .LVU185
 557              		.loc 1 1036 5 view .LVU186
 558 0010 90F86830 		ldrb	r3, [r0, #104]	@ zero_extendqisi2
 559 0014 012B     		cmp	r3, #1
 560 0016 2DD0     		beq	.L53
 561              		.loc 1 1036 5 discriminator 2 view .LVU187
1023:Drivers/STM32F3xx_HAL_Driver/Src/stm32f3xx_hal_uart.c ****   /* Check if UART instance supports continuous communication using DMA */
 562              		.loc 1 1023 1 is_stmt 0 discriminator 2 view .LVU188
 563 0018 70B5     		push	{r4, r5, r6, lr}
 564              	.LCFI5:
 565              		.cfi_def_cfa_offset 16
 566              		.cfi_offset 4, -16
 567              		.cfi_offset 5, -12
 568              		.cfi_offset 6, -8
 569              		.cfi_offset 14, -4
 570 001a 0446     		mov	r4, r0
 571              		.loc 1 1036 5 discriminator 2 view .LVU189
 572 001c 0126     		movs	r6, #1
1037:Drivers/STM32F3xx_HAL_Driver/Src/stm32f3xx_hal_uart.c **** 
1038:Drivers/STM32F3xx_HAL_Driver/Src/stm32f3xx_hal_uart.c ****     huart->pRxBuffPtr = pData;
1039:Drivers/STM32F3xx_HAL_Driver/Src/stm32f3xx_hal_uart.c ****     huart->RxXferSize = Size;
1040:Drivers/STM32F3xx_HAL_Driver/Src/stm32f3xx_hal_uart.c **** 
1041:Drivers/STM32F3xx_HAL_Driver/Src/stm32f3xx_hal_uart.c ****     huart->ErrorCode = HAL_UART_ERROR_NONE;
1042:Drivers/STM32F3xx_HAL_Driver/Src/stm32f3xx_hal_uart.c ****     huart->RxState = HAL_UART_STATE_BUSY_RX;
1043:Drivers/STM32F3xx_HAL_Driver/Src/stm32f3xx_hal_uart.c **** 
1044:Drivers/STM32F3xx_HAL_Driver/Src/stm32f3xx_hal_uart.c ****     /* Set the UART DMA transfer complete callback */
1045:Drivers/STM32F3xx_HAL_Driver/Src/stm32f3xx_hal_uart.c ****     huart->hdmarx->XferCpltCallback = UART_DMAReceiveCplt;
 573              		.loc 1 1045 10 discriminator 2 view .LVU190
 574 001e 406E     		ldr	r0, [r0, #100]
 575              	.LVL29:
1036:Drivers/STM32F3xx_HAL_Driver/Src/stm32f3xx_hal_uart.c **** 
ARM GAS  /var/folders/8c/gyvcglfx7f97kbqb2h83mm_r0000gn/T//ccv1qdBn.s 			page 31


 576              		.loc 1 1036 5 discriminator 2 view .LVU191
 577 0020 84F86860 		strb	r6, [r4, #104]
1038:Drivers/STM32F3xx_HAL_Driver/Src/stm32f3xx_hal_uart.c ****     huart->RxXferSize = Size;
 578              		.loc 1 1038 5 is_stmt 1 discriminator 2 view .LVU192
1039:Drivers/STM32F3xx_HAL_Driver/Src/stm32f3xx_hal_uart.c **** 
 579              		.loc 1 1039 5 discriminator 2 view .LVU193
1041:Drivers/STM32F3xx_HAL_Driver/Src/stm32f3xx_hal_uart.c ****     huart->RxState = HAL_UART_STATE_BUSY_RX;
 580              		.loc 1 1041 5 discriminator 2 view .LVU194
1042:Drivers/STM32F3xx_HAL_Driver/Src/stm32f3xx_hal_uart.c **** 
 581              		.loc 1 1042 5 discriminator 2 view .LVU195
1041:Drivers/STM32F3xx_HAL_Driver/Src/stm32f3xx_hal_uart.c ****     huart->RxState = HAL_UART_STATE_BUSY_RX;
 582              		.loc 1 1041 22 is_stmt 0 discriminator 2 view .LVU196
 583 0024 0025     		movs	r5, #0
1042:Drivers/STM32F3xx_HAL_Driver/Src/stm32f3xx_hal_uart.c **** 
 584              		.loc 1 1042 20 discriminator 2 view .LVU197
 585 0026 2226     		movs	r6, #34
1041:Drivers/STM32F3xx_HAL_Driver/Src/stm32f3xx_hal_uart.c ****     huart->RxState = HAL_UART_STATE_BUSY_RX;
 586              		.loc 1 1041 22 discriminator 2 view .LVU198
 587 0028 E566     		str	r5, [r4, #108]
 588 002a 1346     		mov	r3, r2
1042:Drivers/STM32F3xx_HAL_Driver/Src/stm32f3xx_hal_uart.c **** 
 589              		.loc 1 1042 20 discriminator 2 view .LVU199
 590 002c 84F86A60 		strb	r6, [r4, #106]
 591              		.loc 1 1045 5 is_stmt 1 discriminator 2 view .LVU200
 592 0030 0A46     		mov	r2, r1
 593              	.LVL30:
 594              		.loc 1 1045 37 is_stmt 0 discriminator 2 view .LVU201
 595 0032 114E     		ldr	r6, .L58
1046:Drivers/STM32F3xx_HAL_Driver/Src/stm32f3xx_hal_uart.c **** 
1047:Drivers/STM32F3xx_HAL_Driver/Src/stm32f3xx_hal_uart.c ****     /* Set the UART DMA Half transfer complete callback */
1048:Drivers/STM32F3xx_HAL_Driver/Src/stm32f3xx_hal_uart.c ****     huart->hdmarx->XferHalfCpltCallback = UART_DMARxHalfCplt;
1049:Drivers/STM32F3xx_HAL_Driver/Src/stm32f3xx_hal_uart.c **** 
1050:Drivers/STM32F3xx_HAL_Driver/Src/stm32f3xx_hal_uart.c ****     /* Set the DMA error callback */
1051:Drivers/STM32F3xx_HAL_Driver/Src/stm32f3xx_hal_uart.c ****     huart->hdmarx->XferErrorCallback = UART_DMAError;
1052:Drivers/STM32F3xx_HAL_Driver/Src/stm32f3xx_hal_uart.c **** 
1053:Drivers/STM32F3xx_HAL_Driver/Src/stm32f3xx_hal_uart.c ****     /* Set the DMA abort callback */
1054:Drivers/STM32F3xx_HAL_Driver/Src/stm32f3xx_hal_uart.c ****     huart->hdmarx->XferAbortCallback = NULL;
1055:Drivers/STM32F3xx_HAL_Driver/Src/stm32f3xx_hal_uart.c **** 
1056:Drivers/STM32F3xx_HAL_Driver/Src/stm32f3xx_hal_uart.c ****     /* Enable the DMA channel */
1057:Drivers/STM32F3xx_HAL_Driver/Src/stm32f3xx_hal_uart.c ****     HAL_DMA_Start_IT(huart->hdmarx, (uint32_t)&huart->Instance->RDR, (uint32_t)huart->pRxBuffPtr, S
 596              		.loc 1 1057 47 discriminator 2 view .LVU202
 597 0034 2168     		ldr	r1, [r4]
 598              	.LVL31:
1038:Drivers/STM32F3xx_HAL_Driver/Src/stm32f3xx_hal_uart.c ****     huart->RxXferSize = Size;
 599              		.loc 1 1038 23 discriminator 2 view .LVU203
 600 0036 6265     		str	r2, [r4, #84]
1039:Drivers/STM32F3xx_HAL_Driver/Src/stm32f3xx_hal_uart.c **** 
 601              		.loc 1 1039 23 discriminator 2 view .LVU204
 602 0038 A4F85830 		strh	r3, [r4, #88]	@ movhi
1045:Drivers/STM32F3xx_HAL_Driver/Src/stm32f3xx_hal_uart.c **** 
 603              		.loc 1 1045 37 discriminator 2 view .LVU205
 604 003c 8662     		str	r6, [r0, #40]
1048:Drivers/STM32F3xx_HAL_Driver/Src/stm32f3xx_hal_uart.c **** 
 605              		.loc 1 1048 5 is_stmt 1 discriminator 2 view .LVU206
1048:Drivers/STM32F3xx_HAL_Driver/Src/stm32f3xx_hal_uart.c **** 
 606              		.loc 1 1048 41 is_stmt 0 discriminator 2 view .LVU207
 607 003e 0F4E     		ldr	r6, .L58+4
ARM GAS  /var/folders/8c/gyvcglfx7f97kbqb2h83mm_r0000gn/T//ccv1qdBn.s 			page 32


 608 0040 C662     		str	r6, [r0, #44]
1051:Drivers/STM32F3xx_HAL_Driver/Src/stm32f3xx_hal_uart.c **** 
 609              		.loc 1 1051 5 is_stmt 1 discriminator 2 view .LVU208
1051:Drivers/STM32F3xx_HAL_Driver/Src/stm32f3xx_hal_uart.c **** 
 610              		.loc 1 1051 38 is_stmt 0 discriminator 2 view .LVU209
 611 0042 0F4E     		ldr	r6, .L58+8
1054:Drivers/STM32F3xx_HAL_Driver/Src/stm32f3xx_hal_uart.c **** 
 612              		.loc 1 1054 38 discriminator 2 view .LVU210
 613 0044 4563     		str	r5, [r0, #52]
1051:Drivers/STM32F3xx_HAL_Driver/Src/stm32f3xx_hal_uart.c **** 
 614              		.loc 1 1051 38 discriminator 2 view .LVU211
 615 0046 0663     		str	r6, [r0, #48]
1054:Drivers/STM32F3xx_HAL_Driver/Src/stm32f3xx_hal_uart.c **** 
 616              		.loc 1 1054 5 is_stmt 1 discriminator 2 view .LVU212
 617              		.loc 1 1057 5 discriminator 2 view .LVU213
 618 0048 2431     		adds	r1, r1, #36
 619 004a FFF7FEFF 		bl	HAL_DMA_Start_IT
 620              	.LVL32:
1058:Drivers/STM32F3xx_HAL_Driver/Src/stm32f3xx_hal_uart.c **** 
1059:Drivers/STM32F3xx_HAL_Driver/Src/stm32f3xx_hal_uart.c ****     /* Process Unlocked */
1060:Drivers/STM32F3xx_HAL_Driver/Src/stm32f3xx_hal_uart.c ****     __HAL_UNLOCK(huart);
 621              		.loc 1 1060 5 discriminator 2 view .LVU214
 622              		.loc 1 1060 5 discriminator 2 view .LVU215
1061:Drivers/STM32F3xx_HAL_Driver/Src/stm32f3xx_hal_uart.c **** 
1062:Drivers/STM32F3xx_HAL_Driver/Src/stm32f3xx_hal_uart.c ****     /* Enable the UART Parity Error Interrupt */
1063:Drivers/STM32F3xx_HAL_Driver/Src/stm32f3xx_hal_uart.c ****     SET_BIT(huart->Instance->CR1, USART_CR1_PEIE);
 623              		.loc 1 1063 5 is_stmt 0 discriminator 2 view .LVU216
 624 004e 2368     		ldr	r3, [r4]
1060:Drivers/STM32F3xx_HAL_Driver/Src/stm32f3xx_hal_uart.c **** 
 625              		.loc 1 1060 5 discriminator 2 view .LVU217
 626 0050 84F86850 		strb	r5, [r4, #104]
 627              		.loc 1 1063 5 is_stmt 1 discriminator 2 view .LVU218
 628 0054 1A68     		ldr	r2, [r3]
 629 0056 42F48072 		orr	r2, r2, #256
 630 005a 1A60     		str	r2, [r3]
1064:Drivers/STM32F3xx_HAL_Driver/Src/stm32f3xx_hal_uart.c **** 
1065:Drivers/STM32F3xx_HAL_Driver/Src/stm32f3xx_hal_uart.c ****     /* Enable the UART Error Interrupt: (Frame error, noise error, overrun error) */
1066:Drivers/STM32F3xx_HAL_Driver/Src/stm32f3xx_hal_uart.c ****     SET_BIT(huart->Instance->CR3, USART_CR3_EIE);
 631              		.loc 1 1066 5 discriminator 2 view .LVU219
 632 005c 9A68     		ldr	r2, [r3, #8]
 633 005e 42F00102 		orr	r2, r2, #1
 634 0062 9A60     		str	r2, [r3, #8]
1067:Drivers/STM32F3xx_HAL_Driver/Src/stm32f3xx_hal_uart.c **** 
1068:Drivers/STM32F3xx_HAL_Driver/Src/stm32f3xx_hal_uart.c ****     /* Enable the DMA transfer for the receiver request by setting the DMAR bit
1069:Drivers/STM32F3xx_HAL_Driver/Src/stm32f3xx_hal_uart.c ****        in the UART CR3 register */
1070:Drivers/STM32F3xx_HAL_Driver/Src/stm32f3xx_hal_uart.c ****     SET_BIT(huart->Instance->CR3, USART_CR3_DMAR);
 635              		.loc 1 1070 5 discriminator 2 view .LVU220
 636 0064 9A68     		ldr	r2, [r3, #8]
 637 0066 42F04002 		orr	r2, r2, #64
1071:Drivers/STM32F3xx_HAL_Driver/Src/stm32f3xx_hal_uart.c **** 
1072:Drivers/STM32F3xx_HAL_Driver/Src/stm32f3xx_hal_uart.c ****     return HAL_OK;
 638              		.loc 1 1072 12 is_stmt 0 discriminator 2 view .LVU221
 639 006a 2846     		mov	r0, r5
1070:Drivers/STM32F3xx_HAL_Driver/Src/stm32f3xx_hal_uart.c **** 
 640              		.loc 1 1070 5 discriminator 2 view .LVU222
 641 006c 9A60     		str	r2, [r3, #8]
 642              		.loc 1 1072 5 is_stmt 1 discriminator 2 view .LVU223
ARM GAS  /var/folders/8c/gyvcglfx7f97kbqb2h83mm_r0000gn/T//ccv1qdBn.s 			page 33


1073:Drivers/STM32F3xx_HAL_Driver/Src/stm32f3xx_hal_uart.c ****   }
1074:Drivers/STM32F3xx_HAL_Driver/Src/stm32f3xx_hal_uart.c ****   else
1075:Drivers/STM32F3xx_HAL_Driver/Src/stm32f3xx_hal_uart.c ****   {
1076:Drivers/STM32F3xx_HAL_Driver/Src/stm32f3xx_hal_uart.c ****     return HAL_BUSY;
1077:Drivers/STM32F3xx_HAL_Driver/Src/stm32f3xx_hal_uart.c ****   }
1078:Drivers/STM32F3xx_HAL_Driver/Src/stm32f3xx_hal_uart.c **** }
 643              		.loc 1 1078 1 is_stmt 0 discriminator 2 view .LVU224
 644 006e 70BD     		pop	{r4, r5, r6, pc}
 645              	.LVL33:
 646              	.L52:
 647              	.LCFI6:
 648              		.cfi_def_cfa_offset 0
 649              		.cfi_restore 4
 650              		.cfi_restore 5
 651              		.cfi_restore 6
 652              		.cfi_restore 14
1032:Drivers/STM32F3xx_HAL_Driver/Src/stm32f3xx_hal_uart.c ****     }
 653              		.loc 1 1032 14 view .LVU225
 654 0070 0120     		movs	r0, #1
 655              	.LVL34:
1032:Drivers/STM32F3xx_HAL_Driver/Src/stm32f3xx_hal_uart.c ****     }
 656              		.loc 1 1032 14 view .LVU226
 657 0072 7047     		bx	lr
 658              	.LVL35:
 659              	.L53:
1076:Drivers/STM32F3xx_HAL_Driver/Src/stm32f3xx_hal_uart.c ****   }
 660              		.loc 1 1076 12 view .LVU227
 661 0074 0220     		movs	r0, #2
 662              	.LVL36:
 663              		.loc 1 1078 1 view .LVU228
 664 0076 7047     		bx	lr
 665              	.L59:
 666              		.align	2
 667              	.L58:
 668 0078 00000000 		.word	UART_DMAReceiveCplt
 669 007c 00000000 		.word	UART_DMARxHalfCplt
 670 0080 00000000 		.word	UART_DMAError
 671              		.cfi_endproc
 672              	.LFE138:
 674              		.section	.text.HAL_UART_DMAPause,"ax",%progbits
 675              		.align	1
 676              		.p2align 2,,3
 677              		.global	HAL_UART_DMAPause
 678              		.syntax unified
 679              		.thumb
 680              		.thumb_func
 681              		.fpu fpv4-sp-d16
 683              	HAL_UART_DMAPause:
 684              	.LVL37:
 685              	.LFB139:
1079:Drivers/STM32F3xx_HAL_Driver/Src/stm32f3xx_hal_uart.c **** 
1080:Drivers/STM32F3xx_HAL_Driver/Src/stm32f3xx_hal_uart.c **** /**
1081:Drivers/STM32F3xx_HAL_Driver/Src/stm32f3xx_hal_uart.c ****   * @brief  Pause the DMA Transfer.
1082:Drivers/STM32F3xx_HAL_Driver/Src/stm32f3xx_hal_uart.c ****   * @param  huart UART handle.
1083:Drivers/STM32F3xx_HAL_Driver/Src/stm32f3xx_hal_uart.c ****   * @retval HAL status
1084:Drivers/STM32F3xx_HAL_Driver/Src/stm32f3xx_hal_uart.c ****   */
1085:Drivers/STM32F3xx_HAL_Driver/Src/stm32f3xx_hal_uart.c **** HAL_StatusTypeDef HAL_UART_DMAPause(UART_HandleTypeDef *huart)
ARM GAS  /var/folders/8c/gyvcglfx7f97kbqb2h83mm_r0000gn/T//ccv1qdBn.s 			page 34


1086:Drivers/STM32F3xx_HAL_Driver/Src/stm32f3xx_hal_uart.c **** {
 686              		.loc 1 1086 1 is_stmt 1 view -0
 687              		.cfi_startproc
 688              		@ args = 0, pretend = 0, frame = 0
 689              		@ frame_needed = 0, uses_anonymous_args = 0
 690              		@ link register save eliminated.
1087:Drivers/STM32F3xx_HAL_Driver/Src/stm32f3xx_hal_uart.c ****   /* Process Locked */
1088:Drivers/STM32F3xx_HAL_Driver/Src/stm32f3xx_hal_uart.c ****   __HAL_LOCK(huart);
 691              		.loc 1 1088 3 view .LVU230
 692              		.loc 1 1088 3 view .LVU231
 693 0000 90F86830 		ldrb	r3, [r0, #104]	@ zero_extendqisi2
 694 0004 012B     		cmp	r3, #1
 695 0006 30D0     		beq	.L64
 696              		.loc 1 1088 3 discriminator 2 view .LVU232
1089:Drivers/STM32F3xx_HAL_Driver/Src/stm32f3xx_hal_uart.c **** 
1090:Drivers/STM32F3xx_HAL_Driver/Src/stm32f3xx_hal_uart.c ****   if ((huart->gState == HAL_UART_STATE_BUSY_TX) &&
 697              		.loc 1 1090 13 is_stmt 0 discriminator 2 view .LVU233
 698 0008 90F86930 		ldrb	r3, [r0, #105]	@ zero_extendqisi2
1088:Drivers/STM32F3xx_HAL_Driver/Src/stm32f3xx_hal_uart.c **** 
 699              		.loc 1 1088 3 discriminator 2 view .LVU234
 700 000c 0122     		movs	r2, #1
 701              		.loc 1 1090 6 discriminator 2 view .LVU235
 702 000e 212B     		cmp	r3, #33
1088:Drivers/STM32F3xx_HAL_Driver/Src/stm32f3xx_hal_uart.c **** 
 703              		.loc 1 1088 3 discriminator 2 view .LVU236
 704 0010 80F86820 		strb	r2, [r0, #104]
 705              		.loc 1 1090 3 is_stmt 1 discriminator 2 view .LVU237
 706              		.loc 1 1090 6 is_stmt 0 discriminator 2 view .LVU238
 707 0014 08D0     		beq	.L71
 708              	.L62:
1091:Drivers/STM32F3xx_HAL_Driver/Src/stm32f3xx_hal_uart.c ****       (HAL_IS_BIT_SET(huart->Instance->CR3, USART_CR3_DMAT)))
1092:Drivers/STM32F3xx_HAL_Driver/Src/stm32f3xx_hal_uart.c ****   {
1093:Drivers/STM32F3xx_HAL_Driver/Src/stm32f3xx_hal_uart.c ****     /* Disable the UART DMA Tx request */
1094:Drivers/STM32F3xx_HAL_Driver/Src/stm32f3xx_hal_uart.c ****     CLEAR_BIT(huart->Instance->CR3, USART_CR3_DMAT);
1095:Drivers/STM32F3xx_HAL_Driver/Src/stm32f3xx_hal_uart.c ****   }
1096:Drivers/STM32F3xx_HAL_Driver/Src/stm32f3xx_hal_uart.c ****   if ((huart->RxState == HAL_UART_STATE_BUSY_RX) &&
 709              		.loc 1 1096 3 is_stmt 1 view .LVU239
 710              		.loc 1 1096 13 is_stmt 0 view .LVU240
 711 0016 90F86A30 		ldrb	r3, [r0, #106]	@ zero_extendqisi2
 712              		.loc 1 1096 6 view .LVU241
 713 001a 222B     		cmp	r3, #34
 714 001c 10D0     		beq	.L72
 715              	.L63:
1097:Drivers/STM32F3xx_HAL_Driver/Src/stm32f3xx_hal_uart.c ****       (HAL_IS_BIT_SET(huart->Instance->CR3, USART_CR3_DMAR)))
1098:Drivers/STM32F3xx_HAL_Driver/Src/stm32f3xx_hal_uart.c ****   {
1099:Drivers/STM32F3xx_HAL_Driver/Src/stm32f3xx_hal_uart.c ****     /* Disable PE and ERR (Frame error, noise error, overrun error) interrupts */
1100:Drivers/STM32F3xx_HAL_Driver/Src/stm32f3xx_hal_uart.c ****     CLEAR_BIT(huart->Instance->CR1, USART_CR1_PEIE);
1101:Drivers/STM32F3xx_HAL_Driver/Src/stm32f3xx_hal_uart.c ****     CLEAR_BIT(huart->Instance->CR3, USART_CR3_EIE);
1102:Drivers/STM32F3xx_HAL_Driver/Src/stm32f3xx_hal_uart.c **** 
1103:Drivers/STM32F3xx_HAL_Driver/Src/stm32f3xx_hal_uart.c ****     /* Disable the UART DMA Rx request */
1104:Drivers/STM32F3xx_HAL_Driver/Src/stm32f3xx_hal_uart.c ****     CLEAR_BIT(huart->Instance->CR3, USART_CR3_DMAR);
1105:Drivers/STM32F3xx_HAL_Driver/Src/stm32f3xx_hal_uart.c ****   }
1106:Drivers/STM32F3xx_HAL_Driver/Src/stm32f3xx_hal_uart.c **** 
1107:Drivers/STM32F3xx_HAL_Driver/Src/stm32f3xx_hal_uart.c ****   /* Process Unlocked */
1108:Drivers/STM32F3xx_HAL_Driver/Src/stm32f3xx_hal_uart.c ****   __HAL_UNLOCK(huart);
 716              		.loc 1 1108 3 is_stmt 1 view .LVU242
 717              		.loc 1 1108 3 view .LVU243
ARM GAS  /var/folders/8c/gyvcglfx7f97kbqb2h83mm_r0000gn/T//ccv1qdBn.s 			page 35


 718 001e 0023     		movs	r3, #0
 719 0020 80F86830 		strb	r3, [r0, #104]
1109:Drivers/STM32F3xx_HAL_Driver/Src/stm32f3xx_hal_uart.c **** 
1110:Drivers/STM32F3xx_HAL_Driver/Src/stm32f3xx_hal_uart.c ****   return HAL_OK;
 720              		.loc 1 1110 3 view .LVU244
 721              		.loc 1 1110 10 is_stmt 0 view .LVU245
 722 0024 1846     		mov	r0, r3
 723              	.LVL38:
 724              		.loc 1 1110 10 view .LVU246
 725 0026 7047     		bx	lr
 726              	.LVL39:
 727              	.L71:
1091:Drivers/STM32F3xx_HAL_Driver/Src/stm32f3xx_hal_uart.c ****   {
 728              		.loc 1 1091 8 discriminator 1 view .LVU247
 729 0028 0368     		ldr	r3, [r0]
 730 002a 9A68     		ldr	r2, [r3, #8]
1090:Drivers/STM32F3xx_HAL_Driver/Src/stm32f3xx_hal_uart.c ****       (HAL_IS_BIT_SET(huart->Instance->CR3, USART_CR3_DMAT)))
 731              		.loc 1 1090 49 discriminator 1 view .LVU248
 732 002c 1106     		lsls	r1, r2, #24
 733 002e F2D5     		bpl	.L62
1094:Drivers/STM32F3xx_HAL_Driver/Src/stm32f3xx_hal_uart.c ****   }
 734              		.loc 1 1094 5 is_stmt 1 view .LVU249
 735 0030 9A68     		ldr	r2, [r3, #8]
 736 0032 22F08002 		bic	r2, r2, #128
 737 0036 9A60     		str	r2, [r3, #8]
1096:Drivers/STM32F3xx_HAL_Driver/Src/stm32f3xx_hal_uart.c ****       (HAL_IS_BIT_SET(huart->Instance->CR3, USART_CR3_DMAR)))
 738              		.loc 1 1096 3 view .LVU250
1096:Drivers/STM32F3xx_HAL_Driver/Src/stm32f3xx_hal_uart.c ****       (HAL_IS_BIT_SET(huart->Instance->CR3, USART_CR3_DMAR)))
 739              		.loc 1 1096 13 is_stmt 0 view .LVU251
 740 0038 90F86A30 		ldrb	r3, [r0, #106]	@ zero_extendqisi2
1096:Drivers/STM32F3xx_HAL_Driver/Src/stm32f3xx_hal_uart.c ****       (HAL_IS_BIT_SET(huart->Instance->CR3, USART_CR3_DMAR)))
 741              		.loc 1 1096 6 view .LVU252
 742 003c 222B     		cmp	r3, #34
 743 003e EED1     		bne	.L63
 744              	.L72:
1097:Drivers/STM32F3xx_HAL_Driver/Src/stm32f3xx_hal_uart.c ****   {
 745              		.loc 1 1097 8 discriminator 1 view .LVU253
 746 0040 0368     		ldr	r3, [r0]
 747 0042 9A68     		ldr	r2, [r3, #8]
1096:Drivers/STM32F3xx_HAL_Driver/Src/stm32f3xx_hal_uart.c ****       (HAL_IS_BIT_SET(huart->Instance->CR3, USART_CR3_DMAR)))
 748              		.loc 1 1096 50 discriminator 1 view .LVU254
 749 0044 5206     		lsls	r2, r2, #25
 750 0046 EAD5     		bpl	.L63
1100:Drivers/STM32F3xx_HAL_Driver/Src/stm32f3xx_hal_uart.c ****     CLEAR_BIT(huart->Instance->CR3, USART_CR3_EIE);
 751              		.loc 1 1100 5 is_stmt 1 view .LVU255
 752 0048 1A68     		ldr	r2, [r3]
 753 004a 22F48072 		bic	r2, r2, #256
 754 004e 1A60     		str	r2, [r3]
1101:Drivers/STM32F3xx_HAL_Driver/Src/stm32f3xx_hal_uart.c **** 
 755              		.loc 1 1101 5 view .LVU256
 756 0050 9A68     		ldr	r2, [r3, #8]
 757 0052 22F00102 		bic	r2, r2, #1
 758 0056 9A60     		str	r2, [r3, #8]
1104:Drivers/STM32F3xx_HAL_Driver/Src/stm32f3xx_hal_uart.c ****   }
 759              		.loc 1 1104 5 view .LVU257
 760 0058 9A68     		ldr	r2, [r3, #8]
 761 005a 22F04002 		bic	r2, r2, #64
ARM GAS  /var/folders/8c/gyvcglfx7f97kbqb2h83mm_r0000gn/T//ccv1qdBn.s 			page 36


 762 005e 9A60     		str	r2, [r3, #8]
1108:Drivers/STM32F3xx_HAL_Driver/Src/stm32f3xx_hal_uart.c **** 
 763              		.loc 1 1108 3 view .LVU258
1108:Drivers/STM32F3xx_HAL_Driver/Src/stm32f3xx_hal_uart.c **** 
 764              		.loc 1 1108 3 view .LVU259
 765 0060 0023     		movs	r3, #0
 766 0062 80F86830 		strb	r3, [r0, #104]
 767              		.loc 1 1110 3 view .LVU260
 768              		.loc 1 1110 10 is_stmt 0 view .LVU261
 769 0066 1846     		mov	r0, r3
 770              	.LVL40:
 771              		.loc 1 1110 10 view .LVU262
 772 0068 7047     		bx	lr
 773              	.LVL41:
 774              	.L64:
1088:Drivers/STM32F3xx_HAL_Driver/Src/stm32f3xx_hal_uart.c **** 
 775              		.loc 1 1088 3 view .LVU263
 776 006a 0220     		movs	r0, #2
 777              	.LVL42:
1111:Drivers/STM32F3xx_HAL_Driver/Src/stm32f3xx_hal_uart.c **** }
 778              		.loc 1 1111 1 view .LVU264
 779 006c 7047     		bx	lr
 780              		.cfi_endproc
 781              	.LFE139:
 783 006e 00BF     		.section	.text.HAL_UART_DMAResume,"ax",%progbits
 784              		.align	1
 785              		.p2align 2,,3
 786              		.global	HAL_UART_DMAResume
 787              		.syntax unified
 788              		.thumb
 789              		.thumb_func
 790              		.fpu fpv4-sp-d16
 792              	HAL_UART_DMAResume:
 793              	.LVL43:
 794              	.LFB140:
1112:Drivers/STM32F3xx_HAL_Driver/Src/stm32f3xx_hal_uart.c **** 
1113:Drivers/STM32F3xx_HAL_Driver/Src/stm32f3xx_hal_uart.c **** /**
1114:Drivers/STM32F3xx_HAL_Driver/Src/stm32f3xx_hal_uart.c ****   * @brief  Resume the DMA Transfer.
1115:Drivers/STM32F3xx_HAL_Driver/Src/stm32f3xx_hal_uart.c ****   * @param  huart UART handle.
1116:Drivers/STM32F3xx_HAL_Driver/Src/stm32f3xx_hal_uart.c ****   * @retval HAL status
1117:Drivers/STM32F3xx_HAL_Driver/Src/stm32f3xx_hal_uart.c ****   */
1118:Drivers/STM32F3xx_HAL_Driver/Src/stm32f3xx_hal_uart.c **** HAL_StatusTypeDef HAL_UART_DMAResume(UART_HandleTypeDef *huart)
1119:Drivers/STM32F3xx_HAL_Driver/Src/stm32f3xx_hal_uart.c **** {
 795              		.loc 1 1119 1 is_stmt 1 view -0
 796              		.cfi_startproc
 797              		@ args = 0, pretend = 0, frame = 0
 798              		@ frame_needed = 0, uses_anonymous_args = 0
 799              		@ link register save eliminated.
1120:Drivers/STM32F3xx_HAL_Driver/Src/stm32f3xx_hal_uart.c ****   /* Process Locked */
1121:Drivers/STM32F3xx_HAL_Driver/Src/stm32f3xx_hal_uart.c ****   __HAL_LOCK(huart);
 800              		.loc 1 1121 3 view .LVU266
 801              		.loc 1 1121 3 view .LVU267
 802 0000 90F86830 		ldrb	r3, [r0, #104]	@ zero_extendqisi2
 803 0004 012B     		cmp	r3, #1
 804 0006 23D0     		beq	.L77
 805              		.loc 1 1121 3 discriminator 2 view .LVU268
1122:Drivers/STM32F3xx_HAL_Driver/Src/stm32f3xx_hal_uart.c **** 
ARM GAS  /var/folders/8c/gyvcglfx7f97kbqb2h83mm_r0000gn/T//ccv1qdBn.s 			page 37


1123:Drivers/STM32F3xx_HAL_Driver/Src/stm32f3xx_hal_uart.c ****   if(huart->gState == HAL_UART_STATE_BUSY_TX)
 806              		.loc 1 1123 11 is_stmt 0 discriminator 2 view .LVU269
 807 0008 90F86930 		ldrb	r3, [r0, #105]	@ zero_extendqisi2
1121:Drivers/STM32F3xx_HAL_Driver/Src/stm32f3xx_hal_uart.c **** 
 808              		.loc 1 1121 3 discriminator 2 view .LVU270
 809 000c 0122     		movs	r2, #1
 810              		.loc 1 1123 5 discriminator 2 view .LVU271
 811 000e 212B     		cmp	r3, #33
1121:Drivers/STM32F3xx_HAL_Driver/Src/stm32f3xx_hal_uart.c **** 
 812              		.loc 1 1121 3 discriminator 2 view .LVU272
 813 0010 80F86820 		strb	r2, [r0, #104]
 814              		.loc 1 1123 3 is_stmt 1 discriminator 2 view .LVU273
 815              		.loc 1 1123 5 is_stmt 0 discriminator 2 view .LVU274
 816 0014 04D1     		bne	.L75
1124:Drivers/STM32F3xx_HAL_Driver/Src/stm32f3xx_hal_uart.c ****   {
1125:Drivers/STM32F3xx_HAL_Driver/Src/stm32f3xx_hal_uart.c ****     /* Enable the UART DMA Tx request */
1126:Drivers/STM32F3xx_HAL_Driver/Src/stm32f3xx_hal_uart.c ****     SET_BIT(huart->Instance->CR3, USART_CR3_DMAT);
 817              		.loc 1 1126 5 is_stmt 1 view .LVU275
 818 0016 0268     		ldr	r2, [r0]
 819 0018 9368     		ldr	r3, [r2, #8]
 820 001a 43F08003 		orr	r3, r3, #128
 821 001e 9360     		str	r3, [r2, #8]
 822              	.L75:
1127:Drivers/STM32F3xx_HAL_Driver/Src/stm32f3xx_hal_uart.c ****   }
1128:Drivers/STM32F3xx_HAL_Driver/Src/stm32f3xx_hal_uart.c ****   if(huart->RxState == HAL_UART_STATE_BUSY_RX)
 823              		.loc 1 1128 3 view .LVU276
 824              		.loc 1 1128 11 is_stmt 0 view .LVU277
 825 0020 90F86A30 		ldrb	r3, [r0, #106]	@ zero_extendqisi2
 826              		.loc 1 1128 5 view .LVU278
 827 0024 222B     		cmp	r3, #34
 828 0026 0ED1     		bne	.L76
1129:Drivers/STM32F3xx_HAL_Driver/Src/stm32f3xx_hal_uart.c ****   {
1130:Drivers/STM32F3xx_HAL_Driver/Src/stm32f3xx_hal_uart.c ****     /* Clear the Overrun flag before resuming the Rx transfer */
1131:Drivers/STM32F3xx_HAL_Driver/Src/stm32f3xx_hal_uart.c ****     __HAL_UART_CLEAR_FLAG(huart, UART_CLEAR_OREF);
 829              		.loc 1 1131 5 is_stmt 1 view .LVU279
 830 0028 0368     		ldr	r3, [r0]
 831 002a 0822     		movs	r2, #8
 832 002c 1A62     		str	r2, [r3, #32]
1132:Drivers/STM32F3xx_HAL_Driver/Src/stm32f3xx_hal_uart.c **** 
1133:Drivers/STM32F3xx_HAL_Driver/Src/stm32f3xx_hal_uart.c ****     /* Reenable PE and ERR (Frame error, noise error, overrun error) interrupts */
1134:Drivers/STM32F3xx_HAL_Driver/Src/stm32f3xx_hal_uart.c ****     SET_BIT(huart->Instance->CR1, USART_CR1_PEIE);
 833              		.loc 1 1134 5 view .LVU280
 834 002e 1A68     		ldr	r2, [r3]
 835 0030 42F48072 		orr	r2, r2, #256
 836 0034 1A60     		str	r2, [r3]
1135:Drivers/STM32F3xx_HAL_Driver/Src/stm32f3xx_hal_uart.c ****     SET_BIT(huart->Instance->CR3, USART_CR3_EIE);
 837              		.loc 1 1135 5 view .LVU281
 838 0036 9A68     		ldr	r2, [r3, #8]
 839 0038 42F00102 		orr	r2, r2, #1
 840 003c 9A60     		str	r2, [r3, #8]
1136:Drivers/STM32F3xx_HAL_Driver/Src/stm32f3xx_hal_uart.c **** 
1137:Drivers/STM32F3xx_HAL_Driver/Src/stm32f3xx_hal_uart.c ****     /* Enable the UART DMA Rx request */
1138:Drivers/STM32F3xx_HAL_Driver/Src/stm32f3xx_hal_uart.c ****     SET_BIT(huart->Instance->CR3, USART_CR3_DMAR);
 841              		.loc 1 1138 5 view .LVU282
 842 003e 9A68     		ldr	r2, [r3, #8]
 843 0040 42F04002 		orr	r2, r2, #64
 844 0044 9A60     		str	r2, [r3, #8]
ARM GAS  /var/folders/8c/gyvcglfx7f97kbqb2h83mm_r0000gn/T//ccv1qdBn.s 			page 38


 845              	.L76:
1139:Drivers/STM32F3xx_HAL_Driver/Src/stm32f3xx_hal_uart.c ****   }
1140:Drivers/STM32F3xx_HAL_Driver/Src/stm32f3xx_hal_uart.c **** 
1141:Drivers/STM32F3xx_HAL_Driver/Src/stm32f3xx_hal_uart.c ****   /* Process Unlocked */
1142:Drivers/STM32F3xx_HAL_Driver/Src/stm32f3xx_hal_uart.c ****   __HAL_UNLOCK(huart);
 846              		.loc 1 1142 3 view .LVU283
 847              		.loc 1 1142 3 view .LVU284
 848 0046 0023     		movs	r3, #0
 849 0048 80F86830 		strb	r3, [r0, #104]
1143:Drivers/STM32F3xx_HAL_Driver/Src/stm32f3xx_hal_uart.c **** 
1144:Drivers/STM32F3xx_HAL_Driver/Src/stm32f3xx_hal_uart.c ****   return HAL_OK;
 850              		.loc 1 1144 3 view .LVU285
 851              		.loc 1 1144 10 is_stmt 0 view .LVU286
 852 004c 1846     		mov	r0, r3
 853              	.LVL44:
 854              		.loc 1 1144 10 view .LVU287
 855 004e 7047     		bx	lr
 856              	.LVL45:
 857              	.L77:
1121:Drivers/STM32F3xx_HAL_Driver/Src/stm32f3xx_hal_uart.c **** 
 858              		.loc 1 1121 3 view .LVU288
 859 0050 0220     		movs	r0, #2
 860              	.LVL46:
1145:Drivers/STM32F3xx_HAL_Driver/Src/stm32f3xx_hal_uart.c **** }
 861              		.loc 1 1145 1 view .LVU289
 862 0052 7047     		bx	lr
 863              		.cfi_endproc
 864              	.LFE140:
 866              		.section	.text.HAL_UART_DMAStop,"ax",%progbits
 867              		.align	1
 868              		.p2align 2,,3
 869              		.global	HAL_UART_DMAStop
 870              		.syntax unified
 871              		.thumb
 872              		.thumb_func
 873              		.fpu fpv4-sp-d16
 875              	HAL_UART_DMAStop:
 876              	.LVL47:
 877              	.LFB141:
1146:Drivers/STM32F3xx_HAL_Driver/Src/stm32f3xx_hal_uart.c **** 
1147:Drivers/STM32F3xx_HAL_Driver/Src/stm32f3xx_hal_uart.c **** /**
1148:Drivers/STM32F3xx_HAL_Driver/Src/stm32f3xx_hal_uart.c ****   * @brief  Stop the DMA Transfer.
1149:Drivers/STM32F3xx_HAL_Driver/Src/stm32f3xx_hal_uart.c ****   * @param  huart UART handle.
1150:Drivers/STM32F3xx_HAL_Driver/Src/stm32f3xx_hal_uart.c ****   * @retval HAL status
1151:Drivers/STM32F3xx_HAL_Driver/Src/stm32f3xx_hal_uart.c ****   */
1152:Drivers/STM32F3xx_HAL_Driver/Src/stm32f3xx_hal_uart.c **** HAL_StatusTypeDef HAL_UART_DMAStop(UART_HandleTypeDef *huart)
1153:Drivers/STM32F3xx_HAL_Driver/Src/stm32f3xx_hal_uart.c **** {
 878              		.loc 1 1153 1 is_stmt 1 view -0
 879              		.cfi_startproc
 880              		@ args = 0, pretend = 0, frame = 0
 881              		@ frame_needed = 0, uses_anonymous_args = 0
1154:Drivers/STM32F3xx_HAL_Driver/Src/stm32f3xx_hal_uart.c ****   /* The Lock is not implemented on this API to allow the user application
1155:Drivers/STM32F3xx_HAL_Driver/Src/stm32f3xx_hal_uart.c ****      to call the HAL UART API under callbacks HAL_UART_TxCpltCallback() / HAL_UART_RxCpltCallback()
1156:Drivers/STM32F3xx_HAL_Driver/Src/stm32f3xx_hal_uart.c ****      HAL_UART_TxHalfCpltCallback / HAL_UART_RxHalfCpltCallback: 
1157:Drivers/STM32F3xx_HAL_Driver/Src/stm32f3xx_hal_uart.c ****      indeed, when HAL_DMA_Abort() API is called, the DMA TX/RX Transfer or Half Transfer complete  
1158:Drivers/STM32F3xx_HAL_Driver/Src/stm32f3xx_hal_uart.c ****      interrupt is generated if the DMA transfer interruption occurs at the middle or at the end of 
1159:Drivers/STM32F3xx_HAL_Driver/Src/stm32f3xx_hal_uart.c ****      the stream and the corresponding call back is executed. */
ARM GAS  /var/folders/8c/gyvcglfx7f97kbqb2h83mm_r0000gn/T//ccv1qdBn.s 			page 39


1160:Drivers/STM32F3xx_HAL_Driver/Src/stm32f3xx_hal_uart.c **** 
1161:Drivers/STM32F3xx_HAL_Driver/Src/stm32f3xx_hal_uart.c ****   /* Stop UART DMA Tx request if ongoing */
1162:Drivers/STM32F3xx_HAL_Driver/Src/stm32f3xx_hal_uart.c ****   if ((huart->gState == HAL_UART_STATE_BUSY_TX) &&
 882              		.loc 1 1162 3 view .LVU291
 883              		.loc 1 1162 13 is_stmt 0 view .LVU292
 884 0000 90F86930 		ldrb	r3, [r0, #105]	@ zero_extendqisi2
 885              		.loc 1 1162 6 view .LVU293
 886 0004 212B     		cmp	r3, #33
1153:Drivers/STM32F3xx_HAL_Driver/Src/stm32f3xx_hal_uart.c ****   /* The Lock is not implemented on this API to allow the user application
 887              		.loc 1 1153 1 view .LVU294
 888 0006 10B5     		push	{r4, lr}
 889              	.LCFI7:
 890              		.cfi_def_cfa_offset 8
 891              		.cfi_offset 4, -8
 892              		.cfi_offset 14, -4
1153:Drivers/STM32F3xx_HAL_Driver/Src/stm32f3xx_hal_uart.c ****   /* The Lock is not implemented on this API to allow the user application
 893              		.loc 1 1153 1 view .LVU295
 894 0008 0446     		mov	r4, r0
 895              		.loc 1 1162 6 view .LVU296
 896 000a 05D0     		beq	.L96
 897              	.L79:
1163:Drivers/STM32F3xx_HAL_Driver/Src/stm32f3xx_hal_uart.c ****       (HAL_IS_BIT_SET(huart->Instance->CR3, USART_CR3_DMAT)))
1164:Drivers/STM32F3xx_HAL_Driver/Src/stm32f3xx_hal_uart.c ****   {
1165:Drivers/STM32F3xx_HAL_Driver/Src/stm32f3xx_hal_uart.c ****     CLEAR_BIT(huart->Instance->CR3, USART_CR3_DMAT);
1166:Drivers/STM32F3xx_HAL_Driver/Src/stm32f3xx_hal_uart.c **** 
1167:Drivers/STM32F3xx_HAL_Driver/Src/stm32f3xx_hal_uart.c ****     /* Abort the UART DMA Tx channel */
1168:Drivers/STM32F3xx_HAL_Driver/Src/stm32f3xx_hal_uart.c ****     if(huart->hdmatx != NULL)
1169:Drivers/STM32F3xx_HAL_Driver/Src/stm32f3xx_hal_uart.c ****     {
1170:Drivers/STM32F3xx_HAL_Driver/Src/stm32f3xx_hal_uart.c ****       HAL_DMA_Abort(huart->hdmatx);
1171:Drivers/STM32F3xx_HAL_Driver/Src/stm32f3xx_hal_uart.c ****     }
1172:Drivers/STM32F3xx_HAL_Driver/Src/stm32f3xx_hal_uart.c **** 
1173:Drivers/STM32F3xx_HAL_Driver/Src/stm32f3xx_hal_uart.c ****     UART_EndTxTransfer(huart);
1174:Drivers/STM32F3xx_HAL_Driver/Src/stm32f3xx_hal_uart.c ****   }
1175:Drivers/STM32F3xx_HAL_Driver/Src/stm32f3xx_hal_uart.c **** 
1176:Drivers/STM32F3xx_HAL_Driver/Src/stm32f3xx_hal_uart.c ****   /* Stop UART DMA Rx request if ongoing */
1177:Drivers/STM32F3xx_HAL_Driver/Src/stm32f3xx_hal_uart.c ****   if ((huart->RxState == HAL_UART_STATE_BUSY_RX) &&
 898              		.loc 1 1177 3 is_stmt 1 view .LVU297
 899              		.loc 1 1177 13 is_stmt 0 view .LVU298
 900 000c 94F86A30 		ldrb	r3, [r4, #106]	@ zero_extendqisi2
 901              		.loc 1 1177 6 view .LVU299
 902 0010 222B     		cmp	r3, #34
 903 0012 19D0     		beq	.L97
 904              	.LVL48:
 905              	.L81:
1178:Drivers/STM32F3xx_HAL_Driver/Src/stm32f3xx_hal_uart.c ****       (HAL_IS_BIT_SET(huart->Instance->CR3, USART_CR3_DMAR)))
1179:Drivers/STM32F3xx_HAL_Driver/Src/stm32f3xx_hal_uart.c ****   {
1180:Drivers/STM32F3xx_HAL_Driver/Src/stm32f3xx_hal_uart.c ****     CLEAR_BIT(huart->Instance->CR3, USART_CR3_DMAR);
1181:Drivers/STM32F3xx_HAL_Driver/Src/stm32f3xx_hal_uart.c **** 
1182:Drivers/STM32F3xx_HAL_Driver/Src/stm32f3xx_hal_uart.c ****     /* Abort the UART DMA Rx channel */
1183:Drivers/STM32F3xx_HAL_Driver/Src/stm32f3xx_hal_uart.c ****     if(huart->hdmarx != NULL)
1184:Drivers/STM32F3xx_HAL_Driver/Src/stm32f3xx_hal_uart.c ****     {
1185:Drivers/STM32F3xx_HAL_Driver/Src/stm32f3xx_hal_uart.c ****       HAL_DMA_Abort(huart->hdmarx);
1186:Drivers/STM32F3xx_HAL_Driver/Src/stm32f3xx_hal_uart.c ****     }
1187:Drivers/STM32F3xx_HAL_Driver/Src/stm32f3xx_hal_uart.c **** 
1188:Drivers/STM32F3xx_HAL_Driver/Src/stm32f3xx_hal_uart.c ****     UART_EndRxTransfer(huart);
1189:Drivers/STM32F3xx_HAL_Driver/Src/stm32f3xx_hal_uart.c ****   }
1190:Drivers/STM32F3xx_HAL_Driver/Src/stm32f3xx_hal_uart.c **** 
ARM GAS  /var/folders/8c/gyvcglfx7f97kbqb2h83mm_r0000gn/T//ccv1qdBn.s 			page 40


1191:Drivers/STM32F3xx_HAL_Driver/Src/stm32f3xx_hal_uart.c ****   return HAL_OK;
 906              		.loc 1 1191 3 is_stmt 1 view .LVU300
1192:Drivers/STM32F3xx_HAL_Driver/Src/stm32f3xx_hal_uart.c **** }
 907              		.loc 1 1192 1 is_stmt 0 view .LVU301
 908 0014 0020     		movs	r0, #0
 909 0016 10BD     		pop	{r4, pc}
 910              	.LVL49:
 911              	.L96:
1163:Drivers/STM32F3xx_HAL_Driver/Src/stm32f3xx_hal_uart.c ****       (HAL_IS_BIT_SET(huart->Instance->CR3, USART_CR3_DMAT)))
 912              		.loc 1 1163 8 discriminator 1 view .LVU302
 913 0018 0368     		ldr	r3, [r0]
 914 001a 9A68     		ldr	r2, [r3, #8]
1162:Drivers/STM32F3xx_HAL_Driver/Src/stm32f3xx_hal_uart.c ****       (HAL_IS_BIT_SET(huart->Instance->CR3, USART_CR3_DMAT)))
 915              		.loc 1 1162 49 discriminator 1 view .LVU303
 916 001c 1106     		lsls	r1, r2, #24
 917 001e F5D5     		bpl	.L79
1165:Drivers/STM32F3xx_HAL_Driver/Src/stm32f3xx_hal_uart.c **** 
 918              		.loc 1 1165 5 is_stmt 1 view .LVU304
 919 0020 9A68     		ldr	r2, [r3, #8]
1168:Drivers/STM32F3xx_HAL_Driver/Src/stm32f3xx_hal_uart.c ****     {
 920              		.loc 1 1168 13 is_stmt 0 view .LVU305
 921 0022 006E     		ldr	r0, [r0, #96]
 922              	.LVL50:
1165:Drivers/STM32F3xx_HAL_Driver/Src/stm32f3xx_hal_uart.c **** 
 923              		.loc 1 1165 5 view .LVU306
 924 0024 22F08002 		bic	r2, r2, #128
 925 0028 9A60     		str	r2, [r3, #8]
1168:Drivers/STM32F3xx_HAL_Driver/Src/stm32f3xx_hal_uart.c ****     {
 926              		.loc 1 1168 5 is_stmt 1 view .LVU307
1168:Drivers/STM32F3xx_HAL_Driver/Src/stm32f3xx_hal_uart.c ****     {
 927              		.loc 1 1168 7 is_stmt 0 view .LVU308
 928 002a 10B1     		cbz	r0, .L80
1170:Drivers/STM32F3xx_HAL_Driver/Src/stm32f3xx_hal_uart.c ****     }
 929              		.loc 1 1170 7 is_stmt 1 view .LVU309
 930 002c FFF7FEFF 		bl	HAL_DMA_Abort
 931              	.LVL51:
 932 0030 2368     		ldr	r3, [r4]
 933              	.L80:
1173:Drivers/STM32F3xx_HAL_Driver/Src/stm32f3xx_hal_uart.c ****   }
 934              		.loc 1 1173 5 view .LVU310
 935              	.LVL52:
 936              	.LBB14:
 937              	.LBI14:
1193:Drivers/STM32F3xx_HAL_Driver/Src/stm32f3xx_hal_uart.c **** 
1194:Drivers/STM32F3xx_HAL_Driver/Src/stm32f3xx_hal_uart.c **** /**
1195:Drivers/STM32F3xx_HAL_Driver/Src/stm32f3xx_hal_uart.c ****   * @brief  Abort ongoing transfers (blocking mode).
1196:Drivers/STM32F3xx_HAL_Driver/Src/stm32f3xx_hal_uart.c ****   * @param  huart UART handle.
1197:Drivers/STM32F3xx_HAL_Driver/Src/stm32f3xx_hal_uart.c ****   * @note   This procedure could be used for aborting any ongoing transfer started in Interrupt or 
1198:Drivers/STM32F3xx_HAL_Driver/Src/stm32f3xx_hal_uart.c ****   *         This procedure performs following operations :
1199:Drivers/STM32F3xx_HAL_Driver/Src/stm32f3xx_hal_uart.c ****   *           - Disable UART Interrupts (Tx and Rx)
1200:Drivers/STM32F3xx_HAL_Driver/Src/stm32f3xx_hal_uart.c ****   *           - Disable the DMA transfer in the peripheral register (if enabled)
1201:Drivers/STM32F3xx_HAL_Driver/Src/stm32f3xx_hal_uart.c ****   *           - Abort DMA transfer by calling HAL_DMA_Abort (in case of transfer in DMA mode)
1202:Drivers/STM32F3xx_HAL_Driver/Src/stm32f3xx_hal_uart.c ****   *           - Set handle State to READY
1203:Drivers/STM32F3xx_HAL_Driver/Src/stm32f3xx_hal_uart.c ****   * @note   This procedure is executed in blocking mode : when exiting function, Abort is considere
1204:Drivers/STM32F3xx_HAL_Driver/Src/stm32f3xx_hal_uart.c ****   * @retval HAL status
1205:Drivers/STM32F3xx_HAL_Driver/Src/stm32f3xx_hal_uart.c **** */
1206:Drivers/STM32F3xx_HAL_Driver/Src/stm32f3xx_hal_uart.c **** HAL_StatusTypeDef HAL_UART_Abort(UART_HandleTypeDef *huart)
ARM GAS  /var/folders/8c/gyvcglfx7f97kbqb2h83mm_r0000gn/T//ccv1qdBn.s 			page 41


1207:Drivers/STM32F3xx_HAL_Driver/Src/stm32f3xx_hal_uart.c **** {
1208:Drivers/STM32F3xx_HAL_Driver/Src/stm32f3xx_hal_uart.c ****   /* Disable TXEIE, TCIE, RXNE, PE and ERR (Frame error, noise error, overrun error) interrupts */
1209:Drivers/STM32F3xx_HAL_Driver/Src/stm32f3xx_hal_uart.c ****   CLEAR_BIT(huart->Instance->CR1, (USART_CR1_RXNEIE | USART_CR1_PEIE | USART_CR1_TXEIE | USART_CR1_
1210:Drivers/STM32F3xx_HAL_Driver/Src/stm32f3xx_hal_uart.c ****   CLEAR_BIT(huart->Instance->CR3, USART_CR3_EIE);
1211:Drivers/STM32F3xx_HAL_Driver/Src/stm32f3xx_hal_uart.c **** 
1212:Drivers/STM32F3xx_HAL_Driver/Src/stm32f3xx_hal_uart.c ****   /* Disable the UART DMA Tx request if enabled */
1213:Drivers/STM32F3xx_HAL_Driver/Src/stm32f3xx_hal_uart.c ****   if (HAL_IS_BIT_SET(huart->Instance->CR3, USART_CR3_DMAT))
1214:Drivers/STM32F3xx_HAL_Driver/Src/stm32f3xx_hal_uart.c ****   {
1215:Drivers/STM32F3xx_HAL_Driver/Src/stm32f3xx_hal_uart.c ****     CLEAR_BIT(huart->Instance->CR3, USART_CR3_DMAT);
1216:Drivers/STM32F3xx_HAL_Driver/Src/stm32f3xx_hal_uart.c **** 
1217:Drivers/STM32F3xx_HAL_Driver/Src/stm32f3xx_hal_uart.c ****     /* Abort the UART DMA Tx channel : use blocking DMA Abort API (no callback) */
1218:Drivers/STM32F3xx_HAL_Driver/Src/stm32f3xx_hal_uart.c ****     if(huart->hdmatx != NULL)
1219:Drivers/STM32F3xx_HAL_Driver/Src/stm32f3xx_hal_uart.c ****     {
1220:Drivers/STM32F3xx_HAL_Driver/Src/stm32f3xx_hal_uart.c ****       /* Set the UART DMA Abort callback to Null. 
1221:Drivers/STM32F3xx_HAL_Driver/Src/stm32f3xx_hal_uart.c ****          No call back execution at end of DMA abort procedure */
1222:Drivers/STM32F3xx_HAL_Driver/Src/stm32f3xx_hal_uart.c ****       huart->hdmatx->XferAbortCallback = NULL;
1223:Drivers/STM32F3xx_HAL_Driver/Src/stm32f3xx_hal_uart.c **** 
1224:Drivers/STM32F3xx_HAL_Driver/Src/stm32f3xx_hal_uart.c ****       HAL_DMA_Abort(huart->hdmatx);
1225:Drivers/STM32F3xx_HAL_Driver/Src/stm32f3xx_hal_uart.c ****     }
1226:Drivers/STM32F3xx_HAL_Driver/Src/stm32f3xx_hal_uart.c ****   }
1227:Drivers/STM32F3xx_HAL_Driver/Src/stm32f3xx_hal_uart.c **** 
1228:Drivers/STM32F3xx_HAL_Driver/Src/stm32f3xx_hal_uart.c ****   /* Disable the UART DMA Rx request if enabled */
1229:Drivers/STM32F3xx_HAL_Driver/Src/stm32f3xx_hal_uart.c ****   if (HAL_IS_BIT_SET(huart->Instance->CR3, USART_CR3_DMAR))
1230:Drivers/STM32F3xx_HAL_Driver/Src/stm32f3xx_hal_uart.c ****   {
1231:Drivers/STM32F3xx_HAL_Driver/Src/stm32f3xx_hal_uart.c ****     CLEAR_BIT(huart->Instance->CR3, USART_CR3_DMAR);
1232:Drivers/STM32F3xx_HAL_Driver/Src/stm32f3xx_hal_uart.c **** 
1233:Drivers/STM32F3xx_HAL_Driver/Src/stm32f3xx_hal_uart.c ****     /* Abort the UART DMA Rx channel : use blocking DMA Abort API (no callback) */
1234:Drivers/STM32F3xx_HAL_Driver/Src/stm32f3xx_hal_uart.c ****     if(huart->hdmarx != NULL)
1235:Drivers/STM32F3xx_HAL_Driver/Src/stm32f3xx_hal_uart.c ****     {
1236:Drivers/STM32F3xx_HAL_Driver/Src/stm32f3xx_hal_uart.c ****       /* Set the UART DMA Abort callback to Null. 
1237:Drivers/STM32F3xx_HAL_Driver/Src/stm32f3xx_hal_uart.c ****          No call back execution at end of DMA abort procedure */
1238:Drivers/STM32F3xx_HAL_Driver/Src/stm32f3xx_hal_uart.c ****       huart->hdmarx->XferAbortCallback = NULL;
1239:Drivers/STM32F3xx_HAL_Driver/Src/stm32f3xx_hal_uart.c **** 
1240:Drivers/STM32F3xx_HAL_Driver/Src/stm32f3xx_hal_uart.c ****       HAL_DMA_Abort(huart->hdmarx);
1241:Drivers/STM32F3xx_HAL_Driver/Src/stm32f3xx_hal_uart.c ****     }
1242:Drivers/STM32F3xx_HAL_Driver/Src/stm32f3xx_hal_uart.c ****   }
1243:Drivers/STM32F3xx_HAL_Driver/Src/stm32f3xx_hal_uart.c **** 
1244:Drivers/STM32F3xx_HAL_Driver/Src/stm32f3xx_hal_uart.c ****   /* Reset Tx and Rx transfer counters */
1245:Drivers/STM32F3xx_HAL_Driver/Src/stm32f3xx_hal_uart.c ****   huart->TxXferCount = 0U; 
1246:Drivers/STM32F3xx_HAL_Driver/Src/stm32f3xx_hal_uart.c ****   huart->RxXferCount = 0U; 
1247:Drivers/STM32F3xx_HAL_Driver/Src/stm32f3xx_hal_uart.c **** 
1248:Drivers/STM32F3xx_HAL_Driver/Src/stm32f3xx_hal_uart.c ****   /* Clear the Error flags in the ICR register */
1249:Drivers/STM32F3xx_HAL_Driver/Src/stm32f3xx_hal_uart.c ****   __HAL_UART_CLEAR_FLAG(huart, UART_CLEAR_OREF | UART_CLEAR_NEF | UART_CLEAR_PEF | UART_CLEAR_FEF);
1250:Drivers/STM32F3xx_HAL_Driver/Src/stm32f3xx_hal_uart.c **** 
1251:Drivers/STM32F3xx_HAL_Driver/Src/stm32f3xx_hal_uart.c ****   /* Restore huart->gState and huart->RxState to Ready */
1252:Drivers/STM32F3xx_HAL_Driver/Src/stm32f3xx_hal_uart.c ****   huart->gState  = HAL_UART_STATE_READY;
1253:Drivers/STM32F3xx_HAL_Driver/Src/stm32f3xx_hal_uart.c ****   huart->RxState = HAL_UART_STATE_READY;
1254:Drivers/STM32F3xx_HAL_Driver/Src/stm32f3xx_hal_uart.c **** 
1255:Drivers/STM32F3xx_HAL_Driver/Src/stm32f3xx_hal_uart.c ****   /* Reset Handle ErrorCode to No Error */
1256:Drivers/STM32F3xx_HAL_Driver/Src/stm32f3xx_hal_uart.c ****   huart->ErrorCode = HAL_UART_ERROR_NONE;
1257:Drivers/STM32F3xx_HAL_Driver/Src/stm32f3xx_hal_uart.c **** 
1258:Drivers/STM32F3xx_HAL_Driver/Src/stm32f3xx_hal_uart.c ****   return HAL_OK;
1259:Drivers/STM32F3xx_HAL_Driver/Src/stm32f3xx_hal_uart.c **** }
1260:Drivers/STM32F3xx_HAL_Driver/Src/stm32f3xx_hal_uart.c **** 
1261:Drivers/STM32F3xx_HAL_Driver/Src/stm32f3xx_hal_uart.c **** /**
1262:Drivers/STM32F3xx_HAL_Driver/Src/stm32f3xx_hal_uart.c ****   * @brief  Abort ongoing Transmit transfer (blocking mode).
1263:Drivers/STM32F3xx_HAL_Driver/Src/stm32f3xx_hal_uart.c ****   * @param  huart UART handle.
ARM GAS  /var/folders/8c/gyvcglfx7f97kbqb2h83mm_r0000gn/T//ccv1qdBn.s 			page 42


1264:Drivers/STM32F3xx_HAL_Driver/Src/stm32f3xx_hal_uart.c ****   * @note   This procedure could be used for aborting any ongoing Tx transfer started in Interrupt 
1265:Drivers/STM32F3xx_HAL_Driver/Src/stm32f3xx_hal_uart.c ****   *         This procedure performs following operations :
1266:Drivers/STM32F3xx_HAL_Driver/Src/stm32f3xx_hal_uart.c ****   *           - Disable UART Interrupts (Tx)
1267:Drivers/STM32F3xx_HAL_Driver/Src/stm32f3xx_hal_uart.c ****   *           - Disable the DMA transfer in the peripheral register (if enabled)
1268:Drivers/STM32F3xx_HAL_Driver/Src/stm32f3xx_hal_uart.c ****   *           - Abort DMA transfer by calling HAL_DMA_Abort (in case of transfer in DMA mode)
1269:Drivers/STM32F3xx_HAL_Driver/Src/stm32f3xx_hal_uart.c ****   *           - Set handle State to READY
1270:Drivers/STM32F3xx_HAL_Driver/Src/stm32f3xx_hal_uart.c ****   * @note   This procedure is executed in blocking mode : when exiting function, Abort is considere
1271:Drivers/STM32F3xx_HAL_Driver/Src/stm32f3xx_hal_uart.c ****   * @retval HAL status
1272:Drivers/STM32F3xx_HAL_Driver/Src/stm32f3xx_hal_uart.c **** */
1273:Drivers/STM32F3xx_HAL_Driver/Src/stm32f3xx_hal_uart.c **** HAL_StatusTypeDef HAL_UART_AbortTransmit(UART_HandleTypeDef *huart)
1274:Drivers/STM32F3xx_HAL_Driver/Src/stm32f3xx_hal_uart.c **** {
1275:Drivers/STM32F3xx_HAL_Driver/Src/stm32f3xx_hal_uart.c ****   /* Disable TXEIE and TCIE interrupts */
1276:Drivers/STM32F3xx_HAL_Driver/Src/stm32f3xx_hal_uart.c ****   CLEAR_BIT(huart->Instance->CR1, (USART_CR1_TXEIE | USART_CR1_TCIE));
1277:Drivers/STM32F3xx_HAL_Driver/Src/stm32f3xx_hal_uart.c **** 
1278:Drivers/STM32F3xx_HAL_Driver/Src/stm32f3xx_hal_uart.c ****   /* Disable the UART DMA Tx request if enabled */
1279:Drivers/STM32F3xx_HAL_Driver/Src/stm32f3xx_hal_uart.c ****   if (HAL_IS_BIT_SET(huart->Instance->CR3, USART_CR3_DMAT))
1280:Drivers/STM32F3xx_HAL_Driver/Src/stm32f3xx_hal_uart.c ****   {
1281:Drivers/STM32F3xx_HAL_Driver/Src/stm32f3xx_hal_uart.c ****     CLEAR_BIT(huart->Instance->CR3, USART_CR3_DMAT);
1282:Drivers/STM32F3xx_HAL_Driver/Src/stm32f3xx_hal_uart.c **** 
1283:Drivers/STM32F3xx_HAL_Driver/Src/stm32f3xx_hal_uart.c ****     /* Abort the UART DMA Tx channel : use blocking DMA Abort API (no callback) */
1284:Drivers/STM32F3xx_HAL_Driver/Src/stm32f3xx_hal_uart.c ****     if(huart->hdmatx != NULL)
1285:Drivers/STM32F3xx_HAL_Driver/Src/stm32f3xx_hal_uart.c ****     {
1286:Drivers/STM32F3xx_HAL_Driver/Src/stm32f3xx_hal_uart.c ****       /* Set the UART DMA Abort callback to Null. 
1287:Drivers/STM32F3xx_HAL_Driver/Src/stm32f3xx_hal_uart.c ****          No call back execution at end of DMA abort procedure */
1288:Drivers/STM32F3xx_HAL_Driver/Src/stm32f3xx_hal_uart.c ****       huart->hdmatx->XferAbortCallback = NULL;
1289:Drivers/STM32F3xx_HAL_Driver/Src/stm32f3xx_hal_uart.c **** 
1290:Drivers/STM32F3xx_HAL_Driver/Src/stm32f3xx_hal_uart.c ****       HAL_DMA_Abort(huart->hdmatx);
1291:Drivers/STM32F3xx_HAL_Driver/Src/stm32f3xx_hal_uart.c ****     }
1292:Drivers/STM32F3xx_HAL_Driver/Src/stm32f3xx_hal_uart.c ****   }
1293:Drivers/STM32F3xx_HAL_Driver/Src/stm32f3xx_hal_uart.c **** 
1294:Drivers/STM32F3xx_HAL_Driver/Src/stm32f3xx_hal_uart.c ****   /* Reset Tx transfer counter */
1295:Drivers/STM32F3xx_HAL_Driver/Src/stm32f3xx_hal_uart.c ****   huart->TxXferCount = 0U; 
1296:Drivers/STM32F3xx_HAL_Driver/Src/stm32f3xx_hal_uart.c **** 
1297:Drivers/STM32F3xx_HAL_Driver/Src/stm32f3xx_hal_uart.c ****   /* Restore huart->gState to Ready */
1298:Drivers/STM32F3xx_HAL_Driver/Src/stm32f3xx_hal_uart.c ****   huart->gState = HAL_UART_STATE_READY;
1299:Drivers/STM32F3xx_HAL_Driver/Src/stm32f3xx_hal_uart.c **** 
1300:Drivers/STM32F3xx_HAL_Driver/Src/stm32f3xx_hal_uart.c ****   return HAL_OK;
1301:Drivers/STM32F3xx_HAL_Driver/Src/stm32f3xx_hal_uart.c **** }
1302:Drivers/STM32F3xx_HAL_Driver/Src/stm32f3xx_hal_uart.c **** 
1303:Drivers/STM32F3xx_HAL_Driver/Src/stm32f3xx_hal_uart.c **** /**
1304:Drivers/STM32F3xx_HAL_Driver/Src/stm32f3xx_hal_uart.c ****   * @brief  Abort ongoing Receive transfer (blocking mode).
1305:Drivers/STM32F3xx_HAL_Driver/Src/stm32f3xx_hal_uart.c ****   * @param  huart UART handle.
1306:Drivers/STM32F3xx_HAL_Driver/Src/stm32f3xx_hal_uart.c ****   * @note   This procedure could be used for aborting any ongoing Rx transfer started in Interrupt 
1307:Drivers/STM32F3xx_HAL_Driver/Src/stm32f3xx_hal_uart.c ****   *         This procedure performs following operations :
1308:Drivers/STM32F3xx_HAL_Driver/Src/stm32f3xx_hal_uart.c ****   *           - Disable UART Interrupts (Rx)
1309:Drivers/STM32F3xx_HAL_Driver/Src/stm32f3xx_hal_uart.c ****   *           - Disable the DMA transfer in the peripheral register (if enabled)
1310:Drivers/STM32F3xx_HAL_Driver/Src/stm32f3xx_hal_uart.c ****   *           - Abort DMA transfer by calling HAL_DMA_Abort (in case of transfer in DMA mode)
1311:Drivers/STM32F3xx_HAL_Driver/Src/stm32f3xx_hal_uart.c ****   *           - Set handle State to READY
1312:Drivers/STM32F3xx_HAL_Driver/Src/stm32f3xx_hal_uart.c ****   * @note   This procedure is executed in blocking mode : when exiting function, Abort is considere
1313:Drivers/STM32F3xx_HAL_Driver/Src/stm32f3xx_hal_uart.c ****   * @retval HAL status
1314:Drivers/STM32F3xx_HAL_Driver/Src/stm32f3xx_hal_uart.c **** */
1315:Drivers/STM32F3xx_HAL_Driver/Src/stm32f3xx_hal_uart.c **** HAL_StatusTypeDef HAL_UART_AbortReceive(UART_HandleTypeDef *huart)
1316:Drivers/STM32F3xx_HAL_Driver/Src/stm32f3xx_hal_uart.c **** {
1317:Drivers/STM32F3xx_HAL_Driver/Src/stm32f3xx_hal_uart.c ****   /* Disable RXNE, PE and ERR (Frame error, noise error, overrun error) interrupts */
1318:Drivers/STM32F3xx_HAL_Driver/Src/stm32f3xx_hal_uart.c ****   CLEAR_BIT(huart->Instance->CR1, (USART_CR1_RXNEIE | USART_CR1_PEIE));
1319:Drivers/STM32F3xx_HAL_Driver/Src/stm32f3xx_hal_uart.c ****   CLEAR_BIT(huart->Instance->CR3, USART_CR3_EIE);
1320:Drivers/STM32F3xx_HAL_Driver/Src/stm32f3xx_hal_uart.c **** 
ARM GAS  /var/folders/8c/gyvcglfx7f97kbqb2h83mm_r0000gn/T//ccv1qdBn.s 			page 43


1321:Drivers/STM32F3xx_HAL_Driver/Src/stm32f3xx_hal_uart.c ****   /* Disable the UART DMA Rx request if enabled */
1322:Drivers/STM32F3xx_HAL_Driver/Src/stm32f3xx_hal_uart.c ****   if (HAL_IS_BIT_SET(huart->Instance->CR3, USART_CR3_DMAR))
1323:Drivers/STM32F3xx_HAL_Driver/Src/stm32f3xx_hal_uart.c ****   {
1324:Drivers/STM32F3xx_HAL_Driver/Src/stm32f3xx_hal_uart.c ****     CLEAR_BIT(huart->Instance->CR3, USART_CR3_DMAR);
1325:Drivers/STM32F3xx_HAL_Driver/Src/stm32f3xx_hal_uart.c **** 
1326:Drivers/STM32F3xx_HAL_Driver/Src/stm32f3xx_hal_uart.c ****     /* Abort the UART DMA Rx channel : use blocking DMA Abort API (no callback) */
1327:Drivers/STM32F3xx_HAL_Driver/Src/stm32f3xx_hal_uart.c ****     if(huart->hdmarx != NULL)
1328:Drivers/STM32F3xx_HAL_Driver/Src/stm32f3xx_hal_uart.c ****     {
1329:Drivers/STM32F3xx_HAL_Driver/Src/stm32f3xx_hal_uart.c ****       /* Set the UART DMA Abort callback to Null. 
1330:Drivers/STM32F3xx_HAL_Driver/Src/stm32f3xx_hal_uart.c ****          No call back execution at end of DMA abort procedure */
1331:Drivers/STM32F3xx_HAL_Driver/Src/stm32f3xx_hal_uart.c ****       huart->hdmarx->XferAbortCallback = NULL;
1332:Drivers/STM32F3xx_HAL_Driver/Src/stm32f3xx_hal_uart.c **** 
1333:Drivers/STM32F3xx_HAL_Driver/Src/stm32f3xx_hal_uart.c ****       HAL_DMA_Abort(huart->hdmarx);
1334:Drivers/STM32F3xx_HAL_Driver/Src/stm32f3xx_hal_uart.c ****     }
1335:Drivers/STM32F3xx_HAL_Driver/Src/stm32f3xx_hal_uart.c ****   }
1336:Drivers/STM32F3xx_HAL_Driver/Src/stm32f3xx_hal_uart.c **** 
1337:Drivers/STM32F3xx_HAL_Driver/Src/stm32f3xx_hal_uart.c ****   /* Reset Rx transfer counter */
1338:Drivers/STM32F3xx_HAL_Driver/Src/stm32f3xx_hal_uart.c ****   huart->RxXferCount = 0U; 
1339:Drivers/STM32F3xx_HAL_Driver/Src/stm32f3xx_hal_uart.c **** 
1340:Drivers/STM32F3xx_HAL_Driver/Src/stm32f3xx_hal_uart.c ****   /* Clear the Error flags in the ICR register */
1341:Drivers/STM32F3xx_HAL_Driver/Src/stm32f3xx_hal_uart.c ****   __HAL_UART_CLEAR_FLAG(huart, UART_CLEAR_OREF | UART_CLEAR_NEF | UART_CLEAR_PEF | UART_CLEAR_FEF);
1342:Drivers/STM32F3xx_HAL_Driver/Src/stm32f3xx_hal_uart.c **** 
1343:Drivers/STM32F3xx_HAL_Driver/Src/stm32f3xx_hal_uart.c ****   /* Restore huart->RxState to Ready */
1344:Drivers/STM32F3xx_HAL_Driver/Src/stm32f3xx_hal_uart.c ****   huart->RxState = HAL_UART_STATE_READY;
1345:Drivers/STM32F3xx_HAL_Driver/Src/stm32f3xx_hal_uart.c **** 
1346:Drivers/STM32F3xx_HAL_Driver/Src/stm32f3xx_hal_uart.c ****   return HAL_OK;
1347:Drivers/STM32F3xx_HAL_Driver/Src/stm32f3xx_hal_uart.c **** }
1348:Drivers/STM32F3xx_HAL_Driver/Src/stm32f3xx_hal_uart.c **** 
1349:Drivers/STM32F3xx_HAL_Driver/Src/stm32f3xx_hal_uart.c **** /**
1350:Drivers/STM32F3xx_HAL_Driver/Src/stm32f3xx_hal_uart.c ****   * @brief  Abort ongoing transfers (Interrupt mode).
1351:Drivers/STM32F3xx_HAL_Driver/Src/stm32f3xx_hal_uart.c ****   * @param  huart UART handle.
1352:Drivers/STM32F3xx_HAL_Driver/Src/stm32f3xx_hal_uart.c ****   * @note   This procedure could be used for aborting any ongoing transfer started in Interrupt or 
1353:Drivers/STM32F3xx_HAL_Driver/Src/stm32f3xx_hal_uart.c ****   *         This procedure performs following operations :
1354:Drivers/STM32F3xx_HAL_Driver/Src/stm32f3xx_hal_uart.c ****   *           - Disable UART Interrupts (Tx and Rx)
1355:Drivers/STM32F3xx_HAL_Driver/Src/stm32f3xx_hal_uart.c ****   *           - Disable the DMA transfer in the peripheral register (if enabled)
1356:Drivers/STM32F3xx_HAL_Driver/Src/stm32f3xx_hal_uart.c ****   *           - Abort DMA transfer by calling HAL_DMA_Abort_IT (in case of transfer in DMA mode)
1357:Drivers/STM32F3xx_HAL_Driver/Src/stm32f3xx_hal_uart.c ****   *           - Set handle State to READY
1358:Drivers/STM32F3xx_HAL_Driver/Src/stm32f3xx_hal_uart.c ****   *           - At abort completion, call user abort complete callback
1359:Drivers/STM32F3xx_HAL_Driver/Src/stm32f3xx_hal_uart.c ****   * @note   This procedure is executed in Interrupt mode, meaning that abort procedure could be
1360:Drivers/STM32F3xx_HAL_Driver/Src/stm32f3xx_hal_uart.c ****   *         considered as completed only when user abort complete callback is executed (not when ex
1361:Drivers/STM32F3xx_HAL_Driver/Src/stm32f3xx_hal_uart.c ****   * @retval HAL status
1362:Drivers/STM32F3xx_HAL_Driver/Src/stm32f3xx_hal_uart.c **** */
1363:Drivers/STM32F3xx_HAL_Driver/Src/stm32f3xx_hal_uart.c **** HAL_StatusTypeDef HAL_UART_Abort_IT(UART_HandleTypeDef *huart)
1364:Drivers/STM32F3xx_HAL_Driver/Src/stm32f3xx_hal_uart.c **** {
1365:Drivers/STM32F3xx_HAL_Driver/Src/stm32f3xx_hal_uart.c ****   uint32_t abortcplt = 1U;
1366:Drivers/STM32F3xx_HAL_Driver/Src/stm32f3xx_hal_uart.c ****   
1367:Drivers/STM32F3xx_HAL_Driver/Src/stm32f3xx_hal_uart.c ****   /* Disable TXEIE, TCIE, RXNE, PE and ERR (Frame error, noise error, overrun error) interrupts */
1368:Drivers/STM32F3xx_HAL_Driver/Src/stm32f3xx_hal_uart.c ****   CLEAR_BIT(huart->Instance->CR1, (USART_CR1_RXNEIE | USART_CR1_PEIE | USART_CR1_TXEIE | USART_CR1_
1369:Drivers/STM32F3xx_HAL_Driver/Src/stm32f3xx_hal_uart.c ****   CLEAR_BIT(huart->Instance->CR3, USART_CR3_EIE);
1370:Drivers/STM32F3xx_HAL_Driver/Src/stm32f3xx_hal_uart.c **** 
1371:Drivers/STM32F3xx_HAL_Driver/Src/stm32f3xx_hal_uart.c ****   /* If DMA Tx and/or DMA Rx Handles are associated to UART Handle, DMA Abort complete callbacks sh
1372:Drivers/STM32F3xx_HAL_Driver/Src/stm32f3xx_hal_uart.c ****      before any call to DMA Abort functions */
1373:Drivers/STM32F3xx_HAL_Driver/Src/stm32f3xx_hal_uart.c ****   /* DMA Tx Handle is valid */
1374:Drivers/STM32F3xx_HAL_Driver/Src/stm32f3xx_hal_uart.c ****   if(huart->hdmatx != NULL)
1375:Drivers/STM32F3xx_HAL_Driver/Src/stm32f3xx_hal_uart.c ****   {
1376:Drivers/STM32F3xx_HAL_Driver/Src/stm32f3xx_hal_uart.c ****     /* Set DMA Abort Complete callback if UART DMA Tx request if enabled.
1377:Drivers/STM32F3xx_HAL_Driver/Src/stm32f3xx_hal_uart.c ****        Otherwise, set it to NULL */
ARM GAS  /var/folders/8c/gyvcglfx7f97kbqb2h83mm_r0000gn/T//ccv1qdBn.s 			page 44


1378:Drivers/STM32F3xx_HAL_Driver/Src/stm32f3xx_hal_uart.c ****     if(HAL_IS_BIT_SET(huart->Instance->CR3, USART_CR3_DMAT))
1379:Drivers/STM32F3xx_HAL_Driver/Src/stm32f3xx_hal_uart.c ****     {
1380:Drivers/STM32F3xx_HAL_Driver/Src/stm32f3xx_hal_uart.c ****       huart->hdmatx->XferAbortCallback = UART_DMATxAbortCallback;
1381:Drivers/STM32F3xx_HAL_Driver/Src/stm32f3xx_hal_uart.c ****     }
1382:Drivers/STM32F3xx_HAL_Driver/Src/stm32f3xx_hal_uart.c ****     else
1383:Drivers/STM32F3xx_HAL_Driver/Src/stm32f3xx_hal_uart.c ****     {
1384:Drivers/STM32F3xx_HAL_Driver/Src/stm32f3xx_hal_uart.c ****       huart->hdmatx->XferAbortCallback = NULL;
1385:Drivers/STM32F3xx_HAL_Driver/Src/stm32f3xx_hal_uart.c ****     }
1386:Drivers/STM32F3xx_HAL_Driver/Src/stm32f3xx_hal_uart.c ****   }
1387:Drivers/STM32F3xx_HAL_Driver/Src/stm32f3xx_hal_uart.c ****   /* DMA Rx Handle is valid */
1388:Drivers/STM32F3xx_HAL_Driver/Src/stm32f3xx_hal_uart.c ****   if(huart->hdmarx != NULL)
1389:Drivers/STM32F3xx_HAL_Driver/Src/stm32f3xx_hal_uart.c ****   {
1390:Drivers/STM32F3xx_HAL_Driver/Src/stm32f3xx_hal_uart.c ****     /* Set DMA Abort Complete callback if UART DMA Rx request if enabled.
1391:Drivers/STM32F3xx_HAL_Driver/Src/stm32f3xx_hal_uart.c ****        Otherwise, set it to NULL */
1392:Drivers/STM32F3xx_HAL_Driver/Src/stm32f3xx_hal_uart.c ****     if(HAL_IS_BIT_SET(huart->Instance->CR3, USART_CR3_DMAR))
1393:Drivers/STM32F3xx_HAL_Driver/Src/stm32f3xx_hal_uart.c ****     {
1394:Drivers/STM32F3xx_HAL_Driver/Src/stm32f3xx_hal_uart.c ****       huart->hdmarx->XferAbortCallback = UART_DMARxAbortCallback;
1395:Drivers/STM32F3xx_HAL_Driver/Src/stm32f3xx_hal_uart.c ****     }
1396:Drivers/STM32F3xx_HAL_Driver/Src/stm32f3xx_hal_uart.c ****     else
1397:Drivers/STM32F3xx_HAL_Driver/Src/stm32f3xx_hal_uart.c ****     {
1398:Drivers/STM32F3xx_HAL_Driver/Src/stm32f3xx_hal_uart.c ****       huart->hdmarx->XferAbortCallback = NULL;
1399:Drivers/STM32F3xx_HAL_Driver/Src/stm32f3xx_hal_uart.c ****     }
1400:Drivers/STM32F3xx_HAL_Driver/Src/stm32f3xx_hal_uart.c ****   }
1401:Drivers/STM32F3xx_HAL_Driver/Src/stm32f3xx_hal_uart.c ****   
1402:Drivers/STM32F3xx_HAL_Driver/Src/stm32f3xx_hal_uart.c ****   /* Disable the UART DMA Tx request if enabled */
1403:Drivers/STM32F3xx_HAL_Driver/Src/stm32f3xx_hal_uart.c ****   if(HAL_IS_BIT_SET(huart->Instance->CR3, USART_CR3_DMAT))
1404:Drivers/STM32F3xx_HAL_Driver/Src/stm32f3xx_hal_uart.c ****   {
1405:Drivers/STM32F3xx_HAL_Driver/Src/stm32f3xx_hal_uart.c ****     /* Disable DMA Tx at UART level */
1406:Drivers/STM32F3xx_HAL_Driver/Src/stm32f3xx_hal_uart.c ****     CLEAR_BIT(huart->Instance->CR3, USART_CR3_DMAT);
1407:Drivers/STM32F3xx_HAL_Driver/Src/stm32f3xx_hal_uart.c **** 
1408:Drivers/STM32F3xx_HAL_Driver/Src/stm32f3xx_hal_uart.c ****     /* Abort the UART DMA Tx channel : use non blocking DMA Abort API (callback) */
1409:Drivers/STM32F3xx_HAL_Driver/Src/stm32f3xx_hal_uart.c ****     if(huart->hdmatx != NULL)
1410:Drivers/STM32F3xx_HAL_Driver/Src/stm32f3xx_hal_uart.c ****     {
1411:Drivers/STM32F3xx_HAL_Driver/Src/stm32f3xx_hal_uart.c ****       /* UART Tx DMA Abort callback has already been initialised : 
1412:Drivers/STM32F3xx_HAL_Driver/Src/stm32f3xx_hal_uart.c ****          will lead to call HAL_UART_AbortCpltCallback() at end of DMA abort procedure */
1413:Drivers/STM32F3xx_HAL_Driver/Src/stm32f3xx_hal_uart.c **** 
1414:Drivers/STM32F3xx_HAL_Driver/Src/stm32f3xx_hal_uart.c ****       /* Abort DMA TX */
1415:Drivers/STM32F3xx_HAL_Driver/Src/stm32f3xx_hal_uart.c ****       if(HAL_DMA_Abort_IT(huart->hdmatx) != HAL_OK)
1416:Drivers/STM32F3xx_HAL_Driver/Src/stm32f3xx_hal_uart.c ****       {
1417:Drivers/STM32F3xx_HAL_Driver/Src/stm32f3xx_hal_uart.c ****         huart->hdmatx->XferAbortCallback = NULL;
1418:Drivers/STM32F3xx_HAL_Driver/Src/stm32f3xx_hal_uart.c ****       }
1419:Drivers/STM32F3xx_HAL_Driver/Src/stm32f3xx_hal_uart.c ****       else
1420:Drivers/STM32F3xx_HAL_Driver/Src/stm32f3xx_hal_uart.c ****       {
1421:Drivers/STM32F3xx_HAL_Driver/Src/stm32f3xx_hal_uart.c ****         abortcplt = 0U;
1422:Drivers/STM32F3xx_HAL_Driver/Src/stm32f3xx_hal_uart.c ****       }
1423:Drivers/STM32F3xx_HAL_Driver/Src/stm32f3xx_hal_uart.c ****     }
1424:Drivers/STM32F3xx_HAL_Driver/Src/stm32f3xx_hal_uart.c ****   }
1425:Drivers/STM32F3xx_HAL_Driver/Src/stm32f3xx_hal_uart.c **** 
1426:Drivers/STM32F3xx_HAL_Driver/Src/stm32f3xx_hal_uart.c ****   /* Disable the UART DMA Rx request if enabled */
1427:Drivers/STM32F3xx_HAL_Driver/Src/stm32f3xx_hal_uart.c ****   if (HAL_IS_BIT_SET(huart->Instance->CR3, USART_CR3_DMAR))
1428:Drivers/STM32F3xx_HAL_Driver/Src/stm32f3xx_hal_uart.c ****   {
1429:Drivers/STM32F3xx_HAL_Driver/Src/stm32f3xx_hal_uart.c ****     CLEAR_BIT(huart->Instance->CR3, USART_CR3_DMAR);
1430:Drivers/STM32F3xx_HAL_Driver/Src/stm32f3xx_hal_uart.c **** 
1431:Drivers/STM32F3xx_HAL_Driver/Src/stm32f3xx_hal_uart.c ****     /* Abort the UART DMA Rx channel : use non blocking DMA Abort API (callback) */
1432:Drivers/STM32F3xx_HAL_Driver/Src/stm32f3xx_hal_uart.c ****     if(huart->hdmarx != NULL)
1433:Drivers/STM32F3xx_HAL_Driver/Src/stm32f3xx_hal_uart.c ****     {
1434:Drivers/STM32F3xx_HAL_Driver/Src/stm32f3xx_hal_uart.c ****       /* UART Rx DMA Abort callback has already been initialised : 
ARM GAS  /var/folders/8c/gyvcglfx7f97kbqb2h83mm_r0000gn/T//ccv1qdBn.s 			page 45


1435:Drivers/STM32F3xx_HAL_Driver/Src/stm32f3xx_hal_uart.c ****          will lead to call HAL_UART_AbortCpltCallback() at end of DMA abort procedure */
1436:Drivers/STM32F3xx_HAL_Driver/Src/stm32f3xx_hal_uart.c **** 
1437:Drivers/STM32F3xx_HAL_Driver/Src/stm32f3xx_hal_uart.c ****       /* Abort DMA RX */
1438:Drivers/STM32F3xx_HAL_Driver/Src/stm32f3xx_hal_uart.c ****       if(HAL_DMA_Abort_IT(huart->hdmarx) != HAL_OK)
1439:Drivers/STM32F3xx_HAL_Driver/Src/stm32f3xx_hal_uart.c ****       {
1440:Drivers/STM32F3xx_HAL_Driver/Src/stm32f3xx_hal_uart.c ****         huart->hdmarx->XferAbortCallback = NULL;
1441:Drivers/STM32F3xx_HAL_Driver/Src/stm32f3xx_hal_uart.c ****         abortcplt = 1U;
1442:Drivers/STM32F3xx_HAL_Driver/Src/stm32f3xx_hal_uart.c ****       }
1443:Drivers/STM32F3xx_HAL_Driver/Src/stm32f3xx_hal_uart.c ****       else
1444:Drivers/STM32F3xx_HAL_Driver/Src/stm32f3xx_hal_uart.c ****       {
1445:Drivers/STM32F3xx_HAL_Driver/Src/stm32f3xx_hal_uart.c ****         abortcplt = 0U;
1446:Drivers/STM32F3xx_HAL_Driver/Src/stm32f3xx_hal_uart.c ****       }
1447:Drivers/STM32F3xx_HAL_Driver/Src/stm32f3xx_hal_uart.c ****     }
1448:Drivers/STM32F3xx_HAL_Driver/Src/stm32f3xx_hal_uart.c ****   }
1449:Drivers/STM32F3xx_HAL_Driver/Src/stm32f3xx_hal_uart.c **** 
1450:Drivers/STM32F3xx_HAL_Driver/Src/stm32f3xx_hal_uart.c ****   /* if no DMA abort complete callback execution is required => call user Abort Complete callback *
1451:Drivers/STM32F3xx_HAL_Driver/Src/stm32f3xx_hal_uart.c ****   if (abortcplt == 1U)
1452:Drivers/STM32F3xx_HAL_Driver/Src/stm32f3xx_hal_uart.c ****   {
1453:Drivers/STM32F3xx_HAL_Driver/Src/stm32f3xx_hal_uart.c ****     /* Reset Tx and Rx transfer counters */
1454:Drivers/STM32F3xx_HAL_Driver/Src/stm32f3xx_hal_uart.c ****     huart->TxXferCount = 0U; 
1455:Drivers/STM32F3xx_HAL_Driver/Src/stm32f3xx_hal_uart.c ****     huart->RxXferCount = 0U;
1456:Drivers/STM32F3xx_HAL_Driver/Src/stm32f3xx_hal_uart.c **** 
1457:Drivers/STM32F3xx_HAL_Driver/Src/stm32f3xx_hal_uart.c ****     /* Reset errorCode */
1458:Drivers/STM32F3xx_HAL_Driver/Src/stm32f3xx_hal_uart.c ****     huart->ErrorCode = HAL_UART_ERROR_NONE;
1459:Drivers/STM32F3xx_HAL_Driver/Src/stm32f3xx_hal_uart.c **** 
1460:Drivers/STM32F3xx_HAL_Driver/Src/stm32f3xx_hal_uart.c ****     /* Clear the Error flags in the ICR register */
1461:Drivers/STM32F3xx_HAL_Driver/Src/stm32f3xx_hal_uart.c ****     __HAL_UART_CLEAR_FLAG(huart, UART_CLEAR_OREF | UART_CLEAR_NEF | UART_CLEAR_PEF | UART_CLEAR_FEF
1462:Drivers/STM32F3xx_HAL_Driver/Src/stm32f3xx_hal_uart.c **** 
1463:Drivers/STM32F3xx_HAL_Driver/Src/stm32f3xx_hal_uart.c ****     /* Restore huart->gState and huart->RxState to Ready */
1464:Drivers/STM32F3xx_HAL_Driver/Src/stm32f3xx_hal_uart.c ****     huart->gState  = HAL_UART_STATE_READY;
1465:Drivers/STM32F3xx_HAL_Driver/Src/stm32f3xx_hal_uart.c ****     huart->RxState = HAL_UART_STATE_READY;
1466:Drivers/STM32F3xx_HAL_Driver/Src/stm32f3xx_hal_uart.c **** 
1467:Drivers/STM32F3xx_HAL_Driver/Src/stm32f3xx_hal_uart.c ****     /* As no DMA to be aborted, call directly user Abort complete callback */
1468:Drivers/STM32F3xx_HAL_Driver/Src/stm32f3xx_hal_uart.c ****     HAL_UART_AbortCpltCallback(huart);
1469:Drivers/STM32F3xx_HAL_Driver/Src/stm32f3xx_hal_uart.c ****   }
1470:Drivers/STM32F3xx_HAL_Driver/Src/stm32f3xx_hal_uart.c **** 
1471:Drivers/STM32F3xx_HAL_Driver/Src/stm32f3xx_hal_uart.c ****   return HAL_OK;
1472:Drivers/STM32F3xx_HAL_Driver/Src/stm32f3xx_hal_uart.c **** }
1473:Drivers/STM32F3xx_HAL_Driver/Src/stm32f3xx_hal_uart.c **** 
1474:Drivers/STM32F3xx_HAL_Driver/Src/stm32f3xx_hal_uart.c **** /**
1475:Drivers/STM32F3xx_HAL_Driver/Src/stm32f3xx_hal_uart.c ****   * @brief  Abort ongoing Transmit transfer (Interrupt mode).
1476:Drivers/STM32F3xx_HAL_Driver/Src/stm32f3xx_hal_uart.c ****   * @param  huart UART handle.
1477:Drivers/STM32F3xx_HAL_Driver/Src/stm32f3xx_hal_uart.c ****   * @note   This procedure could be used for aborting any ongoing Tx transfer started in Interrupt 
1478:Drivers/STM32F3xx_HAL_Driver/Src/stm32f3xx_hal_uart.c ****   *         This procedure performs following operations :
1479:Drivers/STM32F3xx_HAL_Driver/Src/stm32f3xx_hal_uart.c ****   *           - Disable UART Interrupts (Tx)
1480:Drivers/STM32F3xx_HAL_Driver/Src/stm32f3xx_hal_uart.c ****   *           - Disable the DMA transfer in the peripheral register (if enabled)
1481:Drivers/STM32F3xx_HAL_Driver/Src/stm32f3xx_hal_uart.c ****   *           - Abort DMA transfer by calling HAL_DMA_Abort_IT (in case of transfer in DMA mode)
1482:Drivers/STM32F3xx_HAL_Driver/Src/stm32f3xx_hal_uart.c ****   *           - Set handle State to READY
1483:Drivers/STM32F3xx_HAL_Driver/Src/stm32f3xx_hal_uart.c ****   *           - At abort completion, call user abort complete callback
1484:Drivers/STM32F3xx_HAL_Driver/Src/stm32f3xx_hal_uart.c ****   * @note   This procedure is executed in Interrupt mode, meaning that abort procedure could be
1485:Drivers/STM32F3xx_HAL_Driver/Src/stm32f3xx_hal_uart.c ****   *         considered as completed only when user abort complete callback is executed (not when ex
1486:Drivers/STM32F3xx_HAL_Driver/Src/stm32f3xx_hal_uart.c ****   * @retval HAL status
1487:Drivers/STM32F3xx_HAL_Driver/Src/stm32f3xx_hal_uart.c **** */
1488:Drivers/STM32F3xx_HAL_Driver/Src/stm32f3xx_hal_uart.c **** HAL_StatusTypeDef HAL_UART_AbortTransmit_IT(UART_HandleTypeDef *huart)
1489:Drivers/STM32F3xx_HAL_Driver/Src/stm32f3xx_hal_uart.c **** {
1490:Drivers/STM32F3xx_HAL_Driver/Src/stm32f3xx_hal_uart.c ****   /* Disable TXEIE and TCIE interrupts */
1491:Drivers/STM32F3xx_HAL_Driver/Src/stm32f3xx_hal_uart.c ****   CLEAR_BIT(huart->Instance->CR1, (USART_CR1_TXEIE | USART_CR1_TCIE));
ARM GAS  /var/folders/8c/gyvcglfx7f97kbqb2h83mm_r0000gn/T//ccv1qdBn.s 			page 46


1492:Drivers/STM32F3xx_HAL_Driver/Src/stm32f3xx_hal_uart.c **** 
1493:Drivers/STM32F3xx_HAL_Driver/Src/stm32f3xx_hal_uart.c ****   /* Disable the UART DMA Tx request if enabled */
1494:Drivers/STM32F3xx_HAL_Driver/Src/stm32f3xx_hal_uart.c ****   if (HAL_IS_BIT_SET(huart->Instance->CR3, USART_CR3_DMAT))
1495:Drivers/STM32F3xx_HAL_Driver/Src/stm32f3xx_hal_uart.c ****   {
1496:Drivers/STM32F3xx_HAL_Driver/Src/stm32f3xx_hal_uart.c ****     CLEAR_BIT(huart->Instance->CR3, USART_CR3_DMAT);
1497:Drivers/STM32F3xx_HAL_Driver/Src/stm32f3xx_hal_uart.c **** 
1498:Drivers/STM32F3xx_HAL_Driver/Src/stm32f3xx_hal_uart.c ****     /* Abort the UART DMA Tx channel : use non blocking DMA Abort API (callback) */
1499:Drivers/STM32F3xx_HAL_Driver/Src/stm32f3xx_hal_uart.c ****     if(huart->hdmatx != NULL)
1500:Drivers/STM32F3xx_HAL_Driver/Src/stm32f3xx_hal_uart.c ****     {
1501:Drivers/STM32F3xx_HAL_Driver/Src/stm32f3xx_hal_uart.c ****       /* Set the UART DMA Abort callback : 
1502:Drivers/STM32F3xx_HAL_Driver/Src/stm32f3xx_hal_uart.c ****          will lead to call HAL_UART_AbortCpltCallback() at end of DMA abort procedure */
1503:Drivers/STM32F3xx_HAL_Driver/Src/stm32f3xx_hal_uart.c ****       huart->hdmatx->XferAbortCallback = UART_DMATxOnlyAbortCallback;
1504:Drivers/STM32F3xx_HAL_Driver/Src/stm32f3xx_hal_uart.c **** 
1505:Drivers/STM32F3xx_HAL_Driver/Src/stm32f3xx_hal_uart.c ****       /* Abort DMA TX */
1506:Drivers/STM32F3xx_HAL_Driver/Src/stm32f3xx_hal_uart.c ****       if(HAL_DMA_Abort_IT(huart->hdmatx) != HAL_OK)
1507:Drivers/STM32F3xx_HAL_Driver/Src/stm32f3xx_hal_uart.c ****       {
1508:Drivers/STM32F3xx_HAL_Driver/Src/stm32f3xx_hal_uart.c ****         /* Call Directly huart->hdmatx->XferAbortCallback function in case of error */
1509:Drivers/STM32F3xx_HAL_Driver/Src/stm32f3xx_hal_uart.c ****         huart->hdmatx->XferAbortCallback(huart->hdmatx);
1510:Drivers/STM32F3xx_HAL_Driver/Src/stm32f3xx_hal_uart.c ****       }
1511:Drivers/STM32F3xx_HAL_Driver/Src/stm32f3xx_hal_uart.c ****     }
1512:Drivers/STM32F3xx_HAL_Driver/Src/stm32f3xx_hal_uart.c ****     else
1513:Drivers/STM32F3xx_HAL_Driver/Src/stm32f3xx_hal_uart.c ****     {
1514:Drivers/STM32F3xx_HAL_Driver/Src/stm32f3xx_hal_uart.c ****       /* Reset Tx transfer counter */
1515:Drivers/STM32F3xx_HAL_Driver/Src/stm32f3xx_hal_uart.c ****       huart->TxXferCount = 0U; 
1516:Drivers/STM32F3xx_HAL_Driver/Src/stm32f3xx_hal_uart.c **** 
1517:Drivers/STM32F3xx_HAL_Driver/Src/stm32f3xx_hal_uart.c ****       /* Restore huart->gState to Ready */
1518:Drivers/STM32F3xx_HAL_Driver/Src/stm32f3xx_hal_uart.c ****       huart->gState = HAL_UART_STATE_READY;
1519:Drivers/STM32F3xx_HAL_Driver/Src/stm32f3xx_hal_uart.c **** 
1520:Drivers/STM32F3xx_HAL_Driver/Src/stm32f3xx_hal_uart.c ****       /* As no DMA to be aborted, call directly user Abort complete callback */
1521:Drivers/STM32F3xx_HAL_Driver/Src/stm32f3xx_hal_uart.c ****       HAL_UART_AbortTransmitCpltCallback(huart);
1522:Drivers/STM32F3xx_HAL_Driver/Src/stm32f3xx_hal_uart.c ****     }
1523:Drivers/STM32F3xx_HAL_Driver/Src/stm32f3xx_hal_uart.c ****   }
1524:Drivers/STM32F3xx_HAL_Driver/Src/stm32f3xx_hal_uart.c ****   else
1525:Drivers/STM32F3xx_HAL_Driver/Src/stm32f3xx_hal_uart.c ****   {
1526:Drivers/STM32F3xx_HAL_Driver/Src/stm32f3xx_hal_uart.c ****     /* Reset Tx transfer counter */
1527:Drivers/STM32F3xx_HAL_Driver/Src/stm32f3xx_hal_uart.c ****     huart->TxXferCount = 0U; 
1528:Drivers/STM32F3xx_HAL_Driver/Src/stm32f3xx_hal_uart.c **** 
1529:Drivers/STM32F3xx_HAL_Driver/Src/stm32f3xx_hal_uart.c ****     /* Restore huart->gState to Ready */
1530:Drivers/STM32F3xx_HAL_Driver/Src/stm32f3xx_hal_uart.c ****     huart->gState = HAL_UART_STATE_READY;
1531:Drivers/STM32F3xx_HAL_Driver/Src/stm32f3xx_hal_uart.c **** 
1532:Drivers/STM32F3xx_HAL_Driver/Src/stm32f3xx_hal_uart.c ****     /* As no DMA to be aborted, call directly user Abort complete callback */
1533:Drivers/STM32F3xx_HAL_Driver/Src/stm32f3xx_hal_uart.c ****     HAL_UART_AbortTransmitCpltCallback(huart);
1534:Drivers/STM32F3xx_HAL_Driver/Src/stm32f3xx_hal_uart.c ****   }
1535:Drivers/STM32F3xx_HAL_Driver/Src/stm32f3xx_hal_uart.c **** 
1536:Drivers/STM32F3xx_HAL_Driver/Src/stm32f3xx_hal_uart.c ****   return HAL_OK;
1537:Drivers/STM32F3xx_HAL_Driver/Src/stm32f3xx_hal_uart.c **** }
1538:Drivers/STM32F3xx_HAL_Driver/Src/stm32f3xx_hal_uart.c **** 
1539:Drivers/STM32F3xx_HAL_Driver/Src/stm32f3xx_hal_uart.c **** /**
1540:Drivers/STM32F3xx_HAL_Driver/Src/stm32f3xx_hal_uart.c ****   * @brief  Abort ongoing Receive transfer (Interrupt mode).
1541:Drivers/STM32F3xx_HAL_Driver/Src/stm32f3xx_hal_uart.c ****   * @param  huart UART handle.
1542:Drivers/STM32F3xx_HAL_Driver/Src/stm32f3xx_hal_uart.c ****   * @note   This procedure could be used for aborting any ongoing Rx transfer started in Interrupt 
1543:Drivers/STM32F3xx_HAL_Driver/Src/stm32f3xx_hal_uart.c ****   *         This procedure performs following operations :
1544:Drivers/STM32F3xx_HAL_Driver/Src/stm32f3xx_hal_uart.c ****   *           - Disable UART Interrupts (Rx)
1545:Drivers/STM32F3xx_HAL_Driver/Src/stm32f3xx_hal_uart.c ****   *           - Disable the DMA transfer in the peripheral register (if enabled)
1546:Drivers/STM32F3xx_HAL_Driver/Src/stm32f3xx_hal_uart.c ****   *           - Abort DMA transfer by calling HAL_DMA_Abort_IT (in case of transfer in DMA mode)
1547:Drivers/STM32F3xx_HAL_Driver/Src/stm32f3xx_hal_uart.c ****   *           - Set handle State to READY
1548:Drivers/STM32F3xx_HAL_Driver/Src/stm32f3xx_hal_uart.c ****   *           - At abort completion, call user abort complete callback
ARM GAS  /var/folders/8c/gyvcglfx7f97kbqb2h83mm_r0000gn/T//ccv1qdBn.s 			page 47


1549:Drivers/STM32F3xx_HAL_Driver/Src/stm32f3xx_hal_uart.c ****   * @note   This procedure is executed in Interrupt mode, meaning that abort procedure could be
1550:Drivers/STM32F3xx_HAL_Driver/Src/stm32f3xx_hal_uart.c ****   *         considered as completed only when user abort complete callback is executed (not when ex
1551:Drivers/STM32F3xx_HAL_Driver/Src/stm32f3xx_hal_uart.c ****   * @retval HAL status
1552:Drivers/STM32F3xx_HAL_Driver/Src/stm32f3xx_hal_uart.c **** */
1553:Drivers/STM32F3xx_HAL_Driver/Src/stm32f3xx_hal_uart.c **** HAL_StatusTypeDef HAL_UART_AbortReceive_IT(UART_HandleTypeDef *huart)
1554:Drivers/STM32F3xx_HAL_Driver/Src/stm32f3xx_hal_uart.c **** {
1555:Drivers/STM32F3xx_HAL_Driver/Src/stm32f3xx_hal_uart.c ****   /* Disable RXNE, PE and ERR (Frame error, noise error, overrun error) interrupts */
1556:Drivers/STM32F3xx_HAL_Driver/Src/stm32f3xx_hal_uart.c ****   CLEAR_BIT(huart->Instance->CR1, (USART_CR1_RXNEIE | USART_CR1_PEIE));
1557:Drivers/STM32F3xx_HAL_Driver/Src/stm32f3xx_hal_uart.c ****   CLEAR_BIT(huart->Instance->CR3, USART_CR3_EIE);
1558:Drivers/STM32F3xx_HAL_Driver/Src/stm32f3xx_hal_uart.c **** 
1559:Drivers/STM32F3xx_HAL_Driver/Src/stm32f3xx_hal_uart.c ****   /* Disable the UART DMA Rx request if enabled */
1560:Drivers/STM32F3xx_HAL_Driver/Src/stm32f3xx_hal_uart.c ****   if (HAL_IS_BIT_SET(huart->Instance->CR3, USART_CR3_DMAR))
1561:Drivers/STM32F3xx_HAL_Driver/Src/stm32f3xx_hal_uart.c ****   {
1562:Drivers/STM32F3xx_HAL_Driver/Src/stm32f3xx_hal_uart.c ****     CLEAR_BIT(huart->Instance->CR3, USART_CR3_DMAR);
1563:Drivers/STM32F3xx_HAL_Driver/Src/stm32f3xx_hal_uart.c **** 
1564:Drivers/STM32F3xx_HAL_Driver/Src/stm32f3xx_hal_uart.c ****     /* Abort the UART DMA Rx channel : use non blocking DMA Abort API (callback) */
1565:Drivers/STM32F3xx_HAL_Driver/Src/stm32f3xx_hal_uart.c ****     if(huart->hdmarx != NULL)
1566:Drivers/STM32F3xx_HAL_Driver/Src/stm32f3xx_hal_uart.c ****     {
1567:Drivers/STM32F3xx_HAL_Driver/Src/stm32f3xx_hal_uart.c ****       /* Set the UART DMA Abort callback : 
1568:Drivers/STM32F3xx_HAL_Driver/Src/stm32f3xx_hal_uart.c ****          will lead to call HAL_UART_AbortCpltCallback() at end of DMA abort procedure */
1569:Drivers/STM32F3xx_HAL_Driver/Src/stm32f3xx_hal_uart.c ****       huart->hdmarx->XferAbortCallback = UART_DMARxOnlyAbortCallback;
1570:Drivers/STM32F3xx_HAL_Driver/Src/stm32f3xx_hal_uart.c **** 
1571:Drivers/STM32F3xx_HAL_Driver/Src/stm32f3xx_hal_uart.c ****       /* Abort DMA RX */
1572:Drivers/STM32F3xx_HAL_Driver/Src/stm32f3xx_hal_uart.c ****       if(HAL_DMA_Abort_IT(huart->hdmarx) != HAL_OK)
1573:Drivers/STM32F3xx_HAL_Driver/Src/stm32f3xx_hal_uart.c ****       {
1574:Drivers/STM32F3xx_HAL_Driver/Src/stm32f3xx_hal_uart.c ****         /* Call Directly huart->hdmarx->XferAbortCallback function in case of error */
1575:Drivers/STM32F3xx_HAL_Driver/Src/stm32f3xx_hal_uart.c ****         huart->hdmarx->XferAbortCallback(huart->hdmarx);
1576:Drivers/STM32F3xx_HAL_Driver/Src/stm32f3xx_hal_uart.c ****       }
1577:Drivers/STM32F3xx_HAL_Driver/Src/stm32f3xx_hal_uart.c ****     }
1578:Drivers/STM32F3xx_HAL_Driver/Src/stm32f3xx_hal_uart.c ****     else
1579:Drivers/STM32F3xx_HAL_Driver/Src/stm32f3xx_hal_uart.c ****     {
1580:Drivers/STM32F3xx_HAL_Driver/Src/stm32f3xx_hal_uart.c ****       /* Reset Rx transfer counter */
1581:Drivers/STM32F3xx_HAL_Driver/Src/stm32f3xx_hal_uart.c ****       huart->RxXferCount = 0U; 
1582:Drivers/STM32F3xx_HAL_Driver/Src/stm32f3xx_hal_uart.c **** 
1583:Drivers/STM32F3xx_HAL_Driver/Src/stm32f3xx_hal_uart.c ****       /* Clear the Error flags in the ICR register */
1584:Drivers/STM32F3xx_HAL_Driver/Src/stm32f3xx_hal_uart.c ****       __HAL_UART_CLEAR_FLAG(huart, UART_CLEAR_OREF | UART_CLEAR_NEF | UART_CLEAR_PEF | UART_CLEAR_F
1585:Drivers/STM32F3xx_HAL_Driver/Src/stm32f3xx_hal_uart.c **** 
1586:Drivers/STM32F3xx_HAL_Driver/Src/stm32f3xx_hal_uart.c ****       /* Restore huart->RxState to Ready */
1587:Drivers/STM32F3xx_HAL_Driver/Src/stm32f3xx_hal_uart.c ****       huart->RxState = HAL_UART_STATE_READY;
1588:Drivers/STM32F3xx_HAL_Driver/Src/stm32f3xx_hal_uart.c **** 
1589:Drivers/STM32F3xx_HAL_Driver/Src/stm32f3xx_hal_uart.c ****       /* As no DMA to be aborted, call directly user Abort complete callback */
1590:Drivers/STM32F3xx_HAL_Driver/Src/stm32f3xx_hal_uart.c ****       HAL_UART_AbortReceiveCpltCallback(huart);
1591:Drivers/STM32F3xx_HAL_Driver/Src/stm32f3xx_hal_uart.c ****     }
1592:Drivers/STM32F3xx_HAL_Driver/Src/stm32f3xx_hal_uart.c ****   }
1593:Drivers/STM32F3xx_HAL_Driver/Src/stm32f3xx_hal_uart.c ****   else
1594:Drivers/STM32F3xx_HAL_Driver/Src/stm32f3xx_hal_uart.c ****   {
1595:Drivers/STM32F3xx_HAL_Driver/Src/stm32f3xx_hal_uart.c ****     /* Reset Rx transfer counter */
1596:Drivers/STM32F3xx_HAL_Driver/Src/stm32f3xx_hal_uart.c ****     huart->RxXferCount = 0U; 
1597:Drivers/STM32F3xx_HAL_Driver/Src/stm32f3xx_hal_uart.c **** 
1598:Drivers/STM32F3xx_HAL_Driver/Src/stm32f3xx_hal_uart.c ****     /* Clear the Error flags in the ICR register */
1599:Drivers/STM32F3xx_HAL_Driver/Src/stm32f3xx_hal_uart.c ****     __HAL_UART_CLEAR_FLAG(huart, UART_CLEAR_OREF | UART_CLEAR_NEF | UART_CLEAR_PEF | UART_CLEAR_FEF
1600:Drivers/STM32F3xx_HAL_Driver/Src/stm32f3xx_hal_uart.c **** 
1601:Drivers/STM32F3xx_HAL_Driver/Src/stm32f3xx_hal_uart.c ****     /* Restore huart->RxState to Ready */
1602:Drivers/STM32F3xx_HAL_Driver/Src/stm32f3xx_hal_uart.c ****     huart->RxState = HAL_UART_STATE_READY;
1603:Drivers/STM32F3xx_HAL_Driver/Src/stm32f3xx_hal_uart.c **** 
1604:Drivers/STM32F3xx_HAL_Driver/Src/stm32f3xx_hal_uart.c ****     /* As no DMA to be aborted, call directly user Abort complete callback */
1605:Drivers/STM32F3xx_HAL_Driver/Src/stm32f3xx_hal_uart.c ****     HAL_UART_AbortReceiveCpltCallback(huart);
ARM GAS  /var/folders/8c/gyvcglfx7f97kbqb2h83mm_r0000gn/T//ccv1qdBn.s 			page 48


1606:Drivers/STM32F3xx_HAL_Driver/Src/stm32f3xx_hal_uart.c ****   }
1607:Drivers/STM32F3xx_HAL_Driver/Src/stm32f3xx_hal_uart.c **** 
1608:Drivers/STM32F3xx_HAL_Driver/Src/stm32f3xx_hal_uart.c ****   return HAL_OK;
1609:Drivers/STM32F3xx_HAL_Driver/Src/stm32f3xx_hal_uart.c **** }
1610:Drivers/STM32F3xx_HAL_Driver/Src/stm32f3xx_hal_uart.c **** 
1611:Drivers/STM32F3xx_HAL_Driver/Src/stm32f3xx_hal_uart.c **** /**
1612:Drivers/STM32F3xx_HAL_Driver/Src/stm32f3xx_hal_uart.c ****   * @brief Handle UART interrupt request.
1613:Drivers/STM32F3xx_HAL_Driver/Src/stm32f3xx_hal_uart.c ****   * @param huart UART handle.
1614:Drivers/STM32F3xx_HAL_Driver/Src/stm32f3xx_hal_uart.c ****   * @retval None
1615:Drivers/STM32F3xx_HAL_Driver/Src/stm32f3xx_hal_uart.c ****   */
1616:Drivers/STM32F3xx_HAL_Driver/Src/stm32f3xx_hal_uart.c **** void HAL_UART_IRQHandler(UART_HandleTypeDef *huart)
1617:Drivers/STM32F3xx_HAL_Driver/Src/stm32f3xx_hal_uart.c **** {
1618:Drivers/STM32F3xx_HAL_Driver/Src/stm32f3xx_hal_uart.c ****   uint32_t isrflags   = READ_REG(huart->Instance->ISR);
1619:Drivers/STM32F3xx_HAL_Driver/Src/stm32f3xx_hal_uart.c ****   uint32_t cr1its     = READ_REG(huart->Instance->CR1);
1620:Drivers/STM32F3xx_HAL_Driver/Src/stm32f3xx_hal_uart.c ****   uint32_t cr3its;
1621:Drivers/STM32F3xx_HAL_Driver/Src/stm32f3xx_hal_uart.c ****   uint32_t errorflags;
1622:Drivers/STM32F3xx_HAL_Driver/Src/stm32f3xx_hal_uart.c **** 
1623:Drivers/STM32F3xx_HAL_Driver/Src/stm32f3xx_hal_uart.c ****   /* If no error occurs */
1624:Drivers/STM32F3xx_HAL_Driver/Src/stm32f3xx_hal_uart.c ****   errorflags = (isrflags & (uint32_t)(USART_ISR_PE | USART_ISR_FE | USART_ISR_ORE | USART_ISR_NE));
1625:Drivers/STM32F3xx_HAL_Driver/Src/stm32f3xx_hal_uart.c ****   if (errorflags == RESET)
1626:Drivers/STM32F3xx_HAL_Driver/Src/stm32f3xx_hal_uart.c ****   {
1627:Drivers/STM32F3xx_HAL_Driver/Src/stm32f3xx_hal_uart.c ****     /* UART in mode Receiver ---------------------------------------------------*/
1628:Drivers/STM32F3xx_HAL_Driver/Src/stm32f3xx_hal_uart.c ****     if(((isrflags & USART_ISR_RXNE) != RESET) && ((cr1its & USART_CR1_RXNEIE) != RESET))
1629:Drivers/STM32F3xx_HAL_Driver/Src/stm32f3xx_hal_uart.c ****     {
1630:Drivers/STM32F3xx_HAL_Driver/Src/stm32f3xx_hal_uart.c ****       UART_Receive_IT(huart);
1631:Drivers/STM32F3xx_HAL_Driver/Src/stm32f3xx_hal_uart.c ****       return;
1632:Drivers/STM32F3xx_HAL_Driver/Src/stm32f3xx_hal_uart.c ****     }
1633:Drivers/STM32F3xx_HAL_Driver/Src/stm32f3xx_hal_uart.c ****   }  
1634:Drivers/STM32F3xx_HAL_Driver/Src/stm32f3xx_hal_uart.c **** 
1635:Drivers/STM32F3xx_HAL_Driver/Src/stm32f3xx_hal_uart.c ****   /* If some errors occur */
1636:Drivers/STM32F3xx_HAL_Driver/Src/stm32f3xx_hal_uart.c ****   cr3its = READ_REG(huart->Instance->CR3);
1637:Drivers/STM32F3xx_HAL_Driver/Src/stm32f3xx_hal_uart.c ****   if(   (errorflags != RESET)
1638:Drivers/STM32F3xx_HAL_Driver/Src/stm32f3xx_hal_uart.c ****      && (   ((cr3its & USART_CR3_EIE) != RESET)
1639:Drivers/STM32F3xx_HAL_Driver/Src/stm32f3xx_hal_uart.c ****          || ((cr1its & (USART_CR1_RXNEIE | USART_CR1_PEIE)) != RESET)) )
1640:Drivers/STM32F3xx_HAL_Driver/Src/stm32f3xx_hal_uart.c ****   {
1641:Drivers/STM32F3xx_HAL_Driver/Src/stm32f3xx_hal_uart.c ****     /* UART parity error interrupt occurred -------------------------------------*/
1642:Drivers/STM32F3xx_HAL_Driver/Src/stm32f3xx_hal_uart.c ****     if(((isrflags & USART_ISR_PE) != RESET) && ((cr1its & USART_CR1_PEIE) != RESET))
1643:Drivers/STM32F3xx_HAL_Driver/Src/stm32f3xx_hal_uart.c ****     {
1644:Drivers/STM32F3xx_HAL_Driver/Src/stm32f3xx_hal_uart.c ****       __HAL_UART_CLEAR_IT(huart, UART_CLEAR_PEF);
1645:Drivers/STM32F3xx_HAL_Driver/Src/stm32f3xx_hal_uart.c **** 
1646:Drivers/STM32F3xx_HAL_Driver/Src/stm32f3xx_hal_uart.c ****       huart->ErrorCode |= HAL_UART_ERROR_PE;
1647:Drivers/STM32F3xx_HAL_Driver/Src/stm32f3xx_hal_uart.c ****     }
1648:Drivers/STM32F3xx_HAL_Driver/Src/stm32f3xx_hal_uart.c **** 
1649:Drivers/STM32F3xx_HAL_Driver/Src/stm32f3xx_hal_uart.c ****     /* UART frame error interrupt occurred --------------------------------------*/
1650:Drivers/STM32F3xx_HAL_Driver/Src/stm32f3xx_hal_uart.c ****     if(((isrflags & USART_ISR_FE) != RESET) && ((cr3its & USART_CR3_EIE) != RESET))
1651:Drivers/STM32F3xx_HAL_Driver/Src/stm32f3xx_hal_uart.c ****     {
1652:Drivers/STM32F3xx_HAL_Driver/Src/stm32f3xx_hal_uart.c ****       __HAL_UART_CLEAR_IT(huart, UART_CLEAR_FEF);
1653:Drivers/STM32F3xx_HAL_Driver/Src/stm32f3xx_hal_uart.c **** 
1654:Drivers/STM32F3xx_HAL_Driver/Src/stm32f3xx_hal_uart.c ****       huart->ErrorCode |= HAL_UART_ERROR_FE;
1655:Drivers/STM32F3xx_HAL_Driver/Src/stm32f3xx_hal_uart.c ****     }
1656:Drivers/STM32F3xx_HAL_Driver/Src/stm32f3xx_hal_uart.c **** 
1657:Drivers/STM32F3xx_HAL_Driver/Src/stm32f3xx_hal_uart.c ****     /* UART noise error interrupt occurred --------------------------------------*/
1658:Drivers/STM32F3xx_HAL_Driver/Src/stm32f3xx_hal_uart.c ****     if(((isrflags & USART_ISR_NE) != RESET) && ((cr3its & USART_CR3_EIE) != RESET))
1659:Drivers/STM32F3xx_HAL_Driver/Src/stm32f3xx_hal_uart.c ****     {
1660:Drivers/STM32F3xx_HAL_Driver/Src/stm32f3xx_hal_uart.c ****       __HAL_UART_CLEAR_IT(huart, UART_CLEAR_NEF);
1661:Drivers/STM32F3xx_HAL_Driver/Src/stm32f3xx_hal_uart.c **** 
1662:Drivers/STM32F3xx_HAL_Driver/Src/stm32f3xx_hal_uart.c ****       huart->ErrorCode |= HAL_UART_ERROR_NE;
ARM GAS  /var/folders/8c/gyvcglfx7f97kbqb2h83mm_r0000gn/T//ccv1qdBn.s 			page 49


1663:Drivers/STM32F3xx_HAL_Driver/Src/stm32f3xx_hal_uart.c ****     }
1664:Drivers/STM32F3xx_HAL_Driver/Src/stm32f3xx_hal_uart.c ****     
1665:Drivers/STM32F3xx_HAL_Driver/Src/stm32f3xx_hal_uart.c ****     /* UART Over-Run interrupt occurred -----------------------------------------*/
1666:Drivers/STM32F3xx_HAL_Driver/Src/stm32f3xx_hal_uart.c ****     if(((isrflags & USART_ISR_ORE) != RESET) &&
1667:Drivers/STM32F3xx_HAL_Driver/Src/stm32f3xx_hal_uart.c ****        (((cr1its & USART_CR1_RXNEIE) != RESET) || ((cr3its & USART_CR3_EIE) != RESET)))
1668:Drivers/STM32F3xx_HAL_Driver/Src/stm32f3xx_hal_uart.c ****     {
1669:Drivers/STM32F3xx_HAL_Driver/Src/stm32f3xx_hal_uart.c ****       __HAL_UART_CLEAR_IT(huart, UART_CLEAR_OREF);
1670:Drivers/STM32F3xx_HAL_Driver/Src/stm32f3xx_hal_uart.c **** 
1671:Drivers/STM32F3xx_HAL_Driver/Src/stm32f3xx_hal_uart.c ****       huart->ErrorCode |= HAL_UART_ERROR_ORE;
1672:Drivers/STM32F3xx_HAL_Driver/Src/stm32f3xx_hal_uart.c ****     }
1673:Drivers/STM32F3xx_HAL_Driver/Src/stm32f3xx_hal_uart.c **** 
1674:Drivers/STM32F3xx_HAL_Driver/Src/stm32f3xx_hal_uart.c ****     /* Call UART Error Call back function if need be --------------------------*/
1675:Drivers/STM32F3xx_HAL_Driver/Src/stm32f3xx_hal_uart.c ****     if(huart->ErrorCode != HAL_UART_ERROR_NONE)
1676:Drivers/STM32F3xx_HAL_Driver/Src/stm32f3xx_hal_uart.c ****     {
1677:Drivers/STM32F3xx_HAL_Driver/Src/stm32f3xx_hal_uart.c ****       /* UART in mode Receiver ---------------------------------------------------*/
1678:Drivers/STM32F3xx_HAL_Driver/Src/stm32f3xx_hal_uart.c ****       if(((isrflags & USART_ISR_RXNE) != RESET) && ((cr1its & USART_CR1_RXNEIE) != RESET))
1679:Drivers/STM32F3xx_HAL_Driver/Src/stm32f3xx_hal_uart.c ****       {
1680:Drivers/STM32F3xx_HAL_Driver/Src/stm32f3xx_hal_uart.c ****         UART_Receive_IT(huart);
1681:Drivers/STM32F3xx_HAL_Driver/Src/stm32f3xx_hal_uart.c ****       }
1682:Drivers/STM32F3xx_HAL_Driver/Src/stm32f3xx_hal_uart.c **** 
1683:Drivers/STM32F3xx_HAL_Driver/Src/stm32f3xx_hal_uart.c ****       /* If Overrun error occurs, or if any error occurs in DMA mode reception,
1684:Drivers/STM32F3xx_HAL_Driver/Src/stm32f3xx_hal_uart.c ****          consider error as blocking */
1685:Drivers/STM32F3xx_HAL_Driver/Src/stm32f3xx_hal_uart.c ****       if (((huart->ErrorCode & HAL_UART_ERROR_ORE) != RESET) ||
1686:Drivers/STM32F3xx_HAL_Driver/Src/stm32f3xx_hal_uart.c ****           (HAL_IS_BIT_SET(huart->Instance->CR3, USART_CR3_DMAR)))
1687:Drivers/STM32F3xx_HAL_Driver/Src/stm32f3xx_hal_uart.c ****       {  
1688:Drivers/STM32F3xx_HAL_Driver/Src/stm32f3xx_hal_uart.c ****         /* Blocking error : transfer is aborted
1689:Drivers/STM32F3xx_HAL_Driver/Src/stm32f3xx_hal_uart.c ****            Set the UART state ready to be able to start again the process,
1690:Drivers/STM32F3xx_HAL_Driver/Src/stm32f3xx_hal_uart.c ****            Disable Rx Interrupts, and disable Rx DMA request, if ongoing */
1691:Drivers/STM32F3xx_HAL_Driver/Src/stm32f3xx_hal_uart.c ****         UART_EndRxTransfer(huart);
1692:Drivers/STM32F3xx_HAL_Driver/Src/stm32f3xx_hal_uart.c **** 
1693:Drivers/STM32F3xx_HAL_Driver/Src/stm32f3xx_hal_uart.c ****         /* Disable the UART DMA Rx request if enabled */
1694:Drivers/STM32F3xx_HAL_Driver/Src/stm32f3xx_hal_uart.c ****         if (HAL_IS_BIT_SET(huart->Instance->CR3, USART_CR3_DMAR))
1695:Drivers/STM32F3xx_HAL_Driver/Src/stm32f3xx_hal_uart.c ****         {
1696:Drivers/STM32F3xx_HAL_Driver/Src/stm32f3xx_hal_uart.c ****           CLEAR_BIT(huart->Instance->CR3, USART_CR3_DMAR);
1697:Drivers/STM32F3xx_HAL_Driver/Src/stm32f3xx_hal_uart.c **** 
1698:Drivers/STM32F3xx_HAL_Driver/Src/stm32f3xx_hal_uart.c ****           /* Abort the UART DMA Rx channel */
1699:Drivers/STM32F3xx_HAL_Driver/Src/stm32f3xx_hal_uart.c ****           if(huart->hdmarx != NULL)
1700:Drivers/STM32F3xx_HAL_Driver/Src/stm32f3xx_hal_uart.c ****           {
1701:Drivers/STM32F3xx_HAL_Driver/Src/stm32f3xx_hal_uart.c ****             /* Set the UART DMA Abort callback : 
1702:Drivers/STM32F3xx_HAL_Driver/Src/stm32f3xx_hal_uart.c ****                will lead to call HAL_UART_ErrorCallback() at end of DMA abort procedure */
1703:Drivers/STM32F3xx_HAL_Driver/Src/stm32f3xx_hal_uart.c ****             huart->hdmarx->XferAbortCallback = UART_DMAAbortOnError;
1704:Drivers/STM32F3xx_HAL_Driver/Src/stm32f3xx_hal_uart.c **** 
1705:Drivers/STM32F3xx_HAL_Driver/Src/stm32f3xx_hal_uart.c ****             /* Abort DMA RX */
1706:Drivers/STM32F3xx_HAL_Driver/Src/stm32f3xx_hal_uart.c ****             if(HAL_DMA_Abort_IT(huart->hdmarx) != HAL_OK)
1707:Drivers/STM32F3xx_HAL_Driver/Src/stm32f3xx_hal_uart.c ****             {
1708:Drivers/STM32F3xx_HAL_Driver/Src/stm32f3xx_hal_uart.c ****               /* Call Directly huart->hdmarx->XferAbortCallback function in case of error */
1709:Drivers/STM32F3xx_HAL_Driver/Src/stm32f3xx_hal_uart.c ****               huart->hdmarx->XferAbortCallback(huart->hdmarx);
1710:Drivers/STM32F3xx_HAL_Driver/Src/stm32f3xx_hal_uart.c ****             }
1711:Drivers/STM32F3xx_HAL_Driver/Src/stm32f3xx_hal_uart.c ****           }
1712:Drivers/STM32F3xx_HAL_Driver/Src/stm32f3xx_hal_uart.c ****           else
1713:Drivers/STM32F3xx_HAL_Driver/Src/stm32f3xx_hal_uart.c ****           {
1714:Drivers/STM32F3xx_HAL_Driver/Src/stm32f3xx_hal_uart.c ****             /* Call user error callback */
1715:Drivers/STM32F3xx_HAL_Driver/Src/stm32f3xx_hal_uart.c ****             HAL_UART_ErrorCallback(huart);
1716:Drivers/STM32F3xx_HAL_Driver/Src/stm32f3xx_hal_uart.c ****           }
1717:Drivers/STM32F3xx_HAL_Driver/Src/stm32f3xx_hal_uart.c ****         }
1718:Drivers/STM32F3xx_HAL_Driver/Src/stm32f3xx_hal_uart.c ****         else
1719:Drivers/STM32F3xx_HAL_Driver/Src/stm32f3xx_hal_uart.c ****         {
ARM GAS  /var/folders/8c/gyvcglfx7f97kbqb2h83mm_r0000gn/T//ccv1qdBn.s 			page 50


1720:Drivers/STM32F3xx_HAL_Driver/Src/stm32f3xx_hal_uart.c ****           /* Call user error callback */
1721:Drivers/STM32F3xx_HAL_Driver/Src/stm32f3xx_hal_uart.c ****           HAL_UART_ErrorCallback(huart);
1722:Drivers/STM32F3xx_HAL_Driver/Src/stm32f3xx_hal_uart.c ****         }
1723:Drivers/STM32F3xx_HAL_Driver/Src/stm32f3xx_hal_uart.c ****       }
1724:Drivers/STM32F3xx_HAL_Driver/Src/stm32f3xx_hal_uart.c ****       else
1725:Drivers/STM32F3xx_HAL_Driver/Src/stm32f3xx_hal_uart.c ****       {
1726:Drivers/STM32F3xx_HAL_Driver/Src/stm32f3xx_hal_uart.c ****         /* Non Blocking error : transfer could go on. 
1727:Drivers/STM32F3xx_HAL_Driver/Src/stm32f3xx_hal_uart.c ****            Error is notified to user through user error callback */
1728:Drivers/STM32F3xx_HAL_Driver/Src/stm32f3xx_hal_uart.c ****         HAL_UART_ErrorCallback(huart);
1729:Drivers/STM32F3xx_HAL_Driver/Src/stm32f3xx_hal_uart.c ****         huart->ErrorCode = HAL_UART_ERROR_NONE;
1730:Drivers/STM32F3xx_HAL_Driver/Src/stm32f3xx_hal_uart.c ****       }
1731:Drivers/STM32F3xx_HAL_Driver/Src/stm32f3xx_hal_uart.c ****     }
1732:Drivers/STM32F3xx_HAL_Driver/Src/stm32f3xx_hal_uart.c ****     return;
1733:Drivers/STM32F3xx_HAL_Driver/Src/stm32f3xx_hal_uart.c **** 
1734:Drivers/STM32F3xx_HAL_Driver/Src/stm32f3xx_hal_uart.c ****   } /* End if some error occurs */
1735:Drivers/STM32F3xx_HAL_Driver/Src/stm32f3xx_hal_uart.c **** 
1736:Drivers/STM32F3xx_HAL_Driver/Src/stm32f3xx_hal_uart.c ****   /* UART wakeup from Stop mode interrupt occurred ---------------------------*/
1737:Drivers/STM32F3xx_HAL_Driver/Src/stm32f3xx_hal_uart.c ****   if(((isrflags & USART_ISR_WUF) != RESET) && ((cr3its & USART_CR3_WUFIE) != RESET))
1738:Drivers/STM32F3xx_HAL_Driver/Src/stm32f3xx_hal_uart.c ****   {
1739:Drivers/STM32F3xx_HAL_Driver/Src/stm32f3xx_hal_uart.c ****     __HAL_UART_CLEAR_IT(huart, UART_CLEAR_WUF);
1740:Drivers/STM32F3xx_HAL_Driver/Src/stm32f3xx_hal_uart.c ****     /* Set the UART state ready to be able to start again the process */
1741:Drivers/STM32F3xx_HAL_Driver/Src/stm32f3xx_hal_uart.c ****     huart->gState  = HAL_UART_STATE_READY;
1742:Drivers/STM32F3xx_HAL_Driver/Src/stm32f3xx_hal_uart.c ****     huart->RxState = HAL_UART_STATE_READY;
1743:Drivers/STM32F3xx_HAL_Driver/Src/stm32f3xx_hal_uart.c ****     HAL_UARTEx_WakeupCallback(huart);
1744:Drivers/STM32F3xx_HAL_Driver/Src/stm32f3xx_hal_uart.c ****     return;
1745:Drivers/STM32F3xx_HAL_Driver/Src/stm32f3xx_hal_uart.c ****   }
1746:Drivers/STM32F3xx_HAL_Driver/Src/stm32f3xx_hal_uart.c **** 
1747:Drivers/STM32F3xx_HAL_Driver/Src/stm32f3xx_hal_uart.c ****   /* UART in mode Transmitter ------------------------------------------------*/
1748:Drivers/STM32F3xx_HAL_Driver/Src/stm32f3xx_hal_uart.c ****   if(((isrflags & USART_ISR_TXE) != RESET) && ((cr1its & USART_CR1_TXEIE) != RESET))
1749:Drivers/STM32F3xx_HAL_Driver/Src/stm32f3xx_hal_uart.c ****   {
1750:Drivers/STM32F3xx_HAL_Driver/Src/stm32f3xx_hal_uart.c ****     UART_Transmit_IT(huart);
1751:Drivers/STM32F3xx_HAL_Driver/Src/stm32f3xx_hal_uart.c ****     return;
1752:Drivers/STM32F3xx_HAL_Driver/Src/stm32f3xx_hal_uart.c ****   }
1753:Drivers/STM32F3xx_HAL_Driver/Src/stm32f3xx_hal_uart.c **** 
1754:Drivers/STM32F3xx_HAL_Driver/Src/stm32f3xx_hal_uart.c ****   /* UART in mode Transmitter (transmission end) -----------------------------*/
1755:Drivers/STM32F3xx_HAL_Driver/Src/stm32f3xx_hal_uart.c ****   if(((isrflags & USART_ISR_TC) != RESET) && ((cr1its & USART_CR1_TCIE) != RESET))
1756:Drivers/STM32F3xx_HAL_Driver/Src/stm32f3xx_hal_uart.c ****   {
1757:Drivers/STM32F3xx_HAL_Driver/Src/stm32f3xx_hal_uart.c ****     UART_EndTransmit_IT(huart);
1758:Drivers/STM32F3xx_HAL_Driver/Src/stm32f3xx_hal_uart.c ****     return;
1759:Drivers/STM32F3xx_HAL_Driver/Src/stm32f3xx_hal_uart.c ****   }
1760:Drivers/STM32F3xx_HAL_Driver/Src/stm32f3xx_hal_uart.c **** 
1761:Drivers/STM32F3xx_HAL_Driver/Src/stm32f3xx_hal_uart.c **** }
1762:Drivers/STM32F3xx_HAL_Driver/Src/stm32f3xx_hal_uart.c **** 
1763:Drivers/STM32F3xx_HAL_Driver/Src/stm32f3xx_hal_uart.c **** /**
1764:Drivers/STM32F3xx_HAL_Driver/Src/stm32f3xx_hal_uart.c ****   * @brief Tx Transfer completed callback.
1765:Drivers/STM32F3xx_HAL_Driver/Src/stm32f3xx_hal_uart.c ****   * @param huart UART handle.
1766:Drivers/STM32F3xx_HAL_Driver/Src/stm32f3xx_hal_uart.c ****   * @retval None
1767:Drivers/STM32F3xx_HAL_Driver/Src/stm32f3xx_hal_uart.c ****   */
1768:Drivers/STM32F3xx_HAL_Driver/Src/stm32f3xx_hal_uart.c **** __weak void HAL_UART_TxCpltCallback(UART_HandleTypeDef *huart)
1769:Drivers/STM32F3xx_HAL_Driver/Src/stm32f3xx_hal_uart.c **** {
1770:Drivers/STM32F3xx_HAL_Driver/Src/stm32f3xx_hal_uart.c ****   /* Prevent unused argument(s) compilation warning */
1771:Drivers/STM32F3xx_HAL_Driver/Src/stm32f3xx_hal_uart.c ****   UNUSED(huart);
1772:Drivers/STM32F3xx_HAL_Driver/Src/stm32f3xx_hal_uart.c **** 
1773:Drivers/STM32F3xx_HAL_Driver/Src/stm32f3xx_hal_uart.c ****   /* NOTE : This function should not be modified, when the callback is needed,
1774:Drivers/STM32F3xx_HAL_Driver/Src/stm32f3xx_hal_uart.c ****             the HAL_UART_TxCpltCallback can be implemented in the user file.
1775:Drivers/STM32F3xx_HAL_Driver/Src/stm32f3xx_hal_uart.c ****    */
1776:Drivers/STM32F3xx_HAL_Driver/Src/stm32f3xx_hal_uart.c **** }
ARM GAS  /var/folders/8c/gyvcglfx7f97kbqb2h83mm_r0000gn/T//ccv1qdBn.s 			page 51


1777:Drivers/STM32F3xx_HAL_Driver/Src/stm32f3xx_hal_uart.c **** 
1778:Drivers/STM32F3xx_HAL_Driver/Src/stm32f3xx_hal_uart.c **** /**
1779:Drivers/STM32F3xx_HAL_Driver/Src/stm32f3xx_hal_uart.c ****   * @brief  Tx Half Transfer completed callback.
1780:Drivers/STM32F3xx_HAL_Driver/Src/stm32f3xx_hal_uart.c ****   * @param  huart UART handle.
1781:Drivers/STM32F3xx_HAL_Driver/Src/stm32f3xx_hal_uart.c ****   * @retval None
1782:Drivers/STM32F3xx_HAL_Driver/Src/stm32f3xx_hal_uart.c ****   */
1783:Drivers/STM32F3xx_HAL_Driver/Src/stm32f3xx_hal_uart.c **** __weak void HAL_UART_TxHalfCpltCallback(UART_HandleTypeDef *huart)
1784:Drivers/STM32F3xx_HAL_Driver/Src/stm32f3xx_hal_uart.c **** {
1785:Drivers/STM32F3xx_HAL_Driver/Src/stm32f3xx_hal_uart.c ****   /* Prevent unused argument(s) compilation warning */
1786:Drivers/STM32F3xx_HAL_Driver/Src/stm32f3xx_hal_uart.c ****   UNUSED(huart);
1787:Drivers/STM32F3xx_HAL_Driver/Src/stm32f3xx_hal_uart.c **** 
1788:Drivers/STM32F3xx_HAL_Driver/Src/stm32f3xx_hal_uart.c ****   /* NOTE: This function should not be modified, when the callback is needed,
1789:Drivers/STM32F3xx_HAL_Driver/Src/stm32f3xx_hal_uart.c ****            the HAL_UART_TxHalfCpltCallback can be implemented in the user file.
1790:Drivers/STM32F3xx_HAL_Driver/Src/stm32f3xx_hal_uart.c ****    */
1791:Drivers/STM32F3xx_HAL_Driver/Src/stm32f3xx_hal_uart.c **** }
1792:Drivers/STM32F3xx_HAL_Driver/Src/stm32f3xx_hal_uart.c **** 
1793:Drivers/STM32F3xx_HAL_Driver/Src/stm32f3xx_hal_uart.c **** /**
1794:Drivers/STM32F3xx_HAL_Driver/Src/stm32f3xx_hal_uart.c ****   * @brief Rx Transfer completed callback.
1795:Drivers/STM32F3xx_HAL_Driver/Src/stm32f3xx_hal_uart.c ****   * @param huart UART handle.
1796:Drivers/STM32F3xx_HAL_Driver/Src/stm32f3xx_hal_uart.c ****   * @retval None
1797:Drivers/STM32F3xx_HAL_Driver/Src/stm32f3xx_hal_uart.c ****   */
1798:Drivers/STM32F3xx_HAL_Driver/Src/stm32f3xx_hal_uart.c **** __weak void HAL_UART_RxCpltCallback(UART_HandleTypeDef *huart)
1799:Drivers/STM32F3xx_HAL_Driver/Src/stm32f3xx_hal_uart.c **** {
1800:Drivers/STM32F3xx_HAL_Driver/Src/stm32f3xx_hal_uart.c ****   /* Prevent unused argument(s) compilation warning */
1801:Drivers/STM32F3xx_HAL_Driver/Src/stm32f3xx_hal_uart.c ****   UNUSED(huart);
1802:Drivers/STM32F3xx_HAL_Driver/Src/stm32f3xx_hal_uart.c **** 
1803:Drivers/STM32F3xx_HAL_Driver/Src/stm32f3xx_hal_uart.c ****   /* NOTE : This function should not be modified, when the callback is needed,
1804:Drivers/STM32F3xx_HAL_Driver/Src/stm32f3xx_hal_uart.c ****             the HAL_UART_RxCpltCallback can be implemented in the user file.
1805:Drivers/STM32F3xx_HAL_Driver/Src/stm32f3xx_hal_uart.c ****    */
1806:Drivers/STM32F3xx_HAL_Driver/Src/stm32f3xx_hal_uart.c **** }
1807:Drivers/STM32F3xx_HAL_Driver/Src/stm32f3xx_hal_uart.c **** 
1808:Drivers/STM32F3xx_HAL_Driver/Src/stm32f3xx_hal_uart.c **** /**
1809:Drivers/STM32F3xx_HAL_Driver/Src/stm32f3xx_hal_uart.c ****   * @brief  Rx Half Transfer completed callback.
1810:Drivers/STM32F3xx_HAL_Driver/Src/stm32f3xx_hal_uart.c ****   * @param  huart UART handle.
1811:Drivers/STM32F3xx_HAL_Driver/Src/stm32f3xx_hal_uart.c ****   * @retval None
1812:Drivers/STM32F3xx_HAL_Driver/Src/stm32f3xx_hal_uart.c ****   */
1813:Drivers/STM32F3xx_HAL_Driver/Src/stm32f3xx_hal_uart.c **** __weak void HAL_UART_RxHalfCpltCallback(UART_HandleTypeDef *huart)
1814:Drivers/STM32F3xx_HAL_Driver/Src/stm32f3xx_hal_uart.c **** {
1815:Drivers/STM32F3xx_HAL_Driver/Src/stm32f3xx_hal_uart.c ****   /* Prevent unused argument(s) compilation warning */
1816:Drivers/STM32F3xx_HAL_Driver/Src/stm32f3xx_hal_uart.c ****   UNUSED(huart);
1817:Drivers/STM32F3xx_HAL_Driver/Src/stm32f3xx_hal_uart.c **** 
1818:Drivers/STM32F3xx_HAL_Driver/Src/stm32f3xx_hal_uart.c ****   /* NOTE: This function should not be modified, when the callback is needed,
1819:Drivers/STM32F3xx_HAL_Driver/Src/stm32f3xx_hal_uart.c ****            the HAL_UART_RxHalfCpltCallback can be implemented in the user file.
1820:Drivers/STM32F3xx_HAL_Driver/Src/stm32f3xx_hal_uart.c ****    */
1821:Drivers/STM32F3xx_HAL_Driver/Src/stm32f3xx_hal_uart.c **** }
1822:Drivers/STM32F3xx_HAL_Driver/Src/stm32f3xx_hal_uart.c **** 
1823:Drivers/STM32F3xx_HAL_Driver/Src/stm32f3xx_hal_uart.c **** /**
1824:Drivers/STM32F3xx_HAL_Driver/Src/stm32f3xx_hal_uart.c ****   * @brief UART error callback.
1825:Drivers/STM32F3xx_HAL_Driver/Src/stm32f3xx_hal_uart.c ****   * @param huart UART handle.
1826:Drivers/STM32F3xx_HAL_Driver/Src/stm32f3xx_hal_uart.c ****   * @retval None
1827:Drivers/STM32F3xx_HAL_Driver/Src/stm32f3xx_hal_uart.c ****   */
1828:Drivers/STM32F3xx_HAL_Driver/Src/stm32f3xx_hal_uart.c **** __weak void HAL_UART_ErrorCallback(UART_HandleTypeDef *huart)
1829:Drivers/STM32F3xx_HAL_Driver/Src/stm32f3xx_hal_uart.c **** {
1830:Drivers/STM32F3xx_HAL_Driver/Src/stm32f3xx_hal_uart.c ****   /* Prevent unused argument(s) compilation warning */
1831:Drivers/STM32F3xx_HAL_Driver/Src/stm32f3xx_hal_uart.c ****   UNUSED(huart);
1832:Drivers/STM32F3xx_HAL_Driver/Src/stm32f3xx_hal_uart.c **** 
1833:Drivers/STM32F3xx_HAL_Driver/Src/stm32f3xx_hal_uart.c ****   /* NOTE : This function should not be modified, when the callback is needed,
ARM GAS  /var/folders/8c/gyvcglfx7f97kbqb2h83mm_r0000gn/T//ccv1qdBn.s 			page 52


1834:Drivers/STM32F3xx_HAL_Driver/Src/stm32f3xx_hal_uart.c ****             the HAL_UART_ErrorCallback can be implemented in the user file.
1835:Drivers/STM32F3xx_HAL_Driver/Src/stm32f3xx_hal_uart.c ****    */
1836:Drivers/STM32F3xx_HAL_Driver/Src/stm32f3xx_hal_uart.c **** }
1837:Drivers/STM32F3xx_HAL_Driver/Src/stm32f3xx_hal_uart.c **** 
1838:Drivers/STM32F3xx_HAL_Driver/Src/stm32f3xx_hal_uart.c **** /**
1839:Drivers/STM32F3xx_HAL_Driver/Src/stm32f3xx_hal_uart.c ****   * @brief  UART Abort Complete callback.
1840:Drivers/STM32F3xx_HAL_Driver/Src/stm32f3xx_hal_uart.c ****   * @param  huart UART handle.
1841:Drivers/STM32F3xx_HAL_Driver/Src/stm32f3xx_hal_uart.c ****   * @retval None
1842:Drivers/STM32F3xx_HAL_Driver/Src/stm32f3xx_hal_uart.c ****   */
1843:Drivers/STM32F3xx_HAL_Driver/Src/stm32f3xx_hal_uart.c **** __weak void HAL_UART_AbortCpltCallback (UART_HandleTypeDef *huart)
1844:Drivers/STM32F3xx_HAL_Driver/Src/stm32f3xx_hal_uart.c **** {
1845:Drivers/STM32F3xx_HAL_Driver/Src/stm32f3xx_hal_uart.c ****   /* Prevent unused argument(s) compilation warning */
1846:Drivers/STM32F3xx_HAL_Driver/Src/stm32f3xx_hal_uart.c ****   UNUSED(huart);
1847:Drivers/STM32F3xx_HAL_Driver/Src/stm32f3xx_hal_uart.c **** 
1848:Drivers/STM32F3xx_HAL_Driver/Src/stm32f3xx_hal_uart.c ****   /* NOTE : This function should not be modified, when the callback is needed,
1849:Drivers/STM32F3xx_HAL_Driver/Src/stm32f3xx_hal_uart.c ****             the HAL_UART_AbortCpltCallback can be implemented in the user file.
1850:Drivers/STM32F3xx_HAL_Driver/Src/stm32f3xx_hal_uart.c ****    */
1851:Drivers/STM32F3xx_HAL_Driver/Src/stm32f3xx_hal_uart.c **** }
1852:Drivers/STM32F3xx_HAL_Driver/Src/stm32f3xx_hal_uart.c **** 
1853:Drivers/STM32F3xx_HAL_Driver/Src/stm32f3xx_hal_uart.c **** /**
1854:Drivers/STM32F3xx_HAL_Driver/Src/stm32f3xx_hal_uart.c ****   * @brief  UART Abort Complete callback.
1855:Drivers/STM32F3xx_HAL_Driver/Src/stm32f3xx_hal_uart.c ****   * @param  huart UART handle.
1856:Drivers/STM32F3xx_HAL_Driver/Src/stm32f3xx_hal_uart.c ****   * @retval None
1857:Drivers/STM32F3xx_HAL_Driver/Src/stm32f3xx_hal_uart.c ****   */
1858:Drivers/STM32F3xx_HAL_Driver/Src/stm32f3xx_hal_uart.c **** __weak void HAL_UART_AbortTransmitCpltCallback (UART_HandleTypeDef *huart)
1859:Drivers/STM32F3xx_HAL_Driver/Src/stm32f3xx_hal_uart.c **** {
1860:Drivers/STM32F3xx_HAL_Driver/Src/stm32f3xx_hal_uart.c ****   /* Prevent unused argument(s) compilation warning */
1861:Drivers/STM32F3xx_HAL_Driver/Src/stm32f3xx_hal_uart.c ****   UNUSED(huart);
1862:Drivers/STM32F3xx_HAL_Driver/Src/stm32f3xx_hal_uart.c **** 
1863:Drivers/STM32F3xx_HAL_Driver/Src/stm32f3xx_hal_uart.c ****   /* NOTE : This function should not be modified, when the callback is needed,
1864:Drivers/STM32F3xx_HAL_Driver/Src/stm32f3xx_hal_uart.c ****             the HAL_UART_AbortTransmitCpltCallback can be implemented in the user file.
1865:Drivers/STM32F3xx_HAL_Driver/Src/stm32f3xx_hal_uart.c ****    */
1866:Drivers/STM32F3xx_HAL_Driver/Src/stm32f3xx_hal_uart.c **** }
1867:Drivers/STM32F3xx_HAL_Driver/Src/stm32f3xx_hal_uart.c **** 
1868:Drivers/STM32F3xx_HAL_Driver/Src/stm32f3xx_hal_uart.c **** /**
1869:Drivers/STM32F3xx_HAL_Driver/Src/stm32f3xx_hal_uart.c ****   * @brief  UART Abort Receive Complete callback.
1870:Drivers/STM32F3xx_HAL_Driver/Src/stm32f3xx_hal_uart.c ****   * @param  huart UART handle.
1871:Drivers/STM32F3xx_HAL_Driver/Src/stm32f3xx_hal_uart.c ****   * @retval None
1872:Drivers/STM32F3xx_HAL_Driver/Src/stm32f3xx_hal_uart.c ****   */
1873:Drivers/STM32F3xx_HAL_Driver/Src/stm32f3xx_hal_uart.c **** __weak void HAL_UART_AbortReceiveCpltCallback (UART_HandleTypeDef *huart)
1874:Drivers/STM32F3xx_HAL_Driver/Src/stm32f3xx_hal_uart.c **** {
1875:Drivers/STM32F3xx_HAL_Driver/Src/stm32f3xx_hal_uart.c ****   /* Prevent unused argument(s) compilation warning */
1876:Drivers/STM32F3xx_HAL_Driver/Src/stm32f3xx_hal_uart.c ****   UNUSED(huart);
1877:Drivers/STM32F3xx_HAL_Driver/Src/stm32f3xx_hal_uart.c **** 
1878:Drivers/STM32F3xx_HAL_Driver/Src/stm32f3xx_hal_uart.c ****   /* NOTE : This function should not be modified, when the callback is needed,
1879:Drivers/STM32F3xx_HAL_Driver/Src/stm32f3xx_hal_uart.c ****             the HAL_UART_AbortReceiveCpltCallback can be implemented in the user file.
1880:Drivers/STM32F3xx_HAL_Driver/Src/stm32f3xx_hal_uart.c ****    */
1881:Drivers/STM32F3xx_HAL_Driver/Src/stm32f3xx_hal_uart.c **** }
1882:Drivers/STM32F3xx_HAL_Driver/Src/stm32f3xx_hal_uart.c **** 
1883:Drivers/STM32F3xx_HAL_Driver/Src/stm32f3xx_hal_uart.c **** /**
1884:Drivers/STM32F3xx_HAL_Driver/Src/stm32f3xx_hal_uart.c ****   * @}
1885:Drivers/STM32F3xx_HAL_Driver/Src/stm32f3xx_hal_uart.c ****   */
1886:Drivers/STM32F3xx_HAL_Driver/Src/stm32f3xx_hal_uart.c **** 
1887:Drivers/STM32F3xx_HAL_Driver/Src/stm32f3xx_hal_uart.c **** /** @defgroup UART_Exported_Functions_Group3 Peripheral Control functions
1888:Drivers/STM32F3xx_HAL_Driver/Src/stm32f3xx_hal_uart.c ****   *  @brief   UART control functions
1889:Drivers/STM32F3xx_HAL_Driver/Src/stm32f3xx_hal_uart.c ****   *
1890:Drivers/STM32F3xx_HAL_Driver/Src/stm32f3xx_hal_uart.c **** @verbatim
ARM GAS  /var/folders/8c/gyvcglfx7f97kbqb2h83mm_r0000gn/T//ccv1qdBn.s 			page 53


1891:Drivers/STM32F3xx_HAL_Driver/Src/stm32f3xx_hal_uart.c ****  ===============================================================================
1892:Drivers/STM32F3xx_HAL_Driver/Src/stm32f3xx_hal_uart.c ****                       ##### Peripheral Control functions #####
1893:Drivers/STM32F3xx_HAL_Driver/Src/stm32f3xx_hal_uart.c ****  ===============================================================================
1894:Drivers/STM32F3xx_HAL_Driver/Src/stm32f3xx_hal_uart.c ****     [..]
1895:Drivers/STM32F3xx_HAL_Driver/Src/stm32f3xx_hal_uart.c ****     This subsection provides a set of functions allowing to control the UART.
1896:Drivers/STM32F3xx_HAL_Driver/Src/stm32f3xx_hal_uart.c ****      (+) HAL_MultiProcessor_EnableMuteMode() API enables mute mode
1897:Drivers/STM32F3xx_HAL_Driver/Src/stm32f3xx_hal_uart.c ****      (+) HAL_MultiProcessor_DisableMuteMode() API disables mute mode
1898:Drivers/STM32F3xx_HAL_Driver/Src/stm32f3xx_hal_uart.c ****      (+) HAL_MultiProcessor_EnterMuteMode() API enters mute mode
1899:Drivers/STM32F3xx_HAL_Driver/Src/stm32f3xx_hal_uart.c ****      (+) HAL_HalfDuplex_EnableTransmitter() API disables receiver and enables transmitter
1900:Drivers/STM32F3xx_HAL_Driver/Src/stm32f3xx_hal_uart.c ****      (+) HAL_HalfDuplex_EnableReceiver() API disables transmitter and enables receiver
1901:Drivers/STM32F3xx_HAL_Driver/Src/stm32f3xx_hal_uart.c ****      (+) HAL_LIN_SendBreak() API transmits the break characters
1902:Drivers/STM32F3xx_HAL_Driver/Src/stm32f3xx_hal_uart.c **** @endverbatim
1903:Drivers/STM32F3xx_HAL_Driver/Src/stm32f3xx_hal_uart.c ****   * @{
1904:Drivers/STM32F3xx_HAL_Driver/Src/stm32f3xx_hal_uart.c ****   */
1905:Drivers/STM32F3xx_HAL_Driver/Src/stm32f3xx_hal_uart.c **** 
1906:Drivers/STM32F3xx_HAL_Driver/Src/stm32f3xx_hal_uart.c **** /**
1907:Drivers/STM32F3xx_HAL_Driver/Src/stm32f3xx_hal_uart.c ****   * @brief Enable UART in mute mode (does not mean UART enters mute mode;
1908:Drivers/STM32F3xx_HAL_Driver/Src/stm32f3xx_hal_uart.c ****   * to enter mute mode, HAL_MultiProcessor_EnterMuteMode() API must be called).
1909:Drivers/STM32F3xx_HAL_Driver/Src/stm32f3xx_hal_uart.c ****   * @param huart UART handle.
1910:Drivers/STM32F3xx_HAL_Driver/Src/stm32f3xx_hal_uart.c ****   * @retval HAL status
1911:Drivers/STM32F3xx_HAL_Driver/Src/stm32f3xx_hal_uart.c ****   */
1912:Drivers/STM32F3xx_HAL_Driver/Src/stm32f3xx_hal_uart.c **** HAL_StatusTypeDef HAL_MultiProcessor_EnableMuteMode(UART_HandleTypeDef *huart)
1913:Drivers/STM32F3xx_HAL_Driver/Src/stm32f3xx_hal_uart.c **** {
1914:Drivers/STM32F3xx_HAL_Driver/Src/stm32f3xx_hal_uart.c ****   /* Process Locked */
1915:Drivers/STM32F3xx_HAL_Driver/Src/stm32f3xx_hal_uart.c ****   __HAL_LOCK(huart);
1916:Drivers/STM32F3xx_HAL_Driver/Src/stm32f3xx_hal_uart.c **** 
1917:Drivers/STM32F3xx_HAL_Driver/Src/stm32f3xx_hal_uart.c ****   huart->gState = HAL_UART_STATE_BUSY;
1918:Drivers/STM32F3xx_HAL_Driver/Src/stm32f3xx_hal_uart.c **** 
1919:Drivers/STM32F3xx_HAL_Driver/Src/stm32f3xx_hal_uart.c ****   /* Enable USART mute mode by setting the MME bit in the CR1 register */
1920:Drivers/STM32F3xx_HAL_Driver/Src/stm32f3xx_hal_uart.c ****   SET_BIT(huart->Instance->CR1, USART_CR1_MME);
1921:Drivers/STM32F3xx_HAL_Driver/Src/stm32f3xx_hal_uart.c **** 
1922:Drivers/STM32F3xx_HAL_Driver/Src/stm32f3xx_hal_uart.c ****   huart->gState = HAL_UART_STATE_READY;
1923:Drivers/STM32F3xx_HAL_Driver/Src/stm32f3xx_hal_uart.c **** 
1924:Drivers/STM32F3xx_HAL_Driver/Src/stm32f3xx_hal_uart.c ****   return (UART_CheckIdleState(huart));
1925:Drivers/STM32F3xx_HAL_Driver/Src/stm32f3xx_hal_uart.c **** }
1926:Drivers/STM32F3xx_HAL_Driver/Src/stm32f3xx_hal_uart.c **** 
1927:Drivers/STM32F3xx_HAL_Driver/Src/stm32f3xx_hal_uart.c **** /**
1928:Drivers/STM32F3xx_HAL_Driver/Src/stm32f3xx_hal_uart.c ****   * @brief  Disable UART mute mode (does not mean the UART actually exits mute mode
1929:Drivers/STM32F3xx_HAL_Driver/Src/stm32f3xx_hal_uart.c ****   *         as it may not have been in mute mode at this very moment).
1930:Drivers/STM32F3xx_HAL_Driver/Src/stm32f3xx_hal_uart.c ****   * @param  huart UART handle.
1931:Drivers/STM32F3xx_HAL_Driver/Src/stm32f3xx_hal_uart.c ****   * @retval HAL status
1932:Drivers/STM32F3xx_HAL_Driver/Src/stm32f3xx_hal_uart.c ****   */
1933:Drivers/STM32F3xx_HAL_Driver/Src/stm32f3xx_hal_uart.c **** HAL_StatusTypeDef HAL_MultiProcessor_DisableMuteMode(UART_HandleTypeDef *huart)
1934:Drivers/STM32F3xx_HAL_Driver/Src/stm32f3xx_hal_uart.c **** {
1935:Drivers/STM32F3xx_HAL_Driver/Src/stm32f3xx_hal_uart.c ****   /* Process Locked */
1936:Drivers/STM32F3xx_HAL_Driver/Src/stm32f3xx_hal_uart.c ****   __HAL_LOCK(huart);
1937:Drivers/STM32F3xx_HAL_Driver/Src/stm32f3xx_hal_uart.c **** 
1938:Drivers/STM32F3xx_HAL_Driver/Src/stm32f3xx_hal_uart.c ****   huart->gState = HAL_UART_STATE_BUSY;
1939:Drivers/STM32F3xx_HAL_Driver/Src/stm32f3xx_hal_uart.c **** 
1940:Drivers/STM32F3xx_HAL_Driver/Src/stm32f3xx_hal_uart.c ****    /* Disable USART mute mode by clearing the MME bit in the CR1 register */
1941:Drivers/STM32F3xx_HAL_Driver/Src/stm32f3xx_hal_uart.c ****   CLEAR_BIT(huart->Instance->CR1, USART_CR1_MME);
1942:Drivers/STM32F3xx_HAL_Driver/Src/stm32f3xx_hal_uart.c **** 
1943:Drivers/STM32F3xx_HAL_Driver/Src/stm32f3xx_hal_uart.c ****   huart->gState = HAL_UART_STATE_READY;
1944:Drivers/STM32F3xx_HAL_Driver/Src/stm32f3xx_hal_uart.c **** 
1945:Drivers/STM32F3xx_HAL_Driver/Src/stm32f3xx_hal_uart.c ****   return (UART_CheckIdleState(huart));
1946:Drivers/STM32F3xx_HAL_Driver/Src/stm32f3xx_hal_uart.c **** }
1947:Drivers/STM32F3xx_HAL_Driver/Src/stm32f3xx_hal_uart.c **** 
ARM GAS  /var/folders/8c/gyvcglfx7f97kbqb2h83mm_r0000gn/T//ccv1qdBn.s 			page 54


1948:Drivers/STM32F3xx_HAL_Driver/Src/stm32f3xx_hal_uart.c **** /**
1949:Drivers/STM32F3xx_HAL_Driver/Src/stm32f3xx_hal_uart.c ****   * @brief Enter UART mute mode (means UART actually enters mute mode).
1950:Drivers/STM32F3xx_HAL_Driver/Src/stm32f3xx_hal_uart.c ****   * @note  To exit from mute mode, HAL_MultiProcessor_DisableMuteMode() API must be called.
1951:Drivers/STM32F3xx_HAL_Driver/Src/stm32f3xx_hal_uart.c ****   * @param huart UART handle.
1952:Drivers/STM32F3xx_HAL_Driver/Src/stm32f3xx_hal_uart.c ****   * @retval None
1953:Drivers/STM32F3xx_HAL_Driver/Src/stm32f3xx_hal_uart.c ****   */
1954:Drivers/STM32F3xx_HAL_Driver/Src/stm32f3xx_hal_uart.c **** void HAL_MultiProcessor_EnterMuteMode(UART_HandleTypeDef *huart)
1955:Drivers/STM32F3xx_HAL_Driver/Src/stm32f3xx_hal_uart.c **** {
1956:Drivers/STM32F3xx_HAL_Driver/Src/stm32f3xx_hal_uart.c ****   __HAL_UART_SEND_REQ(huart, UART_MUTE_MODE_REQUEST);
1957:Drivers/STM32F3xx_HAL_Driver/Src/stm32f3xx_hal_uart.c **** }
1958:Drivers/STM32F3xx_HAL_Driver/Src/stm32f3xx_hal_uart.c **** 
1959:Drivers/STM32F3xx_HAL_Driver/Src/stm32f3xx_hal_uart.c **** /**
1960:Drivers/STM32F3xx_HAL_Driver/Src/stm32f3xx_hal_uart.c ****   * @brief  Enable the UART transmitter and disable the UART receiver.
1961:Drivers/STM32F3xx_HAL_Driver/Src/stm32f3xx_hal_uart.c ****   * @param  huart UART handle.
1962:Drivers/STM32F3xx_HAL_Driver/Src/stm32f3xx_hal_uart.c ****   * @retval HAL status
1963:Drivers/STM32F3xx_HAL_Driver/Src/stm32f3xx_hal_uart.c ****   */
1964:Drivers/STM32F3xx_HAL_Driver/Src/stm32f3xx_hal_uart.c **** HAL_StatusTypeDef HAL_HalfDuplex_EnableTransmitter(UART_HandleTypeDef *huart)
1965:Drivers/STM32F3xx_HAL_Driver/Src/stm32f3xx_hal_uart.c **** {
1966:Drivers/STM32F3xx_HAL_Driver/Src/stm32f3xx_hal_uart.c ****   /* Process Locked */
1967:Drivers/STM32F3xx_HAL_Driver/Src/stm32f3xx_hal_uart.c ****   __HAL_LOCK(huart);
1968:Drivers/STM32F3xx_HAL_Driver/Src/stm32f3xx_hal_uart.c ****   huart->gState = HAL_UART_STATE_BUSY;
1969:Drivers/STM32F3xx_HAL_Driver/Src/stm32f3xx_hal_uart.c **** 
1970:Drivers/STM32F3xx_HAL_Driver/Src/stm32f3xx_hal_uart.c ****   /* Clear TE and RE bits */
1971:Drivers/STM32F3xx_HAL_Driver/Src/stm32f3xx_hal_uart.c ****   CLEAR_BIT(huart->Instance->CR1, (USART_CR1_TE | USART_CR1_RE));
1972:Drivers/STM32F3xx_HAL_Driver/Src/stm32f3xx_hal_uart.c ****   /* Enable the USART's transmit interface by setting the TE bit in the USART CR1 register */
1973:Drivers/STM32F3xx_HAL_Driver/Src/stm32f3xx_hal_uart.c ****   SET_BIT(huart->Instance->CR1, USART_CR1_TE);
1974:Drivers/STM32F3xx_HAL_Driver/Src/stm32f3xx_hal_uart.c **** 
1975:Drivers/STM32F3xx_HAL_Driver/Src/stm32f3xx_hal_uart.c ****   huart->gState = HAL_UART_STATE_READY;
1976:Drivers/STM32F3xx_HAL_Driver/Src/stm32f3xx_hal_uart.c **** 
1977:Drivers/STM32F3xx_HAL_Driver/Src/stm32f3xx_hal_uart.c ****   /* Process Unlocked */
1978:Drivers/STM32F3xx_HAL_Driver/Src/stm32f3xx_hal_uart.c ****   __HAL_UNLOCK(huart);
1979:Drivers/STM32F3xx_HAL_Driver/Src/stm32f3xx_hal_uart.c **** 
1980:Drivers/STM32F3xx_HAL_Driver/Src/stm32f3xx_hal_uart.c ****   return HAL_OK;
1981:Drivers/STM32F3xx_HAL_Driver/Src/stm32f3xx_hal_uart.c **** }
1982:Drivers/STM32F3xx_HAL_Driver/Src/stm32f3xx_hal_uart.c **** 
1983:Drivers/STM32F3xx_HAL_Driver/Src/stm32f3xx_hal_uart.c **** /**
1984:Drivers/STM32F3xx_HAL_Driver/Src/stm32f3xx_hal_uart.c ****   * @brief  Enable the UART receiver and disable the UART transmitter.
1985:Drivers/STM32F3xx_HAL_Driver/Src/stm32f3xx_hal_uart.c ****   * @param  huart UART handle.
1986:Drivers/STM32F3xx_HAL_Driver/Src/stm32f3xx_hal_uart.c ****   * @retval HAL status.
1987:Drivers/STM32F3xx_HAL_Driver/Src/stm32f3xx_hal_uart.c ****   */
1988:Drivers/STM32F3xx_HAL_Driver/Src/stm32f3xx_hal_uart.c **** HAL_StatusTypeDef HAL_HalfDuplex_EnableReceiver(UART_HandleTypeDef *huart)
1989:Drivers/STM32F3xx_HAL_Driver/Src/stm32f3xx_hal_uart.c **** {
1990:Drivers/STM32F3xx_HAL_Driver/Src/stm32f3xx_hal_uart.c ****   /* Process Locked */
1991:Drivers/STM32F3xx_HAL_Driver/Src/stm32f3xx_hal_uart.c ****   __HAL_LOCK(huart);
1992:Drivers/STM32F3xx_HAL_Driver/Src/stm32f3xx_hal_uart.c ****   huart->gState = HAL_UART_STATE_BUSY;
1993:Drivers/STM32F3xx_HAL_Driver/Src/stm32f3xx_hal_uart.c **** 
1994:Drivers/STM32F3xx_HAL_Driver/Src/stm32f3xx_hal_uart.c ****   /* Clear TE and RE bits */
1995:Drivers/STM32F3xx_HAL_Driver/Src/stm32f3xx_hal_uart.c ****   CLEAR_BIT(huart->Instance->CR1, (USART_CR1_TE | USART_CR1_RE));
1996:Drivers/STM32F3xx_HAL_Driver/Src/stm32f3xx_hal_uart.c ****   /* Enable the USART's receive interface by setting the RE bit in the USART CR1 register */
1997:Drivers/STM32F3xx_HAL_Driver/Src/stm32f3xx_hal_uart.c ****   SET_BIT(huart->Instance->CR1, USART_CR1_RE);
1998:Drivers/STM32F3xx_HAL_Driver/Src/stm32f3xx_hal_uart.c **** 
1999:Drivers/STM32F3xx_HAL_Driver/Src/stm32f3xx_hal_uart.c ****   huart->gState = HAL_UART_STATE_READY;
2000:Drivers/STM32F3xx_HAL_Driver/Src/stm32f3xx_hal_uart.c ****   /* Process Unlocked */
2001:Drivers/STM32F3xx_HAL_Driver/Src/stm32f3xx_hal_uart.c ****   __HAL_UNLOCK(huart);
2002:Drivers/STM32F3xx_HAL_Driver/Src/stm32f3xx_hal_uart.c **** 
2003:Drivers/STM32F3xx_HAL_Driver/Src/stm32f3xx_hal_uart.c ****   return HAL_OK;
2004:Drivers/STM32F3xx_HAL_Driver/Src/stm32f3xx_hal_uart.c **** }
ARM GAS  /var/folders/8c/gyvcglfx7f97kbqb2h83mm_r0000gn/T//ccv1qdBn.s 			page 55


2005:Drivers/STM32F3xx_HAL_Driver/Src/stm32f3xx_hal_uart.c **** 
2006:Drivers/STM32F3xx_HAL_Driver/Src/stm32f3xx_hal_uart.c **** 
2007:Drivers/STM32F3xx_HAL_Driver/Src/stm32f3xx_hal_uart.c **** /**
2008:Drivers/STM32F3xx_HAL_Driver/Src/stm32f3xx_hal_uart.c ****   * @brief  Transmit break characters.
2009:Drivers/STM32F3xx_HAL_Driver/Src/stm32f3xx_hal_uart.c ****   * @param  huart UART handle.
2010:Drivers/STM32F3xx_HAL_Driver/Src/stm32f3xx_hal_uart.c ****   * @retval HAL status
2011:Drivers/STM32F3xx_HAL_Driver/Src/stm32f3xx_hal_uart.c ****   */
2012:Drivers/STM32F3xx_HAL_Driver/Src/stm32f3xx_hal_uart.c **** HAL_StatusTypeDef HAL_LIN_SendBreak(UART_HandleTypeDef *huart)
2013:Drivers/STM32F3xx_HAL_Driver/Src/stm32f3xx_hal_uart.c **** {
2014:Drivers/STM32F3xx_HAL_Driver/Src/stm32f3xx_hal_uart.c ****   /* Check the parameters */
2015:Drivers/STM32F3xx_HAL_Driver/Src/stm32f3xx_hal_uart.c ****   assert_param(IS_UART_LIN_INSTANCE(huart->Instance));
2016:Drivers/STM32F3xx_HAL_Driver/Src/stm32f3xx_hal_uart.c **** 
2017:Drivers/STM32F3xx_HAL_Driver/Src/stm32f3xx_hal_uart.c ****   /* Process Locked */
2018:Drivers/STM32F3xx_HAL_Driver/Src/stm32f3xx_hal_uart.c ****   __HAL_LOCK(huart);
2019:Drivers/STM32F3xx_HAL_Driver/Src/stm32f3xx_hal_uart.c **** 
2020:Drivers/STM32F3xx_HAL_Driver/Src/stm32f3xx_hal_uart.c ****   huart->gState = HAL_UART_STATE_BUSY;
2021:Drivers/STM32F3xx_HAL_Driver/Src/stm32f3xx_hal_uart.c **** 
2022:Drivers/STM32F3xx_HAL_Driver/Src/stm32f3xx_hal_uart.c ****   /* Send break characters */
2023:Drivers/STM32F3xx_HAL_Driver/Src/stm32f3xx_hal_uart.c ****   huart->Instance->RQR |= UART_SENDBREAK_REQUEST;
2024:Drivers/STM32F3xx_HAL_Driver/Src/stm32f3xx_hal_uart.c **** 
2025:Drivers/STM32F3xx_HAL_Driver/Src/stm32f3xx_hal_uart.c ****   huart->gState = HAL_UART_STATE_READY;
2026:Drivers/STM32F3xx_HAL_Driver/Src/stm32f3xx_hal_uart.c **** 
2027:Drivers/STM32F3xx_HAL_Driver/Src/stm32f3xx_hal_uart.c ****   /* Process Unlocked */
2028:Drivers/STM32F3xx_HAL_Driver/Src/stm32f3xx_hal_uart.c ****   __HAL_UNLOCK(huart);
2029:Drivers/STM32F3xx_HAL_Driver/Src/stm32f3xx_hal_uart.c **** 
2030:Drivers/STM32F3xx_HAL_Driver/Src/stm32f3xx_hal_uart.c ****   return HAL_OK;
2031:Drivers/STM32F3xx_HAL_Driver/Src/stm32f3xx_hal_uart.c **** }
2032:Drivers/STM32F3xx_HAL_Driver/Src/stm32f3xx_hal_uart.c **** 
2033:Drivers/STM32F3xx_HAL_Driver/Src/stm32f3xx_hal_uart.c **** 
2034:Drivers/STM32F3xx_HAL_Driver/Src/stm32f3xx_hal_uart.c **** /**
2035:Drivers/STM32F3xx_HAL_Driver/Src/stm32f3xx_hal_uart.c ****   * @}
2036:Drivers/STM32F3xx_HAL_Driver/Src/stm32f3xx_hal_uart.c ****   */
2037:Drivers/STM32F3xx_HAL_Driver/Src/stm32f3xx_hal_uart.c **** 
2038:Drivers/STM32F3xx_HAL_Driver/Src/stm32f3xx_hal_uart.c **** /** @defgroup UART_Exported_Functions_Group4 Peripheral State and Error functions
2039:Drivers/STM32F3xx_HAL_Driver/Src/stm32f3xx_hal_uart.c ****  *  @brief   UART Peripheral State functions
2040:Drivers/STM32F3xx_HAL_Driver/Src/stm32f3xx_hal_uart.c ****  *
2041:Drivers/STM32F3xx_HAL_Driver/Src/stm32f3xx_hal_uart.c **** @verbatim
2042:Drivers/STM32F3xx_HAL_Driver/Src/stm32f3xx_hal_uart.c ****   ==============================================================================
2043:Drivers/STM32F3xx_HAL_Driver/Src/stm32f3xx_hal_uart.c ****             ##### Peripheral State and Error functions #####
2044:Drivers/STM32F3xx_HAL_Driver/Src/stm32f3xx_hal_uart.c ****   ==============================================================================
2045:Drivers/STM32F3xx_HAL_Driver/Src/stm32f3xx_hal_uart.c ****     [..]
2046:Drivers/STM32F3xx_HAL_Driver/Src/stm32f3xx_hal_uart.c ****     This subsection provides functions allowing to :
2047:Drivers/STM32F3xx_HAL_Driver/Src/stm32f3xx_hal_uart.c ****       (+) Return the UART handle state.
2048:Drivers/STM32F3xx_HAL_Driver/Src/stm32f3xx_hal_uart.c ****       (+) Return the UART handle error code
2049:Drivers/STM32F3xx_HAL_Driver/Src/stm32f3xx_hal_uart.c **** 
2050:Drivers/STM32F3xx_HAL_Driver/Src/stm32f3xx_hal_uart.c **** @endverbatim
2051:Drivers/STM32F3xx_HAL_Driver/Src/stm32f3xx_hal_uart.c ****   * @{
2052:Drivers/STM32F3xx_HAL_Driver/Src/stm32f3xx_hal_uart.c ****   */
2053:Drivers/STM32F3xx_HAL_Driver/Src/stm32f3xx_hal_uart.c **** 
2054:Drivers/STM32F3xx_HAL_Driver/Src/stm32f3xx_hal_uart.c **** /**
2055:Drivers/STM32F3xx_HAL_Driver/Src/stm32f3xx_hal_uart.c ****   * @brief  Return the UART handle state.
2056:Drivers/STM32F3xx_HAL_Driver/Src/stm32f3xx_hal_uart.c ****   * @param  huart Pointer to a UART_HandleTypeDef structure that contains
2057:Drivers/STM32F3xx_HAL_Driver/Src/stm32f3xx_hal_uart.c ****   *               the configuration information for the specified UART.
2058:Drivers/STM32F3xx_HAL_Driver/Src/stm32f3xx_hal_uart.c ****   * @retval HAL state
2059:Drivers/STM32F3xx_HAL_Driver/Src/stm32f3xx_hal_uart.c ****   */
2060:Drivers/STM32F3xx_HAL_Driver/Src/stm32f3xx_hal_uart.c **** HAL_UART_StateTypeDef HAL_UART_GetState(UART_HandleTypeDef *huart)
2061:Drivers/STM32F3xx_HAL_Driver/Src/stm32f3xx_hal_uart.c **** {
ARM GAS  /var/folders/8c/gyvcglfx7f97kbqb2h83mm_r0000gn/T//ccv1qdBn.s 			page 56


2062:Drivers/STM32F3xx_HAL_Driver/Src/stm32f3xx_hal_uart.c ****   uint32_t temp1= 0x00U, temp2 = 0x00U;
2063:Drivers/STM32F3xx_HAL_Driver/Src/stm32f3xx_hal_uart.c ****   temp1 = huart->gState;
2064:Drivers/STM32F3xx_HAL_Driver/Src/stm32f3xx_hal_uart.c ****   temp2 = huart->RxState;
2065:Drivers/STM32F3xx_HAL_Driver/Src/stm32f3xx_hal_uart.c **** 
2066:Drivers/STM32F3xx_HAL_Driver/Src/stm32f3xx_hal_uart.c ****   return (HAL_UART_StateTypeDef)(temp1 | temp2);
2067:Drivers/STM32F3xx_HAL_Driver/Src/stm32f3xx_hal_uart.c **** }
2068:Drivers/STM32F3xx_HAL_Driver/Src/stm32f3xx_hal_uart.c **** 
2069:Drivers/STM32F3xx_HAL_Driver/Src/stm32f3xx_hal_uart.c **** /**
2070:Drivers/STM32F3xx_HAL_Driver/Src/stm32f3xx_hal_uart.c ****   * @brief  Return the UART handle error code.
2071:Drivers/STM32F3xx_HAL_Driver/Src/stm32f3xx_hal_uart.c ****   * @param  huart Pointer to a UART_HandleTypeDef structure that contains
2072:Drivers/STM32F3xx_HAL_Driver/Src/stm32f3xx_hal_uart.c ****   *               the configuration information for the specified UART.
2073:Drivers/STM32F3xx_HAL_Driver/Src/stm32f3xx_hal_uart.c ****   * @retval UART Error Code
2074:Drivers/STM32F3xx_HAL_Driver/Src/stm32f3xx_hal_uart.c ****   */
2075:Drivers/STM32F3xx_HAL_Driver/Src/stm32f3xx_hal_uart.c **** uint32_t HAL_UART_GetError(UART_HandleTypeDef *huart)
2076:Drivers/STM32F3xx_HAL_Driver/Src/stm32f3xx_hal_uart.c **** {
2077:Drivers/STM32F3xx_HAL_Driver/Src/stm32f3xx_hal_uart.c ****   return huart->ErrorCode;
2078:Drivers/STM32F3xx_HAL_Driver/Src/stm32f3xx_hal_uart.c **** }
2079:Drivers/STM32F3xx_HAL_Driver/Src/stm32f3xx_hal_uart.c **** /**
2080:Drivers/STM32F3xx_HAL_Driver/Src/stm32f3xx_hal_uart.c ****   * @}
2081:Drivers/STM32F3xx_HAL_Driver/Src/stm32f3xx_hal_uart.c ****   */
2082:Drivers/STM32F3xx_HAL_Driver/Src/stm32f3xx_hal_uart.c **** 
2083:Drivers/STM32F3xx_HAL_Driver/Src/stm32f3xx_hal_uart.c **** /**
2084:Drivers/STM32F3xx_HAL_Driver/Src/stm32f3xx_hal_uart.c ****   * @}
2085:Drivers/STM32F3xx_HAL_Driver/Src/stm32f3xx_hal_uart.c ****   */
2086:Drivers/STM32F3xx_HAL_Driver/Src/stm32f3xx_hal_uart.c **** 
2087:Drivers/STM32F3xx_HAL_Driver/Src/stm32f3xx_hal_uart.c **** /** @defgroup UART_Private_Functions UART Private Functions
2088:Drivers/STM32F3xx_HAL_Driver/Src/stm32f3xx_hal_uart.c ****   * @{
2089:Drivers/STM32F3xx_HAL_Driver/Src/stm32f3xx_hal_uart.c ****   */
2090:Drivers/STM32F3xx_HAL_Driver/Src/stm32f3xx_hal_uart.c **** 
2091:Drivers/STM32F3xx_HAL_Driver/Src/stm32f3xx_hal_uart.c **** /**
2092:Drivers/STM32F3xx_HAL_Driver/Src/stm32f3xx_hal_uart.c ****   * @brief Configure the UART peripheral.
2093:Drivers/STM32F3xx_HAL_Driver/Src/stm32f3xx_hal_uart.c ****   * @param huart UART handle.
2094:Drivers/STM32F3xx_HAL_Driver/Src/stm32f3xx_hal_uart.c ****   * @retval HAL status
2095:Drivers/STM32F3xx_HAL_Driver/Src/stm32f3xx_hal_uart.c ****   */
2096:Drivers/STM32F3xx_HAL_Driver/Src/stm32f3xx_hal_uart.c **** HAL_StatusTypeDef UART_SetConfig(UART_HandleTypeDef *huart)
2097:Drivers/STM32F3xx_HAL_Driver/Src/stm32f3xx_hal_uart.c **** {
2098:Drivers/STM32F3xx_HAL_Driver/Src/stm32f3xx_hal_uart.c ****   uint32_t tmpreg                     = 0x00000000U;
2099:Drivers/STM32F3xx_HAL_Driver/Src/stm32f3xx_hal_uart.c ****   UART_ClockSourceTypeDef clocksource = UART_CLOCKSOURCE_UNDEFINED;
2100:Drivers/STM32F3xx_HAL_Driver/Src/stm32f3xx_hal_uart.c ****   uint16_t brrtemp                    = 0x0000U;
2101:Drivers/STM32F3xx_HAL_Driver/Src/stm32f3xx_hal_uart.c ****   uint16_t usartdiv                   = 0x0000U;
2102:Drivers/STM32F3xx_HAL_Driver/Src/stm32f3xx_hal_uart.c ****   HAL_StatusTypeDef ret               = HAL_OK;
2103:Drivers/STM32F3xx_HAL_Driver/Src/stm32f3xx_hal_uart.c **** 
2104:Drivers/STM32F3xx_HAL_Driver/Src/stm32f3xx_hal_uart.c ****   /* Check the parameters */
2105:Drivers/STM32F3xx_HAL_Driver/Src/stm32f3xx_hal_uart.c ****   assert_param(IS_UART_BAUDRATE(huart->Init.BaudRate));
2106:Drivers/STM32F3xx_HAL_Driver/Src/stm32f3xx_hal_uart.c ****   assert_param(IS_UART_WORD_LENGTH(huart->Init.WordLength));
2107:Drivers/STM32F3xx_HAL_Driver/Src/stm32f3xx_hal_uart.c ****   assert_param(IS_UART_STOPBITS(huart->Init.StopBits));
2108:Drivers/STM32F3xx_HAL_Driver/Src/stm32f3xx_hal_uart.c ****   assert_param(IS_UART_PARITY(huart->Init.Parity));
2109:Drivers/STM32F3xx_HAL_Driver/Src/stm32f3xx_hal_uart.c ****   assert_param(IS_UART_MODE(huart->Init.Mode));
2110:Drivers/STM32F3xx_HAL_Driver/Src/stm32f3xx_hal_uart.c ****   assert_param(IS_UART_HARDWARE_FLOW_CONTROL(huart->Init.HwFlowCtl));
2111:Drivers/STM32F3xx_HAL_Driver/Src/stm32f3xx_hal_uart.c ****   assert_param(IS_UART_ONE_BIT_SAMPLE(huart->Init.OneBitSampling));
2112:Drivers/STM32F3xx_HAL_Driver/Src/stm32f3xx_hal_uart.c ****   assert_param(IS_UART_OVERSAMPLING(huart->Init.OverSampling));
2113:Drivers/STM32F3xx_HAL_Driver/Src/stm32f3xx_hal_uart.c **** 
2114:Drivers/STM32F3xx_HAL_Driver/Src/stm32f3xx_hal_uart.c **** 
2115:Drivers/STM32F3xx_HAL_Driver/Src/stm32f3xx_hal_uart.c ****   /*-------------------------- USART CR1 Configuration -----------------------*/
2116:Drivers/STM32F3xx_HAL_Driver/Src/stm32f3xx_hal_uart.c ****   /* Clear M, PCE, PS, TE, RE and OVER8 bits and configure
2117:Drivers/STM32F3xx_HAL_Driver/Src/stm32f3xx_hal_uart.c ****    *  the UART Word Length, Parity, Mode and oversampling:
2118:Drivers/STM32F3xx_HAL_Driver/Src/stm32f3xx_hal_uart.c ****    *  set the M bits according to huart->Init.WordLength value
ARM GAS  /var/folders/8c/gyvcglfx7f97kbqb2h83mm_r0000gn/T//ccv1qdBn.s 			page 57


2119:Drivers/STM32F3xx_HAL_Driver/Src/stm32f3xx_hal_uart.c ****    *  set PCE and PS bits according to huart->Init.Parity value
2120:Drivers/STM32F3xx_HAL_Driver/Src/stm32f3xx_hal_uart.c ****    *  set TE and RE bits according to huart->Init.Mode value
2121:Drivers/STM32F3xx_HAL_Driver/Src/stm32f3xx_hal_uart.c ****    *  set OVER8 bit according to huart->Init.OverSampling value */
2122:Drivers/STM32F3xx_HAL_Driver/Src/stm32f3xx_hal_uart.c ****   tmpreg = (uint32_t)huart->Init.WordLength | huart->Init.Parity | huart->Init.Mode | huart->Init.O
2123:Drivers/STM32F3xx_HAL_Driver/Src/stm32f3xx_hal_uart.c ****   MODIFY_REG(huart->Instance->CR1, UART_CR1_FIELDS, tmpreg);
2124:Drivers/STM32F3xx_HAL_Driver/Src/stm32f3xx_hal_uart.c **** 
2125:Drivers/STM32F3xx_HAL_Driver/Src/stm32f3xx_hal_uart.c ****   /*-------------------------- USART CR2 Configuration -----------------------*/
2126:Drivers/STM32F3xx_HAL_Driver/Src/stm32f3xx_hal_uart.c ****   /* Configure the UART Stop Bits: Set STOP[13:12] bits according
2127:Drivers/STM32F3xx_HAL_Driver/Src/stm32f3xx_hal_uart.c ****    * to huart->Init.StopBits value */
2128:Drivers/STM32F3xx_HAL_Driver/Src/stm32f3xx_hal_uart.c ****   MODIFY_REG(huart->Instance->CR2, USART_CR2_STOP, huart->Init.StopBits);
2129:Drivers/STM32F3xx_HAL_Driver/Src/stm32f3xx_hal_uart.c **** 
2130:Drivers/STM32F3xx_HAL_Driver/Src/stm32f3xx_hal_uart.c ****   /*-------------------------- USART CR3 Configuration -----------------------*/
2131:Drivers/STM32F3xx_HAL_Driver/Src/stm32f3xx_hal_uart.c ****   /* Configure
2132:Drivers/STM32F3xx_HAL_Driver/Src/stm32f3xx_hal_uart.c ****    * - UART HardWare Flow Control: set CTSE and RTSE bits according
2133:Drivers/STM32F3xx_HAL_Driver/Src/stm32f3xx_hal_uart.c ****    *   to huart->Init.HwFlowCtl value
2134:Drivers/STM32F3xx_HAL_Driver/Src/stm32f3xx_hal_uart.c ****    * - one-bit sampling method versus three samples' majority rule according
2135:Drivers/STM32F3xx_HAL_Driver/Src/stm32f3xx_hal_uart.c ****    *   to huart->Init.OneBitSampling */
2136:Drivers/STM32F3xx_HAL_Driver/Src/stm32f3xx_hal_uart.c ****   tmpreg = (uint32_t)huart->Init.HwFlowCtl | huart->Init.OneBitSampling ;
2137:Drivers/STM32F3xx_HAL_Driver/Src/stm32f3xx_hal_uart.c ****   MODIFY_REG(huart->Instance->CR3, (USART_CR3_RTSE | USART_CR3_CTSE | USART_CR3_ONEBIT), tmpreg);
2138:Drivers/STM32F3xx_HAL_Driver/Src/stm32f3xx_hal_uart.c **** 
2139:Drivers/STM32F3xx_HAL_Driver/Src/stm32f3xx_hal_uart.c ****   /*-------------------------- USART BRR Configuration -----------------------*/
2140:Drivers/STM32F3xx_HAL_Driver/Src/stm32f3xx_hal_uart.c ****   UART_GETCLOCKSOURCE(huart, clocksource);
2141:Drivers/STM32F3xx_HAL_Driver/Src/stm32f3xx_hal_uart.c **** 
2142:Drivers/STM32F3xx_HAL_Driver/Src/stm32f3xx_hal_uart.c ****   /* Check UART Over Sampling to set Baud Rate Register */
2143:Drivers/STM32F3xx_HAL_Driver/Src/stm32f3xx_hal_uart.c ****   if (huart->Init.OverSampling == UART_OVERSAMPLING_8)
2144:Drivers/STM32F3xx_HAL_Driver/Src/stm32f3xx_hal_uart.c ****   {
2145:Drivers/STM32F3xx_HAL_Driver/Src/stm32f3xx_hal_uart.c ****     switch (clocksource)
2146:Drivers/STM32F3xx_HAL_Driver/Src/stm32f3xx_hal_uart.c ****     {
2147:Drivers/STM32F3xx_HAL_Driver/Src/stm32f3xx_hal_uart.c ****       case UART_CLOCKSOURCE_PCLK1:
2148:Drivers/STM32F3xx_HAL_Driver/Src/stm32f3xx_hal_uart.c ****         usartdiv = (uint16_t)(UART_DIV_SAMPLING8(HAL_RCC_GetPCLK1Freq(), huart->Init.BaudRate));
2149:Drivers/STM32F3xx_HAL_Driver/Src/stm32f3xx_hal_uart.c ****         break;
2150:Drivers/STM32F3xx_HAL_Driver/Src/stm32f3xx_hal_uart.c ****       case UART_CLOCKSOURCE_PCLK2:
2151:Drivers/STM32F3xx_HAL_Driver/Src/stm32f3xx_hal_uart.c ****         usartdiv = (uint16_t)(UART_DIV_SAMPLING8(HAL_RCC_GetPCLK2Freq(), huart->Init.BaudRate));
2152:Drivers/STM32F3xx_HAL_Driver/Src/stm32f3xx_hal_uart.c ****         break;
2153:Drivers/STM32F3xx_HAL_Driver/Src/stm32f3xx_hal_uart.c ****       case UART_CLOCKSOURCE_HSI:
2154:Drivers/STM32F3xx_HAL_Driver/Src/stm32f3xx_hal_uart.c ****         usartdiv = (uint16_t)(UART_DIV_SAMPLING8(HSI_VALUE, huart->Init.BaudRate));
2155:Drivers/STM32F3xx_HAL_Driver/Src/stm32f3xx_hal_uart.c ****         break;
2156:Drivers/STM32F3xx_HAL_Driver/Src/stm32f3xx_hal_uart.c ****       case UART_CLOCKSOURCE_SYSCLK:
2157:Drivers/STM32F3xx_HAL_Driver/Src/stm32f3xx_hal_uart.c ****         usartdiv = (uint16_t)(UART_DIV_SAMPLING8(HAL_RCC_GetSysClockFreq(), huart->Init.BaudRate));
2158:Drivers/STM32F3xx_HAL_Driver/Src/stm32f3xx_hal_uart.c ****         break;
2159:Drivers/STM32F3xx_HAL_Driver/Src/stm32f3xx_hal_uart.c ****       case UART_CLOCKSOURCE_LSE:
2160:Drivers/STM32F3xx_HAL_Driver/Src/stm32f3xx_hal_uart.c ****         usartdiv = (uint16_t)(UART_DIV_SAMPLING8(LSE_VALUE, huart->Init.BaudRate));
2161:Drivers/STM32F3xx_HAL_Driver/Src/stm32f3xx_hal_uart.c ****         break;
2162:Drivers/STM32F3xx_HAL_Driver/Src/stm32f3xx_hal_uart.c ****       case UART_CLOCKSOURCE_UNDEFINED:
2163:Drivers/STM32F3xx_HAL_Driver/Src/stm32f3xx_hal_uart.c ****       default:
2164:Drivers/STM32F3xx_HAL_Driver/Src/stm32f3xx_hal_uart.c ****         ret = HAL_ERROR;
2165:Drivers/STM32F3xx_HAL_Driver/Src/stm32f3xx_hal_uart.c ****         break;
2166:Drivers/STM32F3xx_HAL_Driver/Src/stm32f3xx_hal_uart.c ****     }
2167:Drivers/STM32F3xx_HAL_Driver/Src/stm32f3xx_hal_uart.c **** 
2168:Drivers/STM32F3xx_HAL_Driver/Src/stm32f3xx_hal_uart.c ****     brrtemp = usartdiv & 0xFFF0U;
2169:Drivers/STM32F3xx_HAL_Driver/Src/stm32f3xx_hal_uart.c ****     brrtemp |= (uint16_t)((usartdiv & (uint16_t)0x000FU) >> 1U);
2170:Drivers/STM32F3xx_HAL_Driver/Src/stm32f3xx_hal_uart.c ****     huart->Instance->BRR = brrtemp;
2171:Drivers/STM32F3xx_HAL_Driver/Src/stm32f3xx_hal_uart.c ****   }
2172:Drivers/STM32F3xx_HAL_Driver/Src/stm32f3xx_hal_uart.c ****   else
2173:Drivers/STM32F3xx_HAL_Driver/Src/stm32f3xx_hal_uart.c ****   {
2174:Drivers/STM32F3xx_HAL_Driver/Src/stm32f3xx_hal_uart.c ****     switch (clocksource)
2175:Drivers/STM32F3xx_HAL_Driver/Src/stm32f3xx_hal_uart.c ****     {
ARM GAS  /var/folders/8c/gyvcglfx7f97kbqb2h83mm_r0000gn/T//ccv1qdBn.s 			page 58


2176:Drivers/STM32F3xx_HAL_Driver/Src/stm32f3xx_hal_uart.c ****       case UART_CLOCKSOURCE_PCLK1:
2177:Drivers/STM32F3xx_HAL_Driver/Src/stm32f3xx_hal_uart.c ****         huart->Instance->BRR = (uint16_t)(UART_DIV_SAMPLING16(HAL_RCC_GetPCLK1Freq(), huart->Init.B
2178:Drivers/STM32F3xx_HAL_Driver/Src/stm32f3xx_hal_uart.c ****         break;
2179:Drivers/STM32F3xx_HAL_Driver/Src/stm32f3xx_hal_uart.c ****       case UART_CLOCKSOURCE_PCLK2:
2180:Drivers/STM32F3xx_HAL_Driver/Src/stm32f3xx_hal_uart.c ****         huart->Instance->BRR = (uint16_t)(UART_DIV_SAMPLING16(HAL_RCC_GetPCLK2Freq(), huart->Init.B
2181:Drivers/STM32F3xx_HAL_Driver/Src/stm32f3xx_hal_uart.c ****         break;
2182:Drivers/STM32F3xx_HAL_Driver/Src/stm32f3xx_hal_uart.c ****       case UART_CLOCKSOURCE_HSI:
2183:Drivers/STM32F3xx_HAL_Driver/Src/stm32f3xx_hal_uart.c ****         huart->Instance->BRR = (uint16_t)(UART_DIV_SAMPLING16(HSI_VALUE, huart->Init.BaudRate));
2184:Drivers/STM32F3xx_HAL_Driver/Src/stm32f3xx_hal_uart.c ****         break;
2185:Drivers/STM32F3xx_HAL_Driver/Src/stm32f3xx_hal_uart.c ****       case UART_CLOCKSOURCE_SYSCLK:
2186:Drivers/STM32F3xx_HAL_Driver/Src/stm32f3xx_hal_uart.c ****         huart->Instance->BRR = (uint16_t)(UART_DIV_SAMPLING16(HAL_RCC_GetSysClockFreq(), huart->Ini
2187:Drivers/STM32F3xx_HAL_Driver/Src/stm32f3xx_hal_uart.c ****         break;
2188:Drivers/STM32F3xx_HAL_Driver/Src/stm32f3xx_hal_uart.c ****       case UART_CLOCKSOURCE_LSE:
2189:Drivers/STM32F3xx_HAL_Driver/Src/stm32f3xx_hal_uart.c ****         huart->Instance->BRR = (uint16_t)(UART_DIV_SAMPLING16(LSE_VALUE, huart->Init.BaudRate));
2190:Drivers/STM32F3xx_HAL_Driver/Src/stm32f3xx_hal_uart.c ****         break;
2191:Drivers/STM32F3xx_HAL_Driver/Src/stm32f3xx_hal_uart.c ****       case UART_CLOCKSOURCE_UNDEFINED:
2192:Drivers/STM32F3xx_HAL_Driver/Src/stm32f3xx_hal_uart.c ****       default:
2193:Drivers/STM32F3xx_HAL_Driver/Src/stm32f3xx_hal_uart.c ****         ret = HAL_ERROR;
2194:Drivers/STM32F3xx_HAL_Driver/Src/stm32f3xx_hal_uart.c ****         break;
2195:Drivers/STM32F3xx_HAL_Driver/Src/stm32f3xx_hal_uart.c ****     }
2196:Drivers/STM32F3xx_HAL_Driver/Src/stm32f3xx_hal_uart.c ****   }
2197:Drivers/STM32F3xx_HAL_Driver/Src/stm32f3xx_hal_uart.c **** 
2198:Drivers/STM32F3xx_HAL_Driver/Src/stm32f3xx_hal_uart.c ****   return ret;
2199:Drivers/STM32F3xx_HAL_Driver/Src/stm32f3xx_hal_uart.c **** 
2200:Drivers/STM32F3xx_HAL_Driver/Src/stm32f3xx_hal_uart.c **** }
2201:Drivers/STM32F3xx_HAL_Driver/Src/stm32f3xx_hal_uart.c **** 
2202:Drivers/STM32F3xx_HAL_Driver/Src/stm32f3xx_hal_uart.c **** /**
2203:Drivers/STM32F3xx_HAL_Driver/Src/stm32f3xx_hal_uart.c ****   * @brief Configure the UART peripheral advanced features.
2204:Drivers/STM32F3xx_HAL_Driver/Src/stm32f3xx_hal_uart.c ****   * @param huart UART handle.
2205:Drivers/STM32F3xx_HAL_Driver/Src/stm32f3xx_hal_uart.c ****   * @retval None
2206:Drivers/STM32F3xx_HAL_Driver/Src/stm32f3xx_hal_uart.c ****   */
2207:Drivers/STM32F3xx_HAL_Driver/Src/stm32f3xx_hal_uart.c **** void UART_AdvFeatureConfig(UART_HandleTypeDef *huart)
2208:Drivers/STM32F3xx_HAL_Driver/Src/stm32f3xx_hal_uart.c **** {
2209:Drivers/STM32F3xx_HAL_Driver/Src/stm32f3xx_hal_uart.c ****   /* Check whether the set of advanced features to configure is properly set */
2210:Drivers/STM32F3xx_HAL_Driver/Src/stm32f3xx_hal_uart.c ****   assert_param(IS_UART_ADVFEATURE_INIT(huart->AdvancedInit.AdvFeatureInit));
2211:Drivers/STM32F3xx_HAL_Driver/Src/stm32f3xx_hal_uart.c **** 
2212:Drivers/STM32F3xx_HAL_Driver/Src/stm32f3xx_hal_uart.c ****   /* if required, configure TX pin active level inversion */
2213:Drivers/STM32F3xx_HAL_Driver/Src/stm32f3xx_hal_uart.c ****   if(HAL_IS_BIT_SET(huart->AdvancedInit.AdvFeatureInit, UART_ADVFEATURE_TXINVERT_INIT))
2214:Drivers/STM32F3xx_HAL_Driver/Src/stm32f3xx_hal_uart.c ****   {
2215:Drivers/STM32F3xx_HAL_Driver/Src/stm32f3xx_hal_uart.c ****     assert_param(IS_UART_ADVFEATURE_TXINV(huart->AdvancedInit.TxPinLevelInvert));
2216:Drivers/STM32F3xx_HAL_Driver/Src/stm32f3xx_hal_uart.c ****     MODIFY_REG(huart->Instance->CR2, USART_CR2_TXINV, huart->AdvancedInit.TxPinLevelInvert);
2217:Drivers/STM32F3xx_HAL_Driver/Src/stm32f3xx_hal_uart.c ****   }
2218:Drivers/STM32F3xx_HAL_Driver/Src/stm32f3xx_hal_uart.c **** 
2219:Drivers/STM32F3xx_HAL_Driver/Src/stm32f3xx_hal_uart.c ****   /* if required, configure RX pin active level inversion */
2220:Drivers/STM32F3xx_HAL_Driver/Src/stm32f3xx_hal_uart.c ****   if(HAL_IS_BIT_SET(huart->AdvancedInit.AdvFeatureInit, UART_ADVFEATURE_RXINVERT_INIT))
2221:Drivers/STM32F3xx_HAL_Driver/Src/stm32f3xx_hal_uart.c ****   {
2222:Drivers/STM32F3xx_HAL_Driver/Src/stm32f3xx_hal_uart.c ****     assert_param(IS_UART_ADVFEATURE_RXINV(huart->AdvancedInit.RxPinLevelInvert));
2223:Drivers/STM32F3xx_HAL_Driver/Src/stm32f3xx_hal_uart.c ****     MODIFY_REG(huart->Instance->CR2, USART_CR2_RXINV, huart->AdvancedInit.RxPinLevelInvert);
2224:Drivers/STM32F3xx_HAL_Driver/Src/stm32f3xx_hal_uart.c ****   }
2225:Drivers/STM32F3xx_HAL_Driver/Src/stm32f3xx_hal_uart.c **** 
2226:Drivers/STM32F3xx_HAL_Driver/Src/stm32f3xx_hal_uart.c ****   /* if required, configure data inversion */
2227:Drivers/STM32F3xx_HAL_Driver/Src/stm32f3xx_hal_uart.c ****   if(HAL_IS_BIT_SET(huart->AdvancedInit.AdvFeatureInit, UART_ADVFEATURE_DATAINVERT_INIT))
2228:Drivers/STM32F3xx_HAL_Driver/Src/stm32f3xx_hal_uart.c ****   {
2229:Drivers/STM32F3xx_HAL_Driver/Src/stm32f3xx_hal_uart.c ****     assert_param(IS_UART_ADVFEATURE_DATAINV(huart->AdvancedInit.DataInvert));
2230:Drivers/STM32F3xx_HAL_Driver/Src/stm32f3xx_hal_uart.c ****     MODIFY_REG(huart->Instance->CR2, USART_CR2_DATAINV, huart->AdvancedInit.DataInvert);
2231:Drivers/STM32F3xx_HAL_Driver/Src/stm32f3xx_hal_uart.c ****   }
2232:Drivers/STM32F3xx_HAL_Driver/Src/stm32f3xx_hal_uart.c **** 
ARM GAS  /var/folders/8c/gyvcglfx7f97kbqb2h83mm_r0000gn/T//ccv1qdBn.s 			page 59


2233:Drivers/STM32F3xx_HAL_Driver/Src/stm32f3xx_hal_uart.c ****   /* if required, configure RX/TX pins swap */
2234:Drivers/STM32F3xx_HAL_Driver/Src/stm32f3xx_hal_uart.c ****   if(HAL_IS_BIT_SET(huart->AdvancedInit.AdvFeatureInit, UART_ADVFEATURE_SWAP_INIT))
2235:Drivers/STM32F3xx_HAL_Driver/Src/stm32f3xx_hal_uart.c ****   {
2236:Drivers/STM32F3xx_HAL_Driver/Src/stm32f3xx_hal_uart.c ****     assert_param(IS_UART_ADVFEATURE_SWAP(huart->AdvancedInit.Swap));
2237:Drivers/STM32F3xx_HAL_Driver/Src/stm32f3xx_hal_uart.c ****     MODIFY_REG(huart->Instance->CR2, USART_CR2_SWAP, huart->AdvancedInit.Swap);
2238:Drivers/STM32F3xx_HAL_Driver/Src/stm32f3xx_hal_uart.c ****   }
2239:Drivers/STM32F3xx_HAL_Driver/Src/stm32f3xx_hal_uart.c **** 
2240:Drivers/STM32F3xx_HAL_Driver/Src/stm32f3xx_hal_uart.c ****   /* if required, configure RX overrun detection disabling */
2241:Drivers/STM32F3xx_HAL_Driver/Src/stm32f3xx_hal_uart.c ****   if(HAL_IS_BIT_SET(huart->AdvancedInit.AdvFeatureInit, UART_ADVFEATURE_RXOVERRUNDISABLE_INIT))
2242:Drivers/STM32F3xx_HAL_Driver/Src/stm32f3xx_hal_uart.c ****   {
2243:Drivers/STM32F3xx_HAL_Driver/Src/stm32f3xx_hal_uart.c ****     assert_param(IS_UART_OVERRUN(huart->AdvancedInit.OverrunDisable));
2244:Drivers/STM32F3xx_HAL_Driver/Src/stm32f3xx_hal_uart.c ****     MODIFY_REG(huart->Instance->CR3, USART_CR3_OVRDIS, huart->AdvancedInit.OverrunDisable);
2245:Drivers/STM32F3xx_HAL_Driver/Src/stm32f3xx_hal_uart.c ****   }
2246:Drivers/STM32F3xx_HAL_Driver/Src/stm32f3xx_hal_uart.c **** 
2247:Drivers/STM32F3xx_HAL_Driver/Src/stm32f3xx_hal_uart.c ****   /* if required, configure DMA disabling on reception error */
2248:Drivers/STM32F3xx_HAL_Driver/Src/stm32f3xx_hal_uart.c ****   if(HAL_IS_BIT_SET(huart->AdvancedInit.AdvFeatureInit, UART_ADVFEATURE_DMADISABLEONERROR_INIT))
2249:Drivers/STM32F3xx_HAL_Driver/Src/stm32f3xx_hal_uart.c ****   {
2250:Drivers/STM32F3xx_HAL_Driver/Src/stm32f3xx_hal_uart.c ****     assert_param(IS_UART_ADVFEATURE_DMAONRXERROR(huart->AdvancedInit.DMADisableonRxError));
2251:Drivers/STM32F3xx_HAL_Driver/Src/stm32f3xx_hal_uart.c ****     MODIFY_REG(huart->Instance->CR3, USART_CR3_DDRE, huart->AdvancedInit.DMADisableonRxError);
2252:Drivers/STM32F3xx_HAL_Driver/Src/stm32f3xx_hal_uart.c ****   }
2253:Drivers/STM32F3xx_HAL_Driver/Src/stm32f3xx_hal_uart.c **** 
2254:Drivers/STM32F3xx_HAL_Driver/Src/stm32f3xx_hal_uart.c ****   /* if required, configure auto Baud rate detection scheme */
2255:Drivers/STM32F3xx_HAL_Driver/Src/stm32f3xx_hal_uart.c ****   if(HAL_IS_BIT_SET(huart->AdvancedInit.AdvFeatureInit, UART_ADVFEATURE_AUTOBAUDRATE_INIT))
2256:Drivers/STM32F3xx_HAL_Driver/Src/stm32f3xx_hal_uart.c ****   {
2257:Drivers/STM32F3xx_HAL_Driver/Src/stm32f3xx_hal_uart.c ****     assert_param(IS_USART_AUTOBAUDRATE_DETECTION_INSTANCE(huart->Instance));
2258:Drivers/STM32F3xx_HAL_Driver/Src/stm32f3xx_hal_uart.c ****     assert_param(IS_UART_ADVFEATURE_AUTOBAUDRATE(huart->AdvancedInit.AutoBaudRateEnable));
2259:Drivers/STM32F3xx_HAL_Driver/Src/stm32f3xx_hal_uart.c ****     MODIFY_REG(huart->Instance->CR2, USART_CR2_ABREN, huart->AdvancedInit.AutoBaudRateEnable);
2260:Drivers/STM32F3xx_HAL_Driver/Src/stm32f3xx_hal_uart.c ****     /* set auto Baudrate detection parameters if detection is enabled */
2261:Drivers/STM32F3xx_HAL_Driver/Src/stm32f3xx_hal_uart.c ****     if(huart->AdvancedInit.AutoBaudRateEnable == UART_ADVFEATURE_AUTOBAUDRATE_ENABLE)
2262:Drivers/STM32F3xx_HAL_Driver/Src/stm32f3xx_hal_uart.c ****     {
2263:Drivers/STM32F3xx_HAL_Driver/Src/stm32f3xx_hal_uart.c ****       assert_param(IS_UART_ADVFEATURE_AUTOBAUDRATEMODE(huart->AdvancedInit.AutoBaudRateMode));
2264:Drivers/STM32F3xx_HAL_Driver/Src/stm32f3xx_hal_uart.c ****       MODIFY_REG(huart->Instance->CR2, USART_CR2_ABRMODE, huart->AdvancedInit.AutoBaudRateMode);
2265:Drivers/STM32F3xx_HAL_Driver/Src/stm32f3xx_hal_uart.c ****     }
2266:Drivers/STM32F3xx_HAL_Driver/Src/stm32f3xx_hal_uart.c ****   }
2267:Drivers/STM32F3xx_HAL_Driver/Src/stm32f3xx_hal_uart.c **** 
2268:Drivers/STM32F3xx_HAL_Driver/Src/stm32f3xx_hal_uart.c ****   /* if required, configure MSB first on communication line */
2269:Drivers/STM32F3xx_HAL_Driver/Src/stm32f3xx_hal_uart.c ****   if(HAL_IS_BIT_SET(huart->AdvancedInit.AdvFeatureInit, UART_ADVFEATURE_MSBFIRST_INIT))
2270:Drivers/STM32F3xx_HAL_Driver/Src/stm32f3xx_hal_uart.c ****   {
2271:Drivers/STM32F3xx_HAL_Driver/Src/stm32f3xx_hal_uart.c ****     assert_param(IS_UART_ADVFEATURE_MSBFIRST(huart->AdvancedInit.MSBFirst));
2272:Drivers/STM32F3xx_HAL_Driver/Src/stm32f3xx_hal_uart.c ****     MODIFY_REG(huart->Instance->CR2, USART_CR2_MSBFIRST, huart->AdvancedInit.MSBFirst);
2273:Drivers/STM32F3xx_HAL_Driver/Src/stm32f3xx_hal_uart.c ****   }
2274:Drivers/STM32F3xx_HAL_Driver/Src/stm32f3xx_hal_uart.c **** }
2275:Drivers/STM32F3xx_HAL_Driver/Src/stm32f3xx_hal_uart.c **** 
2276:Drivers/STM32F3xx_HAL_Driver/Src/stm32f3xx_hal_uart.c **** /**
2277:Drivers/STM32F3xx_HAL_Driver/Src/stm32f3xx_hal_uart.c ****   * @brief Check the UART Idle State.
2278:Drivers/STM32F3xx_HAL_Driver/Src/stm32f3xx_hal_uart.c ****   * @param huart UART handle.
2279:Drivers/STM32F3xx_HAL_Driver/Src/stm32f3xx_hal_uart.c ****   * @retval HAL status
2280:Drivers/STM32F3xx_HAL_Driver/Src/stm32f3xx_hal_uart.c ****   */
2281:Drivers/STM32F3xx_HAL_Driver/Src/stm32f3xx_hal_uart.c **** HAL_StatusTypeDef UART_CheckIdleState(UART_HandleTypeDef *huart)
2282:Drivers/STM32F3xx_HAL_Driver/Src/stm32f3xx_hal_uart.c **** {
2283:Drivers/STM32F3xx_HAL_Driver/Src/stm32f3xx_hal_uart.c ****   uint32_t tickstart = 0U;
2284:Drivers/STM32F3xx_HAL_Driver/Src/stm32f3xx_hal_uart.c **** 
2285:Drivers/STM32F3xx_HAL_Driver/Src/stm32f3xx_hal_uart.c ****   /* Initialize the UART ErrorCode */
2286:Drivers/STM32F3xx_HAL_Driver/Src/stm32f3xx_hal_uart.c ****   huart->ErrorCode = HAL_UART_ERROR_NONE;
2287:Drivers/STM32F3xx_HAL_Driver/Src/stm32f3xx_hal_uart.c **** 
2288:Drivers/STM32F3xx_HAL_Driver/Src/stm32f3xx_hal_uart.c ****   /* Init tickstart for timeout managment*/
2289:Drivers/STM32F3xx_HAL_Driver/Src/stm32f3xx_hal_uart.c ****   tickstart = HAL_GetTick();
ARM GAS  /var/folders/8c/gyvcglfx7f97kbqb2h83mm_r0000gn/T//ccv1qdBn.s 			page 60


2290:Drivers/STM32F3xx_HAL_Driver/Src/stm32f3xx_hal_uart.c **** 
2291:Drivers/STM32F3xx_HAL_Driver/Src/stm32f3xx_hal_uart.c ****   /* Check if the Transmitter is enabled */
2292:Drivers/STM32F3xx_HAL_Driver/Src/stm32f3xx_hal_uart.c ****   if((huart->Instance->CR1 & USART_CR1_TE) == USART_CR1_TE)
2293:Drivers/STM32F3xx_HAL_Driver/Src/stm32f3xx_hal_uart.c ****   {
2294:Drivers/STM32F3xx_HAL_Driver/Src/stm32f3xx_hal_uart.c ****     /* Wait until TEACK flag is set */
2295:Drivers/STM32F3xx_HAL_Driver/Src/stm32f3xx_hal_uart.c ****     if(UART_WaitOnFlagUntilTimeout(huart, USART_ISR_TEACK, RESET, tickstart, HAL_UART_TIMEOUT_VALUE
2296:Drivers/STM32F3xx_HAL_Driver/Src/stm32f3xx_hal_uart.c ****     {
2297:Drivers/STM32F3xx_HAL_Driver/Src/stm32f3xx_hal_uart.c ****       /* Timeout Occured */
2298:Drivers/STM32F3xx_HAL_Driver/Src/stm32f3xx_hal_uart.c ****       return HAL_TIMEOUT;
2299:Drivers/STM32F3xx_HAL_Driver/Src/stm32f3xx_hal_uart.c ****     }
2300:Drivers/STM32F3xx_HAL_Driver/Src/stm32f3xx_hal_uart.c ****   }
2301:Drivers/STM32F3xx_HAL_Driver/Src/stm32f3xx_hal_uart.c ****   /* Check if the Receiver is enabled */
2302:Drivers/STM32F3xx_HAL_Driver/Src/stm32f3xx_hal_uart.c ****   if((huart->Instance->CR1 & USART_CR1_RE) == USART_CR1_RE)
2303:Drivers/STM32F3xx_HAL_Driver/Src/stm32f3xx_hal_uart.c ****   {
2304:Drivers/STM32F3xx_HAL_Driver/Src/stm32f3xx_hal_uart.c ****     /* Wait until REACK flag is set */
2305:Drivers/STM32F3xx_HAL_Driver/Src/stm32f3xx_hal_uart.c ****     if(UART_WaitOnFlagUntilTimeout(huart, USART_ISR_REACK, RESET, tickstart, HAL_UART_TIMEOUT_VALUE
2306:Drivers/STM32F3xx_HAL_Driver/Src/stm32f3xx_hal_uart.c ****     {
2307:Drivers/STM32F3xx_HAL_Driver/Src/stm32f3xx_hal_uart.c ****       /* Timeout Occured */
2308:Drivers/STM32F3xx_HAL_Driver/Src/stm32f3xx_hal_uart.c ****       return HAL_TIMEOUT;
2309:Drivers/STM32F3xx_HAL_Driver/Src/stm32f3xx_hal_uart.c ****     }
2310:Drivers/STM32F3xx_HAL_Driver/Src/stm32f3xx_hal_uart.c ****   }
2311:Drivers/STM32F3xx_HAL_Driver/Src/stm32f3xx_hal_uart.c **** 
2312:Drivers/STM32F3xx_HAL_Driver/Src/stm32f3xx_hal_uart.c ****   /* Initialize the UART State */
2313:Drivers/STM32F3xx_HAL_Driver/Src/stm32f3xx_hal_uart.c ****   huart->gState  = HAL_UART_STATE_READY;
2314:Drivers/STM32F3xx_HAL_Driver/Src/stm32f3xx_hal_uart.c ****   huart->RxState = HAL_UART_STATE_READY;
2315:Drivers/STM32F3xx_HAL_Driver/Src/stm32f3xx_hal_uart.c **** 
2316:Drivers/STM32F3xx_HAL_Driver/Src/stm32f3xx_hal_uart.c ****   /* Process Unlocked */
2317:Drivers/STM32F3xx_HAL_Driver/Src/stm32f3xx_hal_uart.c ****   __HAL_UNLOCK(huart);
2318:Drivers/STM32F3xx_HAL_Driver/Src/stm32f3xx_hal_uart.c **** 
2319:Drivers/STM32F3xx_HAL_Driver/Src/stm32f3xx_hal_uart.c ****   return HAL_OK;
2320:Drivers/STM32F3xx_HAL_Driver/Src/stm32f3xx_hal_uart.c **** }
2321:Drivers/STM32F3xx_HAL_Driver/Src/stm32f3xx_hal_uart.c **** 
2322:Drivers/STM32F3xx_HAL_Driver/Src/stm32f3xx_hal_uart.c **** /**
2323:Drivers/STM32F3xx_HAL_Driver/Src/stm32f3xx_hal_uart.c ****   * @brief  Handle UART Communication Timeout.
2324:Drivers/STM32F3xx_HAL_Driver/Src/stm32f3xx_hal_uart.c ****   * @param  huart UART handle.
2325:Drivers/STM32F3xx_HAL_Driver/Src/stm32f3xx_hal_uart.c ****   * @param  Flag Specifies the UART flag to check
2326:Drivers/STM32F3xx_HAL_Driver/Src/stm32f3xx_hal_uart.c ****   * @param  Status Flag status (SET or RESET)
2327:Drivers/STM32F3xx_HAL_Driver/Src/stm32f3xx_hal_uart.c ****   * @param  Tickstart Tick start value
2328:Drivers/STM32F3xx_HAL_Driver/Src/stm32f3xx_hal_uart.c ****   * @param  Timeout Timeout duration
2329:Drivers/STM32F3xx_HAL_Driver/Src/stm32f3xx_hal_uart.c ****   * @retval HAL status
2330:Drivers/STM32F3xx_HAL_Driver/Src/stm32f3xx_hal_uart.c ****   */
2331:Drivers/STM32F3xx_HAL_Driver/Src/stm32f3xx_hal_uart.c **** HAL_StatusTypeDef UART_WaitOnFlagUntilTimeout(UART_HandleTypeDef *huart, uint32_t Flag, FlagStatus 
2332:Drivers/STM32F3xx_HAL_Driver/Src/stm32f3xx_hal_uart.c **** {
2333:Drivers/STM32F3xx_HAL_Driver/Src/stm32f3xx_hal_uart.c ****   /* Wait until flag is set */
2334:Drivers/STM32F3xx_HAL_Driver/Src/stm32f3xx_hal_uart.c ****   while((__HAL_UART_GET_FLAG(huart, Flag) ? SET : RESET) == Status)
2335:Drivers/STM32F3xx_HAL_Driver/Src/stm32f3xx_hal_uart.c ****   {
2336:Drivers/STM32F3xx_HAL_Driver/Src/stm32f3xx_hal_uart.c ****     /* Check for the Timeout */
2337:Drivers/STM32F3xx_HAL_Driver/Src/stm32f3xx_hal_uart.c ****     if(Timeout != HAL_MAX_DELAY)
2338:Drivers/STM32F3xx_HAL_Driver/Src/stm32f3xx_hal_uart.c ****     {
2339:Drivers/STM32F3xx_HAL_Driver/Src/stm32f3xx_hal_uart.c ****       if((Timeout == 0U) || ((HAL_GetTick()-Tickstart) > Timeout))
2340:Drivers/STM32F3xx_HAL_Driver/Src/stm32f3xx_hal_uart.c ****       {
2341:Drivers/STM32F3xx_HAL_Driver/Src/stm32f3xx_hal_uart.c ****         /* Disable TXE, RXNE, PE and ERR (Frame error, noise error, overrun error) interrupts for t
2342:Drivers/STM32F3xx_HAL_Driver/Src/stm32f3xx_hal_uart.c ****         CLEAR_BIT(huart->Instance->CR1, (USART_CR1_RXNEIE | USART_CR1_PEIE | USART_CR1_TXEIE));
2343:Drivers/STM32F3xx_HAL_Driver/Src/stm32f3xx_hal_uart.c ****         CLEAR_BIT(huart->Instance->CR3, USART_CR3_EIE);
2344:Drivers/STM32F3xx_HAL_Driver/Src/stm32f3xx_hal_uart.c **** 
2345:Drivers/STM32F3xx_HAL_Driver/Src/stm32f3xx_hal_uart.c ****         huart->gState  = HAL_UART_STATE_READY;
2346:Drivers/STM32F3xx_HAL_Driver/Src/stm32f3xx_hal_uart.c ****         huart->RxState = HAL_UART_STATE_READY;
ARM GAS  /var/folders/8c/gyvcglfx7f97kbqb2h83mm_r0000gn/T//ccv1qdBn.s 			page 61


2347:Drivers/STM32F3xx_HAL_Driver/Src/stm32f3xx_hal_uart.c **** 
2348:Drivers/STM32F3xx_HAL_Driver/Src/stm32f3xx_hal_uart.c ****         /* Process Unlocked */
2349:Drivers/STM32F3xx_HAL_Driver/Src/stm32f3xx_hal_uart.c ****         __HAL_UNLOCK(huart);
2350:Drivers/STM32F3xx_HAL_Driver/Src/stm32f3xx_hal_uart.c ****         return HAL_TIMEOUT;
2351:Drivers/STM32F3xx_HAL_Driver/Src/stm32f3xx_hal_uart.c ****       }
2352:Drivers/STM32F3xx_HAL_Driver/Src/stm32f3xx_hal_uart.c ****     }
2353:Drivers/STM32F3xx_HAL_Driver/Src/stm32f3xx_hal_uart.c ****   }
2354:Drivers/STM32F3xx_HAL_Driver/Src/stm32f3xx_hal_uart.c ****   return HAL_OK;
2355:Drivers/STM32F3xx_HAL_Driver/Src/stm32f3xx_hal_uart.c **** }
2356:Drivers/STM32F3xx_HAL_Driver/Src/stm32f3xx_hal_uart.c **** 
2357:Drivers/STM32F3xx_HAL_Driver/Src/stm32f3xx_hal_uart.c **** 
2358:Drivers/STM32F3xx_HAL_Driver/Src/stm32f3xx_hal_uart.c **** /**
2359:Drivers/STM32F3xx_HAL_Driver/Src/stm32f3xx_hal_uart.c ****   * @brief  End ongoing Tx transfer on UART peripheral (following error detection or Transmit compl
2360:Drivers/STM32F3xx_HAL_Driver/Src/stm32f3xx_hal_uart.c ****   * @param  huart UART handle.
2361:Drivers/STM32F3xx_HAL_Driver/Src/stm32f3xx_hal_uart.c ****   * @retval None
2362:Drivers/STM32F3xx_HAL_Driver/Src/stm32f3xx_hal_uart.c ****   */
2363:Drivers/STM32F3xx_HAL_Driver/Src/stm32f3xx_hal_uart.c **** static void UART_EndTxTransfer(UART_HandleTypeDef *huart)
 938              		.loc 1 2363 13 view .LVU311
 939              	.LBB15:
2364:Drivers/STM32F3xx_HAL_Driver/Src/stm32f3xx_hal_uart.c **** {
2365:Drivers/STM32F3xx_HAL_Driver/Src/stm32f3xx_hal_uart.c ****   /* Disable TXEIE and TCIE interrupts */
2366:Drivers/STM32F3xx_HAL_Driver/Src/stm32f3xx_hal_uart.c ****   CLEAR_BIT(huart->Instance->CR1, (USART_CR1_TXEIE | USART_CR1_TCIE));
 940              		.loc 1 2366 3 view .LVU312
 941 0032 1A68     		ldr	r2, [r3]
2367:Drivers/STM32F3xx_HAL_Driver/Src/stm32f3xx_hal_uart.c **** 
2368:Drivers/STM32F3xx_HAL_Driver/Src/stm32f3xx_hal_uart.c ****   /* At end of Tx process, restore huart->gState to Ready */
2369:Drivers/STM32F3xx_HAL_Driver/Src/stm32f3xx_hal_uart.c ****   huart->gState = HAL_UART_STATE_READY;
 942              		.loc 1 2369 17 is_stmt 0 view .LVU313
 943 0034 2021     		movs	r1, #32
2366:Drivers/STM32F3xx_HAL_Driver/Src/stm32f3xx_hal_uart.c **** 
 944              		.loc 1 2366 3 view .LVU314
 945 0036 22F0C002 		bic	r2, r2, #192
 946 003a 1A60     		str	r2, [r3]
 947              		.loc 1 2369 3 is_stmt 1 view .LVU315
 948              		.loc 1 2369 17 is_stmt 0 view .LVU316
 949 003c 84F86910 		strb	r1, [r4, #105]
 950              	.LBE15:
 951              	.LBE14:
1177:Drivers/STM32F3xx_HAL_Driver/Src/stm32f3xx_hal_uart.c ****       (HAL_IS_BIT_SET(huart->Instance->CR3, USART_CR3_DMAR)))
 952              		.loc 1 1177 3 is_stmt 1 view .LVU317
1177:Drivers/STM32F3xx_HAL_Driver/Src/stm32f3xx_hal_uart.c ****       (HAL_IS_BIT_SET(huart->Instance->CR3, USART_CR3_DMAR)))
 953              		.loc 1 1177 13 is_stmt 0 view .LVU318
 954 0040 94F86A30 		ldrb	r3, [r4, #106]	@ zero_extendqisi2
1177:Drivers/STM32F3xx_HAL_Driver/Src/stm32f3xx_hal_uart.c ****       (HAL_IS_BIT_SET(huart->Instance->CR3, USART_CR3_DMAR)))
 955              		.loc 1 1177 6 view .LVU319
 956 0044 222B     		cmp	r3, #34
 957 0046 E5D1     		bne	.L81
 958              	.LVL53:
 959              	.L97:
1178:Drivers/STM32F3xx_HAL_Driver/Src/stm32f3xx_hal_uart.c ****   {
 960              		.loc 1 1178 8 discriminator 1 view .LVU320
 961 0048 2368     		ldr	r3, [r4]
 962 004a 9A68     		ldr	r2, [r3, #8]
1177:Drivers/STM32F3xx_HAL_Driver/Src/stm32f3xx_hal_uart.c ****       (HAL_IS_BIT_SET(huart->Instance->CR3, USART_CR3_DMAR)))
 963              		.loc 1 1177 50 discriminator 1 view .LVU321
 964 004c 5206     		lsls	r2, r2, #25
 965 004e E1D5     		bpl	.L81
ARM GAS  /var/folders/8c/gyvcglfx7f97kbqb2h83mm_r0000gn/T//ccv1qdBn.s 			page 62


1180:Drivers/STM32F3xx_HAL_Driver/Src/stm32f3xx_hal_uart.c **** 
 966              		.loc 1 1180 5 is_stmt 1 view .LVU322
 967 0050 9A68     		ldr	r2, [r3, #8]
1183:Drivers/STM32F3xx_HAL_Driver/Src/stm32f3xx_hal_uart.c ****     {
 968              		.loc 1 1183 13 is_stmt 0 view .LVU323
 969 0052 606E     		ldr	r0, [r4, #100]
1180:Drivers/STM32F3xx_HAL_Driver/Src/stm32f3xx_hal_uart.c **** 
 970              		.loc 1 1180 5 view .LVU324
 971 0054 22F04002 		bic	r2, r2, #64
 972 0058 9A60     		str	r2, [r3, #8]
1183:Drivers/STM32F3xx_HAL_Driver/Src/stm32f3xx_hal_uart.c ****     {
 973              		.loc 1 1183 5 is_stmt 1 view .LVU325
1183:Drivers/STM32F3xx_HAL_Driver/Src/stm32f3xx_hal_uart.c ****     {
 974              		.loc 1 1183 7 is_stmt 0 view .LVU326
 975 005a 10B1     		cbz	r0, .L82
1185:Drivers/STM32F3xx_HAL_Driver/Src/stm32f3xx_hal_uart.c ****     }
 976              		.loc 1 1185 7 is_stmt 1 view .LVU327
 977 005c FFF7FEFF 		bl	HAL_DMA_Abort
 978              	.LVL54:
 979 0060 2368     		ldr	r3, [r4]
 980              	.L82:
1188:Drivers/STM32F3xx_HAL_Driver/Src/stm32f3xx_hal_uart.c ****   }
 981              		.loc 1 1188 5 view .LVU328
 982              	.LVL55:
 983              	.LBB16:
 984              	.LBI16:
2370:Drivers/STM32F3xx_HAL_Driver/Src/stm32f3xx_hal_uart.c **** }
2371:Drivers/STM32F3xx_HAL_Driver/Src/stm32f3xx_hal_uart.c **** 
2372:Drivers/STM32F3xx_HAL_Driver/Src/stm32f3xx_hal_uart.c **** 
2373:Drivers/STM32F3xx_HAL_Driver/Src/stm32f3xx_hal_uart.c **** /**
2374:Drivers/STM32F3xx_HAL_Driver/Src/stm32f3xx_hal_uart.c ****   * @brief  End ongoing Rx transfer on UART peripheral (following error detection or Reception comp
2375:Drivers/STM32F3xx_HAL_Driver/Src/stm32f3xx_hal_uart.c ****   * @param  huart UART handle.
2376:Drivers/STM32F3xx_HAL_Driver/Src/stm32f3xx_hal_uart.c ****   * @retval None
2377:Drivers/STM32F3xx_HAL_Driver/Src/stm32f3xx_hal_uart.c ****   */
2378:Drivers/STM32F3xx_HAL_Driver/Src/stm32f3xx_hal_uart.c **** static void UART_EndRxTransfer(UART_HandleTypeDef *huart)
 985              		.loc 1 2378 13 view .LVU329
 986              	.LBB17:
2379:Drivers/STM32F3xx_HAL_Driver/Src/stm32f3xx_hal_uart.c **** {
2380:Drivers/STM32F3xx_HAL_Driver/Src/stm32f3xx_hal_uart.c ****   /* Disable RXNE, PE and ERR (Frame error, noise error, overrun error) interrupts */
2381:Drivers/STM32F3xx_HAL_Driver/Src/stm32f3xx_hal_uart.c ****   CLEAR_BIT(huart->Instance->CR1, (USART_CR1_RXNEIE | USART_CR1_PEIE));
 987              		.loc 1 2381 3 view .LVU330
 988 0062 1A68     		ldr	r2, [r3]
 989 0064 22F49072 		bic	r2, r2, #288
 990 0068 1A60     		str	r2, [r3]
2382:Drivers/STM32F3xx_HAL_Driver/Src/stm32f3xx_hal_uart.c ****   CLEAR_BIT(huart->Instance->CR3, USART_CR3_EIE);
 991              		.loc 1 2382 3 view .LVU331
 992 006a 9A68     		ldr	r2, [r3, #8]
2383:Drivers/STM32F3xx_HAL_Driver/Src/stm32f3xx_hal_uart.c **** 
2384:Drivers/STM32F3xx_HAL_Driver/Src/stm32f3xx_hal_uart.c ****   /* At end of Rx process, restore huart->RxState to Ready */
2385:Drivers/STM32F3xx_HAL_Driver/Src/stm32f3xx_hal_uart.c ****   huart->RxState = HAL_UART_STATE_READY;
 993              		.loc 1 2385 18 is_stmt 0 view .LVU332
 994 006c 2021     		movs	r1, #32
2382:Drivers/STM32F3xx_HAL_Driver/Src/stm32f3xx_hal_uart.c ****   CLEAR_BIT(huart->Instance->CR3, USART_CR3_EIE);
 995              		.loc 1 2382 3 view .LVU333
 996 006e 22F00102 		bic	r2, r2, #1
 997 0072 9A60     		str	r2, [r3, #8]
 998              		.loc 1 2385 3 is_stmt 1 view .LVU334
ARM GAS  /var/folders/8c/gyvcglfx7f97kbqb2h83mm_r0000gn/T//ccv1qdBn.s 			page 63


 999              	.LBE17:
 1000              	.LBE16:
1192:Drivers/STM32F3xx_HAL_Driver/Src/stm32f3xx_hal_uart.c **** 
 1001              		.loc 1 1192 1 is_stmt 0 view .LVU335
 1002 0074 0020     		movs	r0, #0
 1003              	.LBB19:
 1004              	.LBB18:
 1005              		.loc 1 2385 18 view .LVU336
 1006 0076 84F86A10 		strb	r1, [r4, #106]
 1007              	.LBE18:
 1008              	.LBE19:
1191:Drivers/STM32F3xx_HAL_Driver/Src/stm32f3xx_hal_uart.c **** }
 1009              		.loc 1 1191 3 is_stmt 1 view .LVU337
1192:Drivers/STM32F3xx_HAL_Driver/Src/stm32f3xx_hal_uart.c **** 
 1010              		.loc 1 1192 1 is_stmt 0 view .LVU338
 1011 007a 10BD     		pop	{r4, pc}
1192:Drivers/STM32F3xx_HAL_Driver/Src/stm32f3xx_hal_uart.c **** 
 1012              		.loc 1 1192 1 view .LVU339
 1013              		.cfi_endproc
 1014              	.LFE141:
 1016              		.section	.text.HAL_UART_Abort,"ax",%progbits
 1017              		.align	1
 1018              		.p2align 2,,3
 1019              		.global	HAL_UART_Abort
 1020              		.syntax unified
 1021              		.thumb
 1022              		.thumb_func
 1023              		.fpu fpv4-sp-d16
 1025              	HAL_UART_Abort:
 1026              	.LVL56:
 1027              	.LFB142:
1207:Drivers/STM32F3xx_HAL_Driver/Src/stm32f3xx_hal_uart.c ****   /* Disable TXEIE, TCIE, RXNE, PE and ERR (Frame error, noise error, overrun error) interrupts */
 1028              		.loc 1 1207 1 is_stmt 1 view -0
 1029              		.cfi_startproc
 1030              		@ args = 0, pretend = 0, frame = 0
 1031              		@ frame_needed = 0, uses_anonymous_args = 0
1209:Drivers/STM32F3xx_HAL_Driver/Src/stm32f3xx_hal_uart.c ****   CLEAR_BIT(huart->Instance->CR3, USART_CR3_EIE);
 1032              		.loc 1 1209 3 view .LVU341
 1033 0000 0368     		ldr	r3, [r0]
 1034 0002 1A68     		ldr	r2, [r3]
 1035 0004 22F4F072 		bic	r2, r2, #480
1207:Drivers/STM32F3xx_HAL_Driver/Src/stm32f3xx_hal_uart.c ****   /* Disable TXEIE, TCIE, RXNE, PE and ERR (Frame error, noise error, overrun error) interrupts */
 1036              		.loc 1 1207 1 is_stmt 0 view .LVU342
 1037 0008 10B5     		push	{r4, lr}
 1038              	.LCFI8:
 1039              		.cfi_def_cfa_offset 8
 1040              		.cfi_offset 4, -8
 1041              		.cfi_offset 14, -4
1209:Drivers/STM32F3xx_HAL_Driver/Src/stm32f3xx_hal_uart.c ****   CLEAR_BIT(huart->Instance->CR3, USART_CR3_EIE);
 1042              		.loc 1 1209 3 view .LVU343
 1043 000a 1A60     		str	r2, [r3]
1210:Drivers/STM32F3xx_HAL_Driver/Src/stm32f3xx_hal_uart.c **** 
 1044              		.loc 1 1210 3 is_stmt 1 view .LVU344
 1045 000c 9A68     		ldr	r2, [r3, #8]
 1046 000e 22F00102 		bic	r2, r2, #1
 1047 0012 9A60     		str	r2, [r3, #8]
1213:Drivers/STM32F3xx_HAL_Driver/Src/stm32f3xx_hal_uart.c ****   {
ARM GAS  /var/folders/8c/gyvcglfx7f97kbqb2h83mm_r0000gn/T//ccv1qdBn.s 			page 64


 1048              		.loc 1 1213 3 view .LVU345
1213:Drivers/STM32F3xx_HAL_Driver/Src/stm32f3xx_hal_uart.c ****   {
 1049              		.loc 1 1213 7 is_stmt 0 view .LVU346
 1050 0014 9A68     		ldr	r2, [r3, #8]
1213:Drivers/STM32F3xx_HAL_Driver/Src/stm32f3xx_hal_uart.c ****   {
 1051              		.loc 1 1213 6 view .LVU347
 1052 0016 1106     		lsls	r1, r2, #24
1207:Drivers/STM32F3xx_HAL_Driver/Src/stm32f3xx_hal_uart.c ****   /* Disable TXEIE, TCIE, RXNE, PE and ERR (Frame error, noise error, overrun error) interrupts */
 1053              		.loc 1 1207 1 view .LVU348
 1054 0018 0446     		mov	r4, r0
1213:Drivers/STM32F3xx_HAL_Driver/Src/stm32f3xx_hal_uart.c ****   {
 1055              		.loc 1 1213 6 view .LVU349
 1056 001a 0AD5     		bpl	.L99
1215:Drivers/STM32F3xx_HAL_Driver/Src/stm32f3xx_hal_uart.c **** 
 1057              		.loc 1 1215 5 is_stmt 1 view .LVU350
 1058 001c 9A68     		ldr	r2, [r3, #8]
1218:Drivers/STM32F3xx_HAL_Driver/Src/stm32f3xx_hal_uart.c ****     {
 1059              		.loc 1 1218 13 is_stmt 0 view .LVU351
 1060 001e 006E     		ldr	r0, [r0, #96]
 1061              	.LVL57:
1215:Drivers/STM32F3xx_HAL_Driver/Src/stm32f3xx_hal_uart.c **** 
 1062              		.loc 1 1215 5 view .LVU352
 1063 0020 22F08002 		bic	r2, r2, #128
 1064 0024 9A60     		str	r2, [r3, #8]
1218:Drivers/STM32F3xx_HAL_Driver/Src/stm32f3xx_hal_uart.c ****     {
 1065              		.loc 1 1218 5 is_stmt 1 view .LVU353
1218:Drivers/STM32F3xx_HAL_Driver/Src/stm32f3xx_hal_uart.c ****     {
 1066              		.loc 1 1218 7 is_stmt 0 view .LVU354
 1067 0026 20B1     		cbz	r0, .L99
1222:Drivers/STM32F3xx_HAL_Driver/Src/stm32f3xx_hal_uart.c **** 
 1068              		.loc 1 1222 7 is_stmt 1 view .LVU355
1222:Drivers/STM32F3xx_HAL_Driver/Src/stm32f3xx_hal_uart.c **** 
 1069              		.loc 1 1222 40 is_stmt 0 view .LVU356
 1070 0028 0023     		movs	r3, #0
 1071 002a 4363     		str	r3, [r0, #52]
1224:Drivers/STM32F3xx_HAL_Driver/Src/stm32f3xx_hal_uart.c ****     }
 1072              		.loc 1 1224 7 is_stmt 1 view .LVU357
 1073 002c FFF7FEFF 		bl	HAL_DMA_Abort
 1074              	.LVL58:
 1075 0030 2368     		ldr	r3, [r4]
 1076              	.L99:
1229:Drivers/STM32F3xx_HAL_Driver/Src/stm32f3xx_hal_uart.c ****   {
 1077              		.loc 1 1229 3 view .LVU358
1229:Drivers/STM32F3xx_HAL_Driver/Src/stm32f3xx_hal_uart.c ****   {
 1078              		.loc 1 1229 7 is_stmt 0 view .LVU359
 1079 0032 9A68     		ldr	r2, [r3, #8]
1229:Drivers/STM32F3xx_HAL_Driver/Src/stm32f3xx_hal_uart.c ****   {
 1080              		.loc 1 1229 6 view .LVU360
 1081 0034 5206     		lsls	r2, r2, #25
 1082 0036 0AD5     		bpl	.L100
1231:Drivers/STM32F3xx_HAL_Driver/Src/stm32f3xx_hal_uart.c **** 
 1083              		.loc 1 1231 5 is_stmt 1 view .LVU361
 1084 0038 9A68     		ldr	r2, [r3, #8]
1234:Drivers/STM32F3xx_HAL_Driver/Src/stm32f3xx_hal_uart.c ****     {
 1085              		.loc 1 1234 13 is_stmt 0 view .LVU362
 1086 003a 606E     		ldr	r0, [r4, #100]
1231:Drivers/STM32F3xx_HAL_Driver/Src/stm32f3xx_hal_uart.c **** 
ARM GAS  /var/folders/8c/gyvcglfx7f97kbqb2h83mm_r0000gn/T//ccv1qdBn.s 			page 65


 1087              		.loc 1 1231 5 view .LVU363
 1088 003c 22F04002 		bic	r2, r2, #64
 1089 0040 9A60     		str	r2, [r3, #8]
1234:Drivers/STM32F3xx_HAL_Driver/Src/stm32f3xx_hal_uart.c ****     {
 1090              		.loc 1 1234 5 is_stmt 1 view .LVU364
1234:Drivers/STM32F3xx_HAL_Driver/Src/stm32f3xx_hal_uart.c ****     {
 1091              		.loc 1 1234 7 is_stmt 0 view .LVU365
 1092 0042 20B1     		cbz	r0, .L100
1238:Drivers/STM32F3xx_HAL_Driver/Src/stm32f3xx_hal_uart.c **** 
 1093              		.loc 1 1238 7 is_stmt 1 view .LVU366
1238:Drivers/STM32F3xx_HAL_Driver/Src/stm32f3xx_hal_uart.c **** 
 1094              		.loc 1 1238 40 is_stmt 0 view .LVU367
 1095 0044 0023     		movs	r3, #0
 1096 0046 4363     		str	r3, [r0, #52]
1240:Drivers/STM32F3xx_HAL_Driver/Src/stm32f3xx_hal_uart.c ****     }
 1097              		.loc 1 1240 7 is_stmt 1 view .LVU368
 1098 0048 FFF7FEFF 		bl	HAL_DMA_Abort
 1099              	.LVL59:
 1100 004c 2368     		ldr	r3, [r4]
 1101              	.L100:
1245:Drivers/STM32F3xx_HAL_Driver/Src/stm32f3xx_hal_uart.c ****   huart->RxXferCount = 0U; 
 1102              		.loc 1 1245 3 view .LVU369
1245:Drivers/STM32F3xx_HAL_Driver/Src/stm32f3xx_hal_uart.c ****   huart->RxXferCount = 0U; 
 1103              		.loc 1 1245 22 is_stmt 0 view .LVU370
 1104 004e 0022     		movs	r2, #0
1252:Drivers/STM32F3xx_HAL_Driver/Src/stm32f3xx_hal_uart.c ****   huart->RxState = HAL_UART_STATE_READY;
 1105              		.loc 1 1252 18 view .LVU371
 1106 0050 2021     		movs	r1, #32
1249:Drivers/STM32F3xx_HAL_Driver/Src/stm32f3xx_hal_uart.c **** 
 1107              		.loc 1 1249 3 view .LVU372
 1108 0052 0F20     		movs	r0, #15
1245:Drivers/STM32F3xx_HAL_Driver/Src/stm32f3xx_hal_uart.c ****   huart->RxXferCount = 0U; 
 1109              		.loc 1 1245 22 view .LVU373
 1110 0054 A4F85220 		strh	r2, [r4, #82]	@ movhi
1246:Drivers/STM32F3xx_HAL_Driver/Src/stm32f3xx_hal_uart.c **** 
 1111              		.loc 1 1246 3 is_stmt 1 view .LVU374
1246:Drivers/STM32F3xx_HAL_Driver/Src/stm32f3xx_hal_uart.c **** 
 1112              		.loc 1 1246 22 is_stmt 0 view .LVU375
 1113 0058 A4F85A20 		strh	r2, [r4, #90]	@ movhi
1249:Drivers/STM32F3xx_HAL_Driver/Src/stm32f3xx_hal_uart.c **** 
 1114              		.loc 1 1249 3 is_stmt 1 view .LVU376
 1115 005c 1862     		str	r0, [r3, #32]
1252:Drivers/STM32F3xx_HAL_Driver/Src/stm32f3xx_hal_uart.c ****   huart->RxState = HAL_UART_STATE_READY;
 1116              		.loc 1 1252 3 view .LVU377
1252:Drivers/STM32F3xx_HAL_Driver/Src/stm32f3xx_hal_uart.c ****   huart->RxState = HAL_UART_STATE_READY;
 1117              		.loc 1 1252 18 is_stmt 0 view .LVU378
 1118 005e 84F86910 		strb	r1, [r4, #105]
1253:Drivers/STM32F3xx_HAL_Driver/Src/stm32f3xx_hal_uart.c **** 
 1119              		.loc 1 1253 3 is_stmt 1 view .LVU379
1259:Drivers/STM32F3xx_HAL_Driver/Src/stm32f3xx_hal_uart.c **** 
 1120              		.loc 1 1259 1 is_stmt 0 view .LVU380
 1121 0062 1046     		mov	r0, r2
1253:Drivers/STM32F3xx_HAL_Driver/Src/stm32f3xx_hal_uart.c **** 
 1122              		.loc 1 1253 18 view .LVU381
 1123 0064 84F86A10 		strb	r1, [r4, #106]
1256:Drivers/STM32F3xx_HAL_Driver/Src/stm32f3xx_hal_uart.c **** 
 1124              		.loc 1 1256 3 is_stmt 1 view .LVU382
ARM GAS  /var/folders/8c/gyvcglfx7f97kbqb2h83mm_r0000gn/T//ccv1qdBn.s 			page 66


1256:Drivers/STM32F3xx_HAL_Driver/Src/stm32f3xx_hal_uart.c **** 
 1125              		.loc 1 1256 20 is_stmt 0 view .LVU383
 1126 0068 E266     		str	r2, [r4, #108]
1258:Drivers/STM32F3xx_HAL_Driver/Src/stm32f3xx_hal_uart.c **** }
 1127              		.loc 1 1258 3 is_stmt 1 view .LVU384
1259:Drivers/STM32F3xx_HAL_Driver/Src/stm32f3xx_hal_uart.c **** 
 1128              		.loc 1 1259 1 is_stmt 0 view .LVU385
 1129 006a 10BD     		pop	{r4, pc}
1259:Drivers/STM32F3xx_HAL_Driver/Src/stm32f3xx_hal_uart.c **** 
 1130              		.loc 1 1259 1 view .LVU386
 1131              		.cfi_endproc
 1132              	.LFE142:
 1134              		.section	.text.HAL_UART_AbortTransmit,"ax",%progbits
 1135              		.align	1
 1136              		.p2align 2,,3
 1137              		.global	HAL_UART_AbortTransmit
 1138              		.syntax unified
 1139              		.thumb
 1140              		.thumb_func
 1141              		.fpu fpv4-sp-d16
 1143              	HAL_UART_AbortTransmit:
 1144              	.LVL60:
 1145              	.LFB143:
1274:Drivers/STM32F3xx_HAL_Driver/Src/stm32f3xx_hal_uart.c ****   /* Disable TXEIE and TCIE interrupts */
 1146              		.loc 1 1274 1 is_stmt 1 view -0
 1147              		.cfi_startproc
 1148              		@ args = 0, pretend = 0, frame = 0
 1149              		@ frame_needed = 0, uses_anonymous_args = 0
1276:Drivers/STM32F3xx_HAL_Driver/Src/stm32f3xx_hal_uart.c **** 
 1150              		.loc 1 1276 3 view .LVU388
 1151 0000 0368     		ldr	r3, [r0]
 1152 0002 1A68     		ldr	r2, [r3]
 1153 0004 22F0C002 		bic	r2, r2, #192
1274:Drivers/STM32F3xx_HAL_Driver/Src/stm32f3xx_hal_uart.c ****   /* Disable TXEIE and TCIE interrupts */
 1154              		.loc 1 1274 1 is_stmt 0 view .LVU389
 1155 0008 10B5     		push	{r4, lr}
 1156              	.LCFI9:
 1157              		.cfi_def_cfa_offset 8
 1158              		.cfi_offset 4, -8
 1159              		.cfi_offset 14, -4
1276:Drivers/STM32F3xx_HAL_Driver/Src/stm32f3xx_hal_uart.c **** 
 1160              		.loc 1 1276 3 view .LVU390
 1161 000a 1A60     		str	r2, [r3]
1279:Drivers/STM32F3xx_HAL_Driver/Src/stm32f3xx_hal_uart.c ****   {
 1162              		.loc 1 1279 3 is_stmt 1 view .LVU391
1279:Drivers/STM32F3xx_HAL_Driver/Src/stm32f3xx_hal_uart.c ****   {
 1163              		.loc 1 1279 7 is_stmt 0 view .LVU392
 1164 000c 9A68     		ldr	r2, [r3, #8]
1279:Drivers/STM32F3xx_HAL_Driver/Src/stm32f3xx_hal_uart.c ****   {
 1165              		.loc 1 1279 6 view .LVU393
 1166 000e 1206     		lsls	r2, r2, #24
1274:Drivers/STM32F3xx_HAL_Driver/Src/stm32f3xx_hal_uart.c ****   /* Disable TXEIE and TCIE interrupts */
 1167              		.loc 1 1274 1 view .LVU394
 1168 0010 0446     		mov	r4, r0
1279:Drivers/STM32F3xx_HAL_Driver/Src/stm32f3xx_hal_uart.c ****   {
 1169              		.loc 1 1279 6 view .LVU395
 1170 0012 09D5     		bpl	.L116
ARM GAS  /var/folders/8c/gyvcglfx7f97kbqb2h83mm_r0000gn/T//ccv1qdBn.s 			page 67


1281:Drivers/STM32F3xx_HAL_Driver/Src/stm32f3xx_hal_uart.c **** 
 1171              		.loc 1 1281 5 is_stmt 1 view .LVU396
 1172 0014 9A68     		ldr	r2, [r3, #8]
1284:Drivers/STM32F3xx_HAL_Driver/Src/stm32f3xx_hal_uart.c ****     {
 1173              		.loc 1 1284 13 is_stmt 0 view .LVU397
 1174 0016 006E     		ldr	r0, [r0, #96]
 1175              	.LVL61:
1281:Drivers/STM32F3xx_HAL_Driver/Src/stm32f3xx_hal_uart.c **** 
 1176              		.loc 1 1281 5 view .LVU398
 1177 0018 22F08002 		bic	r2, r2, #128
 1178 001c 9A60     		str	r2, [r3, #8]
1284:Drivers/STM32F3xx_HAL_Driver/Src/stm32f3xx_hal_uart.c ****     {
 1179              		.loc 1 1284 5 is_stmt 1 view .LVU399
1284:Drivers/STM32F3xx_HAL_Driver/Src/stm32f3xx_hal_uart.c ****     {
 1180              		.loc 1 1284 7 is_stmt 0 view .LVU400
 1181 001e 18B1     		cbz	r0, .L116
1288:Drivers/STM32F3xx_HAL_Driver/Src/stm32f3xx_hal_uart.c **** 
 1182              		.loc 1 1288 7 is_stmt 1 view .LVU401
1288:Drivers/STM32F3xx_HAL_Driver/Src/stm32f3xx_hal_uart.c **** 
 1183              		.loc 1 1288 40 is_stmt 0 view .LVU402
 1184 0020 0023     		movs	r3, #0
 1185 0022 4363     		str	r3, [r0, #52]
1290:Drivers/STM32F3xx_HAL_Driver/Src/stm32f3xx_hal_uart.c ****     }
 1186              		.loc 1 1290 7 is_stmt 1 view .LVU403
 1187 0024 FFF7FEFF 		bl	HAL_DMA_Abort
 1188              	.LVL62:
 1189              	.L116:
1295:Drivers/STM32F3xx_HAL_Driver/Src/stm32f3xx_hal_uart.c **** 
 1190              		.loc 1 1295 3 view .LVU404
1295:Drivers/STM32F3xx_HAL_Driver/Src/stm32f3xx_hal_uart.c **** 
 1191              		.loc 1 1295 22 is_stmt 0 view .LVU405
 1192 0028 0020     		movs	r0, #0
1298:Drivers/STM32F3xx_HAL_Driver/Src/stm32f3xx_hal_uart.c **** 
 1193              		.loc 1 1298 17 view .LVU406
 1194 002a 2023     		movs	r3, #32
1295:Drivers/STM32F3xx_HAL_Driver/Src/stm32f3xx_hal_uart.c **** 
 1195              		.loc 1 1295 22 view .LVU407
 1196 002c A4F85200 		strh	r0, [r4, #82]	@ movhi
1298:Drivers/STM32F3xx_HAL_Driver/Src/stm32f3xx_hal_uart.c **** 
 1197              		.loc 1 1298 3 is_stmt 1 view .LVU408
1298:Drivers/STM32F3xx_HAL_Driver/Src/stm32f3xx_hal_uart.c **** 
 1198              		.loc 1 1298 17 is_stmt 0 view .LVU409
 1199 0030 84F86930 		strb	r3, [r4, #105]
1300:Drivers/STM32F3xx_HAL_Driver/Src/stm32f3xx_hal_uart.c **** }
 1200              		.loc 1 1300 3 is_stmt 1 view .LVU410
1301:Drivers/STM32F3xx_HAL_Driver/Src/stm32f3xx_hal_uart.c **** 
 1201              		.loc 1 1301 1 is_stmt 0 view .LVU411
 1202 0034 10BD     		pop	{r4, pc}
1301:Drivers/STM32F3xx_HAL_Driver/Src/stm32f3xx_hal_uart.c **** 
 1203              		.loc 1 1301 1 view .LVU412
 1204              		.cfi_endproc
 1205              	.LFE143:
 1207 0036 00BF     		.section	.text.HAL_UART_AbortReceive,"ax",%progbits
 1208              		.align	1
 1209              		.p2align 2,,3
 1210              		.global	HAL_UART_AbortReceive
 1211              		.syntax unified
ARM GAS  /var/folders/8c/gyvcglfx7f97kbqb2h83mm_r0000gn/T//ccv1qdBn.s 			page 68


 1212              		.thumb
 1213              		.thumb_func
 1214              		.fpu fpv4-sp-d16
 1216              	HAL_UART_AbortReceive:
 1217              	.LVL63:
 1218              	.LFB144:
1316:Drivers/STM32F3xx_HAL_Driver/Src/stm32f3xx_hal_uart.c ****   /* Disable RXNE, PE and ERR (Frame error, noise error, overrun error) interrupts */
 1219              		.loc 1 1316 1 is_stmt 1 view -0
 1220              		.cfi_startproc
 1221              		@ args = 0, pretend = 0, frame = 0
 1222              		@ frame_needed = 0, uses_anonymous_args = 0
1318:Drivers/STM32F3xx_HAL_Driver/Src/stm32f3xx_hal_uart.c ****   CLEAR_BIT(huart->Instance->CR3, USART_CR3_EIE);
 1223              		.loc 1 1318 3 view .LVU414
 1224 0000 0368     		ldr	r3, [r0]
 1225 0002 1A68     		ldr	r2, [r3]
 1226 0004 22F49072 		bic	r2, r2, #288
1316:Drivers/STM32F3xx_HAL_Driver/Src/stm32f3xx_hal_uart.c ****   /* Disable RXNE, PE and ERR (Frame error, noise error, overrun error) interrupts */
 1227              		.loc 1 1316 1 is_stmt 0 view .LVU415
 1228 0008 10B5     		push	{r4, lr}
 1229              	.LCFI10:
 1230              		.cfi_def_cfa_offset 8
 1231              		.cfi_offset 4, -8
 1232              		.cfi_offset 14, -4
1318:Drivers/STM32F3xx_HAL_Driver/Src/stm32f3xx_hal_uart.c ****   CLEAR_BIT(huart->Instance->CR3, USART_CR3_EIE);
 1233              		.loc 1 1318 3 view .LVU416
 1234 000a 1A60     		str	r2, [r3]
1319:Drivers/STM32F3xx_HAL_Driver/Src/stm32f3xx_hal_uart.c **** 
 1235              		.loc 1 1319 3 is_stmt 1 view .LVU417
 1236 000c 9A68     		ldr	r2, [r3, #8]
 1237 000e 22F00102 		bic	r2, r2, #1
 1238 0012 9A60     		str	r2, [r3, #8]
1322:Drivers/STM32F3xx_HAL_Driver/Src/stm32f3xx_hal_uart.c ****   {
 1239              		.loc 1 1322 3 view .LVU418
1322:Drivers/STM32F3xx_HAL_Driver/Src/stm32f3xx_hal_uart.c ****   {
 1240              		.loc 1 1322 7 is_stmt 0 view .LVU419
 1241 0014 9A68     		ldr	r2, [r3, #8]
1322:Drivers/STM32F3xx_HAL_Driver/Src/stm32f3xx_hal_uart.c ****   {
 1242              		.loc 1 1322 6 view .LVU420
 1243 0016 5206     		lsls	r2, r2, #25
1316:Drivers/STM32F3xx_HAL_Driver/Src/stm32f3xx_hal_uart.c ****   /* Disable RXNE, PE and ERR (Frame error, noise error, overrun error) interrupts */
 1244              		.loc 1 1316 1 view .LVU421
 1245 0018 0446     		mov	r4, r0
1322:Drivers/STM32F3xx_HAL_Driver/Src/stm32f3xx_hal_uart.c ****   {
 1246              		.loc 1 1322 6 view .LVU422
 1247 001a 0AD5     		bpl	.L123
1324:Drivers/STM32F3xx_HAL_Driver/Src/stm32f3xx_hal_uart.c **** 
 1248              		.loc 1 1324 5 is_stmt 1 view .LVU423
 1249 001c 9A68     		ldr	r2, [r3, #8]
1327:Drivers/STM32F3xx_HAL_Driver/Src/stm32f3xx_hal_uart.c ****     {
 1250              		.loc 1 1327 13 is_stmt 0 view .LVU424
 1251 001e 406E     		ldr	r0, [r0, #100]
 1252              	.LVL64:
1324:Drivers/STM32F3xx_HAL_Driver/Src/stm32f3xx_hal_uart.c **** 
 1253              		.loc 1 1324 5 view .LVU425
 1254 0020 22F04002 		bic	r2, r2, #64
 1255 0024 9A60     		str	r2, [r3, #8]
1327:Drivers/STM32F3xx_HAL_Driver/Src/stm32f3xx_hal_uart.c ****     {
ARM GAS  /var/folders/8c/gyvcglfx7f97kbqb2h83mm_r0000gn/T//ccv1qdBn.s 			page 69


 1256              		.loc 1 1327 5 is_stmt 1 view .LVU426
1327:Drivers/STM32F3xx_HAL_Driver/Src/stm32f3xx_hal_uart.c ****     {
 1257              		.loc 1 1327 7 is_stmt 0 view .LVU427
 1258 0026 20B1     		cbz	r0, .L123
1331:Drivers/STM32F3xx_HAL_Driver/Src/stm32f3xx_hal_uart.c **** 
 1259              		.loc 1 1331 7 is_stmt 1 view .LVU428
1331:Drivers/STM32F3xx_HAL_Driver/Src/stm32f3xx_hal_uart.c **** 
 1260              		.loc 1 1331 40 is_stmt 0 view .LVU429
 1261 0028 0023     		movs	r3, #0
 1262 002a 4363     		str	r3, [r0, #52]
1333:Drivers/STM32F3xx_HAL_Driver/Src/stm32f3xx_hal_uart.c ****     }
 1263              		.loc 1 1333 7 is_stmt 1 view .LVU430
 1264 002c FFF7FEFF 		bl	HAL_DMA_Abort
 1265              	.LVL65:
 1266 0030 2368     		ldr	r3, [r4]
 1267              	.L123:
1338:Drivers/STM32F3xx_HAL_Driver/Src/stm32f3xx_hal_uart.c **** 
 1268              		.loc 1 1338 3 view .LVU431
1338:Drivers/STM32F3xx_HAL_Driver/Src/stm32f3xx_hal_uart.c **** 
 1269              		.loc 1 1338 22 is_stmt 0 view .LVU432
 1270 0032 0020     		movs	r0, #0
1341:Drivers/STM32F3xx_HAL_Driver/Src/stm32f3xx_hal_uart.c **** 
 1271              		.loc 1 1341 3 view .LVU433
 1272 0034 0F21     		movs	r1, #15
1344:Drivers/STM32F3xx_HAL_Driver/Src/stm32f3xx_hal_uart.c **** 
 1273              		.loc 1 1344 18 view .LVU434
 1274 0036 2022     		movs	r2, #32
1338:Drivers/STM32F3xx_HAL_Driver/Src/stm32f3xx_hal_uart.c **** 
 1275              		.loc 1 1338 22 view .LVU435
 1276 0038 A4F85A00 		strh	r0, [r4, #90]	@ movhi
1341:Drivers/STM32F3xx_HAL_Driver/Src/stm32f3xx_hal_uart.c **** 
 1277              		.loc 1 1341 3 is_stmt 1 view .LVU436
 1278 003c 1962     		str	r1, [r3, #32]
1344:Drivers/STM32F3xx_HAL_Driver/Src/stm32f3xx_hal_uart.c **** 
 1279              		.loc 1 1344 3 view .LVU437
1344:Drivers/STM32F3xx_HAL_Driver/Src/stm32f3xx_hal_uart.c **** 
 1280              		.loc 1 1344 18 is_stmt 0 view .LVU438
 1281 003e 84F86A20 		strb	r2, [r4, #106]
1346:Drivers/STM32F3xx_HAL_Driver/Src/stm32f3xx_hal_uart.c **** }
 1282              		.loc 1 1346 3 is_stmt 1 view .LVU439
1347:Drivers/STM32F3xx_HAL_Driver/Src/stm32f3xx_hal_uart.c **** 
 1283              		.loc 1 1347 1 is_stmt 0 view .LVU440
 1284 0042 10BD     		pop	{r4, pc}
1347:Drivers/STM32F3xx_HAL_Driver/Src/stm32f3xx_hal_uart.c **** 
 1285              		.loc 1 1347 1 view .LVU441
 1286              		.cfi_endproc
 1287              	.LFE144:
 1289              		.section	.text.HAL_UART_TxCpltCallback,"ax",%progbits
 1290              		.align	1
 1291              		.p2align 2,,3
 1292              		.weak	HAL_UART_TxCpltCallback
 1293              		.syntax unified
 1294              		.thumb
 1295              		.thumb_func
 1296              		.fpu fpv4-sp-d16
 1298              	HAL_UART_TxCpltCallback:
 1299              	.LFB191:
ARM GAS  /var/folders/8c/gyvcglfx7f97kbqb2h83mm_r0000gn/T//ccv1qdBn.s 			page 70


 1300              		.cfi_startproc
 1301              		@ args = 0, pretend = 0, frame = 0
 1302              		@ frame_needed = 0, uses_anonymous_args = 0
 1303              		@ link register save eliminated.
 1304 0000 7047     		bx	lr
 1305              		.cfi_endproc
 1306              	.LFE191:
 1308 0002 00BF     		.section	.text.UART_DMATransmitCplt,"ax",%progbits
 1309              		.align	1
 1310              		.p2align 2,,3
 1311              		.syntax unified
 1312              		.thumb
 1313              		.thumb_func
 1314              		.fpu fpv4-sp-d16
 1316              	UART_DMATransmitCplt:
 1317              	.LVL66:
 1318              	.LFB171:
2386:Drivers/STM32F3xx_HAL_Driver/Src/stm32f3xx_hal_uart.c **** }
2387:Drivers/STM32F3xx_HAL_Driver/Src/stm32f3xx_hal_uart.c **** 
2388:Drivers/STM32F3xx_HAL_Driver/Src/stm32f3xx_hal_uart.c **** 
2389:Drivers/STM32F3xx_HAL_Driver/Src/stm32f3xx_hal_uart.c **** /**
2390:Drivers/STM32F3xx_HAL_Driver/Src/stm32f3xx_hal_uart.c ****   * @brief DMA UART transmit process complete callback.
2391:Drivers/STM32F3xx_HAL_Driver/Src/stm32f3xx_hal_uart.c ****   * @param hdma DMA handle.
2392:Drivers/STM32F3xx_HAL_Driver/Src/stm32f3xx_hal_uart.c ****   * @retval None
2393:Drivers/STM32F3xx_HAL_Driver/Src/stm32f3xx_hal_uart.c ****   */
2394:Drivers/STM32F3xx_HAL_Driver/Src/stm32f3xx_hal_uart.c **** static void UART_DMATransmitCplt(DMA_HandleTypeDef *hdma)
2395:Drivers/STM32F3xx_HAL_Driver/Src/stm32f3xx_hal_uart.c **** {
 1319              		.loc 1 2395 1 is_stmt 1 view -0
 1320              		.cfi_startproc
 1321              		@ args = 0, pretend = 0, frame = 0
 1322              		@ frame_needed = 0, uses_anonymous_args = 0
2396:Drivers/STM32F3xx_HAL_Driver/Src/stm32f3xx_hal_uart.c ****   UART_HandleTypeDef* huart = (UART_HandleTypeDef*)(hdma->Parent);
 1323              		.loc 1 2396 3 view .LVU443
2395:Drivers/STM32F3xx_HAL_Driver/Src/stm32f3xx_hal_uart.c ****   UART_HandleTypeDef* huart = (UART_HandleTypeDef*)(hdma->Parent);
 1324              		.loc 1 2395 1 is_stmt 0 view .LVU444
 1325 0000 08B5     		push	{r3, lr}
 1326              	.LCFI11:
 1327              		.cfi_def_cfa_offset 8
 1328              		.cfi_offset 3, -8
 1329              		.cfi_offset 14, -4
2397:Drivers/STM32F3xx_HAL_Driver/Src/stm32f3xx_hal_uart.c ****   
2398:Drivers/STM32F3xx_HAL_Driver/Src/stm32f3xx_hal_uart.c ****   /* DMA Normal mode */
2399:Drivers/STM32F3xx_HAL_Driver/Src/stm32f3xx_hal_uart.c ****   if ( HAL_IS_BIT_CLR(hdma->Instance->CCR, DMA_CCR_CIRC) )
 1330              		.loc 1 2399 8 view .LVU445
 1331 0002 0368     		ldr	r3, [r0]
2396:Drivers/STM32F3xx_HAL_Driver/Src/stm32f3xx_hal_uart.c ****   
 1332              		.loc 1 2396 23 view .LVU446
 1333 0004 406A     		ldr	r0, [r0, #36]
 1334              	.LVL67:
 1335              		.loc 1 2399 3 is_stmt 1 view .LVU447
 1336              		.loc 1 2399 8 is_stmt 0 view .LVU448
 1337 0006 1B68     		ldr	r3, [r3]
 1338              		.loc 1 2399 6 view .LVU449
 1339 0008 13F02003 		ands	r3, r3, #32
 1340 000c 0BD1     		bne	.L133
2400:Drivers/STM32F3xx_HAL_Driver/Src/stm32f3xx_hal_uart.c ****   {
2401:Drivers/STM32F3xx_HAL_Driver/Src/stm32f3xx_hal_uart.c ****     huart->TxXferCount = 0U;
ARM GAS  /var/folders/8c/gyvcglfx7f97kbqb2h83mm_r0000gn/T//ccv1qdBn.s 			page 71


 1341              		.loc 1 2401 5 is_stmt 1 view .LVU450
2402:Drivers/STM32F3xx_HAL_Driver/Src/stm32f3xx_hal_uart.c **** 
2403:Drivers/STM32F3xx_HAL_Driver/Src/stm32f3xx_hal_uart.c ****     /* Disable the DMA transfer for transmit request by resetting the DMAT bit
2404:Drivers/STM32F3xx_HAL_Driver/Src/stm32f3xx_hal_uart.c ****        in the UART CR3 register */
2405:Drivers/STM32F3xx_HAL_Driver/Src/stm32f3xx_hal_uart.c ****     CLEAR_BIT(huart->Instance->CR3, USART_CR3_DMAT);
 1342              		.loc 1 2405 5 is_stmt 0 view .LVU451
 1343 000e 0268     		ldr	r2, [r0]
2401:Drivers/STM32F3xx_HAL_Driver/Src/stm32f3xx_hal_uart.c **** 
 1344              		.loc 1 2401 24 view .LVU452
 1345 0010 A0F85230 		strh	r3, [r0, #82]	@ movhi
 1346              		.loc 1 2405 5 is_stmt 1 view .LVU453
 1347 0014 9368     		ldr	r3, [r2, #8]
 1348 0016 23F08003 		bic	r3, r3, #128
 1349 001a 9360     		str	r3, [r2, #8]
2406:Drivers/STM32F3xx_HAL_Driver/Src/stm32f3xx_hal_uart.c **** 
2407:Drivers/STM32F3xx_HAL_Driver/Src/stm32f3xx_hal_uart.c ****     /* Enable the UART Transmit Complete Interrupt */
2408:Drivers/STM32F3xx_HAL_Driver/Src/stm32f3xx_hal_uart.c ****     SET_BIT(huart->Instance->CR1, USART_CR1_TCIE);
 1350              		.loc 1 2408 5 view .LVU454
 1351 001c 1368     		ldr	r3, [r2]
 1352 001e 43F04003 		orr	r3, r3, #64
 1353 0022 1360     		str	r3, [r2]
2409:Drivers/STM32F3xx_HAL_Driver/Src/stm32f3xx_hal_uart.c ****   }
2410:Drivers/STM32F3xx_HAL_Driver/Src/stm32f3xx_hal_uart.c ****   /* DMA Circular mode */
2411:Drivers/STM32F3xx_HAL_Driver/Src/stm32f3xx_hal_uart.c ****   else
2412:Drivers/STM32F3xx_HAL_Driver/Src/stm32f3xx_hal_uart.c ****   {
2413:Drivers/STM32F3xx_HAL_Driver/Src/stm32f3xx_hal_uart.c ****     HAL_UART_TxCpltCallback(huart);
2414:Drivers/STM32F3xx_HAL_Driver/Src/stm32f3xx_hal_uart.c ****   }
2415:Drivers/STM32F3xx_HAL_Driver/Src/stm32f3xx_hal_uart.c **** 
2416:Drivers/STM32F3xx_HAL_Driver/Src/stm32f3xx_hal_uart.c **** }
 1354              		.loc 1 2416 1 is_stmt 0 view .LVU455
 1355 0024 08BD     		pop	{r3, pc}
 1356              	.L133:
2413:Drivers/STM32F3xx_HAL_Driver/Src/stm32f3xx_hal_uart.c ****   }
 1357              		.loc 1 2413 5 is_stmt 1 view .LVU456
 1358 0026 FFF7FEFF 		bl	HAL_UART_TxCpltCallback
 1359              	.LVL68:
 1360              		.loc 1 2416 1 is_stmt 0 view .LVU457
 1361 002a 08BD     		pop	{r3, pc}
 1362              		.cfi_endproc
 1363              	.LFE171:
 1365              		.section	.text.HAL_UART_TxHalfCpltCallback,"ax",%progbits
 1366              		.align	1
 1367              		.p2align 2,,3
 1368              		.weak	HAL_UART_TxHalfCpltCallback
 1369              		.syntax unified
 1370              		.thumb
 1371              		.thumb_func
 1372              		.fpu fpv4-sp-d16
 1374              	HAL_UART_TxHalfCpltCallback:
 1375              	.LFB193:
 1376              		.cfi_startproc
 1377              		@ args = 0, pretend = 0, frame = 0
 1378              		@ frame_needed = 0, uses_anonymous_args = 0
 1379              		@ link register save eliminated.
 1380 0000 7047     		bx	lr
 1381              		.cfi_endproc
 1382              	.LFE193:
ARM GAS  /var/folders/8c/gyvcglfx7f97kbqb2h83mm_r0000gn/T//ccv1qdBn.s 			page 72


 1384 0002 00BF     		.section	.text.UART_DMATxHalfCplt,"ax",%progbits
 1385              		.align	1
 1386              		.p2align 2,,3
 1387              		.syntax unified
 1388              		.thumb
 1389              		.thumb_func
 1390              		.fpu fpv4-sp-d16
 1392              	UART_DMATxHalfCplt:
 1393              	.LVL69:
 1394              	.LFB172:
2417:Drivers/STM32F3xx_HAL_Driver/Src/stm32f3xx_hal_uart.c **** 
2418:Drivers/STM32F3xx_HAL_Driver/Src/stm32f3xx_hal_uart.c **** /**
2419:Drivers/STM32F3xx_HAL_Driver/Src/stm32f3xx_hal_uart.c ****   * @brief DMA UART transmit process half complete callback.
2420:Drivers/STM32F3xx_HAL_Driver/Src/stm32f3xx_hal_uart.c ****   * @param hdma DMA handle.
2421:Drivers/STM32F3xx_HAL_Driver/Src/stm32f3xx_hal_uart.c ****   * @retval None
2422:Drivers/STM32F3xx_HAL_Driver/Src/stm32f3xx_hal_uart.c ****   */
2423:Drivers/STM32F3xx_HAL_Driver/Src/stm32f3xx_hal_uart.c **** static void UART_DMATxHalfCplt(DMA_HandleTypeDef *hdma)
2424:Drivers/STM32F3xx_HAL_Driver/Src/stm32f3xx_hal_uart.c **** {
 1395              		.loc 1 2424 1 is_stmt 1 view -0
 1396              		.cfi_startproc
 1397              		@ args = 0, pretend = 0, frame = 0
 1398              		@ frame_needed = 0, uses_anonymous_args = 0
2425:Drivers/STM32F3xx_HAL_Driver/Src/stm32f3xx_hal_uart.c ****   UART_HandleTypeDef* huart = (UART_HandleTypeDef*)(hdma->Parent);
 1399              		.loc 1 2425 3 view .LVU459
2426:Drivers/STM32F3xx_HAL_Driver/Src/stm32f3xx_hal_uart.c **** 
2427:Drivers/STM32F3xx_HAL_Driver/Src/stm32f3xx_hal_uart.c ****   HAL_UART_TxHalfCpltCallback(huart);
 1400              		.loc 1 2427 3 view .LVU460
2424:Drivers/STM32F3xx_HAL_Driver/Src/stm32f3xx_hal_uart.c ****   UART_HandleTypeDef* huart = (UART_HandleTypeDef*)(hdma->Parent);
 1401              		.loc 1 2424 1 is_stmt 0 view .LVU461
 1402 0000 08B5     		push	{r3, lr}
 1403              	.LCFI12:
 1404              		.cfi_def_cfa_offset 8
 1405              		.cfi_offset 3, -8
 1406              		.cfi_offset 14, -4
 1407              		.loc 1 2427 3 view .LVU462
 1408 0002 406A     		ldr	r0, [r0, #36]
 1409              	.LVL70:
 1410              		.loc 1 2427 3 view .LVU463
 1411 0004 FFF7FEFF 		bl	HAL_UART_TxHalfCpltCallback
 1412              	.LVL71:
2428:Drivers/STM32F3xx_HAL_Driver/Src/stm32f3xx_hal_uart.c **** }
 1413              		.loc 1 2428 1 view .LVU464
 1414 0008 08BD     		pop	{r3, pc}
 1415              		.cfi_endproc
 1416              	.LFE172:
 1418 000a 00BF     		.section	.text.HAL_UART_RxCpltCallback,"ax",%progbits
 1419              		.align	1
 1420              		.p2align 2,,3
 1421              		.weak	HAL_UART_RxCpltCallback
 1422              		.syntax unified
 1423              		.thumb
 1424              		.thumb_func
 1425              		.fpu fpv4-sp-d16
 1427              	HAL_UART_RxCpltCallback:
 1428              	.LFB195:
 1429              		.cfi_startproc
 1430              		@ args = 0, pretend = 0, frame = 0
ARM GAS  /var/folders/8c/gyvcglfx7f97kbqb2h83mm_r0000gn/T//ccv1qdBn.s 			page 73


 1431              		@ frame_needed = 0, uses_anonymous_args = 0
 1432              		@ link register save eliminated.
 1433 0000 7047     		bx	lr
 1434              		.cfi_endproc
 1435              	.LFE195:
 1437 0002 00BF     		.section	.text.UART_DMAReceiveCplt,"ax",%progbits
 1438              		.align	1
 1439              		.p2align 2,,3
 1440              		.syntax unified
 1441              		.thumb
 1442              		.thumb_func
 1443              		.fpu fpv4-sp-d16
 1445              	UART_DMAReceiveCplt:
 1446              	.LVL72:
 1447              	.LFB173:
2429:Drivers/STM32F3xx_HAL_Driver/Src/stm32f3xx_hal_uart.c **** 
2430:Drivers/STM32F3xx_HAL_Driver/Src/stm32f3xx_hal_uart.c **** /**
2431:Drivers/STM32F3xx_HAL_Driver/Src/stm32f3xx_hal_uart.c ****   * @brief DMA UART receive process complete callback.
2432:Drivers/STM32F3xx_HAL_Driver/Src/stm32f3xx_hal_uart.c ****   * @param hdma DMA handle.
2433:Drivers/STM32F3xx_HAL_Driver/Src/stm32f3xx_hal_uart.c ****   * @retval None
2434:Drivers/STM32F3xx_HAL_Driver/Src/stm32f3xx_hal_uart.c ****   */
2435:Drivers/STM32F3xx_HAL_Driver/Src/stm32f3xx_hal_uart.c **** static void UART_DMAReceiveCplt(DMA_HandleTypeDef *hdma)
2436:Drivers/STM32F3xx_HAL_Driver/Src/stm32f3xx_hal_uart.c **** {
 1448              		.loc 1 2436 1 is_stmt 1 view -0
 1449              		.cfi_startproc
 1450              		@ args = 0, pretend = 0, frame = 0
 1451              		@ frame_needed = 0, uses_anonymous_args = 0
2437:Drivers/STM32F3xx_HAL_Driver/Src/stm32f3xx_hal_uart.c ****   UART_HandleTypeDef* huart = (UART_HandleTypeDef*)(hdma->Parent);
 1452              		.loc 1 2437 3 view .LVU466
2436:Drivers/STM32F3xx_HAL_Driver/Src/stm32f3xx_hal_uart.c ****   UART_HandleTypeDef* huart = (UART_HandleTypeDef*)(hdma->Parent);
 1453              		.loc 1 2436 1 is_stmt 0 view .LVU467
 1454 0000 08B5     		push	{r3, lr}
 1455              	.LCFI13:
 1456              		.cfi_def_cfa_offset 8
 1457              		.cfi_offset 3, -8
 1458              		.cfi_offset 14, -4
2438:Drivers/STM32F3xx_HAL_Driver/Src/stm32f3xx_hal_uart.c **** 
2439:Drivers/STM32F3xx_HAL_Driver/Src/stm32f3xx_hal_uart.c ****   /* DMA Normal mode */
2440:Drivers/STM32F3xx_HAL_Driver/Src/stm32f3xx_hal_uart.c ****   if ( HAL_IS_BIT_CLR(hdma->Instance->CCR, DMA_CCR_CIRC) )
 1459              		.loc 1 2440 8 view .LVU468
 1460 0002 0368     		ldr	r3, [r0]
2437:Drivers/STM32F3xx_HAL_Driver/Src/stm32f3xx_hal_uart.c **** 
 1461              		.loc 1 2437 23 view .LVU469
 1462 0004 406A     		ldr	r0, [r0, #36]
 1463              	.LVL73:
 1464              		.loc 1 2440 3 is_stmt 1 view .LVU470
 1465              		.loc 1 2440 8 is_stmt 0 view .LVU471
 1466 0006 1B68     		ldr	r3, [r3]
 1467              		.loc 1 2440 6 view .LVU472
 1468 0008 13F02003 		ands	r3, r3, #32
 1469 000c 11D1     		bne	.L141
2441:Drivers/STM32F3xx_HAL_Driver/Src/stm32f3xx_hal_uart.c ****   {
2442:Drivers/STM32F3xx_HAL_Driver/Src/stm32f3xx_hal_uart.c ****     huart->RxXferCount = 0U;
 1470              		.loc 1 2442 5 is_stmt 1 view .LVU473
2443:Drivers/STM32F3xx_HAL_Driver/Src/stm32f3xx_hal_uart.c **** 
2444:Drivers/STM32F3xx_HAL_Driver/Src/stm32f3xx_hal_uart.c ****     /* Disable PE and ERR (Frame error, noise error, overrun error) interrupts */
2445:Drivers/STM32F3xx_HAL_Driver/Src/stm32f3xx_hal_uart.c ****     CLEAR_BIT(huart->Instance->CR1, USART_CR1_PEIE);
ARM GAS  /var/folders/8c/gyvcglfx7f97kbqb2h83mm_r0000gn/T//ccv1qdBn.s 			page 74


 1471              		.loc 1 2445 5 is_stmt 0 view .LVU474
 1472 000e 0268     		ldr	r2, [r0]
2442:Drivers/STM32F3xx_HAL_Driver/Src/stm32f3xx_hal_uart.c **** 
 1473              		.loc 1 2442 24 view .LVU475
 1474 0010 A0F85A30 		strh	r3, [r0, #90]	@ movhi
 1475              		.loc 1 2445 5 is_stmt 1 view .LVU476
 1476 0014 1368     		ldr	r3, [r2]
 1477 0016 23F48073 		bic	r3, r3, #256
 1478 001a 1360     		str	r3, [r2]
2446:Drivers/STM32F3xx_HAL_Driver/Src/stm32f3xx_hal_uart.c ****     CLEAR_BIT(huart->Instance->CR3, USART_CR3_EIE);
 1479              		.loc 1 2446 5 view .LVU477
 1480 001c 9368     		ldr	r3, [r2, #8]
 1481 001e 23F00103 		bic	r3, r3, #1
 1482 0022 9360     		str	r3, [r2, #8]
2447:Drivers/STM32F3xx_HAL_Driver/Src/stm32f3xx_hal_uart.c **** 
2448:Drivers/STM32F3xx_HAL_Driver/Src/stm32f3xx_hal_uart.c ****     /* Disable the DMA transfer for the receiver request by resetting the DMAR bit
2449:Drivers/STM32F3xx_HAL_Driver/Src/stm32f3xx_hal_uart.c ****        in the UART CR3 register */
2450:Drivers/STM32F3xx_HAL_Driver/Src/stm32f3xx_hal_uart.c ****     CLEAR_BIT(huart->Instance->CR3, USART_CR3_DMAR);
 1483              		.loc 1 2450 5 view .LVU478
 1484 0024 9368     		ldr	r3, [r2, #8]
2451:Drivers/STM32F3xx_HAL_Driver/Src/stm32f3xx_hal_uart.c **** 
2452:Drivers/STM32F3xx_HAL_Driver/Src/stm32f3xx_hal_uart.c ****     /* At end of Rx process, restore huart->RxState to Ready */
2453:Drivers/STM32F3xx_HAL_Driver/Src/stm32f3xx_hal_uart.c ****     huart->RxState = HAL_UART_STATE_READY;
 1485              		.loc 1 2453 20 is_stmt 0 view .LVU479
 1486 0026 2021     		movs	r1, #32
2450:Drivers/STM32F3xx_HAL_Driver/Src/stm32f3xx_hal_uart.c **** 
 1487              		.loc 1 2450 5 view .LVU480
 1488 0028 23F04003 		bic	r3, r3, #64
 1489 002c 9360     		str	r3, [r2, #8]
 1490              		.loc 1 2453 5 is_stmt 1 view .LVU481
 1491              		.loc 1 2453 20 is_stmt 0 view .LVU482
 1492 002e 80F86A10 		strb	r1, [r0, #106]
 1493              	.L141:
2454:Drivers/STM32F3xx_HAL_Driver/Src/stm32f3xx_hal_uart.c ****   }
2455:Drivers/STM32F3xx_HAL_Driver/Src/stm32f3xx_hal_uart.c **** 
2456:Drivers/STM32F3xx_HAL_Driver/Src/stm32f3xx_hal_uart.c ****   HAL_UART_RxCpltCallback(huart);
 1494              		.loc 1 2456 3 is_stmt 1 view .LVU483
 1495 0032 FFF7FEFF 		bl	HAL_UART_RxCpltCallback
 1496              	.LVL74:
2457:Drivers/STM32F3xx_HAL_Driver/Src/stm32f3xx_hal_uart.c **** }
 1497              		.loc 1 2457 1 is_stmt 0 view .LVU484
 1498 0036 08BD     		pop	{r3, pc}
 1499              		.cfi_endproc
 1500              	.LFE173:
 1502              		.section	.text.HAL_UART_RxHalfCpltCallback,"ax",%progbits
 1503              		.align	1
 1504              		.p2align 2,,3
 1505              		.weak	HAL_UART_RxHalfCpltCallback
 1506              		.syntax unified
 1507              		.thumb
 1508              		.thumb_func
 1509              		.fpu fpv4-sp-d16
 1511              	HAL_UART_RxHalfCpltCallback:
 1512              	.LFB197:
 1513              		.cfi_startproc
 1514              		@ args = 0, pretend = 0, frame = 0
 1515              		@ frame_needed = 0, uses_anonymous_args = 0
ARM GAS  /var/folders/8c/gyvcglfx7f97kbqb2h83mm_r0000gn/T//ccv1qdBn.s 			page 75


 1516              		@ link register save eliminated.
 1517 0000 7047     		bx	lr
 1518              		.cfi_endproc
 1519              	.LFE197:
 1521 0002 00BF     		.section	.text.UART_DMARxHalfCplt,"ax",%progbits
 1522              		.align	1
 1523              		.p2align 2,,3
 1524              		.syntax unified
 1525              		.thumb
 1526              		.thumb_func
 1527              		.fpu fpv4-sp-d16
 1529              	UART_DMARxHalfCplt:
 1530              	.LVL75:
 1531              	.LFB174:
2458:Drivers/STM32F3xx_HAL_Driver/Src/stm32f3xx_hal_uart.c **** 
2459:Drivers/STM32F3xx_HAL_Driver/Src/stm32f3xx_hal_uart.c **** /**
2460:Drivers/STM32F3xx_HAL_Driver/Src/stm32f3xx_hal_uart.c ****   * @brief DMA UART receive process half complete callback.
2461:Drivers/STM32F3xx_HAL_Driver/Src/stm32f3xx_hal_uart.c ****   * @param hdma DMA handle.
2462:Drivers/STM32F3xx_HAL_Driver/Src/stm32f3xx_hal_uart.c ****   * @retval None
2463:Drivers/STM32F3xx_HAL_Driver/Src/stm32f3xx_hal_uart.c ****   */
2464:Drivers/STM32F3xx_HAL_Driver/Src/stm32f3xx_hal_uart.c **** static void UART_DMARxHalfCplt(DMA_HandleTypeDef *hdma)
2465:Drivers/STM32F3xx_HAL_Driver/Src/stm32f3xx_hal_uart.c **** {
 1532              		.loc 1 2465 1 is_stmt 1 view -0
 1533              		.cfi_startproc
 1534              		@ args = 0, pretend = 0, frame = 0
 1535              		@ frame_needed = 0, uses_anonymous_args = 0
2466:Drivers/STM32F3xx_HAL_Driver/Src/stm32f3xx_hal_uart.c ****   UART_HandleTypeDef* huart = (UART_HandleTypeDef*)(hdma->Parent);
 1536              		.loc 1 2466 3 view .LVU486
2467:Drivers/STM32F3xx_HAL_Driver/Src/stm32f3xx_hal_uart.c **** 
2468:Drivers/STM32F3xx_HAL_Driver/Src/stm32f3xx_hal_uart.c ****   HAL_UART_RxHalfCpltCallback(huart);
 1537              		.loc 1 2468 3 view .LVU487
2465:Drivers/STM32F3xx_HAL_Driver/Src/stm32f3xx_hal_uart.c ****   UART_HandleTypeDef* huart = (UART_HandleTypeDef*)(hdma->Parent);
 1538              		.loc 1 2465 1 is_stmt 0 view .LVU488
 1539 0000 08B5     		push	{r3, lr}
 1540              	.LCFI14:
 1541              		.cfi_def_cfa_offset 8
 1542              		.cfi_offset 3, -8
 1543              		.cfi_offset 14, -4
 1544              		.loc 1 2468 3 view .LVU489
 1545 0002 406A     		ldr	r0, [r0, #36]
 1546              	.LVL76:
 1547              		.loc 1 2468 3 view .LVU490
 1548 0004 FFF7FEFF 		bl	HAL_UART_RxHalfCpltCallback
 1549              	.LVL77:
2469:Drivers/STM32F3xx_HAL_Driver/Src/stm32f3xx_hal_uart.c **** }
 1550              		.loc 1 2469 1 view .LVU491
 1551 0008 08BD     		pop	{r3, pc}
 1552              		.cfi_endproc
 1553              	.LFE174:
 1555 000a 00BF     		.section	.text.HAL_UART_ErrorCallback,"ax",%progbits
 1556              		.align	1
 1557              		.p2align 2,,3
 1558              		.weak	HAL_UART_ErrorCallback
 1559              		.syntax unified
 1560              		.thumb
 1561              		.thumb_func
 1562              		.fpu fpv4-sp-d16
ARM GAS  /var/folders/8c/gyvcglfx7f97kbqb2h83mm_r0000gn/T//ccv1qdBn.s 			page 76


 1564              	HAL_UART_ErrorCallback:
 1565              	.LFB199:
 1566              		.cfi_startproc
 1567              		@ args = 0, pretend = 0, frame = 0
 1568              		@ frame_needed = 0, uses_anonymous_args = 0
 1569              		@ link register save eliminated.
 1570 0000 7047     		bx	lr
 1571              		.cfi_endproc
 1572              	.LFE199:
 1574 0002 00BF     		.section	.text.UART_DMAError,"ax",%progbits
 1575              		.align	1
 1576              		.p2align 2,,3
 1577              		.syntax unified
 1578              		.thumb
 1579              		.thumb_func
 1580              		.fpu fpv4-sp-d16
 1582              	UART_DMAError:
 1583              	.LVL78:
 1584              	.LFB175:
2470:Drivers/STM32F3xx_HAL_Driver/Src/stm32f3xx_hal_uart.c **** 
2471:Drivers/STM32F3xx_HAL_Driver/Src/stm32f3xx_hal_uart.c **** /**
2472:Drivers/STM32F3xx_HAL_Driver/Src/stm32f3xx_hal_uart.c ****   * @brief DMA UART communication error callback.
2473:Drivers/STM32F3xx_HAL_Driver/Src/stm32f3xx_hal_uart.c ****   * @param hdma DMA handle.
2474:Drivers/STM32F3xx_HAL_Driver/Src/stm32f3xx_hal_uart.c ****   * @retval None
2475:Drivers/STM32F3xx_HAL_Driver/Src/stm32f3xx_hal_uart.c ****   */
2476:Drivers/STM32F3xx_HAL_Driver/Src/stm32f3xx_hal_uart.c **** static void UART_DMAError(DMA_HandleTypeDef *hdma)
2477:Drivers/STM32F3xx_HAL_Driver/Src/stm32f3xx_hal_uart.c **** {
 1585              		.loc 1 2477 1 is_stmt 1 view -0
 1586              		.cfi_startproc
 1587              		@ args = 0, pretend = 0, frame = 0
 1588              		@ frame_needed = 0, uses_anonymous_args = 0
2478:Drivers/STM32F3xx_HAL_Driver/Src/stm32f3xx_hal_uart.c ****   UART_HandleTypeDef* huart = (UART_HandleTypeDef*)(hdma->Parent);
 1589              		.loc 1 2478 3 view .LVU493
 1590              		.loc 1 2478 23 is_stmt 0 view .LVU494
 1591 0000 406A     		ldr	r0, [r0, #36]
 1592              	.LVL79:
2479:Drivers/STM32F3xx_HAL_Driver/Src/stm32f3xx_hal_uart.c **** 
2480:Drivers/STM32F3xx_HAL_Driver/Src/stm32f3xx_hal_uart.c ****   /* Stop UART DMA Tx request if ongoing */
2481:Drivers/STM32F3xx_HAL_Driver/Src/stm32f3xx_hal_uart.c ****   if (  (huart->gState == HAL_UART_STATE_BUSY_TX)
 1593              		.loc 1 2481 3 is_stmt 1 view .LVU495
2477:Drivers/STM32F3xx_HAL_Driver/Src/stm32f3xx_hal_uart.c ****   UART_HandleTypeDef* huart = (UART_HandleTypeDef*)(hdma->Parent);
 1594              		.loc 1 2477 1 is_stmt 0 view .LVU496
 1595 0002 08B5     		push	{r3, lr}
 1596              	.LCFI15:
 1597              		.cfi_def_cfa_offset 8
 1598              		.cfi_offset 3, -8
 1599              		.cfi_offset 14, -4
 1600              		.loc 1 2481 15 view .LVU497
 1601 0004 90F86930 		ldrb	r3, [r0, #105]	@ zero_extendqisi2
 1602              		.loc 1 2481 6 view .LVU498
 1603 0008 212B     		cmp	r3, #33
 1604 000a 0AD0     		beq	.L157
 1605              	.L148:
2482:Drivers/STM32F3xx_HAL_Driver/Src/stm32f3xx_hal_uart.c ****       &&(HAL_IS_BIT_SET(huart->Instance->CR3, USART_CR3_DMAT)) )
2483:Drivers/STM32F3xx_HAL_Driver/Src/stm32f3xx_hal_uart.c ****   {
2484:Drivers/STM32F3xx_HAL_Driver/Src/stm32f3xx_hal_uart.c ****     huart->TxXferCount = 0U;
2485:Drivers/STM32F3xx_HAL_Driver/Src/stm32f3xx_hal_uart.c ****     UART_EndTxTransfer(huart);
ARM GAS  /var/folders/8c/gyvcglfx7f97kbqb2h83mm_r0000gn/T//ccv1qdBn.s 			page 77


2486:Drivers/STM32F3xx_HAL_Driver/Src/stm32f3xx_hal_uart.c ****   }
2487:Drivers/STM32F3xx_HAL_Driver/Src/stm32f3xx_hal_uart.c **** 
2488:Drivers/STM32F3xx_HAL_Driver/Src/stm32f3xx_hal_uart.c ****   /* Stop UART DMA Rx request if ongoing */
2489:Drivers/STM32F3xx_HAL_Driver/Src/stm32f3xx_hal_uart.c ****   if (  (huart->RxState == HAL_UART_STATE_BUSY_RX)
 1606              		.loc 1 2489 3 is_stmt 1 view .LVU499
 1607              		.loc 1 2489 15 is_stmt 0 view .LVU500
 1608 000c 90F86A30 		ldrb	r3, [r0, #106]	@ zero_extendqisi2
 1609              		.loc 1 2489 6 view .LVU501
 1610 0010 222B     		cmp	r3, #34
 1611 0012 18D0     		beq	.L158
 1612              	.L149:
2490:Drivers/STM32F3xx_HAL_Driver/Src/stm32f3xx_hal_uart.c ****       &&(HAL_IS_BIT_SET(huart->Instance->CR3, USART_CR3_DMAR)) )
2491:Drivers/STM32F3xx_HAL_Driver/Src/stm32f3xx_hal_uart.c ****   {
2492:Drivers/STM32F3xx_HAL_Driver/Src/stm32f3xx_hal_uart.c ****     huart->RxXferCount = 0U;
2493:Drivers/STM32F3xx_HAL_Driver/Src/stm32f3xx_hal_uart.c ****     UART_EndRxTransfer(huart);
2494:Drivers/STM32F3xx_HAL_Driver/Src/stm32f3xx_hal_uart.c ****   }
2495:Drivers/STM32F3xx_HAL_Driver/Src/stm32f3xx_hal_uart.c **** 
2496:Drivers/STM32F3xx_HAL_Driver/Src/stm32f3xx_hal_uart.c ****   huart->ErrorCode |= HAL_UART_ERROR_DMA;
 1613              		.loc 1 2496 3 is_stmt 1 view .LVU502
 1614              		.loc 1 2496 20 is_stmt 0 view .LVU503
 1615 0014 C36E     		ldr	r3, [r0, #108]
 1616 0016 43F01003 		orr	r3, r3, #16
 1617 001a C366     		str	r3, [r0, #108]
2497:Drivers/STM32F3xx_HAL_Driver/Src/stm32f3xx_hal_uart.c ****   HAL_UART_ErrorCallback(huart);
 1618              		.loc 1 2497 3 is_stmt 1 view .LVU504
 1619 001c FFF7FEFF 		bl	HAL_UART_ErrorCallback
 1620              	.LVL80:
2498:Drivers/STM32F3xx_HAL_Driver/Src/stm32f3xx_hal_uart.c **** }
 1621              		.loc 1 2498 1 is_stmt 0 view .LVU505
 1622 0020 08BD     		pop	{r3, pc}
 1623              	.LVL81:
 1624              	.L157:
2482:Drivers/STM32F3xx_HAL_Driver/Src/stm32f3xx_hal_uart.c ****   {
 1625              		.loc 1 2482 10 view .LVU506
 1626 0022 0368     		ldr	r3, [r0]
 1627 0024 9A68     		ldr	r2, [r3, #8]
2482:Drivers/STM32F3xx_HAL_Driver/Src/stm32f3xx_hal_uart.c ****   {
 1628              		.loc 1 2482 7 view .LVU507
 1629 0026 1106     		lsls	r1, r2, #24
 1630 0028 F0D5     		bpl	.L148
2484:Drivers/STM32F3xx_HAL_Driver/Src/stm32f3xx_hal_uart.c ****     UART_EndTxTransfer(huart);
 1631              		.loc 1 2484 5 is_stmt 1 view .LVU508
2484:Drivers/STM32F3xx_HAL_Driver/Src/stm32f3xx_hal_uart.c ****     UART_EndTxTransfer(huart);
 1632              		.loc 1 2484 24 is_stmt 0 view .LVU509
 1633 002a 0022     		movs	r2, #0
 1634 002c A0F85220 		strh	r2, [r0, #82]	@ movhi
2485:Drivers/STM32F3xx_HAL_Driver/Src/stm32f3xx_hal_uart.c ****   }
 1635              		.loc 1 2485 5 is_stmt 1 view .LVU510
 1636              	.LVL82:
 1637              	.LBB20:
 1638              	.LBI20:
2363:Drivers/STM32F3xx_HAL_Driver/Src/stm32f3xx_hal_uart.c **** {
 1639              		.loc 1 2363 13 view .LVU511
 1640              	.LBB21:
2366:Drivers/STM32F3xx_HAL_Driver/Src/stm32f3xx_hal_uart.c **** 
 1641              		.loc 1 2366 3 view .LVU512
 1642 0030 1A68     		ldr	r2, [r3]
ARM GAS  /var/folders/8c/gyvcglfx7f97kbqb2h83mm_r0000gn/T//ccv1qdBn.s 			page 78


2369:Drivers/STM32F3xx_HAL_Driver/Src/stm32f3xx_hal_uart.c **** }
 1643              		.loc 1 2369 17 is_stmt 0 view .LVU513
 1644 0032 2021     		movs	r1, #32
2366:Drivers/STM32F3xx_HAL_Driver/Src/stm32f3xx_hal_uart.c **** 
 1645              		.loc 1 2366 3 view .LVU514
 1646 0034 22F0C002 		bic	r2, r2, #192
 1647 0038 1A60     		str	r2, [r3]
2369:Drivers/STM32F3xx_HAL_Driver/Src/stm32f3xx_hal_uart.c **** }
 1648              		.loc 1 2369 3 is_stmt 1 view .LVU515
2369:Drivers/STM32F3xx_HAL_Driver/Src/stm32f3xx_hal_uart.c **** }
 1649              		.loc 1 2369 17 is_stmt 0 view .LVU516
 1650 003a 80F86910 		strb	r1, [r0, #105]
 1651              	.LBE21:
 1652              	.LBE20:
2489:Drivers/STM32F3xx_HAL_Driver/Src/stm32f3xx_hal_uart.c ****       &&(HAL_IS_BIT_SET(huart->Instance->CR3, USART_CR3_DMAR)) )
 1653              		.loc 1 2489 3 is_stmt 1 view .LVU517
2489:Drivers/STM32F3xx_HAL_Driver/Src/stm32f3xx_hal_uart.c ****       &&(HAL_IS_BIT_SET(huart->Instance->CR3, USART_CR3_DMAR)) )
 1654              		.loc 1 2489 15 is_stmt 0 view .LVU518
 1655 003e 90F86A30 		ldrb	r3, [r0, #106]	@ zero_extendqisi2
2489:Drivers/STM32F3xx_HAL_Driver/Src/stm32f3xx_hal_uart.c ****       &&(HAL_IS_BIT_SET(huart->Instance->CR3, USART_CR3_DMAR)) )
 1656              		.loc 1 2489 6 view .LVU519
 1657 0042 222B     		cmp	r3, #34
 1658 0044 E6D1     		bne	.L149
 1659              	.LVL83:
 1660              	.L158:
2490:Drivers/STM32F3xx_HAL_Driver/Src/stm32f3xx_hal_uart.c ****   {
 1661              		.loc 1 2490 10 view .LVU520
 1662 0046 0368     		ldr	r3, [r0]
 1663 0048 9A68     		ldr	r2, [r3, #8]
2490:Drivers/STM32F3xx_HAL_Driver/Src/stm32f3xx_hal_uart.c ****   {
 1664              		.loc 1 2490 7 view .LVU521
 1665 004a 5206     		lsls	r2, r2, #25
 1666 004c E2D5     		bpl	.L149
2492:Drivers/STM32F3xx_HAL_Driver/Src/stm32f3xx_hal_uart.c ****     UART_EndRxTransfer(huart);
 1667              		.loc 1 2492 5 is_stmt 1 view .LVU522
2492:Drivers/STM32F3xx_HAL_Driver/Src/stm32f3xx_hal_uart.c ****     UART_EndRxTransfer(huart);
 1668              		.loc 1 2492 24 is_stmt 0 view .LVU523
 1669 004e 0022     		movs	r2, #0
 1670 0050 A0F85A20 		strh	r2, [r0, #90]	@ movhi
2493:Drivers/STM32F3xx_HAL_Driver/Src/stm32f3xx_hal_uart.c ****   }
 1671              		.loc 1 2493 5 is_stmt 1 view .LVU524
 1672              	.LVL84:
 1673              	.LBB22:
 1674              	.LBI22:
2378:Drivers/STM32F3xx_HAL_Driver/Src/stm32f3xx_hal_uart.c **** {
 1675              		.loc 1 2378 13 view .LVU525
 1676              	.LBB23:
2381:Drivers/STM32F3xx_HAL_Driver/Src/stm32f3xx_hal_uart.c ****   CLEAR_BIT(huart->Instance->CR3, USART_CR3_EIE);
 1677              		.loc 1 2381 3 view .LVU526
 1678 0054 1A68     		ldr	r2, [r3]
 1679 0056 22F49072 		bic	r2, r2, #288
 1680 005a 1A60     		str	r2, [r3]
2382:Drivers/STM32F3xx_HAL_Driver/Src/stm32f3xx_hal_uart.c **** 
 1681              		.loc 1 2382 3 view .LVU527
 1682 005c 9A68     		ldr	r2, [r3, #8]
2385:Drivers/STM32F3xx_HAL_Driver/Src/stm32f3xx_hal_uart.c **** }
 1683              		.loc 1 2385 18 is_stmt 0 view .LVU528
ARM GAS  /var/folders/8c/gyvcglfx7f97kbqb2h83mm_r0000gn/T//ccv1qdBn.s 			page 79


 1684 005e 2021     		movs	r1, #32
2382:Drivers/STM32F3xx_HAL_Driver/Src/stm32f3xx_hal_uart.c **** 
 1685              		.loc 1 2382 3 view .LVU529
 1686 0060 22F00102 		bic	r2, r2, #1
 1687 0064 9A60     		str	r2, [r3, #8]
2385:Drivers/STM32F3xx_HAL_Driver/Src/stm32f3xx_hal_uart.c **** }
 1688              		.loc 1 2385 3 is_stmt 1 view .LVU530
2385:Drivers/STM32F3xx_HAL_Driver/Src/stm32f3xx_hal_uart.c **** }
 1689              		.loc 1 2385 18 is_stmt 0 view .LVU531
 1690 0066 80F86A10 		strb	r1, [r0, #106]
 1691 006a D3E7     		b	.L149
 1692              	.LBE23:
 1693              	.LBE22:
 1694              		.cfi_endproc
 1695              	.LFE175:
 1697              		.section	.text.UART_DMAAbortOnError,"ax",%progbits
 1698              		.align	1
 1699              		.p2align 2,,3
 1700              		.syntax unified
 1701              		.thumb
 1702              		.thumb_func
 1703              		.fpu fpv4-sp-d16
 1705              	UART_DMAAbortOnError:
 1706              	.LVL85:
 1707              	.LFB176:
2499:Drivers/STM32F3xx_HAL_Driver/Src/stm32f3xx_hal_uart.c **** 
2500:Drivers/STM32F3xx_HAL_Driver/Src/stm32f3xx_hal_uart.c **** /**
2501:Drivers/STM32F3xx_HAL_Driver/Src/stm32f3xx_hal_uart.c ****   * @brief  DMA UART communication abort callback, when initiated by HAL services on Error
2502:Drivers/STM32F3xx_HAL_Driver/Src/stm32f3xx_hal_uart.c ****   *         (To be called at end of DMA Abort procedure following error occurrence).
2503:Drivers/STM32F3xx_HAL_Driver/Src/stm32f3xx_hal_uart.c ****   * @param  hdma DMA handle.
2504:Drivers/STM32F3xx_HAL_Driver/Src/stm32f3xx_hal_uart.c ****   * @retval None
2505:Drivers/STM32F3xx_HAL_Driver/Src/stm32f3xx_hal_uart.c ****   */
2506:Drivers/STM32F3xx_HAL_Driver/Src/stm32f3xx_hal_uart.c **** static void UART_DMAAbortOnError(DMA_HandleTypeDef *hdma)
2507:Drivers/STM32F3xx_HAL_Driver/Src/stm32f3xx_hal_uart.c **** {
 1708              		.loc 1 2507 1 is_stmt 1 view -0
 1709              		.cfi_startproc
 1710              		@ args = 0, pretend = 0, frame = 0
 1711              		@ frame_needed = 0, uses_anonymous_args = 0
2508:Drivers/STM32F3xx_HAL_Driver/Src/stm32f3xx_hal_uart.c ****   UART_HandleTypeDef* huart = (UART_HandleTypeDef*)(hdma->Parent);
 1712              		.loc 1 2508 3 view .LVU533
2507:Drivers/STM32F3xx_HAL_Driver/Src/stm32f3xx_hal_uart.c ****   UART_HandleTypeDef* huart = (UART_HandleTypeDef*)(hdma->Parent);
 1713              		.loc 1 2507 1 is_stmt 0 view .LVU534
 1714 0000 08B5     		push	{r3, lr}
 1715              	.LCFI16:
 1716              		.cfi_def_cfa_offset 8
 1717              		.cfi_offset 3, -8
 1718              		.cfi_offset 14, -4
 1719              		.loc 1 2508 23 view .LVU535
 1720 0002 436A     		ldr	r3, [r0, #36]
 1721              	.LVL86:
2509:Drivers/STM32F3xx_HAL_Driver/Src/stm32f3xx_hal_uart.c ****   huart->RxXferCount = 0U;
 1722              		.loc 1 2509 3 is_stmt 1 view .LVU536
 1723              		.loc 1 2509 22 is_stmt 0 view .LVU537
 1724 0004 0022     		movs	r2, #0
 1725 0006 A3F85A20 		strh	r2, [r3, #90]	@ movhi
2510:Drivers/STM32F3xx_HAL_Driver/Src/stm32f3xx_hal_uart.c ****   huart->TxXferCount = 0U;
 1726              		.loc 1 2510 3 is_stmt 1 view .LVU538
ARM GAS  /var/folders/8c/gyvcglfx7f97kbqb2h83mm_r0000gn/T//ccv1qdBn.s 			page 80


2511:Drivers/STM32F3xx_HAL_Driver/Src/stm32f3xx_hal_uart.c **** 
2512:Drivers/STM32F3xx_HAL_Driver/Src/stm32f3xx_hal_uart.c ****   HAL_UART_ErrorCallback(huart);
 1727              		.loc 1 2512 3 is_stmt 0 view .LVU539
 1728 000a 1846     		mov	r0, r3
 1729              	.LVL87:
2510:Drivers/STM32F3xx_HAL_Driver/Src/stm32f3xx_hal_uart.c ****   huart->TxXferCount = 0U;
 1730              		.loc 1 2510 22 view .LVU540
 1731 000c A3F85220 		strh	r2, [r3, #82]	@ movhi
 1732              		.loc 1 2512 3 is_stmt 1 view .LVU541
 1733 0010 FFF7FEFF 		bl	HAL_UART_ErrorCallback
 1734              	.LVL88:
2513:Drivers/STM32F3xx_HAL_Driver/Src/stm32f3xx_hal_uart.c **** }
 1735              		.loc 1 2513 1 is_stmt 0 view .LVU542
 1736 0014 08BD     		pop	{r3, pc}
 1737              		.cfi_endproc
 1738              	.LFE176:
 1740 0016 00BF     		.section	.text.HAL_UART_AbortCpltCallback,"ax",%progbits
 1741              		.align	1
 1742              		.p2align 2,,3
 1743              		.weak	HAL_UART_AbortCpltCallback
 1744              		.syntax unified
 1745              		.thumb
 1746              		.thumb_func
 1747              		.fpu fpv4-sp-d16
 1749              	HAL_UART_AbortCpltCallback:
 1750              	.LFB201:
 1751              		.cfi_startproc
 1752              		@ args = 0, pretend = 0, frame = 0
 1753              		@ frame_needed = 0, uses_anonymous_args = 0
 1754              		@ link register save eliminated.
 1755 0000 7047     		bx	lr
 1756              		.cfi_endproc
 1757              	.LFE201:
 1759 0002 00BF     		.section	.text.HAL_UART_Abort_IT,"ax",%progbits
 1760              		.align	1
 1761              		.p2align 2,,3
 1762              		.global	HAL_UART_Abort_IT
 1763              		.syntax unified
 1764              		.thumb
 1765              		.thumb_func
 1766              		.fpu fpv4-sp-d16
 1768              	HAL_UART_Abort_IT:
 1769              	.LVL89:
 1770              	.LFB145:
1364:Drivers/STM32F3xx_HAL_Driver/Src/stm32f3xx_hal_uart.c ****   uint32_t abortcplt = 1U;
 1771              		.loc 1 1364 1 is_stmt 1 view -0
 1772              		.cfi_startproc
 1773              		@ args = 0, pretend = 0, frame = 0
 1774              		@ frame_needed = 0, uses_anonymous_args = 0
1365:Drivers/STM32F3xx_HAL_Driver/Src/stm32f3xx_hal_uart.c ****   
 1775              		.loc 1 1365 3 view .LVU544
1368:Drivers/STM32F3xx_HAL_Driver/Src/stm32f3xx_hal_uart.c ****   CLEAR_BIT(huart->Instance->CR3, USART_CR3_EIE);
 1776              		.loc 1 1368 3 view .LVU545
1364:Drivers/STM32F3xx_HAL_Driver/Src/stm32f3xx_hal_uart.c ****   uint32_t abortcplt = 1U;
 1777              		.loc 1 1364 1 is_stmt 0 view .LVU546
 1778 0000 38B5     		push	{r3, r4, r5, lr}
 1779              	.LCFI17:
ARM GAS  /var/folders/8c/gyvcglfx7f97kbqb2h83mm_r0000gn/T//ccv1qdBn.s 			page 81


 1780              		.cfi_def_cfa_offset 16
 1781              		.cfi_offset 3, -16
 1782              		.cfi_offset 4, -12
 1783              		.cfi_offset 5, -8
 1784              		.cfi_offset 14, -4
1368:Drivers/STM32F3xx_HAL_Driver/Src/stm32f3xx_hal_uart.c ****   CLEAR_BIT(huart->Instance->CR3, USART_CR3_EIE);
 1785              		.loc 1 1368 3 view .LVU547
 1786 0002 0368     		ldr	r3, [r0]
 1787 0004 1A68     		ldr	r2, [r3]
 1788 0006 22F4F072 		bic	r2, r2, #480
1364:Drivers/STM32F3xx_HAL_Driver/Src/stm32f3xx_hal_uart.c ****   uint32_t abortcplt = 1U;
 1789              		.loc 1 1364 1 view .LVU548
 1790 000a 0446     		mov	r4, r0
1374:Drivers/STM32F3xx_HAL_Driver/Src/stm32f3xx_hal_uart.c ****   {
 1791              		.loc 1 1374 11 view .LVU549
 1792 000c 006E     		ldr	r0, [r0, #96]
 1793              	.LVL90:
1368:Drivers/STM32F3xx_HAL_Driver/Src/stm32f3xx_hal_uart.c ****   CLEAR_BIT(huart->Instance->CR3, USART_CR3_EIE);
 1794              		.loc 1 1368 3 view .LVU550
 1795 000e 1A60     		str	r2, [r3]
1369:Drivers/STM32F3xx_HAL_Driver/Src/stm32f3xx_hal_uart.c **** 
 1796              		.loc 1 1369 3 is_stmt 1 view .LVU551
 1797 0010 9A68     		ldr	r2, [r3, #8]
 1798 0012 22F00102 		bic	r2, r2, #1
 1799 0016 9A60     		str	r2, [r3, #8]
1374:Drivers/STM32F3xx_HAL_Driver/Src/stm32f3xx_hal_uart.c ****   {
 1800              		.loc 1 1374 3 view .LVU552
1374:Drivers/STM32F3xx_HAL_Driver/Src/stm32f3xx_hal_uart.c ****   {
 1801              		.loc 1 1374 5 is_stmt 0 view .LVU553
 1802 0018 28B1     		cbz	r0, .L163
1378:Drivers/STM32F3xx_HAL_Driver/Src/stm32f3xx_hal_uart.c ****     {
 1803              		.loc 1 1378 5 is_stmt 1 view .LVU554
1378:Drivers/STM32F3xx_HAL_Driver/Src/stm32f3xx_hal_uart.c ****     {
 1804              		.loc 1 1378 8 is_stmt 0 view .LVU555
 1805 001a 9A68     		ldr	r2, [r3, #8]
1378:Drivers/STM32F3xx_HAL_Driver/Src/stm32f3xx_hal_uart.c ****     {
 1806              		.loc 1 1378 7 view .LVU556
 1807 001c 12F08002 		ands	r2, r2, #128
1380:Drivers/STM32F3xx_HAL_Driver/Src/stm32f3xx_hal_uart.c ****     }
 1808              		.loc 1 1380 7 is_stmt 1 view .LVU557
1380:Drivers/STM32F3xx_HAL_Driver/Src/stm32f3xx_hal_uart.c ****     }
 1809              		.loc 1 1380 40 is_stmt 0 view .LVU558
 1810 0020 18BF     		it	ne
 1811 0022 234A     		ldrne	r2, .L192
1384:Drivers/STM32F3xx_HAL_Driver/Src/stm32f3xx_hal_uart.c ****     }
 1812              		.loc 1 1384 7 is_stmt 1 view .LVU559
1384:Drivers/STM32F3xx_HAL_Driver/Src/stm32f3xx_hal_uart.c ****     }
 1813              		.loc 1 1384 40 is_stmt 0 view .LVU560
 1814 0024 4263     		str	r2, [r0, #52]
 1815              	.L163:
1388:Drivers/STM32F3xx_HAL_Driver/Src/stm32f3xx_hal_uart.c ****   {
 1816              		.loc 1 1388 3 is_stmt 1 view .LVU561
1388:Drivers/STM32F3xx_HAL_Driver/Src/stm32f3xx_hal_uart.c ****   {
 1817              		.loc 1 1388 11 is_stmt 0 view .LVU562
 1818 0026 616E     		ldr	r1, [r4, #100]
1388:Drivers/STM32F3xx_HAL_Driver/Src/stm32f3xx_hal_uart.c ****   {
 1819              		.loc 1 1388 5 view .LVU563
ARM GAS  /var/folders/8c/gyvcglfx7f97kbqb2h83mm_r0000gn/T//ccv1qdBn.s 			page 82


 1820 0028 29B1     		cbz	r1, .L165
1392:Drivers/STM32F3xx_HAL_Driver/Src/stm32f3xx_hal_uart.c ****     {
 1821              		.loc 1 1392 5 is_stmt 1 view .LVU564
1392:Drivers/STM32F3xx_HAL_Driver/Src/stm32f3xx_hal_uart.c ****     {
 1822              		.loc 1 1392 8 is_stmt 0 view .LVU565
 1823 002a 9A68     		ldr	r2, [r3, #8]
1392:Drivers/STM32F3xx_HAL_Driver/Src/stm32f3xx_hal_uart.c ****     {
 1824              		.loc 1 1392 7 view .LVU566
 1825 002c 12F04002 		ands	r2, r2, #64
1394:Drivers/STM32F3xx_HAL_Driver/Src/stm32f3xx_hal_uart.c ****     }
 1826              		.loc 1 1394 7 is_stmt 1 view .LVU567
1394:Drivers/STM32F3xx_HAL_Driver/Src/stm32f3xx_hal_uart.c ****     }
 1827              		.loc 1 1394 40 is_stmt 0 view .LVU568
 1828 0030 18BF     		it	ne
 1829 0032 204A     		ldrne	r2, .L192+4
1398:Drivers/STM32F3xx_HAL_Driver/Src/stm32f3xx_hal_uart.c ****     }
 1830              		.loc 1 1398 7 is_stmt 1 view .LVU569
1398:Drivers/STM32F3xx_HAL_Driver/Src/stm32f3xx_hal_uart.c ****     }
 1831              		.loc 1 1398 40 is_stmt 0 view .LVU570
 1832 0034 4A63     		str	r2, [r1, #52]
 1833              	.L165:
1403:Drivers/STM32F3xx_HAL_Driver/Src/stm32f3xx_hal_uart.c ****   {
 1834              		.loc 1 1403 3 is_stmt 1 view .LVU571
1403:Drivers/STM32F3xx_HAL_Driver/Src/stm32f3xx_hal_uart.c ****   {
 1835              		.loc 1 1403 6 is_stmt 0 view .LVU572
 1836 0036 9A68     		ldr	r2, [r3, #8]
1403:Drivers/STM32F3xx_HAL_Driver/Src/stm32f3xx_hal_uart.c ****   {
 1837              		.loc 1 1403 5 view .LVU573
 1838 0038 1506     		lsls	r5, r2, #24
 1839 003a 0BD5     		bpl	.L167
1406:Drivers/STM32F3xx_HAL_Driver/Src/stm32f3xx_hal_uart.c **** 
 1840              		.loc 1 1406 5 is_stmt 1 view .LVU574
 1841 003c 9A68     		ldr	r2, [r3, #8]
 1842 003e 22F08002 		bic	r2, r2, #128
 1843 0042 9A60     		str	r2, [r3, #8]
1409:Drivers/STM32F3xx_HAL_Driver/Src/stm32f3xx_hal_uart.c ****     {
 1844              		.loc 1 1409 5 view .LVU575
1409:Drivers/STM32F3xx_HAL_Driver/Src/stm32f3xx_hal_uart.c ****     {
 1845              		.loc 1 1409 7 is_stmt 0 view .LVU576
 1846 0044 30B1     		cbz	r0, .L167
1415:Drivers/STM32F3xx_HAL_Driver/Src/stm32f3xx_hal_uart.c ****       {
 1847              		.loc 1 1415 7 is_stmt 1 view .LVU577
1415:Drivers/STM32F3xx_HAL_Driver/Src/stm32f3xx_hal_uart.c ****       {
 1848              		.loc 1 1415 10 is_stmt 0 view .LVU578
 1849 0046 FFF7FEFF 		bl	HAL_DMA_Abort_IT
 1850              	.LVL91:
1415:Drivers/STM32F3xx_HAL_Driver/Src/stm32f3xx_hal_uart.c ****       {
 1851              		.loc 1 1415 9 view .LVU579
 1852 004a 28B3     		cbz	r0, .L168
1417:Drivers/STM32F3xx_HAL_Driver/Src/stm32f3xx_hal_uart.c ****       }
 1853              		.loc 1 1417 9 is_stmt 1 view .LVU580
1417:Drivers/STM32F3xx_HAL_Driver/Src/stm32f3xx_hal_uart.c ****       }
 1854              		.loc 1 1417 42 is_stmt 0 view .LVU581
 1855 004c 226E     		ldr	r2, [r4, #96]
 1856 004e 2368     		ldr	r3, [r4]
 1857 0050 0021     		movs	r1, #0
 1858 0052 5163     		str	r1, [r2, #52]
ARM GAS  /var/folders/8c/gyvcglfx7f97kbqb2h83mm_r0000gn/T//ccv1qdBn.s 			page 83


 1859              	.L167:
1427:Drivers/STM32F3xx_HAL_Driver/Src/stm32f3xx_hal_uart.c ****   {
 1860              		.loc 1 1427 3 is_stmt 1 view .LVU582
1427:Drivers/STM32F3xx_HAL_Driver/Src/stm32f3xx_hal_uart.c ****   {
 1861              		.loc 1 1427 7 is_stmt 0 view .LVU583
 1862 0054 9A68     		ldr	r2, [r3, #8]
1427:Drivers/STM32F3xx_HAL_Driver/Src/stm32f3xx_hal_uart.c ****   {
 1863              		.loc 1 1427 6 view .LVU584
 1864 0056 5206     		lsls	r2, r2, #25
 1865 0058 0CD5     		bpl	.L170
1429:Drivers/STM32F3xx_HAL_Driver/Src/stm32f3xx_hal_uart.c **** 
 1866              		.loc 1 1429 5 is_stmt 1 view .LVU585
 1867 005a 9A68     		ldr	r2, [r3, #8]
1432:Drivers/STM32F3xx_HAL_Driver/Src/stm32f3xx_hal_uart.c ****     {
 1868              		.loc 1 1432 13 is_stmt 0 view .LVU586
 1869 005c 606E     		ldr	r0, [r4, #100]
1429:Drivers/STM32F3xx_HAL_Driver/Src/stm32f3xx_hal_uart.c **** 
 1870              		.loc 1 1429 5 view .LVU587
 1871 005e 22F04002 		bic	r2, r2, #64
 1872 0062 9A60     		str	r2, [r3, #8]
1432:Drivers/STM32F3xx_HAL_Driver/Src/stm32f3xx_hal_uart.c ****     {
 1873              		.loc 1 1432 5 is_stmt 1 view .LVU588
1432:Drivers/STM32F3xx_HAL_Driver/Src/stm32f3xx_hal_uart.c ****     {
 1874              		.loc 1 1432 7 is_stmt 0 view .LVU589
 1875 0064 30B1     		cbz	r0, .L170
 1876              	.LVL92:
 1877              	.L169:
1438:Drivers/STM32F3xx_HAL_Driver/Src/stm32f3xx_hal_uart.c ****       {
 1878              		.loc 1 1438 7 is_stmt 1 view .LVU590
1438:Drivers/STM32F3xx_HAL_Driver/Src/stm32f3xx_hal_uart.c ****       {
 1879              		.loc 1 1438 10 is_stmt 0 view .LVU591
 1880 0066 FFF7FEFF 		bl	HAL_DMA_Abort_IT
 1881              	.LVL93:
1438:Drivers/STM32F3xx_HAL_Driver/Src/stm32f3xx_hal_uart.c ****       {
 1882              		.loc 1 1438 9 view .LVU592
 1883 006a 98B1     		cbz	r0, .L185
1440:Drivers/STM32F3xx_HAL_Driver/Src/stm32f3xx_hal_uart.c ****         abortcplt = 1U;
 1884              		.loc 1 1440 9 is_stmt 1 view .LVU593
1440:Drivers/STM32F3xx_HAL_Driver/Src/stm32f3xx_hal_uart.c ****         abortcplt = 1U;
 1885              		.loc 1 1440 42 is_stmt 0 view .LVU594
 1886 006c 626E     		ldr	r2, [r4, #100]
 1887 006e 2368     		ldr	r3, [r4]
 1888 0070 0021     		movs	r1, #0
 1889 0072 5163     		str	r1, [r2, #52]
1441:Drivers/STM32F3xx_HAL_Driver/Src/stm32f3xx_hal_uart.c ****       }
 1890              		.loc 1 1441 9 is_stmt 1 view .LVU595
 1891              	.LVL94:
1451:Drivers/STM32F3xx_HAL_Driver/Src/stm32f3xx_hal_uart.c ****   {
 1892              		.loc 1 1451 3 view .LVU596
 1893              	.L170:
1454:Drivers/STM32F3xx_HAL_Driver/Src/stm32f3xx_hal_uart.c ****     huart->RxXferCount = 0U;
 1894              		.loc 1 1454 5 view .LVU597
1454:Drivers/STM32F3xx_HAL_Driver/Src/stm32f3xx_hal_uart.c ****     huart->RxXferCount = 0U;
 1895              		.loc 1 1454 24 is_stmt 0 view .LVU598
 1896 0074 0022     		movs	r2, #0
1464:Drivers/STM32F3xx_HAL_Driver/Src/stm32f3xx_hal_uart.c ****     huart->RxState = HAL_UART_STATE_READY;
 1897              		.loc 1 1464 20 view .LVU599
ARM GAS  /var/folders/8c/gyvcglfx7f97kbqb2h83mm_r0000gn/T//ccv1qdBn.s 			page 84


 1898 0076 2021     		movs	r1, #32
1461:Drivers/STM32F3xx_HAL_Driver/Src/stm32f3xx_hal_uart.c **** 
 1899              		.loc 1 1461 5 view .LVU600
 1900 0078 0F25     		movs	r5, #15
1454:Drivers/STM32F3xx_HAL_Driver/Src/stm32f3xx_hal_uart.c ****     huart->RxXferCount = 0U;
 1901              		.loc 1 1454 24 view .LVU601
 1902 007a A4F85220 		strh	r2, [r4, #82]	@ movhi
1455:Drivers/STM32F3xx_HAL_Driver/Src/stm32f3xx_hal_uart.c **** 
 1903              		.loc 1 1455 5 is_stmt 1 view .LVU602
1468:Drivers/STM32F3xx_HAL_Driver/Src/stm32f3xx_hal_uart.c ****   }
 1904              		.loc 1 1468 5 is_stmt 0 view .LVU603
 1905 007e 2046     		mov	r0, r4
1455:Drivers/STM32F3xx_HAL_Driver/Src/stm32f3xx_hal_uart.c **** 
 1906              		.loc 1 1455 24 view .LVU604
 1907 0080 A4F85A20 		strh	r2, [r4, #90]	@ movhi
1458:Drivers/STM32F3xx_HAL_Driver/Src/stm32f3xx_hal_uart.c **** 
 1908              		.loc 1 1458 5 is_stmt 1 view .LVU605
1458:Drivers/STM32F3xx_HAL_Driver/Src/stm32f3xx_hal_uart.c **** 
 1909              		.loc 1 1458 22 is_stmt 0 view .LVU606
 1910 0084 E266     		str	r2, [r4, #108]
1461:Drivers/STM32F3xx_HAL_Driver/Src/stm32f3xx_hal_uart.c **** 
 1911              		.loc 1 1461 5 is_stmt 1 view .LVU607
 1912 0086 1D62     		str	r5, [r3, #32]
1464:Drivers/STM32F3xx_HAL_Driver/Src/stm32f3xx_hal_uart.c ****     huart->RxState = HAL_UART_STATE_READY;
 1913              		.loc 1 1464 5 view .LVU608
1464:Drivers/STM32F3xx_HAL_Driver/Src/stm32f3xx_hal_uart.c ****     huart->RxState = HAL_UART_STATE_READY;
 1914              		.loc 1 1464 20 is_stmt 0 view .LVU609
 1915 0088 84F86910 		strb	r1, [r4, #105]
1465:Drivers/STM32F3xx_HAL_Driver/Src/stm32f3xx_hal_uart.c **** 
 1916              		.loc 1 1465 5 is_stmt 1 view .LVU610
1465:Drivers/STM32F3xx_HAL_Driver/Src/stm32f3xx_hal_uart.c **** 
 1917              		.loc 1 1465 20 is_stmt 0 view .LVU611
 1918 008c 84F86A10 		strb	r1, [r4, #106]
1468:Drivers/STM32F3xx_HAL_Driver/Src/stm32f3xx_hal_uart.c ****   }
 1919              		.loc 1 1468 5 is_stmt 1 view .LVU612
 1920 0090 FFF7FEFF 		bl	HAL_UART_AbortCpltCallback
 1921              	.LVL95:
 1922              	.L185:
1472:Drivers/STM32F3xx_HAL_Driver/Src/stm32f3xx_hal_uart.c **** 
 1923              		.loc 1 1472 1 is_stmt 0 view .LVU613
 1924 0094 0020     		movs	r0, #0
 1925 0096 38BD     		pop	{r3, r4, r5, pc}
 1926              	.LVL96:
 1927              	.L168:
1427:Drivers/STM32F3xx_HAL_Driver/Src/stm32f3xx_hal_uart.c ****   {
 1928              		.loc 1 1427 3 is_stmt 1 view .LVU614
1427:Drivers/STM32F3xx_HAL_Driver/Src/stm32f3xx_hal_uart.c ****   {
 1929              		.loc 1 1427 7 is_stmt 0 view .LVU615
 1930 0098 2368     		ldr	r3, [r4]
 1931 009a 9A68     		ldr	r2, [r3, #8]
1427:Drivers/STM32F3xx_HAL_Driver/Src/stm32f3xx_hal_uart.c ****   {
 1932              		.loc 1 1427 6 view .LVU616
 1933 009c 5106     		lsls	r1, r2, #25
 1934 009e F9D5     		bpl	.L185
1429:Drivers/STM32F3xx_HAL_Driver/Src/stm32f3xx_hal_uart.c **** 
 1935              		.loc 1 1429 5 is_stmt 1 view .LVU617
 1936 00a0 9A68     		ldr	r2, [r3, #8]
ARM GAS  /var/folders/8c/gyvcglfx7f97kbqb2h83mm_r0000gn/T//ccv1qdBn.s 			page 85


1432:Drivers/STM32F3xx_HAL_Driver/Src/stm32f3xx_hal_uart.c ****     {
 1937              		.loc 1 1432 13 is_stmt 0 view .LVU618
 1938 00a2 606E     		ldr	r0, [r4, #100]
1429:Drivers/STM32F3xx_HAL_Driver/Src/stm32f3xx_hal_uart.c **** 
 1939              		.loc 1 1429 5 view .LVU619
 1940 00a4 22F04002 		bic	r2, r2, #64
 1941 00a8 9A60     		str	r2, [r3, #8]
1432:Drivers/STM32F3xx_HAL_Driver/Src/stm32f3xx_hal_uart.c ****     {
 1942              		.loc 1 1432 5 is_stmt 1 view .LVU620
1432:Drivers/STM32F3xx_HAL_Driver/Src/stm32f3xx_hal_uart.c ****     {
 1943              		.loc 1 1432 7 is_stmt 0 view .LVU621
 1944 00aa 0028     		cmp	r0, #0
 1945 00ac DBD1     		bne	.L169
 1946 00ae F1E7     		b	.L185
 1947              	.L193:
 1948              		.align	2
 1949              	.L192:
 1950 00b0 00000000 		.word	UART_DMATxAbortCallback
 1951 00b4 00000000 		.word	UART_DMARxAbortCallback
 1952              		.cfi_endproc
 1953              	.LFE145:
 1955              		.section	.text.UART_DMARxAbortCallback,"ax",%progbits
 1956              		.align	1
 1957              		.p2align 2,,3
 1958              		.syntax unified
 1959              		.thumb
 1960              		.thumb_func
 1961              		.fpu fpv4-sp-d16
 1963              	UART_DMARxAbortCallback:
 1964              	.LVL97:
 1965              	.LFB178:
2514:Drivers/STM32F3xx_HAL_Driver/Src/stm32f3xx_hal_uart.c **** 
2515:Drivers/STM32F3xx_HAL_Driver/Src/stm32f3xx_hal_uart.c **** /**
2516:Drivers/STM32F3xx_HAL_Driver/Src/stm32f3xx_hal_uart.c ****   * @brief  DMA UART Tx communication abort callback, when initiated by user
2517:Drivers/STM32F3xx_HAL_Driver/Src/stm32f3xx_hal_uart.c ****   *         (To be called at end of DMA Tx Abort procedure following user abort request).
2518:Drivers/STM32F3xx_HAL_Driver/Src/stm32f3xx_hal_uart.c ****   * @note   When this callback is executed, User Abort complete call back is called only if no
2519:Drivers/STM32F3xx_HAL_Driver/Src/stm32f3xx_hal_uart.c ****   *         Abort still ongoing for Rx DMA Handle.
2520:Drivers/STM32F3xx_HAL_Driver/Src/stm32f3xx_hal_uart.c ****   * @param  hdma DMA handle.
2521:Drivers/STM32F3xx_HAL_Driver/Src/stm32f3xx_hal_uart.c ****   * @retval None
2522:Drivers/STM32F3xx_HAL_Driver/Src/stm32f3xx_hal_uart.c ****   */
2523:Drivers/STM32F3xx_HAL_Driver/Src/stm32f3xx_hal_uart.c **** static void UART_DMATxAbortCallback(DMA_HandleTypeDef *hdma)
2524:Drivers/STM32F3xx_HAL_Driver/Src/stm32f3xx_hal_uart.c **** {
2525:Drivers/STM32F3xx_HAL_Driver/Src/stm32f3xx_hal_uart.c ****   UART_HandleTypeDef* huart = (UART_HandleTypeDef* )(hdma->Parent);
2526:Drivers/STM32F3xx_HAL_Driver/Src/stm32f3xx_hal_uart.c ****   
2527:Drivers/STM32F3xx_HAL_Driver/Src/stm32f3xx_hal_uart.c ****   huart->hdmatx->XferAbortCallback = NULL;
2528:Drivers/STM32F3xx_HAL_Driver/Src/stm32f3xx_hal_uart.c **** 
2529:Drivers/STM32F3xx_HAL_Driver/Src/stm32f3xx_hal_uart.c ****   /* Check if an Abort process is still ongoing */
2530:Drivers/STM32F3xx_HAL_Driver/Src/stm32f3xx_hal_uart.c ****   if(huart->hdmarx != NULL)
2531:Drivers/STM32F3xx_HAL_Driver/Src/stm32f3xx_hal_uart.c ****   {
2532:Drivers/STM32F3xx_HAL_Driver/Src/stm32f3xx_hal_uart.c ****     if(huart->hdmarx->XferAbortCallback != NULL)
2533:Drivers/STM32F3xx_HAL_Driver/Src/stm32f3xx_hal_uart.c ****     {
2534:Drivers/STM32F3xx_HAL_Driver/Src/stm32f3xx_hal_uart.c ****       return;
2535:Drivers/STM32F3xx_HAL_Driver/Src/stm32f3xx_hal_uart.c ****     }
2536:Drivers/STM32F3xx_HAL_Driver/Src/stm32f3xx_hal_uart.c ****   }
2537:Drivers/STM32F3xx_HAL_Driver/Src/stm32f3xx_hal_uart.c ****   
2538:Drivers/STM32F3xx_HAL_Driver/Src/stm32f3xx_hal_uart.c ****   /* No Abort process still ongoing : All DMA channels are aborted, call user Abort Complete callba
2539:Drivers/STM32F3xx_HAL_Driver/Src/stm32f3xx_hal_uart.c ****   huart->TxXferCount = 0U;
ARM GAS  /var/folders/8c/gyvcglfx7f97kbqb2h83mm_r0000gn/T//ccv1qdBn.s 			page 86


2540:Drivers/STM32F3xx_HAL_Driver/Src/stm32f3xx_hal_uart.c ****   huart->RxXferCount = 0U;
2541:Drivers/STM32F3xx_HAL_Driver/Src/stm32f3xx_hal_uart.c **** 
2542:Drivers/STM32F3xx_HAL_Driver/Src/stm32f3xx_hal_uart.c ****   /* Reset errorCode */
2543:Drivers/STM32F3xx_HAL_Driver/Src/stm32f3xx_hal_uart.c ****   huart->ErrorCode = HAL_UART_ERROR_NONE;
2544:Drivers/STM32F3xx_HAL_Driver/Src/stm32f3xx_hal_uart.c **** 
2545:Drivers/STM32F3xx_HAL_Driver/Src/stm32f3xx_hal_uart.c ****   /* Clear the Error flags in the ICR register */
2546:Drivers/STM32F3xx_HAL_Driver/Src/stm32f3xx_hal_uart.c ****   __HAL_UART_CLEAR_FLAG(huart, UART_CLEAR_OREF | UART_CLEAR_NEF | UART_CLEAR_PEF | UART_CLEAR_FEF);
2547:Drivers/STM32F3xx_HAL_Driver/Src/stm32f3xx_hal_uart.c **** 
2548:Drivers/STM32F3xx_HAL_Driver/Src/stm32f3xx_hal_uart.c ****   /* Restore huart->gState and huart->RxState to Ready */
2549:Drivers/STM32F3xx_HAL_Driver/Src/stm32f3xx_hal_uart.c ****   huart->gState  = HAL_UART_STATE_READY;
2550:Drivers/STM32F3xx_HAL_Driver/Src/stm32f3xx_hal_uart.c ****   huart->RxState = HAL_UART_STATE_READY;
2551:Drivers/STM32F3xx_HAL_Driver/Src/stm32f3xx_hal_uart.c **** 
2552:Drivers/STM32F3xx_HAL_Driver/Src/stm32f3xx_hal_uart.c ****   /* Call user Abort complete callback */
2553:Drivers/STM32F3xx_HAL_Driver/Src/stm32f3xx_hal_uart.c ****   HAL_UART_AbortCpltCallback(huart);
2554:Drivers/STM32F3xx_HAL_Driver/Src/stm32f3xx_hal_uart.c **** }
2555:Drivers/STM32F3xx_HAL_Driver/Src/stm32f3xx_hal_uart.c **** 
2556:Drivers/STM32F3xx_HAL_Driver/Src/stm32f3xx_hal_uart.c **** 
2557:Drivers/STM32F3xx_HAL_Driver/Src/stm32f3xx_hal_uart.c **** /**
2558:Drivers/STM32F3xx_HAL_Driver/Src/stm32f3xx_hal_uart.c ****   * @brief  DMA UART Rx communication abort callback, when initiated by user
2559:Drivers/STM32F3xx_HAL_Driver/Src/stm32f3xx_hal_uart.c ****   *         (To be called at end of DMA Rx Abort procedure following user abort request).
2560:Drivers/STM32F3xx_HAL_Driver/Src/stm32f3xx_hal_uart.c ****   * @note   When this callback is executed, User Abort complete call back is called only if no
2561:Drivers/STM32F3xx_HAL_Driver/Src/stm32f3xx_hal_uart.c ****   *         Abort still ongoing for Tx DMA Handle.
2562:Drivers/STM32F3xx_HAL_Driver/Src/stm32f3xx_hal_uart.c ****   * @param  hdma DMA handle.
2563:Drivers/STM32F3xx_HAL_Driver/Src/stm32f3xx_hal_uart.c ****   * @retval None
2564:Drivers/STM32F3xx_HAL_Driver/Src/stm32f3xx_hal_uart.c ****   */
2565:Drivers/STM32F3xx_HAL_Driver/Src/stm32f3xx_hal_uart.c **** static void UART_DMARxAbortCallback(DMA_HandleTypeDef *hdma)
2566:Drivers/STM32F3xx_HAL_Driver/Src/stm32f3xx_hal_uart.c **** {
 1966              		.loc 1 2566 1 is_stmt 1 view -0
 1967              		.cfi_startproc
 1968              		@ args = 0, pretend = 0, frame = 0
 1969              		@ frame_needed = 0, uses_anonymous_args = 0
2567:Drivers/STM32F3xx_HAL_Driver/Src/stm32f3xx_hal_uart.c ****   UART_HandleTypeDef* huart = (UART_HandleTypeDef* )(hdma->Parent);
 1970              		.loc 1 2567 3 view .LVU623
2566:Drivers/STM32F3xx_HAL_Driver/Src/stm32f3xx_hal_uart.c ****   UART_HandleTypeDef* huart = (UART_HandleTypeDef* )(hdma->Parent);
 1971              		.loc 1 2566 1 is_stmt 0 view .LVU624
 1972 0000 38B5     		push	{r3, r4, r5, lr}
 1973              	.LCFI18:
 1974              		.cfi_def_cfa_offset 16
 1975              		.cfi_offset 3, -16
 1976              		.cfi_offset 4, -12
 1977              		.cfi_offset 5, -8
 1978              		.cfi_offset 14, -4
 1979              		.loc 1 2567 23 view .LVU625
 1980 0002 436A     		ldr	r3, [r0, #36]
 1981              	.LVL98:
2568:Drivers/STM32F3xx_HAL_Driver/Src/stm32f3xx_hal_uart.c ****   
2569:Drivers/STM32F3xx_HAL_Driver/Src/stm32f3xx_hal_uart.c ****   huart->hdmarx->XferAbortCallback = NULL;
 1982              		.loc 1 2569 3 is_stmt 1 view .LVU626
2570:Drivers/STM32F3xx_HAL_Driver/Src/stm32f3xx_hal_uart.c **** 
2571:Drivers/STM32F3xx_HAL_Driver/Src/stm32f3xx_hal_uart.c ****   /* Check if an Abort process is still ongoing */
2572:Drivers/STM32F3xx_HAL_Driver/Src/stm32f3xx_hal_uart.c ****   if(huart->hdmatx != NULL)
 1983              		.loc 1 2572 11 is_stmt 0 view .LVU627
 1984 0004 D3E91821 		ldrd	r2, r1, [r3, #96]
2569:Drivers/STM32F3xx_HAL_Driver/Src/stm32f3xx_hal_uart.c **** 
 1985              		.loc 1 2569 36 view .LVU628
 1986 0008 0020     		movs	r0, #0
 1987              	.LVL99:
ARM GAS  /var/folders/8c/gyvcglfx7f97kbqb2h83mm_r0000gn/T//ccv1qdBn.s 			page 87


2569:Drivers/STM32F3xx_HAL_Driver/Src/stm32f3xx_hal_uart.c **** 
 1988              		.loc 1 2569 36 view .LVU629
 1989 000a 4863     		str	r0, [r1, #52]
 1990              		.loc 1 2572 3 is_stmt 1 view .LVU630
 1991              		.loc 1 2572 5 is_stmt 0 view .LVU631
 1992 000c 12B1     		cbz	r2, .L195
2573:Drivers/STM32F3xx_HAL_Driver/Src/stm32f3xx_hal_uart.c ****   {
2574:Drivers/STM32F3xx_HAL_Driver/Src/stm32f3xx_hal_uart.c ****     if(huart->hdmatx->XferAbortCallback != NULL)
 1993              		.loc 1 2574 5 is_stmt 1 view .LVU632
 1994              		.loc 1 2574 7 is_stmt 0 view .LVU633
 1995 000e 526B     		ldr	r2, [r2, #52]
 1996 0010 02B1     		cbz	r2, .L195
2575:Drivers/STM32F3xx_HAL_Driver/Src/stm32f3xx_hal_uart.c ****     {
2576:Drivers/STM32F3xx_HAL_Driver/Src/stm32f3xx_hal_uart.c ****       return;
2577:Drivers/STM32F3xx_HAL_Driver/Src/stm32f3xx_hal_uart.c ****     }
2578:Drivers/STM32F3xx_HAL_Driver/Src/stm32f3xx_hal_uart.c ****   }
2579:Drivers/STM32F3xx_HAL_Driver/Src/stm32f3xx_hal_uart.c ****   
2580:Drivers/STM32F3xx_HAL_Driver/Src/stm32f3xx_hal_uart.c ****   /* No Abort process still ongoing : All DMA channels are aborted, call user Abort Complete callba
2581:Drivers/STM32F3xx_HAL_Driver/Src/stm32f3xx_hal_uart.c ****   huart->TxXferCount = 0U;
2582:Drivers/STM32F3xx_HAL_Driver/Src/stm32f3xx_hal_uart.c ****   huart->RxXferCount = 0U;
2583:Drivers/STM32F3xx_HAL_Driver/Src/stm32f3xx_hal_uart.c **** 
2584:Drivers/STM32F3xx_HAL_Driver/Src/stm32f3xx_hal_uart.c ****   /* Reset errorCode */
2585:Drivers/STM32F3xx_HAL_Driver/Src/stm32f3xx_hal_uart.c ****   huart->ErrorCode = HAL_UART_ERROR_NONE;
2586:Drivers/STM32F3xx_HAL_Driver/Src/stm32f3xx_hal_uart.c **** 
2587:Drivers/STM32F3xx_HAL_Driver/Src/stm32f3xx_hal_uart.c ****   /* Clear the Error flags in the ICR register */
2588:Drivers/STM32F3xx_HAL_Driver/Src/stm32f3xx_hal_uart.c ****   __HAL_UART_CLEAR_FLAG(huart, UART_CLEAR_OREF | UART_CLEAR_NEF | UART_CLEAR_PEF | UART_CLEAR_FEF);
2589:Drivers/STM32F3xx_HAL_Driver/Src/stm32f3xx_hal_uart.c **** 
2590:Drivers/STM32F3xx_HAL_Driver/Src/stm32f3xx_hal_uart.c ****   /* Restore huart->gState and huart->RxState to Ready */
2591:Drivers/STM32F3xx_HAL_Driver/Src/stm32f3xx_hal_uart.c ****   huart->gState  = HAL_UART_STATE_READY;
2592:Drivers/STM32F3xx_HAL_Driver/Src/stm32f3xx_hal_uart.c ****   huart->RxState = HAL_UART_STATE_READY;
2593:Drivers/STM32F3xx_HAL_Driver/Src/stm32f3xx_hal_uart.c **** 
2594:Drivers/STM32F3xx_HAL_Driver/Src/stm32f3xx_hal_uart.c ****   /* Call user Abort complete callback */
2595:Drivers/STM32F3xx_HAL_Driver/Src/stm32f3xx_hal_uart.c ****   HAL_UART_AbortCpltCallback(huart);
2596:Drivers/STM32F3xx_HAL_Driver/Src/stm32f3xx_hal_uart.c **** }
 1997              		.loc 1 2596 1 view .LVU634
 1998 0012 38BD     		pop	{r3, r4, r5, pc}
 1999              	.LVL100:
 2000              	.L195:
2581:Drivers/STM32F3xx_HAL_Driver/Src/stm32f3xx_hal_uart.c ****   huart->RxXferCount = 0U;
 2001              		.loc 1 2581 3 is_stmt 1 view .LVU635
2588:Drivers/STM32F3xx_HAL_Driver/Src/stm32f3xx_hal_uart.c **** 
 2002              		.loc 1 2588 3 is_stmt 0 view .LVU636
 2003 0014 1C68     		ldr	r4, [r3]
2581:Drivers/STM32F3xx_HAL_Driver/Src/stm32f3xx_hal_uart.c ****   huart->RxXferCount = 0U;
 2004              		.loc 1 2581 22 view .LVU637
 2005 0016 0022     		movs	r2, #0
2591:Drivers/STM32F3xx_HAL_Driver/Src/stm32f3xx_hal_uart.c ****   huart->RxState = HAL_UART_STATE_READY;
 2006              		.loc 1 2591 18 view .LVU638
 2007 0018 2021     		movs	r1, #32
2588:Drivers/STM32F3xx_HAL_Driver/Src/stm32f3xx_hal_uart.c **** 
 2008              		.loc 1 2588 3 view .LVU639
 2009 001a 0F25     		movs	r5, #15
2581:Drivers/STM32F3xx_HAL_Driver/Src/stm32f3xx_hal_uart.c ****   huart->RxXferCount = 0U;
 2010              		.loc 1 2581 22 view .LVU640
 2011 001c A3F85220 		strh	r2, [r3, #82]	@ movhi
2582:Drivers/STM32F3xx_HAL_Driver/Src/stm32f3xx_hal_uart.c **** 
 2012              		.loc 1 2582 3 is_stmt 1 view .LVU641
ARM GAS  /var/folders/8c/gyvcglfx7f97kbqb2h83mm_r0000gn/T//ccv1qdBn.s 			page 88


2595:Drivers/STM32F3xx_HAL_Driver/Src/stm32f3xx_hal_uart.c **** }
 2013              		.loc 1 2595 3 is_stmt 0 view .LVU642
 2014 0020 1846     		mov	r0, r3
2582:Drivers/STM32F3xx_HAL_Driver/Src/stm32f3xx_hal_uart.c **** 
 2015              		.loc 1 2582 22 view .LVU643
 2016 0022 A3F85A20 		strh	r2, [r3, #90]	@ movhi
2585:Drivers/STM32F3xx_HAL_Driver/Src/stm32f3xx_hal_uart.c **** 
 2017              		.loc 1 2585 3 is_stmt 1 view .LVU644
2585:Drivers/STM32F3xx_HAL_Driver/Src/stm32f3xx_hal_uart.c **** 
 2018              		.loc 1 2585 20 is_stmt 0 view .LVU645
 2019 0026 DA66     		str	r2, [r3, #108]
2588:Drivers/STM32F3xx_HAL_Driver/Src/stm32f3xx_hal_uart.c **** 
 2020              		.loc 1 2588 3 is_stmt 1 view .LVU646
 2021 0028 2562     		str	r5, [r4, #32]
2591:Drivers/STM32F3xx_HAL_Driver/Src/stm32f3xx_hal_uart.c ****   huart->RxState = HAL_UART_STATE_READY;
 2022              		.loc 1 2591 3 view .LVU647
2591:Drivers/STM32F3xx_HAL_Driver/Src/stm32f3xx_hal_uart.c ****   huart->RxState = HAL_UART_STATE_READY;
 2023              		.loc 1 2591 18 is_stmt 0 view .LVU648
 2024 002a 83F86910 		strb	r1, [r3, #105]
2592:Drivers/STM32F3xx_HAL_Driver/Src/stm32f3xx_hal_uart.c **** 
 2025              		.loc 1 2592 3 is_stmt 1 view .LVU649
2592:Drivers/STM32F3xx_HAL_Driver/Src/stm32f3xx_hal_uart.c **** 
 2026              		.loc 1 2592 18 is_stmt 0 view .LVU650
 2027 002e 83F86A10 		strb	r1, [r3, #106]
2595:Drivers/STM32F3xx_HAL_Driver/Src/stm32f3xx_hal_uart.c **** }
 2028              		.loc 1 2595 3 is_stmt 1 view .LVU651
 2029 0032 FFF7FEFF 		bl	HAL_UART_AbortCpltCallback
 2030              	.LVL101:
 2031              		.loc 1 2596 1 is_stmt 0 view .LVU652
 2032 0036 38BD     		pop	{r3, r4, r5, pc}
 2033              		.cfi_endproc
 2034              	.LFE178:
 2036              		.section	.text.UART_DMATxAbortCallback,"ax",%progbits
 2037              		.align	1
 2038              		.p2align 2,,3
 2039              		.syntax unified
 2040              		.thumb
 2041              		.thumb_func
 2042              		.fpu fpv4-sp-d16
 2044              	UART_DMATxAbortCallback:
 2045              	.LVL102:
 2046              	.LFB177:
2524:Drivers/STM32F3xx_HAL_Driver/Src/stm32f3xx_hal_uart.c ****   UART_HandleTypeDef* huart = (UART_HandleTypeDef* )(hdma->Parent);
 2047              		.loc 1 2524 1 is_stmt 1 view -0
 2048              		.cfi_startproc
 2049              		@ args = 0, pretend = 0, frame = 0
 2050              		@ frame_needed = 0, uses_anonymous_args = 0
2525:Drivers/STM32F3xx_HAL_Driver/Src/stm32f3xx_hal_uart.c ****   
 2051              		.loc 1 2525 3 view .LVU654
2524:Drivers/STM32F3xx_HAL_Driver/Src/stm32f3xx_hal_uart.c ****   UART_HandleTypeDef* huart = (UART_HandleTypeDef* )(hdma->Parent);
 2052              		.loc 1 2524 1 is_stmt 0 view .LVU655
 2053 0000 38B5     		push	{r3, r4, r5, lr}
 2054              	.LCFI19:
 2055              		.cfi_def_cfa_offset 16
 2056              		.cfi_offset 3, -16
 2057              		.cfi_offset 4, -12
 2058              		.cfi_offset 5, -8
ARM GAS  /var/folders/8c/gyvcglfx7f97kbqb2h83mm_r0000gn/T//ccv1qdBn.s 			page 89


 2059              		.cfi_offset 14, -4
2525:Drivers/STM32F3xx_HAL_Driver/Src/stm32f3xx_hal_uart.c ****   
 2060              		.loc 1 2525 23 view .LVU656
 2061 0002 436A     		ldr	r3, [r0, #36]
 2062              	.LVL103:
2527:Drivers/STM32F3xx_HAL_Driver/Src/stm32f3xx_hal_uart.c **** 
 2063              		.loc 1 2527 3 is_stmt 1 view .LVU657
2530:Drivers/STM32F3xx_HAL_Driver/Src/stm32f3xx_hal_uart.c ****   {
 2064              		.loc 1 2530 11 is_stmt 0 view .LVU658
 2065 0004 D3E91812 		ldrd	r1, r2, [r3, #96]
2527:Drivers/STM32F3xx_HAL_Driver/Src/stm32f3xx_hal_uart.c **** 
 2066              		.loc 1 2527 36 view .LVU659
 2067 0008 0020     		movs	r0, #0
 2068              	.LVL104:
2527:Drivers/STM32F3xx_HAL_Driver/Src/stm32f3xx_hal_uart.c **** 
 2069              		.loc 1 2527 36 view .LVU660
 2070 000a 4863     		str	r0, [r1, #52]
2530:Drivers/STM32F3xx_HAL_Driver/Src/stm32f3xx_hal_uart.c ****   {
 2071              		.loc 1 2530 3 is_stmt 1 view .LVU661
2530:Drivers/STM32F3xx_HAL_Driver/Src/stm32f3xx_hal_uart.c ****   {
 2072              		.loc 1 2530 5 is_stmt 0 view .LVU662
 2073 000c 12B1     		cbz	r2, .L202
2532:Drivers/STM32F3xx_HAL_Driver/Src/stm32f3xx_hal_uart.c ****     {
 2074              		.loc 1 2532 5 is_stmt 1 view .LVU663
2532:Drivers/STM32F3xx_HAL_Driver/Src/stm32f3xx_hal_uart.c ****     {
 2075              		.loc 1 2532 7 is_stmt 0 view .LVU664
 2076 000e 526B     		ldr	r2, [r2, #52]
 2077 0010 02B1     		cbz	r2, .L202
2554:Drivers/STM32F3xx_HAL_Driver/Src/stm32f3xx_hal_uart.c **** 
 2078              		.loc 1 2554 1 view .LVU665
 2079 0012 38BD     		pop	{r3, r4, r5, pc}
 2080              	.LVL105:
 2081              	.L202:
2539:Drivers/STM32F3xx_HAL_Driver/Src/stm32f3xx_hal_uart.c ****   huart->RxXferCount = 0U;
 2082              		.loc 1 2539 3 is_stmt 1 view .LVU666
2546:Drivers/STM32F3xx_HAL_Driver/Src/stm32f3xx_hal_uart.c **** 
 2083              		.loc 1 2546 3 is_stmt 0 view .LVU667
 2084 0014 1C68     		ldr	r4, [r3]
2539:Drivers/STM32F3xx_HAL_Driver/Src/stm32f3xx_hal_uart.c ****   huart->RxXferCount = 0U;
 2085              		.loc 1 2539 22 view .LVU668
 2086 0016 0022     		movs	r2, #0
2549:Drivers/STM32F3xx_HAL_Driver/Src/stm32f3xx_hal_uart.c ****   huart->RxState = HAL_UART_STATE_READY;
 2087              		.loc 1 2549 18 view .LVU669
 2088 0018 2021     		movs	r1, #32
2546:Drivers/STM32F3xx_HAL_Driver/Src/stm32f3xx_hal_uart.c **** 
 2089              		.loc 1 2546 3 view .LVU670
 2090 001a 0F25     		movs	r5, #15
2539:Drivers/STM32F3xx_HAL_Driver/Src/stm32f3xx_hal_uart.c ****   huart->RxXferCount = 0U;
 2091              		.loc 1 2539 22 view .LVU671
 2092 001c A3F85220 		strh	r2, [r3, #82]	@ movhi
2540:Drivers/STM32F3xx_HAL_Driver/Src/stm32f3xx_hal_uart.c **** 
 2093              		.loc 1 2540 3 is_stmt 1 view .LVU672
2553:Drivers/STM32F3xx_HAL_Driver/Src/stm32f3xx_hal_uart.c **** }
 2094              		.loc 1 2553 3 is_stmt 0 view .LVU673
 2095 0020 1846     		mov	r0, r3
2540:Drivers/STM32F3xx_HAL_Driver/Src/stm32f3xx_hal_uart.c **** 
 2096              		.loc 1 2540 22 view .LVU674
ARM GAS  /var/folders/8c/gyvcglfx7f97kbqb2h83mm_r0000gn/T//ccv1qdBn.s 			page 90


 2097 0022 A3F85A20 		strh	r2, [r3, #90]	@ movhi
2543:Drivers/STM32F3xx_HAL_Driver/Src/stm32f3xx_hal_uart.c **** 
 2098              		.loc 1 2543 3 is_stmt 1 view .LVU675
2543:Drivers/STM32F3xx_HAL_Driver/Src/stm32f3xx_hal_uart.c **** 
 2099              		.loc 1 2543 20 is_stmt 0 view .LVU676
 2100 0026 DA66     		str	r2, [r3, #108]
2546:Drivers/STM32F3xx_HAL_Driver/Src/stm32f3xx_hal_uart.c **** 
 2101              		.loc 1 2546 3 is_stmt 1 view .LVU677
 2102 0028 2562     		str	r5, [r4, #32]
2549:Drivers/STM32F3xx_HAL_Driver/Src/stm32f3xx_hal_uart.c ****   huart->RxState = HAL_UART_STATE_READY;
 2103              		.loc 1 2549 3 view .LVU678
2549:Drivers/STM32F3xx_HAL_Driver/Src/stm32f3xx_hal_uart.c ****   huart->RxState = HAL_UART_STATE_READY;
 2104              		.loc 1 2549 18 is_stmt 0 view .LVU679
 2105 002a 83F86910 		strb	r1, [r3, #105]
2550:Drivers/STM32F3xx_HAL_Driver/Src/stm32f3xx_hal_uart.c **** 
 2106              		.loc 1 2550 3 is_stmt 1 view .LVU680
2550:Drivers/STM32F3xx_HAL_Driver/Src/stm32f3xx_hal_uart.c **** 
 2107              		.loc 1 2550 18 is_stmt 0 view .LVU681
 2108 002e 83F86A10 		strb	r1, [r3, #106]
2553:Drivers/STM32F3xx_HAL_Driver/Src/stm32f3xx_hal_uart.c **** }
 2109              		.loc 1 2553 3 is_stmt 1 view .LVU682
 2110 0032 FFF7FEFF 		bl	HAL_UART_AbortCpltCallback
 2111              	.LVL106:
2554:Drivers/STM32F3xx_HAL_Driver/Src/stm32f3xx_hal_uart.c **** 
 2112              		.loc 1 2554 1 is_stmt 0 view .LVU683
 2113 0036 38BD     		pop	{r3, r4, r5, pc}
 2114              		.cfi_endproc
 2115              	.LFE177:
 2117              		.section	.text.HAL_UART_AbortTransmitCpltCallback,"ax",%progbits
 2118              		.align	1
 2119              		.p2align 2,,3
 2120              		.weak	HAL_UART_AbortTransmitCpltCallback
 2121              		.syntax unified
 2122              		.thumb
 2123              		.thumb_func
 2124              		.fpu fpv4-sp-d16
 2126              	HAL_UART_AbortTransmitCpltCallback:
 2127              	.LFB203:
 2128              		.cfi_startproc
 2129              		@ args = 0, pretend = 0, frame = 0
 2130              		@ frame_needed = 0, uses_anonymous_args = 0
 2131              		@ link register save eliminated.
 2132 0000 7047     		bx	lr
 2133              		.cfi_endproc
 2134              	.LFE203:
 2136 0002 00BF     		.section	.text.HAL_UART_AbortTransmit_IT,"ax",%progbits
 2137              		.align	1
 2138              		.p2align 2,,3
 2139              		.global	HAL_UART_AbortTransmit_IT
 2140              		.syntax unified
 2141              		.thumb
 2142              		.thumb_func
 2143              		.fpu fpv4-sp-d16
 2145              	HAL_UART_AbortTransmit_IT:
 2146              	.LVL107:
 2147              	.LFB146:
1489:Drivers/STM32F3xx_HAL_Driver/Src/stm32f3xx_hal_uart.c ****   /* Disable TXEIE and TCIE interrupts */
ARM GAS  /var/folders/8c/gyvcglfx7f97kbqb2h83mm_r0000gn/T//ccv1qdBn.s 			page 91


 2148              		.loc 1 1489 1 is_stmt 1 view -0
 2149              		.cfi_startproc
 2150              		@ args = 0, pretend = 0, frame = 0
 2151              		@ frame_needed = 0, uses_anonymous_args = 0
1491:Drivers/STM32F3xx_HAL_Driver/Src/stm32f3xx_hal_uart.c **** 
 2152              		.loc 1 1491 3 view .LVU685
 2153 0000 0368     		ldr	r3, [r0]
 2154 0002 1A68     		ldr	r2, [r3]
 2155 0004 22F0C002 		bic	r2, r2, #192
1489:Drivers/STM32F3xx_HAL_Driver/Src/stm32f3xx_hal_uart.c ****   /* Disable TXEIE and TCIE interrupts */
 2156              		.loc 1 1489 1 is_stmt 0 view .LVU686
 2157 0008 10B5     		push	{r4, lr}
 2158              	.LCFI20:
 2159              		.cfi_def_cfa_offset 8
 2160              		.cfi_offset 4, -8
 2161              		.cfi_offset 14, -4
1491:Drivers/STM32F3xx_HAL_Driver/Src/stm32f3xx_hal_uart.c **** 
 2162              		.loc 1 1491 3 view .LVU687
 2163 000a 1A60     		str	r2, [r3]
1494:Drivers/STM32F3xx_HAL_Driver/Src/stm32f3xx_hal_uart.c ****   {
 2164              		.loc 1 1494 3 is_stmt 1 view .LVU688
1494:Drivers/STM32F3xx_HAL_Driver/Src/stm32f3xx_hal_uart.c ****   {
 2165              		.loc 1 1494 7 is_stmt 0 view .LVU689
 2166 000c 9A68     		ldr	r2, [r3, #8]
1494:Drivers/STM32F3xx_HAL_Driver/Src/stm32f3xx_hal_uart.c ****   {
 2167              		.loc 1 1494 6 view .LVU690
 2168 000e 12F08002 		ands	r2, r2, #128
1489:Drivers/STM32F3xx_HAL_Driver/Src/stm32f3xx_hal_uart.c ****   /* Disable TXEIE and TCIE interrupts */
 2169              		.loc 1 1489 1 view .LVU691
 2170 0012 0446     		mov	r4, r0
1494:Drivers/STM32F3xx_HAL_Driver/Src/stm32f3xx_hal_uart.c ****   {
 2171              		.loc 1 1494 6 view .LVU692
 2172 0014 19D0     		beq	.L210
1496:Drivers/STM32F3xx_HAL_Driver/Src/stm32f3xx_hal_uart.c **** 
 2173              		.loc 1 1496 5 is_stmt 1 view .LVU693
 2174 0016 9A68     		ldr	r2, [r3, #8]
1499:Drivers/STM32F3xx_HAL_Driver/Src/stm32f3xx_hal_uart.c ****     {
 2175              		.loc 1 1499 13 is_stmt 0 view .LVU694
 2176 0018 016E     		ldr	r1, [r0, #96]
1496:Drivers/STM32F3xx_HAL_Driver/Src/stm32f3xx_hal_uart.c **** 
 2177              		.loc 1 1496 5 view .LVU695
 2178 001a 22F08002 		bic	r2, r2, #128
 2179 001e 9A60     		str	r2, [r3, #8]
1499:Drivers/STM32F3xx_HAL_Driver/Src/stm32f3xx_hal_uart.c ****     {
 2180              		.loc 1 1499 5 is_stmt 1 view .LVU696
1499:Drivers/STM32F3xx_HAL_Driver/Src/stm32f3xx_hal_uart.c ****     {
 2181              		.loc 1 1499 7 is_stmt 0 view .LVU697
 2182 0020 51B1     		cbz	r1, .L211
1503:Drivers/STM32F3xx_HAL_Driver/Src/stm32f3xx_hal_uart.c **** 
 2183              		.loc 1 1503 7 is_stmt 1 view .LVU698
1503:Drivers/STM32F3xx_HAL_Driver/Src/stm32f3xx_hal_uart.c **** 
 2184              		.loc 1 1503 40 is_stmt 0 view .LVU699
 2185 0022 0E4B     		ldr	r3, .L217
 2186 0024 4B63     		str	r3, [r1, #52]
1506:Drivers/STM32F3xx_HAL_Driver/Src/stm32f3xx_hal_uart.c ****       {
 2187              		.loc 1 1506 7 is_stmt 1 view .LVU700
1506:Drivers/STM32F3xx_HAL_Driver/Src/stm32f3xx_hal_uart.c ****       {
ARM GAS  /var/folders/8c/gyvcglfx7f97kbqb2h83mm_r0000gn/T//ccv1qdBn.s 			page 92


 2188              		.loc 1 1506 10 is_stmt 0 view .LVU701
 2189 0026 0846     		mov	r0, r1
 2190              	.LVL108:
1506:Drivers/STM32F3xx_HAL_Driver/Src/stm32f3xx_hal_uart.c ****       {
 2191              		.loc 1 1506 10 view .LVU702
 2192 0028 FFF7FEFF 		bl	HAL_DMA_Abort_IT
 2193              	.LVL109:
1506:Drivers/STM32F3xx_HAL_Driver/Src/stm32f3xx_hal_uart.c ****       {
 2194              		.loc 1 1506 9 view .LVU703
 2195 002c 10B1     		cbz	r0, .L212
1509:Drivers/STM32F3xx_HAL_Driver/Src/stm32f3xx_hal_uart.c ****       }
 2196              		.loc 1 1509 9 is_stmt 1 view .LVU704
1509:Drivers/STM32F3xx_HAL_Driver/Src/stm32f3xx_hal_uart.c ****       }
 2197              		.loc 1 1509 14 is_stmt 0 view .LVU705
 2198 002e 206E     		ldr	r0, [r4, #96]
1509:Drivers/STM32F3xx_HAL_Driver/Src/stm32f3xx_hal_uart.c ****       }
 2199              		.loc 1 1509 9 view .LVU706
 2200 0030 436B     		ldr	r3, [r0, #52]
 2201 0032 9847     		blx	r3
 2202              	.LVL110:
 2203              	.L212:
1536:Drivers/STM32F3xx_HAL_Driver/Src/stm32f3xx_hal_uart.c **** }
 2204              		.loc 1 1536 3 is_stmt 1 view .LVU707
1537:Drivers/STM32F3xx_HAL_Driver/Src/stm32f3xx_hal_uart.c **** 
 2205              		.loc 1 1537 1 is_stmt 0 view .LVU708
 2206 0034 0020     		movs	r0, #0
 2207 0036 10BD     		pop	{r4, pc}
 2208              	.LVL111:
 2209              	.L211:
1515:Drivers/STM32F3xx_HAL_Driver/Src/stm32f3xx_hal_uart.c **** 
 2210              		.loc 1 1515 7 is_stmt 1 view .LVU709
1518:Drivers/STM32F3xx_HAL_Driver/Src/stm32f3xx_hal_uart.c **** 
 2211              		.loc 1 1518 21 is_stmt 0 view .LVU710
 2212 0038 2023     		movs	r3, #32
1515:Drivers/STM32F3xx_HAL_Driver/Src/stm32f3xx_hal_uart.c **** 
 2213              		.loc 1 1515 26 view .LVU711
 2214 003a A0F85210 		strh	r1, [r0, #82]	@ movhi
1518:Drivers/STM32F3xx_HAL_Driver/Src/stm32f3xx_hal_uart.c **** 
 2215              		.loc 1 1518 7 is_stmt 1 view .LVU712
1518:Drivers/STM32F3xx_HAL_Driver/Src/stm32f3xx_hal_uart.c **** 
 2216              		.loc 1 1518 21 is_stmt 0 view .LVU713
 2217 003e 80F86930 		strb	r3, [r0, #105]
1521:Drivers/STM32F3xx_HAL_Driver/Src/stm32f3xx_hal_uart.c ****     }
 2218              		.loc 1 1521 7 is_stmt 1 view .LVU714
 2219 0042 FFF7FEFF 		bl	HAL_UART_AbortTransmitCpltCallback
 2220              	.LVL112:
1536:Drivers/STM32F3xx_HAL_Driver/Src/stm32f3xx_hal_uart.c **** }
 2221              		.loc 1 1536 3 view .LVU715
1537:Drivers/STM32F3xx_HAL_Driver/Src/stm32f3xx_hal_uart.c **** 
 2222              		.loc 1 1537 1 is_stmt 0 view .LVU716
 2223 0046 0020     		movs	r0, #0
 2224 0048 10BD     		pop	{r4, pc}
 2225              	.LVL113:
 2226              	.L210:
1527:Drivers/STM32F3xx_HAL_Driver/Src/stm32f3xx_hal_uart.c **** 
 2227              		.loc 1 1527 5 is_stmt 1 view .LVU717
1530:Drivers/STM32F3xx_HAL_Driver/Src/stm32f3xx_hal_uart.c **** 
ARM GAS  /var/folders/8c/gyvcglfx7f97kbqb2h83mm_r0000gn/T//ccv1qdBn.s 			page 93


 2228              		.loc 1 1530 19 is_stmt 0 view .LVU718
 2229 004a 2023     		movs	r3, #32
1527:Drivers/STM32F3xx_HAL_Driver/Src/stm32f3xx_hal_uart.c **** 
 2230              		.loc 1 1527 24 view .LVU719
 2231 004c A0F85220 		strh	r2, [r0, #82]	@ movhi
1530:Drivers/STM32F3xx_HAL_Driver/Src/stm32f3xx_hal_uart.c **** 
 2232              		.loc 1 1530 5 is_stmt 1 view .LVU720
1530:Drivers/STM32F3xx_HAL_Driver/Src/stm32f3xx_hal_uart.c **** 
 2233              		.loc 1 1530 19 is_stmt 0 view .LVU721
 2234 0050 80F86930 		strb	r3, [r0, #105]
1533:Drivers/STM32F3xx_HAL_Driver/Src/stm32f3xx_hal_uart.c ****   }
 2235              		.loc 1 1533 5 is_stmt 1 view .LVU722
 2236 0054 FFF7FEFF 		bl	HAL_UART_AbortTransmitCpltCallback
 2237              	.LVL114:
1536:Drivers/STM32F3xx_HAL_Driver/Src/stm32f3xx_hal_uart.c **** }
 2238              		.loc 1 1536 3 view .LVU723
1537:Drivers/STM32F3xx_HAL_Driver/Src/stm32f3xx_hal_uart.c **** 
 2239              		.loc 1 1537 1 is_stmt 0 view .LVU724
 2240 0058 0020     		movs	r0, #0
 2241 005a 10BD     		pop	{r4, pc}
 2242              	.LVL115:
 2243              	.L218:
1537:Drivers/STM32F3xx_HAL_Driver/Src/stm32f3xx_hal_uart.c **** 
 2244              		.loc 1 1537 1 view .LVU725
 2245              		.align	2
 2246              	.L217:
 2247 005c 00000000 		.word	UART_DMATxOnlyAbortCallback
 2248              		.cfi_endproc
 2249              	.LFE146:
 2251              		.section	.text.UART_DMATxOnlyAbortCallback,"ax",%progbits
 2252              		.align	1
 2253              		.p2align 2,,3
 2254              		.syntax unified
 2255              		.thumb
 2256              		.thumb_func
 2257              		.fpu fpv4-sp-d16
 2259              	UART_DMATxOnlyAbortCallback:
 2260              	.LVL116:
 2261              	.LFB179:
2597:Drivers/STM32F3xx_HAL_Driver/Src/stm32f3xx_hal_uart.c **** 
2598:Drivers/STM32F3xx_HAL_Driver/Src/stm32f3xx_hal_uart.c **** 
2599:Drivers/STM32F3xx_HAL_Driver/Src/stm32f3xx_hal_uart.c **** /**
2600:Drivers/STM32F3xx_HAL_Driver/Src/stm32f3xx_hal_uart.c ****   * @brief  DMA UART Tx communication abort callback, when initiated by user by a call to
2601:Drivers/STM32F3xx_HAL_Driver/Src/stm32f3xx_hal_uart.c ****   *         HAL_UART_AbortTransmit_IT API (Abort only Tx transfer)
2602:Drivers/STM32F3xx_HAL_Driver/Src/stm32f3xx_hal_uart.c ****   *         (This callback is executed at end of DMA Tx Abort procedure following user abort reques
2603:Drivers/STM32F3xx_HAL_Driver/Src/stm32f3xx_hal_uart.c ****   *         and leads to user Tx Abort Complete callback execution).
2604:Drivers/STM32F3xx_HAL_Driver/Src/stm32f3xx_hal_uart.c ****   * @param  hdma DMA handle.
2605:Drivers/STM32F3xx_HAL_Driver/Src/stm32f3xx_hal_uart.c ****   * @retval None
2606:Drivers/STM32F3xx_HAL_Driver/Src/stm32f3xx_hal_uart.c ****   */
2607:Drivers/STM32F3xx_HAL_Driver/Src/stm32f3xx_hal_uart.c **** static void UART_DMATxOnlyAbortCallback(DMA_HandleTypeDef *hdma)
2608:Drivers/STM32F3xx_HAL_Driver/Src/stm32f3xx_hal_uart.c **** {
 2262              		.loc 1 2608 1 is_stmt 1 view -0
 2263              		.cfi_startproc
 2264              		@ args = 0, pretend = 0, frame = 0
 2265              		@ frame_needed = 0, uses_anonymous_args = 0
2609:Drivers/STM32F3xx_HAL_Driver/Src/stm32f3xx_hal_uart.c ****   UART_HandleTypeDef* huart = (UART_HandleTypeDef*)(hdma->Parent);
 2266              		.loc 1 2609 3 view .LVU727
ARM GAS  /var/folders/8c/gyvcglfx7f97kbqb2h83mm_r0000gn/T//ccv1qdBn.s 			page 94


2608:Drivers/STM32F3xx_HAL_Driver/Src/stm32f3xx_hal_uart.c ****   UART_HandleTypeDef* huart = (UART_HandleTypeDef*)(hdma->Parent);
 2267              		.loc 1 2608 1 is_stmt 0 view .LVU728
 2268 0000 08B5     		push	{r3, lr}
 2269              	.LCFI21:
 2270              		.cfi_def_cfa_offset 8
 2271              		.cfi_offset 3, -8
 2272              		.cfi_offset 14, -4
 2273              		.loc 1 2609 23 view .LVU729
 2274 0002 436A     		ldr	r3, [r0, #36]
 2275              	.LVL117:
2610:Drivers/STM32F3xx_HAL_Driver/Src/stm32f3xx_hal_uart.c **** 
2611:Drivers/STM32F3xx_HAL_Driver/Src/stm32f3xx_hal_uart.c ****   huart->TxXferCount = 0U;
 2276              		.loc 1 2611 3 is_stmt 1 view .LVU730
 2277              		.loc 1 2611 22 is_stmt 0 view .LVU731
 2278 0004 0021     		movs	r1, #0
2612:Drivers/STM32F3xx_HAL_Driver/Src/stm32f3xx_hal_uart.c **** 
2613:Drivers/STM32F3xx_HAL_Driver/Src/stm32f3xx_hal_uart.c ****   /* Restore huart->gState to Ready */
2614:Drivers/STM32F3xx_HAL_Driver/Src/stm32f3xx_hal_uart.c ****   huart->gState = HAL_UART_STATE_READY;
 2279              		.loc 1 2614 17 view .LVU732
 2280 0006 2022     		movs	r2, #32
2611:Drivers/STM32F3xx_HAL_Driver/Src/stm32f3xx_hal_uart.c **** 
 2281              		.loc 1 2611 22 view .LVU733
 2282 0008 A3F85210 		strh	r1, [r3, #82]	@ movhi
 2283              		.loc 1 2614 3 is_stmt 1 view .LVU734
2615:Drivers/STM32F3xx_HAL_Driver/Src/stm32f3xx_hal_uart.c **** 
2616:Drivers/STM32F3xx_HAL_Driver/Src/stm32f3xx_hal_uart.c ****   /* Call user Abort complete callback */
2617:Drivers/STM32F3xx_HAL_Driver/Src/stm32f3xx_hal_uart.c ****   HAL_UART_AbortTransmitCpltCallback(huart);
 2284              		.loc 1 2617 3 is_stmt 0 view .LVU735
 2285 000c 1846     		mov	r0, r3
 2286              	.LVL118:
2614:Drivers/STM32F3xx_HAL_Driver/Src/stm32f3xx_hal_uart.c **** 
 2287              		.loc 1 2614 17 view .LVU736
 2288 000e 83F86920 		strb	r2, [r3, #105]
 2289              		.loc 1 2617 3 is_stmt 1 view .LVU737
 2290 0012 FFF7FEFF 		bl	HAL_UART_AbortTransmitCpltCallback
 2291              	.LVL119:
2618:Drivers/STM32F3xx_HAL_Driver/Src/stm32f3xx_hal_uart.c **** }
 2292              		.loc 1 2618 1 is_stmt 0 view .LVU738
 2293 0016 08BD     		pop	{r3, pc}
 2294              		.cfi_endproc
 2295              	.LFE179:
 2297              		.section	.text.HAL_UART_AbortReceiveCpltCallback,"ax",%progbits
 2298              		.align	1
 2299              		.p2align 2,,3
 2300              		.weak	HAL_UART_AbortReceiveCpltCallback
 2301              		.syntax unified
 2302              		.thumb
 2303              		.thumb_func
 2304              		.fpu fpv4-sp-d16
 2306              	HAL_UART_AbortReceiveCpltCallback:
 2307              	.LFB205:
 2308              		.cfi_startproc
 2309              		@ args = 0, pretend = 0, frame = 0
 2310              		@ frame_needed = 0, uses_anonymous_args = 0
 2311              		@ link register save eliminated.
 2312 0000 7047     		bx	lr
 2313              		.cfi_endproc
ARM GAS  /var/folders/8c/gyvcglfx7f97kbqb2h83mm_r0000gn/T//ccv1qdBn.s 			page 95


 2314              	.LFE205:
 2316 0002 00BF     		.section	.text.HAL_UART_AbortReceive_IT,"ax",%progbits
 2317              		.align	1
 2318              		.p2align 2,,3
 2319              		.global	HAL_UART_AbortReceive_IT
 2320              		.syntax unified
 2321              		.thumb
 2322              		.thumb_func
 2323              		.fpu fpv4-sp-d16
 2325              	HAL_UART_AbortReceive_IT:
 2326              	.LVL120:
 2327              	.LFB147:
1554:Drivers/STM32F3xx_HAL_Driver/Src/stm32f3xx_hal_uart.c ****   /* Disable RXNE, PE and ERR (Frame error, noise error, overrun error) interrupts */
 2328              		.loc 1 1554 1 is_stmt 1 view -0
 2329              		.cfi_startproc
 2330              		@ args = 0, pretend = 0, frame = 0
 2331              		@ frame_needed = 0, uses_anonymous_args = 0
1556:Drivers/STM32F3xx_HAL_Driver/Src/stm32f3xx_hal_uart.c ****   CLEAR_BIT(huart->Instance->CR3, USART_CR3_EIE);
 2332              		.loc 1 1556 3 view .LVU740
1554:Drivers/STM32F3xx_HAL_Driver/Src/stm32f3xx_hal_uart.c ****   /* Disable RXNE, PE and ERR (Frame error, noise error, overrun error) interrupts */
 2333              		.loc 1 1554 1 is_stmt 0 view .LVU741
 2334 0000 38B5     		push	{r3, r4, r5, lr}
 2335              	.LCFI22:
 2336              		.cfi_def_cfa_offset 16
 2337              		.cfi_offset 3, -16
 2338              		.cfi_offset 4, -12
 2339              		.cfi_offset 5, -8
 2340              		.cfi_offset 14, -4
1556:Drivers/STM32F3xx_HAL_Driver/Src/stm32f3xx_hal_uart.c ****   CLEAR_BIT(huart->Instance->CR3, USART_CR3_EIE);
 2341              		.loc 1 1556 3 view .LVU742
 2342 0002 0368     		ldr	r3, [r0]
 2343 0004 1A68     		ldr	r2, [r3]
 2344 0006 22F49072 		bic	r2, r2, #288
 2345 000a 1A60     		str	r2, [r3]
1557:Drivers/STM32F3xx_HAL_Driver/Src/stm32f3xx_hal_uart.c **** 
 2346              		.loc 1 1557 3 is_stmt 1 view .LVU743
 2347 000c 9A68     		ldr	r2, [r3, #8]
 2348 000e 22F00102 		bic	r2, r2, #1
 2349 0012 9A60     		str	r2, [r3, #8]
1560:Drivers/STM32F3xx_HAL_Driver/Src/stm32f3xx_hal_uart.c ****   {
 2350              		.loc 1 1560 3 view .LVU744
1560:Drivers/STM32F3xx_HAL_Driver/Src/stm32f3xx_hal_uart.c ****   {
 2351              		.loc 1 1560 7 is_stmt 0 view .LVU745
 2352 0014 9A68     		ldr	r2, [r3, #8]
1560:Drivers/STM32F3xx_HAL_Driver/Src/stm32f3xx_hal_uart.c ****   {
 2353              		.loc 1 1560 6 view .LVU746
 2354 0016 12F04002 		ands	r2, r2, #64
1554:Drivers/STM32F3xx_HAL_Driver/Src/stm32f3xx_hal_uart.c ****   /* Disable RXNE, PE and ERR (Frame error, noise error, overrun error) interrupts */
 2355              		.loc 1 1554 1 view .LVU747
 2356 001a 0446     		mov	r4, r0
1560:Drivers/STM32F3xx_HAL_Driver/Src/stm32f3xx_hal_uart.c ****   {
 2357              		.loc 1 1560 6 view .LVU748
 2358 001c 1BD0     		beq	.L223
1562:Drivers/STM32F3xx_HAL_Driver/Src/stm32f3xx_hal_uart.c **** 
 2359              		.loc 1 1562 5 is_stmt 1 view .LVU749
 2360 001e 9A68     		ldr	r2, [r3, #8]
1565:Drivers/STM32F3xx_HAL_Driver/Src/stm32f3xx_hal_uart.c ****     {
ARM GAS  /var/folders/8c/gyvcglfx7f97kbqb2h83mm_r0000gn/T//ccv1qdBn.s 			page 96


 2361              		.loc 1 1565 13 is_stmt 0 view .LVU750
 2362 0020 416E     		ldr	r1, [r0, #100]
1562:Drivers/STM32F3xx_HAL_Driver/Src/stm32f3xx_hal_uart.c **** 
 2363              		.loc 1 1562 5 view .LVU751
 2364 0022 22F04002 		bic	r2, r2, #64
 2365 0026 9A60     		str	r2, [r3, #8]
1565:Drivers/STM32F3xx_HAL_Driver/Src/stm32f3xx_hal_uart.c ****     {
 2366              		.loc 1 1565 5 is_stmt 1 view .LVU752
1565:Drivers/STM32F3xx_HAL_Driver/Src/stm32f3xx_hal_uart.c ****     {
 2367              		.loc 1 1565 7 is_stmt 0 view .LVU753
 2368 0028 51B1     		cbz	r1, .L224
1569:Drivers/STM32F3xx_HAL_Driver/Src/stm32f3xx_hal_uart.c **** 
 2369              		.loc 1 1569 7 is_stmt 1 view .LVU754
1569:Drivers/STM32F3xx_HAL_Driver/Src/stm32f3xx_hal_uart.c **** 
 2370              		.loc 1 1569 40 is_stmt 0 view .LVU755
 2371 002a 104B     		ldr	r3, .L230
 2372 002c 4B63     		str	r3, [r1, #52]
1572:Drivers/STM32F3xx_HAL_Driver/Src/stm32f3xx_hal_uart.c ****       {
 2373              		.loc 1 1572 7 is_stmt 1 view .LVU756
1572:Drivers/STM32F3xx_HAL_Driver/Src/stm32f3xx_hal_uart.c ****       {
 2374              		.loc 1 1572 10 is_stmt 0 view .LVU757
 2375 002e 0846     		mov	r0, r1
 2376              	.LVL121:
1572:Drivers/STM32F3xx_HAL_Driver/Src/stm32f3xx_hal_uart.c ****       {
 2377              		.loc 1 1572 10 view .LVU758
 2378 0030 FFF7FEFF 		bl	HAL_DMA_Abort_IT
 2379              	.LVL122:
1572:Drivers/STM32F3xx_HAL_Driver/Src/stm32f3xx_hal_uart.c ****       {
 2380              		.loc 1 1572 9 view .LVU759
 2381 0034 10B1     		cbz	r0, .L225
1575:Drivers/STM32F3xx_HAL_Driver/Src/stm32f3xx_hal_uart.c ****       }
 2382              		.loc 1 1575 9 is_stmt 1 view .LVU760
1575:Drivers/STM32F3xx_HAL_Driver/Src/stm32f3xx_hal_uart.c ****       }
 2383              		.loc 1 1575 14 is_stmt 0 view .LVU761
 2384 0036 606E     		ldr	r0, [r4, #100]
1575:Drivers/STM32F3xx_HAL_Driver/Src/stm32f3xx_hal_uart.c ****       }
 2385              		.loc 1 1575 9 view .LVU762
 2386 0038 436B     		ldr	r3, [r0, #52]
 2387 003a 9847     		blx	r3
 2388              	.LVL123:
 2389              	.L225:
1608:Drivers/STM32F3xx_HAL_Driver/Src/stm32f3xx_hal_uart.c **** }
 2390              		.loc 1 1608 3 is_stmt 1 view .LVU763
1609:Drivers/STM32F3xx_HAL_Driver/Src/stm32f3xx_hal_uart.c **** 
 2391              		.loc 1 1609 1 is_stmt 0 view .LVU764
 2392 003c 0020     		movs	r0, #0
 2393 003e 38BD     		pop	{r3, r4, r5, pc}
 2394              	.LVL124:
 2395              	.L224:
1581:Drivers/STM32F3xx_HAL_Driver/Src/stm32f3xx_hal_uart.c **** 
 2396              		.loc 1 1581 7 is_stmt 1 view .LVU765
1587:Drivers/STM32F3xx_HAL_Driver/Src/stm32f3xx_hal_uart.c **** 
 2397              		.loc 1 1587 22 is_stmt 0 view .LVU766
 2398 0040 2022     		movs	r2, #32
1584:Drivers/STM32F3xx_HAL_Driver/Src/stm32f3xx_hal_uart.c **** 
 2399              		.loc 1 1584 7 view .LVU767
 2400 0042 0F25     		movs	r5, #15
ARM GAS  /var/folders/8c/gyvcglfx7f97kbqb2h83mm_r0000gn/T//ccv1qdBn.s 			page 97


1581:Drivers/STM32F3xx_HAL_Driver/Src/stm32f3xx_hal_uart.c **** 
 2401              		.loc 1 1581 26 view .LVU768
 2402 0044 A0F85A10 		strh	r1, [r0, #90]	@ movhi
1584:Drivers/STM32F3xx_HAL_Driver/Src/stm32f3xx_hal_uart.c **** 
 2403              		.loc 1 1584 7 is_stmt 1 view .LVU769
 2404 0048 1D62     		str	r5, [r3, #32]
1587:Drivers/STM32F3xx_HAL_Driver/Src/stm32f3xx_hal_uart.c **** 
 2405              		.loc 1 1587 7 view .LVU770
1587:Drivers/STM32F3xx_HAL_Driver/Src/stm32f3xx_hal_uart.c **** 
 2406              		.loc 1 1587 22 is_stmt 0 view .LVU771
 2407 004a 80F86A20 		strb	r2, [r0, #106]
1590:Drivers/STM32F3xx_HAL_Driver/Src/stm32f3xx_hal_uart.c ****     }
 2408              		.loc 1 1590 7 is_stmt 1 view .LVU772
 2409 004e FFF7FEFF 		bl	HAL_UART_AbortReceiveCpltCallback
 2410              	.LVL125:
1608:Drivers/STM32F3xx_HAL_Driver/Src/stm32f3xx_hal_uart.c **** }
 2411              		.loc 1 1608 3 view .LVU773
1609:Drivers/STM32F3xx_HAL_Driver/Src/stm32f3xx_hal_uart.c **** 
 2412              		.loc 1 1609 1 is_stmt 0 view .LVU774
 2413 0052 0020     		movs	r0, #0
 2414 0054 38BD     		pop	{r3, r4, r5, pc}
 2415              	.LVL126:
 2416              	.L223:
1596:Drivers/STM32F3xx_HAL_Driver/Src/stm32f3xx_hal_uart.c **** 
 2417              		.loc 1 1596 5 is_stmt 1 view .LVU775
1602:Drivers/STM32F3xx_HAL_Driver/Src/stm32f3xx_hal_uart.c **** 
 2418              		.loc 1 1602 20 is_stmt 0 view .LVU776
 2419 0056 2021     		movs	r1, #32
1599:Drivers/STM32F3xx_HAL_Driver/Src/stm32f3xx_hal_uart.c **** 
 2420              		.loc 1 1599 5 view .LVU777
 2421 0058 0F25     		movs	r5, #15
1596:Drivers/STM32F3xx_HAL_Driver/Src/stm32f3xx_hal_uart.c **** 
 2422              		.loc 1 1596 24 view .LVU778
 2423 005a A0F85A20 		strh	r2, [r0, #90]	@ movhi
1599:Drivers/STM32F3xx_HAL_Driver/Src/stm32f3xx_hal_uart.c **** 
 2424              		.loc 1 1599 5 is_stmt 1 view .LVU779
 2425 005e 1D62     		str	r5, [r3, #32]
1602:Drivers/STM32F3xx_HAL_Driver/Src/stm32f3xx_hal_uart.c **** 
 2426              		.loc 1 1602 5 view .LVU780
1602:Drivers/STM32F3xx_HAL_Driver/Src/stm32f3xx_hal_uart.c **** 
 2427              		.loc 1 1602 20 is_stmt 0 view .LVU781
 2428 0060 80F86A10 		strb	r1, [r0, #106]
1605:Drivers/STM32F3xx_HAL_Driver/Src/stm32f3xx_hal_uart.c ****   }
 2429              		.loc 1 1605 5 is_stmt 1 view .LVU782
 2430 0064 FFF7FEFF 		bl	HAL_UART_AbortReceiveCpltCallback
 2431              	.LVL127:
1608:Drivers/STM32F3xx_HAL_Driver/Src/stm32f3xx_hal_uart.c **** }
 2432              		.loc 1 1608 3 view .LVU783
1609:Drivers/STM32F3xx_HAL_Driver/Src/stm32f3xx_hal_uart.c **** 
 2433              		.loc 1 1609 1 is_stmt 0 view .LVU784
 2434 0068 0020     		movs	r0, #0
 2435 006a 38BD     		pop	{r3, r4, r5, pc}
 2436              	.LVL128:
 2437              	.L231:
1609:Drivers/STM32F3xx_HAL_Driver/Src/stm32f3xx_hal_uart.c **** 
 2438              		.loc 1 1609 1 view .LVU785
 2439              		.align	2
ARM GAS  /var/folders/8c/gyvcglfx7f97kbqb2h83mm_r0000gn/T//ccv1qdBn.s 			page 98


 2440              	.L230:
 2441 006c 00000000 		.word	UART_DMARxOnlyAbortCallback
 2442              		.cfi_endproc
 2443              	.LFE147:
 2445              		.section	.text.UART_DMARxOnlyAbortCallback,"ax",%progbits
 2446              		.align	1
 2447              		.p2align 2,,3
 2448              		.syntax unified
 2449              		.thumb
 2450              		.thumb_func
 2451              		.fpu fpv4-sp-d16
 2453              	UART_DMARxOnlyAbortCallback:
 2454              	.LVL129:
 2455              	.LFB180:
2619:Drivers/STM32F3xx_HAL_Driver/Src/stm32f3xx_hal_uart.c **** 
2620:Drivers/STM32F3xx_HAL_Driver/Src/stm32f3xx_hal_uart.c **** /**
2621:Drivers/STM32F3xx_HAL_Driver/Src/stm32f3xx_hal_uart.c ****   * @brief  DMA UART Rx communication abort callback, when initiated by user by a call to
2622:Drivers/STM32F3xx_HAL_Driver/Src/stm32f3xx_hal_uart.c ****   *         HAL_UART_AbortReceive_IT API (Abort only Rx transfer)
2623:Drivers/STM32F3xx_HAL_Driver/Src/stm32f3xx_hal_uart.c ****   *         (This callback is executed at end of DMA Rx Abort procedure following user abort reques
2624:Drivers/STM32F3xx_HAL_Driver/Src/stm32f3xx_hal_uart.c ****   *         and leads to user Rx Abort Complete callback execution).
2625:Drivers/STM32F3xx_HAL_Driver/Src/stm32f3xx_hal_uart.c ****   * @param  hdma DMA handle.
2626:Drivers/STM32F3xx_HAL_Driver/Src/stm32f3xx_hal_uart.c ****   * @retval None
2627:Drivers/STM32F3xx_HAL_Driver/Src/stm32f3xx_hal_uart.c ****   */
2628:Drivers/STM32F3xx_HAL_Driver/Src/stm32f3xx_hal_uart.c **** static void UART_DMARxOnlyAbortCallback(DMA_HandleTypeDef *hdma)
2629:Drivers/STM32F3xx_HAL_Driver/Src/stm32f3xx_hal_uart.c **** {
 2456              		.loc 1 2629 1 is_stmt 1 view -0
 2457              		.cfi_startproc
 2458              		@ args = 0, pretend = 0, frame = 0
 2459              		@ frame_needed = 0, uses_anonymous_args = 0
2630:Drivers/STM32F3xx_HAL_Driver/Src/stm32f3xx_hal_uart.c ****   UART_HandleTypeDef* huart = ( UART_HandleTypeDef* )((DMA_HandleTypeDef* )hdma)->Parent;
 2460              		.loc 1 2630 3 view .LVU787
 2461              		.loc 1 2630 23 is_stmt 0 view .LVU788
 2462 0000 436A     		ldr	r3, [r0, #36]
 2463              	.LVL130:
2631:Drivers/STM32F3xx_HAL_Driver/Src/stm32f3xx_hal_uart.c **** 
2632:Drivers/STM32F3xx_HAL_Driver/Src/stm32f3xx_hal_uart.c ****   huart->RxXferCount = 0U;
 2464              		.loc 1 2632 3 is_stmt 1 view .LVU789
2629:Drivers/STM32F3xx_HAL_Driver/Src/stm32f3xx_hal_uart.c ****   UART_HandleTypeDef* huart = ( UART_HandleTypeDef* )((DMA_HandleTypeDef* )hdma)->Parent;
 2465              		.loc 1 2629 1 is_stmt 0 view .LVU790
 2466 0002 10B5     		push	{r4, lr}
 2467              	.LCFI23:
 2468              		.cfi_def_cfa_offset 8
 2469              		.cfi_offset 4, -8
 2470              		.cfi_offset 14, -4
2633:Drivers/STM32F3xx_HAL_Driver/Src/stm32f3xx_hal_uart.c **** 
2634:Drivers/STM32F3xx_HAL_Driver/Src/stm32f3xx_hal_uart.c ****   /* Clear the Error flags in the ICR register */
2635:Drivers/STM32F3xx_HAL_Driver/Src/stm32f3xx_hal_uart.c ****   __HAL_UART_CLEAR_FLAG(huart, UART_CLEAR_OREF | UART_CLEAR_NEF | UART_CLEAR_PEF | UART_CLEAR_FEF);
 2471              		.loc 1 2635 3 view .LVU791
 2472 0004 1968     		ldr	r1, [r3]
2632:Drivers/STM32F3xx_HAL_Driver/Src/stm32f3xx_hal_uart.c **** 
 2473              		.loc 1 2632 22 view .LVU792
 2474 0006 0020     		movs	r0, #0
 2475              	.LVL131:
 2476              		.loc 1 2635 3 view .LVU793
 2477 0008 0F24     		movs	r4, #15
2636:Drivers/STM32F3xx_HAL_Driver/Src/stm32f3xx_hal_uart.c **** 
2637:Drivers/STM32F3xx_HAL_Driver/Src/stm32f3xx_hal_uart.c ****   /* Restore huart->RxState to Ready */
ARM GAS  /var/folders/8c/gyvcglfx7f97kbqb2h83mm_r0000gn/T//ccv1qdBn.s 			page 99


2638:Drivers/STM32F3xx_HAL_Driver/Src/stm32f3xx_hal_uart.c ****   huart->RxState = HAL_UART_STATE_READY;
 2478              		.loc 1 2638 18 view .LVU794
 2479 000a 2022     		movs	r2, #32
2632:Drivers/STM32F3xx_HAL_Driver/Src/stm32f3xx_hal_uart.c **** 
 2480              		.loc 1 2632 22 view .LVU795
 2481 000c A3F85A00 		strh	r0, [r3, #90]	@ movhi
2635:Drivers/STM32F3xx_HAL_Driver/Src/stm32f3xx_hal_uart.c **** 
 2482              		.loc 1 2635 3 is_stmt 1 view .LVU796
 2483 0010 0C62     		str	r4, [r1, #32]
 2484              		.loc 1 2638 3 view .LVU797
2639:Drivers/STM32F3xx_HAL_Driver/Src/stm32f3xx_hal_uart.c **** 
2640:Drivers/STM32F3xx_HAL_Driver/Src/stm32f3xx_hal_uart.c ****   /* Call user Abort complete callback */
2641:Drivers/STM32F3xx_HAL_Driver/Src/stm32f3xx_hal_uart.c ****   HAL_UART_AbortReceiveCpltCallback(huart);
 2485              		.loc 1 2641 3 is_stmt 0 view .LVU798
 2486 0012 1846     		mov	r0, r3
2638:Drivers/STM32F3xx_HAL_Driver/Src/stm32f3xx_hal_uart.c **** 
 2487              		.loc 1 2638 18 view .LVU799
 2488 0014 83F86A20 		strb	r2, [r3, #106]
 2489              		.loc 1 2641 3 is_stmt 1 view .LVU800
 2490 0018 FFF7FEFF 		bl	HAL_UART_AbortReceiveCpltCallback
 2491              	.LVL132:
2642:Drivers/STM32F3xx_HAL_Driver/Src/stm32f3xx_hal_uart.c **** }
 2492              		.loc 1 2642 1 is_stmt 0 view .LVU801
 2493 001c 10BD     		pop	{r4, pc}
 2494              		.cfi_endproc
 2495              	.LFE180:
 2497 001e 00BF     		.section	.text.HAL_MultiProcessor_EnterMuteMode,"ax",%progbits
 2498              		.align	1
 2499              		.p2align 2,,3
 2500              		.global	HAL_MultiProcessor_EnterMuteMode
 2501              		.syntax unified
 2502              		.thumb
 2503              		.thumb_func
 2504              		.fpu fpv4-sp-d16
 2506              	HAL_MultiProcessor_EnterMuteMode:
 2507              	.LVL133:
 2508              	.LFB159:
1955:Drivers/STM32F3xx_HAL_Driver/Src/stm32f3xx_hal_uart.c ****   __HAL_UART_SEND_REQ(huart, UART_MUTE_MODE_REQUEST);
 2509              		.loc 1 1955 1 is_stmt 1 view -0
 2510              		.cfi_startproc
 2511              		@ args = 0, pretend = 0, frame = 0
 2512              		@ frame_needed = 0, uses_anonymous_args = 0
 2513              		@ link register save eliminated.
1956:Drivers/STM32F3xx_HAL_Driver/Src/stm32f3xx_hal_uart.c **** }
 2514              		.loc 1 1956 3 view .LVU803
 2515 0000 0268     		ldr	r2, [r0]
 2516 0002 9369     		ldr	r3, [r2, #24]
 2517 0004 43F00403 		orr	r3, r3, #4
 2518 0008 9361     		str	r3, [r2, #24]
1957:Drivers/STM32F3xx_HAL_Driver/Src/stm32f3xx_hal_uart.c **** 
 2519              		.loc 1 1957 1 is_stmt 0 view .LVU804
 2520 000a 7047     		bx	lr
 2521              		.cfi_endproc
 2522              	.LFE159:
 2524              		.section	.text.HAL_HalfDuplex_EnableTransmitter,"ax",%progbits
 2525              		.align	1
 2526              		.p2align 2,,3
ARM GAS  /var/folders/8c/gyvcglfx7f97kbqb2h83mm_r0000gn/T//ccv1qdBn.s 			page 100


 2527              		.global	HAL_HalfDuplex_EnableTransmitter
 2528              		.syntax unified
 2529              		.thumb
 2530              		.thumb_func
 2531              		.fpu fpv4-sp-d16
 2533              	HAL_HalfDuplex_EnableTransmitter:
 2534              	.LVL134:
 2535              	.LFB160:
1965:Drivers/STM32F3xx_HAL_Driver/Src/stm32f3xx_hal_uart.c ****   /* Process Locked */
 2536              		.loc 1 1965 1 is_stmt 1 view -0
 2537              		.cfi_startproc
 2538              		@ args = 0, pretend = 0, frame = 0
 2539              		@ frame_needed = 0, uses_anonymous_args = 0
 2540              		@ link register save eliminated.
1967:Drivers/STM32F3xx_HAL_Driver/Src/stm32f3xx_hal_uart.c ****   huart->gState = HAL_UART_STATE_BUSY;
 2541              		.loc 1 1967 3 view .LVU806
1967:Drivers/STM32F3xx_HAL_Driver/Src/stm32f3xx_hal_uart.c ****   huart->gState = HAL_UART_STATE_BUSY;
 2542              		.loc 1 1967 3 view .LVU807
 2543 0000 90F86820 		ldrb	r2, [r0, #104]	@ zero_extendqisi2
 2544 0004 012A     		cmp	r2, #1
 2545 0006 16D0     		beq	.L237
1971:Drivers/STM32F3xx_HAL_Driver/Src/stm32f3xx_hal_uart.c ****   /* Enable the USART's transmit interface by setting the TE bit in the USART CR1 register */
 2546              		.loc 1 1971 3 is_stmt 0 discriminator 2 view .LVU808
 2547 0008 0268     		ldr	r2, [r0]
1968:Drivers/STM32F3xx_HAL_Driver/Src/stm32f3xx_hal_uart.c **** 
 2548              		.loc 1 1968 17 discriminator 2 view .LVU809
 2549 000a 2421     		movs	r1, #36
1965:Drivers/STM32F3xx_HAL_Driver/Src/stm32f3xx_hal_uart.c ****   /* Process Locked */
 2550              		.loc 1 1965 1 discriminator 2 view .LVU810
 2551 000c 30B4     		push	{r4, r5}
 2552              	.LCFI24:
 2553              		.cfi_def_cfa_offset 8
 2554              		.cfi_offset 4, -8
 2555              		.cfi_offset 5, -4
1968:Drivers/STM32F3xx_HAL_Driver/Src/stm32f3xx_hal_uart.c **** 
 2556              		.loc 1 1968 17 discriminator 2 view .LVU811
 2557 000e 80F86910 		strb	r1, [r0, #105]
1971:Drivers/STM32F3xx_HAL_Driver/Src/stm32f3xx_hal_uart.c ****   /* Enable the USART's transmit interface by setting the TE bit in the USART CR1 register */
 2558              		.loc 1 1971 3 discriminator 2 view .LVU812
 2559 0012 1168     		ldr	r1, [r2]
 2560 0014 21F00C01 		bic	r1, r1, #12
 2561 0018 1160     		str	r1, [r2]
1973:Drivers/STM32F3xx_HAL_Driver/Src/stm32f3xx_hal_uart.c **** 
 2562              		.loc 1 1973 3 discriminator 2 view .LVU813
 2563 001a 1168     		ldr	r1, [r2]
 2564 001c 0346     		mov	r3, r0
1967:Drivers/STM32F3xx_HAL_Driver/Src/stm32f3xx_hal_uart.c ****   huart->gState = HAL_UART_STATE_BUSY;
 2565              		.loc 1 1967 3 is_stmt 1 discriminator 2 view .LVU814
1968:Drivers/STM32F3xx_HAL_Driver/Src/stm32f3xx_hal_uart.c **** 
 2566              		.loc 1 1968 3 discriminator 2 view .LVU815
1971:Drivers/STM32F3xx_HAL_Driver/Src/stm32f3xx_hal_uart.c ****   /* Enable the USART's transmit interface by setting the TE bit in the USART CR1 register */
 2567              		.loc 1 1971 3 discriminator 2 view .LVU816
1973:Drivers/STM32F3xx_HAL_Driver/Src/stm32f3xx_hal_uart.c **** 
 2568              		.loc 1 1973 3 discriminator 2 view .LVU817
1978:Drivers/STM32F3xx_HAL_Driver/Src/stm32f3xx_hal_uart.c **** 
 2569              		.loc 1 1978 3 is_stmt 0 discriminator 2 view .LVU818
 2570 001e 0024     		movs	r4, #0
ARM GAS  /var/folders/8c/gyvcglfx7f97kbqb2h83mm_r0000gn/T//ccv1qdBn.s 			page 101


1975:Drivers/STM32F3xx_HAL_Driver/Src/stm32f3xx_hal_uart.c **** 
 2571              		.loc 1 1975 17 discriminator 2 view .LVU819
 2572 0020 2025     		movs	r5, #32
1973:Drivers/STM32F3xx_HAL_Driver/Src/stm32f3xx_hal_uart.c **** 
 2573              		.loc 1 1973 3 discriminator 2 view .LVU820
 2574 0022 41F00801 		orr	r1, r1, #8
 2575 0026 1160     		str	r1, [r2]
1975:Drivers/STM32F3xx_HAL_Driver/Src/stm32f3xx_hal_uart.c **** 
 2576              		.loc 1 1975 3 is_stmt 1 discriminator 2 view .LVU821
1980:Drivers/STM32F3xx_HAL_Driver/Src/stm32f3xx_hal_uart.c **** }
 2577              		.loc 1 1980 10 is_stmt 0 discriminator 2 view .LVU822
 2578 0028 2046     		mov	r0, r4
 2579              	.LVL135:
1975:Drivers/STM32F3xx_HAL_Driver/Src/stm32f3xx_hal_uart.c **** 
 2580              		.loc 1 1975 17 discriminator 2 view .LVU823
 2581 002a 83F86950 		strb	r5, [r3, #105]
1978:Drivers/STM32F3xx_HAL_Driver/Src/stm32f3xx_hal_uart.c **** 
 2582              		.loc 1 1978 3 is_stmt 1 discriminator 2 view .LVU824
1978:Drivers/STM32F3xx_HAL_Driver/Src/stm32f3xx_hal_uart.c **** 
 2583              		.loc 1 1978 3 discriminator 2 view .LVU825
 2584 002e 83F86840 		strb	r4, [r3, #104]
1980:Drivers/STM32F3xx_HAL_Driver/Src/stm32f3xx_hal_uart.c **** }
 2585              		.loc 1 1980 3 discriminator 2 view .LVU826
1981:Drivers/STM32F3xx_HAL_Driver/Src/stm32f3xx_hal_uart.c **** 
 2586              		.loc 1 1981 1 is_stmt 0 discriminator 2 view .LVU827
 2587 0032 30BC     		pop	{r4, r5}
 2588              	.LCFI25:
 2589              		.cfi_restore 5
 2590              		.cfi_restore 4
 2591              		.cfi_def_cfa_offset 0
 2592 0034 7047     		bx	lr
 2593              	.LVL136:
 2594              	.L237:
1967:Drivers/STM32F3xx_HAL_Driver/Src/stm32f3xx_hal_uart.c ****   huart->gState = HAL_UART_STATE_BUSY;
 2595              		.loc 1 1967 3 view .LVU828
 2596 0036 0220     		movs	r0, #2
 2597              	.LVL137:
1981:Drivers/STM32F3xx_HAL_Driver/Src/stm32f3xx_hal_uart.c **** 
 2598              		.loc 1 1981 1 view .LVU829
 2599 0038 7047     		bx	lr
 2600              		.cfi_endproc
 2601              	.LFE160:
 2603 003a 00BF     		.section	.text.HAL_HalfDuplex_EnableReceiver,"ax",%progbits
 2604              		.align	1
 2605              		.p2align 2,,3
 2606              		.global	HAL_HalfDuplex_EnableReceiver
 2607              		.syntax unified
 2608              		.thumb
 2609              		.thumb_func
 2610              		.fpu fpv4-sp-d16
 2612              	HAL_HalfDuplex_EnableReceiver:
 2613              	.LVL138:
 2614              	.LFB161:
1989:Drivers/STM32F3xx_HAL_Driver/Src/stm32f3xx_hal_uart.c ****   /* Process Locked */
 2615              		.loc 1 1989 1 is_stmt 1 view -0
 2616              		.cfi_startproc
 2617              		@ args = 0, pretend = 0, frame = 0
ARM GAS  /var/folders/8c/gyvcglfx7f97kbqb2h83mm_r0000gn/T//ccv1qdBn.s 			page 102


 2618              		@ frame_needed = 0, uses_anonymous_args = 0
 2619              		@ link register save eliminated.
1991:Drivers/STM32F3xx_HAL_Driver/Src/stm32f3xx_hal_uart.c ****   huart->gState = HAL_UART_STATE_BUSY;
 2620              		.loc 1 1991 3 view .LVU831
1991:Drivers/STM32F3xx_HAL_Driver/Src/stm32f3xx_hal_uart.c ****   huart->gState = HAL_UART_STATE_BUSY;
 2621              		.loc 1 1991 3 view .LVU832
 2622 0000 90F86820 		ldrb	r2, [r0, #104]	@ zero_extendqisi2
 2623 0004 012A     		cmp	r2, #1
 2624 0006 16D0     		beq	.L244
1995:Drivers/STM32F3xx_HAL_Driver/Src/stm32f3xx_hal_uart.c ****   /* Enable the USART's receive interface by setting the RE bit in the USART CR1 register */
 2625              		.loc 1 1995 3 is_stmt 0 discriminator 2 view .LVU833
 2626 0008 0268     		ldr	r2, [r0]
1992:Drivers/STM32F3xx_HAL_Driver/Src/stm32f3xx_hal_uart.c **** 
 2627              		.loc 1 1992 17 discriminator 2 view .LVU834
 2628 000a 2421     		movs	r1, #36
1989:Drivers/STM32F3xx_HAL_Driver/Src/stm32f3xx_hal_uart.c ****   /* Process Locked */
 2629              		.loc 1 1989 1 discriminator 2 view .LVU835
 2630 000c 30B4     		push	{r4, r5}
 2631              	.LCFI26:
 2632              		.cfi_def_cfa_offset 8
 2633              		.cfi_offset 4, -8
 2634              		.cfi_offset 5, -4
1992:Drivers/STM32F3xx_HAL_Driver/Src/stm32f3xx_hal_uart.c **** 
 2635              		.loc 1 1992 17 discriminator 2 view .LVU836
 2636 000e 80F86910 		strb	r1, [r0, #105]
1995:Drivers/STM32F3xx_HAL_Driver/Src/stm32f3xx_hal_uart.c ****   /* Enable the USART's receive interface by setting the RE bit in the USART CR1 register */
 2637              		.loc 1 1995 3 discriminator 2 view .LVU837
 2638 0012 1168     		ldr	r1, [r2]
 2639 0014 21F00C01 		bic	r1, r1, #12
 2640 0018 1160     		str	r1, [r2]
1997:Drivers/STM32F3xx_HAL_Driver/Src/stm32f3xx_hal_uart.c **** 
 2641              		.loc 1 1997 3 discriminator 2 view .LVU838
 2642 001a 1168     		ldr	r1, [r2]
 2643 001c 0346     		mov	r3, r0
1991:Drivers/STM32F3xx_HAL_Driver/Src/stm32f3xx_hal_uart.c ****   huart->gState = HAL_UART_STATE_BUSY;
 2644              		.loc 1 1991 3 is_stmt 1 discriminator 2 view .LVU839
1992:Drivers/STM32F3xx_HAL_Driver/Src/stm32f3xx_hal_uart.c **** 
 2645              		.loc 1 1992 3 discriminator 2 view .LVU840
1995:Drivers/STM32F3xx_HAL_Driver/Src/stm32f3xx_hal_uart.c ****   /* Enable the USART's receive interface by setting the RE bit in the USART CR1 register */
 2646              		.loc 1 1995 3 discriminator 2 view .LVU841
1997:Drivers/STM32F3xx_HAL_Driver/Src/stm32f3xx_hal_uart.c **** 
 2647              		.loc 1 1997 3 discriminator 2 view .LVU842
2001:Drivers/STM32F3xx_HAL_Driver/Src/stm32f3xx_hal_uart.c **** 
 2648              		.loc 1 2001 3 is_stmt 0 discriminator 2 view .LVU843
 2649 001e 0024     		movs	r4, #0
1999:Drivers/STM32F3xx_HAL_Driver/Src/stm32f3xx_hal_uart.c ****   /* Process Unlocked */
 2650              		.loc 1 1999 17 discriminator 2 view .LVU844
 2651 0020 2025     		movs	r5, #32
1997:Drivers/STM32F3xx_HAL_Driver/Src/stm32f3xx_hal_uart.c **** 
 2652              		.loc 1 1997 3 discriminator 2 view .LVU845
 2653 0022 41F00401 		orr	r1, r1, #4
 2654 0026 1160     		str	r1, [r2]
1999:Drivers/STM32F3xx_HAL_Driver/Src/stm32f3xx_hal_uart.c ****   /* Process Unlocked */
 2655              		.loc 1 1999 3 is_stmt 1 discriminator 2 view .LVU846
2003:Drivers/STM32F3xx_HAL_Driver/Src/stm32f3xx_hal_uart.c **** }
 2656              		.loc 1 2003 10 is_stmt 0 discriminator 2 view .LVU847
 2657 0028 2046     		mov	r0, r4
ARM GAS  /var/folders/8c/gyvcglfx7f97kbqb2h83mm_r0000gn/T//ccv1qdBn.s 			page 103


 2658              	.LVL139:
1999:Drivers/STM32F3xx_HAL_Driver/Src/stm32f3xx_hal_uart.c ****   /* Process Unlocked */
 2659              		.loc 1 1999 17 discriminator 2 view .LVU848
 2660 002a 83F86950 		strb	r5, [r3, #105]
2001:Drivers/STM32F3xx_HAL_Driver/Src/stm32f3xx_hal_uart.c **** 
 2661              		.loc 1 2001 3 is_stmt 1 discriminator 2 view .LVU849
2001:Drivers/STM32F3xx_HAL_Driver/Src/stm32f3xx_hal_uart.c **** 
 2662              		.loc 1 2001 3 discriminator 2 view .LVU850
 2663 002e 83F86840 		strb	r4, [r3, #104]
2003:Drivers/STM32F3xx_HAL_Driver/Src/stm32f3xx_hal_uart.c **** }
 2664              		.loc 1 2003 3 discriminator 2 view .LVU851
2004:Drivers/STM32F3xx_HAL_Driver/Src/stm32f3xx_hal_uart.c **** 
 2665              		.loc 1 2004 1 is_stmt 0 discriminator 2 view .LVU852
 2666 0032 30BC     		pop	{r4, r5}
 2667              	.LCFI27:
 2668              		.cfi_restore 5
 2669              		.cfi_restore 4
 2670              		.cfi_def_cfa_offset 0
 2671 0034 7047     		bx	lr
 2672              	.LVL140:
 2673              	.L244:
1991:Drivers/STM32F3xx_HAL_Driver/Src/stm32f3xx_hal_uart.c ****   huart->gState = HAL_UART_STATE_BUSY;
 2674              		.loc 1 1991 3 view .LVU853
 2675 0036 0220     		movs	r0, #2
 2676              	.LVL141:
2004:Drivers/STM32F3xx_HAL_Driver/Src/stm32f3xx_hal_uart.c **** 
 2677              		.loc 1 2004 1 view .LVU854
 2678 0038 7047     		bx	lr
 2679              		.cfi_endproc
 2680              	.LFE161:
 2682 003a 00BF     		.section	.text.HAL_LIN_SendBreak,"ax",%progbits
 2683              		.align	1
 2684              		.p2align 2,,3
 2685              		.global	HAL_LIN_SendBreak
 2686              		.syntax unified
 2687              		.thumb
 2688              		.thumb_func
 2689              		.fpu fpv4-sp-d16
 2691              	HAL_LIN_SendBreak:
 2692              	.LVL142:
 2693              	.LFB162:
2013:Drivers/STM32F3xx_HAL_Driver/Src/stm32f3xx_hal_uart.c ****   /* Check the parameters */
 2694              		.loc 1 2013 1 is_stmt 1 view -0
 2695              		.cfi_startproc
 2696              		@ args = 0, pretend = 0, frame = 0
 2697              		@ frame_needed = 0, uses_anonymous_args = 0
 2698              		@ link register save eliminated.
2015:Drivers/STM32F3xx_HAL_Driver/Src/stm32f3xx_hal_uart.c **** 
 2699              		.loc 1 2015 3 view .LVU856
2018:Drivers/STM32F3xx_HAL_Driver/Src/stm32f3xx_hal_uart.c **** 
 2700              		.loc 1 2018 3 view .LVU857
2018:Drivers/STM32F3xx_HAL_Driver/Src/stm32f3xx_hal_uart.c **** 
 2701              		.loc 1 2018 3 view .LVU858
 2702 0000 90F86820 		ldrb	r2, [r0, #104]	@ zero_extendqisi2
 2703 0004 012A     		cmp	r2, #1
 2704 0006 13D0     		beq	.L251
 2705 0008 0346     		mov	r3, r0
ARM GAS  /var/folders/8c/gyvcglfx7f97kbqb2h83mm_r0000gn/T//ccv1qdBn.s 			page 104


2018:Drivers/STM32F3xx_HAL_Driver/Src/stm32f3xx_hal_uart.c **** 
 2706              		.loc 1 2018 3 discriminator 2 view .LVU859
2020:Drivers/STM32F3xx_HAL_Driver/Src/stm32f3xx_hal_uart.c **** 
 2707              		.loc 1 2020 3 discriminator 2 view .LVU860
2020:Drivers/STM32F3xx_HAL_Driver/Src/stm32f3xx_hal_uart.c **** 
 2708              		.loc 1 2020 17 is_stmt 0 discriminator 2 view .LVU861
 2709 000a 2422     		movs	r2, #36
2023:Drivers/STM32F3xx_HAL_Driver/Src/stm32f3xx_hal_uart.c **** 
 2710              		.loc 1 2023 8 discriminator 2 view .LVU862
 2711 000c 0068     		ldr	r0, [r0]
 2712              	.LVL143:
2013:Drivers/STM32F3xx_HAL_Driver/Src/stm32f3xx_hal_uart.c ****   /* Check the parameters */
 2713              		.loc 1 2013 1 discriminator 2 view .LVU863
 2714 000e 10B4     		push	{r4}
 2715              	.LCFI28:
 2716              		.cfi_def_cfa_offset 4
 2717              		.cfi_offset 4, -4
2020:Drivers/STM32F3xx_HAL_Driver/Src/stm32f3xx_hal_uart.c **** 
 2718              		.loc 1 2020 17 discriminator 2 view .LVU864
 2719 0010 83F86920 		strb	r2, [r3, #105]
2023:Drivers/STM32F3xx_HAL_Driver/Src/stm32f3xx_hal_uart.c **** 
 2720              		.loc 1 2023 3 is_stmt 1 discriminator 2 view .LVU865
2023:Drivers/STM32F3xx_HAL_Driver/Src/stm32f3xx_hal_uart.c **** 
 2721              		.loc 1 2023 24 is_stmt 0 discriminator 2 view .LVU866
 2722 0014 8269     		ldr	r2, [r0, #24]
2025:Drivers/STM32F3xx_HAL_Driver/Src/stm32f3xx_hal_uart.c **** 
 2723              		.loc 1 2025 17 discriminator 2 view .LVU867
 2724 0016 2024     		movs	r4, #32
2028:Drivers/STM32F3xx_HAL_Driver/Src/stm32f3xx_hal_uart.c **** 
 2725              		.loc 1 2028 3 discriminator 2 view .LVU868
 2726 0018 0021     		movs	r1, #0
2023:Drivers/STM32F3xx_HAL_Driver/Src/stm32f3xx_hal_uart.c **** 
 2727              		.loc 1 2023 24 discriminator 2 view .LVU869
 2728 001a 42F00202 		orr	r2, r2, #2
 2729 001e 8261     		str	r2, [r0, #24]
2025:Drivers/STM32F3xx_HAL_Driver/Src/stm32f3xx_hal_uart.c **** 
 2730              		.loc 1 2025 3 is_stmt 1 discriminator 2 view .LVU870
2030:Drivers/STM32F3xx_HAL_Driver/Src/stm32f3xx_hal_uart.c **** }
 2731              		.loc 1 2030 10 is_stmt 0 discriminator 2 view .LVU871
 2732 0020 0846     		mov	r0, r1
2025:Drivers/STM32F3xx_HAL_Driver/Src/stm32f3xx_hal_uart.c **** 
 2733              		.loc 1 2025 17 discriminator 2 view .LVU872
 2734 0022 83F86940 		strb	r4, [r3, #105]
2028:Drivers/STM32F3xx_HAL_Driver/Src/stm32f3xx_hal_uart.c **** 
 2735              		.loc 1 2028 3 is_stmt 1 discriminator 2 view .LVU873
2028:Drivers/STM32F3xx_HAL_Driver/Src/stm32f3xx_hal_uart.c **** 
 2736              		.loc 1 2028 3 discriminator 2 view .LVU874
 2737 0026 83F86810 		strb	r1, [r3, #104]
2030:Drivers/STM32F3xx_HAL_Driver/Src/stm32f3xx_hal_uart.c **** }
 2738              		.loc 1 2030 3 discriminator 2 view .LVU875
2031:Drivers/STM32F3xx_HAL_Driver/Src/stm32f3xx_hal_uart.c **** 
 2739              		.loc 1 2031 1 is_stmt 0 discriminator 2 view .LVU876
 2740 002a 5DF8044B 		ldr	r4, [sp], #4
 2741              	.LCFI29:
 2742              		.cfi_restore 4
 2743              		.cfi_def_cfa_offset 0
 2744 002e 7047     		bx	lr
ARM GAS  /var/folders/8c/gyvcglfx7f97kbqb2h83mm_r0000gn/T//ccv1qdBn.s 			page 105


 2745              	.LVL144:
 2746              	.L251:
2018:Drivers/STM32F3xx_HAL_Driver/Src/stm32f3xx_hal_uart.c **** 
 2747              		.loc 1 2018 3 view .LVU877
 2748 0030 0220     		movs	r0, #2
 2749              	.LVL145:
2031:Drivers/STM32F3xx_HAL_Driver/Src/stm32f3xx_hal_uart.c **** 
 2750              		.loc 1 2031 1 view .LVU878
 2751 0032 7047     		bx	lr
 2752              		.cfi_endproc
 2753              	.LFE162:
 2755              		.section	.text.HAL_UART_GetState,"ax",%progbits
 2756              		.align	1
 2757              		.p2align 2,,3
 2758              		.global	HAL_UART_GetState
 2759              		.syntax unified
 2760              		.thumb
 2761              		.thumb_func
 2762              		.fpu fpv4-sp-d16
 2764              	HAL_UART_GetState:
 2765              	.LVL146:
 2766              	.LFB163:
2061:Drivers/STM32F3xx_HAL_Driver/Src/stm32f3xx_hal_uart.c ****   uint32_t temp1= 0x00U, temp2 = 0x00U;
 2767              		.loc 1 2061 1 is_stmt 1 view -0
 2768              		.cfi_startproc
 2769              		@ args = 0, pretend = 0, frame = 0
 2770              		@ frame_needed = 0, uses_anonymous_args = 0
 2771              		@ link register save eliminated.
2062:Drivers/STM32F3xx_HAL_Driver/Src/stm32f3xx_hal_uart.c ****   temp1 = huart->gState;
 2772              		.loc 1 2062 3 view .LVU880
2063:Drivers/STM32F3xx_HAL_Driver/Src/stm32f3xx_hal_uart.c ****   temp2 = huart->RxState;
 2773              		.loc 1 2063 3 view .LVU881
2063:Drivers/STM32F3xx_HAL_Driver/Src/stm32f3xx_hal_uart.c ****   temp2 = huart->RxState;
 2774              		.loc 1 2063 16 is_stmt 0 view .LVU882
 2775 0000 90F86920 		ldrb	r2, [r0, #105]	@ zero_extendqisi2
 2776              	.LVL147:
2064:Drivers/STM32F3xx_HAL_Driver/Src/stm32f3xx_hal_uart.c **** 
 2777              		.loc 1 2064 3 is_stmt 1 view .LVU883
2064:Drivers/STM32F3xx_HAL_Driver/Src/stm32f3xx_hal_uart.c **** 
 2778              		.loc 1 2064 16 is_stmt 0 view .LVU884
 2779 0004 90F86A00 		ldrb	r0, [r0, #106]	@ zero_extendqisi2
 2780              	.LVL148:
2066:Drivers/STM32F3xx_HAL_Driver/Src/stm32f3xx_hal_uart.c **** }
 2781              		.loc 1 2066 3 is_stmt 1 view .LVU885
2067:Drivers/STM32F3xx_HAL_Driver/Src/stm32f3xx_hal_uart.c **** 
 2782              		.loc 1 2067 1 is_stmt 0 view .LVU886
 2783 0008 1043     		orrs	r0, r0, r2
 2784              	.LVL149:
2067:Drivers/STM32F3xx_HAL_Driver/Src/stm32f3xx_hal_uart.c **** 
 2785              		.loc 1 2067 1 view .LVU887
 2786 000a 7047     		bx	lr
 2787              		.cfi_endproc
 2788              	.LFE163:
 2790              		.section	.text.HAL_UART_GetError,"ax",%progbits
 2791              		.align	1
 2792              		.p2align 2,,3
 2793              		.global	HAL_UART_GetError
ARM GAS  /var/folders/8c/gyvcglfx7f97kbqb2h83mm_r0000gn/T//ccv1qdBn.s 			page 106


 2794              		.syntax unified
 2795              		.thumb
 2796              		.thumb_func
 2797              		.fpu fpv4-sp-d16
 2799              	HAL_UART_GetError:
 2800              	.LVL150:
 2801              	.LFB164:
2076:Drivers/STM32F3xx_HAL_Driver/Src/stm32f3xx_hal_uart.c ****   return huart->ErrorCode;
 2802              		.loc 1 2076 1 is_stmt 1 view -0
 2803              		.cfi_startproc
 2804              		@ args = 0, pretend = 0, frame = 0
 2805              		@ frame_needed = 0, uses_anonymous_args = 0
 2806              		@ link register save eliminated.
2077:Drivers/STM32F3xx_HAL_Driver/Src/stm32f3xx_hal_uart.c **** }
 2807              		.loc 1 2077 3 view .LVU889
2077:Drivers/STM32F3xx_HAL_Driver/Src/stm32f3xx_hal_uart.c **** }
 2808              		.loc 1 2077 15 is_stmt 0 view .LVU890
 2809 0000 C06E     		ldr	r0, [r0, #108]
 2810              	.LVL151:
2078:Drivers/STM32F3xx_HAL_Driver/Src/stm32f3xx_hal_uart.c **** /**
 2811              		.loc 1 2078 1 view .LVU891
 2812 0002 7047     		bx	lr
 2813              		.cfi_endproc
 2814              	.LFE164:
 2816              		.section	.text.UART_SetConfig,"ax",%progbits
 2817              		.align	1
 2818              		.p2align 2,,3
 2819              		.global	UART_SetConfig
 2820              		.syntax unified
 2821              		.thumb
 2822              		.thumb_func
 2823              		.fpu fpv4-sp-d16
 2825              	UART_SetConfig:
 2826              	.LVL152:
 2827              	.LFB165:
2097:Drivers/STM32F3xx_HAL_Driver/Src/stm32f3xx_hal_uart.c ****   uint32_t tmpreg                     = 0x00000000U;
 2828              		.loc 1 2097 1 is_stmt 1 view -0
 2829              		.cfi_startproc
 2830              		@ args = 0, pretend = 0, frame = 0
 2831              		@ frame_needed = 0, uses_anonymous_args = 0
2098:Drivers/STM32F3xx_HAL_Driver/Src/stm32f3xx_hal_uart.c ****   UART_ClockSourceTypeDef clocksource = UART_CLOCKSOURCE_UNDEFINED;
 2832              		.loc 1 2098 3 view .LVU893
2099:Drivers/STM32F3xx_HAL_Driver/Src/stm32f3xx_hal_uart.c ****   uint16_t brrtemp                    = 0x0000U;
 2833              		.loc 1 2099 3 view .LVU894
2100:Drivers/STM32F3xx_HAL_Driver/Src/stm32f3xx_hal_uart.c ****   uint16_t usartdiv                   = 0x0000U;
 2834              		.loc 1 2100 3 view .LVU895
2101:Drivers/STM32F3xx_HAL_Driver/Src/stm32f3xx_hal_uart.c ****   HAL_StatusTypeDef ret               = HAL_OK;
 2835              		.loc 1 2101 3 view .LVU896
2102:Drivers/STM32F3xx_HAL_Driver/Src/stm32f3xx_hal_uart.c **** 
 2836              		.loc 1 2102 3 view .LVU897
2105:Drivers/STM32F3xx_HAL_Driver/Src/stm32f3xx_hal_uart.c ****   assert_param(IS_UART_WORD_LENGTH(huart->Init.WordLength));
 2837              		.loc 1 2105 3 view .LVU898
2106:Drivers/STM32F3xx_HAL_Driver/Src/stm32f3xx_hal_uart.c ****   assert_param(IS_UART_STOPBITS(huart->Init.StopBits));
 2838              		.loc 1 2106 3 view .LVU899
2107:Drivers/STM32F3xx_HAL_Driver/Src/stm32f3xx_hal_uart.c ****   assert_param(IS_UART_PARITY(huart->Init.Parity));
 2839              		.loc 1 2107 3 view .LVU900
2108:Drivers/STM32F3xx_HAL_Driver/Src/stm32f3xx_hal_uart.c ****   assert_param(IS_UART_MODE(huart->Init.Mode));
ARM GAS  /var/folders/8c/gyvcglfx7f97kbqb2h83mm_r0000gn/T//ccv1qdBn.s 			page 107


 2840              		.loc 1 2108 3 view .LVU901
2109:Drivers/STM32F3xx_HAL_Driver/Src/stm32f3xx_hal_uart.c ****   assert_param(IS_UART_HARDWARE_FLOW_CONTROL(huart->Init.HwFlowCtl));
 2841              		.loc 1 2109 3 view .LVU902
2110:Drivers/STM32F3xx_HAL_Driver/Src/stm32f3xx_hal_uart.c ****   assert_param(IS_UART_ONE_BIT_SAMPLE(huart->Init.OneBitSampling));
 2842              		.loc 1 2110 3 view .LVU903
2111:Drivers/STM32F3xx_HAL_Driver/Src/stm32f3xx_hal_uart.c ****   assert_param(IS_UART_OVERSAMPLING(huart->Init.OverSampling));
 2843              		.loc 1 2111 3 view .LVU904
2112:Drivers/STM32F3xx_HAL_Driver/Src/stm32f3xx_hal_uart.c **** 
 2844              		.loc 1 2112 3 view .LVU905
2122:Drivers/STM32F3xx_HAL_Driver/Src/stm32f3xx_hal_uart.c ****   MODIFY_REG(huart->Instance->CR1, UART_CR1_FIELDS, tmpreg);
 2845              		.loc 1 2122 3 view .LVU906
2123:Drivers/STM32F3xx_HAL_Driver/Src/stm32f3xx_hal_uart.c **** 
 2846              		.loc 1 2123 3 is_stmt 0 view .LVU907
 2847 0000 0368     		ldr	r3, [r0]
2122:Drivers/STM32F3xx_HAL_Driver/Src/stm32f3xx_hal_uart.c ****   MODIFY_REG(huart->Instance->CR1, UART_CR1_FIELDS, tmpreg);
 2848              		.loc 1 2122 45 view .LVU908
 2849 0002 8268     		ldr	r2, [r0, #8]
2123:Drivers/STM32F3xx_HAL_Driver/Src/stm32f3xx_hal_uart.c **** 
 2850              		.loc 1 2123 3 view .LVU909
 2851 0004 8349     		ldr	r1, .L389
2097:Drivers/STM32F3xx_HAL_Driver/Src/stm32f3xx_hal_uart.c ****   uint32_t tmpreg                     = 0x00000000U;
 2852              		.loc 1 2097 1 view .LVU910
 2853 0006 70B5     		push	{r4, r5, r6, lr}
 2854              	.LCFI30:
 2855              		.cfi_def_cfa_offset 16
 2856              		.cfi_offset 4, -16
 2857              		.cfi_offset 5, -12
 2858              		.cfi_offset 6, -8
 2859              		.cfi_offset 14, -4
2122:Drivers/STM32F3xx_HAL_Driver/Src/stm32f3xx_hal_uart.c ****   MODIFY_REG(huart->Instance->CR1, UART_CR1_FIELDS, tmpreg);
 2860              		.loc 1 2122 45 view .LVU911
 2861 0008 0569     		ldr	r5, [r0, #16]
2122:Drivers/STM32F3xx_HAL_Driver/Src/stm32f3xx_hal_uart.c ****   MODIFY_REG(huart->Instance->CR1, UART_CR1_FIELDS, tmpreg);
 2862              		.loc 1 2122 66 view .LVU912
 2863 000a 4669     		ldr	r6, [r0, #20]
2097:Drivers/STM32F3xx_HAL_Driver/Src/stm32f3xx_hal_uart.c ****   uint32_t tmpreg                     = 0x00000000U;
 2864              		.loc 1 2097 1 view .LVU913
 2865 000c 0446     		mov	r4, r0
2122:Drivers/STM32F3xx_HAL_Driver/Src/stm32f3xx_hal_uart.c ****   MODIFY_REG(huart->Instance->CR1, UART_CR1_FIELDS, tmpreg);
 2866              		.loc 1 2122 45 view .LVU914
 2867 000e 2A43     		orrs	r2, r2, r5
2122:Drivers/STM32F3xx_HAL_Driver/Src/stm32f3xx_hal_uart.c ****   MODIFY_REG(huart->Instance->CR1, UART_CR1_FIELDS, tmpreg);
 2868              		.loc 1 2122 98 view .LVU915
 2869 0010 C069     		ldr	r0, [r0, #28]
 2870              	.LVL153:
2123:Drivers/STM32F3xx_HAL_Driver/Src/stm32f3xx_hal_uart.c **** 
 2871              		.loc 1 2123 3 is_stmt 1 view .LVU916
 2872 0012 1D68     		ldr	r5, [r3]
2122:Drivers/STM32F3xx_HAL_Driver/Src/stm32f3xx_hal_uart.c ****   MODIFY_REG(huart->Instance->CR1, UART_CR1_FIELDS, tmpreg);
 2873              		.loc 1 2122 66 is_stmt 0 view .LVU917
 2874 0014 3243     		orrs	r2, r2, r6
2123:Drivers/STM32F3xx_HAL_Driver/Src/stm32f3xx_hal_uart.c **** 
 2875              		.loc 1 2123 3 view .LVU918
 2876 0016 2940     		ands	r1, r1, r5
2122:Drivers/STM32F3xx_HAL_Driver/Src/stm32f3xx_hal_uart.c ****   MODIFY_REG(huart->Instance->CR1, UART_CR1_FIELDS, tmpreg);
 2877              		.loc 1 2122 10 view .LVU919
 2878 0018 0243     		orrs	r2, r2, r0
ARM GAS  /var/folders/8c/gyvcglfx7f97kbqb2h83mm_r0000gn/T//ccv1qdBn.s 			page 108


2123:Drivers/STM32F3xx_HAL_Driver/Src/stm32f3xx_hal_uart.c **** 
 2879              		.loc 1 2123 3 view .LVU920
 2880 001a 0A43     		orrs	r2, r2, r1
 2881 001c 1A60     		str	r2, [r3]
2128:Drivers/STM32F3xx_HAL_Driver/Src/stm32f3xx_hal_uart.c **** 
 2882              		.loc 1 2128 3 is_stmt 1 view .LVU921
 2883 001e 5968     		ldr	r1, [r3, #4]
 2884 0020 E568     		ldr	r5, [r4, #12]
2136:Drivers/STM32F3xx_HAL_Driver/Src/stm32f3xx_hal_uart.c ****   MODIFY_REG(huart->Instance->CR3, (USART_CR3_RTSE | USART_CR3_CTSE | USART_CR3_ONEBIT), tmpreg);
 2885              		.loc 1 2136 10 is_stmt 0 view .LVU922
 2886 0022 A269     		ldr	r2, [r4, #24]
 2887 0024 266A     		ldr	r6, [r4, #32]
 2888              	.LVL154:
2128:Drivers/STM32F3xx_HAL_Driver/Src/stm32f3xx_hal_uart.c **** 
 2889              		.loc 1 2128 3 view .LVU923
 2890 0026 21F44051 		bic	r1, r1, #12288
 2891 002a 2943     		orrs	r1, r1, r5
 2892 002c 5960     		str	r1, [r3, #4]
2136:Drivers/STM32F3xx_HAL_Driver/Src/stm32f3xx_hal_uart.c ****   MODIFY_REG(huart->Instance->CR3, (USART_CR3_RTSE | USART_CR3_CTSE | USART_CR3_ONEBIT), tmpreg);
 2893              		.loc 1 2136 3 is_stmt 1 view .LVU924
 2894              	.LVL155:
2137:Drivers/STM32F3xx_HAL_Driver/Src/stm32f3xx_hal_uart.c **** 
 2895              		.loc 1 2137 3 view .LVU925
 2896 002e 9968     		ldr	r1, [r3, #8]
2140:Drivers/STM32F3xx_HAL_Driver/Src/stm32f3xx_hal_uart.c **** 
 2897              		.loc 1 2140 3 is_stmt 0 view .LVU926
 2898 0030 794D     		ldr	r5, .L389+4
2137:Drivers/STM32F3xx_HAL_Driver/Src/stm32f3xx_hal_uart.c **** 
 2899              		.loc 1 2137 3 view .LVU927
 2900 0032 21F43061 		bic	r1, r1, #2816
2136:Drivers/STM32F3xx_HAL_Driver/Src/stm32f3xx_hal_uart.c ****   MODIFY_REG(huart->Instance->CR3, (USART_CR3_RTSE | USART_CR3_CTSE | USART_CR3_ONEBIT), tmpreg);
 2901              		.loc 1 2136 10 view .LVU928
 2902 0036 3243     		orrs	r2, r2, r6
2137:Drivers/STM32F3xx_HAL_Driver/Src/stm32f3xx_hal_uart.c **** 
 2903              		.loc 1 2137 3 view .LVU929
 2904 0038 0A43     		orrs	r2, r2, r1
2140:Drivers/STM32F3xx_HAL_Driver/Src/stm32f3xx_hal_uart.c **** 
 2905              		.loc 1 2140 3 view .LVU930
 2906 003a AB42     		cmp	r3, r5
2137:Drivers/STM32F3xx_HAL_Driver/Src/stm32f3xx_hal_uart.c **** 
 2907              		.loc 1 2137 3 view .LVU931
 2908 003c 9A60     		str	r2, [r3, #8]
2140:Drivers/STM32F3xx_HAL_Driver/Src/stm32f3xx_hal_uart.c **** 
 2909              		.loc 1 2140 3 is_stmt 1 view .LVU932
2140:Drivers/STM32F3xx_HAL_Driver/Src/stm32f3xx_hal_uart.c **** 
 2910              		.loc 1 2140 3 view .LVU933
 2911 003e 43D0     		beq	.L382
2140:Drivers/STM32F3xx_HAL_Driver/Src/stm32f3xx_hal_uart.c **** 
 2912              		.loc 1 2140 3 discriminator 2 view .LVU934
 2913 0040 764A     		ldr	r2, .L389+8
 2914 0042 9342     		cmp	r3, r2
 2915 0044 0FD0     		beq	.L383
2140:Drivers/STM32F3xx_HAL_Driver/Src/stm32f3xx_hal_uart.c **** 
 2916              		.loc 1 2140 3 discriminator 14 view .LVU935
 2917 0046 764A     		ldr	r2, .L389+12
 2918 0048 9342     		cmp	r3, r2
 2919 004a 00F0BE80 		beq	.L384
ARM GAS  /var/folders/8c/gyvcglfx7f97kbqb2h83mm_r0000gn/T//ccv1qdBn.s 			page 109


2140:Drivers/STM32F3xx_HAL_Driver/Src/stm32f3xx_hal_uart.c **** 
 2920              		.loc 1 2140 3 discriminator 26 view .LVU936
 2921 004e 754A     		ldr	r2, .L389+16
 2922 0050 9342     		cmp	r3, r2
 2923 0052 00F0CC80 		beq	.L385
2140:Drivers/STM32F3xx_HAL_Driver/Src/stm32f3xx_hal_uart.c **** 
 2924              		.loc 1 2140 3 discriminator 38 view .LVU937
 2925 0056 744A     		ldr	r2, .L389+20
 2926 0058 9342     		cmp	r3, r2
 2927 005a 24D0     		beq	.L386
 2928              	.L293:
2143:Drivers/STM32F3xx_HAL_Driver/Src/stm32f3xx_hal_uart.c ****   {
 2929              		.loc 1 2143 3 view .LVU938
2143:Drivers/STM32F3xx_HAL_Driver/Src/stm32f3xx_hal_uart.c ****   {
 2930              		.loc 1 2143 6 is_stmt 0 view .LVU939
 2931 005c B0F5004F 		cmp	r0, #32768
 2932 0060 5BD0     		beq	.L309
 2933              	.LVL156:
 2934              	.L310:
2193:Drivers/STM32F3xx_HAL_Driver/Src/stm32f3xx_hal_uart.c ****         break;
 2935              		.loc 1 2193 13 view .LVU940
 2936 0062 0120     		movs	r0, #1
 2937              	.LVL157:
2198:Drivers/STM32F3xx_HAL_Driver/Src/stm32f3xx_hal_uart.c **** 
 2938              		.loc 1 2198 3 is_stmt 1 view .LVU941
2200:Drivers/STM32F3xx_HAL_Driver/Src/stm32f3xx_hal_uart.c **** 
 2939              		.loc 1 2200 1 is_stmt 0 view .LVU942
 2940 0064 70BD     		pop	{r4, r5, r6, pc}
 2941              	.LVL158:
 2942              	.L383:
2140:Drivers/STM32F3xx_HAL_Driver/Src/stm32f3xx_hal_uart.c **** 
 2943              		.loc 1 2140 3 is_stmt 1 discriminator 13 view .LVU943
 2944 0066 02F5E632 		add	r2, r2, #117760
 2945 006a 126B     		ldr	r2, [r2, #48]
 2946 006c 02F44032 		and	r2, r2, #196608
 2947 0070 B2F5803F 		cmp	r2, #65536
 2948 0074 00F08680 		beq	.L294
2140:Drivers/STM32F3xx_HAL_Driver/Src/stm32f3xx_hal_uart.c **** 
 2949              		.loc 1 2140 3 is_stmt 0 view .LVU944
 2950 0078 1ED9     		bls	.L381
 2951 007a B2F5003F 		cmp	r2, #131072
 2952 007e 5FD0     		beq	.L298
 2953 0080 B2F5403F 		cmp	r2, #196608
 2954 0084 EAD1     		bne	.L293
 2955              	.L285:
2140:Drivers/STM32F3xx_HAL_Driver/Src/stm32f3xx_hal_uart.c **** 
 2956              		.loc 1 2140 3 is_stmt 1 view .LVU945
 2957              	.LVL159:
2140:Drivers/STM32F3xx_HAL_Driver/Src/stm32f3xx_hal_uart.c **** 
 2958              		.loc 1 2140 3 view .LVU946
2143:Drivers/STM32F3xx_HAL_Driver/Src/stm32f3xx_hal_uart.c ****   {
 2959              		.loc 1 2143 3 view .LVU947
2143:Drivers/STM32F3xx_HAL_Driver/Src/stm32f3xx_hal_uart.c ****   {
 2960              		.loc 1 2143 6 is_stmt 0 view .LVU948
 2961 0086 B0F5004F 		cmp	r0, #32768
 2962 008a 00F09580 		beq	.L271
 2963              	.LVL160:
ARM GAS  /var/folders/8c/gyvcglfx7f97kbqb2h83mm_r0000gn/T//ccv1qdBn.s 			page 110


 2964              	.L272:
2183:Drivers/STM32F3xx_HAL_Driver/Src/stm32f3xx_hal_uart.c ****         break;
 2965              		.loc 1 2183 9 is_stmt 1 view .LVU949
2183:Drivers/STM32F3xx_HAL_Driver/Src/stm32f3xx_hal_uart.c ****         break;
 2966              		.loc 1 2183 43 is_stmt 0 view .LVU950
 2967 008e 6168     		ldr	r1, [r4, #4]
 2968 0090 4A08     		lsrs	r2, r1, #1
 2969 0092 02F5F402 		add	r2, r2, #7995392
 2970 0096 02F59052 		add	r2, r2, #4608
 2971 009a B2FBF1F2 		udiv	r2, r2, r1
 2972 009e 92B2     		uxth	r2, r2
2183:Drivers/STM32F3xx_HAL_Driver/Src/stm32f3xx_hal_uart.c ****         break;
 2973              		.loc 1 2183 30 view .LVU951
 2974 00a0 DA60     		str	r2, [r3, #12]
 2975              	.LVL161:
2184:Drivers/STM32F3xx_HAL_Driver/Src/stm32f3xx_hal_uart.c ****       case UART_CLOCKSOURCE_SYSCLK:
 2976              		.loc 1 2184 9 is_stmt 1 view .LVU952
2102:Drivers/STM32F3xx_HAL_Driver/Src/stm32f3xx_hal_uart.c **** 
 2977              		.loc 1 2102 21 is_stmt 0 view .LVU953
 2978 00a2 0020     		movs	r0, #0
 2979              	.LVL162:
2198:Drivers/STM32F3xx_HAL_Driver/Src/stm32f3xx_hal_uart.c **** 
 2980              		.loc 1 2198 3 is_stmt 1 view .LVU954
2200:Drivers/STM32F3xx_HAL_Driver/Src/stm32f3xx_hal_uart.c **** 
 2981              		.loc 1 2200 1 is_stmt 0 view .LVU955
 2982 00a4 70BD     		pop	{r4, r5, r6, pc}
 2983              	.LVL163:
 2984              	.L386:
2140:Drivers/STM32F3xx_HAL_Driver/Src/stm32f3xx_hal_uart.c **** 
 2985              		.loc 1 2140 3 is_stmt 1 discriminator 49 view .LVU956
 2986 00a6 02F5E032 		add	r2, r2, #114688
 2987 00aa 126B     		ldr	r2, [r2, #48]
 2988 00ac 02F44002 		and	r2, r2, #12582912
 2989 00b0 B2F5800F 		cmp	r2, #4194304
 2990 00b4 66D0     		beq	.L294
2140:Drivers/STM32F3xx_HAL_Driver/Src/stm32f3xx_hal_uart.c **** 
 2991              		.loc 1 2140 3 is_stmt 0 view .LVU957
 2992 00b6 40D8     		bhi	.L295
 2993              	.L381:
 2994 00b8 002A     		cmp	r2, #0
 2995 00ba CFD1     		bne	.L293
 2996              	.LVL164:
2143:Drivers/STM32F3xx_HAL_Driver/Src/stm32f3xx_hal_uart.c ****   {
 2997              		.loc 1 2143 3 is_stmt 1 view .LVU958
2143:Drivers/STM32F3xx_HAL_Driver/Src/stm32f3xx_hal_uart.c ****   {
 2998              		.loc 1 2143 6 is_stmt 0 view .LVU959
 2999 00bc B0F5004F 		cmp	r0, #32768
 3000 00c0 66D0     		beq	.L269
 3001              	.LVL165:
 3002              	.L270:
2177:Drivers/STM32F3xx_HAL_Driver/Src/stm32f3xx_hal_uart.c ****         break;
 3003              		.loc 1 2177 9 is_stmt 1 view .LVU960
2177:Drivers/STM32F3xx_HAL_Driver/Src/stm32f3xx_hal_uart.c ****         break;
 3004              		.loc 1 2177 43 is_stmt 0 view .LVU961
 3005 00c2 FFF7FEFF 		bl	HAL_RCC_GetPCLK1Freq
 3006              	.LVL166:
2177:Drivers/STM32F3xx_HAL_Driver/Src/stm32f3xx_hal_uart.c ****         break;
ARM GAS  /var/folders/8c/gyvcglfx7f97kbqb2h83mm_r0000gn/T//ccv1qdBn.s 			page 111


 3007              		.loc 1 2177 43 view .LVU962
 3008 00c6 2EE0     		b	.L375
 3009              	.LVL167:
 3010              	.L382:
2140:Drivers/STM32F3xx_HAL_Driver/Src/stm32f3xx_hal_uart.c **** 
 3011              		.loc 1 2140 3 is_stmt 1 discriminator 1 view .LVU963
 3012 00c8 584A     		ldr	r2, .L389+24
 3013 00ca 5949     		ldr	r1, .L389+28
 3014 00cc 126B     		ldr	r2, [r2, #48]
 3015 00ce 02F00302 		and	r2, r2, #3
2143:Drivers/STM32F3xx_HAL_Driver/Src/stm32f3xx_hal_uart.c ****   {
 3016              		.loc 1 2143 6 is_stmt 0 discriminator 1 view .LVU964
 3017 00d2 B0F5004F 		cmp	r0, #32768
 3018 00d6 8A5C     		ldrb	r2, [r1, r2]	@ zero_extendqisi2
 3019              	.LVL168:
2143:Drivers/STM32F3xx_HAL_Driver/Src/stm32f3xx_hal_uart.c ****   {
 3020              		.loc 1 2143 3 is_stmt 1 discriminator 1 view .LVU965
2143:Drivers/STM32F3xx_HAL_Driver/Src/stm32f3xx_hal_uart.c ****   {
 3021              		.loc 1 2143 6 is_stmt 0 discriminator 1 view .LVU966
 3022 00d8 16D0     		beq	.L387
2174:Drivers/STM32F3xx_HAL_Driver/Src/stm32f3xx_hal_uart.c ****     {
 3023              		.loc 1 2174 5 is_stmt 1 view .LVU967
 3024 00da 082A     		cmp	r2, #8
 3025 00dc C1D8     		bhi	.L310
 3026 00de 01A1     		adr	r1, .L302
 3027 00e0 51F822F0 		ldr	pc, [r1, r2, lsl #2]
 3028              		.p2align 2
 3029              	.L302:
 3030 00e4 C3000000 		.word	.L270+1
 3031 00e8 23010000 		.word	.L303+1
 3032 00ec 8F000000 		.word	.L272+1
 3033 00f0 63000000 		.word	.L310+1
 3034 00f4 8B010000 		.word	.L274+1
 3035 00f8 63000000 		.word	.L310+1
 3036 00fc 63000000 		.word	.L310+1
 3037 0100 63000000 		.word	.L310+1
 3038 0104 47010000 		.word	.L276+1
 3039              		.p2align 1
 3040              	.L387:
2145:Drivers/STM32F3xx_HAL_Driver/Src/stm32f3xx_hal_uart.c ****     {
 3041              		.loc 1 2145 5 view .LVU968
 3042 0108 082A     		cmp	r2, #8
 3043 010a 06D8     		bhi	.L309
 3044 010c DFE802F0 		tbb	[pc, r2]
 3045              	.L300:
 3046 0110 40       		.byte	(.L269-.L300)/2
 3047 0111 25       		.byte	(.L301-.L300)/2
 3048 0112 54       		.byte	(.L271-.L300)/2
 3049 0113 05       		.byte	(.L309-.L300)/2
 3050 0114 43       		.byte	(.L273-.L300)/2
 3051 0115 05       		.byte	(.L309-.L300)/2
 3052 0116 05       		.byte	(.L309-.L300)/2
 3053 0117 05       		.byte	(.L309-.L300)/2
 3054 0118 46       		.byte	(.L275-.L300)/2
 3055              	.LVL169:
 3056 0119 00       		.p2align 1
 3057              	.L309:
ARM GAS  /var/folders/8c/gyvcglfx7f97kbqb2h83mm_r0000gn/T//ccv1qdBn.s 			page 112


2145:Drivers/STM32F3xx_HAL_Driver/Src/stm32f3xx_hal_uart.c ****     {
 3058              		.loc 1 2145 5 is_stmt 0 view .LVU969
 3059 011a 0022     		movs	r2, #0
2164:Drivers/STM32F3xx_HAL_Driver/Src/stm32f3xx_hal_uart.c ****         break;
 3060              		.loc 1 2164 13 view .LVU970
 3061 011c 0120     		movs	r0, #1
 3062              	.LVL170:
 3063              	.L277:
2168:Drivers/STM32F3xx_HAL_Driver/Src/stm32f3xx_hal_uart.c ****     brrtemp |= (uint16_t)((usartdiv & (uint16_t)0x000FU) >> 1U);
 3064              		.loc 1 2168 5 is_stmt 1 view .LVU971
2169:Drivers/STM32F3xx_HAL_Driver/Src/stm32f3xx_hal_uart.c ****     huart->Instance->BRR = brrtemp;
 3065              		.loc 1 2169 5 view .LVU972
2170:Drivers/STM32F3xx_HAL_Driver/Src/stm32f3xx_hal_uart.c ****   }
 3066              		.loc 1 2170 5 view .LVU973
2170:Drivers/STM32F3xx_HAL_Driver/Src/stm32f3xx_hal_uart.c ****   }
 3067              		.loc 1 2170 26 is_stmt 0 view .LVU974
 3068 011e DA60     		str	r2, [r3, #12]
2198:Drivers/STM32F3xx_HAL_Driver/Src/stm32f3xx_hal_uart.c **** 
 3069              		.loc 1 2198 3 is_stmt 1 view .LVU975
2200:Drivers/STM32F3xx_HAL_Driver/Src/stm32f3xx_hal_uart.c **** 
 3070              		.loc 1 2200 1 is_stmt 0 view .LVU976
 3071 0120 70BD     		pop	{r4, r5, r6, pc}
 3072              	.LVL171:
 3073              	.L303:
2180:Drivers/STM32F3xx_HAL_Driver/Src/stm32f3xx_hal_uart.c ****         break;
 3074              		.loc 1 2180 9 is_stmt 1 view .LVU977
2180:Drivers/STM32F3xx_HAL_Driver/Src/stm32f3xx_hal_uart.c ****         break;
 3075              		.loc 1 2180 43 is_stmt 0 view .LVU978
 3076 0122 FFF7FEFF 		bl	HAL_RCC_GetPCLK2Freq
 3077              	.LVL172:
 3078              	.L375:
2180:Drivers/STM32F3xx_HAL_Driver/Src/stm32f3xx_hal_uart.c ****         break;
 3079              		.loc 1 2180 14 view .LVU979
 3080 0126 D4E90023 		ldrd	r2, r3, [r4]
2180:Drivers/STM32F3xx_HAL_Driver/Src/stm32f3xx_hal_uart.c ****         break;
 3081              		.loc 1 2180 43 view .LVU980
 3082 012a 00EB5300 		add	r0, r0, r3, lsr #1
 3083 012e B0FBF3F0 		udiv	r0, r0, r3
 3084 0132 80B2     		uxth	r0, r0
2180:Drivers/STM32F3xx_HAL_Driver/Src/stm32f3xx_hal_uart.c ****         break;
 3085              		.loc 1 2180 30 view .LVU981
 3086 0134 D060     		str	r0, [r2, #12]
2181:Drivers/STM32F3xx_HAL_Driver/Src/stm32f3xx_hal_uart.c ****       case UART_CLOCKSOURCE_HSI:
 3087              		.loc 1 2181 9 is_stmt 1 view .LVU982
2102:Drivers/STM32F3xx_HAL_Driver/Src/stm32f3xx_hal_uart.c **** 
 3088              		.loc 1 2102 21 is_stmt 0 view .LVU983
 3089 0136 0020     		movs	r0, #0
 3090              	.LVL173:
2198:Drivers/STM32F3xx_HAL_Driver/Src/stm32f3xx_hal_uart.c **** 
 3091              		.loc 1 2198 3 is_stmt 1 view .LVU984
2200:Drivers/STM32F3xx_HAL_Driver/Src/stm32f3xx_hal_uart.c **** 
 3092              		.loc 1 2200 1 is_stmt 0 view .LVU985
 3093 0138 70BD     		pop	{r4, r5, r6, pc}
 3094              	.LVL174:
 3095              	.L295:
2140:Drivers/STM32F3xx_HAL_Driver/Src/stm32f3xx_hal_uart.c **** 
 3096              		.loc 1 2140 3 view .LVU986
ARM GAS  /var/folders/8c/gyvcglfx7f97kbqb2h83mm_r0000gn/T//ccv1qdBn.s 			page 113


 3097 013a B2F5000F 		cmp	r2, #8388608
 3098 013e 1DD1     		bne	.L388
 3099              	.L298:
2140:Drivers/STM32F3xx_HAL_Driver/Src/stm32f3xx_hal_uart.c **** 
 3100              		.loc 1 2140 3 is_stmt 1 view .LVU987
 3101              	.LVL175:
2140:Drivers/STM32F3xx_HAL_Driver/Src/stm32f3xx_hal_uart.c **** 
 3102              		.loc 1 2140 3 view .LVU988
2143:Drivers/STM32F3xx_HAL_Driver/Src/stm32f3xx_hal_uart.c ****   {
 3103              		.loc 1 2143 3 view .LVU989
2143:Drivers/STM32F3xx_HAL_Driver/Src/stm32f3xx_hal_uart.c ****   {
 3104              		.loc 1 2143 6 is_stmt 0 view .LVU990
 3105 0140 B0F5004F 		cmp	r0, #32768
 3106 0144 2AD0     		beq	.L275
 3107              	.LVL176:
 3108              	.L276:
2189:Drivers/STM32F3xx_HAL_Driver/Src/stm32f3xx_hal_uart.c ****         break;
 3109              		.loc 1 2189 9 is_stmt 1 view .LVU991
2189:Drivers/STM32F3xx_HAL_Driver/Src/stm32f3xx_hal_uart.c ****         break;
 3110              		.loc 1 2189 43 is_stmt 0 view .LVU992
 3111 0146 6168     		ldr	r1, [r4, #4]
 3112 0148 4A08     		lsrs	r2, r1, #1
 3113 014a 02F50042 		add	r2, r2, #32768
 3114 014e B2FBF1F2 		udiv	r2, r2, r1
 3115 0152 92B2     		uxth	r2, r2
2189:Drivers/STM32F3xx_HAL_Driver/Src/stm32f3xx_hal_uart.c ****         break;
 3116              		.loc 1 2189 30 view .LVU993
 3117 0154 DA60     		str	r2, [r3, #12]
 3118              	.LVL177:
2190:Drivers/STM32F3xx_HAL_Driver/Src/stm32f3xx_hal_uart.c ****       case UART_CLOCKSOURCE_UNDEFINED:
 3119              		.loc 1 2190 9 is_stmt 1 view .LVU994
2102:Drivers/STM32F3xx_HAL_Driver/Src/stm32f3xx_hal_uart.c **** 
 3120              		.loc 1 2102 21 is_stmt 0 view .LVU995
 3121 0156 0020     		movs	r0, #0
 3122              	.LVL178:
2198:Drivers/STM32F3xx_HAL_Driver/Src/stm32f3xx_hal_uart.c **** 
 3123              		.loc 1 2198 3 is_stmt 1 view .LVU996
2200:Drivers/STM32F3xx_HAL_Driver/Src/stm32f3xx_hal_uart.c **** 
 3124              		.loc 1 2200 1 is_stmt 0 view .LVU997
 3125 0158 70BD     		pop	{r4, r5, r6, pc}
 3126              	.LVL179:
 3127              	.L301:
2151:Drivers/STM32F3xx_HAL_Driver/Src/stm32f3xx_hal_uart.c ****         break;
 3128              		.loc 1 2151 9 is_stmt 1 view .LVU998
2151:Drivers/STM32F3xx_HAL_Driver/Src/stm32f3xx_hal_uart.c ****         break;
 3129              		.loc 1 2151 31 is_stmt 0 view .LVU999
 3130 015a FFF7FEFF 		bl	HAL_RCC_GetPCLK2Freq
 3131              	.LVL180:
 3132              	.L373:
2151:Drivers/STM32F3xx_HAL_Driver/Src/stm32f3xx_hal_uart.c ****         break;
 3133              		.loc 1 2151 31 view .LVU1000
 3134 015e D4E90031 		ldrd	r3, r1, [r4]
2157:Drivers/STM32F3xx_HAL_Driver/Src/stm32f3xx_hal_uart.c ****         break;
 3135              		.loc 1 2157 31 view .LVU1001
 3136 0162 4A08     		lsrs	r2, r1, #1
 3137 0164 02EB4000 		add	r0, r2, r0, lsl #1
 3138 0168 B0FBF1F0 		udiv	r0, r0, r1
ARM GAS  /var/folders/8c/gyvcglfx7f97kbqb2h83mm_r0000gn/T//ccv1qdBn.s 			page 114


 3139              	.LVL181:
2158:Drivers/STM32F3xx_HAL_Driver/Src/stm32f3xx_hal_uart.c ****       case UART_CLOCKSOURCE_LSE:
 3140              		.loc 1 2158 9 is_stmt 1 view .LVU1002
 3141 016c C0F34202 		ubfx	r2, r0, #1, #3
 3142 0170 20F00F00 		bic	r0, r0, #15
 3143              	.LVL182:
2158:Drivers/STM32F3xx_HAL_Driver/Src/stm32f3xx_hal_uart.c ****       case UART_CLOCKSOURCE_LSE:
 3144              		.loc 1 2158 9 is_stmt 0 view .LVU1003
 3145 0174 0243     		orrs	r2, r2, r0
 3146 0176 92B2     		uxth	r2, r2
2102:Drivers/STM32F3xx_HAL_Driver/Src/stm32f3xx_hal_uart.c **** 
 3147              		.loc 1 2102 21 view .LVU1004
 3148 0178 0020     		movs	r0, #0
2158:Drivers/STM32F3xx_HAL_Driver/Src/stm32f3xx_hal_uart.c ****       case UART_CLOCKSOURCE_LSE:
 3149              		.loc 1 2158 9 view .LVU1005
 3150 017a D0E7     		b	.L277
 3151              	.LVL183:
 3152              	.L388:
2140:Drivers/STM32F3xx_HAL_Driver/Src/stm32f3xx_hal_uart.c **** 
 3153              		.loc 1 2140 3 view .LVU1006
 3154 017c B2F5400F 		cmp	r2, #12582912
 3155 0180 81D0     		beq	.L285
 3156 0182 6BE7     		b	.L293
 3157              	.L294:
2140:Drivers/STM32F3xx_HAL_Driver/Src/stm32f3xx_hal_uart.c **** 
 3158              		.loc 1 2140 3 is_stmt 1 view .LVU1007
 3159              	.LVL184:
2140:Drivers/STM32F3xx_HAL_Driver/Src/stm32f3xx_hal_uart.c **** 
 3160              		.loc 1 2140 3 view .LVU1008
2143:Drivers/STM32F3xx_HAL_Driver/Src/stm32f3xx_hal_uart.c ****   {
 3161              		.loc 1 2143 3 view .LVU1009
2143:Drivers/STM32F3xx_HAL_Driver/Src/stm32f3xx_hal_uart.c ****   {
 3162              		.loc 1 2143 6 is_stmt 0 view .LVU1010
 3163 0184 B0F5004F 		cmp	r0, #32768
 3164 0188 05D0     		beq	.L273
 3165              	.LVL185:
 3166              	.L274:
2186:Drivers/STM32F3xx_HAL_Driver/Src/stm32f3xx_hal_uart.c ****         break;
 3167              		.loc 1 2186 9 is_stmt 1 view .LVU1011
2186:Drivers/STM32F3xx_HAL_Driver/Src/stm32f3xx_hal_uart.c ****         break;
 3168              		.loc 1 2186 43 is_stmt 0 view .LVU1012
 3169 018a FFF7FEFF 		bl	HAL_RCC_GetSysClockFreq
 3170              	.LVL186:
2186:Drivers/STM32F3xx_HAL_Driver/Src/stm32f3xx_hal_uart.c ****         break;
 3171              		.loc 1 2186 43 view .LVU1013
 3172 018e CAE7     		b	.L375
 3173              	.LVL187:
 3174              	.L269:
2148:Drivers/STM32F3xx_HAL_Driver/Src/stm32f3xx_hal_uart.c ****         break;
 3175              		.loc 1 2148 9 is_stmt 1 view .LVU1014
2148:Drivers/STM32F3xx_HAL_Driver/Src/stm32f3xx_hal_uart.c ****         break;
 3176              		.loc 1 2148 31 is_stmt 0 view .LVU1015
 3177 0190 FFF7FEFF 		bl	HAL_RCC_GetPCLK1Freq
 3178              	.LVL188:
2148:Drivers/STM32F3xx_HAL_Driver/Src/stm32f3xx_hal_uart.c ****         break;
 3179              		.loc 1 2148 31 view .LVU1016
 3180 0194 E3E7     		b	.L373
ARM GAS  /var/folders/8c/gyvcglfx7f97kbqb2h83mm_r0000gn/T//ccv1qdBn.s 			page 115


 3181              	.LVL189:
 3182              	.L273:
2157:Drivers/STM32F3xx_HAL_Driver/Src/stm32f3xx_hal_uart.c ****         break;
 3183              		.loc 1 2157 9 is_stmt 1 view .LVU1017
2157:Drivers/STM32F3xx_HAL_Driver/Src/stm32f3xx_hal_uart.c ****         break;
 3184              		.loc 1 2157 31 is_stmt 0 view .LVU1018
 3185 0196 FFF7FEFF 		bl	HAL_RCC_GetSysClockFreq
 3186              	.LVL190:
2157:Drivers/STM32F3xx_HAL_Driver/Src/stm32f3xx_hal_uart.c ****         break;
 3187              		.loc 1 2157 31 view .LVU1019
 3188 019a E0E7     		b	.L373
 3189              	.LVL191:
 3190              	.L275:
2160:Drivers/STM32F3xx_HAL_Driver/Src/stm32f3xx_hal_uart.c ****         break;
 3191              		.loc 1 2160 9 is_stmt 1 view .LVU1020
2160:Drivers/STM32F3xx_HAL_Driver/Src/stm32f3xx_hal_uart.c ****         break;
 3192              		.loc 1 2160 31 is_stmt 0 view .LVU1021
 3193 019c 6268     		ldr	r2, [r4, #4]
 3194 019e 5108     		lsrs	r1, r2, #1
 3195 01a0 01F58031 		add	r1, r1, #65536
 3196 01a4 B1FBF2F1 		udiv	r1, r1, r2
 3197              	.LVL192:
 3198              	.L374:
2161:Drivers/STM32F3xx_HAL_Driver/Src/stm32f3xx_hal_uart.c ****       case UART_CLOCKSOURCE_UNDEFINED:
 3199              		.loc 1 2161 9 is_stmt 1 view .LVU1022
 3200 01a8 C1F34202 		ubfx	r2, r1, #1, #3
 3201 01ac 21F00F01 		bic	r1, r1, #15
 3202              	.LVL193:
2161:Drivers/STM32F3xx_HAL_Driver/Src/stm32f3xx_hal_uart.c ****       case UART_CLOCKSOURCE_UNDEFINED:
 3203              		.loc 1 2161 9 is_stmt 0 view .LVU1023
 3204 01b0 0A43     		orrs	r2, r2, r1
 3205 01b2 92B2     		uxth	r2, r2
2102:Drivers/STM32F3xx_HAL_Driver/Src/stm32f3xx_hal_uart.c **** 
 3206              		.loc 1 2102 21 view .LVU1024
 3207 01b4 0020     		movs	r0, #0
2161:Drivers/STM32F3xx_HAL_Driver/Src/stm32f3xx_hal_uart.c ****       case UART_CLOCKSOURCE_UNDEFINED:
 3208              		.loc 1 2161 9 view .LVU1025
 3209 01b6 B2E7     		b	.L277
 3210              	.LVL194:
 3211              	.L271:
2154:Drivers/STM32F3xx_HAL_Driver/Src/stm32f3xx_hal_uart.c ****         break;
 3212              		.loc 1 2154 9 is_stmt 1 view .LVU1026
2154:Drivers/STM32F3xx_HAL_Driver/Src/stm32f3xx_hal_uart.c ****         break;
 3213              		.loc 1 2154 31 is_stmt 0 view .LVU1027
 3214 01b8 6168     		ldr	r1, [r4, #4]
 3215 01ba 4A08     		lsrs	r2, r1, #1
 3216 01bc 02F57402 		add	r2, r2, #15990784
 3217 01c0 02F51052 		add	r2, r2, #9216
 3218 01c4 B2FBF1F1 		udiv	r1, r2, r1
 3219              	.LVL195:
2155:Drivers/STM32F3xx_HAL_Driver/Src/stm32f3xx_hal_uart.c ****       case UART_CLOCKSOURCE_SYSCLK:
 3220              		.loc 1 2155 9 is_stmt 1 view .LVU1028
 3221 01c8 EEE7     		b	.L374
 3222              	.LVL196:
 3223              	.L384:
2140:Drivers/STM32F3xx_HAL_Driver/Src/stm32f3xx_hal_uart.c **** 
 3224              		.loc 1 2140 3 discriminator 25 view .LVU1029
ARM GAS  /var/folders/8c/gyvcglfx7f97kbqb2h83mm_r0000gn/T//ccv1qdBn.s 			page 116


 3225 01ca 02F5E432 		add	r2, r2, #116736
 3226 01ce 126B     		ldr	r2, [r2, #48]
 3227 01d0 02F44022 		and	r2, r2, #786432
 3228 01d4 B2F5802F 		cmp	r2, #262144
 3229 01d8 D4D0     		beq	.L294
2140:Drivers/STM32F3xx_HAL_Driver/Src/stm32f3xx_hal_uart.c **** 
 3230              		.loc 1 2140 3 is_stmt 0 view .LVU1030
 3231 01da 7FF66DAF 		bls	.L381
 3232 01de B2F5002F 		cmp	r2, #524288
 3233 01e2 ADD0     		beq	.L298
 3234 01e4 B2F5402F 		cmp	r2, #786432
 3235 01e8 3FF44DAF 		beq	.L285
 3236 01ec 36E7     		b	.L293
 3237              	.L385:
2140:Drivers/STM32F3xx_HAL_Driver/Src/stm32f3xx_hal_uart.c **** 
 3238              		.loc 1 2140 3 is_stmt 1 discriminator 37 view .LVU1031
 3239 01ee 02F5E232 		add	r2, r2, #115712
 3240 01f2 126B     		ldr	r2, [r2, #48]
 3241 01f4 02F44012 		and	r2, r2, #3145728
 3242 01f8 B2F5801F 		cmp	r2, #1048576
 3243 01fc C2D0     		beq	.L294
2140:Drivers/STM32F3xx_HAL_Driver/Src/stm32f3xx_hal_uart.c **** 
 3244              		.loc 1 2140 3 is_stmt 0 view .LVU1032
 3245 01fe 7FF65BAF 		bls	.L381
 3246 0202 B2F5001F 		cmp	r2, #2097152
 3247 0206 9BD0     		beq	.L298
 3248 0208 B2F5401F 		cmp	r2, #3145728
 3249 020c 3FF43BAF 		beq	.L285
 3250 0210 24E7     		b	.L293
 3251              	.L390:
 3252 0212 00BF     		.align	2
 3253              	.L389:
 3254 0214 F369FFEF 		.word	-268473869
 3255 0218 00380140 		.word	1073821696
 3256 021c 00440040 		.word	1073759232
 3257 0220 00480040 		.word	1073760256
 3258 0224 004C0040 		.word	1073761280
 3259 0228 00500040 		.word	1073762304
 3260 022c 00100240 		.word	1073876992
 3261 0230 00000000 		.word	.LANCHOR0
 3262              		.cfi_endproc
 3263              	.LFE165:
 3265              		.section	.text.UART_AdvFeatureConfig,"ax",%progbits
 3266              		.align	1
 3267              		.p2align 2,,3
 3268              		.global	UART_AdvFeatureConfig
 3269              		.syntax unified
 3270              		.thumb
 3271              		.thumb_func
 3272              		.fpu fpv4-sp-d16
 3274              	UART_AdvFeatureConfig:
 3275              	.LVL197:
 3276              	.LFB166:
2208:Drivers/STM32F3xx_HAL_Driver/Src/stm32f3xx_hal_uart.c ****   /* Check whether the set of advanced features to configure is properly set */
 3277              		.loc 1 2208 1 is_stmt 1 view -0
 3278              		.cfi_startproc
 3279              		@ args = 0, pretend = 0, frame = 0
ARM GAS  /var/folders/8c/gyvcglfx7f97kbqb2h83mm_r0000gn/T//ccv1qdBn.s 			page 117


 3280              		@ frame_needed = 0, uses_anonymous_args = 0
 3281              		@ link register save eliminated.
2210:Drivers/STM32F3xx_HAL_Driver/Src/stm32f3xx_hal_uart.c **** 
 3282              		.loc 1 2210 3 view .LVU1034
2213:Drivers/STM32F3xx_HAL_Driver/Src/stm32f3xx_hal_uart.c ****   {
 3283              		.loc 1 2213 3 view .LVU1035
2213:Drivers/STM32F3xx_HAL_Driver/Src/stm32f3xx_hal_uart.c ****   {
 3284              		.loc 1 2213 6 is_stmt 0 view .LVU1036
 3285 0000 436A     		ldr	r3, [r0, #36]
2213:Drivers/STM32F3xx_HAL_Driver/Src/stm32f3xx_hal_uart.c ****   {
 3286              		.loc 1 2213 5 view .LVU1037
 3287 0002 DA07     		lsls	r2, r3, #31
2208:Drivers/STM32F3xx_HAL_Driver/Src/stm32f3xx_hal_uart.c ****   /* Check whether the set of advanced features to configure is properly set */
 3288              		.loc 1 2208 1 view .LVU1038
 3289 0004 10B4     		push	{r4}
 3290              	.LCFI31:
 3291              		.cfi_def_cfa_offset 4
 3292              		.cfi_offset 4, -4
2213:Drivers/STM32F3xx_HAL_Driver/Src/stm32f3xx_hal_uart.c ****   {
 3293              		.loc 1 2213 5 view .LVU1039
 3294 0006 06D5     		bpl	.L392
2215:Drivers/STM32F3xx_HAL_Driver/Src/stm32f3xx_hal_uart.c ****     MODIFY_REG(huart->Instance->CR2, USART_CR2_TXINV, huart->AdvancedInit.TxPinLevelInvert);
 3295              		.loc 1 2215 5 is_stmt 1 view .LVU1040
2216:Drivers/STM32F3xx_HAL_Driver/Src/stm32f3xx_hal_uart.c ****   }
 3296              		.loc 1 2216 5 view .LVU1041
 3297 0008 0168     		ldr	r1, [r0]
 3298 000a 846A     		ldr	r4, [r0, #40]
 3299 000c 4A68     		ldr	r2, [r1, #4]
 3300 000e 22F40032 		bic	r2, r2, #131072
 3301 0012 2243     		orrs	r2, r2, r4
 3302 0014 4A60     		str	r2, [r1, #4]
 3303              	.L392:
2220:Drivers/STM32F3xx_HAL_Driver/Src/stm32f3xx_hal_uart.c ****   {
 3304              		.loc 1 2220 3 view .LVU1042
2220:Drivers/STM32F3xx_HAL_Driver/Src/stm32f3xx_hal_uart.c ****   {
 3305              		.loc 1 2220 5 is_stmt 0 view .LVU1043
 3306 0016 9C07     		lsls	r4, r3, #30
 3307 0018 06D5     		bpl	.L393
2222:Drivers/STM32F3xx_HAL_Driver/Src/stm32f3xx_hal_uart.c ****     MODIFY_REG(huart->Instance->CR2, USART_CR2_RXINV, huart->AdvancedInit.RxPinLevelInvert);
 3308              		.loc 1 2222 5 is_stmt 1 view .LVU1044
2223:Drivers/STM32F3xx_HAL_Driver/Src/stm32f3xx_hal_uart.c ****   }
 3309              		.loc 1 2223 5 view .LVU1045
 3310 001a 0168     		ldr	r1, [r0]
 3311 001c C46A     		ldr	r4, [r0, #44]
 3312 001e 4A68     		ldr	r2, [r1, #4]
 3313 0020 22F48032 		bic	r2, r2, #65536
 3314 0024 2243     		orrs	r2, r2, r4
 3315 0026 4A60     		str	r2, [r1, #4]
 3316              	.L393:
2227:Drivers/STM32F3xx_HAL_Driver/Src/stm32f3xx_hal_uart.c ****   {
 3317              		.loc 1 2227 3 view .LVU1046
2227:Drivers/STM32F3xx_HAL_Driver/Src/stm32f3xx_hal_uart.c ****   {
 3318              		.loc 1 2227 5 is_stmt 0 view .LVU1047
 3319 0028 5907     		lsls	r1, r3, #29
 3320 002a 06D5     		bpl	.L394
2229:Drivers/STM32F3xx_HAL_Driver/Src/stm32f3xx_hal_uart.c ****     MODIFY_REG(huart->Instance->CR2, USART_CR2_DATAINV, huart->AdvancedInit.DataInvert);
 3321              		.loc 1 2229 5 is_stmt 1 view .LVU1048
ARM GAS  /var/folders/8c/gyvcglfx7f97kbqb2h83mm_r0000gn/T//ccv1qdBn.s 			page 118


2230:Drivers/STM32F3xx_HAL_Driver/Src/stm32f3xx_hal_uart.c ****   }
 3322              		.loc 1 2230 5 view .LVU1049
 3323 002c 0168     		ldr	r1, [r0]
 3324 002e 046B     		ldr	r4, [r0, #48]
 3325 0030 4A68     		ldr	r2, [r1, #4]
 3326 0032 22F48022 		bic	r2, r2, #262144
 3327 0036 2243     		orrs	r2, r2, r4
 3328 0038 4A60     		str	r2, [r1, #4]
 3329              	.L394:
2234:Drivers/STM32F3xx_HAL_Driver/Src/stm32f3xx_hal_uart.c ****   {
 3330              		.loc 1 2234 3 view .LVU1050
2234:Drivers/STM32F3xx_HAL_Driver/Src/stm32f3xx_hal_uart.c ****   {
 3331              		.loc 1 2234 5 is_stmt 0 view .LVU1051
 3332 003a 1A07     		lsls	r2, r3, #28
 3333 003c 06D5     		bpl	.L395
2236:Drivers/STM32F3xx_HAL_Driver/Src/stm32f3xx_hal_uart.c ****     MODIFY_REG(huart->Instance->CR2, USART_CR2_SWAP, huart->AdvancedInit.Swap);
 3334              		.loc 1 2236 5 is_stmt 1 view .LVU1052
2237:Drivers/STM32F3xx_HAL_Driver/Src/stm32f3xx_hal_uart.c ****   }
 3335              		.loc 1 2237 5 view .LVU1053
 3336 003e 0168     		ldr	r1, [r0]
 3337 0040 446B     		ldr	r4, [r0, #52]
 3338 0042 4A68     		ldr	r2, [r1, #4]
 3339 0044 22F40042 		bic	r2, r2, #32768
 3340 0048 2243     		orrs	r2, r2, r4
 3341 004a 4A60     		str	r2, [r1, #4]
 3342              	.L395:
2241:Drivers/STM32F3xx_HAL_Driver/Src/stm32f3xx_hal_uart.c ****   {
 3343              		.loc 1 2241 3 view .LVU1054
2241:Drivers/STM32F3xx_HAL_Driver/Src/stm32f3xx_hal_uart.c ****   {
 3344              		.loc 1 2241 5 is_stmt 0 view .LVU1055
 3345 004c DC06     		lsls	r4, r3, #27
 3346 004e 06D5     		bpl	.L396
2243:Drivers/STM32F3xx_HAL_Driver/Src/stm32f3xx_hal_uart.c ****     MODIFY_REG(huart->Instance->CR3, USART_CR3_OVRDIS, huart->AdvancedInit.OverrunDisable);
 3347              		.loc 1 2243 5 is_stmt 1 view .LVU1056
2244:Drivers/STM32F3xx_HAL_Driver/Src/stm32f3xx_hal_uart.c ****   }
 3348              		.loc 1 2244 5 view .LVU1057
 3349 0050 0168     		ldr	r1, [r0]
 3350 0052 846B     		ldr	r4, [r0, #56]
 3351 0054 8A68     		ldr	r2, [r1, #8]
 3352 0056 22F48052 		bic	r2, r2, #4096
 3353 005a 2243     		orrs	r2, r2, r4
 3354 005c 8A60     		str	r2, [r1, #8]
 3355              	.L396:
2248:Drivers/STM32F3xx_HAL_Driver/Src/stm32f3xx_hal_uart.c ****   {
 3356              		.loc 1 2248 3 view .LVU1058
2248:Drivers/STM32F3xx_HAL_Driver/Src/stm32f3xx_hal_uart.c ****   {
 3357              		.loc 1 2248 5 is_stmt 0 view .LVU1059
 3358 005e 9906     		lsls	r1, r3, #26
 3359 0060 06D5     		bpl	.L397
2250:Drivers/STM32F3xx_HAL_Driver/Src/stm32f3xx_hal_uart.c ****     MODIFY_REG(huart->Instance->CR3, USART_CR3_DDRE, huart->AdvancedInit.DMADisableonRxError);
 3360              		.loc 1 2250 5 is_stmt 1 view .LVU1060
2251:Drivers/STM32F3xx_HAL_Driver/Src/stm32f3xx_hal_uart.c ****   }
 3361              		.loc 1 2251 5 view .LVU1061
 3362 0062 0168     		ldr	r1, [r0]
 3363 0064 C46B     		ldr	r4, [r0, #60]
 3364 0066 8A68     		ldr	r2, [r1, #8]
 3365 0068 22F40052 		bic	r2, r2, #8192
ARM GAS  /var/folders/8c/gyvcglfx7f97kbqb2h83mm_r0000gn/T//ccv1qdBn.s 			page 119


 3366 006c 2243     		orrs	r2, r2, r4
 3367 006e 8A60     		str	r2, [r1, #8]
 3368              	.L397:
2255:Drivers/STM32F3xx_HAL_Driver/Src/stm32f3xx_hal_uart.c ****   {
 3369              		.loc 1 2255 3 view .LVU1062
2255:Drivers/STM32F3xx_HAL_Driver/Src/stm32f3xx_hal_uart.c ****   {
 3370              		.loc 1 2255 5 is_stmt 0 view .LVU1063
 3371 0070 5A06     		lsls	r2, r3, #25
 3372 0072 09D5     		bpl	.L399
2257:Drivers/STM32F3xx_HAL_Driver/Src/stm32f3xx_hal_uart.c ****     assert_param(IS_UART_ADVFEATURE_AUTOBAUDRATE(huart->AdvancedInit.AutoBaudRateEnable));
 3373              		.loc 1 2257 5 is_stmt 1 view .LVU1064
2258:Drivers/STM32F3xx_HAL_Driver/Src/stm32f3xx_hal_uart.c ****     MODIFY_REG(huart->Instance->CR2, USART_CR2_ABREN, huart->AdvancedInit.AutoBaudRateEnable);
 3374              		.loc 1 2258 5 view .LVU1065
2259:Drivers/STM32F3xx_HAL_Driver/Src/stm32f3xx_hal_uart.c ****     /* set auto Baudrate detection parameters if detection is enabled */
 3375              		.loc 1 2259 5 view .LVU1066
 3376 0074 0168     		ldr	r1, [r0]
 3377 0076 046C     		ldr	r4, [r0, #64]
 3378 0078 4A68     		ldr	r2, [r1, #4]
 3379 007a 22F48012 		bic	r2, r2, #1048576
 3380 007e 2243     		orrs	r2, r2, r4
2261:Drivers/STM32F3xx_HAL_Driver/Src/stm32f3xx_hal_uart.c ****     {
 3381              		.loc 1 2261 7 is_stmt 0 view .LVU1067
 3382 0080 B4F5801F 		cmp	r4, #1048576
2259:Drivers/STM32F3xx_HAL_Driver/Src/stm32f3xx_hal_uart.c ****     /* set auto Baudrate detection parameters if detection is enabled */
 3383              		.loc 1 2259 5 view .LVU1068
 3384 0084 4A60     		str	r2, [r1, #4]
2261:Drivers/STM32F3xx_HAL_Driver/Src/stm32f3xx_hal_uart.c ****     {
 3385              		.loc 1 2261 5 is_stmt 1 view .LVU1069
2261:Drivers/STM32F3xx_HAL_Driver/Src/stm32f3xx_hal_uart.c ****     {
 3386              		.loc 1 2261 7 is_stmt 0 view .LVU1070
 3387 0086 0BD0     		beq	.L424
 3388              	.L399:
2269:Drivers/STM32F3xx_HAL_Driver/Src/stm32f3xx_hal_uart.c ****   {
 3389              		.loc 1 2269 3 is_stmt 1 view .LVU1071
2269:Drivers/STM32F3xx_HAL_Driver/Src/stm32f3xx_hal_uart.c ****   {
 3390              		.loc 1 2269 5 is_stmt 0 view .LVU1072
 3391 0088 1B06     		lsls	r3, r3, #24
 3392 008a 06D5     		bpl	.L391
2271:Drivers/STM32F3xx_HAL_Driver/Src/stm32f3xx_hal_uart.c ****     MODIFY_REG(huart->Instance->CR2, USART_CR2_MSBFIRST, huart->AdvancedInit.MSBFirst);
 3393              		.loc 1 2271 5 is_stmt 1 view .LVU1073
2272:Drivers/STM32F3xx_HAL_Driver/Src/stm32f3xx_hal_uart.c ****   }
 3394              		.loc 1 2272 5 view .LVU1074
 3395 008c 0268     		ldr	r2, [r0]
 3396 008e 816C     		ldr	r1, [r0, #72]
 3397 0090 5368     		ldr	r3, [r2, #4]
 3398 0092 23F40023 		bic	r3, r3, #524288
 3399 0096 0B43     		orrs	r3, r3, r1
 3400 0098 5360     		str	r3, [r2, #4]
 3401              	.L391:
2274:Drivers/STM32F3xx_HAL_Driver/Src/stm32f3xx_hal_uart.c **** 
 3402              		.loc 1 2274 1 is_stmt 0 view .LVU1075
 3403 009a 5DF8044B 		ldr	r4, [sp], #4
 3404              	.LCFI32:
 3405              		.cfi_remember_state
 3406              		.cfi_restore 4
 3407              		.cfi_def_cfa_offset 0
 3408 009e 7047     		bx	lr
ARM GAS  /var/folders/8c/gyvcglfx7f97kbqb2h83mm_r0000gn/T//ccv1qdBn.s 			page 120


 3409              	.L424:
 3410              	.LCFI33:
 3411              		.cfi_restore_state
2263:Drivers/STM32F3xx_HAL_Driver/Src/stm32f3xx_hal_uart.c ****       MODIFY_REG(huart->Instance->CR2, USART_CR2_ABRMODE, huart->AdvancedInit.AutoBaudRateMode);
 3412              		.loc 1 2263 7 is_stmt 1 view .LVU1076
2264:Drivers/STM32F3xx_HAL_Driver/Src/stm32f3xx_hal_uart.c ****     }
 3413              		.loc 1 2264 7 view .LVU1077
 3414 00a0 4A68     		ldr	r2, [r1, #4]
 3415 00a2 446C     		ldr	r4, [r0, #68]
 3416 00a4 22F4C002 		bic	r2, r2, #6291456
 3417 00a8 2243     		orrs	r2, r2, r4
 3418 00aa 4A60     		str	r2, [r1, #4]
 3419 00ac ECE7     		b	.L399
 3420              		.cfi_endproc
 3421              	.LFE166:
 3423 00ae 00BF     		.section	.text.UART_WaitOnFlagUntilTimeout,"ax",%progbits
 3424              		.align	1
 3425              		.p2align 2,,3
 3426              		.global	UART_WaitOnFlagUntilTimeout
 3427              		.syntax unified
 3428              		.thumb
 3429              		.thumb_func
 3430              		.fpu fpv4-sp-d16
 3432              	UART_WaitOnFlagUntilTimeout:
 3433              	.LVL198:
 3434              	.LFB168:
2332:Drivers/STM32F3xx_HAL_Driver/Src/stm32f3xx_hal_uart.c ****   /* Wait until flag is set */
 3435              		.loc 1 2332 1 view -0
 3436              		.cfi_startproc
 3437              		@ args = 4, pretend = 0, frame = 0
 3438              		@ frame_needed = 0, uses_anonymous_args = 0
2332:Drivers/STM32F3xx_HAL_Driver/Src/stm32f3xx_hal_uart.c ****   /* Wait until flag is set */
 3439              		.loc 1 2332 1 is_stmt 0 view .LVU1079
 3440 0000 2DE9F843 		push	{r3, r4, r5, r6, r7, r8, r9, lr}
 3441              	.LCFI34:
 3442              		.cfi_def_cfa_offset 32
 3443              		.cfi_offset 3, -32
 3444              		.cfi_offset 4, -28
 3445              		.cfi_offset 5, -24
 3446              		.cfi_offset 6, -20
 3447              		.cfi_offset 7, -16
 3448              		.cfi_offset 8, -12
 3449              		.cfi_offset 9, -8
 3450              		.cfi_offset 14, -4
2332:Drivers/STM32F3xx_HAL_Driver/Src/stm32f3xx_hal_uart.c ****   /* Wait until flag is set */
 3451              		.loc 1 2332 1 view .LVU1080
 3452 0004 089D     		ldr	r5, [sp, #32]
 3453 0006 8046     		mov	r8, r0
 3454 0008 0F46     		mov	r7, r1
 3455 000a 1646     		mov	r6, r2
 3456 000c 9946     		mov	r9, r3
2334:Drivers/STM32F3xx_HAL_Driver/Src/stm32f3xx_hal_uart.c ****   {
 3457              		.loc 1 2334 3 is_stmt 1 view .LVU1081
 3458              	.LVL199:
 3459              	.L426:
2334:Drivers/STM32F3xx_HAL_Driver/Src/stm32f3xx_hal_uart.c ****   {
 3460              		.loc 1 2334 10 is_stmt 0 view .LVU1082
ARM GAS  /var/folders/8c/gyvcglfx7f97kbqb2h83mm_r0000gn/T//ccv1qdBn.s 			page 121


 3461 000e D8F80040 		ldr	r4, [r8]
 3462 0012 01E0     		b	.L427
 3463              	.L430:
2337:Drivers/STM32F3xx_HAL_Driver/Src/stm32f3xx_hal_uart.c ****     {
 3464              		.loc 1 2337 7 view .LVU1083
 3465 0014 6B1C     		adds	r3, r5, #1
 3466 0016 0AD1     		bne	.L438
 3467              	.L427:
2337:Drivers/STM32F3xx_HAL_Driver/Src/stm32f3xx_hal_uart.c ****     {
 3468              		.loc 1 2337 5 is_stmt 1 view .LVU1084
2334:Drivers/STM32F3xx_HAL_Driver/Src/stm32f3xx_hal_uart.c ****   {
 3469              		.loc 1 2334 10 is_stmt 0 view .LVU1085
 3470 0018 E069     		ldr	r0, [r4, #28]
2334:Drivers/STM32F3xx_HAL_Driver/Src/stm32f3xx_hal_uart.c ****   {
 3471              		.loc 1 2334 49 view .LVU1086
 3472 001a 37EA0003 		bics	r3, r7, r0
 3473 001e 0CBF     		ite	eq
 3474 0020 0120     		moveq	r0, #1
 3475 0022 0020     		movne	r0, #0
2334:Drivers/STM32F3xx_HAL_Driver/Src/stm32f3xx_hal_uart.c ****   {
 3476              		.loc 1 2334 8 view .LVU1087
 3477 0024 B042     		cmp	r0, r6
 3478 0026 F5D0     		beq	.L430
2354:Drivers/STM32F3xx_HAL_Driver/Src/stm32f3xx_hal_uart.c **** }
 3479              		.loc 1 2354 10 view .LVU1088
 3480 0028 0020     		movs	r0, #0
 3481              	.L429:
2355:Drivers/STM32F3xx_HAL_Driver/Src/stm32f3xx_hal_uart.c **** 
 3482              		.loc 1 2355 1 view .LVU1089
 3483 002a BDE8F883 		pop	{r3, r4, r5, r6, r7, r8, r9, pc}
 3484              	.LVL200:
 3485              	.L438:
2339:Drivers/STM32F3xx_HAL_Driver/Src/stm32f3xx_hal_uart.c ****       {
 3486              		.loc 1 2339 7 is_stmt 1 view .LVU1090
2339:Drivers/STM32F3xx_HAL_Driver/Src/stm32f3xx_hal_uart.c ****       {
 3487              		.loc 1 2339 9 is_stmt 0 view .LVU1091
 3488 002e 3DB1     		cbz	r5, .L428
2339:Drivers/STM32F3xx_HAL_Driver/Src/stm32f3xx_hal_uart.c ****       {
 3489              		.loc 1 2339 31 discriminator 1 view .LVU1092
 3490 0030 FFF7FEFF 		bl	HAL_GetTick
 3491              	.LVL201:
2339:Drivers/STM32F3xx_HAL_Driver/Src/stm32f3xx_hal_uart.c ****       {
 3492              		.loc 1 2339 44 discriminator 1 view .LVU1093
 3493 0034 A0EB0900 		sub	r0, r0, r9
2339:Drivers/STM32F3xx_HAL_Driver/Src/stm32f3xx_hal_uart.c ****       {
 3494              		.loc 1 2339 26 discriminator 1 view .LVU1094
 3495 0038 A842     		cmp	r0, r5
 3496 003a E8D9     		bls	.L426
 3497 003c D8F80040 		ldr	r4, [r8]
 3498              	.L428:
 3499              	.LVL202:
 3500              	.LBB26:
 3501              	.LBI26:
2331:Drivers/STM32F3xx_HAL_Driver/Src/stm32f3xx_hal_uart.c **** {
 3502              		.loc 1 2331 19 is_stmt 1 view .LVU1095
 3503              	.LBB27:
2342:Drivers/STM32F3xx_HAL_Driver/Src/stm32f3xx_hal_uart.c ****         CLEAR_BIT(huart->Instance->CR3, USART_CR3_EIE);
ARM GAS  /var/folders/8c/gyvcglfx7f97kbqb2h83mm_r0000gn/T//ccv1qdBn.s 			page 122


 3504              		.loc 1 2342 9 view .LVU1096
 3505 0040 2368     		ldr	r3, [r4]
 3506 0042 23F4D073 		bic	r3, r3, #416
 3507 0046 2360     		str	r3, [r4]
2343:Drivers/STM32F3xx_HAL_Driver/Src/stm32f3xx_hal_uart.c **** 
 3508              		.loc 1 2343 9 view .LVU1097
 3509 0048 A368     		ldr	r3, [r4, #8]
2345:Drivers/STM32F3xx_HAL_Driver/Src/stm32f3xx_hal_uart.c ****         huart->RxState = HAL_UART_STATE_READY;
 3510              		.loc 1 2345 24 is_stmt 0 view .LVU1098
 3511 004a 2022     		movs	r2, #32
2343:Drivers/STM32F3xx_HAL_Driver/Src/stm32f3xx_hal_uart.c **** 
 3512              		.loc 1 2343 9 view .LVU1099
 3513 004c 23F00103 		bic	r3, r3, #1
2349:Drivers/STM32F3xx_HAL_Driver/Src/stm32f3xx_hal_uart.c ****         return HAL_TIMEOUT;
 3514              		.loc 1 2349 9 view .LVU1100
 3515 0050 0021     		movs	r1, #0
2343:Drivers/STM32F3xx_HAL_Driver/Src/stm32f3xx_hal_uart.c **** 
 3516              		.loc 1 2343 9 view .LVU1101
 3517 0052 A360     		str	r3, [r4, #8]
2345:Drivers/STM32F3xx_HAL_Driver/Src/stm32f3xx_hal_uart.c ****         huart->RxState = HAL_UART_STATE_READY;
 3518              		.loc 1 2345 9 is_stmt 1 view .LVU1102
2349:Drivers/STM32F3xx_HAL_Driver/Src/stm32f3xx_hal_uart.c ****         return HAL_TIMEOUT;
 3519              		.loc 1 2349 9 is_stmt 0 view .LVU1103
 3520 0054 0320     		movs	r0, #3
2345:Drivers/STM32F3xx_HAL_Driver/Src/stm32f3xx_hal_uart.c ****         huart->RxState = HAL_UART_STATE_READY;
 3521              		.loc 1 2345 24 view .LVU1104
 3522 0056 88F86920 		strb	r2, [r8, #105]
2346:Drivers/STM32F3xx_HAL_Driver/Src/stm32f3xx_hal_uart.c **** 
 3523              		.loc 1 2346 9 is_stmt 1 view .LVU1105
2349:Drivers/STM32F3xx_HAL_Driver/Src/stm32f3xx_hal_uart.c ****         return HAL_TIMEOUT;
 3524              		.loc 1 2349 9 is_stmt 0 view .LVU1106
 3525 005a 88F86810 		strb	r1, [r8, #104]
2346:Drivers/STM32F3xx_HAL_Driver/Src/stm32f3xx_hal_uart.c **** 
 3526              		.loc 1 2346 24 view .LVU1107
 3527 005e 88F86A20 		strb	r2, [r8, #106]
2349:Drivers/STM32F3xx_HAL_Driver/Src/stm32f3xx_hal_uart.c ****         return HAL_TIMEOUT;
 3528              		.loc 1 2349 9 is_stmt 1 view .LVU1108
2349:Drivers/STM32F3xx_HAL_Driver/Src/stm32f3xx_hal_uart.c ****         return HAL_TIMEOUT;
 3529              		.loc 1 2349 9 view .LVU1109
2350:Drivers/STM32F3xx_HAL_Driver/Src/stm32f3xx_hal_uart.c ****       }
 3530              		.loc 1 2350 9 view .LVU1110
 3531              	.LVL203:
2350:Drivers/STM32F3xx_HAL_Driver/Src/stm32f3xx_hal_uart.c ****       }
 3532              		.loc 1 2350 9 is_stmt 0 view .LVU1111
 3533 0062 E2E7     		b	.L429
 3534              	.LBE27:
 3535              	.LBE26:
 3536              		.cfi_endproc
 3537              	.LFE168:
 3539              		.section	.text.HAL_UART_Transmit,"ax",%progbits
 3540              		.align	1
 3541              		.p2align 2,,3
 3542              		.global	HAL_UART_Transmit
 3543              		.syntax unified
 3544              		.thumb
 3545              		.thumb_func
 3546              		.fpu fpv4-sp-d16
ARM GAS  /var/folders/8c/gyvcglfx7f97kbqb2h83mm_r0000gn/T//ccv1qdBn.s 			page 123


 3548              	HAL_UART_Transmit:
 3549              	.LVL204:
 3550              	.LFB133:
 724:Drivers/STM32F3xx_HAL_Driver/Src/stm32f3xx_hal_uart.c ****   uint16_t* tmp;
 3551              		.loc 1 724 1 is_stmt 1 view -0
 3552              		.cfi_startproc
 3553              		@ args = 0, pretend = 0, frame = 0
 3554              		@ frame_needed = 0, uses_anonymous_args = 0
 725:Drivers/STM32F3xx_HAL_Driver/Src/stm32f3xx_hal_uart.c ****   uint32_t tickstart = 0U;
 3555              		.loc 1 725 3 view .LVU1113
 726:Drivers/STM32F3xx_HAL_Driver/Src/stm32f3xx_hal_uart.c **** 
 3556              		.loc 1 726 3 view .LVU1114
 729:Drivers/STM32F3xx_HAL_Driver/Src/stm32f3xx_hal_uart.c ****   {
 3557              		.loc 1 729 3 view .LVU1115
 724:Drivers/STM32F3xx_HAL_Driver/Src/stm32f3xx_hal_uart.c ****   uint16_t* tmp;
 3558              		.loc 1 724 1 is_stmt 0 view .LVU1116
 3559 0000 2DE9F041 		push	{r4, r5, r6, r7, r8, lr}
 3560              	.LCFI35:
 3561              		.cfi_def_cfa_offset 24
 3562              		.cfi_offset 4, -24
 3563              		.cfi_offset 5, -20
 3564              		.cfi_offset 6, -16
 3565              		.cfi_offset 7, -12
 3566              		.cfi_offset 8, -8
 3567              		.cfi_offset 14, -4
 3568 0004 0E46     		mov	r6, r1
 729:Drivers/STM32F3xx_HAL_Driver/Src/stm32f3xx_hal_uart.c ****   {
 3569              		.loc 1 729 11 view .LVU1117
 3570 0006 90F86910 		ldrb	r1, [r0, #105]	@ zero_extendqisi2
 3571              	.LVL205:
 729:Drivers/STM32F3xx_HAL_Driver/Src/stm32f3xx_hal_uart.c ****   {
 3572              		.loc 1 729 5 view .LVU1118
 3573 000a 2029     		cmp	r1, #32
 724:Drivers/STM32F3xx_HAL_Driver/Src/stm32f3xx_hal_uart.c ****   uint16_t* tmp;
 3574              		.loc 1 724 1 view .LVU1119
 3575 000c 82B0     		sub	sp, sp, #8
 3576              	.LCFI36:
 3577              		.cfi_def_cfa_offset 32
 729:Drivers/STM32F3xx_HAL_Driver/Src/stm32f3xx_hal_uart.c ****   {
 3578              		.loc 1 729 5 view .LVU1120
 3579 000e 41D1     		bne	.L450
 731:Drivers/STM32F3xx_HAL_Driver/Src/stm32f3xx_hal_uart.c ****     {
 3580              		.loc 1 731 5 is_stmt 1 view .LVU1121
 731:Drivers/STM32F3xx_HAL_Driver/Src/stm32f3xx_hal_uart.c ****     {
 3581              		.loc 1 731 7 is_stmt 0 view .LVU1122
 3582 0010 9EB3     		cbz	r6, .L449
 3583 0012 1546     		mov	r5, r2
 731:Drivers/STM32F3xx_HAL_Driver/Src/stm32f3xx_hal_uart.c ****     {
 3584              		.loc 1 731 25 discriminator 1 view .LVU1123
 3585 0014 8AB3     		cbz	r2, .L449
 3586 0016 1F46     		mov	r7, r3
 737:Drivers/STM32F3xx_HAL_Driver/Src/stm32f3xx_hal_uart.c **** 
 3587              		.loc 1 737 5 is_stmt 1 view .LVU1124
 737:Drivers/STM32F3xx_HAL_Driver/Src/stm32f3xx_hal_uart.c **** 
 3588              		.loc 1 737 5 view .LVU1125
 3589 0018 90F86830 		ldrb	r3, [r0, #104]	@ zero_extendqisi2
 3590              	.LVL206:
ARM GAS  /var/folders/8c/gyvcglfx7f97kbqb2h83mm_r0000gn/T//ccv1qdBn.s 			page 124


 737:Drivers/STM32F3xx_HAL_Driver/Src/stm32f3xx_hal_uart.c **** 
 3591              		.loc 1 737 5 is_stmt 0 view .LVU1126
 3592 001c 012B     		cmp	r3, #1
 3593 001e 0446     		mov	r4, r0
 3594 0020 38D0     		beq	.L450
 737:Drivers/STM32F3xx_HAL_Driver/Src/stm32f3xx_hal_uart.c **** 
 3595              		.loc 1 737 5 is_stmt 1 discriminator 2 view .LVU1127
 739:Drivers/STM32F3xx_HAL_Driver/Src/stm32f3xx_hal_uart.c ****     huart->gState = HAL_UART_STATE_BUSY_TX;
 3596              		.loc 1 739 22 is_stmt 0 discriminator 2 view .LVU1128
 3597 0022 0023     		movs	r3, #0
 3598 0024 C366     		str	r3, [r0, #108]
 737:Drivers/STM32F3xx_HAL_Driver/Src/stm32f3xx_hal_uart.c **** 
 3599              		.loc 1 737 5 discriminator 2 view .LVU1129
 3600 0026 0122     		movs	r2, #1
 3601              	.LVL207:
 740:Drivers/STM32F3xx_HAL_Driver/Src/stm32f3xx_hal_uart.c **** 
 3602              		.loc 1 740 19 discriminator 2 view .LVU1130
 3603 0028 2123     		movs	r3, #33
 737:Drivers/STM32F3xx_HAL_Driver/Src/stm32f3xx_hal_uart.c **** 
 3604              		.loc 1 737 5 discriminator 2 view .LVU1131
 3605 002a 80F86820 		strb	r2, [r0, #104]
 739:Drivers/STM32F3xx_HAL_Driver/Src/stm32f3xx_hal_uart.c ****     huart->gState = HAL_UART_STATE_BUSY_TX;
 3606              		.loc 1 739 5 is_stmt 1 discriminator 2 view .LVU1132
 740:Drivers/STM32F3xx_HAL_Driver/Src/stm32f3xx_hal_uart.c **** 
 3607              		.loc 1 740 5 discriminator 2 view .LVU1133
 740:Drivers/STM32F3xx_HAL_Driver/Src/stm32f3xx_hal_uart.c **** 
 3608              		.loc 1 740 19 is_stmt 0 discriminator 2 view .LVU1134
 3609 002e 80F86930 		strb	r3, [r0, #105]
 743:Drivers/STM32F3xx_HAL_Driver/Src/stm32f3xx_hal_uart.c **** 
 3610              		.loc 1 743 5 is_stmt 1 discriminator 2 view .LVU1135
 743:Drivers/STM32F3xx_HAL_Driver/Src/stm32f3xx_hal_uart.c **** 
 3611              		.loc 1 743 17 is_stmt 0 discriminator 2 view .LVU1136
 3612 0032 FFF7FEFF 		bl	HAL_GetTick
 3613              	.LVL208:
 745:Drivers/STM32F3xx_HAL_Driver/Src/stm32f3xx_hal_uart.c ****     huart->TxXferCount = Size;
 3614              		.loc 1 745 23 discriminator 2 view .LVU1137
 3615 0036 A4F85050 		strh	r5, [r4, #80]	@ movhi
 743:Drivers/STM32F3xx_HAL_Driver/Src/stm32f3xx_hal_uart.c **** 
 3616              		.loc 1 743 17 discriminator 2 view .LVU1138
 3617 003a 8046     		mov	r8, r0
 3618              	.LVL209:
 745:Drivers/STM32F3xx_HAL_Driver/Src/stm32f3xx_hal_uart.c ****     huart->TxXferCount = Size;
 3619              		.loc 1 745 5 is_stmt 1 discriminator 2 view .LVU1139
 746:Drivers/STM32F3xx_HAL_Driver/Src/stm32f3xx_hal_uart.c ****     while(huart->TxXferCount > 0U)
 3620              		.loc 1 746 5 discriminator 2 view .LVU1140
 746:Drivers/STM32F3xx_HAL_Driver/Src/stm32f3xx_hal_uart.c ****     while(huart->TxXferCount > 0U)
 3621              		.loc 1 746 24 is_stmt 0 discriminator 2 view .LVU1141
 3622 003c A4F85250 		strh	r5, [r4, #82]	@ movhi
 747:Drivers/STM32F3xx_HAL_Driver/Src/stm32f3xx_hal_uart.c ****     {
 3623              		.loc 1 747 5 is_stmt 1 discriminator 2 view .LVU1142
 3624              	.LVL210:
 3625              	.L441:
 749:Drivers/STM32F3xx_HAL_Driver/Src/stm32f3xx_hal_uart.c ****       if(UART_WaitOnFlagUntilTimeout(huart, UART_FLAG_TXE, RESET, tickstart, Timeout) != HAL_OK)
 3626              		.loc 1 749 7 view .LVU1143
 747:Drivers/STM32F3xx_HAL_Driver/Src/stm32f3xx_hal_uart.c ****     {
 3627              		.loc 1 747 16 is_stmt 0 view .LVU1144
 3628 0040 B4F85250 		ldrh	r5, [r4, #82]
ARM GAS  /var/folders/8c/gyvcglfx7f97kbqb2h83mm_r0000gn/T//ccv1qdBn.s 			page 125


 3629 0044 ADB2     		uxth	r5, r5
 750:Drivers/STM32F3xx_HAL_Driver/Src/stm32f3xx_hal_uart.c ****       {
 3630              		.loc 1 750 10 view .LVU1145
 3631 0046 4346     		mov	r3, r8
 3632 0048 0022     		movs	r2, #0
 3633 004a 8021     		movs	r1, #128
 3634 004c 2046     		mov	r0, r4
 747:Drivers/STM32F3xx_HAL_Driver/Src/stm32f3xx_hal_uart.c ****     {
 3635              		.loc 1 747 10 view .LVU1146
 3636 004e 4DB3     		cbz	r5, .L452
 3637              	.LVL211:
 749:Drivers/STM32F3xx_HAL_Driver/Src/stm32f3xx_hal_uart.c ****       if(UART_WaitOnFlagUntilTimeout(huart, UART_FLAG_TXE, RESET, tickstart, Timeout) != HAL_OK)
 3638              		.loc 1 749 12 view .LVU1147
 3639 0050 B4F85250 		ldrh	r5, [r4, #82]
 750:Drivers/STM32F3xx_HAL_Driver/Src/stm32f3xx_hal_uart.c ****       {
 3640              		.loc 1 750 10 view .LVU1148
 3641 0054 0097     		str	r7, [sp]
 749:Drivers/STM32F3xx_HAL_Driver/Src/stm32f3xx_hal_uart.c ****       if(UART_WaitOnFlagUntilTimeout(huart, UART_FLAG_TXE, RESET, tickstart, Timeout) != HAL_OK)
 3642              		.loc 1 749 25 view .LVU1149
 3643 0056 013D     		subs	r5, r5, #1
 3644 0058 ADB2     		uxth	r5, r5
 3645 005a A4F85250 		strh	r5, [r4, #82]	@ movhi
 750:Drivers/STM32F3xx_HAL_Driver/Src/stm32f3xx_hal_uart.c ****       {
 3646              		.loc 1 750 7 is_stmt 1 view .LVU1150
 750:Drivers/STM32F3xx_HAL_Driver/Src/stm32f3xx_hal_uart.c ****       {
 3647              		.loc 1 750 10 is_stmt 0 view .LVU1151
 3648 005e FFF7FEFF 		bl	UART_WaitOnFlagUntilTimeout
 3649              	.LVL212:
 754:Drivers/STM32F3xx_HAL_Driver/Src/stm32f3xx_hal_uart.c ****       {
 3650              		.loc 1 754 7 is_stmt 1 view .LVU1152
 762:Drivers/STM32F3xx_HAL_Driver/Src/stm32f3xx_hal_uart.c ****       }
 3651              		.loc 1 762 9 view .LVU1153
 762:Drivers/STM32F3xx_HAL_Driver/Src/stm32f3xx_hal_uart.c ****       }
 3652              		.loc 1 762 39 is_stmt 0 view .LVU1154
 3653 0062 3346     		mov	r3, r6
 750:Drivers/STM32F3xx_HAL_Driver/Src/stm32f3xx_hal_uart.c ****       {
 3654              		.loc 1 750 9 view .LVU1155
 3655 0064 D0B9     		cbnz	r0, .L446
 754:Drivers/STM32F3xx_HAL_Driver/Src/stm32f3xx_hal_uart.c ****       {
 3656              		.loc 1 754 10 view .LVU1156
 3657 0066 A268     		ldr	r2, [r4, #8]
 3658 0068 2168     		ldr	r1, [r4]
 3659 006a B2F5805F 		cmp	r2, #4096
 3660 006e 08D0     		beq	.L453
 3661              	.L443:
 762:Drivers/STM32F3xx_HAL_Driver/Src/stm32f3xx_hal_uart.c ****       }
 3662              		.loc 1 762 33 view .LVU1157
 3663 0070 13F8012B 		ldrb	r2, [r3], #1	@ zero_extendqisi2
 762:Drivers/STM32F3xx_HAL_Driver/Src/stm32f3xx_hal_uart.c ****       }
 3664              		.loc 1 762 30 view .LVU1158
 3665 0074 0A85     		strh	r2, [r1, #40]	@ movhi
 762:Drivers/STM32F3xx_HAL_Driver/Src/stm32f3xx_hal_uart.c ****       }
 3666              		.loc 1 762 39 view .LVU1159
 3667 0076 1E46     		mov	r6, r3
 3668              	.LVL213:
 762:Drivers/STM32F3xx_HAL_Driver/Src/stm32f3xx_hal_uart.c ****       }
 3669              		.loc 1 762 39 view .LVU1160
ARM GAS  /var/folders/8c/gyvcglfx7f97kbqb2h83mm_r0000gn/T//ccv1qdBn.s 			page 126


 3670 0078 E2E7     		b	.L441
 3671              	.LVL214:
 3672              	.L449:
 733:Drivers/STM32F3xx_HAL_Driver/Src/stm32f3xx_hal_uart.c ****     }
 3673              		.loc 1 733 15 view .LVU1161
 3674 007a 0120     		movs	r0, #1
 3675              	.LVL215:
 3676              	.L440:
 782:Drivers/STM32F3xx_HAL_Driver/Src/stm32f3xx_hal_uart.c **** 
 3677              		.loc 1 782 1 view .LVU1162
 3678 007c 02B0     		add	sp, sp, #8
 3679              	.LCFI37:
 3680              		.cfi_remember_state
 3681              		.cfi_def_cfa_offset 24
 3682              		@ sp needed
 3683 007e BDE8F081 		pop	{r4, r5, r6, r7, r8, pc}
 3684              	.LVL216:
 3685              	.L453:
 3686              	.LCFI38:
 3687              		.cfi_restore_state
 756:Drivers/STM32F3xx_HAL_Driver/Src/stm32f3xx_hal_uart.c ****         huart->Instance->TDR = (*tmp & (uint16_t)0x01FFU);
 3688              		.loc 1 756 9 is_stmt 1 discriminator 1 view .LVU1163
 757:Drivers/STM32F3xx_HAL_Driver/Src/stm32f3xx_hal_uart.c ****         pData += 2U;
 3689              		.loc 1 757 9 discriminator 1 view .LVU1164
 754:Drivers/STM32F3xx_HAL_Driver/Src/stm32f3xx_hal_uart.c ****       {
 3690              		.loc 1 754 58 is_stmt 0 discriminator 1 view .LVU1165
 3691 0082 2269     		ldr	r2, [r4, #16]
 3692 0084 002A     		cmp	r2, #0
 3693 0086 F3D1     		bne	.L443
 757:Drivers/STM32F3xx_HAL_Driver/Src/stm32f3xx_hal_uart.c ****         pData += 2U;
 3694              		.loc 1 757 38 view .LVU1166
 3695 0088 36F8023B 		ldrh	r3, [r6], #2
 3696              	.LVL217:
 757:Drivers/STM32F3xx_HAL_Driver/Src/stm32f3xx_hal_uart.c ****         pData += 2U;
 3697              		.loc 1 757 38 view .LVU1167
 3698 008c C3F30803 		ubfx	r3, r3, #0, #9
 757:Drivers/STM32F3xx_HAL_Driver/Src/stm32f3xx_hal_uart.c ****         pData += 2U;
 3699              		.loc 1 757 30 view .LVU1168
 3700 0090 0B85     		strh	r3, [r1, #40]	@ movhi
 758:Drivers/STM32F3xx_HAL_Driver/Src/stm32f3xx_hal_uart.c ****       }
 3701              		.loc 1 758 9 is_stmt 1 view .LVU1169
 3702              	.LVL218:
 758:Drivers/STM32F3xx_HAL_Driver/Src/stm32f3xx_hal_uart.c ****       }
 3703              		.loc 1 758 15 is_stmt 0 view .LVU1170
 3704 0092 D5E7     		b	.L441
 3705              	.LVL219:
 3706              	.L450:
 780:Drivers/STM32F3xx_HAL_Driver/Src/stm32f3xx_hal_uart.c ****   }
 3707              		.loc 1 780 12 view .LVU1171
 3708 0094 0220     		movs	r0, #2
 3709              	.LVL220:
 782:Drivers/STM32F3xx_HAL_Driver/Src/stm32f3xx_hal_uart.c **** 
 3710              		.loc 1 782 1 view .LVU1172
 3711 0096 02B0     		add	sp, sp, #8
 3712              	.LCFI39:
 3713              		.cfi_remember_state
 3714              		.cfi_def_cfa_offset 24
ARM GAS  /var/folders/8c/gyvcglfx7f97kbqb2h83mm_r0000gn/T//ccv1qdBn.s 			page 127


 3715              		@ sp needed
 3716 0098 BDE8F081 		pop	{r4, r5, r6, r7, r8, pc}
 3717              	.LVL221:
 3718              	.L446:
 3719              	.LCFI40:
 3720              		.cfi_restore_state
 752:Drivers/STM32F3xx_HAL_Driver/Src/stm32f3xx_hal_uart.c ****       }
 3721              		.loc 1 752 16 view .LVU1173
 3722 009c 0320     		movs	r0, #3
 782:Drivers/STM32F3xx_HAL_Driver/Src/stm32f3xx_hal_uart.c **** 
 3723              		.loc 1 782 1 view .LVU1174
 3724 009e 02B0     		add	sp, sp, #8
 3725              	.LCFI41:
 3726              		.cfi_remember_state
 3727              		.cfi_def_cfa_offset 24
 3728              		@ sp needed
 3729 00a0 BDE8F081 		pop	{r4, r5, r6, r7, r8, pc}
 3730              	.LVL222:
 3731              	.L452:
 3732              	.LCFI42:
 3733              		.cfi_restore_state
 765:Drivers/STM32F3xx_HAL_Driver/Src/stm32f3xx_hal_uart.c ****     {
 3734              		.loc 1 765 5 is_stmt 1 view .LVU1175
 765:Drivers/STM32F3xx_HAL_Driver/Src/stm32f3xx_hal_uart.c ****     {
 3735              		.loc 1 765 8 is_stmt 0 view .LVU1176
 3736 00a4 0097     		str	r7, [sp]
 3737 00a6 2A46     		mov	r2, r5
 3738 00a8 4021     		movs	r1, #64
 3739 00aa FFF7FEFF 		bl	UART_WaitOnFlagUntilTimeout
 3740              	.LVL223:
 765:Drivers/STM32F3xx_HAL_Driver/Src/stm32f3xx_hal_uart.c ****     {
 3741              		.loc 1 765 7 view .LVU1177
 3742 00ae 0028     		cmp	r0, #0
 3743 00b0 F4D1     		bne	.L446
 771:Drivers/STM32F3xx_HAL_Driver/Src/stm32f3xx_hal_uart.c **** 
 3744              		.loc 1 771 5 is_stmt 1 view .LVU1178
 771:Drivers/STM32F3xx_HAL_Driver/Src/stm32f3xx_hal_uart.c **** 
 3745              		.loc 1 771 19 is_stmt 0 view .LVU1179
 3746 00b2 2023     		movs	r3, #32
 774:Drivers/STM32F3xx_HAL_Driver/Src/stm32f3xx_hal_uart.c **** 
 3747              		.loc 1 774 5 view .LVU1180
 3748 00b4 84F86800 		strb	r0, [r4, #104]
 771:Drivers/STM32F3xx_HAL_Driver/Src/stm32f3xx_hal_uart.c **** 
 3749              		.loc 1 771 19 view .LVU1181
 3750 00b8 84F86930 		strb	r3, [r4, #105]
 774:Drivers/STM32F3xx_HAL_Driver/Src/stm32f3xx_hal_uart.c **** 
 3751              		.loc 1 774 5 is_stmt 1 view .LVU1182
 774:Drivers/STM32F3xx_HAL_Driver/Src/stm32f3xx_hal_uart.c **** 
 3752              		.loc 1 774 5 view .LVU1183
 776:Drivers/STM32F3xx_HAL_Driver/Src/stm32f3xx_hal_uart.c ****   }
 3753              		.loc 1 776 5 view .LVU1184
 776:Drivers/STM32F3xx_HAL_Driver/Src/stm32f3xx_hal_uart.c ****   }
 3754              		.loc 1 776 12 is_stmt 0 view .LVU1185
 3755 00bc DEE7     		b	.L440
 3756              		.cfi_endproc
 3757              	.LFE133:
 3759 00be 00BF     		.section	.text.HAL_UART_Receive,"ax",%progbits
ARM GAS  /var/folders/8c/gyvcglfx7f97kbqb2h83mm_r0000gn/T//ccv1qdBn.s 			page 128


 3760              		.align	1
 3761              		.p2align 2,,3
 3762              		.global	HAL_UART_Receive
 3763              		.syntax unified
 3764              		.thumb
 3765              		.thumb_func
 3766              		.fpu fpv4-sp-d16
 3768              	HAL_UART_Receive:
 3769              	.LVL224:
 3770              	.LFB134:
 793:Drivers/STM32F3xx_HAL_Driver/Src/stm32f3xx_hal_uart.c ****   uint16_t* tmp;
 3771              		.loc 1 793 1 is_stmt 1 view -0
 3772              		.cfi_startproc
 3773              		@ args = 0, pretend = 0, frame = 0
 3774              		@ frame_needed = 0, uses_anonymous_args = 0
 794:Drivers/STM32F3xx_HAL_Driver/Src/stm32f3xx_hal_uart.c ****   uint16_t uhMask;
 3775              		.loc 1 794 3 view .LVU1187
 795:Drivers/STM32F3xx_HAL_Driver/Src/stm32f3xx_hal_uart.c ****   uint32_t tickstart = 0U;
 3776              		.loc 1 795 3 view .LVU1188
 796:Drivers/STM32F3xx_HAL_Driver/Src/stm32f3xx_hal_uart.c **** 
 3777              		.loc 1 796 3 view .LVU1189
 799:Drivers/STM32F3xx_HAL_Driver/Src/stm32f3xx_hal_uart.c ****   {
 3778              		.loc 1 799 3 view .LVU1190
 793:Drivers/STM32F3xx_HAL_Driver/Src/stm32f3xx_hal_uart.c ****   uint16_t* tmp;
 3779              		.loc 1 793 1 is_stmt 0 view .LVU1191
 3780 0000 2DE9F043 		push	{r4, r5, r6, r7, r8, r9, lr}
 3781              	.LCFI43:
 3782              		.cfi_def_cfa_offset 28
 3783              		.cfi_offset 4, -28
 3784              		.cfi_offset 5, -24
 3785              		.cfi_offset 6, -20
 3786              		.cfi_offset 7, -16
 3787              		.cfi_offset 8, -12
 3788              		.cfi_offset 9, -8
 3789              		.cfi_offset 14, -4
 3790 0004 0E46     		mov	r6, r1
 799:Drivers/STM32F3xx_HAL_Driver/Src/stm32f3xx_hal_uart.c ****   {
 3791              		.loc 1 799 11 view .LVU1192
 3792 0006 90F86A10 		ldrb	r1, [r0, #106]	@ zero_extendqisi2
 3793              	.LVL225:
 799:Drivers/STM32F3xx_HAL_Driver/Src/stm32f3xx_hal_uart.c ****   {
 3794              		.loc 1 799 5 view .LVU1193
 3795 000a 2029     		cmp	r1, #32
 793:Drivers/STM32F3xx_HAL_Driver/Src/stm32f3xx_hal_uart.c ****   uint16_t* tmp;
 3796              		.loc 1 793 1 view .LVU1194
 3797 000c 83B0     		sub	sp, sp, #12
 3798              	.LCFI44:
 3799              		.cfi_def_cfa_offset 40
 799:Drivers/STM32F3xx_HAL_Driver/Src/stm32f3xx_hal_uart.c ****   {
 3800              		.loc 1 799 5 view .LVU1195
 3801 000e 4AD1     		bne	.L469
 801:Drivers/STM32F3xx_HAL_Driver/Src/stm32f3xx_hal_uart.c ****     {
 3802              		.loc 1 801 5 is_stmt 1 view .LVU1196
 801:Drivers/STM32F3xx_HAL_Driver/Src/stm32f3xx_hal_uart.c ****     {
 3803              		.loc 1 801 7 is_stmt 0 view .LVU1197
 3804 0010 002E     		cmp	r6, #0
 3805 0012 44D0     		beq	.L468
ARM GAS  /var/folders/8c/gyvcglfx7f97kbqb2h83mm_r0000gn/T//ccv1qdBn.s 			page 129


 3806 0014 1546     		mov	r5, r2
 801:Drivers/STM32F3xx_HAL_Driver/Src/stm32f3xx_hal_uart.c ****     {
 3807              		.loc 1 801 25 discriminator 1 view .LVU1198
 3808 0016 002A     		cmp	r2, #0
 3809 0018 41D0     		beq	.L468
 3810 001a 1F46     		mov	r7, r3
 807:Drivers/STM32F3xx_HAL_Driver/Src/stm32f3xx_hal_uart.c **** 
 3811              		.loc 1 807 5 is_stmt 1 view .LVU1199
 807:Drivers/STM32F3xx_HAL_Driver/Src/stm32f3xx_hal_uart.c **** 
 3812              		.loc 1 807 5 view .LVU1200
 3813 001c 90F86830 		ldrb	r3, [r0, #104]	@ zero_extendqisi2
 3814              	.LVL226:
 807:Drivers/STM32F3xx_HAL_Driver/Src/stm32f3xx_hal_uart.c **** 
 3815              		.loc 1 807 5 is_stmt 0 view .LVU1201
 3816 0020 012B     		cmp	r3, #1
 3817 0022 0446     		mov	r4, r0
 3818 0024 3FD0     		beq	.L469
 807:Drivers/STM32F3xx_HAL_Driver/Src/stm32f3xx_hal_uart.c **** 
 3819              		.loc 1 807 5 is_stmt 1 discriminator 2 view .LVU1202
 809:Drivers/STM32F3xx_HAL_Driver/Src/stm32f3xx_hal_uart.c ****     huart->RxState = HAL_UART_STATE_BUSY_RX;
 3820              		.loc 1 809 22 is_stmt 0 discriminator 2 view .LVU1203
 3821 0026 0023     		movs	r3, #0
 3822 0028 C366     		str	r3, [r0, #108]
 807:Drivers/STM32F3xx_HAL_Driver/Src/stm32f3xx_hal_uart.c **** 
 3823              		.loc 1 807 5 discriminator 2 view .LVU1204
 3824 002a 0122     		movs	r2, #1
 3825              	.LVL227:
 810:Drivers/STM32F3xx_HAL_Driver/Src/stm32f3xx_hal_uart.c **** 
 3826              		.loc 1 810 20 discriminator 2 view .LVU1205
 3827 002c 2223     		movs	r3, #34
 3828 002e 80F86A30 		strb	r3, [r0, #106]
 807:Drivers/STM32F3xx_HAL_Driver/Src/stm32f3xx_hal_uart.c **** 
 3829              		.loc 1 807 5 discriminator 2 view .LVU1206
 3830 0032 80F86820 		strb	r2, [r0, #104]
 809:Drivers/STM32F3xx_HAL_Driver/Src/stm32f3xx_hal_uart.c ****     huart->RxState = HAL_UART_STATE_BUSY_RX;
 3831              		.loc 1 809 5 is_stmt 1 discriminator 2 view .LVU1207
 810:Drivers/STM32F3xx_HAL_Driver/Src/stm32f3xx_hal_uart.c **** 
 3832              		.loc 1 810 5 discriminator 2 view .LVU1208
 813:Drivers/STM32F3xx_HAL_Driver/Src/stm32f3xx_hal_uart.c **** 
 3833              		.loc 1 813 5 discriminator 2 view .LVU1209
 813:Drivers/STM32F3xx_HAL_Driver/Src/stm32f3xx_hal_uart.c **** 
 3834              		.loc 1 813 17 is_stmt 0 discriminator 2 view .LVU1210
 3835 0036 FFF7FEFF 		bl	HAL_GetTick
 3836              	.LVL228:
 819:Drivers/STM32F3xx_HAL_Driver/Src/stm32f3xx_hal_uart.c ****     uhMask = huart->Mask;
 3837              		.loc 1 819 5 discriminator 2 view .LVU1211
 3838 003a A368     		ldr	r3, [r4, #8]
 815:Drivers/STM32F3xx_HAL_Driver/Src/stm32f3xx_hal_uart.c ****     huart->RxXferCount = Size;
 3839              		.loc 1 815 23 discriminator 2 view .LVU1212
 3840 003c A4F85850 		strh	r5, [r4, #88]	@ movhi
 819:Drivers/STM32F3xx_HAL_Driver/Src/stm32f3xx_hal_uart.c ****     uhMask = huart->Mask;
 3841              		.loc 1 819 5 discriminator 2 view .LVU1213
 3842 0040 B3F5805F 		cmp	r3, #4096
 813:Drivers/STM32F3xx_HAL_Driver/Src/stm32f3xx_hal_uart.c **** 
 3843              		.loc 1 813 17 discriminator 2 view .LVU1214
 3844 0044 8146     		mov	r9, r0
 3845              	.LVL229:
ARM GAS  /var/folders/8c/gyvcglfx7f97kbqb2h83mm_r0000gn/T//ccv1qdBn.s 			page 130


 815:Drivers/STM32F3xx_HAL_Driver/Src/stm32f3xx_hal_uart.c ****     huart->RxXferCount = Size;
 3846              		.loc 1 815 5 is_stmt 1 discriminator 2 view .LVU1215
 816:Drivers/STM32F3xx_HAL_Driver/Src/stm32f3xx_hal_uart.c **** 
 3847              		.loc 1 816 5 discriminator 2 view .LVU1216
 816:Drivers/STM32F3xx_HAL_Driver/Src/stm32f3xx_hal_uart.c **** 
 3848              		.loc 1 816 24 is_stmt 0 discriminator 2 view .LVU1217
 3849 0046 A4F85A50 		strh	r5, [r4, #90]	@ movhi
 819:Drivers/STM32F3xx_HAL_Driver/Src/stm32f3xx_hal_uart.c ****     uhMask = huart->Mask;
 3850              		.loc 1 819 5 is_stmt 1 discriminator 2 view .LVU1218
 819:Drivers/STM32F3xx_HAL_Driver/Src/stm32f3xx_hal_uart.c ****     uhMask = huart->Mask;
 3851              		.loc 1 819 5 discriminator 2 view .LVU1219
 3852 004a 30D0     		beq	.L478
 819:Drivers/STM32F3xx_HAL_Driver/Src/stm32f3xx_hal_uart.c ****     uhMask = huart->Mask;
 3853              		.loc 1 819 5 discriminator 2 view .LVU1220
 3854 004c 002B     		cmp	r3, #0
 3855 004e 50D1     		bne	.L459
 819:Drivers/STM32F3xx_HAL_Driver/Src/stm32f3xx_hal_uart.c ****     uhMask = huart->Mask;
 3856              		.loc 1 819 5 discriminator 5 view .LVU1221
 3857 0050 2369     		ldr	r3, [r4, #16]
 3858 0052 002B     		cmp	r3, #0
 3859 0054 33D1     		bne	.L461
 3860              	.L457:
 819:Drivers/STM32F3xx_HAL_Driver/Src/stm32f3xx_hal_uart.c ****     uhMask = huart->Mask;
 3861              		.loc 1 819 5 discriminator 4 view .LVU1222
 3862 0056 4FF0FF08 		mov	r8, #255
 3863 005a A4F85C80 		strh	r8, [r4, #92]	@ movhi
 3864              	.LVL230:
 3865              	.L462:
 825:Drivers/STM32F3xx_HAL_Driver/Src/stm32f3xx_hal_uart.c ****       if(UART_WaitOnFlagUntilTimeout(huart, UART_FLAG_RXNE, RESET, tickstart, Timeout) != HAL_OK)
 3866              		.loc 1 825 7 view .LVU1223
 823:Drivers/STM32F3xx_HAL_Driver/Src/stm32f3xx_hal_uart.c ****     {
 3867              		.loc 1 823 16 is_stmt 0 view .LVU1224
 3868 005e B4F85A50 		ldrh	r5, [r4, #90]
 3869 0062 ADB2     		uxth	r5, r5
 826:Drivers/STM32F3xx_HAL_Driver/Src/stm32f3xx_hal_uart.c ****       {
 3870              		.loc 1 826 10 view .LVU1225
 3871 0064 4B46     		mov	r3, r9
 3872 0066 0022     		movs	r2, #0
 3873 0068 2021     		movs	r1, #32
 3874 006a 2046     		mov	r0, r4
 823:Drivers/STM32F3xx_HAL_Driver/Src/stm32f3xx_hal_uart.c ****     {
 3875              		.loc 1 823 10 view .LVU1226
 3876 006c 002D     		cmp	r5, #0
 3877 006e 34D0     		beq	.L479
 3878              	.LVL231:
 825:Drivers/STM32F3xx_HAL_Driver/Src/stm32f3xx_hal_uart.c ****       if(UART_WaitOnFlagUntilTimeout(huart, UART_FLAG_RXNE, RESET, tickstart, Timeout) != HAL_OK)
 3879              		.loc 1 825 12 view .LVU1227
 3880 0070 B4F85A50 		ldrh	r5, [r4, #90]
 826:Drivers/STM32F3xx_HAL_Driver/Src/stm32f3xx_hal_uart.c ****       {
 3881              		.loc 1 826 10 view .LVU1228
 3882 0074 0097     		str	r7, [sp]
 825:Drivers/STM32F3xx_HAL_Driver/Src/stm32f3xx_hal_uart.c ****       if(UART_WaitOnFlagUntilTimeout(huart, UART_FLAG_RXNE, RESET, tickstart, Timeout) != HAL_OK)
 3883              		.loc 1 825 25 view .LVU1229
 3884 0076 013D     		subs	r5, r5, #1
 3885 0078 ADB2     		uxth	r5, r5
 3886 007a A4F85A50 		strh	r5, [r4, #90]	@ movhi
 826:Drivers/STM32F3xx_HAL_Driver/Src/stm32f3xx_hal_uart.c ****       {
ARM GAS  /var/folders/8c/gyvcglfx7f97kbqb2h83mm_r0000gn/T//ccv1qdBn.s 			page 131


 3887              		.loc 1 826 7 is_stmt 1 view .LVU1230
 826:Drivers/STM32F3xx_HAL_Driver/Src/stm32f3xx_hal_uart.c ****       {
 3888              		.loc 1 826 10 is_stmt 0 view .LVU1231
 3889 007e FFF7FEFF 		bl	UART_WaitOnFlagUntilTimeout
 3890              	.LVL232:
 830:Drivers/STM32F3xx_HAL_Driver/Src/stm32f3xx_hal_uart.c ****       {
 3891              		.loc 1 830 7 is_stmt 1 view .LVU1232
 838:Drivers/STM32F3xx_HAL_Driver/Src/stm32f3xx_hal_uart.c ****       }
 3892              		.loc 1 838 9 view .LVU1233
 838:Drivers/STM32F3xx_HAL_Driver/Src/stm32f3xx_hal_uart.c ****       }
 3893              		.loc 1 838 15 is_stmt 0 view .LVU1234
 3894 0082 3346     		mov	r3, r6
 826:Drivers/STM32F3xx_HAL_Driver/Src/stm32f3xx_hal_uart.c ****       {
 3895              		.loc 1 826 9 view .LVU1235
 3896 0084 88BB     		cbnz	r0, .L470
 830:Drivers/STM32F3xx_HAL_Driver/Src/stm32f3xx_hal_uart.c ****       {
 3897              		.loc 1 830 10 view .LVU1236
 3898 0086 A268     		ldr	r2, [r4, #8]
 3899 0088 2168     		ldr	r1, [r4]
 3900 008a B2F5805F 		cmp	r2, #4096
 3901 008e 1BD0     		beq	.L480
 3902              	.L463:
 838:Drivers/STM32F3xx_HAL_Driver/Src/stm32f3xx_hal_uart.c ****       }
 3903              		.loc 1 838 45 view .LVU1237
 3904 0090 8A8C     		ldrh	r2, [r1, #36]
 838:Drivers/STM32F3xx_HAL_Driver/Src/stm32f3xx_hal_uart.c ****       }
 3905              		.loc 1 838 20 view .LVU1238
 3906 0092 08EA0202 		and	r2, r8, r2
 838:Drivers/STM32F3xx_HAL_Driver/Src/stm32f3xx_hal_uart.c ****       }
 3907              		.loc 1 838 18 view .LVU1239
 3908 0096 03F8012B 		strb	r2, [r3], #1
 838:Drivers/STM32F3xx_HAL_Driver/Src/stm32f3xx_hal_uart.c ****       }
 3909              		.loc 1 838 15 view .LVU1240
 3910 009a 1E46     		mov	r6, r3
 3911              	.LVL233:
 838:Drivers/STM32F3xx_HAL_Driver/Src/stm32f3xx_hal_uart.c ****       }
 3912              		.loc 1 838 15 view .LVU1241
 3913 009c DFE7     		b	.L462
 3914              	.LVL234:
 3915              	.L468:
 803:Drivers/STM32F3xx_HAL_Driver/Src/stm32f3xx_hal_uart.c ****     }
 3916              		.loc 1 803 15 view .LVU1242
 3917 009e 0120     		movs	r0, #1
 3918              	.LVL235:
 854:Drivers/STM32F3xx_HAL_Driver/Src/stm32f3xx_hal_uart.c **** 
 3919              		.loc 1 854 1 view .LVU1243
 3920 00a0 03B0     		add	sp, sp, #12
 3921              	.LCFI45:
 3922              		.cfi_remember_state
 3923              		.cfi_def_cfa_offset 28
 3924              		@ sp needed
 3925 00a2 BDE8F083 		pop	{r4, r5, r6, r7, r8, r9, pc}
 3926              	.LVL236:
 3927              	.L469:
 3928              	.LCFI46:
 3929              		.cfi_restore_state
 852:Drivers/STM32F3xx_HAL_Driver/Src/stm32f3xx_hal_uart.c ****   }
ARM GAS  /var/folders/8c/gyvcglfx7f97kbqb2h83mm_r0000gn/T//ccv1qdBn.s 			page 132


 3930              		.loc 1 852 12 view .LVU1244
 3931 00a6 0220     		movs	r0, #2
 3932              	.LVL237:
 854:Drivers/STM32F3xx_HAL_Driver/Src/stm32f3xx_hal_uart.c **** 
 3933              		.loc 1 854 1 view .LVU1245
 3934 00a8 03B0     		add	sp, sp, #12
 3935              	.LCFI47:
 3936              		.cfi_remember_state
 3937              		.cfi_def_cfa_offset 28
 3938              		@ sp needed
 3939 00aa BDE8F083 		pop	{r4, r5, r6, r7, r8, r9, pc}
 3940              	.LVL238:
 3941              	.L478:
 3942              	.LCFI48:
 3943              		.cfi_restore_state
 819:Drivers/STM32F3xx_HAL_Driver/Src/stm32f3xx_hal_uart.c ****     uhMask = huart->Mask;
 3944              		.loc 1 819 5 is_stmt 1 discriminator 1 view .LVU1246
 3945 00ae 2369     		ldr	r3, [r4, #16]
 3946 00b0 002B     		cmp	r3, #0
 3947 00b2 D0D1     		bne	.L457
 819:Drivers/STM32F3xx_HAL_Driver/Src/stm32f3xx_hal_uart.c ****     uhMask = huart->Mask;
 3948              		.loc 1 819 5 discriminator 3 view .LVU1247
 3949 00b4 40F2FF18 		movw	r8, #511
 3950 00b8 A4F85C80 		strh	r8, [r4, #92]	@ movhi
 3951 00bc CFE7     		b	.L462
 3952              	.L461:
 819:Drivers/STM32F3xx_HAL_Driver/Src/stm32f3xx_hal_uart.c ****     uhMask = huart->Mask;
 3953              		.loc 1 819 5 discriminator 8 view .LVU1248
 3954 00be 4FF07F08 		mov	r8, #127
 3955 00c2 A4F85C80 		strh	r8, [r4, #92]	@ movhi
 3956 00c6 CAE7     		b	.L462
 3957              	.LVL239:
 3958              	.L480:
 832:Drivers/STM32F3xx_HAL_Driver/Src/stm32f3xx_hal_uart.c ****         *tmp = (uint16_t)(huart->Instance->RDR & uhMask);
 3959              		.loc 1 832 9 discriminator 1 view .LVU1249
 833:Drivers/STM32F3xx_HAL_Driver/Src/stm32f3xx_hal_uart.c ****         pData +=2U;
 3960              		.loc 1 833 9 discriminator 1 view .LVU1250
 830:Drivers/STM32F3xx_HAL_Driver/Src/stm32f3xx_hal_uart.c ****       {
 3961              		.loc 1 830 58 is_stmt 0 discriminator 1 view .LVU1251
 3962 00c8 2269     		ldr	r2, [r4, #16]
 3963 00ca 002A     		cmp	r2, #0
 3964 00cc E0D1     		bne	.L463
 833:Drivers/STM32F3xx_HAL_Driver/Src/stm32f3xx_hal_uart.c ****         pData +=2U;
 3965              		.loc 1 833 42 view .LVU1252
 3966 00ce 8B8C     		ldrh	r3, [r1, #36]
 3967              	.LVL240:
 833:Drivers/STM32F3xx_HAL_Driver/Src/stm32f3xx_hal_uart.c ****         pData +=2U;
 3968              		.loc 1 833 16 view .LVU1253
 3969 00d0 08EA0303 		and	r3, r8, r3
 833:Drivers/STM32F3xx_HAL_Driver/Src/stm32f3xx_hal_uart.c ****         pData +=2U;
 3970              		.loc 1 833 14 view .LVU1254
 3971 00d4 26F8023B 		strh	r3, [r6], #2	@ movhi
 3972              	.LVL241:
 834:Drivers/STM32F3xx_HAL_Driver/Src/stm32f3xx_hal_uart.c ****       }
 3973              		.loc 1 834 9 is_stmt 1 view .LVU1255
 834:Drivers/STM32F3xx_HAL_Driver/Src/stm32f3xx_hal_uart.c ****       }
 3974              		.loc 1 834 15 is_stmt 0 view .LVU1256
ARM GAS  /var/folders/8c/gyvcglfx7f97kbqb2h83mm_r0000gn/T//ccv1qdBn.s 			page 133


 3975 00d8 C1E7     		b	.L462
 3976              	.LVL242:
 3977              	.L479:
 843:Drivers/STM32F3xx_HAL_Driver/Src/stm32f3xx_hal_uart.c **** 
 3978              		.loc 1 843 5 is_stmt 1 view .LVU1257
 848:Drivers/STM32F3xx_HAL_Driver/Src/stm32f3xx_hal_uart.c ****   }
 3979              		.loc 1 848 12 is_stmt 0 view .LVU1258
 3980 00da 2846     		mov	r0, r5
 3981              	.LVL243:
 846:Drivers/STM32F3xx_HAL_Driver/Src/stm32f3xx_hal_uart.c **** 
 3982              		.loc 1 846 5 view .LVU1259
 3983 00dc 84F86850 		strb	r5, [r4, #104]
 843:Drivers/STM32F3xx_HAL_Driver/Src/stm32f3xx_hal_uart.c **** 
 3984              		.loc 1 843 20 view .LVU1260
 3985 00e0 84F86A10 		strb	r1, [r4, #106]
 846:Drivers/STM32F3xx_HAL_Driver/Src/stm32f3xx_hal_uart.c **** 
 3986              		.loc 1 846 5 is_stmt 1 view .LVU1261
 846:Drivers/STM32F3xx_HAL_Driver/Src/stm32f3xx_hal_uart.c **** 
 3987              		.loc 1 846 5 view .LVU1262
 848:Drivers/STM32F3xx_HAL_Driver/Src/stm32f3xx_hal_uart.c ****   }
 3988              		.loc 1 848 5 view .LVU1263
 854:Drivers/STM32F3xx_HAL_Driver/Src/stm32f3xx_hal_uart.c **** 
 3989              		.loc 1 854 1 is_stmt 0 view .LVU1264
 3990 00e4 03B0     		add	sp, sp, #12
 3991              	.LCFI49:
 3992              		.cfi_remember_state
 3993              		.cfi_def_cfa_offset 28
 3994              		@ sp needed
 3995 00e6 BDE8F083 		pop	{r4, r5, r6, r7, r8, r9, pc}
 3996              	.LVL244:
 3997              	.L470:
 3998              	.LCFI50:
 3999              		.cfi_restore_state
 828:Drivers/STM32F3xx_HAL_Driver/Src/stm32f3xx_hal_uart.c ****       }
 4000              		.loc 1 828 16 view .LVU1265
 4001 00ea 0320     		movs	r0, #3
 854:Drivers/STM32F3xx_HAL_Driver/Src/stm32f3xx_hal_uart.c **** 
 4002              		.loc 1 854 1 view .LVU1266
 4003 00ec 03B0     		add	sp, sp, #12
 4004              	.LCFI51:
 4005              		.cfi_remember_state
 4006              		.cfi_def_cfa_offset 28
 4007              		@ sp needed
 4008 00ee BDE8F083 		pop	{r4, r5, r6, r7, r8, r9, pc}
 4009              	.LVL245:
 4010              	.L459:
 4011              	.LCFI52:
 4012              		.cfi_restore_state
 819:Drivers/STM32F3xx_HAL_Driver/Src/stm32f3xx_hal_uart.c ****     uhMask = huart->Mask;
 4013              		.loc 1 819 5 is_stmt 1 discriminator 6 view .LVU1267
 4014 00f2 B3F1805F 		cmp	r3, #268435456
 4015 00f6 02D0     		beq	.L460
 4016 00f8 B4F85C80 		ldrh	r8, [r4, #92]
 4017 00fc AFE7     		b	.L462
 4018              	.L460:
 819:Drivers/STM32F3xx_HAL_Driver/Src/stm32f3xx_hal_uart.c ****     uhMask = huart->Mask;
 4019              		.loc 1 819 5 discriminator 9 view .LVU1268
ARM GAS  /var/folders/8c/gyvcglfx7f97kbqb2h83mm_r0000gn/T//ccv1qdBn.s 			page 134


 4020 00fe 2369     		ldr	r3, [r4, #16]
 4021 0100 002B     		cmp	r3, #0
 4022 0102 DCD0     		beq	.L461
 819:Drivers/STM32F3xx_HAL_Driver/Src/stm32f3xx_hal_uart.c ****     uhMask = huart->Mask;
 4023              		.loc 1 819 5 discriminator 11 view .LVU1269
 4024 0104 4FF03F08 		mov	r8, #63
 4025 0108 A4F85C80 		strh	r8, [r4, #92]	@ movhi
 820:Drivers/STM32F3xx_HAL_Driver/Src/stm32f3xx_hal_uart.c **** 
 4026              		.loc 1 820 5 discriminator 11 view .LVU1270
 4027              	.LVL246:
 823:Drivers/STM32F3xx_HAL_Driver/Src/stm32f3xx_hal_uart.c ****     {
 4028              		.loc 1 823 5 discriminator 11 view .LVU1271
 823:Drivers/STM32F3xx_HAL_Driver/Src/stm32f3xx_hal_uart.c ****     {
 4029              		.loc 1 823 10 is_stmt 0 discriminator 11 view .LVU1272
 4030 010c A7E7     		b	.L462
 4031              		.cfi_endproc
 4032              	.LFE134:
 4034 010e 00BF     		.section	.text.UART_CheckIdleState,"ax",%progbits
 4035              		.align	1
 4036              		.p2align 2,,3
 4037              		.global	UART_CheckIdleState
 4038              		.syntax unified
 4039              		.thumb
 4040              		.thumb_func
 4041              		.fpu fpv4-sp-d16
 4043              	UART_CheckIdleState:
 4044              	.LVL247:
 4045              	.LFB167:
2282:Drivers/STM32F3xx_HAL_Driver/Src/stm32f3xx_hal_uart.c ****   uint32_t tickstart = 0U;
 4046              		.loc 1 2282 1 is_stmt 1 view -0
 4047              		.cfi_startproc
 4048              		@ args = 0, pretend = 0, frame = 0
 4049              		@ frame_needed = 0, uses_anonymous_args = 0
2283:Drivers/STM32F3xx_HAL_Driver/Src/stm32f3xx_hal_uart.c **** 
 4050              		.loc 1 2283 3 view .LVU1274
2286:Drivers/STM32F3xx_HAL_Driver/Src/stm32f3xx_hal_uart.c **** 
 4051              		.loc 1 2286 3 view .LVU1275
2282:Drivers/STM32F3xx_HAL_Driver/Src/stm32f3xx_hal_uart.c ****   uint32_t tickstart = 0U;
 4052              		.loc 1 2282 1 is_stmt 0 view .LVU1276
 4053 0000 70B5     		push	{r4, r5, r6, lr}
 4054              	.LCFI53:
 4055              		.cfi_def_cfa_offset 16
 4056              		.cfi_offset 4, -16
 4057              		.cfi_offset 5, -12
 4058              		.cfi_offset 6, -8
 4059              		.cfi_offset 14, -4
 4060 0002 0446     		mov	r4, r0
2286:Drivers/STM32F3xx_HAL_Driver/Src/stm32f3xx_hal_uart.c **** 
 4061              		.loc 1 2286 20 view .LVU1277
 4062 0004 0025     		movs	r5, #0
2282:Drivers/STM32F3xx_HAL_Driver/Src/stm32f3xx_hal_uart.c ****   uint32_t tickstart = 0U;
 4063              		.loc 1 2282 1 view .LVU1278
 4064 0006 82B0     		sub	sp, sp, #8
 4065              	.LCFI54:
 4066              		.cfi_def_cfa_offset 24
2286:Drivers/STM32F3xx_HAL_Driver/Src/stm32f3xx_hal_uart.c **** 
 4067              		.loc 1 2286 20 view .LVU1279
ARM GAS  /var/folders/8c/gyvcglfx7f97kbqb2h83mm_r0000gn/T//ccv1qdBn.s 			page 135


 4068 0008 C566     		str	r5, [r0, #108]
2289:Drivers/STM32F3xx_HAL_Driver/Src/stm32f3xx_hal_uart.c **** 
 4069              		.loc 1 2289 3 is_stmt 1 view .LVU1280
2289:Drivers/STM32F3xx_HAL_Driver/Src/stm32f3xx_hal_uart.c **** 
 4070              		.loc 1 2289 15 is_stmt 0 view .LVU1281
 4071 000a FFF7FEFF 		bl	HAL_GetTick
 4072              	.LVL248:
2292:Drivers/STM32F3xx_HAL_Driver/Src/stm32f3xx_hal_uart.c ****   {
 4073              		.loc 1 2292 12 view .LVU1282
 4074 000e 2368     		ldr	r3, [r4]
2292:Drivers/STM32F3xx_HAL_Driver/Src/stm32f3xx_hal_uart.c ****   {
 4075              		.loc 1 2292 22 view .LVU1283
 4076 0010 1A68     		ldr	r2, [r3]
2292:Drivers/STM32F3xx_HAL_Driver/Src/stm32f3xx_hal_uart.c ****   {
 4077              		.loc 1 2292 5 view .LVU1284
 4078 0012 1207     		lsls	r2, r2, #28
2289:Drivers/STM32F3xx_HAL_Driver/Src/stm32f3xx_hal_uart.c **** 
 4079              		.loc 1 2289 15 view .LVU1285
 4080 0014 0646     		mov	r6, r0
 4081              	.LVL249:
2292:Drivers/STM32F3xx_HAL_Driver/Src/stm32f3xx_hal_uart.c ****   {
 4082              		.loc 1 2292 3 is_stmt 1 view .LVU1286
2292:Drivers/STM32F3xx_HAL_Driver/Src/stm32f3xx_hal_uart.c ****   {
 4083              		.loc 1 2292 5 is_stmt 0 view .LVU1287
 4084 0016 0CD4     		bmi	.L492
2302:Drivers/STM32F3xx_HAL_Driver/Src/stm32f3xx_hal_uart.c ****   {
 4085              		.loc 1 2302 3 is_stmt 1 view .LVU1288
2302:Drivers/STM32F3xx_HAL_Driver/Src/stm32f3xx_hal_uart.c ****   {
 4086              		.loc 1 2302 22 is_stmt 0 view .LVU1289
 4087 0018 1B68     		ldr	r3, [r3]
2302:Drivers/STM32F3xx_HAL_Driver/Src/stm32f3xx_hal_uart.c ****   {
 4088              		.loc 1 2302 5 view .LVU1290
 4089 001a 5B07     		lsls	r3, r3, #29
 4090 001c 18D4     		bmi	.L485
 4091              	.LVL250:
 4092              	.L487:
2313:Drivers/STM32F3xx_HAL_Driver/Src/stm32f3xx_hal_uart.c ****   huart->RxState = HAL_UART_STATE_READY;
 4093              		.loc 1 2313 3 is_stmt 1 view .LVU1291
2313:Drivers/STM32F3xx_HAL_Driver/Src/stm32f3xx_hal_uart.c ****   huart->RxState = HAL_UART_STATE_READY;
 4094              		.loc 1 2313 18 is_stmt 0 view .LVU1292
 4095 001e 2023     		movs	r3, #32
2317:Drivers/STM32F3xx_HAL_Driver/Src/stm32f3xx_hal_uart.c **** 
 4096              		.loc 1 2317 3 view .LVU1293
 4097 0020 0020     		movs	r0, #0
2313:Drivers/STM32F3xx_HAL_Driver/Src/stm32f3xx_hal_uart.c ****   huart->RxState = HAL_UART_STATE_READY;
 4098              		.loc 1 2313 18 view .LVU1294
 4099 0022 84F86930 		strb	r3, [r4, #105]
2314:Drivers/STM32F3xx_HAL_Driver/Src/stm32f3xx_hal_uart.c **** 
 4100              		.loc 1 2314 3 is_stmt 1 view .LVU1295
2317:Drivers/STM32F3xx_HAL_Driver/Src/stm32f3xx_hal_uart.c **** 
 4101              		.loc 1 2317 3 is_stmt 0 view .LVU1296
 4102 0026 84F86800 		strb	r0, [r4, #104]
2314:Drivers/STM32F3xx_HAL_Driver/Src/stm32f3xx_hal_uart.c **** 
 4103              		.loc 1 2314 18 view .LVU1297
 4104 002a 84F86A30 		strb	r3, [r4, #106]
2317:Drivers/STM32F3xx_HAL_Driver/Src/stm32f3xx_hal_uart.c **** 
 4105              		.loc 1 2317 3 is_stmt 1 view .LVU1298
ARM GAS  /var/folders/8c/gyvcglfx7f97kbqb2h83mm_r0000gn/T//ccv1qdBn.s 			page 136


2317:Drivers/STM32F3xx_HAL_Driver/Src/stm32f3xx_hal_uart.c **** 
 4106              		.loc 1 2317 3 view .LVU1299
2319:Drivers/STM32F3xx_HAL_Driver/Src/stm32f3xx_hal_uart.c **** }
 4107              		.loc 1 2319 3 view .LVU1300
2320:Drivers/STM32F3xx_HAL_Driver/Src/stm32f3xx_hal_uart.c **** 
 4108              		.loc 1 2320 1 is_stmt 0 view .LVU1301
 4109 002e 02B0     		add	sp, sp, #8
 4110              	.LCFI55:
 4111              		.cfi_remember_state
 4112              		.cfi_def_cfa_offset 16
 4113              		@ sp needed
 4114 0030 70BD     		pop	{r4, r5, r6, pc}
 4115              	.LVL251:
 4116              	.L492:
 4117              	.LCFI56:
 4118              		.cfi_restore_state
2295:Drivers/STM32F3xx_HAL_Driver/Src/stm32f3xx_hal_uart.c ****     {
 4119              		.loc 1 2295 5 is_stmt 1 view .LVU1302
2295:Drivers/STM32F3xx_HAL_Driver/Src/stm32f3xx_hal_uart.c ****     {
 4120              		.loc 1 2295 8 is_stmt 0 view .LVU1303
 4121 0032 6FF07E43 		mvn	r3, #-33554432
 4122 0036 0093     		str	r3, [sp]
 4123 0038 2A46     		mov	r2, r5
 4124 003a 0346     		mov	r3, r0
 4125 003c 4FF40011 		mov	r1, #2097152
 4126 0040 2046     		mov	r0, r4
 4127              	.LVL252:
2295:Drivers/STM32F3xx_HAL_Driver/Src/stm32f3xx_hal_uart.c ****     {
 4128              		.loc 1 2295 8 view .LVU1304
 4129 0042 FFF7FEFF 		bl	UART_WaitOnFlagUntilTimeout
 4130              	.LVL253:
2295:Drivers/STM32F3xx_HAL_Driver/Src/stm32f3xx_hal_uart.c ****     {
 4131              		.loc 1 2295 7 view .LVU1305
 4132 0046 78B9     		cbnz	r0, .L486
 4133 0048 2368     		ldr	r3, [r4]
2302:Drivers/STM32F3xx_HAL_Driver/Src/stm32f3xx_hal_uart.c ****   {
 4134              		.loc 1 2302 3 is_stmt 1 view .LVU1306
2302:Drivers/STM32F3xx_HAL_Driver/Src/stm32f3xx_hal_uart.c ****   {
 4135              		.loc 1 2302 22 is_stmt 0 view .LVU1307
 4136 004a 1B68     		ldr	r3, [r3]
2302:Drivers/STM32F3xx_HAL_Driver/Src/stm32f3xx_hal_uart.c ****   {
 4137              		.loc 1 2302 5 view .LVU1308
 4138 004c 5B07     		lsls	r3, r3, #29
 4139 004e E6D5     		bpl	.L487
 4140              	.L485:
2305:Drivers/STM32F3xx_HAL_Driver/Src/stm32f3xx_hal_uart.c ****     {
 4141              		.loc 1 2305 5 is_stmt 1 view .LVU1309
2305:Drivers/STM32F3xx_HAL_Driver/Src/stm32f3xx_hal_uart.c ****     {
 4142              		.loc 1 2305 8 is_stmt 0 view .LVU1310
 4143 0050 6FF07E42 		mvn	r2, #-33554432
 4144 0054 0092     		str	r2, [sp]
 4145 0056 3346     		mov	r3, r6
 4146 0058 0022     		movs	r2, #0
 4147 005a 4FF48001 		mov	r1, #4194304
 4148 005e 2046     		mov	r0, r4
 4149 0060 FFF7FEFF 		bl	UART_WaitOnFlagUntilTimeout
 4150              	.LVL254:
ARM GAS  /var/folders/8c/gyvcglfx7f97kbqb2h83mm_r0000gn/T//ccv1qdBn.s 			page 137


2305:Drivers/STM32F3xx_HAL_Driver/Src/stm32f3xx_hal_uart.c ****     {
 4151              		.loc 1 2305 7 view .LVU1311
 4152 0064 0028     		cmp	r0, #0
 4153 0066 DAD0     		beq	.L487
 4154              	.L486:
2298:Drivers/STM32F3xx_HAL_Driver/Src/stm32f3xx_hal_uart.c ****     }
 4155              		.loc 1 2298 14 view .LVU1312
 4156 0068 0320     		movs	r0, #3
2320:Drivers/STM32F3xx_HAL_Driver/Src/stm32f3xx_hal_uart.c **** 
 4157              		.loc 1 2320 1 view .LVU1313
 4158 006a 02B0     		add	sp, sp, #8
 4159              	.LCFI57:
 4160              		.cfi_def_cfa_offset 16
 4161              		@ sp needed
 4162 006c 70BD     		pop	{r4, r5, r6, pc}
2320:Drivers/STM32F3xx_HAL_Driver/Src/stm32f3xx_hal_uart.c **** 
 4163              		.loc 1 2320 1 view .LVU1314
 4164              		.cfi_endproc
 4165              	.LFE167:
 4167 006e 00BF     		.section	.text.HAL_UART_Init,"ax",%progbits
 4168              		.align	1
 4169              		.p2align 2,,3
 4170              		.global	HAL_UART_Init
 4171              		.syntax unified
 4172              		.thumb
 4173              		.thumb_func
 4174              		.fpu fpv4-sp-d16
 4176              	HAL_UART_Init:
 4177              	.LVL255:
 4178              	.LFB126:
 295:Drivers/STM32F3xx_HAL_Driver/Src/stm32f3xx_hal_uart.c ****   /* Check the UART handle allocation */
 4179              		.loc 1 295 1 is_stmt 1 view -0
 4180              		.cfi_startproc
 4181              		@ args = 0, pretend = 0, frame = 0
 4182              		@ frame_needed = 0, uses_anonymous_args = 0
 297:Drivers/STM32F3xx_HAL_Driver/Src/stm32f3xx_hal_uart.c ****   {
 4183              		.loc 1 297 3 view .LVU1316
 297:Drivers/STM32F3xx_HAL_Driver/Src/stm32f3xx_hal_uart.c ****   {
 4184              		.loc 1 297 5 is_stmt 0 view .LVU1317
 4185 0000 90B3     		cbz	r0, .L506
 302:Drivers/STM32F3xx_HAL_Driver/Src/stm32f3xx_hal_uart.c ****   {
 4186              		.loc 1 302 3 is_stmt 1 view .LVU1318
 310:Drivers/STM32F3xx_HAL_Driver/Src/stm32f3xx_hal_uart.c ****   }
 4187              		.loc 1 310 5 view .LVU1319
 313:Drivers/STM32F3xx_HAL_Driver/Src/stm32f3xx_hal_uart.c ****   {
 4188              		.loc 1 313 3 view .LVU1320
 313:Drivers/STM32F3xx_HAL_Driver/Src/stm32f3xx_hal_uart.c ****   {
 4189              		.loc 1 313 11 is_stmt 0 view .LVU1321
 4190 0002 90F86930 		ldrb	r3, [r0, #105]	@ zero_extendqisi2
 295:Drivers/STM32F3xx_HAL_Driver/Src/stm32f3xx_hal_uart.c ****   /* Check the UART handle allocation */
 4191              		.loc 1 295 1 view .LVU1322
 4192 0006 10B5     		push	{r4, lr}
 4193              	.LCFI58:
 4194              		.cfi_def_cfa_offset 8
 4195              		.cfi_offset 4, -8
 4196              		.cfi_offset 14, -4
 313:Drivers/STM32F3xx_HAL_Driver/Src/stm32f3xx_hal_uart.c ****   {
ARM GAS  /var/folders/8c/gyvcglfx7f97kbqb2h83mm_r0000gn/T//ccv1qdBn.s 			page 138


 4197              		.loc 1 313 5 view .LVU1323
 4198 0008 03F0FF02 		and	r2, r3, #255
 4199 000c 0446     		mov	r4, r0
 4200 000e 33B3     		cbz	r3, .L509
 4201              	.LVL256:
 4202              	.L496:
 322:Drivers/STM32F3xx_HAL_Driver/Src/stm32f3xx_hal_uart.c **** 
 4203              		.loc 1 322 3 is_stmt 1 view .LVU1324
 325:Drivers/STM32F3xx_HAL_Driver/Src/stm32f3xx_hal_uart.c **** 
 4204              		.loc 1 325 3 is_stmt 0 view .LVU1325
 4205 0010 2268     		ldr	r2, [r4]
 322:Drivers/STM32F3xx_HAL_Driver/Src/stm32f3xx_hal_uart.c **** 
 4206              		.loc 1 322 17 view .LVU1326
 4207 0012 2423     		movs	r3, #36
 4208 0014 84F86930 		strb	r3, [r4, #105]
 325:Drivers/STM32F3xx_HAL_Driver/Src/stm32f3xx_hal_uart.c **** 
 4209              		.loc 1 325 3 is_stmt 1 view .LVU1327
 4210 0018 1368     		ldr	r3, [r2]
 4211 001a 23F00103 		bic	r3, r3, #1
 4212 001e 1360     		str	r3, [r2]
 328:Drivers/STM32F3xx_HAL_Driver/Src/stm32f3xx_hal_uart.c ****   {
 4213              		.loc 1 328 3 view .LVU1328
 328:Drivers/STM32F3xx_HAL_Driver/Src/stm32f3xx_hal_uart.c ****   {
 4214              		.loc 1 328 7 is_stmt 0 view .LVU1329
 4215 0020 2046     		mov	r0, r4
 4216 0022 FFF7FEFF 		bl	UART_SetConfig
 4217              	.LVL257:
 328:Drivers/STM32F3xx_HAL_Driver/Src/stm32f3xx_hal_uart.c ****   {
 4218              		.loc 1 328 6 view .LVU1330
 4219 0026 0128     		cmp	r0, #1
 4220 0028 17D0     		beq	.L495
 333:Drivers/STM32F3xx_HAL_Driver/Src/stm32f3xx_hal_uart.c ****   {
 4221              		.loc 1 333 3 is_stmt 1 view .LVU1331
 333:Drivers/STM32F3xx_HAL_Driver/Src/stm32f3xx_hal_uart.c ****   {
 4222              		.loc 1 333 6 is_stmt 0 view .LVU1332
 4223 002a 636A     		ldr	r3, [r4, #36]
 4224 002c 8BB9     		cbnz	r3, .L510
 4225              	.L498:
 341:Drivers/STM32F3xx_HAL_Driver/Src/stm32f3xx_hal_uart.c ****   CLEAR_BIT(huart->Instance->CR3, (USART_CR3_SCEN | USART_CR3_HDSEL | USART_CR3_IREN));
 4226              		.loc 1 341 3 is_stmt 1 view .LVU1333
 4227 002e 2368     		ldr	r3, [r4]
 4228 0030 5A68     		ldr	r2, [r3, #4]
 4229 0032 22F49042 		bic	r2, r2, #18432
 4230 0036 5A60     		str	r2, [r3, #4]
 342:Drivers/STM32F3xx_HAL_Driver/Src/stm32f3xx_hal_uart.c **** 
 4231              		.loc 1 342 3 view .LVU1334
 4232 0038 9A68     		ldr	r2, [r3, #8]
 4233 003a 22F02A02 		bic	r2, r2, #42
 4234 003e 9A60     		str	r2, [r3, #8]
 345:Drivers/STM32F3xx_HAL_Driver/Src/stm32f3xx_hal_uart.c **** 
 4235              		.loc 1 345 3 view .LVU1335
 4236 0040 1A68     		ldr	r2, [r3]
 4237 0042 42F00102 		orr	r2, r2, #1
 348:Drivers/STM32F3xx_HAL_Driver/Src/stm32f3xx_hal_uart.c **** }
 4238              		.loc 1 348 11 is_stmt 0 view .LVU1336
 4239 0046 2046     		mov	r0, r4
 345:Drivers/STM32F3xx_HAL_Driver/Src/stm32f3xx_hal_uart.c **** 
ARM GAS  /var/folders/8c/gyvcglfx7f97kbqb2h83mm_r0000gn/T//ccv1qdBn.s 			page 139


 4240              		.loc 1 345 3 view .LVU1337
 4241 0048 1A60     		str	r2, [r3]
 348:Drivers/STM32F3xx_HAL_Driver/Src/stm32f3xx_hal_uart.c **** }
 4242              		.loc 1 348 3 is_stmt 1 view .LVU1338
 349:Drivers/STM32F3xx_HAL_Driver/Src/stm32f3xx_hal_uart.c **** 
 4243              		.loc 1 349 1 is_stmt 0 view .LVU1339
 4244 004a BDE81040 		pop	{r4, lr}
 4245              	.LCFI59:
 4246              		.cfi_remember_state
 4247              		.cfi_restore 14
 4248              		.cfi_restore 4
 4249              		.cfi_def_cfa_offset 0
 4250              	.LVL258:
 348:Drivers/STM32F3xx_HAL_Driver/Src/stm32f3xx_hal_uart.c **** }
 4251              		.loc 1 348 11 view .LVU1340
 4252 004e FFF7FEBF 		b	UART_CheckIdleState
 4253              	.LVL259:
 4254              	.L510:
 4255              	.LCFI60:
 4256              		.cfi_restore_state
 335:Drivers/STM32F3xx_HAL_Driver/Src/stm32f3xx_hal_uart.c ****   }
 4257              		.loc 1 335 5 is_stmt 1 view .LVU1341
 4258 0052 2046     		mov	r0, r4
 4259 0054 FFF7FEFF 		bl	UART_AdvFeatureConfig
 4260              	.LVL260:
 4261 0058 E9E7     		b	.L498
 4262              	.L495:
 349:Drivers/STM32F3xx_HAL_Driver/Src/stm32f3xx_hal_uart.c **** 
 4263              		.loc 1 349 1 is_stmt 0 view .LVU1342
 4264 005a 0120     		movs	r0, #1
 4265 005c 10BD     		pop	{r4, pc}
 4266              	.LVL261:
 4267              	.L509:
 316:Drivers/STM32F3xx_HAL_Driver/Src/stm32f3xx_hal_uart.c **** 
 4268              		.loc 1 316 5 is_stmt 1 view .LVU1343
 316:Drivers/STM32F3xx_HAL_Driver/Src/stm32f3xx_hal_uart.c **** 
 4269              		.loc 1 316 17 is_stmt 0 view .LVU1344
 4270 005e 80F86820 		strb	r2, [r0, #104]
 319:Drivers/STM32F3xx_HAL_Driver/Src/stm32f3xx_hal_uart.c ****   }
 4271              		.loc 1 319 5 is_stmt 1 view .LVU1345
 4272 0062 FFF7FEFF 		bl	HAL_UART_MspInit
 4273              	.LVL262:
 319:Drivers/STM32F3xx_HAL_Driver/Src/stm32f3xx_hal_uart.c ****   }
 4274              		.loc 1 319 5 is_stmt 0 view .LVU1346
 4275 0066 D3E7     		b	.L496
 4276              	.LVL263:
 4277              	.L506:
 4278              	.LCFI61:
 4279              		.cfi_def_cfa_offset 0
 4280              		.cfi_restore 4
 4281              		.cfi_restore 14
 349:Drivers/STM32F3xx_HAL_Driver/Src/stm32f3xx_hal_uart.c **** 
 4282              		.loc 1 349 1 view .LVU1347
 4283 0068 0120     		movs	r0, #1
 4284              	.LVL264:
 349:Drivers/STM32F3xx_HAL_Driver/Src/stm32f3xx_hal_uart.c **** 
 4285              		.loc 1 349 1 view .LVU1348
ARM GAS  /var/folders/8c/gyvcglfx7f97kbqb2h83mm_r0000gn/T//ccv1qdBn.s 			page 140


 4286 006a 7047     		bx	lr
 4287              		.cfi_endproc
 4288              	.LFE126:
 4290              		.section	.text.HAL_HalfDuplex_Init,"ax",%progbits
 4291              		.align	1
 4292              		.p2align 2,,3
 4293              		.global	HAL_HalfDuplex_Init
 4294              		.syntax unified
 4295              		.thumb
 4296              		.thumb_func
 4297              		.fpu fpv4-sp-d16
 4299              	HAL_HalfDuplex_Init:
 4300              	.LVL265:
 4301              	.LFB127:
 358:Drivers/STM32F3xx_HAL_Driver/Src/stm32f3xx_hal_uart.c ****   /* Check the UART handle allocation */
 4302              		.loc 1 358 1 is_stmt 1 view -0
 4303              		.cfi_startproc
 4304              		@ args = 0, pretend = 0, frame = 0
 4305              		@ frame_needed = 0, uses_anonymous_args = 0
 360:Drivers/STM32F3xx_HAL_Driver/Src/stm32f3xx_hal_uart.c ****   {
 4306              		.loc 1 360 3 view .LVU1350
 360:Drivers/STM32F3xx_HAL_Driver/Src/stm32f3xx_hal_uart.c ****   {
 4307              		.loc 1 360 5 is_stmt 0 view .LVU1351
 4308 0000 0028     		cmp	r0, #0
 4309 0002 36D0     		beq	.L524
 366:Drivers/STM32F3xx_HAL_Driver/Src/stm32f3xx_hal_uart.c **** 
 4310              		.loc 1 366 3 is_stmt 1 view .LVU1352
 368:Drivers/STM32F3xx_HAL_Driver/Src/stm32f3xx_hal_uart.c ****   {
 4311              		.loc 1 368 3 view .LVU1353
 368:Drivers/STM32F3xx_HAL_Driver/Src/stm32f3xx_hal_uart.c ****   {
 4312              		.loc 1 368 11 is_stmt 0 view .LVU1354
 4313 0004 90F86930 		ldrb	r3, [r0, #105]	@ zero_extendqisi2
 358:Drivers/STM32F3xx_HAL_Driver/Src/stm32f3xx_hal_uart.c ****   /* Check the UART handle allocation */
 4314              		.loc 1 358 1 view .LVU1355
 4315 0008 10B5     		push	{r4, lr}
 4316              	.LCFI62:
 4317              		.cfi_def_cfa_offset 8
 4318              		.cfi_offset 4, -8
 4319              		.cfi_offset 14, -4
 368:Drivers/STM32F3xx_HAL_Driver/Src/stm32f3xx_hal_uart.c ****   {
 4320              		.loc 1 368 5 view .LVU1356
 4321 000a 03F0FF02 		and	r2, r3, #255
 4322 000e 0446     		mov	r4, r0
 4323 0010 53B3     		cbz	r3, .L527
 4324              	.LVL266:
 4325              	.L514:
 377:Drivers/STM32F3xx_HAL_Driver/Src/stm32f3xx_hal_uart.c **** 
 4326              		.loc 1 377 3 is_stmt 1 view .LVU1357
 380:Drivers/STM32F3xx_HAL_Driver/Src/stm32f3xx_hal_uart.c **** 
 4327              		.loc 1 380 3 is_stmt 0 view .LVU1358
 4328 0012 2268     		ldr	r2, [r4]
 377:Drivers/STM32F3xx_HAL_Driver/Src/stm32f3xx_hal_uart.c **** 
 4329              		.loc 1 377 17 view .LVU1359
 4330 0014 2423     		movs	r3, #36
 4331 0016 84F86930 		strb	r3, [r4, #105]
 380:Drivers/STM32F3xx_HAL_Driver/Src/stm32f3xx_hal_uart.c **** 
 4332              		.loc 1 380 3 is_stmt 1 view .LVU1360
ARM GAS  /var/folders/8c/gyvcglfx7f97kbqb2h83mm_r0000gn/T//ccv1qdBn.s 			page 141


 4333 001a 1368     		ldr	r3, [r2]
 4334 001c 23F00103 		bic	r3, r3, #1
 4335 0020 1360     		str	r3, [r2]
 383:Drivers/STM32F3xx_HAL_Driver/Src/stm32f3xx_hal_uart.c ****   {
 4336              		.loc 1 383 3 view .LVU1361
 383:Drivers/STM32F3xx_HAL_Driver/Src/stm32f3xx_hal_uart.c ****   {
 4337              		.loc 1 383 7 is_stmt 0 view .LVU1362
 4338 0022 2046     		mov	r0, r4
 4339 0024 FFF7FEFF 		bl	UART_SetConfig
 4340              	.LVL267:
 383:Drivers/STM32F3xx_HAL_Driver/Src/stm32f3xx_hal_uart.c ****   {
 4341              		.loc 1 383 6 view .LVU1363
 4342 0028 0128     		cmp	r0, #1
 4343 002a 1BD0     		beq	.L513
 388:Drivers/STM32F3xx_HAL_Driver/Src/stm32f3xx_hal_uart.c ****   {
 4344              		.loc 1 388 3 is_stmt 1 view .LVU1364
 388:Drivers/STM32F3xx_HAL_Driver/Src/stm32f3xx_hal_uart.c ****   {
 4345              		.loc 1 388 6 is_stmt 0 view .LVU1365
 4346 002c 636A     		ldr	r3, [r4, #36]
 4347 002e ABB9     		cbnz	r3, .L528
 4348              	.L516:
 396:Drivers/STM32F3xx_HAL_Driver/Src/stm32f3xx_hal_uart.c ****   CLEAR_BIT(huart->Instance->CR3, (USART_CR3_IREN | USART_CR3_SCEN));
 4349              		.loc 1 396 3 is_stmt 1 view .LVU1366
 4350 0030 2368     		ldr	r3, [r4]
 4351 0032 5A68     		ldr	r2, [r3, #4]
 4352 0034 22F49042 		bic	r2, r2, #18432
 4353 0038 5A60     		str	r2, [r3, #4]
 397:Drivers/STM32F3xx_HAL_Driver/Src/stm32f3xx_hal_uart.c **** 
 4354              		.loc 1 397 3 view .LVU1367
 4355 003a 9A68     		ldr	r2, [r3, #8]
 4356 003c 22F02202 		bic	r2, r2, #34
 4357 0040 9A60     		str	r2, [r3, #8]
 400:Drivers/STM32F3xx_HAL_Driver/Src/stm32f3xx_hal_uart.c **** 
 4358              		.loc 1 400 3 view .LVU1368
 4359 0042 9A68     		ldr	r2, [r3, #8]
 4360 0044 42F00802 		orr	r2, r2, #8
 4361 0048 9A60     		str	r2, [r3, #8]
 403:Drivers/STM32F3xx_HAL_Driver/Src/stm32f3xx_hal_uart.c **** 
 4362              		.loc 1 403 3 view .LVU1369
 4363 004a 1A68     		ldr	r2, [r3]
 4364 004c 42F00102 		orr	r2, r2, #1
 406:Drivers/STM32F3xx_HAL_Driver/Src/stm32f3xx_hal_uart.c **** }
 4365              		.loc 1 406 11 is_stmt 0 view .LVU1370
 4366 0050 2046     		mov	r0, r4
 403:Drivers/STM32F3xx_HAL_Driver/Src/stm32f3xx_hal_uart.c **** 
 4367              		.loc 1 403 3 view .LVU1371
 4368 0052 1A60     		str	r2, [r3]
 406:Drivers/STM32F3xx_HAL_Driver/Src/stm32f3xx_hal_uart.c **** }
 4369              		.loc 1 406 3 is_stmt 1 view .LVU1372
 407:Drivers/STM32F3xx_HAL_Driver/Src/stm32f3xx_hal_uart.c **** 
 4370              		.loc 1 407 1 is_stmt 0 view .LVU1373
 4371 0054 BDE81040 		pop	{r4, lr}
 4372              	.LCFI63:
 4373              		.cfi_remember_state
 4374              		.cfi_restore 14
 4375              		.cfi_restore 4
 4376              		.cfi_def_cfa_offset 0
ARM GAS  /var/folders/8c/gyvcglfx7f97kbqb2h83mm_r0000gn/T//ccv1qdBn.s 			page 142


 4377              	.LVL268:
 406:Drivers/STM32F3xx_HAL_Driver/Src/stm32f3xx_hal_uart.c **** }
 4378              		.loc 1 406 11 view .LVU1374
 4379 0058 FFF7FEBF 		b	UART_CheckIdleState
 4380              	.LVL269:
 4381              	.L528:
 4382              	.LCFI64:
 4383              		.cfi_restore_state
 390:Drivers/STM32F3xx_HAL_Driver/Src/stm32f3xx_hal_uart.c ****   }
 4384              		.loc 1 390 5 is_stmt 1 view .LVU1375
 4385 005c 2046     		mov	r0, r4
 4386 005e FFF7FEFF 		bl	UART_AdvFeatureConfig
 4387              	.LVL270:
 4388 0062 E5E7     		b	.L516
 4389              	.L513:
 407:Drivers/STM32F3xx_HAL_Driver/Src/stm32f3xx_hal_uart.c **** 
 4390              		.loc 1 407 1 is_stmt 0 view .LVU1376
 4391 0064 0120     		movs	r0, #1
 4392 0066 10BD     		pop	{r4, pc}
 4393              	.LVL271:
 4394              	.L527:
 371:Drivers/STM32F3xx_HAL_Driver/Src/stm32f3xx_hal_uart.c **** 
 4395              		.loc 1 371 5 is_stmt 1 view .LVU1377
 371:Drivers/STM32F3xx_HAL_Driver/Src/stm32f3xx_hal_uart.c **** 
 4396              		.loc 1 371 17 is_stmt 0 view .LVU1378
 4397 0068 80F86820 		strb	r2, [r0, #104]
 374:Drivers/STM32F3xx_HAL_Driver/Src/stm32f3xx_hal_uart.c ****   }
 4398              		.loc 1 374 5 is_stmt 1 view .LVU1379
 4399 006c FFF7FEFF 		bl	HAL_UART_MspInit
 4400              	.LVL272:
 374:Drivers/STM32F3xx_HAL_Driver/Src/stm32f3xx_hal_uart.c ****   }
 4401              		.loc 1 374 5 is_stmt 0 view .LVU1380
 4402 0070 CFE7     		b	.L514
 4403              	.LVL273:
 4404              	.L524:
 4405              	.LCFI65:
 4406              		.cfi_def_cfa_offset 0
 4407              		.cfi_restore 4
 4408              		.cfi_restore 14
 407:Drivers/STM32F3xx_HAL_Driver/Src/stm32f3xx_hal_uart.c **** 
 4409              		.loc 1 407 1 view .LVU1381
 4410 0072 0120     		movs	r0, #1
 4411              	.LVL274:
 407:Drivers/STM32F3xx_HAL_Driver/Src/stm32f3xx_hal_uart.c **** 
 4412              		.loc 1 407 1 view .LVU1382
 4413 0074 7047     		bx	lr
 4414              		.cfi_endproc
 4415              	.LFE127:
 4417 0076 00BF     		.section	.text.HAL_LIN_Init,"ax",%progbits
 4418              		.align	1
 4419              		.p2align 2,,3
 4420              		.global	HAL_LIN_Init
 4421              		.syntax unified
 4422              		.thumb
 4423              		.thumb_func
 4424              		.fpu fpv4-sp-d16
 4426              	HAL_LIN_Init:
ARM GAS  /var/folders/8c/gyvcglfx7f97kbqb2h83mm_r0000gn/T//ccv1qdBn.s 			page 143


 4427              	.LVL275:
 4428              	.LFB128:
 421:Drivers/STM32F3xx_HAL_Driver/Src/stm32f3xx_hal_uart.c ****   /* Check the UART handle allocation */
 4429              		.loc 1 421 1 is_stmt 1 view -0
 4430              		.cfi_startproc
 4431              		@ args = 0, pretend = 0, frame = 0
 4432              		@ frame_needed = 0, uses_anonymous_args = 0
 423:Drivers/STM32F3xx_HAL_Driver/Src/stm32f3xx_hal_uart.c ****   {
 4433              		.loc 1 423 3 view .LVU1384
 423:Drivers/STM32F3xx_HAL_Driver/Src/stm32f3xx_hal_uart.c ****   {
 4434              		.loc 1 423 5 is_stmt 0 view .LVU1385
 4435 0000 0028     		cmp	r0, #0
 4436 0002 3ED0     		beq	.L545
 421:Drivers/STM32F3xx_HAL_Driver/Src/stm32f3xx_hal_uart.c ****   /* Check the UART handle allocation */
 4437              		.loc 1 421 1 view .LVU1386
 4438 0004 38B5     		push	{r3, r4, r5, lr}
 4439              	.LCFI66:
 4440              		.cfi_def_cfa_offset 16
 4441              		.cfi_offset 3, -16
 4442              		.cfi_offset 4, -12
 4443              		.cfi_offset 5, -8
 4444              		.cfi_offset 14, -4
 434:Drivers/STM32F3xx_HAL_Driver/Src/stm32f3xx_hal_uart.c ****   {
 4445              		.loc 1 434 5 view .LVU1387
 4446 0006 C369     		ldr	r3, [r0, #28]
 4447 0008 B3F5004F 		cmp	r3, #32768
 4448 000c 0446     		mov	r4, r0
 429:Drivers/STM32F3xx_HAL_Driver/Src/stm32f3xx_hal_uart.c ****   /* Check the Break detection length parameter */
 4449              		.loc 1 429 3 is_stmt 1 view .LVU1388
 431:Drivers/STM32F3xx_HAL_Driver/Src/stm32f3xx_hal_uart.c **** 
 4450              		.loc 1 431 3 view .LVU1389
 434:Drivers/STM32F3xx_HAL_Driver/Src/stm32f3xx_hal_uart.c ****   {
 4451              		.loc 1 434 3 view .LVU1390
 434:Drivers/STM32F3xx_HAL_Driver/Src/stm32f3xx_hal_uart.c ****   {
 4452              		.loc 1 434 5 is_stmt 0 view .LVU1391
 4453 000e 31D0     		beq	.L531
 439:Drivers/STM32F3xx_HAL_Driver/Src/stm32f3xx_hal_uart.c ****   {
 4454              		.loc 1 439 3 is_stmt 1 view .LVU1392
 439:Drivers/STM32F3xx_HAL_Driver/Src/stm32f3xx_hal_uart.c ****   {
 4455              		.loc 1 439 5 is_stmt 0 view .LVU1393
 4456 0010 8368     		ldr	r3, [r0, #8]
 4457 0012 7BBB     		cbnz	r3, .L531
 444:Drivers/STM32F3xx_HAL_Driver/Src/stm32f3xx_hal_uart.c ****   {
 4458              		.loc 1 444 3 is_stmt 1 view .LVU1394
 444:Drivers/STM32F3xx_HAL_Driver/Src/stm32f3xx_hal_uart.c ****   {
 4459              		.loc 1 444 11 is_stmt 0 view .LVU1395
 4460 0014 90F86930 		ldrb	r3, [r0, #105]	@ zero_extendqisi2
 4461 0018 0D46     		mov	r5, r1
 444:Drivers/STM32F3xx_HAL_Driver/Src/stm32f3xx_hal_uart.c ****   {
 4462              		.loc 1 444 5 view .LVU1396
 4463 001a 03F0FF02 		and	r2, r3, #255
 4464 001e 5BB3     		cbz	r3, .L548
 4465              	.LVL276:
 4466              	.L533:
 453:Drivers/STM32F3xx_HAL_Driver/Src/stm32f3xx_hal_uart.c **** 
 4467              		.loc 1 453 3 is_stmt 1 view .LVU1397
 456:Drivers/STM32F3xx_HAL_Driver/Src/stm32f3xx_hal_uart.c **** 
ARM GAS  /var/folders/8c/gyvcglfx7f97kbqb2h83mm_r0000gn/T//ccv1qdBn.s 			page 144


 4468              		.loc 1 456 3 is_stmt 0 view .LVU1398
 4469 0020 2268     		ldr	r2, [r4]
 453:Drivers/STM32F3xx_HAL_Driver/Src/stm32f3xx_hal_uart.c **** 
 4470              		.loc 1 453 17 view .LVU1399
 4471 0022 2423     		movs	r3, #36
 4472 0024 84F86930 		strb	r3, [r4, #105]
 456:Drivers/STM32F3xx_HAL_Driver/Src/stm32f3xx_hal_uart.c **** 
 4473              		.loc 1 456 3 is_stmt 1 view .LVU1400
 4474 0028 1368     		ldr	r3, [r2]
 4475 002a 23F00103 		bic	r3, r3, #1
 4476 002e 1360     		str	r3, [r2]
 459:Drivers/STM32F3xx_HAL_Driver/Src/stm32f3xx_hal_uart.c ****   {
 4477              		.loc 1 459 3 view .LVU1401
 459:Drivers/STM32F3xx_HAL_Driver/Src/stm32f3xx_hal_uart.c ****   {
 4478              		.loc 1 459 7 is_stmt 0 view .LVU1402
 4479 0030 2046     		mov	r0, r4
 4480 0032 FFF7FEFF 		bl	UART_SetConfig
 4481              	.LVL277:
 459:Drivers/STM32F3xx_HAL_Driver/Src/stm32f3xx_hal_uart.c ****   {
 4482              		.loc 1 459 6 view .LVU1403
 4483 0036 0128     		cmp	r0, #1
 4484 0038 1CD0     		beq	.L531
 464:Drivers/STM32F3xx_HAL_Driver/Src/stm32f3xx_hal_uart.c ****   {
 4485              		.loc 1 464 3 is_stmt 1 view .LVU1404
 464:Drivers/STM32F3xx_HAL_Driver/Src/stm32f3xx_hal_uart.c ****   {
 4486              		.loc 1 464 6 is_stmt 0 view .LVU1405
 4487 003a 636A     		ldr	r3, [r4, #36]
 4488 003c 1BBB     		cbnz	r3, .L549
 4489              	.L534:
 472:Drivers/STM32F3xx_HAL_Driver/Src/stm32f3xx_hal_uart.c ****   CLEAR_BIT(huart->Instance->CR3, (USART_CR3_HDSEL | USART_CR3_IREN | USART_CR3_SCEN));
 4490              		.loc 1 472 3 is_stmt 1 view .LVU1406
 4491 003e 2368     		ldr	r3, [r4]
 4492 0040 5A68     		ldr	r2, [r3, #4]
 4493 0042 22F40062 		bic	r2, r2, #2048
 4494 0046 5A60     		str	r2, [r3, #4]
 473:Drivers/STM32F3xx_HAL_Driver/Src/stm32f3xx_hal_uart.c **** 
 4495              		.loc 1 473 3 view .LVU1407
 4496 0048 9A68     		ldr	r2, [r3, #8]
 4497 004a 22F02A02 		bic	r2, r2, #42
 4498 004e 9A60     		str	r2, [r3, #8]
 476:Drivers/STM32F3xx_HAL_Driver/Src/stm32f3xx_hal_uart.c **** 
 4499              		.loc 1 476 3 view .LVU1408
 4500 0050 5A68     		ldr	r2, [r3, #4]
 4501 0052 42F48042 		orr	r2, r2, #16384
 4502 0056 5A60     		str	r2, [r3, #4]
 479:Drivers/STM32F3xx_HAL_Driver/Src/stm32f3xx_hal_uart.c **** 
 4503              		.loc 1 479 3 view .LVU1409
 4504 0058 5A68     		ldr	r2, [r3, #4]
 4505 005a 22F02002 		bic	r2, r2, #32
 4506 005e 2A43     		orrs	r2, r2, r5
 4507 0060 5A60     		str	r2, [r3, #4]
 482:Drivers/STM32F3xx_HAL_Driver/Src/stm32f3xx_hal_uart.c **** 
 4508              		.loc 1 482 3 view .LVU1410
 4509 0062 1A68     		ldr	r2, [r3]
 4510 0064 42F00102 		orr	r2, r2, #1
 485:Drivers/STM32F3xx_HAL_Driver/Src/stm32f3xx_hal_uart.c **** }
 4511              		.loc 1 485 11 is_stmt 0 view .LVU1411
ARM GAS  /var/folders/8c/gyvcglfx7f97kbqb2h83mm_r0000gn/T//ccv1qdBn.s 			page 145


 4512 0068 2046     		mov	r0, r4
 482:Drivers/STM32F3xx_HAL_Driver/Src/stm32f3xx_hal_uart.c **** 
 4513              		.loc 1 482 3 view .LVU1412
 4514 006a 1A60     		str	r2, [r3]
 485:Drivers/STM32F3xx_HAL_Driver/Src/stm32f3xx_hal_uart.c **** }
 4515              		.loc 1 485 3 is_stmt 1 view .LVU1413
 486:Drivers/STM32F3xx_HAL_Driver/Src/stm32f3xx_hal_uart.c **** 
 4516              		.loc 1 486 1 is_stmt 0 view .LVU1414
 4517 006c BDE83840 		pop	{r3, r4, r5, lr}
 4518              	.LCFI67:
 4519              		.cfi_remember_state
 4520              		.cfi_restore 14
 4521              		.cfi_restore 5
 4522              		.cfi_restore 4
 4523              		.cfi_restore 3
 4524              		.cfi_def_cfa_offset 0
 4525              	.LVL278:
 485:Drivers/STM32F3xx_HAL_Driver/Src/stm32f3xx_hal_uart.c **** }
 4526              		.loc 1 485 11 view .LVU1415
 4527 0070 FFF7FEBF 		b	UART_CheckIdleState
 4528              	.LVL279:
 4529              	.L531:
 4530              	.LCFI68:
 4531              		.cfi_restore_state
 486:Drivers/STM32F3xx_HAL_Driver/Src/stm32f3xx_hal_uart.c **** 
 4532              		.loc 1 486 1 view .LVU1416
 4533 0074 0120     		movs	r0, #1
 4534 0076 38BD     		pop	{r3, r4, r5, pc}
 4535              	.LVL280:
 4536              	.L548:
 447:Drivers/STM32F3xx_HAL_Driver/Src/stm32f3xx_hal_uart.c **** 
 4537              		.loc 1 447 5 is_stmt 1 view .LVU1417
 447:Drivers/STM32F3xx_HAL_Driver/Src/stm32f3xx_hal_uart.c **** 
 4538              		.loc 1 447 17 is_stmt 0 view .LVU1418
 4539 0078 80F86820 		strb	r2, [r0, #104]
 450:Drivers/STM32F3xx_HAL_Driver/Src/stm32f3xx_hal_uart.c ****   }
 4540              		.loc 1 450 5 is_stmt 1 view .LVU1419
 4541 007c FFF7FEFF 		bl	HAL_UART_MspInit
 4542              	.LVL281:
 450:Drivers/STM32F3xx_HAL_Driver/Src/stm32f3xx_hal_uart.c ****   }
 4543              		.loc 1 450 5 is_stmt 0 view .LVU1420
 4544 0080 CEE7     		b	.L533
 4545              	.LVL282:
 4546              	.L545:
 4547              	.LCFI69:
 4548              		.cfi_def_cfa_offset 0
 4549              		.cfi_restore 3
 4550              		.cfi_restore 4
 4551              		.cfi_restore 5
 4552              		.cfi_restore 14
 486:Drivers/STM32F3xx_HAL_Driver/Src/stm32f3xx_hal_uart.c **** 
 4553              		.loc 1 486 1 view .LVU1421
 4554 0082 0120     		movs	r0, #1
 4555              	.LVL283:
 486:Drivers/STM32F3xx_HAL_Driver/Src/stm32f3xx_hal_uart.c **** 
 4556              		.loc 1 486 1 view .LVU1422
 4557 0084 7047     		bx	lr
ARM GAS  /var/folders/8c/gyvcglfx7f97kbqb2h83mm_r0000gn/T//ccv1qdBn.s 			page 146


 4558              	.LVL284:
 4559              	.L549:
 4560              	.LCFI70:
 4561              		.cfi_def_cfa_offset 16
 4562              		.cfi_offset 3, -16
 4563              		.cfi_offset 4, -12
 4564              		.cfi_offset 5, -8
 4565              		.cfi_offset 14, -4
 466:Drivers/STM32F3xx_HAL_Driver/Src/stm32f3xx_hal_uart.c ****   }
 4566              		.loc 1 466 5 is_stmt 1 view .LVU1423
 4567 0086 2046     		mov	r0, r4
 4568 0088 FFF7FEFF 		bl	UART_AdvFeatureConfig
 4569              	.LVL285:
 4570 008c D7E7     		b	.L534
 4571              		.cfi_endproc
 4572              	.LFE128:
 4574 008e 00BF     		.section	.text.HAL_MultiProcessor_Init,"ax",%progbits
 4575              		.align	1
 4576              		.p2align 2,,3
 4577              		.global	HAL_MultiProcessor_Init
 4578              		.syntax unified
 4579              		.thumb
 4580              		.thumb_func
 4581              		.fpu fpv4-sp-d16
 4583              	HAL_MultiProcessor_Init:
 4584              	.LVL286:
 4585              	.LFB129:
 508:Drivers/STM32F3xx_HAL_Driver/Src/stm32f3xx_hal_uart.c ****   /* Check the UART handle allocation */
 4586              		.loc 1 508 1 view -0
 4587              		.cfi_startproc
 4588              		@ args = 0, pretend = 0, frame = 0
 4589              		@ frame_needed = 0, uses_anonymous_args = 0
 510:Drivers/STM32F3xx_HAL_Driver/Src/stm32f3xx_hal_uart.c ****   {
 4590              		.loc 1 510 3 view .LVU1425
 510:Drivers/STM32F3xx_HAL_Driver/Src/stm32f3xx_hal_uart.c ****   {
 4591              		.loc 1 510 5 is_stmt 0 view .LVU1426
 4592 0000 0028     		cmp	r0, #0
 4593 0002 44D0     		beq	.L564
 516:Drivers/STM32F3xx_HAL_Driver/Src/stm32f3xx_hal_uart.c **** 
 4594              		.loc 1 516 3 is_stmt 1 view .LVU1427
 518:Drivers/STM32F3xx_HAL_Driver/Src/stm32f3xx_hal_uart.c ****   {
 4595              		.loc 1 518 3 view .LVU1428
 518:Drivers/STM32F3xx_HAL_Driver/Src/stm32f3xx_hal_uart.c ****   {
 4596              		.loc 1 518 11 is_stmt 0 view .LVU1429
 4597 0004 90F86930 		ldrb	r3, [r0, #105]	@ zero_extendqisi2
 508:Drivers/STM32F3xx_HAL_Driver/Src/stm32f3xx_hal_uart.c ****   /* Check the UART handle allocation */
 4598              		.loc 1 508 1 view .LVU1430
 4599 0008 70B5     		push	{r4, r5, r6, lr}
 4600              	.LCFI71:
 4601              		.cfi_def_cfa_offset 16
 4602              		.cfi_offset 4, -16
 4603              		.cfi_offset 5, -12
 4604              		.cfi_offset 6, -8
 4605              		.cfi_offset 14, -4
 4606 000a 1546     		mov	r5, r2
 4607 000c 0446     		mov	r4, r0
 4608 000e 0E46     		mov	r6, r1
ARM GAS  /var/folders/8c/gyvcglfx7f97kbqb2h83mm_r0000gn/T//ccv1qdBn.s 			page 147


 518:Drivers/STM32F3xx_HAL_Driver/Src/stm32f3xx_hal_uart.c ****   {
 4609              		.loc 1 518 5 view .LVU1431
 4610 0010 03F0FF02 		and	r2, r3, #255
 4611              	.LVL287:
 518:Drivers/STM32F3xx_HAL_Driver/Src/stm32f3xx_hal_uart.c ****   {
 4612              		.loc 1 518 5 view .LVU1432
 4613 0014 002B     		cmp	r3, #0
 4614 0016 35D0     		beq	.L567
 4615              	.LVL288:
 4616              	.L553:
 527:Drivers/STM32F3xx_HAL_Driver/Src/stm32f3xx_hal_uart.c **** 
 4617              		.loc 1 527 3 is_stmt 1 view .LVU1433
 530:Drivers/STM32F3xx_HAL_Driver/Src/stm32f3xx_hal_uart.c **** 
 4618              		.loc 1 530 3 is_stmt 0 view .LVU1434
 4619 0018 2268     		ldr	r2, [r4]
 527:Drivers/STM32F3xx_HAL_Driver/Src/stm32f3xx_hal_uart.c **** 
 4620              		.loc 1 527 17 view .LVU1435
 4621 001a 2423     		movs	r3, #36
 4622 001c 84F86930 		strb	r3, [r4, #105]
 530:Drivers/STM32F3xx_HAL_Driver/Src/stm32f3xx_hal_uart.c **** 
 4623              		.loc 1 530 3 is_stmt 1 view .LVU1436
 4624 0020 1368     		ldr	r3, [r2]
 4625 0022 23F00103 		bic	r3, r3, #1
 4626 0026 1360     		str	r3, [r2]
 533:Drivers/STM32F3xx_HAL_Driver/Src/stm32f3xx_hal_uart.c ****   {
 4627              		.loc 1 533 3 view .LVU1437
 533:Drivers/STM32F3xx_HAL_Driver/Src/stm32f3xx_hal_uart.c ****   {
 4628              		.loc 1 533 7 is_stmt 0 view .LVU1438
 4629 0028 2046     		mov	r0, r4
 4630 002a FFF7FEFF 		bl	UART_SetConfig
 4631              	.LVL289:
 533:Drivers/STM32F3xx_HAL_Driver/Src/stm32f3xx_hal_uart.c ****   {
 4632              		.loc 1 533 6 view .LVU1439
 4633 002e 0128     		cmp	r0, #1
 4634 0030 26D0     		beq	.L552
 538:Drivers/STM32F3xx_HAL_Driver/Src/stm32f3xx_hal_uart.c ****   {
 4635              		.loc 1 538 3 is_stmt 1 view .LVU1440
 538:Drivers/STM32F3xx_HAL_Driver/Src/stm32f3xx_hal_uart.c ****   {
 4636              		.loc 1 538 6 is_stmt 0 view .LVU1441
 4637 0032 636A     		ldr	r3, [r4, #36]
 4638 0034 03BB     		cbnz	r3, .L568
 4639              	.L555:
 546:Drivers/STM32F3xx_HAL_Driver/Src/stm32f3xx_hal_uart.c ****   CLEAR_BIT(huart->Instance->CR3, (USART_CR3_SCEN | USART_CR3_HDSEL | USART_CR3_IREN));
 4640              		.loc 1 546 3 is_stmt 1 view .LVU1442
 4641 0036 2368     		ldr	r3, [r4]
 4642 0038 5A68     		ldr	r2, [r3, #4]
 4643 003a 22F49042 		bic	r2, r2, #18432
 4644 003e 5A60     		str	r2, [r3, #4]
 547:Drivers/STM32F3xx_HAL_Driver/Src/stm32f3xx_hal_uart.c **** 
 4645              		.loc 1 547 3 view .LVU1443
 4646 0040 9A68     		ldr	r2, [r3, #8]
 549:Drivers/STM32F3xx_HAL_Driver/Src/stm32f3xx_hal_uart.c ****   {
 4647              		.loc 1 549 6 is_stmt 0 view .LVU1444
 4648 0042 B5F5006F 		cmp	r5, #2048
 547:Drivers/STM32F3xx_HAL_Driver/Src/stm32f3xx_hal_uart.c **** 
 4649              		.loc 1 547 3 view .LVU1445
 4650 0046 22F02A02 		bic	r2, r2, #42
ARM GAS  /var/folders/8c/gyvcglfx7f97kbqb2h83mm_r0000gn/T//ccv1qdBn.s 			page 148


 4651 004a 9A60     		str	r2, [r3, #8]
 549:Drivers/STM32F3xx_HAL_Driver/Src/stm32f3xx_hal_uart.c ****   {
 4652              		.loc 1 549 3 is_stmt 1 view .LVU1446
 549:Drivers/STM32F3xx_HAL_Driver/Src/stm32f3xx_hal_uart.c ****   {
 4653              		.loc 1 549 6 is_stmt 0 view .LVU1447
 4654 004c 0DD0     		beq	.L569
 4655              	.L556:
 556:Drivers/STM32F3xx_HAL_Driver/Src/stm32f3xx_hal_uart.c **** 
 4656              		.loc 1 556 3 is_stmt 1 view .LVU1448
 4657 004e 1A68     		ldr	r2, [r3]
 4658 0050 22F40062 		bic	r2, r2, #2048
 4659 0054 1543     		orrs	r5, r5, r2
 4660              	.LVL290:
 556:Drivers/STM32F3xx_HAL_Driver/Src/stm32f3xx_hal_uart.c **** 
 4661              		.loc 1 556 3 is_stmt 0 view .LVU1449
 4662 0056 1D60     		str	r5, [r3]
 559:Drivers/STM32F3xx_HAL_Driver/Src/stm32f3xx_hal_uart.c **** 
 4663              		.loc 1 559 3 is_stmt 1 view .LVU1450
 4664 0058 1A68     		ldr	r2, [r3]
 4665 005a 42F00102 		orr	r2, r2, #1
 562:Drivers/STM32F3xx_HAL_Driver/Src/stm32f3xx_hal_uart.c **** }
 4666              		.loc 1 562 11 is_stmt 0 view .LVU1451
 4667 005e 2046     		mov	r0, r4
 559:Drivers/STM32F3xx_HAL_Driver/Src/stm32f3xx_hal_uart.c **** 
 4668              		.loc 1 559 3 view .LVU1452
 4669 0060 1A60     		str	r2, [r3]
 562:Drivers/STM32F3xx_HAL_Driver/Src/stm32f3xx_hal_uart.c **** }
 4670              		.loc 1 562 3 is_stmt 1 view .LVU1453
 563:Drivers/STM32F3xx_HAL_Driver/Src/stm32f3xx_hal_uart.c **** 
 4671              		.loc 1 563 1 is_stmt 0 view .LVU1454
 4672 0062 BDE87040 		pop	{r4, r5, r6, lr}
 4673              	.LCFI72:
 4674              		.cfi_remember_state
 4675              		.cfi_restore 14
 4676              		.cfi_restore 6
 4677              		.cfi_restore 5
 4678              		.cfi_restore 4
 4679              		.cfi_def_cfa_offset 0
 4680              	.LVL291:
 562:Drivers/STM32F3xx_HAL_Driver/Src/stm32f3xx_hal_uart.c **** }
 4681              		.loc 1 562 11 view .LVU1455
 4682 0066 FFF7FEBF 		b	UART_CheckIdleState
 4683              	.LVL292:
 4684              	.L569:
 4685              	.LCFI73:
 4686              		.cfi_restore_state
 552:Drivers/STM32F3xx_HAL_Driver/Src/stm32f3xx_hal_uart.c ****   }
 4687              		.loc 1 552 5 is_stmt 1 view .LVU1456
 4688 006a 5968     		ldr	r1, [r3, #4]
 4689 006c 21F07F41 		bic	r1, r1, #-16777216
 4690 0070 41EA0666 		orr	r6, r1, r6, lsl #24
 4691 0074 5E60     		str	r6, [r3, #4]
 4692 0076 EAE7     		b	.L556
 4693              	.L568:
 540:Drivers/STM32F3xx_HAL_Driver/Src/stm32f3xx_hal_uart.c ****   }
 4694              		.loc 1 540 5 view .LVU1457
 4695 0078 2046     		mov	r0, r4
ARM GAS  /var/folders/8c/gyvcglfx7f97kbqb2h83mm_r0000gn/T//ccv1qdBn.s 			page 149


 4696 007a FFF7FEFF 		bl	UART_AdvFeatureConfig
 4697              	.LVL293:
 4698 007e DAE7     		b	.L555
 4699              	.L552:
 563:Drivers/STM32F3xx_HAL_Driver/Src/stm32f3xx_hal_uart.c **** 
 4700              		.loc 1 563 1 is_stmt 0 view .LVU1458
 4701 0080 0120     		movs	r0, #1
 4702 0082 70BD     		pop	{r4, r5, r6, pc}
 4703              	.LVL294:
 4704              	.L567:
 521:Drivers/STM32F3xx_HAL_Driver/Src/stm32f3xx_hal_uart.c **** 
 4705              		.loc 1 521 5 is_stmt 1 view .LVU1459
 521:Drivers/STM32F3xx_HAL_Driver/Src/stm32f3xx_hal_uart.c **** 
 4706              		.loc 1 521 17 is_stmt 0 view .LVU1460
 4707 0084 80F86820 		strb	r2, [r0, #104]
 524:Drivers/STM32F3xx_HAL_Driver/Src/stm32f3xx_hal_uart.c ****   }
 4708              		.loc 1 524 5 is_stmt 1 view .LVU1461
 4709 0088 FFF7FEFF 		bl	HAL_UART_MspInit
 4710              	.LVL295:
 524:Drivers/STM32F3xx_HAL_Driver/Src/stm32f3xx_hal_uart.c ****   }
 4711              		.loc 1 524 5 is_stmt 0 view .LVU1462
 4712 008c C4E7     		b	.L553
 4713              	.LVL296:
 4714              	.L564:
 4715              	.LCFI74:
 4716              		.cfi_def_cfa_offset 0
 4717              		.cfi_restore 4
 4718              		.cfi_restore 5
 4719              		.cfi_restore 6
 4720              		.cfi_restore 14
 563:Drivers/STM32F3xx_HAL_Driver/Src/stm32f3xx_hal_uart.c **** 
 4721              		.loc 1 563 1 view .LVU1463
 4722 008e 0120     		movs	r0, #1
 4723              	.LVL297:
 563:Drivers/STM32F3xx_HAL_Driver/Src/stm32f3xx_hal_uart.c **** 
 4724              		.loc 1 563 1 view .LVU1464
 4725 0090 7047     		bx	lr
 4726              		.cfi_endproc
 4727              	.LFE129:
 4729 0092 00BF     		.section	.text.HAL_MultiProcessor_EnableMuteMode,"ax",%progbits
 4730              		.align	1
 4731              		.p2align 2,,3
 4732              		.global	HAL_MultiProcessor_EnableMuteMode
 4733              		.syntax unified
 4734              		.thumb
 4735              		.thumb_func
 4736              		.fpu fpv4-sp-d16
 4738              	HAL_MultiProcessor_EnableMuteMode:
 4739              	.LVL298:
 4740              	.LFB157:
1913:Drivers/STM32F3xx_HAL_Driver/Src/stm32f3xx_hal_uart.c ****   /* Process Locked */
 4741              		.loc 1 1913 1 is_stmt 1 view -0
 4742              		.cfi_startproc
 4743              		@ args = 0, pretend = 0, frame = 0
 4744              		@ frame_needed = 0, uses_anonymous_args = 0
 4745              		@ link register save eliminated.
1915:Drivers/STM32F3xx_HAL_Driver/Src/stm32f3xx_hal_uart.c **** 
ARM GAS  /var/folders/8c/gyvcglfx7f97kbqb2h83mm_r0000gn/T//ccv1qdBn.s 			page 150


 4746              		.loc 1 1915 3 view .LVU1466
1915:Drivers/STM32F3xx_HAL_Driver/Src/stm32f3xx_hal_uart.c **** 
 4747              		.loc 1 1915 3 view .LVU1467
 4748 0000 90F86820 		ldrb	r2, [r0, #104]	@ zero_extendqisi2
 4749 0004 012A     		cmp	r2, #1
 4750 0006 11D0     		beq	.L571
1915:Drivers/STM32F3xx_HAL_Driver/Src/stm32f3xx_hal_uart.c **** 
 4751              		.loc 1 1915 3 discriminator 2 view .LVU1468
1913:Drivers/STM32F3xx_HAL_Driver/Src/stm32f3xx_hal_uart.c ****   /* Process Locked */
 4752              		.loc 1 1913 1 is_stmt 0 discriminator 2 view .LVU1469
 4753 0008 30B4     		push	{r4, r5}
 4754              	.LCFI75:
 4755              		.cfi_def_cfa_offset 8
 4756              		.cfi_offset 4, -8
 4757              		.cfi_offset 5, -4
1917:Drivers/STM32F3xx_HAL_Driver/Src/stm32f3xx_hal_uart.c **** 
 4758              		.loc 1 1917 17 discriminator 2 view .LVU1470
 4759 000a 2422     		movs	r2, #36
1920:Drivers/STM32F3xx_HAL_Driver/Src/stm32f3xx_hal_uart.c **** 
 4760              		.loc 1 1920 3 discriminator 2 view .LVU1471
 4761 000c 0168     		ldr	r1, [r0]
1917:Drivers/STM32F3xx_HAL_Driver/Src/stm32f3xx_hal_uart.c **** 
 4762              		.loc 1 1917 17 discriminator 2 view .LVU1472
 4763 000e 80F86920 		strb	r2, [r0, #105]
1920:Drivers/STM32F3xx_HAL_Driver/Src/stm32f3xx_hal_uart.c **** 
 4764              		.loc 1 1920 3 discriminator 2 view .LVU1473
 4765 0012 0A68     		ldr	r2, [r1]
1915:Drivers/STM32F3xx_HAL_Driver/Src/stm32f3xx_hal_uart.c **** 
 4766              		.loc 1 1915 3 discriminator 2 view .LVU1474
 4767 0014 0125     		movs	r5, #1
1922:Drivers/STM32F3xx_HAL_Driver/Src/stm32f3xx_hal_uart.c **** 
 4768              		.loc 1 1922 17 discriminator 2 view .LVU1475
 4769 0016 2024     		movs	r4, #32
1920:Drivers/STM32F3xx_HAL_Driver/Src/stm32f3xx_hal_uart.c **** 
 4770              		.loc 1 1920 3 discriminator 2 view .LVU1476
 4771 0018 42F40052 		orr	r2, r2, #8192
1915:Drivers/STM32F3xx_HAL_Driver/Src/stm32f3xx_hal_uart.c **** 
 4772              		.loc 1 1915 3 discriminator 2 view .LVU1477
 4773 001c 80F86850 		strb	r5, [r0, #104]
1917:Drivers/STM32F3xx_HAL_Driver/Src/stm32f3xx_hal_uart.c **** 
 4774              		.loc 1 1917 3 is_stmt 1 discriminator 2 view .LVU1478
1920:Drivers/STM32F3xx_HAL_Driver/Src/stm32f3xx_hal_uart.c **** 
 4775              		.loc 1 1920 3 discriminator 2 view .LVU1479
 4776 0020 0A60     		str	r2, [r1]
1922:Drivers/STM32F3xx_HAL_Driver/Src/stm32f3xx_hal_uart.c **** 
 4777              		.loc 1 1922 3 discriminator 2 view .LVU1480
1922:Drivers/STM32F3xx_HAL_Driver/Src/stm32f3xx_hal_uart.c **** 
 4778              		.loc 1 1922 17 is_stmt 0 discriminator 2 view .LVU1481
 4779 0022 80F86940 		strb	r4, [r0, #105]
1924:Drivers/STM32F3xx_HAL_Driver/Src/stm32f3xx_hal_uart.c **** }
 4780              		.loc 1 1924 3 is_stmt 1 discriminator 2 view .LVU1482
1925:Drivers/STM32F3xx_HAL_Driver/Src/stm32f3xx_hal_uart.c **** 
 4781              		.loc 1 1925 1 is_stmt 0 discriminator 2 view .LVU1483
 4782 0026 30BC     		pop	{r4, r5}
 4783              	.LCFI76:
 4784              		.cfi_restore 5
 4785              		.cfi_restore 4
ARM GAS  /var/folders/8c/gyvcglfx7f97kbqb2h83mm_r0000gn/T//ccv1qdBn.s 			page 151


 4786              		.cfi_def_cfa_offset 0
1924:Drivers/STM32F3xx_HAL_Driver/Src/stm32f3xx_hal_uart.c **** }
 4787              		.loc 1 1924 11 discriminator 2 view .LVU1484
 4788 0028 FFF7FEBF 		b	UART_CheckIdleState
 4789              	.LVL299:
 4790              	.L571:
1925:Drivers/STM32F3xx_HAL_Driver/Src/stm32f3xx_hal_uart.c **** 
 4791              		.loc 1 1925 1 view .LVU1485
 4792 002c 0220     		movs	r0, #2
 4793              	.LVL300:
1925:Drivers/STM32F3xx_HAL_Driver/Src/stm32f3xx_hal_uart.c **** 
 4794              		.loc 1 1925 1 view .LVU1486
 4795 002e 7047     		bx	lr
 4796              		.cfi_endproc
 4797              	.LFE157:
 4799              		.section	.text.HAL_MultiProcessor_DisableMuteMode,"ax",%progbits
 4800              		.align	1
 4801              		.p2align 2,,3
 4802              		.global	HAL_MultiProcessor_DisableMuteMode
 4803              		.syntax unified
 4804              		.thumb
 4805              		.thumb_func
 4806              		.fpu fpv4-sp-d16
 4808              	HAL_MultiProcessor_DisableMuteMode:
 4809              	.LVL301:
 4810              	.LFB158:
1934:Drivers/STM32F3xx_HAL_Driver/Src/stm32f3xx_hal_uart.c ****   /* Process Locked */
 4811              		.loc 1 1934 1 is_stmt 1 view -0
 4812              		.cfi_startproc
 4813              		@ args = 0, pretend = 0, frame = 0
 4814              		@ frame_needed = 0, uses_anonymous_args = 0
 4815              		@ link register save eliminated.
1936:Drivers/STM32F3xx_HAL_Driver/Src/stm32f3xx_hal_uart.c **** 
 4816              		.loc 1 1936 3 view .LVU1488
1936:Drivers/STM32F3xx_HAL_Driver/Src/stm32f3xx_hal_uart.c **** 
 4817              		.loc 1 1936 3 view .LVU1489
 4818 0000 90F86820 		ldrb	r2, [r0, #104]	@ zero_extendqisi2
 4819 0004 012A     		cmp	r2, #1
 4820 0006 11D0     		beq	.L576
1936:Drivers/STM32F3xx_HAL_Driver/Src/stm32f3xx_hal_uart.c **** 
 4821              		.loc 1 1936 3 discriminator 2 view .LVU1490
1934:Drivers/STM32F3xx_HAL_Driver/Src/stm32f3xx_hal_uart.c ****   /* Process Locked */
 4822              		.loc 1 1934 1 is_stmt 0 discriminator 2 view .LVU1491
 4823 0008 30B4     		push	{r4, r5}
 4824              	.LCFI77:
 4825              		.cfi_def_cfa_offset 8
 4826              		.cfi_offset 4, -8
 4827              		.cfi_offset 5, -4
1938:Drivers/STM32F3xx_HAL_Driver/Src/stm32f3xx_hal_uart.c **** 
 4828              		.loc 1 1938 17 discriminator 2 view .LVU1492
 4829 000a 2422     		movs	r2, #36
1941:Drivers/STM32F3xx_HAL_Driver/Src/stm32f3xx_hal_uart.c **** 
 4830              		.loc 1 1941 3 discriminator 2 view .LVU1493
 4831 000c 0168     		ldr	r1, [r0]
1938:Drivers/STM32F3xx_HAL_Driver/Src/stm32f3xx_hal_uart.c **** 
 4832              		.loc 1 1938 17 discriminator 2 view .LVU1494
 4833 000e 80F86920 		strb	r2, [r0, #105]
ARM GAS  /var/folders/8c/gyvcglfx7f97kbqb2h83mm_r0000gn/T//ccv1qdBn.s 			page 152


1941:Drivers/STM32F3xx_HAL_Driver/Src/stm32f3xx_hal_uart.c **** 
 4834              		.loc 1 1941 3 discriminator 2 view .LVU1495
 4835 0012 0A68     		ldr	r2, [r1]
1936:Drivers/STM32F3xx_HAL_Driver/Src/stm32f3xx_hal_uart.c **** 
 4836              		.loc 1 1936 3 discriminator 2 view .LVU1496
 4837 0014 0125     		movs	r5, #1
1943:Drivers/STM32F3xx_HAL_Driver/Src/stm32f3xx_hal_uart.c **** 
 4838              		.loc 1 1943 17 discriminator 2 view .LVU1497
 4839 0016 2024     		movs	r4, #32
1941:Drivers/STM32F3xx_HAL_Driver/Src/stm32f3xx_hal_uart.c **** 
 4840              		.loc 1 1941 3 discriminator 2 view .LVU1498
 4841 0018 22F40052 		bic	r2, r2, #8192
1936:Drivers/STM32F3xx_HAL_Driver/Src/stm32f3xx_hal_uart.c **** 
 4842              		.loc 1 1936 3 discriminator 2 view .LVU1499
 4843 001c 80F86850 		strb	r5, [r0, #104]
1938:Drivers/STM32F3xx_HAL_Driver/Src/stm32f3xx_hal_uart.c **** 
 4844              		.loc 1 1938 3 is_stmt 1 discriminator 2 view .LVU1500
1941:Drivers/STM32F3xx_HAL_Driver/Src/stm32f3xx_hal_uart.c **** 
 4845              		.loc 1 1941 3 discriminator 2 view .LVU1501
 4846 0020 0A60     		str	r2, [r1]
1943:Drivers/STM32F3xx_HAL_Driver/Src/stm32f3xx_hal_uart.c **** 
 4847              		.loc 1 1943 3 discriminator 2 view .LVU1502
1943:Drivers/STM32F3xx_HAL_Driver/Src/stm32f3xx_hal_uart.c **** 
 4848              		.loc 1 1943 17 is_stmt 0 discriminator 2 view .LVU1503
 4849 0022 80F86940 		strb	r4, [r0, #105]
1945:Drivers/STM32F3xx_HAL_Driver/Src/stm32f3xx_hal_uart.c **** }
 4850              		.loc 1 1945 3 is_stmt 1 discriminator 2 view .LVU1504
1946:Drivers/STM32F3xx_HAL_Driver/Src/stm32f3xx_hal_uart.c **** 
 4851              		.loc 1 1946 1 is_stmt 0 discriminator 2 view .LVU1505
 4852 0026 30BC     		pop	{r4, r5}
 4853              	.LCFI78:
 4854              		.cfi_restore 5
 4855              		.cfi_restore 4
 4856              		.cfi_def_cfa_offset 0
1945:Drivers/STM32F3xx_HAL_Driver/Src/stm32f3xx_hal_uart.c **** }
 4857              		.loc 1 1945 11 discriminator 2 view .LVU1506
 4858 0028 FFF7FEBF 		b	UART_CheckIdleState
 4859              	.LVL302:
 4860              	.L576:
1946:Drivers/STM32F3xx_HAL_Driver/Src/stm32f3xx_hal_uart.c **** 
 4861              		.loc 1 1946 1 view .LVU1507
 4862 002c 0220     		movs	r0, #2
 4863              	.LVL303:
1946:Drivers/STM32F3xx_HAL_Driver/Src/stm32f3xx_hal_uart.c **** 
 4864              		.loc 1 1946 1 view .LVU1508
 4865 002e 7047     		bx	lr
 4866              		.cfi_endproc
 4867              	.LFE158:
 4869              		.section	.text.UART_Transmit_IT,"ax",%progbits
 4870              		.align	1
 4871              		.p2align 2,,3
 4872              		.global	UART_Transmit_IT
 4873              		.syntax unified
 4874              		.thumb
 4875              		.thumb_func
 4876              		.fpu fpv4-sp-d16
 4878              	UART_Transmit_IT:
ARM GAS  /var/folders/8c/gyvcglfx7f97kbqb2h83mm_r0000gn/T//ccv1qdBn.s 			page 153


 4879              	.LVL304:
 4880              	.LFB181:
2643:Drivers/STM32F3xx_HAL_Driver/Src/stm32f3xx_hal_uart.c **** 
2644:Drivers/STM32F3xx_HAL_Driver/Src/stm32f3xx_hal_uart.c **** /**
2645:Drivers/STM32F3xx_HAL_Driver/Src/stm32f3xx_hal_uart.c ****   * @brief  Send an amount of data in interrupt mode.
2646:Drivers/STM32F3xx_HAL_Driver/Src/stm32f3xx_hal_uart.c ****   * @note   Function is called under interruption only, once
2647:Drivers/STM32F3xx_HAL_Driver/Src/stm32f3xx_hal_uart.c ****   *         interruptions have been enabled by HAL_UART_Transmit_IT().
2648:Drivers/STM32F3xx_HAL_Driver/Src/stm32f3xx_hal_uart.c ****   * @param  huart UART handle.
2649:Drivers/STM32F3xx_HAL_Driver/Src/stm32f3xx_hal_uart.c ****   * @retval HAL status
2650:Drivers/STM32F3xx_HAL_Driver/Src/stm32f3xx_hal_uart.c ****   */
2651:Drivers/STM32F3xx_HAL_Driver/Src/stm32f3xx_hal_uart.c **** HAL_StatusTypeDef UART_Transmit_IT(UART_HandleTypeDef *huart)
2652:Drivers/STM32F3xx_HAL_Driver/Src/stm32f3xx_hal_uart.c **** {
 4881              		.loc 1 2652 1 is_stmt 1 view -0
 4882              		.cfi_startproc
 4883              		@ args = 0, pretend = 0, frame = 0
 4884              		@ frame_needed = 0, uses_anonymous_args = 0
 4885              		@ link register save eliminated.
2653:Drivers/STM32F3xx_HAL_Driver/Src/stm32f3xx_hal_uart.c ****   uint16_t* tmp;
 4886              		.loc 1 2653 3 view .LVU1510
2654:Drivers/STM32F3xx_HAL_Driver/Src/stm32f3xx_hal_uart.c **** 
2655:Drivers/STM32F3xx_HAL_Driver/Src/stm32f3xx_hal_uart.c ****   /* Check that a Tx process is ongoing */
2656:Drivers/STM32F3xx_HAL_Driver/Src/stm32f3xx_hal_uart.c ****   if (huart->gState == HAL_UART_STATE_BUSY_TX)
 4887              		.loc 1 2656 3 view .LVU1511
 4888              		.loc 1 2656 12 is_stmt 0 view .LVU1512
 4889 0000 90F86930 		ldrb	r3, [r0, #105]	@ zero_extendqisi2
 4890              		.loc 1 2656 6 view .LVU1513
 4891 0004 212B     		cmp	r3, #33
 4892 0006 1FD1     		bne	.L585
2657:Drivers/STM32F3xx_HAL_Driver/Src/stm32f3xx_hal_uart.c ****   {
2658:Drivers/STM32F3xx_HAL_Driver/Src/stm32f3xx_hal_uart.c ****     if(huart->TxXferCount == 0U)
 4893              		.loc 1 2658 5 is_stmt 1 view .LVU1514
 4894              		.loc 1 2658 13 is_stmt 0 view .LVU1515
 4895 0008 B0F85230 		ldrh	r3, [r0, #82]
 4896 000c 0268     		ldr	r2, [r0]
 4897 000e 9BB2     		uxth	r3, r3
 4898              		.loc 1 2658 7 view .LVU1516
 4899 0010 83B1     		cbz	r3, .L586
 4900              	.LVL305:
 4901              	.LBB30:
 4902              	.LBI30:
2651:Drivers/STM32F3xx_HAL_Driver/Src/stm32f3xx_hal_uart.c **** {
 4903              		.loc 1 2651 19 is_stmt 1 view .LVU1517
 4904              	.LBB31:
2659:Drivers/STM32F3xx_HAL_Driver/Src/stm32f3xx_hal_uart.c ****     {
2660:Drivers/STM32F3xx_HAL_Driver/Src/stm32f3xx_hal_uart.c ****       /* Disable the UART Transmit Data Register Empty Interrupt */
2661:Drivers/STM32F3xx_HAL_Driver/Src/stm32f3xx_hal_uart.c ****       CLEAR_BIT(huart->Instance->CR1, USART_CR1_TXEIE);
2662:Drivers/STM32F3xx_HAL_Driver/Src/stm32f3xx_hal_uart.c **** 
2663:Drivers/STM32F3xx_HAL_Driver/Src/stm32f3xx_hal_uart.c ****       /* Enable the UART Transmit Complete Interrupt */
2664:Drivers/STM32F3xx_HAL_Driver/Src/stm32f3xx_hal_uart.c ****       SET_BIT(huart->Instance->CR1, USART_CR1_TCIE);
2665:Drivers/STM32F3xx_HAL_Driver/Src/stm32f3xx_hal_uart.c **** 
2666:Drivers/STM32F3xx_HAL_Driver/Src/stm32f3xx_hal_uart.c ****       return HAL_OK;
2667:Drivers/STM32F3xx_HAL_Driver/Src/stm32f3xx_hal_uart.c ****     }
2668:Drivers/STM32F3xx_HAL_Driver/Src/stm32f3xx_hal_uart.c ****     else
2669:Drivers/STM32F3xx_HAL_Driver/Src/stm32f3xx_hal_uart.c ****     {
2670:Drivers/STM32F3xx_HAL_Driver/Src/stm32f3xx_hal_uart.c ****       if ((huart->Init.WordLength == UART_WORDLENGTH_9B) && (huart->Init.Parity == UART_PARITY_NONE
 4905              		.loc 1 2670 7 view .LVU1518
 4906              		.loc 1 2670 10 is_stmt 0 view .LVU1519
ARM GAS  /var/folders/8c/gyvcglfx7f97kbqb2h83mm_r0000gn/T//ccv1qdBn.s 			page 154


 4907 0012 8168     		ldr	r1, [r0, #8]
 4908 0014 C36C     		ldr	r3, [r0, #76]
 4909 0016 B1F5805F 		cmp	r1, #4096
 4910 001a 17D0     		beq	.L587
 4911              	.L583:
2671:Drivers/STM32F3xx_HAL_Driver/Src/stm32f3xx_hal_uart.c ****       {
2672:Drivers/STM32F3xx_HAL_Driver/Src/stm32f3xx_hal_uart.c ****         tmp = (uint16_t*) huart->pTxBuffPtr;
2673:Drivers/STM32F3xx_HAL_Driver/Src/stm32f3xx_hal_uart.c ****         huart->Instance->TDR = (*tmp & (uint16_t)0x01FFU);
2674:Drivers/STM32F3xx_HAL_Driver/Src/stm32f3xx_hal_uart.c ****         huart->pTxBuffPtr += 2U;
2675:Drivers/STM32F3xx_HAL_Driver/Src/stm32f3xx_hal_uart.c ****       }
2676:Drivers/STM32F3xx_HAL_Driver/Src/stm32f3xx_hal_uart.c ****       else
2677:Drivers/STM32F3xx_HAL_Driver/Src/stm32f3xx_hal_uart.c ****       {
2678:Drivers/STM32F3xx_HAL_Driver/Src/stm32f3xx_hal_uart.c ****         huart->Instance->TDR = (uint8_t)(*huart->pTxBuffPtr++ & (uint8_t)0xFFU);
 4912              		.loc 1 2678 9 is_stmt 1 view .LVU1520
 4913              		.loc 1 2678 60 is_stmt 0 view .LVU1521
 4914 001c 591C     		adds	r1, r3, #1
 4915 001e C164     		str	r1, [r0, #76]
 4916              		.loc 1 2678 32 view .LVU1522
 4917 0020 1B78     		ldrb	r3, [r3]	@ zero_extendqisi2
 4918              		.loc 1 2678 30 view .LVU1523
 4919 0022 1385     		strh	r3, [r2, #40]	@ movhi
 4920              	.L584:
2679:Drivers/STM32F3xx_HAL_Driver/Src/stm32f3xx_hal_uart.c ****       }
2680:Drivers/STM32F3xx_HAL_Driver/Src/stm32f3xx_hal_uart.c ****       huart->TxXferCount--;
 4921              		.loc 1 2680 7 is_stmt 1 view .LVU1524
 4922              		.loc 1 2680 12 is_stmt 0 view .LVU1525
 4923 0024 B0F85230 		ldrh	r3, [r0, #82]
 4924              		.loc 1 2680 25 view .LVU1526
 4925 0028 013B     		subs	r3, r3, #1
 4926 002a 9BB2     		uxth	r3, r3
 4927 002c A0F85230 		strh	r3, [r0, #82]	@ movhi
2681:Drivers/STM32F3xx_HAL_Driver/Src/stm32f3xx_hal_uart.c **** 
2682:Drivers/STM32F3xx_HAL_Driver/Src/stm32f3xx_hal_uart.c ****       return HAL_OK;
 4928              		.loc 1 2682 7 is_stmt 1 view .LVU1527
 4929              	.LVL306:
2680:Drivers/STM32F3xx_HAL_Driver/Src/stm32f3xx_hal_uart.c **** 
 4930              		.loc 1 2680 25 is_stmt 0 view .LVU1528
 4931 0030 0020     		movs	r0, #0
 4932              	.LVL307:
2680:Drivers/STM32F3xx_HAL_Driver/Src/stm32f3xx_hal_uart.c **** 
 4933              		.loc 1 2680 25 view .LVU1529
 4934 0032 7047     		bx	lr
 4935              	.LVL308:
 4936              	.L586:
2680:Drivers/STM32F3xx_HAL_Driver/Src/stm32f3xx_hal_uart.c **** 
 4937              		.loc 1 2680 25 view .LVU1530
 4938              	.LBE31:
 4939              	.LBE30:
2661:Drivers/STM32F3xx_HAL_Driver/Src/stm32f3xx_hal_uart.c **** 
 4940              		.loc 1 2661 7 is_stmt 1 view .LVU1531
 4941 0034 1168     		ldr	r1, [r2]
 4942 0036 21F08001 		bic	r1, r1, #128
 4943 003a 1160     		str	r1, [r2]
2664:Drivers/STM32F3xx_HAL_Driver/Src/stm32f3xx_hal_uart.c **** 
 4944              		.loc 1 2664 7 view .LVU1532
 4945 003c 1168     		ldr	r1, [r2]
 4946 003e 41F04001 		orr	r1, r1, #64
ARM GAS  /var/folders/8c/gyvcglfx7f97kbqb2h83mm_r0000gn/T//ccv1qdBn.s 			page 155


2666:Drivers/STM32F3xx_HAL_Driver/Src/stm32f3xx_hal_uart.c ****     }
 4947              		.loc 1 2666 14 is_stmt 0 view .LVU1533
 4948 0042 1846     		mov	r0, r3
 4949              	.LVL309:
2664:Drivers/STM32F3xx_HAL_Driver/Src/stm32f3xx_hal_uart.c **** 
 4950              		.loc 1 2664 7 view .LVU1534
 4951 0044 1160     		str	r1, [r2]
2666:Drivers/STM32F3xx_HAL_Driver/Src/stm32f3xx_hal_uart.c ****     }
 4952              		.loc 1 2666 7 is_stmt 1 view .LVU1535
2666:Drivers/STM32F3xx_HAL_Driver/Src/stm32f3xx_hal_uart.c ****     }
 4953              		.loc 1 2666 14 is_stmt 0 view .LVU1536
 4954 0046 7047     		bx	lr
 4955              	.LVL310:
 4956              	.L585:
2683:Drivers/STM32F3xx_HAL_Driver/Src/stm32f3xx_hal_uart.c ****     }
2684:Drivers/STM32F3xx_HAL_Driver/Src/stm32f3xx_hal_uart.c ****   }
2685:Drivers/STM32F3xx_HAL_Driver/Src/stm32f3xx_hal_uart.c ****   else
2686:Drivers/STM32F3xx_HAL_Driver/Src/stm32f3xx_hal_uart.c ****   {
2687:Drivers/STM32F3xx_HAL_Driver/Src/stm32f3xx_hal_uart.c ****     return HAL_BUSY;
 4957              		.loc 1 2687 12 view .LVU1537
 4958 0048 0220     		movs	r0, #2
 4959              	.LVL311:
2688:Drivers/STM32F3xx_HAL_Driver/Src/stm32f3xx_hal_uart.c ****   }
2689:Drivers/STM32F3xx_HAL_Driver/Src/stm32f3xx_hal_uart.c **** }
 4960              		.loc 1 2689 1 view .LVU1538
 4961 004a 7047     		bx	lr
 4962              	.LVL312:
 4963              	.L587:
 4964              	.LBB33:
 4965              	.LBB32:
2670:Drivers/STM32F3xx_HAL_Driver/Src/stm32f3xx_hal_uart.c ****       {
 4966              		.loc 1 2670 58 view .LVU1539
 4967 004c 0169     		ldr	r1, [r0, #16]
 4968 004e 0029     		cmp	r1, #0
 4969 0050 E4D1     		bne	.L583
2672:Drivers/STM32F3xx_HAL_Driver/Src/stm32f3xx_hal_uart.c ****         huart->Instance->TDR = (*tmp & (uint16_t)0x01FFU);
 4970              		.loc 1 2672 9 is_stmt 1 view .LVU1540
 4971              	.LVL313:
2673:Drivers/STM32F3xx_HAL_Driver/Src/stm32f3xx_hal_uart.c ****         huart->pTxBuffPtr += 2U;
 4972              		.loc 1 2673 9 view .LVU1541
2673:Drivers/STM32F3xx_HAL_Driver/Src/stm32f3xx_hal_uart.c ****         huart->pTxBuffPtr += 2U;
 4973              		.loc 1 2673 38 is_stmt 0 view .LVU1542
 4974 0052 33F8021B 		ldrh	r1, [r3], #2
 4975 0056 C1F30801 		ubfx	r1, r1, #0, #9
2673:Drivers/STM32F3xx_HAL_Driver/Src/stm32f3xx_hal_uart.c ****         huart->pTxBuffPtr += 2U;
 4976              		.loc 1 2673 30 view .LVU1543
 4977 005a 1185     		strh	r1, [r2, #40]	@ movhi
2674:Drivers/STM32F3xx_HAL_Driver/Src/stm32f3xx_hal_uart.c ****       }
 4978              		.loc 1 2674 9 is_stmt 1 view .LVU1544
2674:Drivers/STM32F3xx_HAL_Driver/Src/stm32f3xx_hal_uart.c ****       }
 4979              		.loc 1 2674 27 is_stmt 0 view .LVU1545
 4980 005c C364     		str	r3, [r0, #76]
 4981              	.LVL314:
2674:Drivers/STM32F3xx_HAL_Driver/Src/stm32f3xx_hal_uart.c ****       }
 4982              		.loc 1 2674 27 view .LVU1546
 4983 005e E1E7     		b	.L584
 4984              	.LBE32:
ARM GAS  /var/folders/8c/gyvcglfx7f97kbqb2h83mm_r0000gn/T//ccv1qdBn.s 			page 156


 4985              	.LBE33:
 4986              		.cfi_endproc
 4987              	.LFE181:
 4989              		.section	.text.UART_EndTransmit_IT,"ax",%progbits
 4990              		.align	1
 4991              		.p2align 2,,3
 4992              		.global	UART_EndTransmit_IT
 4993              		.syntax unified
 4994              		.thumb
 4995              		.thumb_func
 4996              		.fpu fpv4-sp-d16
 4998              	UART_EndTransmit_IT:
 4999              	.LVL315:
 5000              	.LFB182:
2690:Drivers/STM32F3xx_HAL_Driver/Src/stm32f3xx_hal_uart.c **** 
2691:Drivers/STM32F3xx_HAL_Driver/Src/stm32f3xx_hal_uart.c **** /**
2692:Drivers/STM32F3xx_HAL_Driver/Src/stm32f3xx_hal_uart.c ****   * @brief  Wrap up transmission in non-blocking mode.
2693:Drivers/STM32F3xx_HAL_Driver/Src/stm32f3xx_hal_uart.c ****   * @param  huart pointer to a UART_HandleTypeDef structure that contains
2694:Drivers/STM32F3xx_HAL_Driver/Src/stm32f3xx_hal_uart.c ****   *               the configuration information for the specified UART module.
2695:Drivers/STM32F3xx_HAL_Driver/Src/stm32f3xx_hal_uart.c ****   * @retval HAL status
2696:Drivers/STM32F3xx_HAL_Driver/Src/stm32f3xx_hal_uart.c ****   */
2697:Drivers/STM32F3xx_HAL_Driver/Src/stm32f3xx_hal_uart.c **** HAL_StatusTypeDef UART_EndTransmit_IT(UART_HandleTypeDef *huart)
2698:Drivers/STM32F3xx_HAL_Driver/Src/stm32f3xx_hal_uart.c **** {
 5001              		.loc 1 2698 1 is_stmt 1 view -0
 5002              		.cfi_startproc
 5003              		@ args = 0, pretend = 0, frame = 0
 5004              		@ frame_needed = 0, uses_anonymous_args = 0
2699:Drivers/STM32F3xx_HAL_Driver/Src/stm32f3xx_hal_uart.c ****   /* Disable the UART Transmit Complete Interrupt */
2700:Drivers/STM32F3xx_HAL_Driver/Src/stm32f3xx_hal_uart.c ****   CLEAR_BIT(huart->Instance->CR1, USART_CR1_TCIE);
 5005              		.loc 1 2700 3 view .LVU1548
 5006 0000 0168     		ldr	r1, [r0]
2698:Drivers/STM32F3xx_HAL_Driver/Src/stm32f3xx_hal_uart.c ****   /* Disable the UART Transmit Complete Interrupt */
 5007              		.loc 1 2698 1 is_stmt 0 view .LVU1549
 5008 0002 10B5     		push	{r4, lr}
 5009              	.LCFI79:
 5010              		.cfi_def_cfa_offset 8
 5011              		.cfi_offset 4, -8
 5012              		.cfi_offset 14, -4
 5013              		.loc 1 2700 3 view .LVU1550
 5014 0004 0B68     		ldr	r3, [r1]
2701:Drivers/STM32F3xx_HAL_Driver/Src/stm32f3xx_hal_uart.c **** 
2702:Drivers/STM32F3xx_HAL_Driver/Src/stm32f3xx_hal_uart.c ****   /* Tx process is ended, restore huart->gState to Ready */
2703:Drivers/STM32F3xx_HAL_Driver/Src/stm32f3xx_hal_uart.c ****   huart->gState = HAL_UART_STATE_READY;
 5015              		.loc 1 2703 17 view .LVU1551
 5016 0006 2024     		movs	r4, #32
2700:Drivers/STM32F3xx_HAL_Driver/Src/stm32f3xx_hal_uart.c **** 
 5017              		.loc 1 2700 3 view .LVU1552
 5018 0008 23F04003 		bic	r3, r3, #64
 5019 000c 0B60     		str	r3, [r1]
 5020              		.loc 1 2703 3 is_stmt 1 view .LVU1553
 5021              		.loc 1 2703 17 is_stmt 0 view .LVU1554
 5022 000e 80F86940 		strb	r4, [r0, #105]
2704:Drivers/STM32F3xx_HAL_Driver/Src/stm32f3xx_hal_uart.c **** 
2705:Drivers/STM32F3xx_HAL_Driver/Src/stm32f3xx_hal_uart.c ****   HAL_UART_TxCpltCallback(huart);
 5023              		.loc 1 2705 3 is_stmt 1 view .LVU1555
 5024 0012 FFF7FEFF 		bl	HAL_UART_TxCpltCallback
 5025              	.LVL316:
ARM GAS  /var/folders/8c/gyvcglfx7f97kbqb2h83mm_r0000gn/T//ccv1qdBn.s 			page 157


2706:Drivers/STM32F3xx_HAL_Driver/Src/stm32f3xx_hal_uart.c **** 
2707:Drivers/STM32F3xx_HAL_Driver/Src/stm32f3xx_hal_uart.c ****   return HAL_OK;
 5026              		.loc 1 2707 3 view .LVU1556
2708:Drivers/STM32F3xx_HAL_Driver/Src/stm32f3xx_hal_uart.c **** }
 5027              		.loc 1 2708 1 is_stmt 0 view .LVU1557
 5028 0016 0020     		movs	r0, #0
 5029 0018 10BD     		pop	{r4, pc}
 5030              		.cfi_endproc
 5031              	.LFE182:
 5033 001a 00BF     		.section	.text.UART_Receive_IT,"ax",%progbits
 5034              		.align	1
 5035              		.p2align 2,,3
 5036              		.global	UART_Receive_IT
 5037              		.syntax unified
 5038              		.thumb
 5039              		.thumb_func
 5040              		.fpu fpv4-sp-d16
 5042              	UART_Receive_IT:
 5043              	.LVL317:
 5044              	.LFB183:
2709:Drivers/STM32F3xx_HAL_Driver/Src/stm32f3xx_hal_uart.c **** 
2710:Drivers/STM32F3xx_HAL_Driver/Src/stm32f3xx_hal_uart.c **** /**
2711:Drivers/STM32F3xx_HAL_Driver/Src/stm32f3xx_hal_uart.c ****   * @brief  Receive an amount of data in interrupt mode.
2712:Drivers/STM32F3xx_HAL_Driver/Src/stm32f3xx_hal_uart.c ****   * @note   Function is called under interruption only, once
2713:Drivers/STM32F3xx_HAL_Driver/Src/stm32f3xx_hal_uart.c ****   *         interruptions have been enabled by HAL_UART_Receive_IT()
2714:Drivers/STM32F3xx_HAL_Driver/Src/stm32f3xx_hal_uart.c ****   * @param  huart UART handle.
2715:Drivers/STM32F3xx_HAL_Driver/Src/stm32f3xx_hal_uart.c ****   * @retval HAL status
2716:Drivers/STM32F3xx_HAL_Driver/Src/stm32f3xx_hal_uart.c ****   */
2717:Drivers/STM32F3xx_HAL_Driver/Src/stm32f3xx_hal_uart.c **** HAL_StatusTypeDef UART_Receive_IT(UART_HandleTypeDef *huart)
2718:Drivers/STM32F3xx_HAL_Driver/Src/stm32f3xx_hal_uart.c **** {
 5045              		.loc 1 2718 1 is_stmt 1 view -0
 5046              		.cfi_startproc
 5047              		@ args = 0, pretend = 0, frame = 0
 5048              		@ frame_needed = 0, uses_anonymous_args = 0
2719:Drivers/STM32F3xx_HAL_Driver/Src/stm32f3xx_hal_uart.c ****   uint16_t* tmp;
 5049              		.loc 1 2719 3 view .LVU1559
2720:Drivers/STM32F3xx_HAL_Driver/Src/stm32f3xx_hal_uart.c ****   uint16_t  uhMask = huart->Mask;
 5050              		.loc 1 2720 3 view .LVU1560
2721:Drivers/STM32F3xx_HAL_Driver/Src/stm32f3xx_hal_uart.c ****   uint16_t  uhdata;
 5051              		.loc 1 2721 3 view .LVU1561
2722:Drivers/STM32F3xx_HAL_Driver/Src/stm32f3xx_hal_uart.c **** 
2723:Drivers/STM32F3xx_HAL_Driver/Src/stm32f3xx_hal_uart.c ****   /* Check that a Rx process is ongoing */
2724:Drivers/STM32F3xx_HAL_Driver/Src/stm32f3xx_hal_uart.c ****   if(huart->RxState == HAL_UART_STATE_BUSY_RX)
 5052              		.loc 1 2724 3 view .LVU1562
 5053              		.loc 1 2724 11 is_stmt 0 view .LVU1563
 5054 0000 90F86A20 		ldrb	r2, [r0, #106]	@ zero_extendqisi2
 5055              		.loc 1 2724 5 view .LVU1564
 5056 0004 222A     		cmp	r2, #34
2718:Drivers/STM32F3xx_HAL_Driver/Src/stm32f3xx_hal_uart.c ****   uint16_t* tmp;
 5057              		.loc 1 2718 1 view .LVU1565
 5058 0006 38B5     		push	{r3, r4, r5, lr}
 5059              	.LCFI80:
 5060              		.cfi_def_cfa_offset 16
 5061              		.cfi_offset 3, -16
 5062              		.cfi_offset 4, -12
 5063              		.cfi_offset 5, -8
 5064              		.cfi_offset 14, -4
ARM GAS  /var/folders/8c/gyvcglfx7f97kbqb2h83mm_r0000gn/T//ccv1qdBn.s 			page 158


 5065 0008 0368     		ldr	r3, [r0]
 5066              		.loc 1 2724 5 view .LVU1566
 5067 000a 2DD1     		bne	.L591
2725:Drivers/STM32F3xx_HAL_Driver/Src/stm32f3xx_hal_uart.c ****   {
2726:Drivers/STM32F3xx_HAL_Driver/Src/stm32f3xx_hal_uart.c ****     uhdata = (uint16_t) READ_REG(huart->Instance->RDR);
 5068              		.loc 1 2726 12 view .LVU1567
 5069 000c 9B8C     		ldrh	r3, [r3, #36]
2727:Drivers/STM32F3xx_HAL_Driver/Src/stm32f3xx_hal_uart.c ****     if ((huart->Init.WordLength == UART_WORDLENGTH_9B) && (huart->Init.Parity == UART_PARITY_NONE))
 5070              		.loc 1 2727 8 view .LVU1568
 5071 000e 8468     		ldr	r4, [r0, #8]
2720:Drivers/STM32F3xx_HAL_Driver/Src/stm32f3xx_hal_uart.c ****   uint16_t  uhdata;
 5072              		.loc 1 2720 13 view .LVU1569
 5073 0010 B0F85C10 		ldrh	r1, [r0, #92]
2726:Drivers/STM32F3xx_HAL_Driver/Src/stm32f3xx_hal_uart.c ****     if ((huart->Init.WordLength == UART_WORDLENGTH_9B) && (huart->Init.Parity == UART_PARITY_NONE))
 5074              		.loc 1 2726 5 is_stmt 1 view .LVU1570
 5075 0014 426D     		ldr	r2, [r0, #84]
2726:Drivers/STM32F3xx_HAL_Driver/Src/stm32f3xx_hal_uart.c ****     if ((huart->Init.WordLength == UART_WORDLENGTH_9B) && (huart->Init.Parity == UART_PARITY_NONE))
 5076              		.loc 1 2726 12 is_stmt 0 view .LVU1571
 5077 0016 9BB2     		uxth	r3, r3
 5078              	.LVL318:
 5079              		.loc 1 2727 5 is_stmt 1 view .LVU1572
 5080              		.loc 1 2727 8 is_stmt 0 view .LVU1573
 5081 0018 B4F5805F 		cmp	r4, #4096
2728:Drivers/STM32F3xx_HAL_Driver/Src/stm32f3xx_hal_uart.c ****     {
2729:Drivers/STM32F3xx_HAL_Driver/Src/stm32f3xx_hal_uart.c ****       tmp = (uint16_t*) huart->pRxBuffPtr ;
2730:Drivers/STM32F3xx_HAL_Driver/Src/stm32f3xx_hal_uart.c ****       *tmp = (uint16_t)(uhdata & uhMask);
 5082              		.loc 1 2730 14 view .LVU1574
 5083 001c 03EA0103 		and	r3, r3, r1
 5084              	.LVL319:
2727:Drivers/STM32F3xx_HAL_Driver/Src/stm32f3xx_hal_uart.c ****     {
 5085              		.loc 1 2727 8 view .LVU1575
 5086 0020 0BD0     		beq	.L597
 5087              	.L592:
2731:Drivers/STM32F3xx_HAL_Driver/Src/stm32f3xx_hal_uart.c ****       huart->pRxBuffPtr +=2U;
2732:Drivers/STM32F3xx_HAL_Driver/Src/stm32f3xx_hal_uart.c ****     }
2733:Drivers/STM32F3xx_HAL_Driver/Src/stm32f3xx_hal_uart.c ****     else
2734:Drivers/STM32F3xx_HAL_Driver/Src/stm32f3xx_hal_uart.c ****     {
2735:Drivers/STM32F3xx_HAL_Driver/Src/stm32f3xx_hal_uart.c ****       *huart->pRxBuffPtr++ = (uint8_t)(uhdata & (uint8_t)uhMask);
 5088              		.loc 1 2735 7 is_stmt 1 view .LVU1576
 5089              		.loc 1 2735 25 is_stmt 0 view .LVU1577
 5090 0022 511C     		adds	r1, r2, #1
 5091 0024 4165     		str	r1, [r0, #84]
 5092              		.loc 1 2735 28 view .LVU1578
 5093 0026 1370     		strb	r3, [r2]
 5094              	.LVL320:
 5095              	.L593:
2736:Drivers/STM32F3xx_HAL_Driver/Src/stm32f3xx_hal_uart.c ****     }
2737:Drivers/STM32F3xx_HAL_Driver/Src/stm32f3xx_hal_uart.c **** 
2738:Drivers/STM32F3xx_HAL_Driver/Src/stm32f3xx_hal_uart.c ****     if(--huart->RxXferCount == 0U)
 5096              		.loc 1 2738 5 is_stmt 1 view .LVU1579
 5097              		.loc 1 2738 15 is_stmt 0 view .LVU1580
 5098 0028 B0F85A40 		ldrh	r4, [r0, #90]
 5099              		.loc 1 2738 8 view .LVU1581
 5100 002c 013C     		subs	r4, r4, #1
 5101 002e A4B2     		uxth	r4, r4
 5102              		.loc 1 2738 7 view .LVU1582
 5103 0030 A0F85A40 		strh	r4, [r0, #90]	@ movhi
ARM GAS  /var/folders/8c/gyvcglfx7f97kbqb2h83mm_r0000gn/T//ccv1qdBn.s 			page 159


 5104 0034 44B1     		cbz	r4, .L598
2739:Drivers/STM32F3xx_HAL_Driver/Src/stm32f3xx_hal_uart.c ****     {
2740:Drivers/STM32F3xx_HAL_Driver/Src/stm32f3xx_hal_uart.c ****       /* Disable the UART Parity Error Interrupt and RXNE interrupt*/
2741:Drivers/STM32F3xx_HAL_Driver/Src/stm32f3xx_hal_uart.c ****       CLEAR_BIT(huart->Instance->CR1, (USART_CR1_RXNEIE | USART_CR1_PEIE));
2742:Drivers/STM32F3xx_HAL_Driver/Src/stm32f3xx_hal_uart.c **** 
2743:Drivers/STM32F3xx_HAL_Driver/Src/stm32f3xx_hal_uart.c ****       /* Disable the UART Error Interrupt: (Frame error, noise error, overrun error) */
2744:Drivers/STM32F3xx_HAL_Driver/Src/stm32f3xx_hal_uart.c ****       CLEAR_BIT(huart->Instance->CR3, USART_CR3_EIE);
2745:Drivers/STM32F3xx_HAL_Driver/Src/stm32f3xx_hal_uart.c **** 
2746:Drivers/STM32F3xx_HAL_Driver/Src/stm32f3xx_hal_uart.c ****       /* Rx process is completed, restore huart->RxState to Ready */
2747:Drivers/STM32F3xx_HAL_Driver/Src/stm32f3xx_hal_uart.c ****       huart->RxState = HAL_UART_STATE_READY;
2748:Drivers/STM32F3xx_HAL_Driver/Src/stm32f3xx_hal_uart.c **** 
2749:Drivers/STM32F3xx_HAL_Driver/Src/stm32f3xx_hal_uart.c ****       HAL_UART_RxCpltCallback(huart);
2750:Drivers/STM32F3xx_HAL_Driver/Src/stm32f3xx_hal_uart.c **** 
2751:Drivers/STM32F3xx_HAL_Driver/Src/stm32f3xx_hal_uart.c ****       return HAL_OK;
2752:Drivers/STM32F3xx_HAL_Driver/Src/stm32f3xx_hal_uart.c ****     }
2753:Drivers/STM32F3xx_HAL_Driver/Src/stm32f3xx_hal_uart.c **** 
2754:Drivers/STM32F3xx_HAL_Driver/Src/stm32f3xx_hal_uart.c ****     return HAL_OK;
 5105              		.loc 1 2754 12 view .LVU1583
 5106 0036 0020     		movs	r0, #0
 5107              	.LVL321:
2755:Drivers/STM32F3xx_HAL_Driver/Src/stm32f3xx_hal_uart.c ****   }
2756:Drivers/STM32F3xx_HAL_Driver/Src/stm32f3xx_hal_uart.c ****   else
2757:Drivers/STM32F3xx_HAL_Driver/Src/stm32f3xx_hal_uart.c ****   {
2758:Drivers/STM32F3xx_HAL_Driver/Src/stm32f3xx_hal_uart.c ****     /* Clear RXNE interrupt flag */
2759:Drivers/STM32F3xx_HAL_Driver/Src/stm32f3xx_hal_uart.c ****     __HAL_UART_SEND_REQ(huart, UART_RXDATA_FLUSH_REQUEST);
2760:Drivers/STM32F3xx_HAL_Driver/Src/stm32f3xx_hal_uart.c **** 
2761:Drivers/STM32F3xx_HAL_Driver/Src/stm32f3xx_hal_uart.c ****     return HAL_BUSY;
2762:Drivers/STM32F3xx_HAL_Driver/Src/stm32f3xx_hal_uart.c ****   }
2763:Drivers/STM32F3xx_HAL_Driver/Src/stm32f3xx_hal_uart.c **** }
 5108              		.loc 1 2763 1 view .LVU1584
 5109 0038 38BD     		pop	{r3, r4, r5, pc}
 5110              	.LVL322:
 5111              	.L597:
2727:Drivers/STM32F3xx_HAL_Driver/Src/stm32f3xx_hal_uart.c ****     {
 5112              		.loc 1 2727 56 discriminator 1 view .LVU1585
 5113 003a 0469     		ldr	r4, [r0, #16]
 5114 003c 002C     		cmp	r4, #0
 5115 003e F0D1     		bne	.L592
2729:Drivers/STM32F3xx_HAL_Driver/Src/stm32f3xx_hal_uart.c ****       *tmp = (uint16_t)(uhdata & uhMask);
 5116              		.loc 1 2729 7 is_stmt 1 view .LVU1586
 5117              	.LVL323:
2730:Drivers/STM32F3xx_HAL_Driver/Src/stm32f3xx_hal_uart.c ****       huart->pRxBuffPtr +=2U;
 5118              		.loc 1 2730 7 view .LVU1587
2730:Drivers/STM32F3xx_HAL_Driver/Src/stm32f3xx_hal_uart.c ****       huart->pRxBuffPtr +=2U;
 5119              		.loc 1 2730 12 is_stmt 0 view .LVU1588
 5120 0040 22F8023B 		strh	r3, [r2], #2	@ movhi
 5121              	.LVL324:
2731:Drivers/STM32F3xx_HAL_Driver/Src/stm32f3xx_hal_uart.c ****     }
 5122              		.loc 1 2731 7 is_stmt 1 view .LVU1589
2731:Drivers/STM32F3xx_HAL_Driver/Src/stm32f3xx_hal_uart.c ****     }
 5123              		.loc 1 2731 25 is_stmt 0 view .LVU1590
 5124 0044 4265     		str	r2, [r0, #84]
 5125              	.LVL325:
2731:Drivers/STM32F3xx_HAL_Driver/Src/stm32f3xx_hal_uart.c ****     }
 5126              		.loc 1 2731 25 view .LVU1591
 5127 0046 EFE7     		b	.L593
 5128              	.L598:
ARM GAS  /var/folders/8c/gyvcglfx7f97kbqb2h83mm_r0000gn/T//ccv1qdBn.s 			page 160


 5129              	.LVL326:
 5130              	.LBB36:
 5131              	.LBI36:
2717:Drivers/STM32F3xx_HAL_Driver/Src/stm32f3xx_hal_uart.c **** {
 5132              		.loc 1 2717 19 is_stmt 1 view .LVU1592
 5133              	.LBB37:
2741:Drivers/STM32F3xx_HAL_Driver/Src/stm32f3xx_hal_uart.c **** 
 5134              		.loc 1 2741 7 view .LVU1593
 5135 0048 0268     		ldr	r2, [r0]
 5136 004a 1168     		ldr	r1, [r2]
 5137 004c 21F49071 		bic	r1, r1, #288
 5138 0050 1160     		str	r1, [r2]
2744:Drivers/STM32F3xx_HAL_Driver/Src/stm32f3xx_hal_uart.c **** 
 5139              		.loc 1 2744 7 view .LVU1594
 5140 0052 9168     		ldr	r1, [r2, #8]
2747:Drivers/STM32F3xx_HAL_Driver/Src/stm32f3xx_hal_uart.c **** 
 5141              		.loc 1 2747 22 is_stmt 0 view .LVU1595
 5142 0054 2025     		movs	r5, #32
2744:Drivers/STM32F3xx_HAL_Driver/Src/stm32f3xx_hal_uart.c **** 
 5143              		.loc 1 2744 7 view .LVU1596
 5144 0056 21F00101 		bic	r1, r1, #1
 5145 005a 9160     		str	r1, [r2, #8]
2747:Drivers/STM32F3xx_HAL_Driver/Src/stm32f3xx_hal_uart.c **** 
 5146              		.loc 1 2747 7 is_stmt 1 view .LVU1597
2747:Drivers/STM32F3xx_HAL_Driver/Src/stm32f3xx_hal_uart.c **** 
 5147              		.loc 1 2747 22 is_stmt 0 view .LVU1598
 5148 005c 80F86A50 		strb	r5, [r0, #106]
2749:Drivers/STM32F3xx_HAL_Driver/Src/stm32f3xx_hal_uart.c **** 
 5149              		.loc 1 2749 7 is_stmt 1 view .LVU1599
 5150 0060 FFF7FEFF 		bl	HAL_UART_RxCpltCallback
 5151              	.LVL327:
2751:Drivers/STM32F3xx_HAL_Driver/Src/stm32f3xx_hal_uart.c ****     }
 5152              		.loc 1 2751 7 view .LVU1600
2749:Drivers/STM32F3xx_HAL_Driver/Src/stm32f3xx_hal_uart.c **** 
 5153              		.loc 1 2749 7 is_stmt 0 view .LVU1601
 5154 0064 2046     		mov	r0, r4
 5155              	.LBE37:
 5156              	.LBE36:
 5157              		.loc 1 2763 1 view .LVU1602
 5158 0066 38BD     		pop	{r3, r4, r5, pc}
 5159              	.LVL328:
 5160              	.L591:
2759:Drivers/STM32F3xx_HAL_Driver/Src/stm32f3xx_hal_uart.c **** 
 5161              		.loc 1 2759 5 is_stmt 1 view .LVU1603
 5162 0068 9A69     		ldr	r2, [r3, #24]
 5163 006a 42F00802 		orr	r2, r2, #8
 5164 006e 9A61     		str	r2, [r3, #24]
2761:Drivers/STM32F3xx_HAL_Driver/Src/stm32f3xx_hal_uart.c ****   }
 5165              		.loc 1 2761 5 view .LVU1604
2761:Drivers/STM32F3xx_HAL_Driver/Src/stm32f3xx_hal_uart.c ****   }
 5166              		.loc 1 2761 12 is_stmt 0 view .LVU1605
 5167 0070 0220     		movs	r0, #2
 5168              	.LVL329:
 5169              		.loc 1 2763 1 view .LVU1606
 5170 0072 38BD     		pop	{r3, r4, r5, pc}
 5171              		.cfi_endproc
 5172              	.LFE183:
ARM GAS  /var/folders/8c/gyvcglfx7f97kbqb2h83mm_r0000gn/T//ccv1qdBn.s 			page 161


 5174              		.section	.text.HAL_UART_IRQHandler,"ax",%progbits
 5175              		.align	1
 5176              		.p2align 2,,3
 5177              		.global	HAL_UART_IRQHandler
 5178              		.syntax unified
 5179              		.thumb
 5180              		.thumb_func
 5181              		.fpu fpv4-sp-d16
 5183              	HAL_UART_IRQHandler:
 5184              	.LVL330:
 5185              	.LFB148:
1617:Drivers/STM32F3xx_HAL_Driver/Src/stm32f3xx_hal_uart.c ****   uint32_t isrflags   = READ_REG(huart->Instance->ISR);
 5186              		.loc 1 1617 1 is_stmt 1 view -0
 5187              		.cfi_startproc
 5188              		@ args = 0, pretend = 0, frame = 0
 5189              		@ frame_needed = 0, uses_anonymous_args = 0
1618:Drivers/STM32F3xx_HAL_Driver/Src/stm32f3xx_hal_uart.c ****   uint32_t cr1its     = READ_REG(huart->Instance->CR1);
 5190              		.loc 1 1618 3 view .LVU1608
1618:Drivers/STM32F3xx_HAL_Driver/Src/stm32f3xx_hal_uart.c ****   uint32_t cr1its     = READ_REG(huart->Instance->CR1);
 5191              		.loc 1 1618 25 is_stmt 0 view .LVU1609
 5192 0000 0268     		ldr	r2, [r0]
1618:Drivers/STM32F3xx_HAL_Driver/Src/stm32f3xx_hal_uart.c ****   uint32_t cr1its     = READ_REG(huart->Instance->CR1);
 5193              		.loc 1 1618 12 view .LVU1610
 5194 0002 D369     		ldr	r3, [r2, #28]
 5195              	.LVL331:
1619:Drivers/STM32F3xx_HAL_Driver/Src/stm32f3xx_hal_uart.c ****   uint32_t cr3its;
 5196              		.loc 1 1619 3 is_stmt 1 view .LVU1611
1619:Drivers/STM32F3xx_HAL_Driver/Src/stm32f3xx_hal_uart.c ****   uint32_t cr3its;
 5197              		.loc 1 1619 12 is_stmt 0 view .LVU1612
 5198 0004 1168     		ldr	r1, [r2]
 5199              	.LVL332:
1620:Drivers/STM32F3xx_HAL_Driver/Src/stm32f3xx_hal_uart.c ****   uint32_t errorflags;
 5200              		.loc 1 1620 3 is_stmt 1 view .LVU1613
1621:Drivers/STM32F3xx_HAL_Driver/Src/stm32f3xx_hal_uart.c **** 
 5201              		.loc 1 1621 3 view .LVU1614
1624:Drivers/STM32F3xx_HAL_Driver/Src/stm32f3xx_hal_uart.c ****   if (errorflags == RESET)
 5202              		.loc 1 1624 3 view .LVU1615
1625:Drivers/STM32F3xx_HAL_Driver/Src/stm32f3xx_hal_uart.c ****   {
 5203              		.loc 1 1625 3 view .LVU1616
1617:Drivers/STM32F3xx_HAL_Driver/Src/stm32f3xx_hal_uart.c ****   uint32_t isrflags   = READ_REG(huart->Instance->ISR);
 5204              		.loc 1 1617 1 is_stmt 0 view .LVU1617
 5205 0006 70B5     		push	{r4, r5, r6, lr}
 5206              	.LCFI81:
 5207              		.cfi_def_cfa_offset 16
 5208              		.cfi_offset 4, -16
 5209              		.cfi_offset 5, -12
 5210              		.cfi_offset 6, -8
 5211              		.cfi_offset 14, -4
1625:Drivers/STM32F3xx_HAL_Driver/Src/stm32f3xx_hal_uart.c ****   {
 5212              		.loc 1 1625 6 view .LVU1618
 5213 0008 1E07     		lsls	r6, r3, #28
1617:Drivers/STM32F3xx_HAL_Driver/Src/stm32f3xx_hal_uart.c ****   uint32_t isrflags   = READ_REG(huart->Instance->ISR);
 5214              		.loc 1 1617 1 view .LVU1619
 5215 000a 0446     		mov	r4, r0
1625:Drivers/STM32F3xx_HAL_Driver/Src/stm32f3xx_hal_uart.c ****   {
 5216              		.loc 1 1625 6 view .LVU1620
 5217 000c 16D1     		bne	.L600
ARM GAS  /var/folders/8c/gyvcglfx7f97kbqb2h83mm_r0000gn/T//ccv1qdBn.s 			page 162


1628:Drivers/STM32F3xx_HAL_Driver/Src/stm32f3xx_hal_uart.c ****     {
 5218              		.loc 1 1628 5 is_stmt 1 view .LVU1621
1628:Drivers/STM32F3xx_HAL_Driver/Src/stm32f3xx_hal_uart.c ****     {
 5219              		.loc 1 1628 7 is_stmt 0 view .LVU1622
 5220 000e 9D06     		lsls	r5, r3, #26
 5221 0010 0ED4     		bmi	.L678
 5222              	.L601:
1636:Drivers/STM32F3xx_HAL_Driver/Src/stm32f3xx_hal_uart.c ****   if(   (errorflags != RESET)
 5223              		.loc 1 1636 3 is_stmt 1 view .LVU1623
1636:Drivers/STM32F3xx_HAL_Driver/Src/stm32f3xx_hal_uart.c ****   if(   (errorflags != RESET)
 5224              		.loc 1 1636 10 is_stmt 0 view .LVU1624
 5225 0012 9568     		ldr	r5, [r2, #8]
 5226              	.LVL333:
1637:Drivers/STM32F3xx_HAL_Driver/Src/stm32f3xx_hal_uart.c ****      && (   ((cr3its & USART_CR3_EIE) != RESET)
 5227              		.loc 1 1637 3 is_stmt 1 view .LVU1625
 5228              	.L618:
1737:Drivers/STM32F3xx_HAL_Driver/Src/stm32f3xx_hal_uart.c ****   {
 5229              		.loc 1 1737 3 view .LVU1626
1737:Drivers/STM32F3xx_HAL_Driver/Src/stm32f3xx_hal_uart.c ****   {
 5230              		.loc 1 1737 5 is_stmt 0 view .LVU1627
 5231 0014 DE02     		lsls	r6, r3, #11
 5232 0016 01D5     		bpl	.L616
1737:Drivers/STM32F3xx_HAL_Driver/Src/stm32f3xx_hal_uart.c ****   {
 5233              		.loc 1 1737 44 discriminator 1 view .LVU1628
 5234 0018 6802     		lsls	r0, r5, #9
 5235 001a 7BD4     		bmi	.L679
 5236              	.L616:
1748:Drivers/STM32F3xx_HAL_Driver/Src/stm32f3xx_hal_uart.c ****   {
 5237              		.loc 1 1748 3 is_stmt 1 view .LVU1629
1748:Drivers/STM32F3xx_HAL_Driver/Src/stm32f3xx_hal_uart.c ****   {
 5238              		.loc 1 1748 5 is_stmt 0 view .LVU1630
 5239 001c 1E06     		lsls	r6, r3, #24
 5240 001e 02D5     		bpl	.L617
1748:Drivers/STM32F3xx_HAL_Driver/Src/stm32f3xx_hal_uart.c ****   {
 5241              		.loc 1 1748 44 discriminator 1 view .LVU1631
 5242 0020 0D06     		lsls	r5, r1, #24
 5243              	.LVL334:
1748:Drivers/STM32F3xx_HAL_Driver/Src/stm32f3xx_hal_uart.c ****   {
 5244              		.loc 1 1748 44 discriminator 1 view .LVU1632
 5245 0022 00F18480 		bmi	.L680
 5246              	.L617:
1755:Drivers/STM32F3xx_HAL_Driver/Src/stm32f3xx_hal_uart.c ****   {
 5247              		.loc 1 1755 3 is_stmt 1 view .LVU1633
1755:Drivers/STM32F3xx_HAL_Driver/Src/stm32f3xx_hal_uart.c ****   {
 5248              		.loc 1 1755 5 is_stmt 0 view .LVU1634
 5249 0026 5806     		lsls	r0, r3, #25
 5250 0028 01D5     		bpl	.L599
1755:Drivers/STM32F3xx_HAL_Driver/Src/stm32f3xx_hal_uart.c ****   {
 5251              		.loc 1 1755 43 discriminator 1 view .LVU1635
 5252 002a 4B06     		lsls	r3, r1, #25
 5253              	.LVL335:
1755:Drivers/STM32F3xx_HAL_Driver/Src/stm32f3xx_hal_uart.c ****   {
 5254              		.loc 1 1755 43 discriminator 1 view .LVU1636
 5255 002c 67D4     		bmi	.L681
 5256              	.LVL336:
 5257              	.L599:
1761:Drivers/STM32F3xx_HAL_Driver/Src/stm32f3xx_hal_uart.c **** 
ARM GAS  /var/folders/8c/gyvcglfx7f97kbqb2h83mm_r0000gn/T//ccv1qdBn.s 			page 163


 5258              		.loc 1 1761 1 view .LVU1637
 5259 002e 70BD     		pop	{r4, r5, r6, pc}
 5260              	.LVL337:
 5261              	.L678:
1628:Drivers/STM32F3xx_HAL_Driver/Src/stm32f3xx_hal_uart.c ****     {
 5262              		.loc 1 1628 47 discriminator 1 view .LVU1638
 5263 0030 8E06     		lsls	r6, r1, #26
 5264 0032 EED5     		bpl	.L601
1630:Drivers/STM32F3xx_HAL_Driver/Src/stm32f3xx_hal_uart.c ****       return;
 5265              		.loc 1 1630 7 is_stmt 1 view .LVU1639
1761:Drivers/STM32F3xx_HAL_Driver/Src/stm32f3xx_hal_uart.c **** 
 5266              		.loc 1 1761 1 is_stmt 0 view .LVU1640
 5267 0034 BDE87040 		pop	{r4, r5, r6, lr}
 5268              	.LCFI82:
 5269              		.cfi_remember_state
 5270              		.cfi_restore 14
 5271              		.cfi_restore 6
 5272              		.cfi_restore 5
 5273              		.cfi_restore 4
 5274              		.cfi_def_cfa_offset 0
1630:Drivers/STM32F3xx_HAL_Driver/Src/stm32f3xx_hal_uart.c ****       return;
 5275              		.loc 1 1630 7 view .LVU1641
 5276 0038 FFF7FEBF 		b	UART_Receive_IT
 5277              	.LVL338:
 5278              	.L600:
 5279              	.LCFI83:
 5280              		.cfi_restore_state
1636:Drivers/STM32F3xx_HAL_Driver/Src/stm32f3xx_hal_uart.c ****   if(   (errorflags != RESET)
 5281              		.loc 1 1636 3 is_stmt 1 view .LVU1642
1636:Drivers/STM32F3xx_HAL_Driver/Src/stm32f3xx_hal_uart.c ****   if(   (errorflags != RESET)
 5282              		.loc 1 1636 10 is_stmt 0 view .LVU1643
 5283 003c 9568     		ldr	r5, [r2, #8]
 5284              	.LVL339:
1637:Drivers/STM32F3xx_HAL_Driver/Src/stm32f3xx_hal_uart.c ****      && (   ((cr3its & USART_CR3_EIE) != RESET)
 5285              		.loc 1 1637 3 is_stmt 1 view .LVU1644
1639:Drivers/STM32F3xx_HAL_Driver/Src/stm32f3xx_hal_uart.c ****   {
 5286              		.loc 1 1639 22 is_stmt 0 view .LVU1645
 5287 003e 01F49070 		and	r0, r1, #288
 5288              	.LVL340:
1638:Drivers/STM32F3xx_HAL_Driver/Src/stm32f3xx_hal_uart.c ****          || ((cr1its & (USART_CR1_RXNEIE | USART_CR1_PEIE)) != RESET)) )
 5289              		.loc 1 1638 22 view .LVU1646
 5290 0042 05F00106 		and	r6, r5, #1
1639:Drivers/STM32F3xx_HAL_Driver/Src/stm32f3xx_hal_uart.c ****   {
 5291              		.loc 1 1639 10 view .LVU1647
 5292 0046 3043     		orrs	r0, r0, r6
 5293 0048 E4D0     		beq	.L618
1642:Drivers/STM32F3xx_HAL_Driver/Src/stm32f3xx_hal_uart.c ****     {
 5294              		.loc 1 1642 5 is_stmt 1 view .LVU1648
1642:Drivers/STM32F3xx_HAL_Driver/Src/stm32f3xx_hal_uart.c ****     {
 5295              		.loc 1 1642 7 is_stmt 0 view .LVU1649
 5296 004a DD07     		lsls	r5, r3, #31
 5297              	.LVL341:
1642:Drivers/STM32F3xx_HAL_Driver/Src/stm32f3xx_hal_uart.c ****     {
 5298              		.loc 1 1642 7 view .LVU1650
 5299 004c 07D5     		bpl	.L602
1642:Drivers/STM32F3xx_HAL_Driver/Src/stm32f3xx_hal_uart.c ****     {
 5300              		.loc 1 1642 45 discriminator 1 view .LVU1651
ARM GAS  /var/folders/8c/gyvcglfx7f97kbqb2h83mm_r0000gn/T//ccv1qdBn.s 			page 164


 5301 004e C805     		lsls	r0, r1, #23
 5302 0050 05D5     		bpl	.L602
1644:Drivers/STM32F3xx_HAL_Driver/Src/stm32f3xx_hal_uart.c **** 
 5303              		.loc 1 1644 7 is_stmt 1 view .LVU1652
 5304 0052 0120     		movs	r0, #1
 5305 0054 1062     		str	r0, [r2, #32]
1646:Drivers/STM32F3xx_HAL_Driver/Src/stm32f3xx_hal_uart.c ****     }
 5306              		.loc 1 1646 7 view .LVU1653
1646:Drivers/STM32F3xx_HAL_Driver/Src/stm32f3xx_hal_uart.c ****     }
 5307              		.loc 1 1646 24 is_stmt 0 view .LVU1654
 5308 0056 E06E     		ldr	r0, [r4, #108]
 5309 0058 40F00100 		orr	r0, r0, #1
 5310 005c E066     		str	r0, [r4, #108]
 5311              	.L602:
1650:Drivers/STM32F3xx_HAL_Driver/Src/stm32f3xx_hal_uart.c ****     {
 5312              		.loc 1 1650 5 is_stmt 1 view .LVU1655
1650:Drivers/STM32F3xx_HAL_Driver/Src/stm32f3xx_hal_uart.c ****     {
 5313              		.loc 1 1650 7 is_stmt 0 view .LVU1656
 5314 005e 9D07     		lsls	r5, r3, #30
 5315 0060 42D5     		bpl	.L603
1650:Drivers/STM32F3xx_HAL_Driver/Src/stm32f3xx_hal_uart.c ****     {
 5316              		.loc 1 1650 45 discriminator 1 view .LVU1657
 5317 0062 3EB1     		cbz	r6, .L605
1652:Drivers/STM32F3xx_HAL_Driver/Src/stm32f3xx_hal_uart.c **** 
 5318              		.loc 1 1652 7 is_stmt 1 view .LVU1658
 5319 0064 0220     		movs	r0, #2
 5320 0066 1062     		str	r0, [r2, #32]
1654:Drivers/STM32F3xx_HAL_Driver/Src/stm32f3xx_hal_uart.c ****     }
 5321              		.loc 1 1654 7 view .LVU1659
1654:Drivers/STM32F3xx_HAL_Driver/Src/stm32f3xx_hal_uart.c ****     }
 5322              		.loc 1 1654 24 is_stmt 0 view .LVU1660
 5323 0068 E06E     		ldr	r0, [r4, #108]
 5324 006a 40F00400 		orr	r0, r0, #4
 5325 006e E066     		str	r0, [r4, #108]
1658:Drivers/STM32F3xx_HAL_Driver/Src/stm32f3xx_hal_uart.c ****     {
 5326              		.loc 1 1658 5 is_stmt 1 view .LVU1661
1658:Drivers/STM32F3xx_HAL_Driver/Src/stm32f3xx_hal_uart.c ****     {
 5327              		.loc 1 1658 7 is_stmt 0 view .LVU1662
 5328 0070 5807     		lsls	r0, r3, #29
 5329 0072 3DD4     		bmi	.L607
 5330              	.L605:
1666:Drivers/STM32F3xx_HAL_Driver/Src/stm32f3xx_hal_uart.c ****        (((cr1its & USART_CR1_RXNEIE) != RESET) || ((cr3its & USART_CR3_EIE) != RESET)))
 5331              		.loc 1 1666 5 is_stmt 1 view .LVU1663
1666:Drivers/STM32F3xx_HAL_Driver/Src/stm32f3xx_hal_uart.c ****        (((cr1its & USART_CR1_RXNEIE) != RESET) || ((cr3its & USART_CR3_EIE) != RESET)))
 5332              		.loc 1 1666 7 is_stmt 0 view .LVU1664
 5333 0074 1807     		lsls	r0, r3, #28
 5334 0076 09D5     		bpl	.L608
1667:Drivers/STM32F3xx_HAL_Driver/Src/stm32f3xx_hal_uart.c ****     {
 5335              		.loc 1 1667 18 discriminator 1 view .LVU1665
 5336 0078 01F02000 		and	r0, r1, #32
1666:Drivers/STM32F3xx_HAL_Driver/Src/stm32f3xx_hal_uart.c ****        (((cr1its & USART_CR1_RXNEIE) != RESET) || ((cr3its & USART_CR3_EIE) != RESET)))
 5337              		.loc 1 1666 46 discriminator 1 view .LVU1666
 5338 007c 3043     		orrs	r0, r0, r6
 5339 007e 05D0     		beq	.L608
1669:Drivers/STM32F3xx_HAL_Driver/Src/stm32f3xx_hal_uart.c **** 
 5340              		.loc 1 1669 7 is_stmt 1 view .LVU1667
 5341 0080 0820     		movs	r0, #8
ARM GAS  /var/folders/8c/gyvcglfx7f97kbqb2h83mm_r0000gn/T//ccv1qdBn.s 			page 165


 5342 0082 1062     		str	r0, [r2, #32]
1671:Drivers/STM32F3xx_HAL_Driver/Src/stm32f3xx_hal_uart.c ****     }
 5343              		.loc 1 1671 7 view .LVU1668
1671:Drivers/STM32F3xx_HAL_Driver/Src/stm32f3xx_hal_uart.c ****     }
 5344              		.loc 1 1671 24 is_stmt 0 view .LVU1669
 5345 0084 E06E     		ldr	r0, [r4, #108]
 5346 0086 40F00800 		orr	r0, r0, #8
 5347 008a E066     		str	r0, [r4, #108]
 5348              	.L608:
1675:Drivers/STM32F3xx_HAL_Driver/Src/stm32f3xx_hal_uart.c ****     {
 5349              		.loc 1 1675 5 is_stmt 1 view .LVU1670
1675:Drivers/STM32F3xx_HAL_Driver/Src/stm32f3xx_hal_uart.c ****     {
 5350              		.loc 1 1675 13 is_stmt 0 view .LVU1671
 5351 008c E06E     		ldr	r0, [r4, #108]
1675:Drivers/STM32F3xx_HAL_Driver/Src/stm32f3xx_hal_uart.c ****     {
 5352              		.loc 1 1675 7 view .LVU1672
 5353 008e 0028     		cmp	r0, #0
 5354 0090 CDD0     		beq	.L599
1678:Drivers/STM32F3xx_HAL_Driver/Src/stm32f3xx_hal_uart.c ****       {
 5355              		.loc 1 1678 7 is_stmt 1 view .LVU1673
1678:Drivers/STM32F3xx_HAL_Driver/Src/stm32f3xx_hal_uart.c ****       {
 5356              		.loc 1 1678 9 is_stmt 0 view .LVU1674
 5357 0092 9D06     		lsls	r5, r3, #26
 5358 0094 01D5     		bpl	.L611
1678:Drivers/STM32F3xx_HAL_Driver/Src/stm32f3xx_hal_uart.c ****       {
 5359              		.loc 1 1678 49 discriminator 1 view .LVU1675
 5360 0096 8806     		lsls	r0, r1, #26
 5361 0098 57D4     		bmi	.L682
 5362              	.LVL342:
 5363              	.L611:
1685:Drivers/STM32F3xx_HAL_Driver/Src/stm32f3xx_hal_uart.c ****           (HAL_IS_BIT_SET(huart->Instance->CR3, USART_CR3_DMAR)))
 5364              		.loc 1 1685 7 is_stmt 1 view .LVU1676
1685:Drivers/STM32F3xx_HAL_Driver/Src/stm32f3xx_hal_uart.c ****           (HAL_IS_BIT_SET(huart->Instance->CR3, USART_CR3_DMAR)))
 5365              		.loc 1 1685 18 is_stmt 0 view .LVU1677
 5366 009a E36E     		ldr	r3, [r4, #108]
1685:Drivers/STM32F3xx_HAL_Driver/Src/stm32f3xx_hal_uart.c ****           (HAL_IS_BIT_SET(huart->Instance->CR3, USART_CR3_DMAR)))
 5367              		.loc 1 1685 10 view .LVU1678
 5368 009c 1907     		lsls	r1, r3, #28
 5369 009e 03D4     		bmi	.L612
1686:Drivers/STM32F3xx_HAL_Driver/Src/stm32f3xx_hal_uart.c ****       {  
 5370              		.loc 1 1686 12 discriminator 1 view .LVU1679
 5371 00a0 9568     		ldr	r5, [r2, #8]
1685:Drivers/STM32F3xx_HAL_Driver/Src/stm32f3xx_hal_uart.c ****           (HAL_IS_BIT_SET(huart->Instance->CR3, USART_CR3_DMAR)))
 5372              		.loc 1 1685 62 discriminator 1 view .LVU1680
 5373 00a2 15F04005 		ands	r5, r5, #64
 5374 00a6 4BD0     		beq	.L613
 5375              	.L612:
1691:Drivers/STM32F3xx_HAL_Driver/Src/stm32f3xx_hal_uart.c **** 
 5376              		.loc 1 1691 9 is_stmt 1 view .LVU1681
 5377              	.LVL343:
 5378              	.LBB38:
 5379              	.LBI38:
2378:Drivers/STM32F3xx_HAL_Driver/Src/stm32f3xx_hal_uart.c **** {
 5380              		.loc 1 2378 13 view .LVU1682
 5381              	.LBB39:
2381:Drivers/STM32F3xx_HAL_Driver/Src/stm32f3xx_hal_uart.c ****   CLEAR_BIT(huart->Instance->CR3, USART_CR3_EIE);
 5382              		.loc 1 2381 3 view .LVU1683
ARM GAS  /var/folders/8c/gyvcglfx7f97kbqb2h83mm_r0000gn/T//ccv1qdBn.s 			page 166


 5383 00a8 1368     		ldr	r3, [r2]
 5384 00aa 23F49073 		bic	r3, r3, #288
 5385 00ae 1360     		str	r3, [r2]
2382:Drivers/STM32F3xx_HAL_Driver/Src/stm32f3xx_hal_uart.c **** 
 5386              		.loc 1 2382 3 view .LVU1684
 5387 00b0 9368     		ldr	r3, [r2, #8]
2385:Drivers/STM32F3xx_HAL_Driver/Src/stm32f3xx_hal_uart.c **** }
 5388              		.loc 1 2385 18 is_stmt 0 view .LVU1685
 5389 00b2 2021     		movs	r1, #32
2382:Drivers/STM32F3xx_HAL_Driver/Src/stm32f3xx_hal_uart.c **** 
 5390              		.loc 1 2382 3 view .LVU1686
 5391 00b4 23F00103 		bic	r3, r3, #1
 5392 00b8 9360     		str	r3, [r2, #8]
2385:Drivers/STM32F3xx_HAL_Driver/Src/stm32f3xx_hal_uart.c **** }
 5393              		.loc 1 2385 3 is_stmt 1 view .LVU1687
2385:Drivers/STM32F3xx_HAL_Driver/Src/stm32f3xx_hal_uart.c **** }
 5394              		.loc 1 2385 18 is_stmt 0 view .LVU1688
 5395 00ba 84F86A10 		strb	r1, [r4, #106]
 5396              	.LVL344:
2385:Drivers/STM32F3xx_HAL_Driver/Src/stm32f3xx_hal_uart.c **** }
 5397              		.loc 1 2385 18 view .LVU1689
 5398              	.LBE39:
 5399              	.LBE38:
1694:Drivers/STM32F3xx_HAL_Driver/Src/stm32f3xx_hal_uart.c ****         {
 5400              		.loc 1 1694 9 is_stmt 1 view .LVU1690
1694:Drivers/STM32F3xx_HAL_Driver/Src/stm32f3xx_hal_uart.c ****         {
 5401              		.loc 1 1694 13 is_stmt 0 view .LVU1691
 5402 00be 9368     		ldr	r3, [r2, #8]
1694:Drivers/STM32F3xx_HAL_Driver/Src/stm32f3xx_hal_uart.c ****         {
 5403              		.loc 1 1694 12 view .LVU1692
 5404 00c0 5B06     		lsls	r3, r3, #25
 5405 00c2 39D5     		bpl	.L614
1696:Drivers/STM32F3xx_HAL_Driver/Src/stm32f3xx_hal_uart.c **** 
 5406              		.loc 1 1696 11 is_stmt 1 view .LVU1693
 5407 00c4 9368     		ldr	r3, [r2, #8]
1699:Drivers/STM32F3xx_HAL_Driver/Src/stm32f3xx_hal_uart.c ****           {
 5408              		.loc 1 1699 19 is_stmt 0 view .LVU1694
 5409 00c6 606E     		ldr	r0, [r4, #100]
1696:Drivers/STM32F3xx_HAL_Driver/Src/stm32f3xx_hal_uart.c **** 
 5410              		.loc 1 1696 11 view .LVU1695
 5411 00c8 23F04003 		bic	r3, r3, #64
 5412 00cc 9360     		str	r3, [r2, #8]
1699:Drivers/STM32F3xx_HAL_Driver/Src/stm32f3xx_hal_uart.c ****           {
 5413              		.loc 1 1699 11 is_stmt 1 view .LVU1696
1699:Drivers/STM32F3xx_HAL_Driver/Src/stm32f3xx_hal_uart.c ****           {
 5414              		.loc 1 1699 13 is_stmt 0 view .LVU1697
 5415 00ce 0028     		cmp	r0, #0
 5416 00d0 32D0     		beq	.L614
1703:Drivers/STM32F3xx_HAL_Driver/Src/stm32f3xx_hal_uart.c **** 
 5417              		.loc 1 1703 13 is_stmt 1 view .LVU1698
1703:Drivers/STM32F3xx_HAL_Driver/Src/stm32f3xx_hal_uart.c **** 
 5418              		.loc 1 1703 46 is_stmt 0 view .LVU1699
 5419 00d2 204B     		ldr	r3, .L683
 5420 00d4 4363     		str	r3, [r0, #52]
1706:Drivers/STM32F3xx_HAL_Driver/Src/stm32f3xx_hal_uart.c ****             {
 5421              		.loc 1 1706 13 is_stmt 1 view .LVU1700
1706:Drivers/STM32F3xx_HAL_Driver/Src/stm32f3xx_hal_uart.c ****             {
ARM GAS  /var/folders/8c/gyvcglfx7f97kbqb2h83mm_r0000gn/T//ccv1qdBn.s 			page 167


 5422              		.loc 1 1706 16 is_stmt 0 view .LVU1701
 5423 00d6 FFF7FEFF 		bl	HAL_DMA_Abort_IT
 5424              	.LVL345:
1706:Drivers/STM32F3xx_HAL_Driver/Src/stm32f3xx_hal_uart.c ****             {
 5425              		.loc 1 1706 15 view .LVU1702
 5426 00da 0028     		cmp	r0, #0
 5427 00dc A7D0     		beq	.L599
1709:Drivers/STM32F3xx_HAL_Driver/Src/stm32f3xx_hal_uart.c ****             }
 5428              		.loc 1 1709 15 is_stmt 1 view .LVU1703
1709:Drivers/STM32F3xx_HAL_Driver/Src/stm32f3xx_hal_uart.c ****             }
 5429              		.loc 1 1709 20 is_stmt 0 view .LVU1704
 5430 00de 606E     		ldr	r0, [r4, #100]
1761:Drivers/STM32F3xx_HAL_Driver/Src/stm32f3xx_hal_uart.c **** 
 5431              		.loc 1 1761 1 view .LVU1705
 5432 00e0 BDE87040 		pop	{r4, r5, r6, lr}
 5433              	.LCFI84:
 5434              		.cfi_remember_state
 5435              		.cfi_restore 14
 5436              		.cfi_restore 6
 5437              		.cfi_restore 5
 5438              		.cfi_restore 4
 5439              		.cfi_def_cfa_offset 0
 5440              	.LVL346:
1709:Drivers/STM32F3xx_HAL_Driver/Src/stm32f3xx_hal_uart.c ****             }
 5441              		.loc 1 1709 15 view .LVU1706
 5442 00e4 436B     		ldr	r3, [r0, #52]
 5443 00e6 1847     		bx	r3	@ indirect register sibling call
 5444              	.LVL347:
 5445              	.L603:
 5446              	.LCFI85:
 5447              		.cfi_restore_state
1658:Drivers/STM32F3xx_HAL_Driver/Src/stm32f3xx_hal_uart.c ****     {
 5448              		.loc 1 1658 5 is_stmt 1 view .LVU1707
1658:Drivers/STM32F3xx_HAL_Driver/Src/stm32f3xx_hal_uart.c ****     {
 5449              		.loc 1 1658 7 is_stmt 0 view .LVU1708
 5450 00e8 5D07     		lsls	r5, r3, #29
 5451 00ea C3D5     		bpl	.L605
1658:Drivers/STM32F3xx_HAL_Driver/Src/stm32f3xx_hal_uart.c ****     {
 5452              		.loc 1 1658 45 discriminator 1 view .LVU1709
 5453 00ec 002E     		cmp	r6, #0
 5454 00ee C1D0     		beq	.L605
 5455              	.L607:
1660:Drivers/STM32F3xx_HAL_Driver/Src/stm32f3xx_hal_uart.c **** 
 5456              		.loc 1 1660 7 is_stmt 1 view .LVU1710
 5457 00f0 0420     		movs	r0, #4
 5458 00f2 1062     		str	r0, [r2, #32]
1662:Drivers/STM32F3xx_HAL_Driver/Src/stm32f3xx_hal_uart.c ****     }
 5459              		.loc 1 1662 7 view .LVU1711
1662:Drivers/STM32F3xx_HAL_Driver/Src/stm32f3xx_hal_uart.c ****     }
 5460              		.loc 1 1662 24 is_stmt 0 view .LVU1712
 5461 00f4 E06E     		ldr	r0, [r4, #108]
 5462 00f6 40F00200 		orr	r0, r0, #2
 5463 00fa E066     		str	r0, [r4, #108]
 5464 00fc BAE7     		b	.L605
 5465              	.LVL348:
 5466              	.L681:
1757:Drivers/STM32F3xx_HAL_Driver/Src/stm32f3xx_hal_uart.c ****     return;
ARM GAS  /var/folders/8c/gyvcglfx7f97kbqb2h83mm_r0000gn/T//ccv1qdBn.s 			page 168


 5467              		.loc 1 1757 5 is_stmt 1 view .LVU1713
 5468              	.LBB40:
 5469              	.LBI40:
2697:Drivers/STM32F3xx_HAL_Driver/Src/stm32f3xx_hal_uart.c **** {
 5470              		.loc 1 2697 19 view .LVU1714
 5471              	.LBB41:
2700:Drivers/STM32F3xx_HAL_Driver/Src/stm32f3xx_hal_uart.c **** 
 5472              		.loc 1 2700 3 view .LVU1715
 5473 00fe 1368     		ldr	r3, [r2]
2703:Drivers/STM32F3xx_HAL_Driver/Src/stm32f3xx_hal_uart.c **** 
 5474              		.loc 1 2703 17 is_stmt 0 view .LVU1716
 5475 0100 2021     		movs	r1, #32
 5476              	.LVL349:
2700:Drivers/STM32F3xx_HAL_Driver/Src/stm32f3xx_hal_uart.c **** 
 5477              		.loc 1 2700 3 view .LVU1717
 5478 0102 23F04003 		bic	r3, r3, #64
 5479 0106 1360     		str	r3, [r2]
2703:Drivers/STM32F3xx_HAL_Driver/Src/stm32f3xx_hal_uart.c **** 
 5480              		.loc 1 2703 3 is_stmt 1 view .LVU1718
2705:Drivers/STM32F3xx_HAL_Driver/Src/stm32f3xx_hal_uart.c **** 
 5481              		.loc 1 2705 3 is_stmt 0 view .LVU1719
 5482 0108 2046     		mov	r0, r4
2703:Drivers/STM32F3xx_HAL_Driver/Src/stm32f3xx_hal_uart.c **** 
 5483              		.loc 1 2703 17 view .LVU1720
 5484 010a 84F86910 		strb	r1, [r4, #105]
2705:Drivers/STM32F3xx_HAL_Driver/Src/stm32f3xx_hal_uart.c **** 
 5485              		.loc 1 2705 3 is_stmt 1 view .LVU1721
 5486 010e FFF7FEFF 		bl	HAL_UART_TxCpltCallback
 5487              	.LVL350:
2707:Drivers/STM32F3xx_HAL_Driver/Src/stm32f3xx_hal_uart.c **** }
 5488              		.loc 1 2707 3 view .LVU1722
2707:Drivers/STM32F3xx_HAL_Driver/Src/stm32f3xx_hal_uart.c **** }
 5489              		.loc 1 2707 3 is_stmt 0 view .LVU1723
 5490              	.LBE41:
 5491              	.LBE40:
1758:Drivers/STM32F3xx_HAL_Driver/Src/stm32f3xx_hal_uart.c ****   }
 5492              		.loc 1 1758 5 is_stmt 1 view .LVU1724
1761:Drivers/STM32F3xx_HAL_Driver/Src/stm32f3xx_hal_uart.c **** 
 5493              		.loc 1 1761 1 is_stmt 0 view .LVU1725
 5494 0112 70BD     		pop	{r4, r5, r6, pc}
 5495              	.LVL351:
 5496              	.L679:
1739:Drivers/STM32F3xx_HAL_Driver/Src/stm32f3xx_hal_uart.c ****     /* Set the UART state ready to be able to start again the process */
 5497              		.loc 1 1739 5 is_stmt 1 view .LVU1726
1741:Drivers/STM32F3xx_HAL_Driver/Src/stm32f3xx_hal_uart.c ****     huart->RxState = HAL_UART_STATE_READY;
 5498              		.loc 1 1741 20 is_stmt 0 view .LVU1727
 5499 0114 2023     		movs	r3, #32
 5500              	.LVL352:
1739:Drivers/STM32F3xx_HAL_Driver/Src/stm32f3xx_hal_uart.c ****     /* Set the UART state ready to be able to start again the process */
 5501              		.loc 1 1739 5 view .LVU1728
 5502 0116 4FF48011 		mov	r1, #1048576
 5503              	.LVL353:
1739:Drivers/STM32F3xx_HAL_Driver/Src/stm32f3xx_hal_uart.c ****     /* Set the UART state ready to be able to start again the process */
 5504              		.loc 1 1739 5 view .LVU1729
 5505 011a 1162     		str	r1, [r2, #32]
1741:Drivers/STM32F3xx_HAL_Driver/Src/stm32f3xx_hal_uart.c ****     huart->RxState = HAL_UART_STATE_READY;
 5506              		.loc 1 1741 5 is_stmt 1 view .LVU1730
ARM GAS  /var/folders/8c/gyvcglfx7f97kbqb2h83mm_r0000gn/T//ccv1qdBn.s 			page 169


1743:Drivers/STM32F3xx_HAL_Driver/Src/stm32f3xx_hal_uart.c ****     return;
 5507              		.loc 1 1743 5 is_stmt 0 view .LVU1731
 5508 011c 2046     		mov	r0, r4
1741:Drivers/STM32F3xx_HAL_Driver/Src/stm32f3xx_hal_uart.c ****     huart->RxState = HAL_UART_STATE_READY;
 5509              		.loc 1 1741 20 view .LVU1732
 5510 011e 84F86930 		strb	r3, [r4, #105]
1742:Drivers/STM32F3xx_HAL_Driver/Src/stm32f3xx_hal_uart.c ****     HAL_UARTEx_WakeupCallback(huart);
 5511              		.loc 1 1742 5 is_stmt 1 view .LVU1733
1742:Drivers/STM32F3xx_HAL_Driver/Src/stm32f3xx_hal_uart.c ****     HAL_UARTEx_WakeupCallback(huart);
 5512              		.loc 1 1742 20 is_stmt 0 view .LVU1734
 5513 0122 84F86A30 		strb	r3, [r4, #106]
1743:Drivers/STM32F3xx_HAL_Driver/Src/stm32f3xx_hal_uart.c ****     return;
 5514              		.loc 1 1743 5 is_stmt 1 view .LVU1735
1761:Drivers/STM32F3xx_HAL_Driver/Src/stm32f3xx_hal_uart.c **** 
 5515              		.loc 1 1761 1 is_stmt 0 view .LVU1736
 5516 0126 BDE87040 		pop	{r4, r5, r6, lr}
 5517              	.LCFI86:
 5518              		.cfi_remember_state
 5519              		.cfi_restore 14
 5520              		.cfi_restore 6
 5521              		.cfi_restore 5
 5522              		.cfi_restore 4
 5523              		.cfi_def_cfa_offset 0
 5524              	.LVL354:
1743:Drivers/STM32F3xx_HAL_Driver/Src/stm32f3xx_hal_uart.c ****     return;
 5525              		.loc 1 1743 5 view .LVU1737
 5526 012a FFF7FEBF 		b	HAL_UARTEx_WakeupCallback
 5527              	.LVL355:
 5528              	.L680:
 5529              	.LCFI87:
 5530              		.cfi_restore_state
1750:Drivers/STM32F3xx_HAL_Driver/Src/stm32f3xx_hal_uart.c ****     return;
 5531              		.loc 1 1750 5 is_stmt 1 view .LVU1738
 5532 012e 2046     		mov	r0, r4
1761:Drivers/STM32F3xx_HAL_Driver/Src/stm32f3xx_hal_uart.c **** 
 5533              		.loc 1 1761 1 is_stmt 0 view .LVU1739
 5534 0130 BDE87040 		pop	{r4, r5, r6, lr}
 5535              	.LCFI88:
 5536              		.cfi_remember_state
 5537              		.cfi_restore 14
 5538              		.cfi_restore 6
 5539              		.cfi_restore 5
 5540              		.cfi_restore 4
 5541              		.cfi_def_cfa_offset 0
 5542              	.LVL356:
1750:Drivers/STM32F3xx_HAL_Driver/Src/stm32f3xx_hal_uart.c ****     return;
 5543              		.loc 1 1750 5 view .LVU1740
 5544 0134 FFF7FEBF 		b	UART_Transmit_IT
 5545              	.LVL357:
 5546              	.L614:
 5547              	.LCFI89:
 5548              		.cfi_restore_state
1715:Drivers/STM32F3xx_HAL_Driver/Src/stm32f3xx_hal_uart.c ****           }
 5549              		.loc 1 1715 13 is_stmt 1 view .LVU1741
 5550 0138 2046     		mov	r0, r4
 5551 013a FFF7FEFF 		bl	HAL_UART_ErrorCallback
 5552              	.LVL358:
ARM GAS  /var/folders/8c/gyvcglfx7f97kbqb2h83mm_r0000gn/T//ccv1qdBn.s 			page 170


1761:Drivers/STM32F3xx_HAL_Driver/Src/stm32f3xx_hal_uart.c **** 
 5553              		.loc 1 1761 1 is_stmt 0 view .LVU1742
 5554 013e 70BD     		pop	{r4, r5, r6, pc}
 5555              	.LVL359:
 5556              	.L613:
1728:Drivers/STM32F3xx_HAL_Driver/Src/stm32f3xx_hal_uart.c ****         huart->ErrorCode = HAL_UART_ERROR_NONE;
 5557              		.loc 1 1728 9 is_stmt 1 view .LVU1743
 5558 0140 2046     		mov	r0, r4
 5559 0142 FFF7FEFF 		bl	HAL_UART_ErrorCallback
 5560              	.LVL360:
1729:Drivers/STM32F3xx_HAL_Driver/Src/stm32f3xx_hal_uart.c ****       }
 5561              		.loc 1 1729 9 view .LVU1744
1729:Drivers/STM32F3xx_HAL_Driver/Src/stm32f3xx_hal_uart.c ****       }
 5562              		.loc 1 1729 26 is_stmt 0 view .LVU1745
 5563 0146 E566     		str	r5, [r4, #108]
1761:Drivers/STM32F3xx_HAL_Driver/Src/stm32f3xx_hal_uart.c **** 
 5564              		.loc 1 1761 1 view .LVU1746
 5565 0148 70BD     		pop	{r4, r5, r6, pc}
 5566              	.LVL361:
 5567              	.L682:
1680:Drivers/STM32F3xx_HAL_Driver/Src/stm32f3xx_hal_uart.c ****       }
 5568              		.loc 1 1680 9 is_stmt 1 view .LVU1747
 5569 014a 2046     		mov	r0, r4
 5570 014c FFF7FEFF 		bl	UART_Receive_IT
 5571              	.LVL362:
1680:Drivers/STM32F3xx_HAL_Driver/Src/stm32f3xx_hal_uart.c ****       }
 5572              		.loc 1 1680 9 is_stmt 0 view .LVU1748
 5573 0150 2268     		ldr	r2, [r4]
 5574 0152 A2E7     		b	.L611
 5575              	.L684:
 5576              		.align	2
 5577              	.L683:
 5578 0154 00000000 		.word	UART_DMAAbortOnError
 5579              		.cfi_endproc
 5580              	.LFE148:
 5582              		.section	.text.UART_Wakeup_AddressConfig,"ax",%progbits
 5583              		.align	1
 5584              		.p2align 2,,3
 5585              		.global	UART_Wakeup_AddressConfig
 5586              		.syntax unified
 5587              		.thumb
 5588              		.thumb_func
 5589              		.fpu fpv4-sp-d16
 5591              	UART_Wakeup_AddressConfig:
 5592              	.LVL363:
 5593              	.LFB184:
2764:Drivers/STM32F3xx_HAL_Driver/Src/stm32f3xx_hal_uart.c **** 
2765:Drivers/STM32F3xx_HAL_Driver/Src/stm32f3xx_hal_uart.c **** /**
2766:Drivers/STM32F3xx_HAL_Driver/Src/stm32f3xx_hal_uart.c ****   * @brief Initialize the UART wake-up from stop mode parameters when triggered by address detectio
2767:Drivers/STM32F3xx_HAL_Driver/Src/stm32f3xx_hal_uart.c ****   * @param huart UART handle.
2768:Drivers/STM32F3xx_HAL_Driver/Src/stm32f3xx_hal_uart.c ****   * @param WakeUpSelection UART wake up from stop mode parameters.
2769:Drivers/STM32F3xx_HAL_Driver/Src/stm32f3xx_hal_uart.c ****   * @retval None
2770:Drivers/STM32F3xx_HAL_Driver/Src/stm32f3xx_hal_uart.c ****   */
2771:Drivers/STM32F3xx_HAL_Driver/Src/stm32f3xx_hal_uart.c **** void UART_Wakeup_AddressConfig(UART_HandleTypeDef *huart, UART_WakeUpTypeDef WakeUpSelection)
2772:Drivers/STM32F3xx_HAL_Driver/Src/stm32f3xx_hal_uart.c **** {
 5594              		.loc 1 2772 1 is_stmt 1 view -0
 5595              		.cfi_startproc
ARM GAS  /var/folders/8c/gyvcglfx7f97kbqb2h83mm_r0000gn/T//ccv1qdBn.s 			page 171


 5596              		@ args = 0, pretend = 0, frame = 8
 5597              		@ frame_needed = 0, uses_anonymous_args = 0
 5598              		@ link register save eliminated.
2773:Drivers/STM32F3xx_HAL_Driver/Src/stm32f3xx_hal_uart.c ****   assert_param(IS_UART_ADDRESSLENGTH_DETECT(WakeUpSelection.AddressLength));
 5599              		.loc 1 2773 3 view .LVU1750
2774:Drivers/STM32F3xx_HAL_Driver/Src/stm32f3xx_hal_uart.c **** 
2775:Drivers/STM32F3xx_HAL_Driver/Src/stm32f3xx_hal_uart.c ****   /* Set the USART address length */
2776:Drivers/STM32F3xx_HAL_Driver/Src/stm32f3xx_hal_uart.c ****   MODIFY_REG(huart->Instance->CR2, USART_CR2_ADDM7, WakeUpSelection.AddressLength);
 5600              		.loc 1 2776 3 view .LVU1751
2772:Drivers/STM32F3xx_HAL_Driver/Src/stm32f3xx_hal_uart.c ****   assert_param(IS_UART_ADDRESSLENGTH_DETECT(WakeUpSelection.AddressLength));
 5601              		.loc 1 2772 1 is_stmt 0 view .LVU1752
 5602 0000 82B0     		sub	sp, sp, #8
 5603              	.LCFI90:
 5604              		.cfi_def_cfa_offset 8
2772:Drivers/STM32F3xx_HAL_Driver/Src/stm32f3xx_hal_uart.c ****   assert_param(IS_UART_ADDRESSLENGTH_DETECT(WakeUpSelection.AddressLength));
 5605              		.loc 1 2772 1 view .LVU1753
 5606 0002 02AB     		add	r3, sp, #8
 5607              		.loc 1 2776 3 view .LVU1754
 5608 0004 0068     		ldr	r0, [r0]
 5609              	.LVL364:
2772:Drivers/STM32F3xx_HAL_Driver/Src/stm32f3xx_hal_uart.c ****   assert_param(IS_UART_ADDRESSLENGTH_DETECT(WakeUpSelection.AddressLength));
 5610              		.loc 1 2772 1 view .LVU1755
 5611 0006 03E90600 		stmdb	r3, {r1, r2}
 5612              		.loc 1 2776 3 view .LVU1756
 5613 000a 4268     		ldr	r2, [r0, #4]
 5614 000c BDF80430 		ldrh	r3, [sp, #4]
2777:Drivers/STM32F3xx_HAL_Driver/Src/stm32f3xx_hal_uart.c **** 
2778:Drivers/STM32F3xx_HAL_Driver/Src/stm32f3xx_hal_uart.c ****   /* Set the USART address node */
2779:Drivers/STM32F3xx_HAL_Driver/Src/stm32f3xx_hal_uart.c ****   MODIFY_REG(huart->Instance->CR2, USART_CR2_ADD, ((uint32_t)WakeUpSelection.Address << UART_CR2_AD
 5615              		.loc 1 2779 3 view .LVU1757
 5616 0010 9DF80610 		ldrb	r1, [sp, #6]	@ zero_extendqisi2
2776:Drivers/STM32F3xx_HAL_Driver/Src/stm32f3xx_hal_uart.c **** 
 5617              		.loc 1 2776 3 view .LVU1758
 5618 0014 22F01002 		bic	r2, r2, #16
 5619 0018 1A43     		orrs	r2, r2, r3
 5620 001a 4260     		str	r2, [r0, #4]
 5621              		.loc 1 2779 3 is_stmt 1 view .LVU1759
 5622 001c 4368     		ldr	r3, [r0, #4]
 5623 001e 23F07F43 		bic	r3, r3, #-16777216
 5624 0022 43EA0163 		orr	r3, r3, r1, lsl #24
 5625 0026 4360     		str	r3, [r0, #4]
2780:Drivers/STM32F3xx_HAL_Driver/Src/stm32f3xx_hal_uart.c **** }
 5626              		.loc 1 2780 1 is_stmt 0 view .LVU1760
 5627 0028 02B0     		add	sp, sp, #8
 5628              	.LCFI91:
 5629              		.cfi_def_cfa_offset 0
 5630              		@ sp needed
 5631 002a 7047     		bx	lr
 5632              		.cfi_endproc
 5633              	.LFE184:
 5635              		.section	.rodata.CSWTCH.2,"a"
 5636              		.align	2
 5637              		.set	.LANCHOR0,. + 0
 5640              	CSWTCH.2:
 5641 0000 01       		.byte	1
 5642 0001 04       		.byte	4
 5643 0002 08       		.byte	8
ARM GAS  /var/folders/8c/gyvcglfx7f97kbqb2h83mm_r0000gn/T//ccv1qdBn.s 			page 172


 5644 0003 02       		.byte	2
 5645              		.text
 5646              	.Letext0:
 5647              		.file 2 "/usr/local/gcc-arm-none-eabi-8-2018-q4-major/arm-none-eabi/include/machine/_default_types
 5648              		.file 3 "/usr/local/gcc-arm-none-eabi-8-2018-q4-major/arm-none-eabi/include/sys/_stdint.h"
 5649              		.file 4 "/usr/local/gcc-arm-none-eabi-8-2018-q4-major/arm-none-eabi/include/sys/lock.h"
 5650              		.file 5 "/usr/local/gcc-arm-none-eabi-8-2018-q4-major/arm-none-eabi/include/sys/_types.h"
 5651              		.file 6 "/usr/local/gcc-arm-none-eabi-8-2018-q4-major/lib/gcc/arm-none-eabi/8.2.1/include/stddef.h
 5652              		.file 7 "/usr/local/gcc-arm-none-eabi-8-2018-q4-major/arm-none-eabi/include/sys/reent.h"
 5653              		.file 8 "/usr/local/gcc-arm-none-eabi-8-2018-q4-major/arm-none-eabi/include/stdlib.h"
 5654              		.file 9 "Drivers/CMSIS/Include/core_cm4.h"
 5655              		.file 10 "Drivers/CMSIS/Device/ST/STM32F3xx/Include/system_stm32f3xx.h"
 5656              		.file 11 "Drivers/CMSIS/Device/ST/STM32F3xx/Include/stm32f303xe.h"
 5657              		.file 12 "Drivers/CMSIS/Device/ST/STM32F3xx/Include/stm32f3xx.h"
 5658              		.file 13 "Drivers/STM32F3xx_HAL_Driver/Inc/stm32f3xx_hal_def.h"
 5659              		.file 14 "Drivers/STM32F3xx_HAL_Driver/Inc/stm32f3xx_hal_dma.h"
 5660              		.file 15 "Drivers/STM32F3xx_HAL_Driver/Inc/stm32f3xx_hal_uart.h"
 5661              		.file 16 "Drivers/STM32F3xx_HAL_Driver/Inc/stm32f3xx_hal.h"
 5662              		.file 17 "Drivers/STM32F3xx_HAL_Driver/Inc/stm32f3xx_hal_rcc.h"
 5663              		.file 18 "Drivers/STM32F3xx_HAL_Driver/Inc/stm32f3xx_hal_uart_ex.h"
ARM GAS  /var/folders/8c/gyvcglfx7f97kbqb2h83mm_r0000gn/T//ccv1qdBn.s 			page 173


DEFINED SYMBOLS
                            *ABS*:0000000000000000 stm32f3xx_hal_uart.c
/var/folders/8c/gyvcglfx7f97kbqb2h83mm_r0000gn/T//ccv1qdBn.s:18     .text.HAL_UART_MspInit:0000000000000000 $t
/var/folders/8c/gyvcglfx7f97kbqb2h83mm_r0000gn/T//ccv1qdBn.s:27     .text.HAL_UART_MspInit:0000000000000000 HAL_UART_MspInit
/var/folders/8c/gyvcglfx7f97kbqb2h83mm_r0000gn/T//ccv1qdBn.s:43     .text.HAL_UART_MspDeInit:0000000000000000 $t
/var/folders/8c/gyvcglfx7f97kbqb2h83mm_r0000gn/T//ccv1qdBn.s:51     .text.HAL_UART_MspDeInit:0000000000000000 HAL_UART_MspDeInit
/var/folders/8c/gyvcglfx7f97kbqb2h83mm_r0000gn/T//ccv1qdBn.s:62     .text.HAL_UART_DeInit:0000000000000000 $t
/var/folders/8c/gyvcglfx7f97kbqb2h83mm_r0000gn/T//ccv1qdBn.s:70     .text.HAL_UART_DeInit:0000000000000000 HAL_UART_DeInit
/var/folders/8c/gyvcglfx7f97kbqb2h83mm_r0000gn/T//ccv1qdBn.s:151    .text.HAL_UART_Transmit_IT:0000000000000000 $t
/var/folders/8c/gyvcglfx7f97kbqb2h83mm_r0000gn/T//ccv1qdBn.s:159    .text.HAL_UART_Transmit_IT:0000000000000000 HAL_UART_Transmit_IT
/var/folders/8c/gyvcglfx7f97kbqb2h83mm_r0000gn/T//ccv1qdBn.s:250    .text.HAL_UART_Receive_IT:0000000000000000 $t
/var/folders/8c/gyvcglfx7f97kbqb2h83mm_r0000gn/T//ccv1qdBn.s:258    .text.HAL_UART_Receive_IT:0000000000000000 HAL_UART_Receive_IT
/var/folders/8c/gyvcglfx7f97kbqb2h83mm_r0000gn/T//ccv1qdBn.s:392    .text.HAL_UART_Transmit_DMA:0000000000000000 $t
/var/folders/8c/gyvcglfx7f97kbqb2h83mm_r0000gn/T//ccv1qdBn.s:400    .text.HAL_UART_Transmit_DMA:0000000000000000 HAL_UART_Transmit_DMA
/var/folders/8c/gyvcglfx7f97kbqb2h83mm_r0000gn/T//ccv1qdBn.s:520    .text.HAL_UART_Transmit_DMA:000000000000006c $d
/var/folders/8c/gyvcglfx7f97kbqb2h83mm_r0000gn/T//ccv1qdBn.s:1316   .text.UART_DMATransmitCplt:0000000000000000 UART_DMATransmitCplt
/var/folders/8c/gyvcglfx7f97kbqb2h83mm_r0000gn/T//ccv1qdBn.s:1392   .text.UART_DMATxHalfCplt:0000000000000000 UART_DMATxHalfCplt
/var/folders/8c/gyvcglfx7f97kbqb2h83mm_r0000gn/T//ccv1qdBn.s:1582   .text.UART_DMAError:0000000000000000 UART_DMAError
/var/folders/8c/gyvcglfx7f97kbqb2h83mm_r0000gn/T//ccv1qdBn.s:527    .text.HAL_UART_Receive_DMA:0000000000000000 $t
/var/folders/8c/gyvcglfx7f97kbqb2h83mm_r0000gn/T//ccv1qdBn.s:535    .text.HAL_UART_Receive_DMA:0000000000000000 HAL_UART_Receive_DMA
/var/folders/8c/gyvcglfx7f97kbqb2h83mm_r0000gn/T//ccv1qdBn.s:668    .text.HAL_UART_Receive_DMA:0000000000000078 $d
/var/folders/8c/gyvcglfx7f97kbqb2h83mm_r0000gn/T//ccv1qdBn.s:1445   .text.UART_DMAReceiveCplt:0000000000000000 UART_DMAReceiveCplt
/var/folders/8c/gyvcglfx7f97kbqb2h83mm_r0000gn/T//ccv1qdBn.s:1529   .text.UART_DMARxHalfCplt:0000000000000000 UART_DMARxHalfCplt
/var/folders/8c/gyvcglfx7f97kbqb2h83mm_r0000gn/T//ccv1qdBn.s:675    .text.HAL_UART_DMAPause:0000000000000000 $t
/var/folders/8c/gyvcglfx7f97kbqb2h83mm_r0000gn/T//ccv1qdBn.s:683    .text.HAL_UART_DMAPause:0000000000000000 HAL_UART_DMAPause
/var/folders/8c/gyvcglfx7f97kbqb2h83mm_r0000gn/T//ccv1qdBn.s:784    .text.HAL_UART_DMAResume:0000000000000000 $t
/var/folders/8c/gyvcglfx7f97kbqb2h83mm_r0000gn/T//ccv1qdBn.s:792    .text.HAL_UART_DMAResume:0000000000000000 HAL_UART_DMAResume
/var/folders/8c/gyvcglfx7f97kbqb2h83mm_r0000gn/T//ccv1qdBn.s:867    .text.HAL_UART_DMAStop:0000000000000000 $t
/var/folders/8c/gyvcglfx7f97kbqb2h83mm_r0000gn/T//ccv1qdBn.s:875    .text.HAL_UART_DMAStop:0000000000000000 HAL_UART_DMAStop
/var/folders/8c/gyvcglfx7f97kbqb2h83mm_r0000gn/T//ccv1qdBn.s:1017   .text.HAL_UART_Abort:0000000000000000 $t
/var/folders/8c/gyvcglfx7f97kbqb2h83mm_r0000gn/T//ccv1qdBn.s:1025   .text.HAL_UART_Abort:0000000000000000 HAL_UART_Abort
/var/folders/8c/gyvcglfx7f97kbqb2h83mm_r0000gn/T//ccv1qdBn.s:1135   .text.HAL_UART_AbortTransmit:0000000000000000 $t
/var/folders/8c/gyvcglfx7f97kbqb2h83mm_r0000gn/T//ccv1qdBn.s:1143   .text.HAL_UART_AbortTransmit:0000000000000000 HAL_UART_AbortTransmit
/var/folders/8c/gyvcglfx7f97kbqb2h83mm_r0000gn/T//ccv1qdBn.s:1208   .text.HAL_UART_AbortReceive:0000000000000000 $t
/var/folders/8c/gyvcglfx7f97kbqb2h83mm_r0000gn/T//ccv1qdBn.s:1216   .text.HAL_UART_AbortReceive:0000000000000000 HAL_UART_AbortReceive
/var/folders/8c/gyvcglfx7f97kbqb2h83mm_r0000gn/T//ccv1qdBn.s:1290   .text.HAL_UART_TxCpltCallback:0000000000000000 $t
/var/folders/8c/gyvcglfx7f97kbqb2h83mm_r0000gn/T//ccv1qdBn.s:1298   .text.HAL_UART_TxCpltCallback:0000000000000000 HAL_UART_TxCpltCallback
/var/folders/8c/gyvcglfx7f97kbqb2h83mm_r0000gn/T//ccv1qdBn.s:1309   .text.UART_DMATransmitCplt:0000000000000000 $t
/var/folders/8c/gyvcglfx7f97kbqb2h83mm_r0000gn/T//ccv1qdBn.s:1366   .text.HAL_UART_TxHalfCpltCallback:0000000000000000 $t
/var/folders/8c/gyvcglfx7f97kbqb2h83mm_r0000gn/T//ccv1qdBn.s:1374   .text.HAL_UART_TxHalfCpltCallback:0000000000000000 HAL_UART_TxHalfCpltCallback
/var/folders/8c/gyvcglfx7f97kbqb2h83mm_r0000gn/T//ccv1qdBn.s:1385   .text.UART_DMATxHalfCplt:0000000000000000 $t
/var/folders/8c/gyvcglfx7f97kbqb2h83mm_r0000gn/T//ccv1qdBn.s:1419   .text.HAL_UART_RxCpltCallback:0000000000000000 $t
/var/folders/8c/gyvcglfx7f97kbqb2h83mm_r0000gn/T//ccv1qdBn.s:1427   .text.HAL_UART_RxCpltCallback:0000000000000000 HAL_UART_RxCpltCallback
/var/folders/8c/gyvcglfx7f97kbqb2h83mm_r0000gn/T//ccv1qdBn.s:1438   .text.UART_DMAReceiveCplt:0000000000000000 $t
/var/folders/8c/gyvcglfx7f97kbqb2h83mm_r0000gn/T//ccv1qdBn.s:1503   .text.HAL_UART_RxHalfCpltCallback:0000000000000000 $t
/var/folders/8c/gyvcglfx7f97kbqb2h83mm_r0000gn/T//ccv1qdBn.s:1511   .text.HAL_UART_RxHalfCpltCallback:0000000000000000 HAL_UART_RxHalfCpltCallback
/var/folders/8c/gyvcglfx7f97kbqb2h83mm_r0000gn/T//ccv1qdBn.s:1522   .text.UART_DMARxHalfCplt:0000000000000000 $t
/var/folders/8c/gyvcglfx7f97kbqb2h83mm_r0000gn/T//ccv1qdBn.s:1556   .text.HAL_UART_ErrorCallback:0000000000000000 $t
/var/folders/8c/gyvcglfx7f97kbqb2h83mm_r0000gn/T//ccv1qdBn.s:1564   .text.HAL_UART_ErrorCallback:0000000000000000 HAL_UART_ErrorCallback
/var/folders/8c/gyvcglfx7f97kbqb2h83mm_r0000gn/T//ccv1qdBn.s:1575   .text.UART_DMAError:0000000000000000 $t
/var/folders/8c/gyvcglfx7f97kbqb2h83mm_r0000gn/T//ccv1qdBn.s:1698   .text.UART_DMAAbortOnError:0000000000000000 $t
/var/folders/8c/gyvcglfx7f97kbqb2h83mm_r0000gn/T//ccv1qdBn.s:1705   .text.UART_DMAAbortOnError:0000000000000000 UART_DMAAbortOnError
/var/folders/8c/gyvcglfx7f97kbqb2h83mm_r0000gn/T//ccv1qdBn.s:1741   .text.HAL_UART_AbortCpltCallback:0000000000000000 $t
/var/folders/8c/gyvcglfx7f97kbqb2h83mm_r0000gn/T//ccv1qdBn.s:1749   .text.HAL_UART_AbortCpltCallback:0000000000000000 HAL_UART_AbortCpltCallback
/var/folders/8c/gyvcglfx7f97kbqb2h83mm_r0000gn/T//ccv1qdBn.s:1760   .text.HAL_UART_Abort_IT:0000000000000000 $t
/var/folders/8c/gyvcglfx7f97kbqb2h83mm_r0000gn/T//ccv1qdBn.s:1768   .text.HAL_UART_Abort_IT:0000000000000000 HAL_UART_Abort_IT
/var/folders/8c/gyvcglfx7f97kbqb2h83mm_r0000gn/T//ccv1qdBn.s:1950   .text.HAL_UART_Abort_IT:00000000000000b0 $d
ARM GAS  /var/folders/8c/gyvcglfx7f97kbqb2h83mm_r0000gn/T//ccv1qdBn.s 			page 174


/var/folders/8c/gyvcglfx7f97kbqb2h83mm_r0000gn/T//ccv1qdBn.s:2044   .text.UART_DMATxAbortCallback:0000000000000000 UART_DMATxAbortCallback
/var/folders/8c/gyvcglfx7f97kbqb2h83mm_r0000gn/T//ccv1qdBn.s:1963   .text.UART_DMARxAbortCallback:0000000000000000 UART_DMARxAbortCallback
/var/folders/8c/gyvcglfx7f97kbqb2h83mm_r0000gn/T//ccv1qdBn.s:1956   .text.UART_DMARxAbortCallback:0000000000000000 $t
/var/folders/8c/gyvcglfx7f97kbqb2h83mm_r0000gn/T//ccv1qdBn.s:2037   .text.UART_DMATxAbortCallback:0000000000000000 $t
/var/folders/8c/gyvcglfx7f97kbqb2h83mm_r0000gn/T//ccv1qdBn.s:2118   .text.HAL_UART_AbortTransmitCpltCallback:0000000000000000 $t
/var/folders/8c/gyvcglfx7f97kbqb2h83mm_r0000gn/T//ccv1qdBn.s:2126   .text.HAL_UART_AbortTransmitCpltCallback:0000000000000000 HAL_UART_AbortTransmitCpltCallback
/var/folders/8c/gyvcglfx7f97kbqb2h83mm_r0000gn/T//ccv1qdBn.s:2137   .text.HAL_UART_AbortTransmit_IT:0000000000000000 $t
/var/folders/8c/gyvcglfx7f97kbqb2h83mm_r0000gn/T//ccv1qdBn.s:2145   .text.HAL_UART_AbortTransmit_IT:0000000000000000 HAL_UART_AbortTransmit_IT
/var/folders/8c/gyvcglfx7f97kbqb2h83mm_r0000gn/T//ccv1qdBn.s:2247   .text.HAL_UART_AbortTransmit_IT:000000000000005c $d
/var/folders/8c/gyvcglfx7f97kbqb2h83mm_r0000gn/T//ccv1qdBn.s:2259   .text.UART_DMATxOnlyAbortCallback:0000000000000000 UART_DMATxOnlyAbortCallback
/var/folders/8c/gyvcglfx7f97kbqb2h83mm_r0000gn/T//ccv1qdBn.s:2252   .text.UART_DMATxOnlyAbortCallback:0000000000000000 $t
/var/folders/8c/gyvcglfx7f97kbqb2h83mm_r0000gn/T//ccv1qdBn.s:2298   .text.HAL_UART_AbortReceiveCpltCallback:0000000000000000 $t
/var/folders/8c/gyvcglfx7f97kbqb2h83mm_r0000gn/T//ccv1qdBn.s:2306   .text.HAL_UART_AbortReceiveCpltCallback:0000000000000000 HAL_UART_AbortReceiveCpltCallback
/var/folders/8c/gyvcglfx7f97kbqb2h83mm_r0000gn/T//ccv1qdBn.s:2317   .text.HAL_UART_AbortReceive_IT:0000000000000000 $t
/var/folders/8c/gyvcglfx7f97kbqb2h83mm_r0000gn/T//ccv1qdBn.s:2325   .text.HAL_UART_AbortReceive_IT:0000000000000000 HAL_UART_AbortReceive_IT
/var/folders/8c/gyvcglfx7f97kbqb2h83mm_r0000gn/T//ccv1qdBn.s:2441   .text.HAL_UART_AbortReceive_IT:000000000000006c $d
/var/folders/8c/gyvcglfx7f97kbqb2h83mm_r0000gn/T//ccv1qdBn.s:2453   .text.UART_DMARxOnlyAbortCallback:0000000000000000 UART_DMARxOnlyAbortCallback
/var/folders/8c/gyvcglfx7f97kbqb2h83mm_r0000gn/T//ccv1qdBn.s:2446   .text.UART_DMARxOnlyAbortCallback:0000000000000000 $t
/var/folders/8c/gyvcglfx7f97kbqb2h83mm_r0000gn/T//ccv1qdBn.s:2498   .text.HAL_MultiProcessor_EnterMuteMode:0000000000000000 $t
/var/folders/8c/gyvcglfx7f97kbqb2h83mm_r0000gn/T//ccv1qdBn.s:2506   .text.HAL_MultiProcessor_EnterMuteMode:0000000000000000 HAL_MultiProcessor_EnterMuteMode
/var/folders/8c/gyvcglfx7f97kbqb2h83mm_r0000gn/T//ccv1qdBn.s:2525   .text.HAL_HalfDuplex_EnableTransmitter:0000000000000000 $t
/var/folders/8c/gyvcglfx7f97kbqb2h83mm_r0000gn/T//ccv1qdBn.s:2533   .text.HAL_HalfDuplex_EnableTransmitter:0000000000000000 HAL_HalfDuplex_EnableTransmitter
/var/folders/8c/gyvcglfx7f97kbqb2h83mm_r0000gn/T//ccv1qdBn.s:2604   .text.HAL_HalfDuplex_EnableReceiver:0000000000000000 $t
/var/folders/8c/gyvcglfx7f97kbqb2h83mm_r0000gn/T//ccv1qdBn.s:2612   .text.HAL_HalfDuplex_EnableReceiver:0000000000000000 HAL_HalfDuplex_EnableReceiver
/var/folders/8c/gyvcglfx7f97kbqb2h83mm_r0000gn/T//ccv1qdBn.s:2683   .text.HAL_LIN_SendBreak:0000000000000000 $t
/var/folders/8c/gyvcglfx7f97kbqb2h83mm_r0000gn/T//ccv1qdBn.s:2691   .text.HAL_LIN_SendBreak:0000000000000000 HAL_LIN_SendBreak
/var/folders/8c/gyvcglfx7f97kbqb2h83mm_r0000gn/T//ccv1qdBn.s:2756   .text.HAL_UART_GetState:0000000000000000 $t
/var/folders/8c/gyvcglfx7f97kbqb2h83mm_r0000gn/T//ccv1qdBn.s:2764   .text.HAL_UART_GetState:0000000000000000 HAL_UART_GetState
/var/folders/8c/gyvcglfx7f97kbqb2h83mm_r0000gn/T//ccv1qdBn.s:2791   .text.HAL_UART_GetError:0000000000000000 $t
/var/folders/8c/gyvcglfx7f97kbqb2h83mm_r0000gn/T//ccv1qdBn.s:2799   .text.HAL_UART_GetError:0000000000000000 HAL_UART_GetError
/var/folders/8c/gyvcglfx7f97kbqb2h83mm_r0000gn/T//ccv1qdBn.s:2817   .text.UART_SetConfig:0000000000000000 $t
/var/folders/8c/gyvcglfx7f97kbqb2h83mm_r0000gn/T//ccv1qdBn.s:2825   .text.UART_SetConfig:0000000000000000 UART_SetConfig
/var/folders/8c/gyvcglfx7f97kbqb2h83mm_r0000gn/T//ccv1qdBn.s:3030   .text.UART_SetConfig:00000000000000e4 $d
/var/folders/8c/gyvcglfx7f97kbqb2h83mm_r0000gn/T//ccv1qdBn.s:3039   .text.UART_SetConfig:0000000000000108 $t
/var/folders/8c/gyvcglfx7f97kbqb2h83mm_r0000gn/T//ccv1qdBn.s:3046   .text.UART_SetConfig:0000000000000110 $d
/var/folders/8c/gyvcglfx7f97kbqb2h83mm_r0000gn/T//ccv1qdBn.s:3254   .text.UART_SetConfig:0000000000000214 $d
/var/folders/8c/gyvcglfx7f97kbqb2h83mm_r0000gn/T//ccv1qdBn.s:3266   .text.UART_AdvFeatureConfig:0000000000000000 $t
/var/folders/8c/gyvcglfx7f97kbqb2h83mm_r0000gn/T//ccv1qdBn.s:3274   .text.UART_AdvFeatureConfig:0000000000000000 UART_AdvFeatureConfig
/var/folders/8c/gyvcglfx7f97kbqb2h83mm_r0000gn/T//ccv1qdBn.s:3424   .text.UART_WaitOnFlagUntilTimeout:0000000000000000 $t
/var/folders/8c/gyvcglfx7f97kbqb2h83mm_r0000gn/T//ccv1qdBn.s:3432   .text.UART_WaitOnFlagUntilTimeout:0000000000000000 UART_WaitOnFlagUntilTimeout
/var/folders/8c/gyvcglfx7f97kbqb2h83mm_r0000gn/T//ccv1qdBn.s:3540   .text.HAL_UART_Transmit:0000000000000000 $t
/var/folders/8c/gyvcglfx7f97kbqb2h83mm_r0000gn/T//ccv1qdBn.s:3548   .text.HAL_UART_Transmit:0000000000000000 HAL_UART_Transmit
/var/folders/8c/gyvcglfx7f97kbqb2h83mm_r0000gn/T//ccv1qdBn.s:3760   .text.HAL_UART_Receive:0000000000000000 $t
/var/folders/8c/gyvcglfx7f97kbqb2h83mm_r0000gn/T//ccv1qdBn.s:3768   .text.HAL_UART_Receive:0000000000000000 HAL_UART_Receive
/var/folders/8c/gyvcglfx7f97kbqb2h83mm_r0000gn/T//ccv1qdBn.s:4035   .text.UART_CheckIdleState:0000000000000000 $t
/var/folders/8c/gyvcglfx7f97kbqb2h83mm_r0000gn/T//ccv1qdBn.s:4043   .text.UART_CheckIdleState:0000000000000000 UART_CheckIdleState
/var/folders/8c/gyvcglfx7f97kbqb2h83mm_r0000gn/T//ccv1qdBn.s:4168   .text.HAL_UART_Init:0000000000000000 $t
/var/folders/8c/gyvcglfx7f97kbqb2h83mm_r0000gn/T//ccv1qdBn.s:4176   .text.HAL_UART_Init:0000000000000000 HAL_UART_Init
/var/folders/8c/gyvcglfx7f97kbqb2h83mm_r0000gn/T//ccv1qdBn.s:4291   .text.HAL_HalfDuplex_Init:0000000000000000 $t
/var/folders/8c/gyvcglfx7f97kbqb2h83mm_r0000gn/T//ccv1qdBn.s:4299   .text.HAL_HalfDuplex_Init:0000000000000000 HAL_HalfDuplex_Init
/var/folders/8c/gyvcglfx7f97kbqb2h83mm_r0000gn/T//ccv1qdBn.s:4418   .text.HAL_LIN_Init:0000000000000000 $t
/var/folders/8c/gyvcglfx7f97kbqb2h83mm_r0000gn/T//ccv1qdBn.s:4426   .text.HAL_LIN_Init:0000000000000000 HAL_LIN_Init
/var/folders/8c/gyvcglfx7f97kbqb2h83mm_r0000gn/T//ccv1qdBn.s:4575   .text.HAL_MultiProcessor_Init:0000000000000000 $t
/var/folders/8c/gyvcglfx7f97kbqb2h83mm_r0000gn/T//ccv1qdBn.s:4583   .text.HAL_MultiProcessor_Init:0000000000000000 HAL_MultiProcessor_Init
/var/folders/8c/gyvcglfx7f97kbqb2h83mm_r0000gn/T//ccv1qdBn.s:4730   .text.HAL_MultiProcessor_EnableMuteMode:0000000000000000 $t
/var/folders/8c/gyvcglfx7f97kbqb2h83mm_r0000gn/T//ccv1qdBn.s:4738   .text.HAL_MultiProcessor_EnableMuteMode:0000000000000000 HAL_MultiProcessor_EnableMuteMode
/var/folders/8c/gyvcglfx7f97kbqb2h83mm_r0000gn/T//ccv1qdBn.s:4800   .text.HAL_MultiProcessor_DisableMuteMode:0000000000000000 $t
ARM GAS  /var/folders/8c/gyvcglfx7f97kbqb2h83mm_r0000gn/T//ccv1qdBn.s 			page 175


/var/folders/8c/gyvcglfx7f97kbqb2h83mm_r0000gn/T//ccv1qdBn.s:4808   .text.HAL_MultiProcessor_DisableMuteMode:0000000000000000 HAL_MultiProcessor_DisableMuteMode
/var/folders/8c/gyvcglfx7f97kbqb2h83mm_r0000gn/T//ccv1qdBn.s:4870   .text.UART_Transmit_IT:0000000000000000 $t
/var/folders/8c/gyvcglfx7f97kbqb2h83mm_r0000gn/T//ccv1qdBn.s:4878   .text.UART_Transmit_IT:0000000000000000 UART_Transmit_IT
/var/folders/8c/gyvcglfx7f97kbqb2h83mm_r0000gn/T//ccv1qdBn.s:4990   .text.UART_EndTransmit_IT:0000000000000000 $t
/var/folders/8c/gyvcglfx7f97kbqb2h83mm_r0000gn/T//ccv1qdBn.s:4998   .text.UART_EndTransmit_IT:0000000000000000 UART_EndTransmit_IT
/var/folders/8c/gyvcglfx7f97kbqb2h83mm_r0000gn/T//ccv1qdBn.s:5034   .text.UART_Receive_IT:0000000000000000 $t
/var/folders/8c/gyvcglfx7f97kbqb2h83mm_r0000gn/T//ccv1qdBn.s:5042   .text.UART_Receive_IT:0000000000000000 UART_Receive_IT
/var/folders/8c/gyvcglfx7f97kbqb2h83mm_r0000gn/T//ccv1qdBn.s:5175   .text.HAL_UART_IRQHandler:0000000000000000 $t
/var/folders/8c/gyvcglfx7f97kbqb2h83mm_r0000gn/T//ccv1qdBn.s:5183   .text.HAL_UART_IRQHandler:0000000000000000 HAL_UART_IRQHandler
/var/folders/8c/gyvcglfx7f97kbqb2h83mm_r0000gn/T//ccv1qdBn.s:5578   .text.HAL_UART_IRQHandler:0000000000000154 $d
/var/folders/8c/gyvcglfx7f97kbqb2h83mm_r0000gn/T//ccv1qdBn.s:5583   .text.UART_Wakeup_AddressConfig:0000000000000000 $t
/var/folders/8c/gyvcglfx7f97kbqb2h83mm_r0000gn/T//ccv1qdBn.s:5591   .text.UART_Wakeup_AddressConfig:0000000000000000 UART_Wakeup_AddressConfig
/var/folders/8c/gyvcglfx7f97kbqb2h83mm_r0000gn/T//ccv1qdBn.s:5636   .rodata.CSWTCH.2:0000000000000000 $d
/var/folders/8c/gyvcglfx7f97kbqb2h83mm_r0000gn/T//ccv1qdBn.s:5640   .rodata.CSWTCH.2:0000000000000000 CSWTCH.2
/var/folders/8c/gyvcglfx7f97kbqb2h83mm_r0000gn/T//ccv1qdBn.s:3056   .text.UART_SetConfig:0000000000000119 $d
/var/folders/8c/gyvcglfx7f97kbqb2h83mm_r0000gn/T//ccv1qdBn.s:3056   .text.UART_SetConfig:000000000000011a $t

UNDEFINED SYMBOLS
HAL_DMA_Start_IT
HAL_DMA_Abort
HAL_DMA_Abort_IT
HAL_RCC_GetPCLK1Freq
HAL_RCC_GetPCLK2Freq
HAL_RCC_GetSysClockFreq
HAL_GetTick
HAL_UARTEx_WakeupCallback
