ARM GAS  /var/folders/8c/gyvcglfx7f97kbqb2h83mm_r0000gn/T//ccQy3EdK.s 			page 1


   1              		.cpu cortex-m4
   2              		.eabi_attribute 27, 1
   3              		.eabi_attribute 28, 1
   4              		.eabi_attribute 20, 1
   5              		.eabi_attribute 21, 1
   6              		.eabi_attribute 23, 3
   7              		.eabi_attribute 24, 1
   8              		.eabi_attribute 25, 1
   9              		.eabi_attribute 26, 1
  10              		.eabi_attribute 30, 1
  11              		.eabi_attribute 34, 1
  12              		.eabi_attribute 18, 4
  13              		.file	"adc.c"
  14              		.text
  15              	.Ltext0:
  16              		.cfi_sections	.debug_frame
  17              		.section	.text.MX_ADC1_Init,"ax",%progbits
  18              		.align	1
  19              		.global	MX_ADC1_Init
  20              		.arch armv7e-m
  21              		.syntax unified
  22              		.thumb
  23              		.thumb_func
  24              		.fpu fpv4-sp-d16
  26              	MX_ADC1_Init:
  27              	.LFB126:
  28              		.file 1 "Src/adc.c"
   1:Src/adc.c     **** /**
   2:Src/adc.c     ****   ******************************************************************************
   3:Src/adc.c     ****   * File Name          : ADC.c
   4:Src/adc.c     ****   * Description        : This file provides code for the configuration
   5:Src/adc.c     ****   *                      of the ADC instances.
   6:Src/adc.c     ****   ******************************************************************************
   7:Src/adc.c     ****   ** This notice applies to any and all portions of this file
   8:Src/adc.c     ****   * that are not between comment pairs USER CODE BEGIN and
   9:Src/adc.c     ****   * USER CODE END. Other portions of this file, whether 
  10:Src/adc.c     ****   * inserted by the user or by software development tools
  11:Src/adc.c     ****   * are owned by their respective copyright owners.
  12:Src/adc.c     ****   *
  13:Src/adc.c     ****   * COPYRIGHT(c) 2018 STMicroelectronics
  14:Src/adc.c     ****   *
  15:Src/adc.c     ****   * Redistribution and use in source and binary forms, with or without modification,
  16:Src/adc.c     ****   * are permitted provided that the following conditions are met:
  17:Src/adc.c     ****   *   1. Redistributions of source code must retain the above copyright notice,
  18:Src/adc.c     ****   *      this list of conditions and the following disclaimer.
  19:Src/adc.c     ****   *   2. Redistributions in binary form must reproduce the above copyright notice,
  20:Src/adc.c     ****   *      this list of conditions and the following disclaimer in the documentation
  21:Src/adc.c     ****   *      and/or other materials provided with the distribution.
  22:Src/adc.c     ****   *   3. Neither the name of STMicroelectronics nor the names of its contributors
  23:Src/adc.c     ****   *      may be used to endorse or promote products derived from this software
  24:Src/adc.c     ****   *      without specific prior written permission.
  25:Src/adc.c     ****   *
  26:Src/adc.c     ****   * THIS SOFTWARE IS PROVIDED BY THE COPYRIGHT HOLDERS AND CONTRIBUTORS "AS IS"
  27:Src/adc.c     ****   * AND ANY EXPRESS OR IMPLIED WARRANTIES, INCLUDING, BUT NOT LIMITED TO, THE
  28:Src/adc.c     ****   * IMPLIED WARRANTIES OF MERCHANTABILITY AND FITNESS FOR A PARTICULAR PURPOSE ARE
  29:Src/adc.c     ****   * DISCLAIMED. IN NO EVENT SHALL THE COPYRIGHT HOLDER OR CONTRIBUTORS BE LIABLE
  30:Src/adc.c     ****   * FOR ANY DIRECT, INDIRECT, INCIDENTAL, SPECIAL, EXEMPLARY, OR CONSEQUENTIAL
ARM GAS  /var/folders/8c/gyvcglfx7f97kbqb2h83mm_r0000gn/T//ccQy3EdK.s 			page 2


  31:Src/adc.c     ****   * DAMAGES (INCLUDING, BUT NOT LIMITED TO, PROCUREMENT OF SUBSTITUTE GOODS OR
  32:Src/adc.c     ****   * SERVICES; LOSS OF USE, DATA, OR PROFITS; OR BUSINESS INTERRUPTION) HOWEVER
  33:Src/adc.c     ****   * CAUSED AND ON ANY THEORY OF LIABILITY, WHETHER IN CONTRACT, STRICT LIABILITY,
  34:Src/adc.c     ****   * OR TORT (INCLUDING NEGLIGENCE OR OTHERWISE) ARISING IN ANY WAY OUT OF THE USE
  35:Src/adc.c     ****   * OF THIS SOFTWARE, EVEN IF ADVISED OF THE POSSIBILITY OF SUCH DAMAGE.
  36:Src/adc.c     ****   *
  37:Src/adc.c     ****   ******************************************************************************
  38:Src/adc.c     ****   */
  39:Src/adc.c     **** 
  40:Src/adc.c     **** /* Includes ------------------------------------------------------------------*/
  41:Src/adc.c     **** #include "adc.h"
  42:Src/adc.c     **** 
  43:Src/adc.c     **** #include "gpio.h"
  44:Src/adc.c     **** #include "dma.h"
  45:Src/adc.c     **** 
  46:Src/adc.c     **** /* USER CODE BEGIN 0 */
  47:Src/adc.c     **** #define true 1
  48:Src/adc.c     **** #define false 0
  49:Src/adc.c     **** volatile uint16_t adc1_dma_buff[ADC_DMA_BUFFSIZE];
  50:Src/adc.c     **** volatile uint16_t adc2_dma_buff[ADC_DMA_BUFFSIZE];
  51:Src/adc.c     **** 
  52:Src/adc.c     **** /* USER CODE END 0 */
  53:Src/adc.c     **** 
  54:Src/adc.c     **** ADC_HandleTypeDef hadc1;
  55:Src/adc.c     **** ADC_HandleTypeDef hadc2;
  56:Src/adc.c     **** DMA_HandleTypeDef hdma_adc1;
  57:Src/adc.c     **** DMA_HandleTypeDef hdma_adc2;
  58:Src/adc.c     **** 
  59:Src/adc.c     **** /* ADC1 init function */
  60:Src/adc.c     **** void MX_ADC1_Init(void)
  61:Src/adc.c     **** {
  29              		.loc 1 61 1 view -0
  30              		.cfi_startproc
  31              		@ args = 0, pretend = 0, frame = 40
  32              		@ frame_needed = 0, uses_anonymous_args = 0
  33 0000 00B5     		push	{lr}
  34              	.LCFI0:
  35              		.cfi_def_cfa_offset 4
  36              		.cfi_offset 14, -4
  37 0002 8BB0     		sub	sp, sp, #44
  38              	.LCFI1:
  39              		.cfi_def_cfa_offset 48
  62:Src/adc.c     ****   ADC_MultiModeTypeDef multimode;
  40              		.loc 1 62 3 view .LVU1
  63:Src/adc.c     ****   ADC_ChannelConfTypeDef sConfig;
  41              		.loc 1 63 3 view .LVU2
  64:Src/adc.c     **** 
  65:Src/adc.c     ****     /**Common config 
  66:Src/adc.c     ****     */
  67:Src/adc.c     ****   hadc1.Instance = ADC1;
  42              		.loc 1 67 3 view .LVU3
  43              		.loc 1 67 18 is_stmt 0 view .LVU4
  44 0004 2148     		ldr	r0, .L9
  45 0006 4FF0A043 		mov	r3, #1342177280
  46 000a 0360     		str	r3, [r0]
  68:Src/adc.c     ****   hadc1.Init.ClockPrescaler = ADC_CLOCK_SYNC_PCLK_DIV2;
  47              		.loc 1 68 3 is_stmt 1 view .LVU5
ARM GAS  /var/folders/8c/gyvcglfx7f97kbqb2h83mm_r0000gn/T//ccQy3EdK.s 			page 3


  48              		.loc 1 68 29 is_stmt 0 view .LVU6
  49 000c 4FF40033 		mov	r3, #131072
  50 0010 4360     		str	r3, [r0, #4]
  69:Src/adc.c     ****   hadc1.Init.Resolution = ADC_RESOLUTION_12B;
  51              		.loc 1 69 3 is_stmt 1 view .LVU7
  52              		.loc 1 69 25 is_stmt 0 view .LVU8
  53 0012 0023     		movs	r3, #0
  54 0014 8360     		str	r3, [r0, #8]
  70:Src/adc.c     ****   hadc1.Init.ScanConvMode = ADC_SCAN_DISABLE;
  55              		.loc 1 70 3 is_stmt 1 view .LVU9
  56              		.loc 1 70 27 is_stmt 0 view .LVU10
  57 0016 0361     		str	r3, [r0, #16]
  71:Src/adc.c     ****   hadc1.Init.ContinuousConvMode = ENABLE;
  58              		.loc 1 71 3 is_stmt 1 view .LVU11
  59              		.loc 1 71 33 is_stmt 0 view .LVU12
  60 0018 0122     		movs	r2, #1
  61 001a C261     		str	r2, [r0, #28]
  72:Src/adc.c     ****   hadc1.Init.DiscontinuousConvMode = DISABLE;
  62              		.loc 1 72 3 is_stmt 1 view .LVU13
  63              		.loc 1 72 36 is_stmt 0 view .LVU14
  64 001c 4362     		str	r3, [r0, #36]
  73:Src/adc.c     ****   hadc1.Init.ExternalTrigConvEdge = ADC_EXTERNALTRIGCONVEDGE_RISING;
  65              		.loc 1 73 3 is_stmt 1 view .LVU15
  66              		.loc 1 73 35 is_stmt 0 view .LVU16
  67 001e 4FF48061 		mov	r1, #1024
  68 0022 0163     		str	r1, [r0, #48]
  74:Src/adc.c     ****   hadc1.Init.ExternalTrigConv = ADC_EXTERNALTRIGCONV_T8_TRGO2;
  69              		.loc 1 74 3 is_stmt 1 view .LVU17
  70              		.loc 1 74 31 is_stmt 0 view .LVU18
  71 0024 4FF40071 		mov	r1, #512
  72 0028 C162     		str	r1, [r0, #44]
  75:Src/adc.c     ****   hadc1.Init.DataAlign = ADC_DATAALIGN_RIGHT;
  73              		.loc 1 75 3 is_stmt 1 view .LVU19
  74              		.loc 1 75 24 is_stmt 0 view .LVU20
  75 002a C360     		str	r3, [r0, #12]
  76:Src/adc.c     ****   hadc1.Init.NbrOfConversion = 1;
  76              		.loc 1 76 3 is_stmt 1 view .LVU21
  77              		.loc 1 76 30 is_stmt 0 view .LVU22
  78 002c 0262     		str	r2, [r0, #32]
  77:Src/adc.c     ****   hadc1.Init.DMAContinuousRequests = ENABLE;
  79              		.loc 1 77 3 is_stmt 1 view .LVU23
  80              		.loc 1 77 36 is_stmt 0 view .LVU24
  81 002e 4263     		str	r2, [r0, #52]
  78:Src/adc.c     ****   hadc1.Init.EOCSelection = ADC_EOC_SEQ_CONV;
  82              		.loc 1 78 3 is_stmt 1 view .LVU25
  83              		.loc 1 78 27 is_stmt 0 view .LVU26
  84 0030 0822     		movs	r2, #8
  85 0032 4261     		str	r2, [r0, #20]
  79:Src/adc.c     ****   hadc1.Init.LowPowerAutoWait = DISABLE;
  86              		.loc 1 79 3 is_stmt 1 view .LVU27
  87              		.loc 1 79 31 is_stmt 0 view .LVU28
  88 0034 8361     		str	r3, [r0, #24]
  80:Src/adc.c     ****   hadc1.Init.Overrun = ADC_OVR_DATA_OVERWRITTEN;
  89              		.loc 1 80 3 is_stmt 1 view .LVU29
  90              		.loc 1 80 22 is_stmt 0 view .LVU30
  91 0036 8363     		str	r3, [r0, #56]
  81:Src/adc.c     ****   if (HAL_ADC_Init(&hadc1) != HAL_OK)
ARM GAS  /var/folders/8c/gyvcglfx7f97kbqb2h83mm_r0000gn/T//ccQy3EdK.s 			page 4


  92              		.loc 1 81 3 is_stmt 1 view .LVU31
  93              		.loc 1 81 7 is_stmt 0 view .LVU32
  94 0038 FFF7FEFF 		bl	HAL_ADC_Init
  95              	.LVL0:
  96              		.loc 1 81 6 view .LVU33
  97 003c B8B9     		cbnz	r0, .L6
  98              	.L2:
  82:Src/adc.c     ****   {
  83:Src/adc.c     ****     _Error_Handler(__FILE__, __LINE__);
  84:Src/adc.c     ****   }
  85:Src/adc.c     **** 
  86:Src/adc.c     ****     /**Configure the ADC multi-mode 
  87:Src/adc.c     ****     */
  88:Src/adc.c     ****   multimode.Mode = ADC_MODE_INDEPENDENT;
  99              		.loc 1 88 3 is_stmt 1 view .LVU34
 100              		.loc 1 88 18 is_stmt 0 view .LVU35
 101 003e 0023     		movs	r3, #0
 102 0040 0793     		str	r3, [sp, #28]
  89:Src/adc.c     ****   if (HAL_ADCEx_MultiModeConfigChannel(&hadc1, &multimode) != HAL_OK)
 103              		.loc 1 89 3 is_stmt 1 view .LVU36
 104              		.loc 1 89 7 is_stmt 0 view .LVU37
 105 0042 07A9     		add	r1, sp, #28
 106 0044 1148     		ldr	r0, .L9
 107 0046 FFF7FEFF 		bl	HAL_ADCEx_MultiModeConfigChannel
 108              	.LVL1:
 109              		.loc 1 89 6 view .LVU38
 110 004a A8B9     		cbnz	r0, .L7
 111              	.L3:
  90:Src/adc.c     ****   {
  91:Src/adc.c     ****     _Error_Handler(__FILE__, __LINE__);
  92:Src/adc.c     ****   }
  93:Src/adc.c     **** 
  94:Src/adc.c     ****     /**Configure Regular Channel 
  95:Src/adc.c     ****     */
  96:Src/adc.c     ****   sConfig.Channel = ADC_CHANNEL_1;
 112              		.loc 1 96 3 is_stmt 1 view .LVU39
 113              		.loc 1 96 19 is_stmt 0 view .LVU40
 114 004c 0123     		movs	r3, #1
 115 004e 0193     		str	r3, [sp, #4]
  97:Src/adc.c     ****   sConfig.Rank = ADC_REGULAR_RANK_1;
 116              		.loc 1 97 3 is_stmt 1 view .LVU41
 117              		.loc 1 97 16 is_stmt 0 view .LVU42
 118 0050 0293     		str	r3, [sp, #8]
  98:Src/adc.c     ****   sConfig.SingleDiff = ADC_SINGLE_ENDED;
 119              		.loc 1 98 3 is_stmt 1 view .LVU43
 120              		.loc 1 98 22 is_stmt 0 view .LVU44
 121 0052 0023     		movs	r3, #0
 122 0054 0493     		str	r3, [sp, #16]
  99:Src/adc.c     ****   sConfig.SamplingTime = ADC_SAMPLETIME_601CYCLES_5;
 123              		.loc 1 99 3 is_stmt 1 view .LVU45
 124              		.loc 1 99 24 is_stmt 0 view .LVU46
 125 0056 0722     		movs	r2, #7
 126 0058 0392     		str	r2, [sp, #12]
 100:Src/adc.c     ****   sConfig.OffsetNumber = ADC_OFFSET_NONE;
 127              		.loc 1 100 3 is_stmt 1 view .LVU47
 128              		.loc 1 100 24 is_stmt 0 view .LVU48
 129 005a 0593     		str	r3, [sp, #20]
ARM GAS  /var/folders/8c/gyvcglfx7f97kbqb2h83mm_r0000gn/T//ccQy3EdK.s 			page 5


 101:Src/adc.c     ****   sConfig.Offset = 0;
 130              		.loc 1 101 3 is_stmt 1 view .LVU49
 131              		.loc 1 101 18 is_stmt 0 view .LVU50
 132 005c 0693     		str	r3, [sp, #24]
 102:Src/adc.c     ****   if (HAL_ADC_ConfigChannel(&hadc1, &sConfig) != HAL_OK)
 133              		.loc 1 102 3 is_stmt 1 view .LVU51
 134              		.loc 1 102 7 is_stmt 0 view .LVU52
 135 005e 01A9     		add	r1, sp, #4
 136 0060 0A48     		ldr	r0, .L9
 137 0062 FFF7FEFF 		bl	HAL_ADC_ConfigChannel
 138              	.LVL2:
 139              		.loc 1 102 6 view .LVU53
 140 0066 60B9     		cbnz	r0, .L8
 141              	.L1:
 103:Src/adc.c     ****   {
 104:Src/adc.c     ****     _Error_Handler(__FILE__, __LINE__);
 105:Src/adc.c     ****   }
 106:Src/adc.c     **** 
 107:Src/adc.c     **** }
 142              		.loc 1 107 1 view .LVU54
 143 0068 0BB0     		add	sp, sp, #44
 144              	.LCFI2:
 145              		.cfi_remember_state
 146              		.cfi_def_cfa_offset 4
 147              		@ sp needed
 148 006a 5DF804FB 		ldr	pc, [sp], #4
 149              	.L6:
 150              	.LCFI3:
 151              		.cfi_restore_state
  83:Src/adc.c     ****   }
 152              		.loc 1 83 5 is_stmt 1 view .LVU55
 153 006e 5321     		movs	r1, #83
 154 0070 0748     		ldr	r0, .L9+4
 155 0072 FFF7FEFF 		bl	_Error_Handler
 156              	.LVL3:
 157 0076 E2E7     		b	.L2
 158              	.L7:
  91:Src/adc.c     ****   }
 159              		.loc 1 91 5 view .LVU56
 160 0078 5B21     		movs	r1, #91
 161 007a 0548     		ldr	r0, .L9+4
 162 007c FFF7FEFF 		bl	_Error_Handler
 163              	.LVL4:
 164 0080 E4E7     		b	.L3
 165              	.L8:
 104:Src/adc.c     ****   }
 166              		.loc 1 104 5 view .LVU57
 167 0082 6821     		movs	r1, #104
 168 0084 0248     		ldr	r0, .L9+4
 169 0086 FFF7FEFF 		bl	_Error_Handler
 170              	.LVL5:
 171              		.loc 1 107 1 is_stmt 0 view .LVU58
 172 008a EDE7     		b	.L1
 173              	.L10:
 174              		.align	2
 175              	.L9:
 176 008c 00000000 		.word	hadc1
ARM GAS  /var/folders/8c/gyvcglfx7f97kbqb2h83mm_r0000gn/T//ccQy3EdK.s 			page 6


 177 0090 00000000 		.word	.LC0
 178              		.cfi_endproc
 179              	.LFE126:
 181              		.section	.text.MX_ADC2_Init,"ax",%progbits
 182              		.align	1
 183              		.global	MX_ADC2_Init
 184              		.syntax unified
 185              		.thumb
 186              		.thumb_func
 187              		.fpu fpv4-sp-d16
 189              	MX_ADC2_Init:
 190              	.LFB127:
 108:Src/adc.c     **** /* ADC2 init function */
 109:Src/adc.c     **** void MX_ADC2_Init(void)
 110:Src/adc.c     **** {
 191              		.loc 1 110 1 is_stmt 1 view -0
 192              		.cfi_startproc
 193              		@ args = 0, pretend = 0, frame = 24
 194              		@ frame_needed = 0, uses_anonymous_args = 0
 195 0000 00B5     		push	{lr}
 196              	.LCFI4:
 197              		.cfi_def_cfa_offset 4
 198              		.cfi_offset 14, -4
 199 0002 87B0     		sub	sp, sp, #28
 200              	.LCFI5:
 201              		.cfi_def_cfa_offset 32
 111:Src/adc.c     ****   ADC_ChannelConfTypeDef sConfig;
 202              		.loc 1 111 3 view .LVU60
 112:Src/adc.c     **** 
 113:Src/adc.c     ****     /**Common config 
 114:Src/adc.c     ****     */
 115:Src/adc.c     ****   hadc2.Instance = ADC2;
 203              		.loc 1 115 3 view .LVU61
 204              		.loc 1 115 18 is_stmt 0 view .LVU62
 205 0004 2948     		ldr	r0, .L21
 206 0006 2A4B     		ldr	r3, .L21+4
 207 0008 0360     		str	r3, [r0]
 116:Src/adc.c     ****   hadc2.Init.ClockPrescaler = ADC_CLOCK_SYNC_PCLK_DIV2;
 208              		.loc 1 116 3 is_stmt 1 view .LVU63
 209              		.loc 1 116 29 is_stmt 0 view .LVU64
 210 000a 4FF40033 		mov	r3, #131072
 211 000e 4360     		str	r3, [r0, #4]
 117:Src/adc.c     ****   hadc2.Init.Resolution = ADC_RESOLUTION_12B;
 212              		.loc 1 117 3 is_stmt 1 view .LVU65
 213              		.loc 1 117 25 is_stmt 0 view .LVU66
 214 0010 0023     		movs	r3, #0
 215 0012 8360     		str	r3, [r0, #8]
 118:Src/adc.c     ****   hadc2.Init.ScanConvMode = ADC_SCAN_ENABLE;
 216              		.loc 1 118 3 is_stmt 1 view .LVU67
 217              		.loc 1 118 27 is_stmt 0 view .LVU68
 218 0014 0122     		movs	r2, #1
 219 0016 0261     		str	r2, [r0, #16]
 119:Src/adc.c     ****   hadc2.Init.ContinuousConvMode = ENABLE;
 220              		.loc 1 119 3 is_stmt 1 view .LVU69
 221              		.loc 1 119 33 is_stmt 0 view .LVU70
 222 0018 C261     		str	r2, [r0, #28]
 120:Src/adc.c     ****   hadc2.Init.DiscontinuousConvMode = DISABLE;
ARM GAS  /var/folders/8c/gyvcglfx7f97kbqb2h83mm_r0000gn/T//ccQy3EdK.s 			page 7


 223              		.loc 1 120 3 is_stmt 1 view .LVU71
 224              		.loc 1 120 36 is_stmt 0 view .LVU72
 225 001a 4362     		str	r3, [r0, #36]
 121:Src/adc.c     ****   hadc2.Init.ExternalTrigConvEdge = ADC_EXTERNALTRIGCONVEDGE_RISING;
 226              		.loc 1 121 3 is_stmt 1 view .LVU73
 227              		.loc 1 121 35 is_stmt 0 view .LVU74
 228 001c 4FF48061 		mov	r1, #1024
 229 0020 0163     		str	r1, [r0, #48]
 122:Src/adc.c     ****   hadc2.Init.ExternalTrigConv = ADC_EXTERNALTRIGCONV_T8_TRGO2;
 230              		.loc 1 122 3 is_stmt 1 view .LVU75
 231              		.loc 1 122 31 is_stmt 0 view .LVU76
 232 0022 4FF40071 		mov	r1, #512
 233 0026 C162     		str	r1, [r0, #44]
 123:Src/adc.c     ****   hadc2.Init.DataAlign = ADC_DATAALIGN_RIGHT;
 234              		.loc 1 123 3 is_stmt 1 view .LVU77
 235              		.loc 1 123 24 is_stmt 0 view .LVU78
 236 0028 C360     		str	r3, [r0, #12]
 124:Src/adc.c     ****   hadc2.Init.NbrOfConversion = 3;
 237              		.loc 1 124 3 is_stmt 1 view .LVU79
 238              		.loc 1 124 30 is_stmt 0 view .LVU80
 239 002a 0321     		movs	r1, #3
 240 002c 0162     		str	r1, [r0, #32]
 125:Src/adc.c     ****   hadc2.Init.DMAContinuousRequests = ENABLE;
 241              		.loc 1 125 3 is_stmt 1 view .LVU81
 242              		.loc 1 125 36 is_stmt 0 view .LVU82
 243 002e 4263     		str	r2, [r0, #52]
 126:Src/adc.c     ****   hadc2.Init.EOCSelection = ADC_EOC_SEQ_CONV;
 244              		.loc 1 126 3 is_stmt 1 view .LVU83
 245              		.loc 1 126 27 is_stmt 0 view .LVU84
 246 0030 0822     		movs	r2, #8
 247 0032 4261     		str	r2, [r0, #20]
 127:Src/adc.c     ****   hadc2.Init.LowPowerAutoWait = DISABLE;
 248              		.loc 1 127 3 is_stmt 1 view .LVU85
 249              		.loc 1 127 31 is_stmt 0 view .LVU86
 250 0034 8361     		str	r3, [r0, #24]
 128:Src/adc.c     ****   hadc2.Init.Overrun = ADC_OVR_DATA_OVERWRITTEN;
 251              		.loc 1 128 3 is_stmt 1 view .LVU87
 252              		.loc 1 128 22 is_stmt 0 view .LVU88
 253 0036 8363     		str	r3, [r0, #56]
 129:Src/adc.c     ****   if (HAL_ADC_Init(&hadc2) != HAL_OK)
 254              		.loc 1 129 3 is_stmt 1 view .LVU89
 255              		.loc 1 129 7 is_stmt 0 view .LVU90
 256 0038 FFF7FEFF 		bl	HAL_ADC_Init
 257              	.LVL6:
 258              		.loc 1 129 6 view .LVU91
 259 003c 10BB     		cbnz	r0, .L17
 260              	.L12:
 130:Src/adc.c     ****   {
 131:Src/adc.c     ****     _Error_Handler(__FILE__, __LINE__);
 132:Src/adc.c     ****   }
 133:Src/adc.c     **** 
 134:Src/adc.c     ****     /**Configure Regular Channel 
 135:Src/adc.c     ****     */
 136:Src/adc.c     ****   sConfig.Channel = ADC_CHANNEL_1;
 261              		.loc 1 136 3 is_stmt 1 view .LVU92
 262              		.loc 1 136 19 is_stmt 0 view .LVU93
 263 003e 0123     		movs	r3, #1
ARM GAS  /var/folders/8c/gyvcglfx7f97kbqb2h83mm_r0000gn/T//ccQy3EdK.s 			page 8


 264 0040 0093     		str	r3, [sp]
 137:Src/adc.c     ****   sConfig.Rank = ADC_REGULAR_RANK_1;
 265              		.loc 1 137 3 is_stmt 1 view .LVU94
 266              		.loc 1 137 16 is_stmt 0 view .LVU95
 267 0042 0193     		str	r3, [sp, #4]
 138:Src/adc.c     ****   sConfig.SingleDiff = ADC_SINGLE_ENDED;
 268              		.loc 1 138 3 is_stmt 1 view .LVU96
 269              		.loc 1 138 22 is_stmt 0 view .LVU97
 270 0044 0023     		movs	r3, #0
 271 0046 0393     		str	r3, [sp, #12]
 139:Src/adc.c     ****   sConfig.SamplingTime = ADC_SAMPLETIME_601CYCLES_5;
 272              		.loc 1 139 3 is_stmt 1 view .LVU98
 273              		.loc 1 139 24 is_stmt 0 view .LVU99
 274 0048 0722     		movs	r2, #7
 275 004a 0292     		str	r2, [sp, #8]
 140:Src/adc.c     ****   sConfig.OffsetNumber = ADC_OFFSET_NONE;
 276              		.loc 1 140 3 is_stmt 1 view .LVU100
 277              		.loc 1 140 24 is_stmt 0 view .LVU101
 278 004c 0493     		str	r3, [sp, #16]
 141:Src/adc.c     ****   sConfig.Offset = 0;
 279              		.loc 1 141 3 is_stmt 1 view .LVU102
 280              		.loc 1 141 18 is_stmt 0 view .LVU103
 281 004e 0593     		str	r3, [sp, #20]
 142:Src/adc.c     ****   if (HAL_ADC_ConfigChannel(&hadc2, &sConfig) != HAL_OK)
 282              		.loc 1 142 3 is_stmt 1 view .LVU104
 283              		.loc 1 142 7 is_stmt 0 view .LVU105
 284 0050 6946     		mov	r1, sp
 285 0052 1648     		ldr	r0, .L21
 286 0054 FFF7FEFF 		bl	HAL_ADC_ConfigChannel
 287              	.LVL7:
 288              		.loc 1 142 6 view .LVU106
 289 0058 C8B9     		cbnz	r0, .L18
 290              	.L13:
 143:Src/adc.c     ****   {
 144:Src/adc.c     ****     _Error_Handler(__FILE__, __LINE__);
 145:Src/adc.c     ****   }
 146:Src/adc.c     **** 
 147:Src/adc.c     ****     /**Configure Regular Channel 
 148:Src/adc.c     ****     */
 149:Src/adc.c     ****   sConfig.Channel = ADC_CHANNEL_6;
 291              		.loc 1 149 3 is_stmt 1 view .LVU107
 292              		.loc 1 149 19 is_stmt 0 view .LVU108
 293 005a 0623     		movs	r3, #6
 294 005c 0093     		str	r3, [sp]
 150:Src/adc.c     ****   sConfig.Rank = ADC_REGULAR_RANK_2;
 295              		.loc 1 150 3 is_stmt 1 view .LVU109
 296              		.loc 1 150 16 is_stmt 0 view .LVU110
 297 005e 0223     		movs	r3, #2
 298 0060 0193     		str	r3, [sp, #4]
 151:Src/adc.c     ****   if (HAL_ADC_ConfigChannel(&hadc2, &sConfig) != HAL_OK)
 299              		.loc 1 151 3 is_stmt 1 view .LVU111
 300              		.loc 1 151 7 is_stmt 0 view .LVU112
 301 0062 6946     		mov	r1, sp
 302 0064 1148     		ldr	r0, .L21
 303 0066 FFF7FEFF 		bl	HAL_ADC_ConfigChannel
 304              	.LVL8:
 305              		.loc 1 151 6 view .LVU113
ARM GAS  /var/folders/8c/gyvcglfx7f97kbqb2h83mm_r0000gn/T//ccQy3EdK.s 			page 9


 306 006a A8B9     		cbnz	r0, .L19
 307              	.L14:
 152:Src/adc.c     ****   {
 153:Src/adc.c     ****     _Error_Handler(__FILE__, __LINE__);
 154:Src/adc.c     ****   }
 155:Src/adc.c     **** 
 156:Src/adc.c     ****     /**Configure Regular Channel 
 157:Src/adc.c     ****     */
 158:Src/adc.c     ****   sConfig.Channel = ADC_CHANNEL_7;
 308              		.loc 1 158 3 is_stmt 1 view .LVU114
 309              		.loc 1 158 19 is_stmt 0 view .LVU115
 310 006c 0723     		movs	r3, #7
 311 006e 0093     		str	r3, [sp]
 159:Src/adc.c     ****   sConfig.Rank = ADC_REGULAR_RANK_3;
 312              		.loc 1 159 3 is_stmt 1 view .LVU116
 313              		.loc 1 159 16 is_stmt 0 view .LVU117
 314 0070 0323     		movs	r3, #3
 315 0072 0193     		str	r3, [sp, #4]
 160:Src/adc.c     ****   if (HAL_ADC_ConfigChannel(&hadc2, &sConfig) != HAL_OK)
 316              		.loc 1 160 3 is_stmt 1 view .LVU118
 317              		.loc 1 160 7 is_stmt 0 view .LVU119
 318 0074 6946     		mov	r1, sp
 319 0076 0D48     		ldr	r0, .L21
 320 0078 FFF7FEFF 		bl	HAL_ADC_ConfigChannel
 321              	.LVL9:
 322              		.loc 1 160 6 view .LVU120
 323 007c 88B9     		cbnz	r0, .L20
 324              	.L11:
 161:Src/adc.c     ****   {
 162:Src/adc.c     ****     _Error_Handler(__FILE__, __LINE__);
 163:Src/adc.c     ****   }
 164:Src/adc.c     **** 
 165:Src/adc.c     **** }
 325              		.loc 1 165 1 view .LVU121
 326 007e 07B0     		add	sp, sp, #28
 327              	.LCFI6:
 328              		.cfi_remember_state
 329              		.cfi_def_cfa_offset 4
 330              		@ sp needed
 331 0080 5DF804FB 		ldr	pc, [sp], #4
 332              	.L17:
 333              	.LCFI7:
 334              		.cfi_restore_state
 131:Src/adc.c     ****   }
 335              		.loc 1 131 5 is_stmt 1 view .LVU122
 336 0084 8321     		movs	r1, #131
 337 0086 0B48     		ldr	r0, .L21+8
 338 0088 FFF7FEFF 		bl	_Error_Handler
 339              	.LVL10:
 340 008c D7E7     		b	.L12
 341              	.L18:
 144:Src/adc.c     ****   }
 342              		.loc 1 144 5 view .LVU123
 343 008e 9021     		movs	r1, #144
 344 0090 0848     		ldr	r0, .L21+8
 345 0092 FFF7FEFF 		bl	_Error_Handler
 346              	.LVL11:
ARM GAS  /var/folders/8c/gyvcglfx7f97kbqb2h83mm_r0000gn/T//ccQy3EdK.s 			page 10


 347 0096 E0E7     		b	.L13
 348              	.L19:
 153:Src/adc.c     ****   }
 349              		.loc 1 153 5 view .LVU124
 350 0098 9921     		movs	r1, #153
 351 009a 0648     		ldr	r0, .L21+8
 352 009c FFF7FEFF 		bl	_Error_Handler
 353              	.LVL12:
 354 00a0 E4E7     		b	.L14
 355              	.L20:
 162:Src/adc.c     ****   }
 356              		.loc 1 162 5 view .LVU125
 357 00a2 A221     		movs	r1, #162
 358 00a4 0348     		ldr	r0, .L21+8
 359 00a6 FFF7FEFF 		bl	_Error_Handler
 360              	.LVL13:
 361              		.loc 1 165 1 is_stmt 0 view .LVU126
 362 00aa E8E7     		b	.L11
 363              	.L22:
 364              		.align	2
 365              	.L21:
 366 00ac 00000000 		.word	hadc2
 367 00b0 00010050 		.word	1342177536
 368 00b4 00000000 		.word	.LC0
 369              		.cfi_endproc
 370              	.LFE127:
 372              		.section	.text.HAL_ADC_MspInit,"ax",%progbits
 373              		.align	1
 374              		.global	HAL_ADC_MspInit
 375              		.syntax unified
 376              		.thumb
 377              		.thumb_func
 378              		.fpu fpv4-sp-d16
 380              	HAL_ADC_MspInit:
 381              	.LVL14:
 382              	.LFB128:
 166:Src/adc.c     **** 
 167:Src/adc.c     **** static uint32_t HAL_RCC_ADC12_CLK_ENABLED=0;
 168:Src/adc.c     **** 
 169:Src/adc.c     **** void HAL_ADC_MspInit(ADC_HandleTypeDef* adcHandle)
 170:Src/adc.c     **** {
 383              		.loc 1 170 1 is_stmt 1 view -0
 384              		.cfi_startproc
 385              		@ args = 0, pretend = 0, frame = 32
 386              		@ frame_needed = 0, uses_anonymous_args = 0
 387              		.loc 1 170 1 is_stmt 0 view .LVU128
 388 0000 70B5     		push	{r4, r5, r6, lr}
 389              	.LCFI8:
 390              		.cfi_def_cfa_offset 16
 391              		.cfi_offset 4, -16
 392              		.cfi_offset 5, -12
 393              		.cfi_offset 6, -8
 394              		.cfi_offset 14, -4
 395 0002 88B0     		sub	sp, sp, #32
 396              	.LCFI9:
 397              		.cfi_def_cfa_offset 48
 398 0004 0446     		mov	r4, r0
ARM GAS  /var/folders/8c/gyvcglfx7f97kbqb2h83mm_r0000gn/T//ccQy3EdK.s 			page 11


 171:Src/adc.c     **** 
 172:Src/adc.c     ****   GPIO_InitTypeDef GPIO_InitStruct;
 399              		.loc 1 172 3 is_stmt 1 view .LVU129
 173:Src/adc.c     ****   if(adcHandle->Instance==ADC1)
 400              		.loc 1 173 3 view .LVU130
 401              		.loc 1 173 15 is_stmt 0 view .LVU131
 402 0006 0368     		ldr	r3, [r0]
 403              		.loc 1 173 5 view .LVU132
 404 0008 B3F1A04F 		cmp	r3, #1342177280
 405 000c 04D0     		beq	.L31
 174:Src/adc.c     ****   {
 175:Src/adc.c     ****   /* USER CODE BEGIN ADC1_MspInit 0 */
 176:Src/adc.c     **** 
 177:Src/adc.c     ****   /* USER CODE END ADC1_MspInit 0 */
 178:Src/adc.c     ****     /* ADC1 clock enable */
 179:Src/adc.c     ****     HAL_RCC_ADC12_CLK_ENABLED++;
 180:Src/adc.c     ****     if(HAL_RCC_ADC12_CLK_ENABLED==1){
 181:Src/adc.c     ****       __HAL_RCC_ADC12_CLK_ENABLE();
 182:Src/adc.c     ****     }
 183:Src/adc.c     ****   
 184:Src/adc.c     ****     /**ADC1 GPIO Configuration    
 185:Src/adc.c     ****     PA0     ------> ADC1_IN1 
 186:Src/adc.c     ****     */
 187:Src/adc.c     ****     GPIO_InitStruct.Pin = GPIO_PIN_0;
 188:Src/adc.c     ****     GPIO_InitStruct.Mode = GPIO_MODE_ANALOG;
 189:Src/adc.c     ****     GPIO_InitStruct.Pull = GPIO_NOPULL;
 190:Src/adc.c     ****     HAL_GPIO_Init(GPIOA, &GPIO_InitStruct);
 191:Src/adc.c     **** 
 192:Src/adc.c     ****     /* ADC1 DMA Init */
 193:Src/adc.c     ****     /* ADC1 Init */
 194:Src/adc.c     ****     hdma_adc1.Instance = DMA1_Channel1;
 195:Src/adc.c     ****     hdma_adc1.Init.Direction = DMA_PERIPH_TO_MEMORY;
 196:Src/adc.c     ****     hdma_adc1.Init.PeriphInc = DMA_PINC_DISABLE;
 197:Src/adc.c     ****     hdma_adc1.Init.MemInc = DMA_MINC_ENABLE;
 198:Src/adc.c     ****     hdma_adc1.Init.PeriphDataAlignment = DMA_PDATAALIGN_HALFWORD;
 199:Src/adc.c     ****     hdma_adc1.Init.MemDataAlignment = DMA_MDATAALIGN_HALFWORD;
 200:Src/adc.c     ****     hdma_adc1.Init.Mode = DMA_CIRCULAR;
 201:Src/adc.c     ****     hdma_adc1.Init.Priority = DMA_PRIORITY_HIGH;
 202:Src/adc.c     ****     if (HAL_DMA_Init(&hdma_adc1) != HAL_OK)
 203:Src/adc.c     ****     {
 204:Src/adc.c     ****       _Error_Handler(__FILE__, __LINE__);
 205:Src/adc.c     ****     }
 206:Src/adc.c     **** 
 207:Src/adc.c     ****     __HAL_LINKDMA(adcHandle,DMA_Handle,hdma_adc1);
 208:Src/adc.c     **** 
 209:Src/adc.c     ****   /* USER CODE BEGIN ADC1_MspInit 1 */
 210:Src/adc.c     **** 
 211:Src/adc.c     ****   /* USER CODE END ADC1_MspInit 1 */
 212:Src/adc.c     ****   }
 213:Src/adc.c     ****   else if(adcHandle->Instance==ADC2)
 406              		.loc 1 213 8 is_stmt 1 view .LVU133
 407              		.loc 1 213 10 is_stmt 0 view .LVU134
 408 000e 404A     		ldr	r2, .L37
 409 0010 9342     		cmp	r3, r2
 410 0012 3BD0     		beq	.L32
 411              	.LVL15:
 412              	.L23:
ARM GAS  /var/folders/8c/gyvcglfx7f97kbqb2h83mm_r0000gn/T//ccQy3EdK.s 			page 12


 214:Src/adc.c     ****   {
 215:Src/adc.c     ****   /* USER CODE BEGIN ADC2_MspInit 0 */
 216:Src/adc.c     **** 
 217:Src/adc.c     ****   /* USER CODE END ADC2_MspInit 0 */
 218:Src/adc.c     ****     /* ADC2 clock enable */
 219:Src/adc.c     ****     HAL_RCC_ADC12_CLK_ENABLED++;
 220:Src/adc.c     ****     if(HAL_RCC_ADC12_CLK_ENABLED==1){
 221:Src/adc.c     ****       __HAL_RCC_ADC12_CLK_ENABLE();
 222:Src/adc.c     ****     }
 223:Src/adc.c     ****   
 224:Src/adc.c     ****     /**ADC2 GPIO Configuration    
 225:Src/adc.c     ****     PC0     ------> ADC2_IN6
 226:Src/adc.c     ****     PC1     ------> ADC2_IN7
 227:Src/adc.c     ****     PA4     ------> ADC2_IN1 
 228:Src/adc.c     ****     */
 229:Src/adc.c     ****     GPIO_InitStruct.Pin = GPIO_PIN_0|GPIO_PIN_1;
 230:Src/adc.c     ****     GPIO_InitStruct.Mode = GPIO_MODE_ANALOG;
 231:Src/adc.c     ****     GPIO_InitStruct.Pull = GPIO_NOPULL;
 232:Src/adc.c     ****     HAL_GPIO_Init(GPIOC, &GPIO_InitStruct);
 233:Src/adc.c     **** 
 234:Src/adc.c     ****     GPIO_InitStruct.Pin = GPIO_PIN_4;
 235:Src/adc.c     ****     GPIO_InitStruct.Mode = GPIO_MODE_ANALOG;
 236:Src/adc.c     ****     GPIO_InitStruct.Pull = GPIO_NOPULL;
 237:Src/adc.c     ****     HAL_GPIO_Init(GPIOA, &GPIO_InitStruct);
 238:Src/adc.c     **** 
 239:Src/adc.c     ****     /* ADC2 DMA Init */
 240:Src/adc.c     ****     /* ADC2 Init */
 241:Src/adc.c     ****     hdma_adc2.Instance = DMA2_Channel1;
 242:Src/adc.c     ****     hdma_adc2.Init.Direction = DMA_PERIPH_TO_MEMORY;
 243:Src/adc.c     ****     hdma_adc2.Init.PeriphInc = DMA_PINC_DISABLE;
 244:Src/adc.c     ****     hdma_adc2.Init.MemInc = DMA_MINC_ENABLE;
 245:Src/adc.c     ****     hdma_adc2.Init.PeriphDataAlignment = DMA_PDATAALIGN_HALFWORD;
 246:Src/adc.c     ****     hdma_adc2.Init.MemDataAlignment = DMA_MDATAALIGN_HALFWORD;
 247:Src/adc.c     ****     hdma_adc2.Init.Mode = DMA_CIRCULAR;
 248:Src/adc.c     ****     hdma_adc2.Init.Priority = DMA_PRIORITY_HIGH;
 249:Src/adc.c     ****     if (HAL_DMA_Init(&hdma_adc2) != HAL_OK)
 250:Src/adc.c     ****     {
 251:Src/adc.c     ****       _Error_Handler(__FILE__, __LINE__);
 252:Src/adc.c     ****     }
 253:Src/adc.c     **** 
 254:Src/adc.c     ****     __HAL_LINKDMA(adcHandle,DMA_Handle,hdma_adc2);
 255:Src/adc.c     **** 
 256:Src/adc.c     ****   /* USER CODE BEGIN ADC2_MspInit 1 */
 257:Src/adc.c     **** 
 258:Src/adc.c     ****   /* USER CODE END ADC2_MspInit 1 */
 259:Src/adc.c     ****   }
 260:Src/adc.c     **** }
 413              		.loc 1 260 1 view .LVU135
 414 0014 08B0     		add	sp, sp, #32
 415              	.LCFI10:
 416              		.cfi_remember_state
 417              		.cfi_def_cfa_offset 16
 418              		@ sp needed
 419 0016 70BD     		pop	{r4, r5, r6, pc}
 420              	.LVL16:
 421              	.L31:
 422              	.LCFI11:
ARM GAS  /var/folders/8c/gyvcglfx7f97kbqb2h83mm_r0000gn/T//ccQy3EdK.s 			page 13


 423              		.cfi_restore_state
 179:Src/adc.c     ****     if(HAL_RCC_ADC12_CLK_ENABLED==1){
 424              		.loc 1 179 5 is_stmt 1 view .LVU136
 179:Src/adc.c     ****     if(HAL_RCC_ADC12_CLK_ENABLED==1){
 425              		.loc 1 179 30 is_stmt 0 view .LVU137
 426 0018 3E4A     		ldr	r2, .L37+4
 427 001a 1368     		ldr	r3, [r2]
 428 001c 0133     		adds	r3, r3, #1
 429 001e 1360     		str	r3, [r2]
 180:Src/adc.c     ****       __HAL_RCC_ADC12_CLK_ENABLE();
 430              		.loc 1 180 5 is_stmt 1 view .LVU138
 180:Src/adc.c     ****       __HAL_RCC_ADC12_CLK_ENABLE();
 431              		.loc 1 180 7 is_stmt 0 view .LVU139
 432 0020 012B     		cmp	r3, #1
 433 0022 23D0     		beq	.L33
 434              	.L25:
 187:Src/adc.c     ****     GPIO_InitStruct.Mode = GPIO_MODE_ANALOG;
 435              		.loc 1 187 5 is_stmt 1 view .LVU140
 187:Src/adc.c     ****     GPIO_InitStruct.Mode = GPIO_MODE_ANALOG;
 436              		.loc 1 187 25 is_stmt 0 view .LVU141
 437 0024 0123     		movs	r3, #1
 438 0026 0393     		str	r3, [sp, #12]
 188:Src/adc.c     ****     GPIO_InitStruct.Pull = GPIO_NOPULL;
 439              		.loc 1 188 5 is_stmt 1 view .LVU142
 188:Src/adc.c     ****     GPIO_InitStruct.Pull = GPIO_NOPULL;
 440              		.loc 1 188 26 is_stmt 0 view .LVU143
 441 0028 0323     		movs	r3, #3
 442 002a 0493     		str	r3, [sp, #16]
 189:Src/adc.c     ****     HAL_GPIO_Init(GPIOA, &GPIO_InitStruct);
 443              		.loc 1 189 5 is_stmt 1 view .LVU144
 189:Src/adc.c     ****     HAL_GPIO_Init(GPIOA, &GPIO_InitStruct);
 444              		.loc 1 189 26 is_stmt 0 view .LVU145
 445 002c 0025     		movs	r5, #0
 446 002e 0595     		str	r5, [sp, #20]
 190:Src/adc.c     **** 
 447              		.loc 1 190 5 is_stmt 1 view .LVU146
 448 0030 03A9     		add	r1, sp, #12
 449 0032 4FF09040 		mov	r0, #1207959552
 450              	.LVL17:
 190:Src/adc.c     **** 
 451              		.loc 1 190 5 is_stmt 0 view .LVU147
 452 0036 FFF7FEFF 		bl	HAL_GPIO_Init
 453              	.LVL18:
 194:Src/adc.c     ****     hdma_adc1.Init.Direction = DMA_PERIPH_TO_MEMORY;
 454              		.loc 1 194 5 is_stmt 1 view .LVU148
 194:Src/adc.c     ****     hdma_adc1.Init.Direction = DMA_PERIPH_TO_MEMORY;
 455              		.loc 1 194 24 is_stmt 0 view .LVU149
 456 003a 3748     		ldr	r0, .L37+8
 457 003c 374B     		ldr	r3, .L37+12
 458 003e 0360     		str	r3, [r0]
 195:Src/adc.c     ****     hdma_adc1.Init.PeriphInc = DMA_PINC_DISABLE;
 459              		.loc 1 195 5 is_stmt 1 view .LVU150
 195:Src/adc.c     ****     hdma_adc1.Init.PeriphInc = DMA_PINC_DISABLE;
 460              		.loc 1 195 30 is_stmt 0 view .LVU151
 461 0040 4560     		str	r5, [r0, #4]
 196:Src/adc.c     ****     hdma_adc1.Init.MemInc = DMA_MINC_ENABLE;
 462              		.loc 1 196 5 is_stmt 1 view .LVU152
ARM GAS  /var/folders/8c/gyvcglfx7f97kbqb2h83mm_r0000gn/T//ccQy3EdK.s 			page 14


 196:Src/adc.c     ****     hdma_adc1.Init.MemInc = DMA_MINC_ENABLE;
 463              		.loc 1 196 30 is_stmt 0 view .LVU153
 464 0042 8560     		str	r5, [r0, #8]
 197:Src/adc.c     ****     hdma_adc1.Init.PeriphDataAlignment = DMA_PDATAALIGN_HALFWORD;
 465              		.loc 1 197 5 is_stmt 1 view .LVU154
 197:Src/adc.c     ****     hdma_adc1.Init.PeriphDataAlignment = DMA_PDATAALIGN_HALFWORD;
 466              		.loc 1 197 27 is_stmt 0 view .LVU155
 467 0044 8023     		movs	r3, #128
 468 0046 C360     		str	r3, [r0, #12]
 198:Src/adc.c     ****     hdma_adc1.Init.MemDataAlignment = DMA_MDATAALIGN_HALFWORD;
 469              		.loc 1 198 5 is_stmt 1 view .LVU156
 198:Src/adc.c     ****     hdma_adc1.Init.MemDataAlignment = DMA_MDATAALIGN_HALFWORD;
 470              		.loc 1 198 40 is_stmt 0 view .LVU157
 471 0048 4FF48073 		mov	r3, #256
 472 004c 0361     		str	r3, [r0, #16]
 199:Src/adc.c     ****     hdma_adc1.Init.Mode = DMA_CIRCULAR;
 473              		.loc 1 199 5 is_stmt 1 view .LVU158
 199:Src/adc.c     ****     hdma_adc1.Init.Mode = DMA_CIRCULAR;
 474              		.loc 1 199 37 is_stmt 0 view .LVU159
 475 004e 4FF48063 		mov	r3, #1024
 476 0052 4361     		str	r3, [r0, #20]
 200:Src/adc.c     ****     hdma_adc1.Init.Priority = DMA_PRIORITY_HIGH;
 477              		.loc 1 200 5 is_stmt 1 view .LVU160
 200:Src/adc.c     ****     hdma_adc1.Init.Priority = DMA_PRIORITY_HIGH;
 478              		.loc 1 200 25 is_stmt 0 view .LVU161
 479 0054 2023     		movs	r3, #32
 480 0056 8361     		str	r3, [r0, #24]
 201:Src/adc.c     ****     if (HAL_DMA_Init(&hdma_adc1) != HAL_OK)
 481              		.loc 1 201 5 is_stmt 1 view .LVU162
 201:Src/adc.c     ****     if (HAL_DMA_Init(&hdma_adc1) != HAL_OK)
 482              		.loc 1 201 29 is_stmt 0 view .LVU163
 483 0058 4FF40053 		mov	r3, #8192
 484 005c C361     		str	r3, [r0, #28]
 202:Src/adc.c     ****     {
 485              		.loc 1 202 5 is_stmt 1 view .LVU164
 202:Src/adc.c     ****     {
 486              		.loc 1 202 9 is_stmt 0 view .LVU165
 487 005e FFF7FEFF 		bl	HAL_DMA_Init
 488              	.LVL19:
 202:Src/adc.c     ****     {
 489              		.loc 1 202 8 view .LVU166
 490 0062 70B9     		cbnz	r0, .L34
 491              	.L26:
 207:Src/adc.c     **** 
 492              		.loc 1 207 5 is_stmt 1 view .LVU167
 207:Src/adc.c     **** 
 493              		.loc 1 207 5 view .LVU168
 494 0064 2C4B     		ldr	r3, .L37+8
 495 0066 E363     		str	r3, [r4, #60]
 207:Src/adc.c     **** 
 496              		.loc 1 207 5 view .LVU169
 497 0068 5C62     		str	r4, [r3, #36]
 498 006a D3E7     		b	.L23
 499              	.LVL20:
 500              	.L33:
 181:Src/adc.c     ****     }
 501              		.loc 1 181 7 view .LVU170
ARM GAS  /var/folders/8c/gyvcglfx7f97kbqb2h83mm_r0000gn/T//ccQy3EdK.s 			page 15


 502              	.LBB2:
 181:Src/adc.c     ****     }
 503              		.loc 1 181 7 view .LVU171
 181:Src/adc.c     ****     }
 504              		.loc 1 181 7 view .LVU172
 505 006c 2C4B     		ldr	r3, .L37+16
 506 006e 5A69     		ldr	r2, [r3, #20]
 507 0070 42F08052 		orr	r2, r2, #268435456
 508 0074 5A61     		str	r2, [r3, #20]
 181:Src/adc.c     ****     }
 509              		.loc 1 181 7 view .LVU173
 510 0076 5B69     		ldr	r3, [r3, #20]
 511 0078 03F08053 		and	r3, r3, #268435456
 512 007c 0193     		str	r3, [sp, #4]
 181:Src/adc.c     ****     }
 513              		.loc 1 181 7 view .LVU174
 514 007e 019B     		ldr	r3, [sp, #4]
 515 0080 D0E7     		b	.L25
 516              	.LVL21:
 517              	.L34:
 181:Src/adc.c     ****     }
 518              		.loc 1 181 7 is_stmt 0 view .LVU175
 519              	.LBE2:
 204:Src/adc.c     ****     }
 520              		.loc 1 204 7 is_stmt 1 view .LVU176
 521 0082 CC21     		movs	r1, #204
 522 0084 2748     		ldr	r0, .L37+20
 523 0086 FFF7FEFF 		bl	_Error_Handler
 524              	.LVL22:
 525 008a EBE7     		b	.L26
 526              	.LVL23:
 527              	.L32:
 219:Src/adc.c     ****     if(HAL_RCC_ADC12_CLK_ENABLED==1){
 528              		.loc 1 219 5 view .LVU177
 219:Src/adc.c     ****     if(HAL_RCC_ADC12_CLK_ENABLED==1){
 529              		.loc 1 219 30 is_stmt 0 view .LVU178
 530 008c 214A     		ldr	r2, .L37+4
 531 008e 1368     		ldr	r3, [r2]
 532 0090 0133     		adds	r3, r3, #1
 533 0092 1360     		str	r3, [r2]
 220:Src/adc.c     ****       __HAL_RCC_ADC12_CLK_ENABLE();
 534              		.loc 1 220 5 is_stmt 1 view .LVU179
 220:Src/adc.c     ****       __HAL_RCC_ADC12_CLK_ENABLE();
 535              		.loc 1 220 7 is_stmt 0 view .LVU180
 536 0094 012B     		cmp	r3, #1
 537 0096 2AD0     		beq	.L35
 538              	.L28:
 229:Src/adc.c     ****     GPIO_InitStruct.Mode = GPIO_MODE_ANALOG;
 539              		.loc 1 229 5 is_stmt 1 view .LVU181
 229:Src/adc.c     ****     GPIO_InitStruct.Mode = GPIO_MODE_ANALOG;
 540              		.loc 1 229 25 is_stmt 0 view .LVU182
 541 0098 0326     		movs	r6, #3
 542 009a 0396     		str	r6, [sp, #12]
 230:Src/adc.c     ****     GPIO_InitStruct.Pull = GPIO_NOPULL;
 543              		.loc 1 230 5 is_stmt 1 view .LVU183
 230:Src/adc.c     ****     GPIO_InitStruct.Pull = GPIO_NOPULL;
 544              		.loc 1 230 26 is_stmt 0 view .LVU184
ARM GAS  /var/folders/8c/gyvcglfx7f97kbqb2h83mm_r0000gn/T//ccQy3EdK.s 			page 16


 545 009c 0496     		str	r6, [sp, #16]
 231:Src/adc.c     ****     HAL_GPIO_Init(GPIOC, &GPIO_InitStruct);
 546              		.loc 1 231 5 is_stmt 1 view .LVU185
 231:Src/adc.c     ****     HAL_GPIO_Init(GPIOC, &GPIO_InitStruct);
 547              		.loc 1 231 26 is_stmt 0 view .LVU186
 548 009e 0025     		movs	r5, #0
 549 00a0 0595     		str	r5, [sp, #20]
 232:Src/adc.c     **** 
 550              		.loc 1 232 5 is_stmt 1 view .LVU187
 551 00a2 03A9     		add	r1, sp, #12
 552 00a4 2048     		ldr	r0, .L37+24
 553              	.LVL24:
 232:Src/adc.c     **** 
 554              		.loc 1 232 5 is_stmt 0 view .LVU188
 555 00a6 FFF7FEFF 		bl	HAL_GPIO_Init
 556              	.LVL25:
 234:Src/adc.c     ****     GPIO_InitStruct.Mode = GPIO_MODE_ANALOG;
 557              		.loc 1 234 5 is_stmt 1 view .LVU189
 234:Src/adc.c     ****     GPIO_InitStruct.Mode = GPIO_MODE_ANALOG;
 558              		.loc 1 234 25 is_stmt 0 view .LVU190
 559 00aa 1023     		movs	r3, #16
 560 00ac 0393     		str	r3, [sp, #12]
 235:Src/adc.c     ****     GPIO_InitStruct.Pull = GPIO_NOPULL;
 561              		.loc 1 235 5 is_stmt 1 view .LVU191
 235:Src/adc.c     ****     GPIO_InitStruct.Pull = GPIO_NOPULL;
 562              		.loc 1 235 26 is_stmt 0 view .LVU192
 563 00ae 0496     		str	r6, [sp, #16]
 236:Src/adc.c     ****     HAL_GPIO_Init(GPIOA, &GPIO_InitStruct);
 564              		.loc 1 236 5 is_stmt 1 view .LVU193
 236:Src/adc.c     ****     HAL_GPIO_Init(GPIOA, &GPIO_InitStruct);
 565              		.loc 1 236 26 is_stmt 0 view .LVU194
 566 00b0 0595     		str	r5, [sp, #20]
 237:Src/adc.c     **** 
 567              		.loc 1 237 5 is_stmt 1 view .LVU195
 568 00b2 03A9     		add	r1, sp, #12
 569 00b4 4FF09040 		mov	r0, #1207959552
 570 00b8 FFF7FEFF 		bl	HAL_GPIO_Init
 571              	.LVL26:
 241:Src/adc.c     ****     hdma_adc2.Init.Direction = DMA_PERIPH_TO_MEMORY;
 572              		.loc 1 241 5 view .LVU196
 241:Src/adc.c     ****     hdma_adc2.Init.Direction = DMA_PERIPH_TO_MEMORY;
 573              		.loc 1 241 24 is_stmt 0 view .LVU197
 574 00bc 1B48     		ldr	r0, .L37+28
 575 00be 1C4B     		ldr	r3, .L37+32
 576 00c0 0360     		str	r3, [r0]
 242:Src/adc.c     ****     hdma_adc2.Init.PeriphInc = DMA_PINC_DISABLE;
 577              		.loc 1 242 5 is_stmt 1 view .LVU198
 242:Src/adc.c     ****     hdma_adc2.Init.PeriphInc = DMA_PINC_DISABLE;
 578              		.loc 1 242 30 is_stmt 0 view .LVU199
 579 00c2 4560     		str	r5, [r0, #4]
 243:Src/adc.c     ****     hdma_adc2.Init.MemInc = DMA_MINC_ENABLE;
 580              		.loc 1 243 5 is_stmt 1 view .LVU200
 243:Src/adc.c     ****     hdma_adc2.Init.MemInc = DMA_MINC_ENABLE;
 581              		.loc 1 243 30 is_stmt 0 view .LVU201
 582 00c4 8560     		str	r5, [r0, #8]
 244:Src/adc.c     ****     hdma_adc2.Init.PeriphDataAlignment = DMA_PDATAALIGN_HALFWORD;
 583              		.loc 1 244 5 is_stmt 1 view .LVU202
ARM GAS  /var/folders/8c/gyvcglfx7f97kbqb2h83mm_r0000gn/T//ccQy3EdK.s 			page 17


 244:Src/adc.c     ****     hdma_adc2.Init.PeriphDataAlignment = DMA_PDATAALIGN_HALFWORD;
 584              		.loc 1 244 27 is_stmt 0 view .LVU203
 585 00c6 8023     		movs	r3, #128
 586 00c8 C360     		str	r3, [r0, #12]
 245:Src/adc.c     ****     hdma_adc2.Init.MemDataAlignment = DMA_MDATAALIGN_HALFWORD;
 587              		.loc 1 245 5 is_stmt 1 view .LVU204
 245:Src/adc.c     ****     hdma_adc2.Init.MemDataAlignment = DMA_MDATAALIGN_HALFWORD;
 588              		.loc 1 245 40 is_stmt 0 view .LVU205
 589 00ca 4FF48073 		mov	r3, #256
 590 00ce 0361     		str	r3, [r0, #16]
 246:Src/adc.c     ****     hdma_adc2.Init.Mode = DMA_CIRCULAR;
 591              		.loc 1 246 5 is_stmt 1 view .LVU206
 246:Src/adc.c     ****     hdma_adc2.Init.Mode = DMA_CIRCULAR;
 592              		.loc 1 246 37 is_stmt 0 view .LVU207
 593 00d0 4FF48063 		mov	r3, #1024
 594 00d4 4361     		str	r3, [r0, #20]
 247:Src/adc.c     ****     hdma_adc2.Init.Priority = DMA_PRIORITY_HIGH;
 595              		.loc 1 247 5 is_stmt 1 view .LVU208
 247:Src/adc.c     ****     hdma_adc2.Init.Priority = DMA_PRIORITY_HIGH;
 596              		.loc 1 247 25 is_stmt 0 view .LVU209
 597 00d6 2023     		movs	r3, #32
 598 00d8 8361     		str	r3, [r0, #24]
 248:Src/adc.c     ****     if (HAL_DMA_Init(&hdma_adc2) != HAL_OK)
 599              		.loc 1 248 5 is_stmt 1 view .LVU210
 248:Src/adc.c     ****     if (HAL_DMA_Init(&hdma_adc2) != HAL_OK)
 600              		.loc 1 248 29 is_stmt 0 view .LVU211
 601 00da 4FF40053 		mov	r3, #8192
 602 00de C361     		str	r3, [r0, #28]
 249:Src/adc.c     ****     {
 603              		.loc 1 249 5 is_stmt 1 view .LVU212
 249:Src/adc.c     ****     {
 604              		.loc 1 249 9 is_stmt 0 view .LVU213
 605 00e0 FFF7FEFF 		bl	HAL_DMA_Init
 606              	.LVL27:
 249:Src/adc.c     ****     {
 607              		.loc 1 249 8 view .LVU214
 608 00e4 70B9     		cbnz	r0, .L36
 609              	.L29:
 254:Src/adc.c     **** 
 610              		.loc 1 254 5 is_stmt 1 view .LVU215
 254:Src/adc.c     **** 
 611              		.loc 1 254 5 view .LVU216
 612 00e6 114B     		ldr	r3, .L37+28
 613 00e8 E363     		str	r3, [r4, #60]
 254:Src/adc.c     **** 
 614              		.loc 1 254 5 view .LVU217
 615 00ea 5C62     		str	r4, [r3, #36]
 616              		.loc 1 260 1 is_stmt 0 view .LVU218
 617 00ec 92E7     		b	.L23
 618              	.LVL28:
 619              	.L35:
 221:Src/adc.c     ****     }
 620              		.loc 1 221 7 is_stmt 1 view .LVU219
 621              	.LBB3:
 221:Src/adc.c     ****     }
 622              		.loc 1 221 7 view .LVU220
 221:Src/adc.c     ****     }
ARM GAS  /var/folders/8c/gyvcglfx7f97kbqb2h83mm_r0000gn/T//ccQy3EdK.s 			page 18


 623              		.loc 1 221 7 view .LVU221
 624 00ee 0C4B     		ldr	r3, .L37+16
 625 00f0 5A69     		ldr	r2, [r3, #20]
 626 00f2 42F08052 		orr	r2, r2, #268435456
 627 00f6 5A61     		str	r2, [r3, #20]
 221:Src/adc.c     ****     }
 628              		.loc 1 221 7 view .LVU222
 629 00f8 5B69     		ldr	r3, [r3, #20]
 630 00fa 03F08053 		and	r3, r3, #268435456
 631 00fe 0293     		str	r3, [sp, #8]
 221:Src/adc.c     ****     }
 632              		.loc 1 221 7 view .LVU223
 633 0100 029B     		ldr	r3, [sp, #8]
 634 0102 C9E7     		b	.L28
 635              	.LVL29:
 636              	.L36:
 221:Src/adc.c     ****     }
 637              		.loc 1 221 7 is_stmt 0 view .LVU224
 638              	.LBE3:
 251:Src/adc.c     ****     }
 639              		.loc 1 251 7 is_stmt 1 view .LVU225
 640 0104 FB21     		movs	r1, #251
 641 0106 0748     		ldr	r0, .L37+20
 642 0108 FFF7FEFF 		bl	_Error_Handler
 643              	.LVL30:
 644 010c EBE7     		b	.L29
 645              	.L38:
 646 010e 00BF     		.align	2
 647              	.L37:
 648 0110 00010050 		.word	1342177536
 649 0114 00000000 		.word	.LANCHOR0
 650 0118 00000000 		.word	hdma_adc1
 651 011c 08000240 		.word	1073872904
 652 0120 00100240 		.word	1073876992
 653 0124 00000000 		.word	.LC0
 654 0128 00080048 		.word	1207961600
 655 012c 00000000 		.word	hdma_adc2
 656 0130 08040240 		.word	1073873928
 657              		.cfi_endproc
 658              	.LFE128:
 660              		.section	.text.HAL_ADC_MspDeInit,"ax",%progbits
 661              		.align	1
 662              		.global	HAL_ADC_MspDeInit
 663              		.syntax unified
 664              		.thumb
 665              		.thumb_func
 666              		.fpu fpv4-sp-d16
 668              	HAL_ADC_MspDeInit:
 669              	.LVL31:
 670              	.LFB129:
 261:Src/adc.c     **** 
 262:Src/adc.c     **** void HAL_ADC_MspDeInit(ADC_HandleTypeDef* adcHandle)
 263:Src/adc.c     **** {
 671              		.loc 1 263 1 view -0
 672              		.cfi_startproc
 673              		@ args = 0, pretend = 0, frame = 0
 674              		@ frame_needed = 0, uses_anonymous_args = 0
ARM GAS  /var/folders/8c/gyvcglfx7f97kbqb2h83mm_r0000gn/T//ccQy3EdK.s 			page 19


 675              		.loc 1 263 1 is_stmt 0 view .LVU227
 676 0000 10B5     		push	{r4, lr}
 677              	.LCFI12:
 678              		.cfi_def_cfa_offset 8
 679              		.cfi_offset 4, -8
 680              		.cfi_offset 14, -4
 681 0002 0446     		mov	r4, r0
 264:Src/adc.c     **** 
 265:Src/adc.c     ****   if(adcHandle->Instance==ADC1)
 682              		.loc 1 265 3 is_stmt 1 view .LVU228
 683              		.loc 1 265 15 is_stmt 0 view .LVU229
 684 0004 0368     		ldr	r3, [r0]
 685              		.loc 1 265 5 view .LVU230
 686 0006 B3F1A04F 		cmp	r3, #1342177280
 687 000a 03D0     		beq	.L43
 266:Src/adc.c     ****   {
 267:Src/adc.c     ****   /* USER CODE BEGIN ADC1_MspDeInit 0 */
 268:Src/adc.c     **** 
 269:Src/adc.c     ****   /* USER CODE END ADC1_MspDeInit 0 */
 270:Src/adc.c     ****     /* Peripheral clock disable */
 271:Src/adc.c     ****     /* Be sure that all peripheral instances that share the same clock need to be disabled */
 272:Src/adc.c     ****     /**  HAL_RCC_ADC12_CLK_ENABLED--;
 273:Src/adc.c     ****     *  if(HAL_RCC_ADC12_CLK_ENABLED==0){
 274:Src/adc.c     ****     *    __HAL_RCC_ADC12_CLK_DISABLE();
 275:Src/adc.c     ****     **/
 276:Src/adc.c     ****   
 277:Src/adc.c     ****     /**ADC1 GPIO Configuration    
 278:Src/adc.c     ****     PA0     ------> ADC1_IN1 
 279:Src/adc.c     ****     */
 280:Src/adc.c     ****     HAL_GPIO_DeInit(GPIOA, GPIO_PIN_0);
 281:Src/adc.c     **** 
 282:Src/adc.c     ****     /* ADC1 DMA DeInit */
 283:Src/adc.c     ****     HAL_DMA_DeInit(adcHandle->DMA_Handle);
 284:Src/adc.c     ****   /* USER CODE BEGIN ADC1_MspDeInit 1 */
 285:Src/adc.c     **** 
 286:Src/adc.c     ****   /* USER CODE END ADC1_MspDeInit 1 */
 287:Src/adc.c     ****   }
 288:Src/adc.c     ****   else if(adcHandle->Instance==ADC2)
 688              		.loc 1 288 8 is_stmt 1 view .LVU231
 689              		.loc 1 288 10 is_stmt 0 view .LVU232
 690 000c 0C4A     		ldr	r2, .L45
 691 000e 9342     		cmp	r3, r2
 692 0010 09D0     		beq	.L44
 693              	.LVL32:
 694              	.L39:
 289:Src/adc.c     ****   {
 290:Src/adc.c     ****   /* USER CODE BEGIN ADC2_MspDeInit 0 */
 291:Src/adc.c     **** 
 292:Src/adc.c     ****   /* USER CODE END ADC2_MspDeInit 0 */
 293:Src/adc.c     ****     /* Peripheral clock disable */
 294:Src/adc.c     ****     /* Be sure that all peripheral instances that share the same clock need to be disabled */
 295:Src/adc.c     ****     /**  HAL_RCC_ADC12_CLK_ENABLED--;
 296:Src/adc.c     ****     *  if(HAL_RCC_ADC12_CLK_ENABLED==0){
 297:Src/adc.c     ****     *    __HAL_RCC_ADC12_CLK_DISABLE();
 298:Src/adc.c     ****     **/
 299:Src/adc.c     ****   
 300:Src/adc.c     ****     /**ADC2 GPIO Configuration    
ARM GAS  /var/folders/8c/gyvcglfx7f97kbqb2h83mm_r0000gn/T//ccQy3EdK.s 			page 20


 301:Src/adc.c     ****     PC0     ------> ADC2_IN6
 302:Src/adc.c     ****     PC1     ------> ADC2_IN7
 303:Src/adc.c     ****     PA4     ------> ADC2_IN1 
 304:Src/adc.c     ****     */
 305:Src/adc.c     ****     HAL_GPIO_DeInit(GPIOC, GPIO_PIN_0|GPIO_PIN_1);
 306:Src/adc.c     **** 
 307:Src/adc.c     ****     HAL_GPIO_DeInit(GPIOA, GPIO_PIN_4);
 308:Src/adc.c     **** 
 309:Src/adc.c     ****     /* ADC2 DMA DeInit */
 310:Src/adc.c     ****     HAL_DMA_DeInit(adcHandle->DMA_Handle);
 311:Src/adc.c     ****   /* USER CODE BEGIN ADC2_MspDeInit 1 */
 312:Src/adc.c     **** 
 313:Src/adc.c     ****   /* USER CODE END ADC2_MspDeInit 1 */
 314:Src/adc.c     ****   }
 315:Src/adc.c     **** } 
 695              		.loc 1 315 1 view .LVU233
 696 0012 10BD     		pop	{r4, pc}
 697              	.LVL33:
 698              	.L43:
 280:Src/adc.c     **** 
 699              		.loc 1 280 5 is_stmt 1 view .LVU234
 700 0014 0121     		movs	r1, #1
 701 0016 4FF09040 		mov	r0, #1207959552
 702              	.LVL34:
 280:Src/adc.c     **** 
 703              		.loc 1 280 5 is_stmt 0 view .LVU235
 704 001a FFF7FEFF 		bl	HAL_GPIO_DeInit
 705              	.LVL35:
 283:Src/adc.c     ****   /* USER CODE BEGIN ADC1_MspDeInit 1 */
 706              		.loc 1 283 5 is_stmt 1 view .LVU236
 707 001e E06B     		ldr	r0, [r4, #60]
 708 0020 FFF7FEFF 		bl	HAL_DMA_DeInit
 709              	.LVL36:
 710 0024 F5E7     		b	.L39
 711              	.LVL37:
 712              	.L44:
 305:Src/adc.c     **** 
 713              		.loc 1 305 5 view .LVU237
 714 0026 0321     		movs	r1, #3
 715 0028 0648     		ldr	r0, .L45+4
 716              	.LVL38:
 305:Src/adc.c     **** 
 717              		.loc 1 305 5 is_stmt 0 view .LVU238
 718 002a FFF7FEFF 		bl	HAL_GPIO_DeInit
 719              	.LVL39:
 307:Src/adc.c     **** 
 720              		.loc 1 307 5 is_stmt 1 view .LVU239
 721 002e 1021     		movs	r1, #16
 722 0030 4FF09040 		mov	r0, #1207959552
 723 0034 FFF7FEFF 		bl	HAL_GPIO_DeInit
 724              	.LVL40:
 310:Src/adc.c     ****   /* USER CODE BEGIN ADC2_MspDeInit 1 */
 725              		.loc 1 310 5 view .LVU240
 726 0038 E06B     		ldr	r0, [r4, #60]
 727 003a FFF7FEFF 		bl	HAL_DMA_DeInit
 728              	.LVL41:
 729              		.loc 1 315 1 is_stmt 0 view .LVU241
ARM GAS  /var/folders/8c/gyvcglfx7f97kbqb2h83mm_r0000gn/T//ccQy3EdK.s 			page 21


 730 003e E8E7     		b	.L39
 731              	.L46:
 732              		.align	2
 733              	.L45:
 734 0040 00010050 		.word	1342177536
 735 0044 00080048 		.word	1207961600
 736              		.cfi_endproc
 737              	.LFE129:
 739              		.section	.text.HAL_ADC_ConvHalfCpltCallback,"ax",%progbits
 740              		.align	1
 741              		.global	HAL_ADC_ConvHalfCpltCallback
 742              		.syntax unified
 743              		.thumb
 744              		.thumb_func
 745              		.fpu fpv4-sp-d16
 747              	HAL_ADC_ConvHalfCpltCallback:
 748              	.LVL42:
 749              	.LFB130:
 316:Src/adc.c     **** 
 317:Src/adc.c     **** /* USER CODE BEGIN 1 */
 318:Src/adc.c     **** void HAL_ADC_ConvHalfCpltCallback(ADC_HandleTypeDef* hadc)
 319:Src/adc.c     **** {
 750              		.loc 1 319 1 is_stmt 1 view -0
 751              		.cfi_startproc
 752              		@ args = 0, pretend = 0, frame = 0
 753              		@ frame_needed = 0, uses_anonymous_args = 0
 754              		.loc 1 319 1 is_stmt 0 view .LVU243
 755 0000 08B5     		push	{r3, lr}
 756              	.LCFI13:
 757              		.cfi_def_cfa_offset 8
 758              		.cfi_offset 3, -8
 759              		.cfi_offset 14, -4
 320:Src/adc.c     ****   if (hadc==&hadc2) process_frame(0);
 760              		.loc 1 320 3 is_stmt 1 view .LVU244
 761              		.loc 1 320 6 is_stmt 0 view .LVU245
 762 0002 044B     		ldr	r3, .L51
 763 0004 8342     		cmp	r3, r0
 764 0006 00D0     		beq	.L50
 765              	.LVL43:
 766              	.L47:
 321:Src/adc.c     **** }
 767              		.loc 1 321 1 view .LVU246
 768 0008 08BD     		pop	{r3, pc}
 769              	.LVL44:
 770              	.L50:
 771              	.LBB4:
 320:Src/adc.c     ****   if (hadc==&hadc2) process_frame(0);
 772              		.loc 1 320 21 is_stmt 1 discriminator 1 view .LVU247
 773 000a 0020     		movs	r0, #0
 774              	.LVL45:
 320:Src/adc.c     ****   if (hadc==&hadc2) process_frame(0);
 775              		.loc 1 320 21 is_stmt 0 discriminator 1 view .LVU248
 776 000c FFF7FEFF 		bl	process_frame
 777              	.LVL46:
 778              	.LBE4:
 779              		.loc 1 321 1 discriminator 1 view .LVU249
 780 0010 FAE7     		b	.L47
ARM GAS  /var/folders/8c/gyvcglfx7f97kbqb2h83mm_r0000gn/T//ccQy3EdK.s 			page 22


 781              	.L52:
 782 0012 00BF     		.align	2
 783              	.L51:
 784 0014 00000000 		.word	hadc2
 785              		.cfi_endproc
 786              	.LFE130:
 788              		.section	.text.HAL_ADC_ConvCpltCallback,"ax",%progbits
 789              		.align	1
 790              		.global	HAL_ADC_ConvCpltCallback
 791              		.syntax unified
 792              		.thumb
 793              		.thumb_func
 794              		.fpu fpv4-sp-d16
 796              	HAL_ADC_ConvCpltCallback:
 797              	.LVL47:
 798              	.LFB131:
 322:Src/adc.c     **** 
 323:Src/adc.c     **** void HAL_ADC_ConvCpltCallback(ADC_HandleTypeDef* hadc)
 324:Src/adc.c     **** {
 799              		.loc 1 324 1 is_stmt 1 view -0
 800              		.cfi_startproc
 801              		@ args = 0, pretend = 0, frame = 0
 802              		@ frame_needed = 0, uses_anonymous_args = 0
 803              		.loc 1 324 1 is_stmt 0 view .LVU251
 804 0000 08B5     		push	{r3, lr}
 805              	.LCFI14:
 806              		.cfi_def_cfa_offset 8
 807              		.cfi_offset 3, -8
 808              		.cfi_offset 14, -4
 325:Src/adc.c     ****   if (hadc==&hadc2) process_frame(3000);
 809              		.loc 1 325 3 is_stmt 1 view .LVU252
 810              		.loc 1 325 6 is_stmt 0 view .LVU253
 811 0002 044B     		ldr	r3, .L57
 812 0004 8342     		cmp	r3, r0
 813 0006 00D0     		beq	.L56
 814              	.LVL48:
 815              	.L53:
 326:Src/adc.c     **** }
 816              		.loc 1 326 1 view .LVU254
 817 0008 08BD     		pop	{r3, pc}
 818              	.LVL49:
 819              	.L56:
 820              	.LBB5:
 325:Src/adc.c     ****   if (hadc==&hadc2) process_frame(3000);
 821              		.loc 1 325 21 is_stmt 1 discriminator 1 view .LVU255
 822 000a 40F6B830 		movw	r0, #3000
 823              	.LVL50:
 325:Src/adc.c     ****   if (hadc==&hadc2) process_frame(3000);
 824              		.loc 1 325 21 is_stmt 0 discriminator 1 view .LVU256
 825 000e FFF7FEFF 		bl	process_frame
 826              	.LVL51:
 827              	.LBE5:
 828              		.loc 1 326 1 discriminator 1 view .LVU257
 829 0012 F9E7     		b	.L53
 830              	.L58:
 831              		.align	2
 832              	.L57:
ARM GAS  /var/folders/8c/gyvcglfx7f97kbqb2h83mm_r0000gn/T//ccQy3EdK.s 			page 23


 833 0014 00000000 		.word	hadc2
 834              		.cfi_endproc
 835              	.LFE131:
 837              		.section	.text.start_ADCs,"ax",%progbits
 838              		.align	1
 839              		.global	start_ADCs
 840              		.syntax unified
 841              		.thumb
 842              		.thumb_func
 843              		.fpu fpv4-sp-d16
 845              	start_ADCs:
 846              	.LFB132:
 327:Src/adc.c     **** 
 328:Src/adc.c     **** void start_ADCs (void) {
 847              		.loc 1 328 24 is_stmt 1 view -0
 848              		.cfi_startproc
 849              		@ args = 0, pretend = 0, frame = 0
 850              		@ frame_needed = 0, uses_anonymous_args = 0
 851 0000 38B5     		push	{r3, r4, r5, lr}
 852              	.LCFI15:
 853              		.cfi_def_cfa_offset 16
 854              		.cfi_offset 3, -16
 855              		.cfi_offset 4, -12
 856              		.cfi_offset 5, -8
 857              		.cfi_offset 14, -4
 329:Src/adc.c     ****   HAL_ADC_Stop_DMA(&hadc1);
 858              		.loc 1 329 3 view .LVU259
 859 0002 0F4D     		ldr	r5, .L61
 860 0004 2846     		mov	r0, r5
 861 0006 FFF7FEFF 		bl	HAL_ADC_Stop_DMA
 862              	.LVL52:
 330:Src/adc.c     ****   HAL_ADC_Stop_DMA(&hadc2);
 863              		.loc 1 330 3 view .LVU260
 864 000a 0E4C     		ldr	r4, .L61+4
 865 000c 2046     		mov	r0, r4
 866 000e FFF7FEFF 		bl	HAL_ADC_Stop_DMA
 867              	.LVL53:
 331:Src/adc.c     ****   
 332:Src/adc.c     ****   pulse_tim8_ch2(1);
 868              		.loc 1 332 3 view .LVU261
 869 0012 0120     		movs	r0, #1
 870 0014 FFF7FEFF 		bl	pulse_tim8_ch2
 871              	.LVL54:
 333:Src/adc.c     ****   HAL_Delay(20);
 872              		.loc 1 333 3 view .LVU262
 873 0018 1420     		movs	r0, #20
 874 001a FFF7FEFF 		bl	HAL_Delay
 875              	.LVL55:
 334:Src/adc.c     ****   
 335:Src/adc.c     ****   HAL_ADC_Start_DMA(&hadc1, (uint32_t*)adc1_dma_buff, ADC_DMA_BUFFSIZE);
 876              		.loc 1 335 3 view .LVU263
 877 001e 41F27072 		movw	r2, #6000
 878 0022 0949     		ldr	r1, .L61+8
 879 0024 2846     		mov	r0, r5
 880 0026 FFF7FEFF 		bl	HAL_ADC_Start_DMA
 881              	.LVL56:
 336:Src/adc.c     ****   HAL_ADC_Start_DMA(&hadc2, (uint32_t*)adc2_dma_buff, ADC_DMA_BUFFSIZE);
ARM GAS  /var/folders/8c/gyvcglfx7f97kbqb2h83mm_r0000gn/T//ccQy3EdK.s 			page 24


 882              		.loc 1 336 3 view .LVU264
 883 002a 41F27072 		movw	r2, #6000
 884 002e 0749     		ldr	r1, .L61+12
 885 0030 2046     		mov	r0, r4
 886 0032 FFF7FEFF 		bl	HAL_ADC_Start_DMA
 887              	.LVL57:
 337:Src/adc.c     ****   
 338:Src/adc.c     ****   pulse_tim8_ch2(1);
 888              		.loc 1 338 3 view .LVU265
 889 0036 0120     		movs	r0, #1
 890 0038 FFF7FEFF 		bl	pulse_tim8_ch2
 891              	.LVL58:
 339:Src/adc.c     **** }
 892              		.loc 1 339 1 is_stmt 0 view .LVU266
 893 003c 38BD     		pop	{r3, r4, r5, pc}
 894              	.L62:
 895 003e 00BF     		.align	2
 896              	.L61:
 897 0040 00000000 		.word	hadc1
 898 0044 00000000 		.word	hadc2
 899 0048 00000000 		.word	adc1_dma_buff
 900 004c 00000000 		.word	adc2_dma_buff
 901              		.cfi_endproc
 902              	.LFE132:
 904              		.comm	hdma_adc2,68,4
 905              		.comm	hdma_adc1,68,4
 906              		.comm	hadc2,84,4
 907              		.comm	hadc1,84,4
 908              		.comm	adc2_dma_buff,12000,4
 909              		.comm	adc1_dma_buff,12000,4
 910              		.section	.bss.HAL_RCC_ADC12_CLK_ENABLED,"aw",%nobits
 911              		.align	2
 912              		.set	.LANCHOR0,. + 0
 915              	HAL_RCC_ADC12_CLK_ENABLED:
 916 0000 00000000 		.space	4
 917              		.section	.rodata.MX_ADC1_Init.str1.4,"aMS",%progbits,1
 918              		.align	2
 919              	.LC0:
 920 0000 5372632F 		.ascii	"Src/adc.c\000"
 920      6164632E 
 920      6300
 921              		.text
 922              	.Letext0:
 923              		.file 2 "/usr/local/gcc-arm-none-eabi-8-2018-q4-major/arm-none-eabi/include/machine/_default_types
 924              		.file 3 "/usr/local/gcc-arm-none-eabi-8-2018-q4-major/arm-none-eabi/include/sys/_stdint.h"
 925              		.file 4 "Drivers/CMSIS/Include/core_cm4.h"
 926              		.file 5 "Drivers/CMSIS/Device/ST/STM32F3xx/Include/system_stm32f3xx.h"
 927              		.file 6 "Drivers/CMSIS/Device/ST/STM32F3xx/Include/stm32f303xe.h"
 928              		.file 7 "/usr/local/gcc-arm-none-eabi-8-2018-q4-major/arm-none-eabi/include/sys/lock.h"
 929              		.file 8 "/usr/local/gcc-arm-none-eabi-8-2018-q4-major/arm-none-eabi/include/sys/_types.h"
 930              		.file 9 "/usr/local/gcc-arm-none-eabi-8-2018-q4-major/lib/gcc/arm-none-eabi/8.2.1/include/stddef.h
 931              		.file 10 "/usr/local/gcc-arm-none-eabi-8-2018-q4-major/arm-none-eabi/include/sys/reent.h"
 932              		.file 11 "Drivers/CMSIS/Device/ST/STM32F3xx/Include/stm32f3xx.h"
 933              		.file 12 "Drivers/STM32F3xx_HAL_Driver/Inc/stm32f3xx_hal_def.h"
 934              		.file 13 "Drivers/STM32F3xx_HAL_Driver/Inc/stm32f3xx_hal_gpio.h"
 935              		.file 14 "Drivers/STM32F3xx_HAL_Driver/Inc/stm32f3xx_hal_dma.h"
 936              		.file 15 "Drivers/STM32F3xx_HAL_Driver/Inc/stm32f3xx_hal_adc_ex.h"
ARM GAS  /var/folders/8c/gyvcglfx7f97kbqb2h83mm_r0000gn/T//ccQy3EdK.s 			page 25


 937              		.file 16 "Drivers/STM32F3xx_HAL_Driver/Inc/stm32f3xx_hal_adc.h"
 938              		.file 17 "Inc/adc.h"
 939              		.file 18 "Drivers/STM32F3xx_HAL_Driver/Inc/stm32f3xx_hal.h"
 940              		.file 19 "Inc/dma.h"
ARM GAS  /var/folders/8c/gyvcglfx7f97kbqb2h83mm_r0000gn/T//ccQy3EdK.s 			page 26

