ARM GAS  /var/folders/_1/sgnj6dm57r56n1x62bwb5w5h0000gn/T//ccvwjkBq.s 			page 1


   1              		.cpu cortex-m4
   2              		.eabi_attribute 27, 1
   3              		.eabi_attribute 28, 1
   4              		.eabi_attribute 20, 1
   5              		.eabi_attribute 21, 1
   6              		.eabi_attribute 23, 3
   7              		.eabi_attribute 24, 1
   8              		.eabi_attribute 25, 1
   9              		.eabi_attribute 26, 1
  10              		.eabi_attribute 30, 1
  11              		.eabi_attribute 34, 1
  12              		.eabi_attribute 18, 4
  13              		.file	"stm32f3xx_hal_opamp_ex.c"
  14              		.text
  15              	.Ltext0:
  16              		.cfi_sections	.debug_frame
  17              		.section	.text.HAL_OPAMPEx_SelfCalibrateAll,"ax",%progbits
  18              		.align	1
  19              		.global	HAL_OPAMPEx_SelfCalibrateAll
  20              		.arch armv7e-m
  21              		.syntax unified
  22              		.thumb
  23              		.thumb_func
  24              		.fpu fpv4-sp-d16
  26              	HAL_OPAMPEx_SelfCalibrateAll:
  27              	.LVL0:
  28              	.LFB126:
  29              		.file 1 "Drivers/STM32F3xx_HAL_Driver/Src/stm32f3xx_hal_opamp_ex.c"
   1:Drivers/STM32F3xx_HAL_Driver/Src/stm32f3xx_hal_opamp_ex.c **** /**
   2:Drivers/STM32F3xx_HAL_Driver/Src/stm32f3xx_hal_opamp_ex.c ****   ******************************************************************************
   3:Drivers/STM32F3xx_HAL_Driver/Src/stm32f3xx_hal_opamp_ex.c ****   * @file    stm32f3xx_hal_opamp_ex.c
   4:Drivers/STM32F3xx_HAL_Driver/Src/stm32f3xx_hal_opamp_ex.c ****   * @author  MCD Application Team
   5:Drivers/STM32F3xx_HAL_Driver/Src/stm32f3xx_hal_opamp_ex.c ****   * @brief   Extended OPAMP HAL module driver.
   6:Drivers/STM32F3xx_HAL_Driver/Src/stm32f3xx_hal_opamp_ex.c ****   *
   7:Drivers/STM32F3xx_HAL_Driver/Src/stm32f3xx_hal_opamp_ex.c ****   *          This file provides firmware functions to manage the following
   8:Drivers/STM32F3xx_HAL_Driver/Src/stm32f3xx_hal_opamp_ex.c ****   *          functionalities of the Power Controller (OPAMP) peripheral:
   9:Drivers/STM32F3xx_HAL_Driver/Src/stm32f3xx_hal_opamp_ex.c ****   *           + Extended Initialization and de-initialization  functions
  10:Drivers/STM32F3xx_HAL_Driver/Src/stm32f3xx_hal_opamp_ex.c ****   *           + Extended Peripheral Control  functions
  11:Drivers/STM32F3xx_HAL_Driver/Src/stm32f3xx_hal_opamp_ex.c ****   *         
  12:Drivers/STM32F3xx_HAL_Driver/Src/stm32f3xx_hal_opamp_ex.c ****   @verbatim
  13:Drivers/STM32F3xx_HAL_Driver/Src/stm32f3xx_hal_opamp_ex.c ****   ******************************************************************************
  14:Drivers/STM32F3xx_HAL_Driver/Src/stm32f3xx_hal_opamp_ex.c ****   * @attention
  15:Drivers/STM32F3xx_HAL_Driver/Src/stm32f3xx_hal_opamp_ex.c ****   *
  16:Drivers/STM32F3xx_HAL_Driver/Src/stm32f3xx_hal_opamp_ex.c ****   * <h2><center>&copy; COPYRIGHT(c) 2016 STMicroelectronics</center></h2>
  17:Drivers/STM32F3xx_HAL_Driver/Src/stm32f3xx_hal_opamp_ex.c ****   *
  18:Drivers/STM32F3xx_HAL_Driver/Src/stm32f3xx_hal_opamp_ex.c ****   * Redistribution and use in source and binary forms, with or without modification,
  19:Drivers/STM32F3xx_HAL_Driver/Src/stm32f3xx_hal_opamp_ex.c ****   * are permitted provided that the following conditions are met:
  20:Drivers/STM32F3xx_HAL_Driver/Src/stm32f3xx_hal_opamp_ex.c ****   *   1. Redistributions of source code must retain the above copyright notice,
  21:Drivers/STM32F3xx_HAL_Driver/Src/stm32f3xx_hal_opamp_ex.c ****   *      this list of conditions and the following disclaimer.
  22:Drivers/STM32F3xx_HAL_Driver/Src/stm32f3xx_hal_opamp_ex.c ****   *   2. Redistributions in binary form must reproduce the above copyright notice,
  23:Drivers/STM32F3xx_HAL_Driver/Src/stm32f3xx_hal_opamp_ex.c ****   *      this list of conditions and the following disclaimer in the documentation
  24:Drivers/STM32F3xx_HAL_Driver/Src/stm32f3xx_hal_opamp_ex.c ****   *      and/or other materials provided with the distribution.
  25:Drivers/STM32F3xx_HAL_Driver/Src/stm32f3xx_hal_opamp_ex.c ****   *   3. Neither the name of STMicroelectronics nor the names of its contributors
  26:Drivers/STM32F3xx_HAL_Driver/Src/stm32f3xx_hal_opamp_ex.c ****   *      may be used to endorse or promote products derived from this software
  27:Drivers/STM32F3xx_HAL_Driver/Src/stm32f3xx_hal_opamp_ex.c ****   *      without specific prior written permission.
  28:Drivers/STM32F3xx_HAL_Driver/Src/stm32f3xx_hal_opamp_ex.c ****   *
  29:Drivers/STM32F3xx_HAL_Driver/Src/stm32f3xx_hal_opamp_ex.c ****   * THIS SOFTWARE IS PROVIDED BY THE COPYRIGHT HOLDERS AND CONTRIBUTORS "AS IS"
ARM GAS  /var/folders/_1/sgnj6dm57r56n1x62bwb5w5h0000gn/T//ccvwjkBq.s 			page 2


  30:Drivers/STM32F3xx_HAL_Driver/Src/stm32f3xx_hal_opamp_ex.c ****   * AND ANY EXPRESS OR IMPLIED WARRANTIES, INCLUDING, BUT NOT LIMITED TO, THE
  31:Drivers/STM32F3xx_HAL_Driver/Src/stm32f3xx_hal_opamp_ex.c ****   * IMPLIED WARRANTIES OF MERCHANTABILITY AND FITNESS FOR A PARTICULAR PURPOSE ARE
  32:Drivers/STM32F3xx_HAL_Driver/Src/stm32f3xx_hal_opamp_ex.c ****   * DISCLAIMED. IN NO EVENT SHALL THE COPYRIGHT HOLDER OR CONTRIBUTORS BE LIABLE
  33:Drivers/STM32F3xx_HAL_Driver/Src/stm32f3xx_hal_opamp_ex.c ****   * FOR ANY DIRECT, INDIRECT, INCIDENTAL, SPECIAL, EXEMPLARY, OR CONSEQUENTIAL
  34:Drivers/STM32F3xx_HAL_Driver/Src/stm32f3xx_hal_opamp_ex.c ****   * DAMAGES (INCLUDING, BUT NOT LIMITED TO, PROCUREMENT OF SUBSTITUTE GOODS OR
  35:Drivers/STM32F3xx_HAL_Driver/Src/stm32f3xx_hal_opamp_ex.c ****   * SERVICES; LOSS OF USE, DATA, OR PROFITS; OR BUSINESS INTERRUPTION) HOWEVER
  36:Drivers/STM32F3xx_HAL_Driver/Src/stm32f3xx_hal_opamp_ex.c ****   * CAUSED AND ON ANY THEORY OF LIABILITY, WHETHER IN CONTRACT, STRICT LIABILITY,
  37:Drivers/STM32F3xx_HAL_Driver/Src/stm32f3xx_hal_opamp_ex.c ****   * OR TORT (INCLUDING NEGLIGENCE OR OTHERWISE) ARISING IN ANY WAY OUT OF THE USE
  38:Drivers/STM32F3xx_HAL_Driver/Src/stm32f3xx_hal_opamp_ex.c ****   * OF THIS SOFTWARE, EVEN IF ADVISED OF THE POSSIBILITY OF SUCH DAMAGE.
  39:Drivers/STM32F3xx_HAL_Driver/Src/stm32f3xx_hal_opamp_ex.c ****   *
  40:Drivers/STM32F3xx_HAL_Driver/Src/stm32f3xx_hal_opamp_ex.c ****   ******************************************************************************
  41:Drivers/STM32F3xx_HAL_Driver/Src/stm32f3xx_hal_opamp_ex.c ****   */
  42:Drivers/STM32F3xx_HAL_Driver/Src/stm32f3xx_hal_opamp_ex.c **** 
  43:Drivers/STM32F3xx_HAL_Driver/Src/stm32f3xx_hal_opamp_ex.c **** /* Includes ------------------------------------------------------------------*/
  44:Drivers/STM32F3xx_HAL_Driver/Src/stm32f3xx_hal_opamp_ex.c **** #include "stm32f3xx_hal.h"
  45:Drivers/STM32F3xx_HAL_Driver/Src/stm32f3xx_hal_opamp_ex.c **** 
  46:Drivers/STM32F3xx_HAL_Driver/Src/stm32f3xx_hal_opamp_ex.c **** /** @addtogroup STM32F3xx_HAL_Driver
  47:Drivers/STM32F3xx_HAL_Driver/Src/stm32f3xx_hal_opamp_ex.c ****   * @{
  48:Drivers/STM32F3xx_HAL_Driver/Src/stm32f3xx_hal_opamp_ex.c ****   */
  49:Drivers/STM32F3xx_HAL_Driver/Src/stm32f3xx_hal_opamp_ex.c **** 
  50:Drivers/STM32F3xx_HAL_Driver/Src/stm32f3xx_hal_opamp_ex.c **** #ifdef HAL_OPAMP_MODULE_ENABLED
  51:Drivers/STM32F3xx_HAL_Driver/Src/stm32f3xx_hal_opamp_ex.c **** 
  52:Drivers/STM32F3xx_HAL_Driver/Src/stm32f3xx_hal_opamp_ex.c **** #if defined(STM32F302xE) || defined(STM32F303xE) || defined(STM32F398xx) || \
  53:Drivers/STM32F3xx_HAL_Driver/Src/stm32f3xx_hal_opamp_ex.c ****     defined(STM32F302xC) || defined(STM32F303xC) || defined(STM32F358xx) || \
  54:Drivers/STM32F3xx_HAL_Driver/Src/stm32f3xx_hal_opamp_ex.c ****     defined(STM32F303x8) || defined(STM32F334x8) || defined(STM32F328xx) || \
  55:Drivers/STM32F3xx_HAL_Driver/Src/stm32f3xx_hal_opamp_ex.c ****     defined(STM32F301x8) || defined(STM32F302x8) || defined(STM32F318xx)
  56:Drivers/STM32F3xx_HAL_Driver/Src/stm32f3xx_hal_opamp_ex.c **** 
  57:Drivers/STM32F3xx_HAL_Driver/Src/stm32f3xx_hal_opamp_ex.c **** /** @defgroup OPAMPEx OPAMPEx
  58:Drivers/STM32F3xx_HAL_Driver/Src/stm32f3xx_hal_opamp_ex.c ****   * @brief OPAMP Extended HAL module driver.
  59:Drivers/STM32F3xx_HAL_Driver/Src/stm32f3xx_hal_opamp_ex.c ****   * @{
  60:Drivers/STM32F3xx_HAL_Driver/Src/stm32f3xx_hal_opamp_ex.c ****   */
  61:Drivers/STM32F3xx_HAL_Driver/Src/stm32f3xx_hal_opamp_ex.c **** 
  62:Drivers/STM32F3xx_HAL_Driver/Src/stm32f3xx_hal_opamp_ex.c **** 
  63:Drivers/STM32F3xx_HAL_Driver/Src/stm32f3xx_hal_opamp_ex.c **** /* Private typedef -----------------------------------------------------------*/
  64:Drivers/STM32F3xx_HAL_Driver/Src/stm32f3xx_hal_opamp_ex.c **** /* Private define ------------------------------------------------------------*/
  65:Drivers/STM32F3xx_HAL_Driver/Src/stm32f3xx_hal_opamp_ex.c **** /* Private macro -------------------------------------------------------------*/
  66:Drivers/STM32F3xx_HAL_Driver/Src/stm32f3xx_hal_opamp_ex.c **** /* Private variables ---------------------------------------------------------*/
  67:Drivers/STM32F3xx_HAL_Driver/Src/stm32f3xx_hal_opamp_ex.c **** /* Private function prototypes -----------------------------------------------*/
  68:Drivers/STM32F3xx_HAL_Driver/Src/stm32f3xx_hal_opamp_ex.c **** /* Exported functions ---------------------------------------------------------*/
  69:Drivers/STM32F3xx_HAL_Driver/Src/stm32f3xx_hal_opamp_ex.c **** 
  70:Drivers/STM32F3xx_HAL_Driver/Src/stm32f3xx_hal_opamp_ex.c **** /** @defgroup OPAMPEx_Exported_Functions OPAMP Extended Exported Functions
  71:Drivers/STM32F3xx_HAL_Driver/Src/stm32f3xx_hal_opamp_ex.c ****   * @{
  72:Drivers/STM32F3xx_HAL_Driver/Src/stm32f3xx_hal_opamp_ex.c ****   */
  73:Drivers/STM32F3xx_HAL_Driver/Src/stm32f3xx_hal_opamp_ex.c **** 
  74:Drivers/STM32F3xx_HAL_Driver/Src/stm32f3xx_hal_opamp_ex.c **** 
  75:Drivers/STM32F3xx_HAL_Driver/Src/stm32f3xx_hal_opamp_ex.c **** /** @defgroup OPAMPEx_Exported_Functions_Group1 Extended Input and Output operation functions
  76:Drivers/STM32F3xx_HAL_Driver/Src/stm32f3xx_hal_opamp_ex.c ****   * @brief    Extended Self calibration functions
  77:Drivers/STM32F3xx_HAL_Driver/Src/stm32f3xx_hal_opamp_ex.c ****   *
  78:Drivers/STM32F3xx_HAL_Driver/Src/stm32f3xx_hal_opamp_ex.c **** @verbatim
  79:Drivers/STM32F3xx_HAL_Driver/Src/stm32f3xx_hal_opamp_ex.c ****  ===============================================================================
  80:Drivers/STM32F3xx_HAL_Driver/Src/stm32f3xx_hal_opamp_ex.c ****               ##### Extended IO operation functions #####
  81:Drivers/STM32F3xx_HAL_Driver/Src/stm32f3xx_hal_opamp_ex.c ****  ===============================================================================
  82:Drivers/STM32F3xx_HAL_Driver/Src/stm32f3xx_hal_opamp_ex.c ****   [..]
  83:Drivers/STM32F3xx_HAL_Driver/Src/stm32f3xx_hal_opamp_ex.c **** 
  84:Drivers/STM32F3xx_HAL_Driver/Src/stm32f3xx_hal_opamp_ex.c **** @endverbatim
  85:Drivers/STM32F3xx_HAL_Driver/Src/stm32f3xx_hal_opamp_ex.c ****   * @{
  86:Drivers/STM32F3xx_HAL_Driver/Src/stm32f3xx_hal_opamp_ex.c ****   */
ARM GAS  /var/folders/_1/sgnj6dm57r56n1x62bwb5w5h0000gn/T//ccvwjkBq.s 			page 3


  87:Drivers/STM32F3xx_HAL_Driver/Src/stm32f3xx_hal_opamp_ex.c **** 
  88:Drivers/STM32F3xx_HAL_Driver/Src/stm32f3xx_hal_opamp_ex.c **** #if defined(STM32F302xE) || \
  89:Drivers/STM32F3xx_HAL_Driver/Src/stm32f3xx_hal_opamp_ex.c ****     defined(STM32F302xC)
  90:Drivers/STM32F3xx_HAL_Driver/Src/stm32f3xx_hal_opamp_ex.c **** /*  2 OPAMPS available */
  91:Drivers/STM32F3xx_HAL_Driver/Src/stm32f3xx_hal_opamp_ex.c **** /*  2 OPAMPS can be calibrated in parallel */
  92:Drivers/STM32F3xx_HAL_Driver/Src/stm32f3xx_hal_opamp_ex.c **** 
  93:Drivers/STM32F3xx_HAL_Driver/Src/stm32f3xx_hal_opamp_ex.c **** /**
  94:Drivers/STM32F3xx_HAL_Driver/Src/stm32f3xx_hal_opamp_ex.c ****   * @brief  Run the self calibration of 2 OPAMPs in parallel.
  95:Drivers/STM32F3xx_HAL_Driver/Src/stm32f3xx_hal_opamp_ex.c ****   * @param  hopamp1 handle
  96:Drivers/STM32F3xx_HAL_Driver/Src/stm32f3xx_hal_opamp_ex.c ****   * @param  hopamp2 handle
  97:Drivers/STM32F3xx_HAL_Driver/Src/stm32f3xx_hal_opamp_ex.c ****   * @retval HAL status
  98:Drivers/STM32F3xx_HAL_Driver/Src/stm32f3xx_hal_opamp_ex.c ****   * @note   Updated offset trimming values (PMOS & NMOS), user trimming is enabled
  99:Drivers/STM32F3xx_HAL_Driver/Src/stm32f3xx_hal_opamp_ex.c ****   * @note   Calibration runs about 25 ms.
 100:Drivers/STM32F3xx_HAL_Driver/Src/stm32f3xx_hal_opamp_ex.c ****   */
 101:Drivers/STM32F3xx_HAL_Driver/Src/stm32f3xx_hal_opamp_ex.c **** 
 102:Drivers/STM32F3xx_HAL_Driver/Src/stm32f3xx_hal_opamp_ex.c **** HAL_StatusTypeDef HAL_OPAMPEx_SelfCalibrateAll(OPAMP_HandleTypeDef *hopamp1, OPAMP_HandleTypeDef *h
 103:Drivers/STM32F3xx_HAL_Driver/Src/stm32f3xx_hal_opamp_ex.c **** {
 104:Drivers/STM32F3xx_HAL_Driver/Src/stm32f3xx_hal_opamp_ex.c ****   HAL_StatusTypeDef status = HAL_OK;
 105:Drivers/STM32F3xx_HAL_Driver/Src/stm32f3xx_hal_opamp_ex.c ****   
 106:Drivers/STM32F3xx_HAL_Driver/Src/stm32f3xx_hal_opamp_ex.c ****   uint32_t trimmingvaluen1 = 0U;
 107:Drivers/STM32F3xx_HAL_Driver/Src/stm32f3xx_hal_opamp_ex.c ****   uint32_t trimmingvaluep1 = 0U;
 108:Drivers/STM32F3xx_HAL_Driver/Src/stm32f3xx_hal_opamp_ex.c ****   uint32_t trimmingvaluen2 = 0U;
 109:Drivers/STM32F3xx_HAL_Driver/Src/stm32f3xx_hal_opamp_ex.c ****   uint32_t trimmingvaluep2 = 0U;
 110:Drivers/STM32F3xx_HAL_Driver/Src/stm32f3xx_hal_opamp_ex.c **** 
 111:Drivers/STM32F3xx_HAL_Driver/Src/stm32f3xx_hal_opamp_ex.c ****   uint32_t delta;
 112:Drivers/STM32F3xx_HAL_Driver/Src/stm32f3xx_hal_opamp_ex.c **** 
 113:Drivers/STM32F3xx_HAL_Driver/Src/stm32f3xx_hal_opamp_ex.c ****   if((hopamp1 == NULL) || (hopamp1->State == HAL_OPAMP_STATE_BUSYLOCKED) || \
 114:Drivers/STM32F3xx_HAL_Driver/Src/stm32f3xx_hal_opamp_ex.c ****      (hopamp2 == NULL) || (hopamp2->State == HAL_OPAMP_STATE_BUSYLOCKED)) 
 115:Drivers/STM32F3xx_HAL_Driver/Src/stm32f3xx_hal_opamp_ex.c ****   {
 116:Drivers/STM32F3xx_HAL_Driver/Src/stm32f3xx_hal_opamp_ex.c ****     status = HAL_ERROR;
 117:Drivers/STM32F3xx_HAL_Driver/Src/stm32f3xx_hal_opamp_ex.c ****   }
 118:Drivers/STM32F3xx_HAL_Driver/Src/stm32f3xx_hal_opamp_ex.c ****  
 119:Drivers/STM32F3xx_HAL_Driver/Src/stm32f3xx_hal_opamp_ex.c ****   if(status == HAL_OK)
 120:Drivers/STM32F3xx_HAL_Driver/Src/stm32f3xx_hal_opamp_ex.c ****   {
 121:Drivers/STM32F3xx_HAL_Driver/Src/stm32f3xx_hal_opamp_ex.c ****     /* Check if OPAMP in calibration mode and calibration not yet enable */
 122:Drivers/STM32F3xx_HAL_Driver/Src/stm32f3xx_hal_opamp_ex.c ****     if((hopamp1->State ==  HAL_OPAMP_STATE_READY) && (hopamp2->State ==  HAL_OPAMP_STATE_READY))
 123:Drivers/STM32F3xx_HAL_Driver/Src/stm32f3xx_hal_opamp_ex.c ****     {
 124:Drivers/STM32F3xx_HAL_Driver/Src/stm32f3xx_hal_opamp_ex.c ****       /* Check the parameter */
 125:Drivers/STM32F3xx_HAL_Driver/Src/stm32f3xx_hal_opamp_ex.c ****       assert_param(IS_OPAMP_ALL_INSTANCE(hopamp1->Instance));
 126:Drivers/STM32F3xx_HAL_Driver/Src/stm32f3xx_hal_opamp_ex.c ****       assert_param(IS_OPAMP_ALL_INSTANCE(hopamp2->Instance));
 127:Drivers/STM32F3xx_HAL_Driver/Src/stm32f3xx_hal_opamp_ex.c **** 
 128:Drivers/STM32F3xx_HAL_Driver/Src/stm32f3xx_hal_opamp_ex.c ****       /* Set Calibration mode */
 129:Drivers/STM32F3xx_HAL_Driver/Src/stm32f3xx_hal_opamp_ex.c ****       /* Non-inverting input connected to calibration reference voltage. */
 130:Drivers/STM32F3xx_HAL_Driver/Src/stm32f3xx_hal_opamp_ex.c ****       SET_BIT(hopamp1->Instance->CSR, OPAMP_CSR_FORCEVP);
 131:Drivers/STM32F3xx_HAL_Driver/Src/stm32f3xx_hal_opamp_ex.c ****       SET_BIT(hopamp2->Instance->CSR, OPAMP_CSR_FORCEVP);
 132:Drivers/STM32F3xx_HAL_Driver/Src/stm32f3xx_hal_opamp_ex.c ****       
 133:Drivers/STM32F3xx_HAL_Driver/Src/stm32f3xx_hal_opamp_ex.c ****       /*  user trimming values are used for offset calibration */
 134:Drivers/STM32F3xx_HAL_Driver/Src/stm32f3xx_hal_opamp_ex.c ****       SET_BIT(hopamp1->Instance->CSR, OPAMP_CSR_USERTRIM);
 135:Drivers/STM32F3xx_HAL_Driver/Src/stm32f3xx_hal_opamp_ex.c ****       SET_BIT(hopamp2->Instance->CSR, OPAMP_CSR_USERTRIM);
 136:Drivers/STM32F3xx_HAL_Driver/Src/stm32f3xx_hal_opamp_ex.c ****       
 137:Drivers/STM32F3xx_HAL_Driver/Src/stm32f3xx_hal_opamp_ex.c ****       /* Enable calibration */
 138:Drivers/STM32F3xx_HAL_Driver/Src/stm32f3xx_hal_opamp_ex.c ****       SET_BIT (hopamp1->Instance->CSR, OPAMP_CSR_CALON);
 139:Drivers/STM32F3xx_HAL_Driver/Src/stm32f3xx_hal_opamp_ex.c ****       SET_BIT (hopamp2->Instance->CSR, OPAMP_CSR_CALON);
 140:Drivers/STM32F3xx_HAL_Driver/Src/stm32f3xx_hal_opamp_ex.c ****       
 141:Drivers/STM32F3xx_HAL_Driver/Src/stm32f3xx_hal_opamp_ex.c ****       /* 1st calibration - N */
 142:Drivers/STM32F3xx_HAL_Driver/Src/stm32f3xx_hal_opamp_ex.c ****       /* Select 90U% VREF */
 143:Drivers/STM32F3xx_HAL_Driver/Src/stm32f3xx_hal_opamp_ex.c ****       MODIFY_REG(hopamp1->Instance->CSR, OPAMP_CSR_CALSEL, OPAMP_VREF_90VDDA);
ARM GAS  /var/folders/_1/sgnj6dm57r56n1x62bwb5w5h0000gn/T//ccvwjkBq.s 			page 4


 144:Drivers/STM32F3xx_HAL_Driver/Src/stm32f3xx_hal_opamp_ex.c ****       MODIFY_REG(hopamp2->Instance->CSR, OPAMP_CSR_CALSEL, OPAMP_VREF_90VDDA);
 145:Drivers/STM32F3xx_HAL_Driver/Src/stm32f3xx_hal_opamp_ex.c ****       
 146:Drivers/STM32F3xx_HAL_Driver/Src/stm32f3xx_hal_opamp_ex.c ****       /* Enable the opamps */
 147:Drivers/STM32F3xx_HAL_Driver/Src/stm32f3xx_hal_opamp_ex.c ****       SET_BIT (hopamp1->Instance->CSR, OPAMP_CSR_OPAMPxEN);
 148:Drivers/STM32F3xx_HAL_Driver/Src/stm32f3xx_hal_opamp_ex.c ****       SET_BIT (hopamp2->Instance->CSR, OPAMP_CSR_OPAMPxEN);
 149:Drivers/STM32F3xx_HAL_Driver/Src/stm32f3xx_hal_opamp_ex.c ****       
 150:Drivers/STM32F3xx_HAL_Driver/Src/stm32f3xx_hal_opamp_ex.c ****       /* Init trimming counter */    
 151:Drivers/STM32F3xx_HAL_Driver/Src/stm32f3xx_hal_opamp_ex.c ****       /* Medium value */
 152:Drivers/STM32F3xx_HAL_Driver/Src/stm32f3xx_hal_opamp_ex.c ****       trimmingvaluen1 = 16U; 
 153:Drivers/STM32F3xx_HAL_Driver/Src/stm32f3xx_hal_opamp_ex.c ****       trimmingvaluen2 = 16U; 
 154:Drivers/STM32F3xx_HAL_Driver/Src/stm32f3xx_hal_opamp_ex.c ****       delta = 8U; 
 155:Drivers/STM32F3xx_HAL_Driver/Src/stm32f3xx_hal_opamp_ex.c ****     
 156:Drivers/STM32F3xx_HAL_Driver/Src/stm32f3xx_hal_opamp_ex.c ****       while (delta != 0U)
 157:Drivers/STM32F3xx_HAL_Driver/Src/stm32f3xx_hal_opamp_ex.c ****       {
 158:Drivers/STM32F3xx_HAL_Driver/Src/stm32f3xx_hal_opamp_ex.c ****         /* Set candidate trimming */
 159:Drivers/STM32F3xx_HAL_Driver/Src/stm32f3xx_hal_opamp_ex.c ****         MODIFY_REG(hopamp1->Instance->CSR, OPAMP_CSR_TRIMOFFSETN, trimmingvaluen1<<OPAMP_INPUT_INVE
 160:Drivers/STM32F3xx_HAL_Driver/Src/stm32f3xx_hal_opamp_ex.c ****         MODIFY_REG(hopamp2->Instance->CSR, OPAMP_CSR_TRIMOFFSETN, trimmingvaluen2<<OPAMP_INPUT_INVE
 161:Drivers/STM32F3xx_HAL_Driver/Src/stm32f3xx_hal_opamp_ex.c ****               
 162:Drivers/STM32F3xx_HAL_Driver/Src/stm32f3xx_hal_opamp_ex.c ****         /* OFFTRIMmax delay 2 ms as per datasheet (electrical characteristics */ 
 163:Drivers/STM32F3xx_HAL_Driver/Src/stm32f3xx_hal_opamp_ex.c ****         /* Offset trim time: during calibration, minimum time needed between */
 164:Drivers/STM32F3xx_HAL_Driver/Src/stm32f3xx_hal_opamp_ex.c ****         /* two steps to have 1 mV accuracy */
 165:Drivers/STM32F3xx_HAL_Driver/Src/stm32f3xx_hal_opamp_ex.c ****         HAL_Delay(2U);
 166:Drivers/STM32F3xx_HAL_Driver/Src/stm32f3xx_hal_opamp_ex.c **** 
 167:Drivers/STM32F3xx_HAL_Driver/Src/stm32f3xx_hal_opamp_ex.c ****         if (hopamp1->Instance->CSR & OPAMP_CSR_OUTCAL) 
 168:Drivers/STM32F3xx_HAL_Driver/Src/stm32f3xx_hal_opamp_ex.c ****         { 
 169:Drivers/STM32F3xx_HAL_Driver/Src/stm32f3xx_hal_opamp_ex.c ****           /* OPAMP_CSR_OUTCAL is HIGH try higher trimming */
 170:Drivers/STM32F3xx_HAL_Driver/Src/stm32f3xx_hal_opamp_ex.c ****           trimmingvaluen1 += delta;
 171:Drivers/STM32F3xx_HAL_Driver/Src/stm32f3xx_hal_opamp_ex.c ****         }
 172:Drivers/STM32F3xx_HAL_Driver/Src/stm32f3xx_hal_opamp_ex.c ****         else
 173:Drivers/STM32F3xx_HAL_Driver/Src/stm32f3xx_hal_opamp_ex.c ****         {
 174:Drivers/STM32F3xx_HAL_Driver/Src/stm32f3xx_hal_opamp_ex.c ****           /* OPAMP_CSR_OUTCAL is LOW try lower trimming */
 175:Drivers/STM32F3xx_HAL_Driver/Src/stm32f3xx_hal_opamp_ex.c ****           trimmingvaluen1 -= delta;
 176:Drivers/STM32F3xx_HAL_Driver/Src/stm32f3xx_hal_opamp_ex.c ****         }
 177:Drivers/STM32F3xx_HAL_Driver/Src/stm32f3xx_hal_opamp_ex.c **** 
 178:Drivers/STM32F3xx_HAL_Driver/Src/stm32f3xx_hal_opamp_ex.c ****         if (hopamp2->Instance->CSR & OPAMP_CSR_OUTCAL) 
 179:Drivers/STM32F3xx_HAL_Driver/Src/stm32f3xx_hal_opamp_ex.c ****         { 
 180:Drivers/STM32F3xx_HAL_Driver/Src/stm32f3xx_hal_opamp_ex.c ****           /* OPAMP_CSR_OUTCAL is HIGH try higher trimming */
 181:Drivers/STM32F3xx_HAL_Driver/Src/stm32f3xx_hal_opamp_ex.c ****           trimmingvaluen2 += delta;
 182:Drivers/STM32F3xx_HAL_Driver/Src/stm32f3xx_hal_opamp_ex.c ****         }
 183:Drivers/STM32F3xx_HAL_Driver/Src/stm32f3xx_hal_opamp_ex.c ****         else
 184:Drivers/STM32F3xx_HAL_Driver/Src/stm32f3xx_hal_opamp_ex.c ****         {
 185:Drivers/STM32F3xx_HAL_Driver/Src/stm32f3xx_hal_opamp_ex.c ****           /* OPAMP_CSR_OUTCAL is LOW try lower trimming */
 186:Drivers/STM32F3xx_HAL_Driver/Src/stm32f3xx_hal_opamp_ex.c ****           trimmingvaluen2 -= delta;
 187:Drivers/STM32F3xx_HAL_Driver/Src/stm32f3xx_hal_opamp_ex.c ****         }
 188:Drivers/STM32F3xx_HAL_Driver/Src/stm32f3xx_hal_opamp_ex.c ****                       
 189:Drivers/STM32F3xx_HAL_Driver/Src/stm32f3xx_hal_opamp_ex.c ****         delta >>= 1U;
 190:Drivers/STM32F3xx_HAL_Driver/Src/stm32f3xx_hal_opamp_ex.c ****       }
 191:Drivers/STM32F3xx_HAL_Driver/Src/stm32f3xx_hal_opamp_ex.c **** 
 192:Drivers/STM32F3xx_HAL_Driver/Src/stm32f3xx_hal_opamp_ex.c ****       // Still need to check if righ calibration is current value or un step below
 193:Drivers/STM32F3xx_HAL_Driver/Src/stm32f3xx_hal_opamp_ex.c ****       // Indeed the first value that causes the OUTCAL bit to change from 1 to 0 
 194:Drivers/STM32F3xx_HAL_Driver/Src/stm32f3xx_hal_opamp_ex.c ****       MODIFY_REG(hopamp1->Instance->CSR, OPAMP_CSR_TRIMOFFSETN, trimmingvaluen1<<OPAMP_INPUT_INVERT
 195:Drivers/STM32F3xx_HAL_Driver/Src/stm32f3xx_hal_opamp_ex.c ****       MODIFY_REG(hopamp2->Instance->CSR, OPAMP_CSR_TRIMOFFSETN, trimmingvaluen2<<OPAMP_INPUT_INVERT
 196:Drivers/STM32F3xx_HAL_Driver/Src/stm32f3xx_hal_opamp_ex.c ****       
 197:Drivers/STM32F3xx_HAL_Driver/Src/stm32f3xx_hal_opamp_ex.c ****       /* OFFTRIMmax delay 2 ms as per datasheet (electrical characteristics */ 
 198:Drivers/STM32F3xx_HAL_Driver/Src/stm32f3xx_hal_opamp_ex.c ****       /* Offset trim time: during calibration, minimum time needed between */
 199:Drivers/STM32F3xx_HAL_Driver/Src/stm32f3xx_hal_opamp_ex.c ****       /* two steps to have 1 mV accuracy */
 200:Drivers/STM32F3xx_HAL_Driver/Src/stm32f3xx_hal_opamp_ex.c ****       HAL_Delay(2U);
ARM GAS  /var/folders/_1/sgnj6dm57r56n1x62bwb5w5h0000gn/T//ccvwjkBq.s 			page 5


 201:Drivers/STM32F3xx_HAL_Driver/Src/stm32f3xx_hal_opamp_ex.c ****       
 202:Drivers/STM32F3xx_HAL_Driver/Src/stm32f3xx_hal_opamp_ex.c ****       if (hopamp1->Instance->CSR & OPAMP_CSR_OUTCAL) 
 203:Drivers/STM32F3xx_HAL_Driver/Src/stm32f3xx_hal_opamp_ex.c ****         { 
 204:Drivers/STM32F3xx_HAL_Driver/Src/stm32f3xx_hal_opamp_ex.c ****           /* OPAMP_CSR_OUTCAL is actually one value more */
 205:Drivers/STM32F3xx_HAL_Driver/Src/stm32f3xx_hal_opamp_ex.c ****           trimmingvaluen1++;
 206:Drivers/STM32F3xx_HAL_Driver/Src/stm32f3xx_hal_opamp_ex.c ****           /* Set right trimming */
 207:Drivers/STM32F3xx_HAL_Driver/Src/stm32f3xx_hal_opamp_ex.c ****           MODIFY_REG(hopamp1->Instance->CSR, OPAMP_CSR_TRIMOFFSETN, trimmingvaluen1<<OPAMP_INPUT_IN
 208:Drivers/STM32F3xx_HAL_Driver/Src/stm32f3xx_hal_opamp_ex.c ****         }
 209:Drivers/STM32F3xx_HAL_Driver/Src/stm32f3xx_hal_opamp_ex.c **** 
 210:Drivers/STM32F3xx_HAL_Driver/Src/stm32f3xx_hal_opamp_ex.c ****       if (hopamp2->Instance->CSR & OPAMP_CSR_OUTCAL) 
 211:Drivers/STM32F3xx_HAL_Driver/Src/stm32f3xx_hal_opamp_ex.c ****         { 
 212:Drivers/STM32F3xx_HAL_Driver/Src/stm32f3xx_hal_opamp_ex.c ****           /* OPAMP_CSR_OUTCAL is actually one value more */
 213:Drivers/STM32F3xx_HAL_Driver/Src/stm32f3xx_hal_opamp_ex.c ****           trimmingvaluen2++;
 214:Drivers/STM32F3xx_HAL_Driver/Src/stm32f3xx_hal_opamp_ex.c ****           /* Set right trimming */
 215:Drivers/STM32F3xx_HAL_Driver/Src/stm32f3xx_hal_opamp_ex.c ****           MODIFY_REG(hopamp1->Instance->CSR, OPAMP_CSR_TRIMOFFSETN, trimmingvaluen2<<OPAMP_INPUT_IN
 216:Drivers/STM32F3xx_HAL_Driver/Src/stm32f3xx_hal_opamp_ex.c ****         }
 217:Drivers/STM32F3xx_HAL_Driver/Src/stm32f3xx_hal_opamp_ex.c ****     
 218:Drivers/STM32F3xx_HAL_Driver/Src/stm32f3xx_hal_opamp_ex.c ****       /* 2nd calibration - P */
 219:Drivers/STM32F3xx_HAL_Driver/Src/stm32f3xx_hal_opamp_ex.c ****       /* Select 10U% VREF */
 220:Drivers/STM32F3xx_HAL_Driver/Src/stm32f3xx_hal_opamp_ex.c ****       MODIFY_REG(hopamp1->Instance->CSR, OPAMP_CSR_CALSEL, OPAMP_VREF_10VDDA);
 221:Drivers/STM32F3xx_HAL_Driver/Src/stm32f3xx_hal_opamp_ex.c ****       MODIFY_REG(hopamp2->Instance->CSR, OPAMP_CSR_CALSEL, OPAMP_VREF_10VDDA);
 222:Drivers/STM32F3xx_HAL_Driver/Src/stm32f3xx_hal_opamp_ex.c ****       
 223:Drivers/STM32F3xx_HAL_Driver/Src/stm32f3xx_hal_opamp_ex.c ****       /* Init trimming counter */    
 224:Drivers/STM32F3xx_HAL_Driver/Src/stm32f3xx_hal_opamp_ex.c ****       /* Medium value */
 225:Drivers/STM32F3xx_HAL_Driver/Src/stm32f3xx_hal_opamp_ex.c ****       trimmingvaluep1 = 16U; 
 226:Drivers/STM32F3xx_HAL_Driver/Src/stm32f3xx_hal_opamp_ex.c ****       trimmingvaluep2 = 16U; 
 227:Drivers/STM32F3xx_HAL_Driver/Src/stm32f3xx_hal_opamp_ex.c ****       delta = 8U;
 228:Drivers/STM32F3xx_HAL_Driver/Src/stm32f3xx_hal_opamp_ex.c ****       
 229:Drivers/STM32F3xx_HAL_Driver/Src/stm32f3xx_hal_opamp_ex.c ****       while (delta != 0U)
 230:Drivers/STM32F3xx_HAL_Driver/Src/stm32f3xx_hal_opamp_ex.c ****       {
 231:Drivers/STM32F3xx_HAL_Driver/Src/stm32f3xx_hal_opamp_ex.c ****         /* Set candidate trimming */
 232:Drivers/STM32F3xx_HAL_Driver/Src/stm32f3xx_hal_opamp_ex.c ****         MODIFY_REG(hopamp1->Instance->CSR, OPAMP_CSR_TRIMOFFSETP, trimmingvaluep1<<OPAMP_INPUT_NONI
 233:Drivers/STM32F3xx_HAL_Driver/Src/stm32f3xx_hal_opamp_ex.c ****         MODIFY_REG(hopamp2->Instance->CSR, OPAMP_CSR_TRIMOFFSETP, trimmingvaluep2<<OPAMP_INPUT_NONI
 234:Drivers/STM32F3xx_HAL_Driver/Src/stm32f3xx_hal_opamp_ex.c ****                
 235:Drivers/STM32F3xx_HAL_Driver/Src/stm32f3xx_hal_opamp_ex.c ****         /* OFFTRIMmax delay 2 ms as per datasheet (electrical characteristics */ 
 236:Drivers/STM32F3xx_HAL_Driver/Src/stm32f3xx_hal_opamp_ex.c ****         /* Offset trim time: during calibration, minimum time needed between */
 237:Drivers/STM32F3xx_HAL_Driver/Src/stm32f3xx_hal_opamp_ex.c ****         /* two steps to have 1 mV accuracy */
 238:Drivers/STM32F3xx_HAL_Driver/Src/stm32f3xx_hal_opamp_ex.c ****         HAL_Delay(2U);
 239:Drivers/STM32F3xx_HAL_Driver/Src/stm32f3xx_hal_opamp_ex.c **** 
 240:Drivers/STM32F3xx_HAL_Driver/Src/stm32f3xx_hal_opamp_ex.c ****         if (hopamp1->Instance->CSR & OPAMP_CSR_OUTCAL) 
 241:Drivers/STM32F3xx_HAL_Driver/Src/stm32f3xx_hal_opamp_ex.c ****         { 
 242:Drivers/STM32F3xx_HAL_Driver/Src/stm32f3xx_hal_opamp_ex.c ****           /* OPAMP_CSR_OUTCAL is HIGH try higher trimming */
 243:Drivers/STM32F3xx_HAL_Driver/Src/stm32f3xx_hal_opamp_ex.c ****           trimmingvaluep1 += delta;
 244:Drivers/STM32F3xx_HAL_Driver/Src/stm32f3xx_hal_opamp_ex.c ****         }
 245:Drivers/STM32F3xx_HAL_Driver/Src/stm32f3xx_hal_opamp_ex.c ****         else
 246:Drivers/STM32F3xx_HAL_Driver/Src/stm32f3xx_hal_opamp_ex.c ****         {
 247:Drivers/STM32F3xx_HAL_Driver/Src/stm32f3xx_hal_opamp_ex.c ****           trimmingvaluep1 -= delta;
 248:Drivers/STM32F3xx_HAL_Driver/Src/stm32f3xx_hal_opamp_ex.c ****         }
 249:Drivers/STM32F3xx_HAL_Driver/Src/stm32f3xx_hal_opamp_ex.c ****          
 250:Drivers/STM32F3xx_HAL_Driver/Src/stm32f3xx_hal_opamp_ex.c ****         if (hopamp2->Instance->CSR & OPAMP_CSR_OUTCAL) 
 251:Drivers/STM32F3xx_HAL_Driver/Src/stm32f3xx_hal_opamp_ex.c ****         { 
 252:Drivers/STM32F3xx_HAL_Driver/Src/stm32f3xx_hal_opamp_ex.c ****           /* OPAMP_CSR_OUTCAL is HIGH try higher trimming */
 253:Drivers/STM32F3xx_HAL_Driver/Src/stm32f3xx_hal_opamp_ex.c ****           trimmingvaluep2 += delta;
 254:Drivers/STM32F3xx_HAL_Driver/Src/stm32f3xx_hal_opamp_ex.c ****         }
 255:Drivers/STM32F3xx_HAL_Driver/Src/stm32f3xx_hal_opamp_ex.c ****         else
 256:Drivers/STM32F3xx_HAL_Driver/Src/stm32f3xx_hal_opamp_ex.c ****         {
 257:Drivers/STM32F3xx_HAL_Driver/Src/stm32f3xx_hal_opamp_ex.c ****           trimmingvaluep2 -= delta;
ARM GAS  /var/folders/_1/sgnj6dm57r56n1x62bwb5w5h0000gn/T//ccvwjkBq.s 			page 6


 258:Drivers/STM32F3xx_HAL_Driver/Src/stm32f3xx_hal_opamp_ex.c ****         }
 259:Drivers/STM32F3xx_HAL_Driver/Src/stm32f3xx_hal_opamp_ex.c ****                       
 260:Drivers/STM32F3xx_HAL_Driver/Src/stm32f3xx_hal_opamp_ex.c ****         delta >>= 1U;
 261:Drivers/STM32F3xx_HAL_Driver/Src/stm32f3xx_hal_opamp_ex.c ****       }
 262:Drivers/STM32F3xx_HAL_Driver/Src/stm32f3xx_hal_opamp_ex.c ****       
 263:Drivers/STM32F3xx_HAL_Driver/Src/stm32f3xx_hal_opamp_ex.c ****       // Still need to check if righ calibration is current value or un step below
 264:Drivers/STM32F3xx_HAL_Driver/Src/stm32f3xx_hal_opamp_ex.c ****       // Indeed the first value that causes the OUTCAL bit to change from 1 to 0 
 265:Drivers/STM32F3xx_HAL_Driver/Src/stm32f3xx_hal_opamp_ex.c ****       /* Set candidate trimming */
 266:Drivers/STM32F3xx_HAL_Driver/Src/stm32f3xx_hal_opamp_ex.c ****       MODIFY_REG(hopamp1->Instance->CSR, OPAMP_CSR_TRIMOFFSETP, trimmingvaluep1<<OPAMP_INPUT_NONINV
 267:Drivers/STM32F3xx_HAL_Driver/Src/stm32f3xx_hal_opamp_ex.c ****       MODIFY_REG(hopamp2->Instance->CSR, OPAMP_CSR_TRIMOFFSETP, trimmingvaluep2<<OPAMP_INPUT_NONINV
 268:Drivers/STM32F3xx_HAL_Driver/Src/stm32f3xx_hal_opamp_ex.c **** 
 269:Drivers/STM32F3xx_HAL_Driver/Src/stm32f3xx_hal_opamp_ex.c ****        /* OFFTRIMmax delay 2 ms as per datasheet (electrical characteristics */ 
 270:Drivers/STM32F3xx_HAL_Driver/Src/stm32f3xx_hal_opamp_ex.c ****        /* Offset trim time: during calibration, minimum time needed between */
 271:Drivers/STM32F3xx_HAL_Driver/Src/stm32f3xx_hal_opamp_ex.c ****        /* two steps to have 1 mV accuracy */
 272:Drivers/STM32F3xx_HAL_Driver/Src/stm32f3xx_hal_opamp_ex.c ****        HAL_Delay(2U);
 273:Drivers/STM32F3xx_HAL_Driver/Src/stm32f3xx_hal_opamp_ex.c ****       
 274:Drivers/STM32F3xx_HAL_Driver/Src/stm32f3xx_hal_opamp_ex.c ****       if (hopamp1->Instance->CSR & OPAMP_CSR_OUTCAL) 
 275:Drivers/STM32F3xx_HAL_Driver/Src/stm32f3xx_hal_opamp_ex.c ****         { 
 276:Drivers/STM32F3xx_HAL_Driver/Src/stm32f3xx_hal_opamp_ex.c ****           /* OPAMP_CSR_OUTCAL is actually one value more */
 277:Drivers/STM32F3xx_HAL_Driver/Src/stm32f3xx_hal_opamp_ex.c ****           trimmingvaluep1++;
 278:Drivers/STM32F3xx_HAL_Driver/Src/stm32f3xx_hal_opamp_ex.c ****           /* Set right trimming */
 279:Drivers/STM32F3xx_HAL_Driver/Src/stm32f3xx_hal_opamp_ex.c ****           MODIFY_REG(hopamp1->Instance->CSR, OPAMP_CSR_TRIMOFFSETP, trimmingvaluep1<<OPAMP_INPUT_NO
 280:Drivers/STM32F3xx_HAL_Driver/Src/stm32f3xx_hal_opamp_ex.c ****         }
 281:Drivers/STM32F3xx_HAL_Driver/Src/stm32f3xx_hal_opamp_ex.c ****     
 282:Drivers/STM32F3xx_HAL_Driver/Src/stm32f3xx_hal_opamp_ex.c ****       if (hopamp2->Instance->CSR & OPAMP_CSR_OUTCAL) 
 283:Drivers/STM32F3xx_HAL_Driver/Src/stm32f3xx_hal_opamp_ex.c ****         { 
 284:Drivers/STM32F3xx_HAL_Driver/Src/stm32f3xx_hal_opamp_ex.c ****           /* OPAMP_CSR_OUTCAL is actually one value more */
 285:Drivers/STM32F3xx_HAL_Driver/Src/stm32f3xx_hal_opamp_ex.c ****           trimmingvaluep2++;
 286:Drivers/STM32F3xx_HAL_Driver/Src/stm32f3xx_hal_opamp_ex.c ****           /* Set right trimming */
 287:Drivers/STM32F3xx_HAL_Driver/Src/stm32f3xx_hal_opamp_ex.c ****           MODIFY_REG(hopamp2->Instance->CSR, OPAMP_CSR_TRIMOFFSETP, trimmingvaluep2<<OPAMP_INPUT_NO
 288:Drivers/STM32F3xx_HAL_Driver/Src/stm32f3xx_hal_opamp_ex.c ****         }
 289:Drivers/STM32F3xx_HAL_Driver/Src/stm32f3xx_hal_opamp_ex.c **** 
 290:Drivers/STM32F3xx_HAL_Driver/Src/stm32f3xx_hal_opamp_ex.c ****       /* Disable calibration */
 291:Drivers/STM32F3xx_HAL_Driver/Src/stm32f3xx_hal_opamp_ex.c ****       CLEAR_BIT (hopamp1->Instance->CSR, OPAMP_CSR_CALON);
 292:Drivers/STM32F3xx_HAL_Driver/Src/stm32f3xx_hal_opamp_ex.c ****       CLEAR_BIT (hopamp2->Instance->CSR, OPAMP_CSR_CALON);
 293:Drivers/STM32F3xx_HAL_Driver/Src/stm32f3xx_hal_opamp_ex.c **** 
 294:Drivers/STM32F3xx_HAL_Driver/Src/stm32f3xx_hal_opamp_ex.c ****       /* Disable the OPAMPs */
 295:Drivers/STM32F3xx_HAL_Driver/Src/stm32f3xx_hal_opamp_ex.c ****       CLEAR_BIT (hopamp1->Instance->CSR, OPAMP_CSR_OPAMPxEN);
 296:Drivers/STM32F3xx_HAL_Driver/Src/stm32f3xx_hal_opamp_ex.c ****       CLEAR_BIT (hopamp2->Instance->CSR, OPAMP_CSR_OPAMPxEN);
 297:Drivers/STM32F3xx_HAL_Driver/Src/stm32f3xx_hal_opamp_ex.c **** 
 298:Drivers/STM32F3xx_HAL_Driver/Src/stm32f3xx_hal_opamp_ex.c ****       /* Set operating mode back */
 299:Drivers/STM32F3xx_HAL_Driver/Src/stm32f3xx_hal_opamp_ex.c ****       CLEAR_BIT(hopamp1->Instance->CSR, OPAMP_CSR_FORCEVP);
 300:Drivers/STM32F3xx_HAL_Driver/Src/stm32f3xx_hal_opamp_ex.c ****       CLEAR_BIT(hopamp2->Instance->CSR, OPAMP_CSR_FORCEVP);
 301:Drivers/STM32F3xx_HAL_Driver/Src/stm32f3xx_hal_opamp_ex.c ****       
 302:Drivers/STM32F3xx_HAL_Driver/Src/stm32f3xx_hal_opamp_ex.c ****       /* Self calibration is successful  */
 303:Drivers/STM32F3xx_HAL_Driver/Src/stm32f3xx_hal_opamp_ex.c ****       /* Store calibration(user timming) results in init structure. */
 304:Drivers/STM32F3xx_HAL_Driver/Src/stm32f3xx_hal_opamp_ex.c ****       /* Select user timming mode */
 305:Drivers/STM32F3xx_HAL_Driver/Src/stm32f3xx_hal_opamp_ex.c **** 
 306:Drivers/STM32F3xx_HAL_Driver/Src/stm32f3xx_hal_opamp_ex.c ****       /* Write calibration result N */
 307:Drivers/STM32F3xx_HAL_Driver/Src/stm32f3xx_hal_opamp_ex.c ****       hopamp1->Init.TrimmingValueN = trimmingvaluen1;
 308:Drivers/STM32F3xx_HAL_Driver/Src/stm32f3xx_hal_opamp_ex.c ****       hopamp2->Init.TrimmingValueN = trimmingvaluen2;
 309:Drivers/STM32F3xx_HAL_Driver/Src/stm32f3xx_hal_opamp_ex.c ****      
 310:Drivers/STM32F3xx_HAL_Driver/Src/stm32f3xx_hal_opamp_ex.c ****       /* Write calibration result P */
 311:Drivers/STM32F3xx_HAL_Driver/Src/stm32f3xx_hal_opamp_ex.c ****       hopamp1->Init.TrimmingValueP = trimmingvaluep1;
 312:Drivers/STM32F3xx_HAL_Driver/Src/stm32f3xx_hal_opamp_ex.c ****       hopamp2->Init.TrimmingValueP = trimmingvaluep2;
 313:Drivers/STM32F3xx_HAL_Driver/Src/stm32f3xx_hal_opamp_ex.c ****             
 314:Drivers/STM32F3xx_HAL_Driver/Src/stm32f3xx_hal_opamp_ex.c ****       /* Calibration */
ARM GAS  /var/folders/_1/sgnj6dm57r56n1x62bwb5w5h0000gn/T//ccvwjkBq.s 			page 7


 315:Drivers/STM32F3xx_HAL_Driver/Src/stm32f3xx_hal_opamp_ex.c ****       hopamp1->Init.UserTrimming = OPAMP_TRIMMING_USER;
 316:Drivers/STM32F3xx_HAL_Driver/Src/stm32f3xx_hal_opamp_ex.c ****       hopamp2->Init.UserTrimming = OPAMP_TRIMMING_USER;
 317:Drivers/STM32F3xx_HAL_Driver/Src/stm32f3xx_hal_opamp_ex.c ****     
 318:Drivers/STM32F3xx_HAL_Driver/Src/stm32f3xx_hal_opamp_ex.c ****       /* Select user timming mode */      
 319:Drivers/STM32F3xx_HAL_Driver/Src/stm32f3xx_hal_opamp_ex.c ****       /* And updated with calibrated settings */
 320:Drivers/STM32F3xx_HAL_Driver/Src/stm32f3xx_hal_opamp_ex.c ****       hopamp1->Init.UserTrimming = OPAMP_TRIMMING_USER;
 321:Drivers/STM32F3xx_HAL_Driver/Src/stm32f3xx_hal_opamp_ex.c ****       hopamp2->Init.UserTrimming = OPAMP_TRIMMING_USER;
 322:Drivers/STM32F3xx_HAL_Driver/Src/stm32f3xx_hal_opamp_ex.c ****       
 323:Drivers/STM32F3xx_HAL_Driver/Src/stm32f3xx_hal_opamp_ex.c ****       MODIFY_REG(hopamp1->Instance->CSR, OPAMP_CSR_TRIMOFFSETN, trimmingvaluen1<<OPAMP_INPUT_INVERT
 324:Drivers/STM32F3xx_HAL_Driver/Src/stm32f3xx_hal_opamp_ex.c ****       MODIFY_REG(hopamp2->Instance->CSR, OPAMP_CSR_TRIMOFFSETN, trimmingvaluen2<<OPAMP_INPUT_INVERT
 325:Drivers/STM32F3xx_HAL_Driver/Src/stm32f3xx_hal_opamp_ex.c ****      
 326:Drivers/STM32F3xx_HAL_Driver/Src/stm32f3xx_hal_opamp_ex.c ****       MODIFY_REG(hopamp1->Instance->CSR, OPAMP_CSR_TRIMOFFSETP, trimmingvaluep1<<OPAMP_INPUT_NONINV
 327:Drivers/STM32F3xx_HAL_Driver/Src/stm32f3xx_hal_opamp_ex.c ****       MODIFY_REG(hopamp2->Instance->CSR, OPAMP_CSR_TRIMOFFSETP, trimmingvaluep2<<OPAMP_INPUT_NONINV
 328:Drivers/STM32F3xx_HAL_Driver/Src/stm32f3xx_hal_opamp_ex.c ****           
 329:Drivers/STM32F3xx_HAL_Driver/Src/stm32f3xx_hal_opamp_ex.c ****     }
 330:Drivers/STM32F3xx_HAL_Driver/Src/stm32f3xx_hal_opamp_ex.c ****     
 331:Drivers/STM32F3xx_HAL_Driver/Src/stm32f3xx_hal_opamp_ex.c ****     else
 332:Drivers/STM32F3xx_HAL_Driver/Src/stm32f3xx_hal_opamp_ex.c ****     {
 333:Drivers/STM32F3xx_HAL_Driver/Src/stm32f3xx_hal_opamp_ex.c ****       /* At least one OPAMP can not be calibrated */ 
 334:Drivers/STM32F3xx_HAL_Driver/Src/stm32f3xx_hal_opamp_ex.c ****       status = HAL_ERROR;
 335:Drivers/STM32F3xx_HAL_Driver/Src/stm32f3xx_hal_opamp_ex.c ****     }   
 336:Drivers/STM32F3xx_HAL_Driver/Src/stm32f3xx_hal_opamp_ex.c ****   }
 337:Drivers/STM32F3xx_HAL_Driver/Src/stm32f3xx_hal_opamp_ex.c ****   
 338:Drivers/STM32F3xx_HAL_Driver/Src/stm32f3xx_hal_opamp_ex.c ****   return status;
 339:Drivers/STM32F3xx_HAL_Driver/Src/stm32f3xx_hal_opamp_ex.c **** }
 340:Drivers/STM32F3xx_HAL_Driver/Src/stm32f3xx_hal_opamp_ex.c **** #endif /* STM32F302xE || */
 341:Drivers/STM32F3xx_HAL_Driver/Src/stm32f3xx_hal_opamp_ex.c ****        /* STM32F302xC    */
 342:Drivers/STM32F3xx_HAL_Driver/Src/stm32f3xx_hal_opamp_ex.c **** 
 343:Drivers/STM32F3xx_HAL_Driver/Src/stm32f3xx_hal_opamp_ex.c **** #if defined(STM32F303xE) || defined(STM32F398xx) || \
 344:Drivers/STM32F3xx_HAL_Driver/Src/stm32f3xx_hal_opamp_ex.c ****     defined(STM32F303xC) || defined(STM32F358xx)
 345:Drivers/STM32F3xx_HAL_Driver/Src/stm32f3xx_hal_opamp_ex.c **** /*  4 OPAMPS available */
 346:Drivers/STM32F3xx_HAL_Driver/Src/stm32f3xx_hal_opamp_ex.c **** /*  4 OPAMPS can be calibrated in parallel */
 347:Drivers/STM32F3xx_HAL_Driver/Src/stm32f3xx_hal_opamp_ex.c **** 
 348:Drivers/STM32F3xx_HAL_Driver/Src/stm32f3xx_hal_opamp_ex.c **** /**
 349:Drivers/STM32F3xx_HAL_Driver/Src/stm32f3xx_hal_opamp_ex.c ****   * @brief  Run the self calibration of 4 OPAMPs in parallel.
 350:Drivers/STM32F3xx_HAL_Driver/Src/stm32f3xx_hal_opamp_ex.c ****   * @param  hopamp1 handle
 351:Drivers/STM32F3xx_HAL_Driver/Src/stm32f3xx_hal_opamp_ex.c ****   * @param  hopamp2 handle
 352:Drivers/STM32F3xx_HAL_Driver/Src/stm32f3xx_hal_opamp_ex.c ****   * @param  hopamp3 handle
 353:Drivers/STM32F3xx_HAL_Driver/Src/stm32f3xx_hal_opamp_ex.c ****   * @param  hopamp4 handle
 354:Drivers/STM32F3xx_HAL_Driver/Src/stm32f3xx_hal_opamp_ex.c ****   * @retval HAL status
 355:Drivers/STM32F3xx_HAL_Driver/Src/stm32f3xx_hal_opamp_ex.c ****   * @note   Updated offset trimming values (PMOS & NMOS), user trimming is enabled
 356:Drivers/STM32F3xx_HAL_Driver/Src/stm32f3xx_hal_opamp_ex.c ****   * @note   Calibration runs about 25 ms.
 357:Drivers/STM32F3xx_HAL_Driver/Src/stm32f3xx_hal_opamp_ex.c ****   */
 358:Drivers/STM32F3xx_HAL_Driver/Src/stm32f3xx_hal_opamp_ex.c **** 
 359:Drivers/STM32F3xx_HAL_Driver/Src/stm32f3xx_hal_opamp_ex.c **** HAL_StatusTypeDef HAL_OPAMPEx_SelfCalibrateAll(OPAMP_HandleTypeDef *hopamp1, OPAMP_HandleTypeDef *h
 360:Drivers/STM32F3xx_HAL_Driver/Src/stm32f3xx_hal_opamp_ex.c **** {
  30              		.loc 1 360 1 view -0
  31              		.cfi_startproc
  32              		@ args = 0, pretend = 0, frame = 24
  33              		@ frame_needed = 0, uses_anonymous_args = 0
 361:Drivers/STM32F3xx_HAL_Driver/Src/stm32f3xx_hal_opamp_ex.c ****   HAL_StatusTypeDef status = HAL_OK;
  34              		.loc 1 361 3 view .LVU1
 362:Drivers/STM32F3xx_HAL_Driver/Src/stm32f3xx_hal_opamp_ex.c ****   
 363:Drivers/STM32F3xx_HAL_Driver/Src/stm32f3xx_hal_opamp_ex.c ****   uint32_t trimmingvaluen1 = 0U;
  35              		.loc 1 363 3 view .LVU2
 364:Drivers/STM32F3xx_HAL_Driver/Src/stm32f3xx_hal_opamp_ex.c ****   uint32_t trimmingvaluep1 = 0U;
  36              		.loc 1 364 3 view .LVU3
ARM GAS  /var/folders/_1/sgnj6dm57r56n1x62bwb5w5h0000gn/T//ccvwjkBq.s 			page 8


 365:Drivers/STM32F3xx_HAL_Driver/Src/stm32f3xx_hal_opamp_ex.c ****   uint32_t trimmingvaluen2 = 0U;
  37              		.loc 1 365 3 view .LVU4
 366:Drivers/STM32F3xx_HAL_Driver/Src/stm32f3xx_hal_opamp_ex.c ****   uint32_t trimmingvaluep2 = 0U;
  38              		.loc 1 366 3 view .LVU5
 367:Drivers/STM32F3xx_HAL_Driver/Src/stm32f3xx_hal_opamp_ex.c ****   uint32_t trimmingvaluen3 = 0U;
  39              		.loc 1 367 3 view .LVU6
 368:Drivers/STM32F3xx_HAL_Driver/Src/stm32f3xx_hal_opamp_ex.c ****   uint32_t trimmingvaluep3 = 0U;
  40              		.loc 1 368 3 view .LVU7
 369:Drivers/STM32F3xx_HAL_Driver/Src/stm32f3xx_hal_opamp_ex.c ****   uint32_t trimmingvaluen4 = 0U;
  41              		.loc 1 369 3 view .LVU8
 370:Drivers/STM32F3xx_HAL_Driver/Src/stm32f3xx_hal_opamp_ex.c ****   uint32_t trimmingvaluep4 = 0U;
  42              		.loc 1 370 3 view .LVU9
 371:Drivers/STM32F3xx_HAL_Driver/Src/stm32f3xx_hal_opamp_ex.c **** 
 372:Drivers/STM32F3xx_HAL_Driver/Src/stm32f3xx_hal_opamp_ex.c ****   uint32_t delta;
  43              		.loc 1 372 3 view .LVU10
 373:Drivers/STM32F3xx_HAL_Driver/Src/stm32f3xx_hal_opamp_ex.c **** 
 374:Drivers/STM32F3xx_HAL_Driver/Src/stm32f3xx_hal_opamp_ex.c ****   if((hopamp1 == NULL) || (hopamp1->State == HAL_OPAMP_STATE_BUSYLOCKED) || \
  44              		.loc 1 374 3 view .LVU11
  45              		.loc 1 374 5 is_stmt 0 view .LVU12
  46 0000 0028     		cmp	r0, #0
  47 0002 00F0BA82 		beq	.L31
 360:Drivers/STM32F3xx_HAL_Driver/Src/stm32f3xx_hal_opamp_ex.c ****   HAL_StatusTypeDef status = HAL_OK;
  48              		.loc 1 360 1 discriminator 1 view .LVU13
  49 0006 2DE9F04F 		push	{r4, r5, r6, r7, r8, r9, r10, fp, lr}
  50              	.LCFI0:
  51              		.cfi_def_cfa_offset 36
  52              		.cfi_offset 4, -36
  53              		.cfi_offset 5, -32
  54              		.cfi_offset 6, -28
  55              		.cfi_offset 7, -24
  56              		.cfi_offset 8, -20
  57              		.cfi_offset 9, -16
  58              		.cfi_offset 10, -12
  59              		.cfi_offset 11, -8
  60              		.cfi_offset 14, -4
  61 000a 87B0     		sub	sp, sp, #28
  62              	.LCFI1:
  63              		.cfi_def_cfa_offset 64
  64 000c 0546     		mov	r5, r0
  65              		.loc 1 374 35 discriminator 1 view .LVU14
  66 000e 90F83200 		ldrb	r0, [r0, #50]	@ zero_extendqisi2
  67              	.LVL1:
  68              		.loc 1 374 35 discriminator 1 view .LVU15
  69 0012 C0B2     		uxtb	r0, r0
  70              		.loc 1 374 24 discriminator 1 view .LVU16
  71 0014 0528     		cmp	r0, #5
  72 0016 00F0B282 		beq	.L32
  73              		.loc 1 374 74 discriminator 2 view .LVU17
  74 001a 0029     		cmp	r1, #0
  75 001c 00F0B382 		beq	.L33
 375:Drivers/STM32F3xx_HAL_Driver/Src/stm32f3xx_hal_opamp_ex.c ****      (hopamp2 == NULL) || (hopamp2->State == HAL_OPAMP_STATE_BUSYLOCKED) || \
  76              		.loc 1 375 35 view .LVU18
  77 0020 91F83200 		ldrb	r0, [r1, #50]	@ zero_extendqisi2
  78 0024 C0B2     		uxtb	r0, r0
  79              		.loc 1 375 24 view .LVU19
  80 0026 0528     		cmp	r0, #5
  81 0028 00F0AF82 		beq	.L34
ARM GAS  /var/folders/_1/sgnj6dm57r56n1x62bwb5w5h0000gn/T//ccvwjkBq.s 			page 9


  82              		.loc 1 375 74 discriminator 1 view .LVU20
  83 002c 002A     		cmp	r2, #0
  84 002e 00F0AE82 		beq	.L35
 376:Drivers/STM32F3xx_HAL_Driver/Src/stm32f3xx_hal_opamp_ex.c ****      (hopamp3 == NULL) || (hopamp3->State == HAL_OPAMP_STATE_BUSYLOCKED) || \
  85              		.loc 1 376 35 view .LVU21
  86 0032 92F83200 		ldrb	r0, [r2, #50]	@ zero_extendqisi2
  87 0036 C0B2     		uxtb	r0, r0
  88              		.loc 1 376 24 view .LVU22
  89 0038 0528     		cmp	r0, #5
  90 003a 00F0AA82 		beq	.L36
  91              		.loc 1 376 74 discriminator 1 view .LVU23
  92 003e 002B     		cmp	r3, #0
  93 0040 00F0A982 		beq	.L37
 377:Drivers/STM32F3xx_HAL_Driver/Src/stm32f3xx_hal_opamp_ex.c ****      (hopamp4 == NULL) || (hopamp4->State == HAL_OPAMP_STATE_BUSYLOCKED)) 
  94              		.loc 1 377 35 view .LVU24
  95 0044 93F83200 		ldrb	r0, [r3, #50]	@ zero_extendqisi2
  96 0048 C0B2     		uxtb	r0, r0
  97              		.loc 1 377 24 view .LVU25
  98 004a 0528     		cmp	r0, #5
  99 004c 00F0A582 		beq	.L38
 378:Drivers/STM32F3xx_HAL_Driver/Src/stm32f3xx_hal_opamp_ex.c ****   {
 379:Drivers/STM32F3xx_HAL_Driver/Src/stm32f3xx_hal_opamp_ex.c ****     status = HAL_ERROR;
 380:Drivers/STM32F3xx_HAL_Driver/Src/stm32f3xx_hal_opamp_ex.c ****   }
 381:Drivers/STM32F3xx_HAL_Driver/Src/stm32f3xx_hal_opamp_ex.c ****  
 382:Drivers/STM32F3xx_HAL_Driver/Src/stm32f3xx_hal_opamp_ex.c ****   if(status == HAL_OK)
 100              		.loc 1 382 3 is_stmt 1 view .LVU26
 383:Drivers/STM32F3xx_HAL_Driver/Src/stm32f3xx_hal_opamp_ex.c ****   {
 384:Drivers/STM32F3xx_HAL_Driver/Src/stm32f3xx_hal_opamp_ex.c ****     /* Check if OPAMP in calibration mode and calibration not yet enable */
 385:Drivers/STM32F3xx_HAL_Driver/Src/stm32f3xx_hal_opamp_ex.c ****     if((hopamp1->State ==  HAL_OPAMP_STATE_READY) && (hopamp2->State ==  HAL_OPAMP_STATE_READY) && 
 101              		.loc 1 385 5 view .LVU27
 102              		.loc 1 385 16 is_stmt 0 view .LVU28
 103 0050 95F83200 		ldrb	r0, [r5, #50]	@ zero_extendqisi2
 104 0054 C0B2     		uxtb	r0, r0
 105              		.loc 1 385 7 view .LVU29
 106 0056 0128     		cmp	r0, #1
 107 0058 01D0     		beq	.L45
 386:Drivers/STM32F3xx_HAL_Driver/Src/stm32f3xx_hal_opamp_ex.c ****        (hopamp3->State ==  HAL_OPAMP_STATE_READY) && (hopamp4->State ==  HAL_OPAMP_STATE_READY))
 387:Drivers/STM32F3xx_HAL_Driver/Src/stm32f3xx_hal_opamp_ex.c ****     {
 388:Drivers/STM32F3xx_HAL_Driver/Src/stm32f3xx_hal_opamp_ex.c ****       /* Check the parameter */
 389:Drivers/STM32F3xx_HAL_Driver/Src/stm32f3xx_hal_opamp_ex.c ****       assert_param(IS_OPAMP_ALL_INSTANCE(hopamp1->Instance));
 390:Drivers/STM32F3xx_HAL_Driver/Src/stm32f3xx_hal_opamp_ex.c ****       assert_param(IS_OPAMP_ALL_INSTANCE(hopamp2->Instance));
 391:Drivers/STM32F3xx_HAL_Driver/Src/stm32f3xx_hal_opamp_ex.c ****       assert_param(IS_OPAMP_ALL_INSTANCE(hopamp3->Instance));
 392:Drivers/STM32F3xx_HAL_Driver/Src/stm32f3xx_hal_opamp_ex.c ****       assert_param(IS_OPAMP_ALL_INSTANCE(hopamp4->Instance));
 393:Drivers/STM32F3xx_HAL_Driver/Src/stm32f3xx_hal_opamp_ex.c **** 
 394:Drivers/STM32F3xx_HAL_Driver/Src/stm32f3xx_hal_opamp_ex.c ****       /* Set Calibration mode */
 395:Drivers/STM32F3xx_HAL_Driver/Src/stm32f3xx_hal_opamp_ex.c ****       /* Non-inverting input connected to calibration reference voltage. */
 396:Drivers/STM32F3xx_HAL_Driver/Src/stm32f3xx_hal_opamp_ex.c ****       SET_BIT(hopamp1->Instance->CSR, OPAMP_CSR_FORCEVP);
 397:Drivers/STM32F3xx_HAL_Driver/Src/stm32f3xx_hal_opamp_ex.c ****       SET_BIT(hopamp2->Instance->CSR, OPAMP_CSR_FORCEVP);
 398:Drivers/STM32F3xx_HAL_Driver/Src/stm32f3xx_hal_opamp_ex.c ****       SET_BIT(hopamp3->Instance->CSR, OPAMP_CSR_FORCEVP);
 399:Drivers/STM32F3xx_HAL_Driver/Src/stm32f3xx_hal_opamp_ex.c ****       SET_BIT(hopamp4->Instance->CSR, OPAMP_CSR_FORCEVP);
 400:Drivers/STM32F3xx_HAL_Driver/Src/stm32f3xx_hal_opamp_ex.c ****       
 401:Drivers/STM32F3xx_HAL_Driver/Src/stm32f3xx_hal_opamp_ex.c ****       /*  user trimming values are used for offset calibration */
 402:Drivers/STM32F3xx_HAL_Driver/Src/stm32f3xx_hal_opamp_ex.c ****       SET_BIT(hopamp1->Instance->CSR, OPAMP_CSR_USERTRIM);
 403:Drivers/STM32F3xx_HAL_Driver/Src/stm32f3xx_hal_opamp_ex.c ****       SET_BIT(hopamp2->Instance->CSR, OPAMP_CSR_USERTRIM);
 404:Drivers/STM32F3xx_HAL_Driver/Src/stm32f3xx_hal_opamp_ex.c ****       SET_BIT(hopamp3->Instance->CSR, OPAMP_CSR_USERTRIM);
 405:Drivers/STM32F3xx_HAL_Driver/Src/stm32f3xx_hal_opamp_ex.c ****       SET_BIT(hopamp4->Instance->CSR, OPAMP_CSR_USERTRIM);
 406:Drivers/STM32F3xx_HAL_Driver/Src/stm32f3xx_hal_opamp_ex.c ****       
ARM GAS  /var/folders/_1/sgnj6dm57r56n1x62bwb5w5h0000gn/T//ccvwjkBq.s 			page 10


 407:Drivers/STM32F3xx_HAL_Driver/Src/stm32f3xx_hal_opamp_ex.c ****       /* Enable calibration */
 408:Drivers/STM32F3xx_HAL_Driver/Src/stm32f3xx_hal_opamp_ex.c ****       SET_BIT (hopamp1->Instance->CSR, OPAMP_CSR_CALON);
 409:Drivers/STM32F3xx_HAL_Driver/Src/stm32f3xx_hal_opamp_ex.c ****       SET_BIT (hopamp2->Instance->CSR, OPAMP_CSR_CALON);
 410:Drivers/STM32F3xx_HAL_Driver/Src/stm32f3xx_hal_opamp_ex.c ****       SET_BIT (hopamp3->Instance->CSR, OPAMP_CSR_CALON);
 411:Drivers/STM32F3xx_HAL_Driver/Src/stm32f3xx_hal_opamp_ex.c ****       SET_BIT (hopamp4->Instance->CSR, OPAMP_CSR_CALON);
 412:Drivers/STM32F3xx_HAL_Driver/Src/stm32f3xx_hal_opamp_ex.c ****       
 413:Drivers/STM32F3xx_HAL_Driver/Src/stm32f3xx_hal_opamp_ex.c ****       /* 1st calibration - N */
 414:Drivers/STM32F3xx_HAL_Driver/Src/stm32f3xx_hal_opamp_ex.c ****       /* Select 90U% VREF */
 415:Drivers/STM32F3xx_HAL_Driver/Src/stm32f3xx_hal_opamp_ex.c ****       MODIFY_REG(hopamp1->Instance->CSR, OPAMP_CSR_CALSEL, OPAMP_VREF_90VDDA);
 416:Drivers/STM32F3xx_HAL_Driver/Src/stm32f3xx_hal_opamp_ex.c ****       MODIFY_REG(hopamp2->Instance->CSR, OPAMP_CSR_CALSEL, OPAMP_VREF_90VDDA);
 417:Drivers/STM32F3xx_HAL_Driver/Src/stm32f3xx_hal_opamp_ex.c ****       MODIFY_REG(hopamp3->Instance->CSR, OPAMP_CSR_CALSEL, OPAMP_VREF_90VDDA);
 418:Drivers/STM32F3xx_HAL_Driver/Src/stm32f3xx_hal_opamp_ex.c ****       MODIFY_REG(hopamp4->Instance->CSR, OPAMP_CSR_CALSEL, OPAMP_VREF_90VDDA);
 419:Drivers/STM32F3xx_HAL_Driver/Src/stm32f3xx_hal_opamp_ex.c ****       
 420:Drivers/STM32F3xx_HAL_Driver/Src/stm32f3xx_hal_opamp_ex.c ****       /* Enable the opamps */
 421:Drivers/STM32F3xx_HAL_Driver/Src/stm32f3xx_hal_opamp_ex.c ****       SET_BIT (hopamp1->Instance->CSR, OPAMP_CSR_OPAMPxEN);
 422:Drivers/STM32F3xx_HAL_Driver/Src/stm32f3xx_hal_opamp_ex.c ****       SET_BIT (hopamp2->Instance->CSR, OPAMP_CSR_OPAMPxEN);
 423:Drivers/STM32F3xx_HAL_Driver/Src/stm32f3xx_hal_opamp_ex.c ****       SET_BIT (hopamp3->Instance->CSR, OPAMP_CSR_OPAMPxEN);
 424:Drivers/STM32F3xx_HAL_Driver/Src/stm32f3xx_hal_opamp_ex.c ****       SET_BIT (hopamp4->Instance->CSR, OPAMP_CSR_OPAMPxEN);
 425:Drivers/STM32F3xx_HAL_Driver/Src/stm32f3xx_hal_opamp_ex.c ****       
 426:Drivers/STM32F3xx_HAL_Driver/Src/stm32f3xx_hal_opamp_ex.c ****       /* Init trimming counter */    
 427:Drivers/STM32F3xx_HAL_Driver/Src/stm32f3xx_hal_opamp_ex.c ****       /* Medium value */
 428:Drivers/STM32F3xx_HAL_Driver/Src/stm32f3xx_hal_opamp_ex.c ****       trimmingvaluen1 = 16U; 
 429:Drivers/STM32F3xx_HAL_Driver/Src/stm32f3xx_hal_opamp_ex.c ****       trimmingvaluen2 = 16U; 
 430:Drivers/STM32F3xx_HAL_Driver/Src/stm32f3xx_hal_opamp_ex.c ****       trimmingvaluen3 = 16U; 
 431:Drivers/STM32F3xx_HAL_Driver/Src/stm32f3xx_hal_opamp_ex.c ****       trimmingvaluen4 = 16U; 
 432:Drivers/STM32F3xx_HAL_Driver/Src/stm32f3xx_hal_opamp_ex.c ****       delta = 8U; 
 433:Drivers/STM32F3xx_HAL_Driver/Src/stm32f3xx_hal_opamp_ex.c ****     
 434:Drivers/STM32F3xx_HAL_Driver/Src/stm32f3xx_hal_opamp_ex.c ****       while (delta != 0U)
 435:Drivers/STM32F3xx_HAL_Driver/Src/stm32f3xx_hal_opamp_ex.c ****       {
 436:Drivers/STM32F3xx_HAL_Driver/Src/stm32f3xx_hal_opamp_ex.c ****         /* Set candidate trimming */
 437:Drivers/STM32F3xx_HAL_Driver/Src/stm32f3xx_hal_opamp_ex.c ****         MODIFY_REG(hopamp1->Instance->CSR, OPAMP_CSR_TRIMOFFSETN, trimmingvaluen1<<OPAMP_INPUT_INVE
 438:Drivers/STM32F3xx_HAL_Driver/Src/stm32f3xx_hal_opamp_ex.c ****         MODIFY_REG(hopamp2->Instance->CSR, OPAMP_CSR_TRIMOFFSETN, trimmingvaluen2<<OPAMP_INPUT_INVE
 439:Drivers/STM32F3xx_HAL_Driver/Src/stm32f3xx_hal_opamp_ex.c ****         MODIFY_REG(hopamp3->Instance->CSR, OPAMP_CSR_TRIMOFFSETN, trimmingvaluen3<<OPAMP_INPUT_INVE
 440:Drivers/STM32F3xx_HAL_Driver/Src/stm32f3xx_hal_opamp_ex.c ****         MODIFY_REG(hopamp4->Instance->CSR, OPAMP_CSR_TRIMOFFSETN, trimmingvaluen4<<OPAMP_INPUT_INVE
 441:Drivers/STM32F3xx_HAL_Driver/Src/stm32f3xx_hal_opamp_ex.c ****               
 442:Drivers/STM32F3xx_HAL_Driver/Src/stm32f3xx_hal_opamp_ex.c ****         /* OFFTRIMmax delay 2 ms as per datasheet (electrical characteristics */ 
 443:Drivers/STM32F3xx_HAL_Driver/Src/stm32f3xx_hal_opamp_ex.c ****         /* Offset trim time: during calibration, minimum time needed between */
 444:Drivers/STM32F3xx_HAL_Driver/Src/stm32f3xx_hal_opamp_ex.c ****         /* two steps to have 1 mV accuracy */
 445:Drivers/STM32F3xx_HAL_Driver/Src/stm32f3xx_hal_opamp_ex.c ****         HAL_Delay(2U);
 446:Drivers/STM32F3xx_HAL_Driver/Src/stm32f3xx_hal_opamp_ex.c **** 
 447:Drivers/STM32F3xx_HAL_Driver/Src/stm32f3xx_hal_opamp_ex.c ****         if ((hopamp1->Instance->CSR & OPAMP_CSR_OUTCAL) != RESET) 
 448:Drivers/STM32F3xx_HAL_Driver/Src/stm32f3xx_hal_opamp_ex.c ****         { 
 449:Drivers/STM32F3xx_HAL_Driver/Src/stm32f3xx_hal_opamp_ex.c ****           /* OPAMP_CSR_OUTCAL is HIGH try higher trimming */
 450:Drivers/STM32F3xx_HAL_Driver/Src/stm32f3xx_hal_opamp_ex.c ****           trimmingvaluen1 += delta;
 451:Drivers/STM32F3xx_HAL_Driver/Src/stm32f3xx_hal_opamp_ex.c ****         }
 452:Drivers/STM32F3xx_HAL_Driver/Src/stm32f3xx_hal_opamp_ex.c ****         else
 453:Drivers/STM32F3xx_HAL_Driver/Src/stm32f3xx_hal_opamp_ex.c ****         {
 454:Drivers/STM32F3xx_HAL_Driver/Src/stm32f3xx_hal_opamp_ex.c ****           /* OPAMP_CSR_OUTCAL is LOW try lower trimming */
 455:Drivers/STM32F3xx_HAL_Driver/Src/stm32f3xx_hal_opamp_ex.c ****           trimmingvaluen1 -= delta;
 456:Drivers/STM32F3xx_HAL_Driver/Src/stm32f3xx_hal_opamp_ex.c ****         }
 457:Drivers/STM32F3xx_HAL_Driver/Src/stm32f3xx_hal_opamp_ex.c **** 
 458:Drivers/STM32F3xx_HAL_Driver/Src/stm32f3xx_hal_opamp_ex.c ****         if ((hopamp2->Instance->CSR & OPAMP_CSR_OUTCAL) != RESET) 
 459:Drivers/STM32F3xx_HAL_Driver/Src/stm32f3xx_hal_opamp_ex.c ****         { 
 460:Drivers/STM32F3xx_HAL_Driver/Src/stm32f3xx_hal_opamp_ex.c ****           /* OPAMP_CSR_OUTCAL is HIGH try higher trimming */
 461:Drivers/STM32F3xx_HAL_Driver/Src/stm32f3xx_hal_opamp_ex.c ****           trimmingvaluen2 += delta;
 462:Drivers/STM32F3xx_HAL_Driver/Src/stm32f3xx_hal_opamp_ex.c ****         }
 463:Drivers/STM32F3xx_HAL_Driver/Src/stm32f3xx_hal_opamp_ex.c ****         else
ARM GAS  /var/folders/_1/sgnj6dm57r56n1x62bwb5w5h0000gn/T//ccvwjkBq.s 			page 11


 464:Drivers/STM32F3xx_HAL_Driver/Src/stm32f3xx_hal_opamp_ex.c ****         {
 465:Drivers/STM32F3xx_HAL_Driver/Src/stm32f3xx_hal_opamp_ex.c ****           /* OPAMP_CSR_OUTCAL is LOW try lower trimming */
 466:Drivers/STM32F3xx_HAL_Driver/Src/stm32f3xx_hal_opamp_ex.c ****           trimmingvaluen2 -= delta;
 467:Drivers/STM32F3xx_HAL_Driver/Src/stm32f3xx_hal_opamp_ex.c ****         }
 468:Drivers/STM32F3xx_HAL_Driver/Src/stm32f3xx_hal_opamp_ex.c **** 
 469:Drivers/STM32F3xx_HAL_Driver/Src/stm32f3xx_hal_opamp_ex.c ****         if ((hopamp3->Instance->CSR & OPAMP_CSR_OUTCAL) != RESET) 
 470:Drivers/STM32F3xx_HAL_Driver/Src/stm32f3xx_hal_opamp_ex.c ****         { 
 471:Drivers/STM32F3xx_HAL_Driver/Src/stm32f3xx_hal_opamp_ex.c ****           /* OPAMP_CSR_OUTCAL is HIGH try higher trimming */
 472:Drivers/STM32F3xx_HAL_Driver/Src/stm32f3xx_hal_opamp_ex.c ****           trimmingvaluen3 += delta;
 473:Drivers/STM32F3xx_HAL_Driver/Src/stm32f3xx_hal_opamp_ex.c ****         }
 474:Drivers/STM32F3xx_HAL_Driver/Src/stm32f3xx_hal_opamp_ex.c ****         else
 475:Drivers/STM32F3xx_HAL_Driver/Src/stm32f3xx_hal_opamp_ex.c ****         {
 476:Drivers/STM32F3xx_HAL_Driver/Src/stm32f3xx_hal_opamp_ex.c ****           /* OPAMP_CSR_OUTCAL is LOW try lower trimming */
 477:Drivers/STM32F3xx_HAL_Driver/Src/stm32f3xx_hal_opamp_ex.c ****           trimmingvaluen3 -= delta;
 478:Drivers/STM32F3xx_HAL_Driver/Src/stm32f3xx_hal_opamp_ex.c ****         }
 479:Drivers/STM32F3xx_HAL_Driver/Src/stm32f3xx_hal_opamp_ex.c **** 
 480:Drivers/STM32F3xx_HAL_Driver/Src/stm32f3xx_hal_opamp_ex.c ****         if ((hopamp4->Instance->CSR & OPAMP_CSR_OUTCAL) != RESET) 
 481:Drivers/STM32F3xx_HAL_Driver/Src/stm32f3xx_hal_opamp_ex.c ****         { 
 482:Drivers/STM32F3xx_HAL_Driver/Src/stm32f3xx_hal_opamp_ex.c ****           /* OPAMP_CSR_OUTCAL is HIGH try higher trimming */
 483:Drivers/STM32F3xx_HAL_Driver/Src/stm32f3xx_hal_opamp_ex.c ****           trimmingvaluen4 += delta;
 484:Drivers/STM32F3xx_HAL_Driver/Src/stm32f3xx_hal_opamp_ex.c ****         }
 485:Drivers/STM32F3xx_HAL_Driver/Src/stm32f3xx_hal_opamp_ex.c ****         else
 486:Drivers/STM32F3xx_HAL_Driver/Src/stm32f3xx_hal_opamp_ex.c ****         {
 487:Drivers/STM32F3xx_HAL_Driver/Src/stm32f3xx_hal_opamp_ex.c ****           /* OPAMP_CSR_OUTCAL is LOW try lower trimming */
 488:Drivers/STM32F3xx_HAL_Driver/Src/stm32f3xx_hal_opamp_ex.c ****           trimmingvaluen4 -= delta;
 489:Drivers/STM32F3xx_HAL_Driver/Src/stm32f3xx_hal_opamp_ex.c ****         }
 490:Drivers/STM32F3xx_HAL_Driver/Src/stm32f3xx_hal_opamp_ex.c ****                       
 491:Drivers/STM32F3xx_HAL_Driver/Src/stm32f3xx_hal_opamp_ex.c ****         delta >>= 1U;
 492:Drivers/STM32F3xx_HAL_Driver/Src/stm32f3xx_hal_opamp_ex.c ****       }
 493:Drivers/STM32F3xx_HAL_Driver/Src/stm32f3xx_hal_opamp_ex.c **** 
 494:Drivers/STM32F3xx_HAL_Driver/Src/stm32f3xx_hal_opamp_ex.c ****       /* Still need to check if righ calibration is current value or un step below */
 495:Drivers/STM32F3xx_HAL_Driver/Src/stm32f3xx_hal_opamp_ex.c ****       /* Indeed the first value that causes the OUTCAL bit to change from 1 to 0U */
 496:Drivers/STM32F3xx_HAL_Driver/Src/stm32f3xx_hal_opamp_ex.c ****       MODIFY_REG(hopamp1->Instance->CSR, OPAMP_CSR_TRIMOFFSETN, trimmingvaluen1<<OPAMP_INPUT_INVERT
 497:Drivers/STM32F3xx_HAL_Driver/Src/stm32f3xx_hal_opamp_ex.c ****       MODIFY_REG(hopamp2->Instance->CSR, OPAMP_CSR_TRIMOFFSETN, trimmingvaluen2<<OPAMP_INPUT_INVERT
 498:Drivers/STM32F3xx_HAL_Driver/Src/stm32f3xx_hal_opamp_ex.c ****       MODIFY_REG(hopamp3->Instance->CSR, OPAMP_CSR_TRIMOFFSETN, trimmingvaluen3<<OPAMP_INPUT_INVERT
 499:Drivers/STM32F3xx_HAL_Driver/Src/stm32f3xx_hal_opamp_ex.c ****       MODIFY_REG(hopamp4->Instance->CSR, OPAMP_CSR_TRIMOFFSETN, trimmingvaluen4<<OPAMP_INPUT_INVERT
 500:Drivers/STM32F3xx_HAL_Driver/Src/stm32f3xx_hal_opamp_ex.c ****       
 501:Drivers/STM32F3xx_HAL_Driver/Src/stm32f3xx_hal_opamp_ex.c ****       /* OFFTRIMmax delay 2 ms as per datasheet (electrical characteristics */ 
 502:Drivers/STM32F3xx_HAL_Driver/Src/stm32f3xx_hal_opamp_ex.c ****       /* Offset trim time: during calibration, minimum time needed between */
 503:Drivers/STM32F3xx_HAL_Driver/Src/stm32f3xx_hal_opamp_ex.c ****       /* two steps to have 1 mV accuracy */
 504:Drivers/STM32F3xx_HAL_Driver/Src/stm32f3xx_hal_opamp_ex.c ****       HAL_Delay(2U);
 505:Drivers/STM32F3xx_HAL_Driver/Src/stm32f3xx_hal_opamp_ex.c ****       
 506:Drivers/STM32F3xx_HAL_Driver/Src/stm32f3xx_hal_opamp_ex.c ****       if ((hopamp1->Instance->CSR & OPAMP_CSR_OUTCAL) != RESET) 
 507:Drivers/STM32F3xx_HAL_Driver/Src/stm32f3xx_hal_opamp_ex.c ****       { 
 508:Drivers/STM32F3xx_HAL_Driver/Src/stm32f3xx_hal_opamp_ex.c ****         /* OPAMP_CSR_OUTCAL is actually one value more */
 509:Drivers/STM32F3xx_HAL_Driver/Src/stm32f3xx_hal_opamp_ex.c ****         trimmingvaluen1++;
 510:Drivers/STM32F3xx_HAL_Driver/Src/stm32f3xx_hal_opamp_ex.c ****         /* Set right trimming */
 511:Drivers/STM32F3xx_HAL_Driver/Src/stm32f3xx_hal_opamp_ex.c ****         MODIFY_REG(hopamp1->Instance->CSR, OPAMP_CSR_TRIMOFFSETN, trimmingvaluen1<<OPAMP_INPUT_INVE
 512:Drivers/STM32F3xx_HAL_Driver/Src/stm32f3xx_hal_opamp_ex.c ****       }
 513:Drivers/STM32F3xx_HAL_Driver/Src/stm32f3xx_hal_opamp_ex.c **** 
 514:Drivers/STM32F3xx_HAL_Driver/Src/stm32f3xx_hal_opamp_ex.c ****       if ((hopamp2->Instance->CSR & OPAMP_CSR_OUTCAL) != RESET) 
 515:Drivers/STM32F3xx_HAL_Driver/Src/stm32f3xx_hal_opamp_ex.c ****       { 
 516:Drivers/STM32F3xx_HAL_Driver/Src/stm32f3xx_hal_opamp_ex.c ****         /* OPAMP_CSR_OUTCAL is actually one value more */
 517:Drivers/STM32F3xx_HAL_Driver/Src/stm32f3xx_hal_opamp_ex.c ****         trimmingvaluen2++;
 518:Drivers/STM32F3xx_HAL_Driver/Src/stm32f3xx_hal_opamp_ex.c ****         /* Set right trimming */
 519:Drivers/STM32F3xx_HAL_Driver/Src/stm32f3xx_hal_opamp_ex.c ****         MODIFY_REG(hopamp2->Instance->CSR, OPAMP_CSR_TRIMOFFSETN, trimmingvaluen2<<OPAMP_INPUT_INVE
 520:Drivers/STM32F3xx_HAL_Driver/Src/stm32f3xx_hal_opamp_ex.c ****       }
ARM GAS  /var/folders/_1/sgnj6dm57r56n1x62bwb5w5h0000gn/T//ccvwjkBq.s 			page 12


 521:Drivers/STM32F3xx_HAL_Driver/Src/stm32f3xx_hal_opamp_ex.c **** 
 522:Drivers/STM32F3xx_HAL_Driver/Src/stm32f3xx_hal_opamp_ex.c ****       if ((hopamp3->Instance->CSR & OPAMP_CSR_OUTCAL) != RESET) 
 523:Drivers/STM32F3xx_HAL_Driver/Src/stm32f3xx_hal_opamp_ex.c ****       { 
 524:Drivers/STM32F3xx_HAL_Driver/Src/stm32f3xx_hal_opamp_ex.c ****         /* OPAMP_CSR_OUTCAL is actually one value more */
 525:Drivers/STM32F3xx_HAL_Driver/Src/stm32f3xx_hal_opamp_ex.c ****         trimmingvaluen3++;
 526:Drivers/STM32F3xx_HAL_Driver/Src/stm32f3xx_hal_opamp_ex.c ****         /* Set right trimming */
 527:Drivers/STM32F3xx_HAL_Driver/Src/stm32f3xx_hal_opamp_ex.c ****         MODIFY_REG(hopamp3->Instance->CSR, OPAMP_CSR_TRIMOFFSETN, trimmingvaluen3<<OPAMP_INPUT_INVE
 528:Drivers/STM32F3xx_HAL_Driver/Src/stm32f3xx_hal_opamp_ex.c ****       }
 529:Drivers/STM32F3xx_HAL_Driver/Src/stm32f3xx_hal_opamp_ex.c **** 
 530:Drivers/STM32F3xx_HAL_Driver/Src/stm32f3xx_hal_opamp_ex.c ****       if ((hopamp4->Instance->CSR & OPAMP_CSR_OUTCAL) != RESET) 
 531:Drivers/STM32F3xx_HAL_Driver/Src/stm32f3xx_hal_opamp_ex.c ****       { 
 532:Drivers/STM32F3xx_HAL_Driver/Src/stm32f3xx_hal_opamp_ex.c ****         /* OPAMP_CSR_OUTCAL is actually one value more */
 533:Drivers/STM32F3xx_HAL_Driver/Src/stm32f3xx_hal_opamp_ex.c ****         trimmingvaluen4++;
 534:Drivers/STM32F3xx_HAL_Driver/Src/stm32f3xx_hal_opamp_ex.c ****         /* Set right trimming */
 535:Drivers/STM32F3xx_HAL_Driver/Src/stm32f3xx_hal_opamp_ex.c ****         MODIFY_REG(hopamp4->Instance->CSR, OPAMP_CSR_TRIMOFFSETN, trimmingvaluen4<<OPAMP_INPUT_INVE
 536:Drivers/STM32F3xx_HAL_Driver/Src/stm32f3xx_hal_opamp_ex.c ****       }
 537:Drivers/STM32F3xx_HAL_Driver/Src/stm32f3xx_hal_opamp_ex.c ****             
 538:Drivers/STM32F3xx_HAL_Driver/Src/stm32f3xx_hal_opamp_ex.c ****       /* 2nd calibration - P */
 539:Drivers/STM32F3xx_HAL_Driver/Src/stm32f3xx_hal_opamp_ex.c ****       /* Select 10U% VREF */
 540:Drivers/STM32F3xx_HAL_Driver/Src/stm32f3xx_hal_opamp_ex.c ****       MODIFY_REG(hopamp1->Instance->CSR, OPAMP_CSR_CALSEL, OPAMP_VREF_10VDDA);
 541:Drivers/STM32F3xx_HAL_Driver/Src/stm32f3xx_hal_opamp_ex.c ****       MODIFY_REG(hopamp2->Instance->CSR, OPAMP_CSR_CALSEL, OPAMP_VREF_10VDDA);
 542:Drivers/STM32F3xx_HAL_Driver/Src/stm32f3xx_hal_opamp_ex.c ****       MODIFY_REG(hopamp3->Instance->CSR, OPAMP_CSR_CALSEL, OPAMP_VREF_10VDDA);
 543:Drivers/STM32F3xx_HAL_Driver/Src/stm32f3xx_hal_opamp_ex.c ****       MODIFY_REG(hopamp4->Instance->CSR, OPAMP_CSR_CALSEL, OPAMP_VREF_10VDDA);
 544:Drivers/STM32F3xx_HAL_Driver/Src/stm32f3xx_hal_opamp_ex.c ****       
 545:Drivers/STM32F3xx_HAL_Driver/Src/stm32f3xx_hal_opamp_ex.c ****       /* Init trimming counter */    
 546:Drivers/STM32F3xx_HAL_Driver/Src/stm32f3xx_hal_opamp_ex.c ****       /* Medium value */
 547:Drivers/STM32F3xx_HAL_Driver/Src/stm32f3xx_hal_opamp_ex.c ****       trimmingvaluep1 = 16U; 
 548:Drivers/STM32F3xx_HAL_Driver/Src/stm32f3xx_hal_opamp_ex.c ****       trimmingvaluep2 = 16U; 
 549:Drivers/STM32F3xx_HAL_Driver/Src/stm32f3xx_hal_opamp_ex.c ****       trimmingvaluep3 = 16U; 
 550:Drivers/STM32F3xx_HAL_Driver/Src/stm32f3xx_hal_opamp_ex.c ****       trimmingvaluep4 = 16U; 
 551:Drivers/STM32F3xx_HAL_Driver/Src/stm32f3xx_hal_opamp_ex.c ****       
 552:Drivers/STM32F3xx_HAL_Driver/Src/stm32f3xx_hal_opamp_ex.c ****       delta = 8U;
 553:Drivers/STM32F3xx_HAL_Driver/Src/stm32f3xx_hal_opamp_ex.c ****       
 554:Drivers/STM32F3xx_HAL_Driver/Src/stm32f3xx_hal_opamp_ex.c ****       while (delta != 0U)
 555:Drivers/STM32F3xx_HAL_Driver/Src/stm32f3xx_hal_opamp_ex.c ****       {
 556:Drivers/STM32F3xx_HAL_Driver/Src/stm32f3xx_hal_opamp_ex.c ****         /* Set candidate trimming */
 557:Drivers/STM32F3xx_HAL_Driver/Src/stm32f3xx_hal_opamp_ex.c ****         MODIFY_REG(hopamp1->Instance->CSR, OPAMP_CSR_TRIMOFFSETP, trimmingvaluep1<<OPAMP_INPUT_NONI
 558:Drivers/STM32F3xx_HAL_Driver/Src/stm32f3xx_hal_opamp_ex.c ****         MODIFY_REG(hopamp2->Instance->CSR, OPAMP_CSR_TRIMOFFSETP, trimmingvaluep2<<OPAMP_INPUT_NONI
 559:Drivers/STM32F3xx_HAL_Driver/Src/stm32f3xx_hal_opamp_ex.c ****         MODIFY_REG(hopamp3->Instance->CSR, OPAMP_CSR_TRIMOFFSETP, trimmingvaluep3<<OPAMP_INPUT_NONI
 560:Drivers/STM32F3xx_HAL_Driver/Src/stm32f3xx_hal_opamp_ex.c ****         MODIFY_REG(hopamp4->Instance->CSR, OPAMP_CSR_TRIMOFFSETP, trimmingvaluep4<<OPAMP_INPUT_NONI
 561:Drivers/STM32F3xx_HAL_Driver/Src/stm32f3xx_hal_opamp_ex.c ****                
 562:Drivers/STM32F3xx_HAL_Driver/Src/stm32f3xx_hal_opamp_ex.c ****         /* OFFTRIMmax delay 2 ms as per datasheet (electrical characteristics */ 
 563:Drivers/STM32F3xx_HAL_Driver/Src/stm32f3xx_hal_opamp_ex.c ****         /* Offset trim time: during calibration, minimum time needed between */
 564:Drivers/STM32F3xx_HAL_Driver/Src/stm32f3xx_hal_opamp_ex.c ****         /* two steps to have 1 mV accuracy */
 565:Drivers/STM32F3xx_HAL_Driver/Src/stm32f3xx_hal_opamp_ex.c ****         HAL_Delay(2U);
 566:Drivers/STM32F3xx_HAL_Driver/Src/stm32f3xx_hal_opamp_ex.c **** 
 567:Drivers/STM32F3xx_HAL_Driver/Src/stm32f3xx_hal_opamp_ex.c ****         if ((hopamp1->Instance->CSR & OPAMP_CSR_OUTCAL) != RESET) 
 568:Drivers/STM32F3xx_HAL_Driver/Src/stm32f3xx_hal_opamp_ex.c ****         { 
 569:Drivers/STM32F3xx_HAL_Driver/Src/stm32f3xx_hal_opamp_ex.c ****           /* OPAMP_CSR_OUTCAL is HIGH try higher trimming */
 570:Drivers/STM32F3xx_HAL_Driver/Src/stm32f3xx_hal_opamp_ex.c ****           trimmingvaluep1 += delta;
 571:Drivers/STM32F3xx_HAL_Driver/Src/stm32f3xx_hal_opamp_ex.c ****         }
 572:Drivers/STM32F3xx_HAL_Driver/Src/stm32f3xx_hal_opamp_ex.c ****         else
 573:Drivers/STM32F3xx_HAL_Driver/Src/stm32f3xx_hal_opamp_ex.c ****         {
 574:Drivers/STM32F3xx_HAL_Driver/Src/stm32f3xx_hal_opamp_ex.c ****           trimmingvaluep1 -= delta;
 575:Drivers/STM32F3xx_HAL_Driver/Src/stm32f3xx_hal_opamp_ex.c ****         }
 576:Drivers/STM32F3xx_HAL_Driver/Src/stm32f3xx_hal_opamp_ex.c ****          
 577:Drivers/STM32F3xx_HAL_Driver/Src/stm32f3xx_hal_opamp_ex.c ****         if ((hopamp2->Instance->CSR & OPAMP_CSR_OUTCAL) != RESET) 
ARM GAS  /var/folders/_1/sgnj6dm57r56n1x62bwb5w5h0000gn/T//ccvwjkBq.s 			page 13


 578:Drivers/STM32F3xx_HAL_Driver/Src/stm32f3xx_hal_opamp_ex.c ****         { 
 579:Drivers/STM32F3xx_HAL_Driver/Src/stm32f3xx_hal_opamp_ex.c ****           /* OPAMP_CSR_OUTCAL is HIGH try higher trimming */
 580:Drivers/STM32F3xx_HAL_Driver/Src/stm32f3xx_hal_opamp_ex.c ****           trimmingvaluep2 += delta;
 581:Drivers/STM32F3xx_HAL_Driver/Src/stm32f3xx_hal_opamp_ex.c ****         }
 582:Drivers/STM32F3xx_HAL_Driver/Src/stm32f3xx_hal_opamp_ex.c ****         else
 583:Drivers/STM32F3xx_HAL_Driver/Src/stm32f3xx_hal_opamp_ex.c ****         {
 584:Drivers/STM32F3xx_HAL_Driver/Src/stm32f3xx_hal_opamp_ex.c ****           trimmingvaluep2 -= delta;
 585:Drivers/STM32F3xx_HAL_Driver/Src/stm32f3xx_hal_opamp_ex.c ****         }
 586:Drivers/STM32F3xx_HAL_Driver/Src/stm32f3xx_hal_opamp_ex.c **** 
 587:Drivers/STM32F3xx_HAL_Driver/Src/stm32f3xx_hal_opamp_ex.c ****         if ((hopamp3->Instance->CSR & OPAMP_CSR_OUTCAL) != RESET) 
 588:Drivers/STM32F3xx_HAL_Driver/Src/stm32f3xx_hal_opamp_ex.c ****         { 
 589:Drivers/STM32F3xx_HAL_Driver/Src/stm32f3xx_hal_opamp_ex.c ****           /* OPAMP_CSR_OUTCAL is HIGH try higher trimming */
 590:Drivers/STM32F3xx_HAL_Driver/Src/stm32f3xx_hal_opamp_ex.c ****           trimmingvaluep3 += delta;
 591:Drivers/STM32F3xx_HAL_Driver/Src/stm32f3xx_hal_opamp_ex.c ****         }
 592:Drivers/STM32F3xx_HAL_Driver/Src/stm32f3xx_hal_opamp_ex.c ****         else
 593:Drivers/STM32F3xx_HAL_Driver/Src/stm32f3xx_hal_opamp_ex.c ****         {
 594:Drivers/STM32F3xx_HAL_Driver/Src/stm32f3xx_hal_opamp_ex.c ****           trimmingvaluep3 -= delta;
 595:Drivers/STM32F3xx_HAL_Driver/Src/stm32f3xx_hal_opamp_ex.c ****         }
 596:Drivers/STM32F3xx_HAL_Driver/Src/stm32f3xx_hal_opamp_ex.c **** 
 597:Drivers/STM32F3xx_HAL_Driver/Src/stm32f3xx_hal_opamp_ex.c ****         if ((hopamp4->Instance->CSR & OPAMP_CSR_OUTCAL) != RESET) 
 598:Drivers/STM32F3xx_HAL_Driver/Src/stm32f3xx_hal_opamp_ex.c ****         { 
 599:Drivers/STM32F3xx_HAL_Driver/Src/stm32f3xx_hal_opamp_ex.c ****           /* OPAMP_CSR_OUTCAL is HIGH try higher trimming */
 600:Drivers/STM32F3xx_HAL_Driver/Src/stm32f3xx_hal_opamp_ex.c ****           trimmingvaluep4 += delta;
 601:Drivers/STM32F3xx_HAL_Driver/Src/stm32f3xx_hal_opamp_ex.c ****         }
 602:Drivers/STM32F3xx_HAL_Driver/Src/stm32f3xx_hal_opamp_ex.c ****         else
 603:Drivers/STM32F3xx_HAL_Driver/Src/stm32f3xx_hal_opamp_ex.c ****         {
 604:Drivers/STM32F3xx_HAL_Driver/Src/stm32f3xx_hal_opamp_ex.c ****           trimmingvaluep4 -= delta;
 605:Drivers/STM32F3xx_HAL_Driver/Src/stm32f3xx_hal_opamp_ex.c ****         }
 606:Drivers/STM32F3xx_HAL_Driver/Src/stm32f3xx_hal_opamp_ex.c ****                      
 607:Drivers/STM32F3xx_HAL_Driver/Src/stm32f3xx_hal_opamp_ex.c ****         delta >>= 1U;
 608:Drivers/STM32F3xx_HAL_Driver/Src/stm32f3xx_hal_opamp_ex.c ****       }
 609:Drivers/STM32F3xx_HAL_Driver/Src/stm32f3xx_hal_opamp_ex.c ****       
 610:Drivers/STM32F3xx_HAL_Driver/Src/stm32f3xx_hal_opamp_ex.c ****       /* Still need to check if righ calibration is current value or un step below */
 611:Drivers/STM32F3xx_HAL_Driver/Src/stm32f3xx_hal_opamp_ex.c ****       /* Indeed the first value that causes the OUTCAL bit to change from 1 to 0U */
 612:Drivers/STM32F3xx_HAL_Driver/Src/stm32f3xx_hal_opamp_ex.c ****       /* Set candidate trimming */
 613:Drivers/STM32F3xx_HAL_Driver/Src/stm32f3xx_hal_opamp_ex.c ****       MODIFY_REG(hopamp1->Instance->CSR, OPAMP_CSR_TRIMOFFSETP, trimmingvaluep1<<OPAMP_INPUT_NONINV
 614:Drivers/STM32F3xx_HAL_Driver/Src/stm32f3xx_hal_opamp_ex.c ****       MODIFY_REG(hopamp2->Instance->CSR, OPAMP_CSR_TRIMOFFSETP, trimmingvaluep2<<OPAMP_INPUT_NONINV
 615:Drivers/STM32F3xx_HAL_Driver/Src/stm32f3xx_hal_opamp_ex.c ****       MODIFY_REG(hopamp3->Instance->CSR, OPAMP_CSR_TRIMOFFSETP, trimmingvaluep3<<OPAMP_INPUT_NONINV
 616:Drivers/STM32F3xx_HAL_Driver/Src/stm32f3xx_hal_opamp_ex.c ****       MODIFY_REG(hopamp4->Instance->CSR, OPAMP_CSR_TRIMOFFSETP, trimmingvaluep4<<OPAMP_INPUT_NONINV
 617:Drivers/STM32F3xx_HAL_Driver/Src/stm32f3xx_hal_opamp_ex.c **** 
 618:Drivers/STM32F3xx_HAL_Driver/Src/stm32f3xx_hal_opamp_ex.c ****       /* OFFTRIMmax delay 2 ms as per datasheet (electrical characteristics */ 
 619:Drivers/STM32F3xx_HAL_Driver/Src/stm32f3xx_hal_opamp_ex.c ****       /* Offset trim time: during calibration, minimum time needed between */
 620:Drivers/STM32F3xx_HAL_Driver/Src/stm32f3xx_hal_opamp_ex.c ****       /* two steps to have 1 mV accuracy */
 621:Drivers/STM32F3xx_HAL_Driver/Src/stm32f3xx_hal_opamp_ex.c ****       HAL_Delay(2U);
 622:Drivers/STM32F3xx_HAL_Driver/Src/stm32f3xx_hal_opamp_ex.c ****       
 623:Drivers/STM32F3xx_HAL_Driver/Src/stm32f3xx_hal_opamp_ex.c ****       if ((hopamp1->Instance->CSR & OPAMP_CSR_OUTCAL) != RESET) 
 624:Drivers/STM32F3xx_HAL_Driver/Src/stm32f3xx_hal_opamp_ex.c ****       { 
 625:Drivers/STM32F3xx_HAL_Driver/Src/stm32f3xx_hal_opamp_ex.c ****         /* Trimming value is actually one value more */
 626:Drivers/STM32F3xx_HAL_Driver/Src/stm32f3xx_hal_opamp_ex.c ****         trimmingvaluep1++;
 627:Drivers/STM32F3xx_HAL_Driver/Src/stm32f3xx_hal_opamp_ex.c ****         /* Set right trimming */
 628:Drivers/STM32F3xx_HAL_Driver/Src/stm32f3xx_hal_opamp_ex.c ****         MODIFY_REG(hopamp1->Instance->CSR, OPAMP_CSR_TRIMOFFSETP, trimmingvaluep1<<OPAMP_INPUT_NONI
 629:Drivers/STM32F3xx_HAL_Driver/Src/stm32f3xx_hal_opamp_ex.c ****       }
 630:Drivers/STM32F3xx_HAL_Driver/Src/stm32f3xx_hal_opamp_ex.c ****     
 631:Drivers/STM32F3xx_HAL_Driver/Src/stm32f3xx_hal_opamp_ex.c ****       if ((hopamp2->Instance->CSR & OPAMP_CSR_OUTCAL) != RESET) 
 632:Drivers/STM32F3xx_HAL_Driver/Src/stm32f3xx_hal_opamp_ex.c ****       { 
 633:Drivers/STM32F3xx_HAL_Driver/Src/stm32f3xx_hal_opamp_ex.c ****         /* Trimming value is actually one value more */
 634:Drivers/STM32F3xx_HAL_Driver/Src/stm32f3xx_hal_opamp_ex.c ****         trimmingvaluep2++;
ARM GAS  /var/folders/_1/sgnj6dm57r56n1x62bwb5w5h0000gn/T//ccvwjkBq.s 			page 14


 635:Drivers/STM32F3xx_HAL_Driver/Src/stm32f3xx_hal_opamp_ex.c ****         /* Set right trimming */
 636:Drivers/STM32F3xx_HAL_Driver/Src/stm32f3xx_hal_opamp_ex.c ****         MODIFY_REG(hopamp2->Instance->CSR, OPAMP_CSR_TRIMOFFSETP, trimmingvaluep2<<OPAMP_INPUT_NONI
 637:Drivers/STM32F3xx_HAL_Driver/Src/stm32f3xx_hal_opamp_ex.c ****       }
 638:Drivers/STM32F3xx_HAL_Driver/Src/stm32f3xx_hal_opamp_ex.c **** 
 639:Drivers/STM32F3xx_HAL_Driver/Src/stm32f3xx_hal_opamp_ex.c ****       if ((hopamp3->Instance->CSR & OPAMP_CSR_OUTCAL) != RESET) 
 640:Drivers/STM32F3xx_HAL_Driver/Src/stm32f3xx_hal_opamp_ex.c ****       { 
 641:Drivers/STM32F3xx_HAL_Driver/Src/stm32f3xx_hal_opamp_ex.c ****         /* Trimming value is actually one value more */
 642:Drivers/STM32F3xx_HAL_Driver/Src/stm32f3xx_hal_opamp_ex.c ****         trimmingvaluep3++;
 643:Drivers/STM32F3xx_HAL_Driver/Src/stm32f3xx_hal_opamp_ex.c ****         /* Set right trimming */
 644:Drivers/STM32F3xx_HAL_Driver/Src/stm32f3xx_hal_opamp_ex.c ****         MODIFY_REG(hopamp3->Instance->CSR, OPAMP_CSR_TRIMOFFSETP, trimmingvaluep3<<OPAMP_INPUT_NONI
 645:Drivers/STM32F3xx_HAL_Driver/Src/stm32f3xx_hal_opamp_ex.c ****       }
 646:Drivers/STM32F3xx_HAL_Driver/Src/stm32f3xx_hal_opamp_ex.c **** 
 647:Drivers/STM32F3xx_HAL_Driver/Src/stm32f3xx_hal_opamp_ex.c ****       if ((hopamp4->Instance->CSR & OPAMP_CSR_OUTCAL) != RESET) 
 648:Drivers/STM32F3xx_HAL_Driver/Src/stm32f3xx_hal_opamp_ex.c ****       { 
 649:Drivers/STM32F3xx_HAL_Driver/Src/stm32f3xx_hal_opamp_ex.c ****         /* Trimming value is actually one value more */
 650:Drivers/STM32F3xx_HAL_Driver/Src/stm32f3xx_hal_opamp_ex.c ****         trimmingvaluep4++;
 651:Drivers/STM32F3xx_HAL_Driver/Src/stm32f3xx_hal_opamp_ex.c ****         /* Set right trimming */
 652:Drivers/STM32F3xx_HAL_Driver/Src/stm32f3xx_hal_opamp_ex.c ****         MODIFY_REG(hopamp4->Instance->CSR, OPAMP_CSR_TRIMOFFSETP, trimmingvaluep4<<OPAMP_INPUT_NONI
 653:Drivers/STM32F3xx_HAL_Driver/Src/stm32f3xx_hal_opamp_ex.c ****       }
 654:Drivers/STM32F3xx_HAL_Driver/Src/stm32f3xx_hal_opamp_ex.c **** 
 655:Drivers/STM32F3xx_HAL_Driver/Src/stm32f3xx_hal_opamp_ex.c ****       /* Disable calibration */
 656:Drivers/STM32F3xx_HAL_Driver/Src/stm32f3xx_hal_opamp_ex.c ****       CLEAR_BIT (hopamp1->Instance->CSR, OPAMP_CSR_CALON);
 657:Drivers/STM32F3xx_HAL_Driver/Src/stm32f3xx_hal_opamp_ex.c ****       CLEAR_BIT (hopamp2->Instance->CSR, OPAMP_CSR_CALON);
 658:Drivers/STM32F3xx_HAL_Driver/Src/stm32f3xx_hal_opamp_ex.c ****       CLEAR_BIT (hopamp3->Instance->CSR, OPAMP_CSR_CALON);
 659:Drivers/STM32F3xx_HAL_Driver/Src/stm32f3xx_hal_opamp_ex.c ****       CLEAR_BIT (hopamp4->Instance->CSR, OPAMP_CSR_CALON);
 660:Drivers/STM32F3xx_HAL_Driver/Src/stm32f3xx_hal_opamp_ex.c **** 
 661:Drivers/STM32F3xx_HAL_Driver/Src/stm32f3xx_hal_opamp_ex.c ****       /* Disable the OPAMPs */
 662:Drivers/STM32F3xx_HAL_Driver/Src/stm32f3xx_hal_opamp_ex.c ****       CLEAR_BIT (hopamp1->Instance->CSR, OPAMP_CSR_OPAMPxEN);
 663:Drivers/STM32F3xx_HAL_Driver/Src/stm32f3xx_hal_opamp_ex.c ****       CLEAR_BIT (hopamp2->Instance->CSR, OPAMP_CSR_OPAMPxEN);
 664:Drivers/STM32F3xx_HAL_Driver/Src/stm32f3xx_hal_opamp_ex.c ****       CLEAR_BIT (hopamp3->Instance->CSR, OPAMP_CSR_OPAMPxEN);
 665:Drivers/STM32F3xx_HAL_Driver/Src/stm32f3xx_hal_opamp_ex.c ****       CLEAR_BIT (hopamp4->Instance->CSR, OPAMP_CSR_OPAMPxEN);
 666:Drivers/STM32F3xx_HAL_Driver/Src/stm32f3xx_hal_opamp_ex.c **** 
 667:Drivers/STM32F3xx_HAL_Driver/Src/stm32f3xx_hal_opamp_ex.c ****       /* Set normal operating mode back */
 668:Drivers/STM32F3xx_HAL_Driver/Src/stm32f3xx_hal_opamp_ex.c ****       CLEAR_BIT(hopamp1->Instance->CSR, OPAMP_CSR_FORCEVP);
 669:Drivers/STM32F3xx_HAL_Driver/Src/stm32f3xx_hal_opamp_ex.c ****       CLEAR_BIT(hopamp2->Instance->CSR, OPAMP_CSR_FORCEVP);
 670:Drivers/STM32F3xx_HAL_Driver/Src/stm32f3xx_hal_opamp_ex.c ****       CLEAR_BIT(hopamp3->Instance->CSR, OPAMP_CSR_FORCEVP);
 671:Drivers/STM32F3xx_HAL_Driver/Src/stm32f3xx_hal_opamp_ex.c ****       CLEAR_BIT(hopamp4->Instance->CSR, OPAMP_CSR_FORCEVP);
 672:Drivers/STM32F3xx_HAL_Driver/Src/stm32f3xx_hal_opamp_ex.c ****       
 673:Drivers/STM32F3xx_HAL_Driver/Src/stm32f3xx_hal_opamp_ex.c ****       /* Self calibration is successful  */
 674:Drivers/STM32F3xx_HAL_Driver/Src/stm32f3xx_hal_opamp_ex.c ****       /* Store calibration(user timming) results in init structure. */
 675:Drivers/STM32F3xx_HAL_Driver/Src/stm32f3xx_hal_opamp_ex.c ****       /* Select user timming mode */
 676:Drivers/STM32F3xx_HAL_Driver/Src/stm32f3xx_hal_opamp_ex.c **** 
 677:Drivers/STM32F3xx_HAL_Driver/Src/stm32f3xx_hal_opamp_ex.c ****       /* Write calibration result N */
 678:Drivers/STM32F3xx_HAL_Driver/Src/stm32f3xx_hal_opamp_ex.c ****       hopamp1->Init.TrimmingValueN = trimmingvaluen1;
 679:Drivers/STM32F3xx_HAL_Driver/Src/stm32f3xx_hal_opamp_ex.c ****       hopamp2->Init.TrimmingValueN = trimmingvaluen2;
 680:Drivers/STM32F3xx_HAL_Driver/Src/stm32f3xx_hal_opamp_ex.c ****       hopamp3->Init.TrimmingValueN = trimmingvaluen3;
 681:Drivers/STM32F3xx_HAL_Driver/Src/stm32f3xx_hal_opamp_ex.c ****       hopamp4->Init.TrimmingValueN = trimmingvaluen4;
 682:Drivers/STM32F3xx_HAL_Driver/Src/stm32f3xx_hal_opamp_ex.c ****      
 683:Drivers/STM32F3xx_HAL_Driver/Src/stm32f3xx_hal_opamp_ex.c ****       /* Write calibration result P */
 684:Drivers/STM32F3xx_HAL_Driver/Src/stm32f3xx_hal_opamp_ex.c ****       hopamp1->Init.TrimmingValueP = trimmingvaluep1;
 685:Drivers/STM32F3xx_HAL_Driver/Src/stm32f3xx_hal_opamp_ex.c ****       hopamp2->Init.TrimmingValueP = trimmingvaluep2;
 686:Drivers/STM32F3xx_HAL_Driver/Src/stm32f3xx_hal_opamp_ex.c ****       hopamp3->Init.TrimmingValueP = trimmingvaluep3;
 687:Drivers/STM32F3xx_HAL_Driver/Src/stm32f3xx_hal_opamp_ex.c ****       hopamp4->Init.TrimmingValueP = trimmingvaluep4;
 688:Drivers/STM32F3xx_HAL_Driver/Src/stm32f3xx_hal_opamp_ex.c ****             
 689:Drivers/STM32F3xx_HAL_Driver/Src/stm32f3xx_hal_opamp_ex.c ****       /* Select user timming mode */      
 690:Drivers/STM32F3xx_HAL_Driver/Src/stm32f3xx_hal_opamp_ex.c ****       /* And updated with calibrated settings */
 691:Drivers/STM32F3xx_HAL_Driver/Src/stm32f3xx_hal_opamp_ex.c ****       hopamp1->Init.UserTrimming = OPAMP_TRIMMING_USER;
ARM GAS  /var/folders/_1/sgnj6dm57r56n1x62bwb5w5h0000gn/T//ccvwjkBq.s 			page 15


 692:Drivers/STM32F3xx_HAL_Driver/Src/stm32f3xx_hal_opamp_ex.c ****       hopamp2->Init.UserTrimming = OPAMP_TRIMMING_USER;
 693:Drivers/STM32F3xx_HAL_Driver/Src/stm32f3xx_hal_opamp_ex.c ****       hopamp3->Init.UserTrimming = OPAMP_TRIMMING_USER;
 694:Drivers/STM32F3xx_HAL_Driver/Src/stm32f3xx_hal_opamp_ex.c ****       hopamp4->Init.UserTrimming = OPAMP_TRIMMING_USER;
 695:Drivers/STM32F3xx_HAL_Driver/Src/stm32f3xx_hal_opamp_ex.c ****            
 696:Drivers/STM32F3xx_HAL_Driver/Src/stm32f3xx_hal_opamp_ex.c ****       MODIFY_REG(hopamp1->Instance->CSR, OPAMP_CSR_TRIMOFFSETN, trimmingvaluen1<<OPAMP_INPUT_INVERT
 697:Drivers/STM32F3xx_HAL_Driver/Src/stm32f3xx_hal_opamp_ex.c ****       MODIFY_REG(hopamp2->Instance->CSR, OPAMP_CSR_TRIMOFFSETN, trimmingvaluen2<<OPAMP_INPUT_INVERT
 698:Drivers/STM32F3xx_HAL_Driver/Src/stm32f3xx_hal_opamp_ex.c ****       MODIFY_REG(hopamp3->Instance->CSR, OPAMP_CSR_TRIMOFFSETN, trimmingvaluen3<<OPAMP_INPUT_INVERT
 699:Drivers/STM32F3xx_HAL_Driver/Src/stm32f3xx_hal_opamp_ex.c ****       MODIFY_REG(hopamp4->Instance->CSR, OPAMP_CSR_TRIMOFFSETN, trimmingvaluen4<<OPAMP_INPUT_INVERT
 700:Drivers/STM32F3xx_HAL_Driver/Src/stm32f3xx_hal_opamp_ex.c ****      
 701:Drivers/STM32F3xx_HAL_Driver/Src/stm32f3xx_hal_opamp_ex.c ****       MODIFY_REG(hopamp1->Instance->CSR, OPAMP_CSR_TRIMOFFSETP, trimmingvaluep1<<OPAMP_INPUT_NONINV
 702:Drivers/STM32F3xx_HAL_Driver/Src/stm32f3xx_hal_opamp_ex.c ****       MODIFY_REG(hopamp2->Instance->CSR, OPAMP_CSR_TRIMOFFSETP, trimmingvaluep2<<OPAMP_INPUT_NONINV
 703:Drivers/STM32F3xx_HAL_Driver/Src/stm32f3xx_hal_opamp_ex.c ****       MODIFY_REG(hopamp3->Instance->CSR, OPAMP_CSR_TRIMOFFSETP, trimmingvaluep3<<OPAMP_INPUT_NONINV
 704:Drivers/STM32F3xx_HAL_Driver/Src/stm32f3xx_hal_opamp_ex.c ****       MODIFY_REG(hopamp4->Instance->CSR, OPAMP_CSR_TRIMOFFSETP, trimmingvaluep4<<OPAMP_INPUT_NONINV
 705:Drivers/STM32F3xx_HAL_Driver/Src/stm32f3xx_hal_opamp_ex.c ****     
 706:Drivers/STM32F3xx_HAL_Driver/Src/stm32f3xx_hal_opamp_ex.c ****     }
 707:Drivers/STM32F3xx_HAL_Driver/Src/stm32f3xx_hal_opamp_ex.c ****     
 708:Drivers/STM32F3xx_HAL_Driver/Src/stm32f3xx_hal_opamp_ex.c ****     else
 709:Drivers/STM32F3xx_HAL_Driver/Src/stm32f3xx_hal_opamp_ex.c ****     {
 710:Drivers/STM32F3xx_HAL_Driver/Src/stm32f3xx_hal_opamp_ex.c ****       /* At least one OPAMP can not be calibrated */ 
 711:Drivers/STM32F3xx_HAL_Driver/Src/stm32f3xx_hal_opamp_ex.c ****       status = HAL_ERROR;
 108              		.loc 1 711 14 view .LVU30
 109 005a 0120     		movs	r0, #1
 110 005c 90E2     		b	.L2
 111              	.L45:
 385:Drivers/STM32F3xx_HAL_Driver/Src/stm32f3xx_hal_opamp_ex.c ****        (hopamp3->State ==  HAL_OPAMP_STATE_READY) && (hopamp4->State ==  HAL_OPAMP_STATE_READY))
 112              		.loc 1 385 62 discriminator 1 view .LVU31
 113 005e 91F83240 		ldrb	r4, [r1, #50]	@ zero_extendqisi2
 114 0062 E4B2     		uxtb	r4, r4
 385:Drivers/STM32F3xx_HAL_Driver/Src/stm32f3xx_hal_opamp_ex.c ****        (hopamp3->State ==  HAL_OPAMP_STATE_READY) && (hopamp4->State ==  HAL_OPAMP_STATE_READY))
 115              		.loc 1 385 51 discriminator 1 view .LVU32
 116 0064 012C     		cmp	r4, #1
 117 0066 40F08B82 		bne	.L2
 386:Drivers/STM32F3xx_HAL_Driver/Src/stm32f3xx_hal_opamp_ex.c ****        (hopamp3->State ==  HAL_OPAMP_STATE_READY) && (hopamp4->State ==  HAL_OPAMP_STATE_READY))
 118              		.loc 1 386 16 discriminator 2 view .LVU33
 119 006a 92F83200 		ldrb	r0, [r2, #50]	@ zero_extendqisi2
 120 006e C0B2     		uxtb	r0, r0
 385:Drivers/STM32F3xx_HAL_Driver/Src/stm32f3xx_hal_opamp_ex.c ****        (hopamp3->State ==  HAL_OPAMP_STATE_READY) && (hopamp4->State ==  HAL_OPAMP_STATE_READY))
 121              		.loc 1 385 97 discriminator 2 view .LVU34
 122 0070 0128     		cmp	r0, #1
 123 0072 01D0     		beq	.L46
 124              		.loc 1 711 14 view .LVU35
 125 0074 2046     		mov	r0, r4
 126 0076 83E2     		b	.L2
 127              	.L46:
 386:Drivers/STM32F3xx_HAL_Driver/Src/stm32f3xx_hal_opamp_ex.c ****        (hopamp3->State ==  HAL_OPAMP_STATE_READY) && (hopamp4->State ==  HAL_OPAMP_STATE_READY))
 128              		.loc 1 386 62 view .LVU36
 129 0078 93F83240 		ldrb	r4, [r3, #50]	@ zero_extendqisi2
 130 007c E4B2     		uxtb	r4, r4
 386:Drivers/STM32F3xx_HAL_Driver/Src/stm32f3xx_hal_opamp_ex.c ****        (hopamp3->State ==  HAL_OPAMP_STATE_READY) && (hopamp4->State ==  HAL_OPAMP_STATE_READY))
 131              		.loc 1 386 51 view .LVU37
 132 007e 012C     		cmp	r4, #1
 133 0080 40F07E82 		bne	.L2
 134 0084 1F46     		mov	r7, r3
 135 0086 1646     		mov	r6, r2
 136 0088 0C46     		mov	r4, r1
 389:Drivers/STM32F3xx_HAL_Driver/Src/stm32f3xx_hal_opamp_ex.c ****       assert_param(IS_OPAMP_ALL_INSTANCE(hopamp2->Instance));
 137              		.loc 1 389 7 is_stmt 1 view .LVU38
ARM GAS  /var/folders/_1/sgnj6dm57r56n1x62bwb5w5h0000gn/T//ccvwjkBq.s 			page 16


 390:Drivers/STM32F3xx_HAL_Driver/Src/stm32f3xx_hal_opamp_ex.c ****       assert_param(IS_OPAMP_ALL_INSTANCE(hopamp3->Instance));
 138              		.loc 1 390 7 view .LVU39
 391:Drivers/STM32F3xx_HAL_Driver/Src/stm32f3xx_hal_opamp_ex.c ****       assert_param(IS_OPAMP_ALL_INSTANCE(hopamp4->Instance));
 139              		.loc 1 391 7 view .LVU40
 392:Drivers/STM32F3xx_HAL_Driver/Src/stm32f3xx_hal_opamp_ex.c **** 
 140              		.loc 1 392 7 view .LVU41
 396:Drivers/STM32F3xx_HAL_Driver/Src/stm32f3xx_hal_opamp_ex.c ****       SET_BIT(hopamp2->Instance->CSR, OPAMP_CSR_FORCEVP);
 141              		.loc 1 396 7 view .LVU42
 142 008a 2A68     		ldr	r2, [r5]
 143              	.LVL2:
 396:Drivers/STM32F3xx_HAL_Driver/Src/stm32f3xx_hal_opamp_ex.c ****       SET_BIT(hopamp2->Instance->CSR, OPAMP_CSR_FORCEVP);
 144              		.loc 1 396 7 is_stmt 0 view .LVU43
 145 008c 1368     		ldr	r3, [r2]
 146              	.LVL3:
 396:Drivers/STM32F3xx_HAL_Driver/Src/stm32f3xx_hal_opamp_ex.c ****       SET_BIT(hopamp2->Instance->CSR, OPAMP_CSR_FORCEVP);
 147              		.loc 1 396 7 view .LVU44
 148 008e 43F00203 		orr	r3, r3, #2
 149 0092 1360     		str	r3, [r2]
 397:Drivers/STM32F3xx_HAL_Driver/Src/stm32f3xx_hal_opamp_ex.c ****       SET_BIT(hopamp3->Instance->CSR, OPAMP_CSR_FORCEVP);
 150              		.loc 1 397 7 is_stmt 1 view .LVU45
 151 0094 0A68     		ldr	r2, [r1]
 152 0096 1368     		ldr	r3, [r2]
 153 0098 43F00203 		orr	r3, r3, #2
 154 009c 1360     		str	r3, [r2]
 398:Drivers/STM32F3xx_HAL_Driver/Src/stm32f3xx_hal_opamp_ex.c ****       SET_BIT(hopamp4->Instance->CSR, OPAMP_CSR_FORCEVP);
 155              		.loc 1 398 7 view .LVU46
 156 009e 3268     		ldr	r2, [r6]
 157 00a0 1368     		ldr	r3, [r2]
 158 00a2 43F00203 		orr	r3, r3, #2
 159 00a6 1360     		str	r3, [r2]
 399:Drivers/STM32F3xx_HAL_Driver/Src/stm32f3xx_hal_opamp_ex.c ****       
 160              		.loc 1 399 7 view .LVU47
 161 00a8 3A68     		ldr	r2, [r7]
 162 00aa 1368     		ldr	r3, [r2]
 163 00ac 43F00203 		orr	r3, r3, #2
 164 00b0 1360     		str	r3, [r2]
 402:Drivers/STM32F3xx_HAL_Driver/Src/stm32f3xx_hal_opamp_ex.c ****       SET_BIT(hopamp2->Instance->CSR, OPAMP_CSR_USERTRIM);
 165              		.loc 1 402 7 view .LVU48
 166 00b2 2A68     		ldr	r2, [r5]
 167 00b4 1368     		ldr	r3, [r2]
 168 00b6 43F48023 		orr	r3, r3, #262144
 169 00ba 1360     		str	r3, [r2]
 403:Drivers/STM32F3xx_HAL_Driver/Src/stm32f3xx_hal_opamp_ex.c ****       SET_BIT(hopamp3->Instance->CSR, OPAMP_CSR_USERTRIM);
 170              		.loc 1 403 7 view .LVU49
 171 00bc 0A68     		ldr	r2, [r1]
 172 00be 1368     		ldr	r3, [r2]
 173 00c0 43F48023 		orr	r3, r3, #262144
 174 00c4 1360     		str	r3, [r2]
 404:Drivers/STM32F3xx_HAL_Driver/Src/stm32f3xx_hal_opamp_ex.c ****       SET_BIT(hopamp4->Instance->CSR, OPAMP_CSR_USERTRIM);
 175              		.loc 1 404 7 view .LVU50
 176 00c6 3268     		ldr	r2, [r6]
 177 00c8 1368     		ldr	r3, [r2]
 178 00ca 43F48023 		orr	r3, r3, #262144
 179 00ce 1360     		str	r3, [r2]
 405:Drivers/STM32F3xx_HAL_Driver/Src/stm32f3xx_hal_opamp_ex.c ****       
 180              		.loc 1 405 7 view .LVU51
 181 00d0 3A68     		ldr	r2, [r7]
ARM GAS  /var/folders/_1/sgnj6dm57r56n1x62bwb5w5h0000gn/T//ccvwjkBq.s 			page 17


 182 00d2 1368     		ldr	r3, [r2]
 183 00d4 43F48023 		orr	r3, r3, #262144
 184 00d8 1360     		str	r3, [r2]
 408:Drivers/STM32F3xx_HAL_Driver/Src/stm32f3xx_hal_opamp_ex.c ****       SET_BIT (hopamp2->Instance->CSR, OPAMP_CSR_CALON);
 185              		.loc 1 408 7 view .LVU52
 186 00da 2A68     		ldr	r2, [r5]
 187 00dc 1368     		ldr	r3, [r2]
 188 00de 43F40063 		orr	r3, r3, #2048
 189 00e2 1360     		str	r3, [r2]
 409:Drivers/STM32F3xx_HAL_Driver/Src/stm32f3xx_hal_opamp_ex.c ****       SET_BIT (hopamp3->Instance->CSR, OPAMP_CSR_CALON);
 190              		.loc 1 409 7 view .LVU53
 191 00e4 0A68     		ldr	r2, [r1]
 192 00e6 1368     		ldr	r3, [r2]
 193 00e8 43F40063 		orr	r3, r3, #2048
 194 00ec 1360     		str	r3, [r2]
 410:Drivers/STM32F3xx_HAL_Driver/Src/stm32f3xx_hal_opamp_ex.c ****       SET_BIT (hopamp4->Instance->CSR, OPAMP_CSR_CALON);
 195              		.loc 1 410 7 view .LVU54
 196 00ee 3268     		ldr	r2, [r6]
 197 00f0 1368     		ldr	r3, [r2]
 198 00f2 43F40063 		orr	r3, r3, #2048
 199 00f6 1360     		str	r3, [r2]
 411:Drivers/STM32F3xx_HAL_Driver/Src/stm32f3xx_hal_opamp_ex.c ****       
 200              		.loc 1 411 7 view .LVU55
 201 00f8 3A68     		ldr	r2, [r7]
 202 00fa 1368     		ldr	r3, [r2]
 203 00fc 43F40063 		orr	r3, r3, #2048
 204 0100 1360     		str	r3, [r2]
 415:Drivers/STM32F3xx_HAL_Driver/Src/stm32f3xx_hal_opamp_ex.c ****       MODIFY_REG(hopamp2->Instance->CSR, OPAMP_CSR_CALSEL, OPAMP_VREF_90VDDA);
 205              		.loc 1 415 7 view .LVU56
 206 0102 2A68     		ldr	r2, [r5]
 207 0104 1368     		ldr	r3, [r2]
 208 0106 43F44053 		orr	r3, r3, #12288
 209 010a 1360     		str	r3, [r2]
 416:Drivers/STM32F3xx_HAL_Driver/Src/stm32f3xx_hal_opamp_ex.c ****       MODIFY_REG(hopamp3->Instance->CSR, OPAMP_CSR_CALSEL, OPAMP_VREF_90VDDA);
 210              		.loc 1 416 7 view .LVU57
 211 010c 0A68     		ldr	r2, [r1]
 212 010e 1368     		ldr	r3, [r2]
 213 0110 43F44053 		orr	r3, r3, #12288
 214 0114 1360     		str	r3, [r2]
 417:Drivers/STM32F3xx_HAL_Driver/Src/stm32f3xx_hal_opamp_ex.c ****       MODIFY_REG(hopamp4->Instance->CSR, OPAMP_CSR_CALSEL, OPAMP_VREF_90VDDA);
 215              		.loc 1 417 7 view .LVU58
 216 0116 3268     		ldr	r2, [r6]
 217 0118 1368     		ldr	r3, [r2]
 218 011a 43F44053 		orr	r3, r3, #12288
 219 011e 1360     		str	r3, [r2]
 418:Drivers/STM32F3xx_HAL_Driver/Src/stm32f3xx_hal_opamp_ex.c ****       
 220              		.loc 1 418 7 view .LVU59
 221 0120 3A68     		ldr	r2, [r7]
 222 0122 1368     		ldr	r3, [r2]
 223 0124 43F44053 		orr	r3, r3, #12288
 224 0128 1360     		str	r3, [r2]
 421:Drivers/STM32F3xx_HAL_Driver/Src/stm32f3xx_hal_opamp_ex.c ****       SET_BIT (hopamp2->Instance->CSR, OPAMP_CSR_OPAMPxEN);
 225              		.loc 1 421 7 view .LVU60
 226 012a 2A68     		ldr	r2, [r5]
 227 012c 1368     		ldr	r3, [r2]
 228 012e 43F00103 		orr	r3, r3, #1
 229 0132 1360     		str	r3, [r2]
ARM GAS  /var/folders/_1/sgnj6dm57r56n1x62bwb5w5h0000gn/T//ccvwjkBq.s 			page 18


 422:Drivers/STM32F3xx_HAL_Driver/Src/stm32f3xx_hal_opamp_ex.c ****       SET_BIT (hopamp3->Instance->CSR, OPAMP_CSR_OPAMPxEN);
 230              		.loc 1 422 7 view .LVU61
 231 0134 0A68     		ldr	r2, [r1]
 232 0136 1368     		ldr	r3, [r2]
 233 0138 43F00103 		orr	r3, r3, #1
 234 013c 1360     		str	r3, [r2]
 423:Drivers/STM32F3xx_HAL_Driver/Src/stm32f3xx_hal_opamp_ex.c ****       SET_BIT (hopamp4->Instance->CSR, OPAMP_CSR_OPAMPxEN);
 235              		.loc 1 423 7 view .LVU62
 236 013e 3268     		ldr	r2, [r6]
 237 0140 1368     		ldr	r3, [r2]
 238 0142 43F00103 		orr	r3, r3, #1
 239 0146 1360     		str	r3, [r2]
 424:Drivers/STM32F3xx_HAL_Driver/Src/stm32f3xx_hal_opamp_ex.c ****       
 240              		.loc 1 424 7 view .LVU63
 241 0148 3A68     		ldr	r2, [r7]
 242 014a 1368     		ldr	r3, [r2]
 243 014c 43F00103 		orr	r3, r3, #1
 244 0150 1360     		str	r3, [r2]
 428:Drivers/STM32F3xx_HAL_Driver/Src/stm32f3xx_hal_opamp_ex.c ****       trimmingvaluen2 = 16U; 
 245              		.loc 1 428 7 view .LVU64
 246              	.LVL4:
 429:Drivers/STM32F3xx_HAL_Driver/Src/stm32f3xx_hal_opamp_ex.c ****       trimmingvaluen3 = 16U; 
 247              		.loc 1 429 7 view .LVU65
 430:Drivers/STM32F3xx_HAL_Driver/Src/stm32f3xx_hal_opamp_ex.c ****       trimmingvaluen4 = 16U; 
 248              		.loc 1 430 7 view .LVU66
 431:Drivers/STM32F3xx_HAL_Driver/Src/stm32f3xx_hal_opamp_ex.c ****       delta = 8U; 
 249              		.loc 1 431 7 view .LVU67
 432:Drivers/STM32F3xx_HAL_Driver/Src/stm32f3xx_hal_opamp_ex.c ****     
 250              		.loc 1 432 7 view .LVU68
 434:Drivers/STM32F3xx_HAL_Driver/Src/stm32f3xx_hal_opamp_ex.c ****       {
 251              		.loc 1 434 7 view .LVU69
 432:Drivers/STM32F3xx_HAL_Driver/Src/stm32f3xx_hal_opamp_ex.c ****     
 252              		.loc 1 432 13 is_stmt 0 view .LVU70
 253 0152 4FF00808 		mov	r8, #8
 431:Drivers/STM32F3xx_HAL_Driver/Src/stm32f3xx_hal_opamp_ex.c ****       delta = 8U; 
 254              		.loc 1 431 23 view .LVU71
 255 0156 4FF01009 		mov	r9, #16
 430:Drivers/STM32F3xx_HAL_Driver/Src/stm32f3xx_hal_opamp_ex.c ****       trimmingvaluen4 = 16U; 
 256              		.loc 1 430 23 view .LVU72
 257 015a CA46     		mov	r10, r9
 429:Drivers/STM32F3xx_HAL_Driver/Src/stm32f3xx_hal_opamp_ex.c ****       trimmingvaluen3 = 16U; 
 258              		.loc 1 429 23 view .LVU73
 259 015c CDF80490 		str	r9, [sp, #4]
 428:Drivers/STM32F3xx_HAL_Driver/Src/stm32f3xx_hal_opamp_ex.c ****       trimmingvaluen2 = 16U; 
 260              		.loc 1 428 23 view .LVU74
 261 0160 CB46     		mov	fp, r9
 434:Drivers/STM32F3xx_HAL_Driver/Src/stm32f3xx_hal_opamp_ex.c ****       {
 262              		.loc 1 434 13 view .LVU75
 263 0162 0EE0     		b	.L3
 264              	.LVL5:
 265              	.L4:
 455:Drivers/STM32F3xx_HAL_Driver/Src/stm32f3xx_hal_opamp_ex.c ****         }
 266              		.loc 1 455 11 is_stmt 1 view .LVU76
 455:Drivers/STM32F3xx_HAL_Driver/Src/stm32f3xx_hal_opamp_ex.c ****         }
 267              		.loc 1 455 27 is_stmt 0 view .LVU77
 268 0164 ABEB080B 		sub	fp, fp, r8
 269              	.LVL6:
ARM GAS  /var/folders/_1/sgnj6dm57r56n1x62bwb5w5h0000gn/T//ccvwjkBq.s 			page 19


 455:Drivers/STM32F3xx_HAL_Driver/Src/stm32f3xx_hal_opamp_ex.c ****         }
 270              		.loc 1 455 27 view .LVU78
 271 0168 34E0     		b	.L5
 272              	.L6:
 466:Drivers/STM32F3xx_HAL_Driver/Src/stm32f3xx_hal_opamp_ex.c ****         }
 273              		.loc 1 466 11 is_stmt 1 view .LVU79
 466:Drivers/STM32F3xx_HAL_Driver/Src/stm32f3xx_hal_opamp_ex.c ****         }
 274              		.loc 1 466 27 is_stmt 0 view .LVU80
 275 016a 019B     		ldr	r3, [sp, #4]
 276 016c A3EB0803 		sub	r3, r3, r8
 277 0170 0193     		str	r3, [sp, #4]
 278              	.LVL7:
 466:Drivers/STM32F3xx_HAL_Driver/Src/stm32f3xx_hal_opamp_ex.c ****         }
 279              		.loc 1 466 27 view .LVU81
 280 0172 37E0     		b	.L7
 281              	.LVL8:
 282              	.L8:
 477:Drivers/STM32F3xx_HAL_Driver/Src/stm32f3xx_hal_opamp_ex.c ****         }
 283              		.loc 1 477 11 is_stmt 1 view .LVU82
 477:Drivers/STM32F3xx_HAL_Driver/Src/stm32f3xx_hal_opamp_ex.c ****         }
 284              		.loc 1 477 27 is_stmt 0 view .LVU83
 285 0174 AAEB080A 		sub	r10, r10, r8
 286              	.LVL9:
 477:Drivers/STM32F3xx_HAL_Driver/Src/stm32f3xx_hal_opamp_ex.c ****         }
 287              		.loc 1 477 27 view .LVU84
 288 0178 3AE0     		b	.L9
 289              	.L10:
 488:Drivers/STM32F3xx_HAL_Driver/Src/stm32f3xx_hal_opamp_ex.c ****         }
 290              		.loc 1 488 11 is_stmt 1 view .LVU85
 488:Drivers/STM32F3xx_HAL_Driver/Src/stm32f3xx_hal_opamp_ex.c ****         }
 291              		.loc 1 488 27 is_stmt 0 view .LVU86
 292 017a A9EB0809 		sub	r9, r9, r8
 293              	.LVL10:
 294              	.L11:
 491:Drivers/STM32F3xx_HAL_Driver/Src/stm32f3xx_hal_opamp_ex.c ****       }
 295              		.loc 1 491 9 is_stmt 1 view .LVU87
 491:Drivers/STM32F3xx_HAL_Driver/Src/stm32f3xx_hal_opamp_ex.c ****       }
 296              		.loc 1 491 15 is_stmt 0 view .LVU88
 297 017e 4FEA5808 		lsr	r8, r8, #1
 298              	.LVL11:
 299              	.L3:
 434:Drivers/STM32F3xx_HAL_Driver/Src/stm32f3xx_hal_opamp_ex.c ****       {
 300              		.loc 1 434 13 view .LVU89
 301 0182 B8F1000F 		cmp	r8, #0
 302 0186 3AD0     		beq	.L47
 437:Drivers/STM32F3xx_HAL_Driver/Src/stm32f3xx_hal_opamp_ex.c ****         MODIFY_REG(hopamp2->Instance->CSR, OPAMP_CSR_TRIMOFFSETN, trimmingvaluen2<<OPAMP_INPUT_INVE
 303              		.loc 1 437 9 is_stmt 1 view .LVU90
 304 0188 2A68     		ldr	r2, [r5]
 305 018a 1368     		ldr	r3, [r2]
 306 018c 23F0F853 		bic	r3, r3, #520093696
 307 0190 43EA0B63 		orr	r3, r3, fp, lsl #24
 308 0194 1360     		str	r3, [r2]
 438:Drivers/STM32F3xx_HAL_Driver/Src/stm32f3xx_hal_opamp_ex.c ****         MODIFY_REG(hopamp3->Instance->CSR, OPAMP_CSR_TRIMOFFSETN, trimmingvaluen3<<OPAMP_INPUT_INVE
 309              		.loc 1 438 9 view .LVU91
 310 0196 2268     		ldr	r2, [r4]
 311 0198 1368     		ldr	r3, [r2]
 312 019a 23F0F853 		bic	r3, r3, #520093696
ARM GAS  /var/folders/_1/sgnj6dm57r56n1x62bwb5w5h0000gn/T//ccvwjkBq.s 			page 20


 313 019e 0199     		ldr	r1, [sp, #4]
 314 01a0 43EA0163 		orr	r3, r3, r1, lsl #24
 315 01a4 1360     		str	r3, [r2]
 439:Drivers/STM32F3xx_HAL_Driver/Src/stm32f3xx_hal_opamp_ex.c ****         MODIFY_REG(hopamp4->Instance->CSR, OPAMP_CSR_TRIMOFFSETN, trimmingvaluen4<<OPAMP_INPUT_INVE
 316              		.loc 1 439 9 view .LVU92
 317 01a6 3268     		ldr	r2, [r6]
 318 01a8 1368     		ldr	r3, [r2]
 319 01aa 23F0F853 		bic	r3, r3, #520093696
 320 01ae 43EA0A63 		orr	r3, r3, r10, lsl #24
 321 01b2 1360     		str	r3, [r2]
 440:Drivers/STM32F3xx_HAL_Driver/Src/stm32f3xx_hal_opamp_ex.c ****               
 322              		.loc 1 440 9 view .LVU93
 323 01b4 3A68     		ldr	r2, [r7]
 324 01b6 1368     		ldr	r3, [r2]
 325 01b8 23F0F853 		bic	r3, r3, #520093696
 326 01bc 43EA0963 		orr	r3, r3, r9, lsl #24
 327 01c0 1360     		str	r3, [r2]
 445:Drivers/STM32F3xx_HAL_Driver/Src/stm32f3xx_hal_opamp_ex.c **** 
 328              		.loc 1 445 9 view .LVU94
 329 01c2 0220     		movs	r0, #2
 330 01c4 FFF7FEFF 		bl	HAL_Delay
 331              	.LVL12:
 447:Drivers/STM32F3xx_HAL_Driver/Src/stm32f3xx_hal_opamp_ex.c ****         { 
 332              		.loc 1 447 9 view .LVU95
 447:Drivers/STM32F3xx_HAL_Driver/Src/stm32f3xx_hal_opamp_ex.c ****         { 
 333              		.loc 1 447 21 is_stmt 0 view .LVU96
 334 01c8 2B68     		ldr	r3, [r5]
 447:Drivers/STM32F3xx_HAL_Driver/Src/stm32f3xx_hal_opamp_ex.c ****         { 
 335              		.loc 1 447 31 view .LVU97
 336 01ca 1B68     		ldr	r3, [r3]
 447:Drivers/STM32F3xx_HAL_Driver/Src/stm32f3xx_hal_opamp_ex.c ****         { 
 337              		.loc 1 447 12 view .LVU98
 338 01cc 13F0804F 		tst	r3, #1073741824
 339 01d0 C8D0     		beq	.L4
 450:Drivers/STM32F3xx_HAL_Driver/Src/stm32f3xx_hal_opamp_ex.c ****         }
 340              		.loc 1 450 11 is_stmt 1 view .LVU99
 450:Drivers/STM32F3xx_HAL_Driver/Src/stm32f3xx_hal_opamp_ex.c ****         }
 341              		.loc 1 450 27 is_stmt 0 view .LVU100
 342 01d2 C344     		add	fp, fp, r8
 343              	.LVL13:
 344              	.L5:
 458:Drivers/STM32F3xx_HAL_Driver/Src/stm32f3xx_hal_opamp_ex.c ****         { 
 345              		.loc 1 458 9 is_stmt 1 view .LVU101
 458:Drivers/STM32F3xx_HAL_Driver/Src/stm32f3xx_hal_opamp_ex.c ****         { 
 346              		.loc 1 458 21 is_stmt 0 view .LVU102
 347 01d4 2368     		ldr	r3, [r4]
 458:Drivers/STM32F3xx_HAL_Driver/Src/stm32f3xx_hal_opamp_ex.c ****         { 
 348              		.loc 1 458 31 view .LVU103
 349 01d6 1B68     		ldr	r3, [r3]
 458:Drivers/STM32F3xx_HAL_Driver/Src/stm32f3xx_hal_opamp_ex.c ****         { 
 350              		.loc 1 458 12 view .LVU104
 351 01d8 13F0804F 		tst	r3, #1073741824
 352 01dc C5D0     		beq	.L6
 461:Drivers/STM32F3xx_HAL_Driver/Src/stm32f3xx_hal_opamp_ex.c ****         }
 353              		.loc 1 461 11 is_stmt 1 view .LVU105
 461:Drivers/STM32F3xx_HAL_Driver/Src/stm32f3xx_hal_opamp_ex.c ****         }
 354              		.loc 1 461 27 is_stmt 0 view .LVU106
ARM GAS  /var/folders/_1/sgnj6dm57r56n1x62bwb5w5h0000gn/T//ccvwjkBq.s 			page 21


 355 01de 019B     		ldr	r3, [sp, #4]
 356 01e0 4344     		add	r3, r3, r8
 357 01e2 0193     		str	r3, [sp, #4]
 358              	.LVL14:
 359              	.L7:
 469:Drivers/STM32F3xx_HAL_Driver/Src/stm32f3xx_hal_opamp_ex.c ****         { 
 360              		.loc 1 469 9 is_stmt 1 view .LVU107
 469:Drivers/STM32F3xx_HAL_Driver/Src/stm32f3xx_hal_opamp_ex.c ****         { 
 361              		.loc 1 469 21 is_stmt 0 view .LVU108
 362 01e4 3368     		ldr	r3, [r6]
 469:Drivers/STM32F3xx_HAL_Driver/Src/stm32f3xx_hal_opamp_ex.c ****         { 
 363              		.loc 1 469 31 view .LVU109
 364 01e6 1B68     		ldr	r3, [r3]
 469:Drivers/STM32F3xx_HAL_Driver/Src/stm32f3xx_hal_opamp_ex.c ****         { 
 365              		.loc 1 469 12 view .LVU110
 366 01e8 13F0804F 		tst	r3, #1073741824
 367 01ec C2D0     		beq	.L8
 472:Drivers/STM32F3xx_HAL_Driver/Src/stm32f3xx_hal_opamp_ex.c ****         }
 368              		.loc 1 472 11 is_stmt 1 view .LVU111
 472:Drivers/STM32F3xx_HAL_Driver/Src/stm32f3xx_hal_opamp_ex.c ****         }
 369              		.loc 1 472 27 is_stmt 0 view .LVU112
 370 01ee C244     		add	r10, r10, r8
 371              	.LVL15:
 372              	.L9:
 480:Drivers/STM32F3xx_HAL_Driver/Src/stm32f3xx_hal_opamp_ex.c ****         { 
 373              		.loc 1 480 9 is_stmt 1 view .LVU113
 480:Drivers/STM32F3xx_HAL_Driver/Src/stm32f3xx_hal_opamp_ex.c ****         { 
 374              		.loc 1 480 21 is_stmt 0 view .LVU114
 375 01f0 3B68     		ldr	r3, [r7]
 480:Drivers/STM32F3xx_HAL_Driver/Src/stm32f3xx_hal_opamp_ex.c ****         { 
 376              		.loc 1 480 31 view .LVU115
 377 01f2 1B68     		ldr	r3, [r3]
 480:Drivers/STM32F3xx_HAL_Driver/Src/stm32f3xx_hal_opamp_ex.c ****         { 
 378              		.loc 1 480 12 view .LVU116
 379 01f4 13F0804F 		tst	r3, #1073741824
 380 01f8 BFD0     		beq	.L10
 483:Drivers/STM32F3xx_HAL_Driver/Src/stm32f3xx_hal_opamp_ex.c ****         }
 381              		.loc 1 483 11 is_stmt 1 view .LVU117
 483:Drivers/STM32F3xx_HAL_Driver/Src/stm32f3xx_hal_opamp_ex.c ****         }
 382              		.loc 1 483 27 is_stmt 0 view .LVU118
 383 01fa C144     		add	r9, r9, r8
 384              	.LVL16:
 483:Drivers/STM32F3xx_HAL_Driver/Src/stm32f3xx_hal_opamp_ex.c ****         }
 385              		.loc 1 483 27 view .LVU119
 386 01fc BFE7     		b	.L11
 387              	.L47:
 483:Drivers/STM32F3xx_HAL_Driver/Src/stm32f3xx_hal_opamp_ex.c ****         }
 388              		.loc 1 483 27 view .LVU120
 389 01fe CDF810A0 		str	r10, [sp, #16]
 496:Drivers/STM32F3xx_HAL_Driver/Src/stm32f3xx_hal_opamp_ex.c ****       MODIFY_REG(hopamp2->Instance->CSR, OPAMP_CSR_TRIMOFFSETN, trimmingvaluen2<<OPAMP_INPUT_INVERT
 390              		.loc 1 496 7 is_stmt 1 view .LVU121
 391 0202 2A68     		ldr	r2, [r5]
 392 0204 1368     		ldr	r3, [r2]
 393 0206 23F0F853 		bic	r3, r3, #520093696
 394 020a 43EA0B63 		orr	r3, r3, fp, lsl #24
 395 020e 1360     		str	r3, [r2]
 497:Drivers/STM32F3xx_HAL_Driver/Src/stm32f3xx_hal_opamp_ex.c ****       MODIFY_REG(hopamp3->Instance->CSR, OPAMP_CSR_TRIMOFFSETN, trimmingvaluen3<<OPAMP_INPUT_INVERT
ARM GAS  /var/folders/_1/sgnj6dm57r56n1x62bwb5w5h0000gn/T//ccvwjkBq.s 			page 22


 396              		.loc 1 497 7 view .LVU122
 397 0210 2268     		ldr	r2, [r4]
 398 0212 1368     		ldr	r3, [r2]
 399 0214 23F0F853 		bic	r3, r3, #520093696
 400 0218 0199     		ldr	r1, [sp, #4]
 401 021a 43EA0163 		orr	r3, r3, r1, lsl #24
 402 021e 1360     		str	r3, [r2]
 498:Drivers/STM32F3xx_HAL_Driver/Src/stm32f3xx_hal_opamp_ex.c ****       MODIFY_REG(hopamp4->Instance->CSR, OPAMP_CSR_TRIMOFFSETN, trimmingvaluen4<<OPAMP_INPUT_INVERT
 403              		.loc 1 498 7 view .LVU123
 404 0220 3268     		ldr	r2, [r6]
 405 0222 1368     		ldr	r3, [r2]
 406 0224 23F0F853 		bic	r3, r3, #520093696
 407 0228 43EA0A63 		orr	r3, r3, r10, lsl #24
 408 022c 1360     		str	r3, [r2]
 499:Drivers/STM32F3xx_HAL_Driver/Src/stm32f3xx_hal_opamp_ex.c ****       
 409              		.loc 1 499 7 view .LVU124
 410 022e 3A68     		ldr	r2, [r7]
 411 0230 1368     		ldr	r3, [r2]
 412 0232 23F0F853 		bic	r3, r3, #520093696
 413 0236 43EA0963 		orr	r3, r3, r9, lsl #24
 414 023a 1360     		str	r3, [r2]
 504:Drivers/STM32F3xx_HAL_Driver/Src/stm32f3xx_hal_opamp_ex.c ****       
 415              		.loc 1 504 7 view .LVU125
 416 023c 0220     		movs	r0, #2
 417 023e FFF7FEFF 		bl	HAL_Delay
 418              	.LVL17:
 506:Drivers/STM32F3xx_HAL_Driver/Src/stm32f3xx_hal_opamp_ex.c ****       { 
 419              		.loc 1 506 7 view .LVU126
 506:Drivers/STM32F3xx_HAL_Driver/Src/stm32f3xx_hal_opamp_ex.c ****       { 
 420              		.loc 1 506 19 is_stmt 0 view .LVU127
 421 0242 2A68     		ldr	r2, [r5]
 506:Drivers/STM32F3xx_HAL_Driver/Src/stm32f3xx_hal_opamp_ex.c ****       { 
 422              		.loc 1 506 29 view .LVU128
 423 0244 1368     		ldr	r3, [r2]
 506:Drivers/STM32F3xx_HAL_Driver/Src/stm32f3xx_hal_opamp_ex.c ****       { 
 424              		.loc 1 506 10 view .LVU129
 425 0246 13F0804F 		tst	r3, #1073741824
 426 024a 07D0     		beq	.L13
 509:Drivers/STM32F3xx_HAL_Driver/Src/stm32f3xx_hal_opamp_ex.c ****         /* Set right trimming */
 427              		.loc 1 509 9 is_stmt 1 view .LVU130
 509:Drivers/STM32F3xx_HAL_Driver/Src/stm32f3xx_hal_opamp_ex.c ****         /* Set right trimming */
 428              		.loc 1 509 24 is_stmt 0 view .LVU131
 429 024c 0BF1010B 		add	fp, fp, #1
 430              	.LVL18:
 511:Drivers/STM32F3xx_HAL_Driver/Src/stm32f3xx_hal_opamp_ex.c ****       }
 431              		.loc 1 511 9 is_stmt 1 view .LVU132
 432 0250 1368     		ldr	r3, [r2]
 433 0252 23F0F853 		bic	r3, r3, #520093696
 434 0256 43EA0B63 		orr	r3, r3, fp, lsl #24
 435 025a 1360     		str	r3, [r2]
 436              	.L13:
 514:Drivers/STM32F3xx_HAL_Driver/Src/stm32f3xx_hal_opamp_ex.c ****       { 
 437              		.loc 1 514 7 view .LVU133
 514:Drivers/STM32F3xx_HAL_Driver/Src/stm32f3xx_hal_opamp_ex.c ****       { 
 438              		.loc 1 514 19 is_stmt 0 view .LVU134
 439 025c 2268     		ldr	r2, [r4]
 514:Drivers/STM32F3xx_HAL_Driver/Src/stm32f3xx_hal_opamp_ex.c ****       { 
ARM GAS  /var/folders/_1/sgnj6dm57r56n1x62bwb5w5h0000gn/T//ccvwjkBq.s 			page 23


 440              		.loc 1 514 29 view .LVU135
 441 025e 1368     		ldr	r3, [r2]
 514:Drivers/STM32F3xx_HAL_Driver/Src/stm32f3xx_hal_opamp_ex.c ****       { 
 442              		.loc 1 514 10 view .LVU136
 443 0260 13F0804F 		tst	r3, #1073741824
 444 0264 08D0     		beq	.L14
 517:Drivers/STM32F3xx_HAL_Driver/Src/stm32f3xx_hal_opamp_ex.c ****         /* Set right trimming */
 445              		.loc 1 517 9 is_stmt 1 view .LVU137
 517:Drivers/STM32F3xx_HAL_Driver/Src/stm32f3xx_hal_opamp_ex.c ****         /* Set right trimming */
 446              		.loc 1 517 24 is_stmt 0 view .LVU138
 447 0266 0199     		ldr	r1, [sp, #4]
 448 0268 0131     		adds	r1, r1, #1
 449 026a 0191     		str	r1, [sp, #4]
 450              	.LVL19:
 519:Drivers/STM32F3xx_HAL_Driver/Src/stm32f3xx_hal_opamp_ex.c ****       }
 451              		.loc 1 519 9 is_stmt 1 view .LVU139
 452 026c 1368     		ldr	r3, [r2]
 453 026e 23F0F853 		bic	r3, r3, #520093696
 454 0272 43EA0163 		orr	r3, r3, r1, lsl #24
 455 0276 1360     		str	r3, [r2]
 456              	.LVL20:
 457              	.L14:
 522:Drivers/STM32F3xx_HAL_Driver/Src/stm32f3xx_hal_opamp_ex.c ****       { 
 458              		.loc 1 522 7 view .LVU140
 522:Drivers/STM32F3xx_HAL_Driver/Src/stm32f3xx_hal_opamp_ex.c ****       { 
 459              		.loc 1 522 19 is_stmt 0 view .LVU141
 460 0278 3268     		ldr	r2, [r6]
 522:Drivers/STM32F3xx_HAL_Driver/Src/stm32f3xx_hal_opamp_ex.c ****       { 
 461              		.loc 1 522 29 view .LVU142
 462 027a 1368     		ldr	r3, [r2]
 522:Drivers/STM32F3xx_HAL_Driver/Src/stm32f3xx_hal_opamp_ex.c ****       { 
 463              		.loc 1 522 10 view .LVU143
 464 027c 13F0804F 		tst	r3, #1073741824
 465 0280 08D0     		beq	.L15
 525:Drivers/STM32F3xx_HAL_Driver/Src/stm32f3xx_hal_opamp_ex.c ****         /* Set right trimming */
 466              		.loc 1 525 9 is_stmt 1 view .LVU144
 525:Drivers/STM32F3xx_HAL_Driver/Src/stm32f3xx_hal_opamp_ex.c ****         /* Set right trimming */
 467              		.loc 1 525 24 is_stmt 0 view .LVU145
 468 0282 0499     		ldr	r1, [sp, #16]
 469 0284 0131     		adds	r1, r1, #1
 470 0286 0491     		str	r1, [sp, #16]
 471              	.LVL21:
 527:Drivers/STM32F3xx_HAL_Driver/Src/stm32f3xx_hal_opamp_ex.c ****       }
 472              		.loc 1 527 9 is_stmt 1 view .LVU146
 473 0288 1368     		ldr	r3, [r2]
 474 028a 23F0F853 		bic	r3, r3, #520093696
 475 028e 43EA0163 		orr	r3, r3, r1, lsl #24
 476 0292 1360     		str	r3, [r2]
 477              	.LVL22:
 478              	.L15:
 530:Drivers/STM32F3xx_HAL_Driver/Src/stm32f3xx_hal_opamp_ex.c ****       { 
 479              		.loc 1 530 7 view .LVU147
 530:Drivers/STM32F3xx_HAL_Driver/Src/stm32f3xx_hal_opamp_ex.c ****       { 
 480              		.loc 1 530 19 is_stmt 0 view .LVU148
 481 0294 3A68     		ldr	r2, [r7]
 530:Drivers/STM32F3xx_HAL_Driver/Src/stm32f3xx_hal_opamp_ex.c ****       { 
 482              		.loc 1 530 29 view .LVU149
ARM GAS  /var/folders/_1/sgnj6dm57r56n1x62bwb5w5h0000gn/T//ccvwjkBq.s 			page 24


 483 0296 1368     		ldr	r3, [r2]
 530:Drivers/STM32F3xx_HAL_Driver/Src/stm32f3xx_hal_opamp_ex.c ****       { 
 484              		.loc 1 530 10 view .LVU150
 485 0298 13F0804F 		tst	r3, #1073741824
 486 029c 07D0     		beq	.L16
 533:Drivers/STM32F3xx_HAL_Driver/Src/stm32f3xx_hal_opamp_ex.c ****         /* Set right trimming */
 487              		.loc 1 533 9 is_stmt 1 view .LVU151
 533:Drivers/STM32F3xx_HAL_Driver/Src/stm32f3xx_hal_opamp_ex.c ****         /* Set right trimming */
 488              		.loc 1 533 24 is_stmt 0 view .LVU152
 489 029e 09F10109 		add	r9, r9, #1
 490              	.LVL23:
 535:Drivers/STM32F3xx_HAL_Driver/Src/stm32f3xx_hal_opamp_ex.c ****       }
 491              		.loc 1 535 9 is_stmt 1 view .LVU153
 492 02a2 1368     		ldr	r3, [r2]
 493 02a4 23F0F853 		bic	r3, r3, #520093696
 494 02a8 43EA0963 		orr	r3, r3, r9, lsl #24
 495 02ac 1360     		str	r3, [r2]
 496              	.L16:
 540:Drivers/STM32F3xx_HAL_Driver/Src/stm32f3xx_hal_opamp_ex.c ****       MODIFY_REG(hopamp2->Instance->CSR, OPAMP_CSR_CALSEL, OPAMP_VREF_10VDDA);
 497              		.loc 1 540 7 view .LVU154
 498 02ae 2A68     		ldr	r2, [r5]
 499 02b0 1368     		ldr	r3, [r2]
 500 02b2 23F44053 		bic	r3, r3, #12288
 501 02b6 43F48053 		orr	r3, r3, #4096
 502 02ba 1360     		str	r3, [r2]
 541:Drivers/STM32F3xx_HAL_Driver/Src/stm32f3xx_hal_opamp_ex.c ****       MODIFY_REG(hopamp3->Instance->CSR, OPAMP_CSR_CALSEL, OPAMP_VREF_10VDDA);
 503              		.loc 1 541 7 view .LVU155
 504 02bc 2268     		ldr	r2, [r4]
 505 02be 1368     		ldr	r3, [r2]
 506 02c0 23F44053 		bic	r3, r3, #12288
 507 02c4 43F48053 		orr	r3, r3, #4096
 508 02c8 1360     		str	r3, [r2]
 542:Drivers/STM32F3xx_HAL_Driver/Src/stm32f3xx_hal_opamp_ex.c ****       MODIFY_REG(hopamp4->Instance->CSR, OPAMP_CSR_CALSEL, OPAMP_VREF_10VDDA);
 509              		.loc 1 542 7 view .LVU156
 510 02ca 3268     		ldr	r2, [r6]
 511 02cc 1368     		ldr	r3, [r2]
 512 02ce 23F44053 		bic	r3, r3, #12288
 513 02d2 43F48053 		orr	r3, r3, #4096
 514 02d6 1360     		str	r3, [r2]
 543:Drivers/STM32F3xx_HAL_Driver/Src/stm32f3xx_hal_opamp_ex.c ****       
 515              		.loc 1 543 7 view .LVU157
 516 02d8 3A68     		ldr	r2, [r7]
 517 02da 1368     		ldr	r3, [r2]
 518 02dc 23F44053 		bic	r3, r3, #12288
 519 02e0 43F48053 		orr	r3, r3, #4096
 520 02e4 1360     		str	r3, [r2]
 547:Drivers/STM32F3xx_HAL_Driver/Src/stm32f3xx_hal_opamp_ex.c ****       trimmingvaluep2 = 16U; 
 521              		.loc 1 547 7 view .LVU158
 522              	.LVL24:
 548:Drivers/STM32F3xx_HAL_Driver/Src/stm32f3xx_hal_opamp_ex.c ****       trimmingvaluep3 = 16U; 
 523              		.loc 1 548 7 view .LVU159
 549:Drivers/STM32F3xx_HAL_Driver/Src/stm32f3xx_hal_opamp_ex.c ****       trimmingvaluep4 = 16U; 
 524              		.loc 1 549 7 view .LVU160
 550:Drivers/STM32F3xx_HAL_Driver/Src/stm32f3xx_hal_opamp_ex.c ****       
 525              		.loc 1 550 7 view .LVU161
 552:Drivers/STM32F3xx_HAL_Driver/Src/stm32f3xx_hal_opamp_ex.c ****       
 526              		.loc 1 552 7 view .LVU162
ARM GAS  /var/folders/_1/sgnj6dm57r56n1x62bwb5w5h0000gn/T//ccvwjkBq.s 			page 25


 554:Drivers/STM32F3xx_HAL_Driver/Src/stm32f3xx_hal_opamp_ex.c ****       {
 527              		.loc 1 554 7 view .LVU163
 552:Drivers/STM32F3xx_HAL_Driver/Src/stm32f3xx_hal_opamp_ex.c ****       
 528              		.loc 1 552 13 is_stmt 0 view .LVU164
 529 02e6 4FF0080A 		mov	r10, #8
 550:Drivers/STM32F3xx_HAL_Driver/Src/stm32f3xx_hal_opamp_ex.c ****       
 530              		.loc 1 550 23 view .LVU165
 531 02ea 4FF01008 		mov	r8, #16
 549:Drivers/STM32F3xx_HAL_Driver/Src/stm32f3xx_hal_opamp_ex.c ****       trimmingvaluep4 = 16U; 
 532              		.loc 1 549 23 view .LVU166
 533 02ee CDF80080 		str	r8, [sp]
 548:Drivers/STM32F3xx_HAL_Driver/Src/stm32f3xx_hal_opamp_ex.c ****       trimmingvaluep3 = 16U; 
 534              		.loc 1 548 23 view .LVU167
 535 02f2 4246     		mov	r2, r8
 536 02f4 CDF808B0 		str	fp, [sp, #8]
 537 02f8 C346     		mov	fp, r8
 538              	.LVL25:
 548:Drivers/STM32F3xx_HAL_Driver/Src/stm32f3xx_hal_opamp_ex.c ****       trimmingvaluep3 = 16U; 
 539              		.loc 1 548 23 view .LVU168
 540 02fa CDF81490 		str	r9, [sp, #20]
 541 02fe 9146     		mov	r9, r2
 542              	.LVL26:
 554:Drivers/STM32F3xx_HAL_Driver/Src/stm32f3xx_hal_opamp_ex.c ****       {
 543              		.loc 1 554 13 view .LVU169
 544 0300 0EE0     		b	.L17
 545              	.LVL27:
 546              	.L18:
 574:Drivers/STM32F3xx_HAL_Driver/Src/stm32f3xx_hal_opamp_ex.c ****         }
 547              		.loc 1 574 11 is_stmt 1 view .LVU170
 574:Drivers/STM32F3xx_HAL_Driver/Src/stm32f3xx_hal_opamp_ex.c ****         }
 548              		.loc 1 574 27 is_stmt 0 view .LVU171
 549 0302 A9EB0A09 		sub	r9, r9, r10
 550              	.LVL28:
 574:Drivers/STM32F3xx_HAL_Driver/Src/stm32f3xx_hal_opamp_ex.c ****         }
 551              		.loc 1 574 27 view .LVU172
 552 0306 34E0     		b	.L19
 553              	.L20:
 584:Drivers/STM32F3xx_HAL_Driver/Src/stm32f3xx_hal_opamp_ex.c ****         }
 554              		.loc 1 584 11 is_stmt 1 view .LVU173
 584:Drivers/STM32F3xx_HAL_Driver/Src/stm32f3xx_hal_opamp_ex.c ****         }
 555              		.loc 1 584 27 is_stmt 0 view .LVU174
 556 0308 ABEB0A0B 		sub	fp, fp, r10
 557              	.LVL29:
 584:Drivers/STM32F3xx_HAL_Driver/Src/stm32f3xx_hal_opamp_ex.c ****         }
 558              		.loc 1 584 27 view .LVU175
 559 030c 37E0     		b	.L21
 560              	.L22:
 594:Drivers/STM32F3xx_HAL_Driver/Src/stm32f3xx_hal_opamp_ex.c ****         }
 561              		.loc 1 594 11 is_stmt 1 view .LVU176
 594:Drivers/STM32F3xx_HAL_Driver/Src/stm32f3xx_hal_opamp_ex.c ****         }
 562              		.loc 1 594 27 is_stmt 0 view .LVU177
 563 030e 009B     		ldr	r3, [sp]
 564 0310 A3EB0A03 		sub	r3, r3, r10
 565 0314 0093     		str	r3, [sp]
 566              	.LVL30:
 594:Drivers/STM32F3xx_HAL_Driver/Src/stm32f3xx_hal_opamp_ex.c ****         }
 567              		.loc 1 594 27 view .LVU178
ARM GAS  /var/folders/_1/sgnj6dm57r56n1x62bwb5w5h0000gn/T//ccvwjkBq.s 			page 26


 568 0316 3AE0     		b	.L23
 569              	.LVL31:
 570              	.L24:
 604:Drivers/STM32F3xx_HAL_Driver/Src/stm32f3xx_hal_opamp_ex.c ****         }
 571              		.loc 1 604 11 is_stmt 1 view .LVU179
 604:Drivers/STM32F3xx_HAL_Driver/Src/stm32f3xx_hal_opamp_ex.c ****         }
 572              		.loc 1 604 27 is_stmt 0 view .LVU180
 573 0318 A8EB0A08 		sub	r8, r8, r10
 574              	.LVL32:
 575              	.L25:
 607:Drivers/STM32F3xx_HAL_Driver/Src/stm32f3xx_hal_opamp_ex.c ****       }
 576              		.loc 1 607 9 is_stmt 1 view .LVU181
 607:Drivers/STM32F3xx_HAL_Driver/Src/stm32f3xx_hal_opamp_ex.c ****       }
 577              		.loc 1 607 15 is_stmt 0 view .LVU182
 578 031c 4FEA5A0A 		lsr	r10, r10, #1
 579              	.LVL33:
 580              	.L17:
 554:Drivers/STM32F3xx_HAL_Driver/Src/stm32f3xx_hal_opamp_ex.c ****       {
 581              		.loc 1 554 13 view .LVU183
 582 0320 BAF1000F 		cmp	r10, #0
 583 0324 3AD0     		beq	.L48
 557:Drivers/STM32F3xx_HAL_Driver/Src/stm32f3xx_hal_opamp_ex.c ****         MODIFY_REG(hopamp2->Instance->CSR, OPAMP_CSR_TRIMOFFSETP, trimmingvaluep2<<OPAMP_INPUT_NONI
 584              		.loc 1 557 9 is_stmt 1 view .LVU184
 585 0326 2A68     		ldr	r2, [r5]
 586 0328 1368     		ldr	r3, [r2]
 587 032a 23F47803 		bic	r3, r3, #16252928
 588 032e 43EAC943 		orr	r3, r3, r9, lsl #19
 589 0332 1360     		str	r3, [r2]
 558:Drivers/STM32F3xx_HAL_Driver/Src/stm32f3xx_hal_opamp_ex.c ****         MODIFY_REG(hopamp3->Instance->CSR, OPAMP_CSR_TRIMOFFSETP, trimmingvaluep3<<OPAMP_INPUT_NONI
 590              		.loc 1 558 9 view .LVU185
 591 0334 2268     		ldr	r2, [r4]
 592 0336 1368     		ldr	r3, [r2]
 593 0338 23F47803 		bic	r3, r3, #16252928
 594 033c 43EACB43 		orr	r3, r3, fp, lsl #19
 595 0340 1360     		str	r3, [r2]
 559:Drivers/STM32F3xx_HAL_Driver/Src/stm32f3xx_hal_opamp_ex.c ****         MODIFY_REG(hopamp4->Instance->CSR, OPAMP_CSR_TRIMOFFSETP, trimmingvaluep4<<OPAMP_INPUT_NONI
 596              		.loc 1 559 9 view .LVU186
 597 0342 3268     		ldr	r2, [r6]
 598 0344 1368     		ldr	r3, [r2]
 599 0346 23F47803 		bic	r3, r3, #16252928
 600 034a 0099     		ldr	r1, [sp]
 601 034c 43EAC143 		orr	r3, r3, r1, lsl #19
 602 0350 1360     		str	r3, [r2]
 560:Drivers/STM32F3xx_HAL_Driver/Src/stm32f3xx_hal_opamp_ex.c ****                
 603              		.loc 1 560 9 view .LVU187
 604 0352 3A68     		ldr	r2, [r7]
 605 0354 1368     		ldr	r3, [r2]
 606 0356 23F47803 		bic	r3, r3, #16252928
 607 035a 43EAC843 		orr	r3, r3, r8, lsl #19
 608 035e 1360     		str	r3, [r2]
 565:Drivers/STM32F3xx_HAL_Driver/Src/stm32f3xx_hal_opamp_ex.c **** 
 609              		.loc 1 565 9 view .LVU188
 610 0360 0220     		movs	r0, #2
 611 0362 FFF7FEFF 		bl	HAL_Delay
 612              	.LVL34:
 567:Drivers/STM32F3xx_HAL_Driver/Src/stm32f3xx_hal_opamp_ex.c ****         { 
 613              		.loc 1 567 9 view .LVU189
ARM GAS  /var/folders/_1/sgnj6dm57r56n1x62bwb5w5h0000gn/T//ccvwjkBq.s 			page 27


 567:Drivers/STM32F3xx_HAL_Driver/Src/stm32f3xx_hal_opamp_ex.c ****         { 
 614              		.loc 1 567 21 is_stmt 0 view .LVU190
 615 0366 2B68     		ldr	r3, [r5]
 567:Drivers/STM32F3xx_HAL_Driver/Src/stm32f3xx_hal_opamp_ex.c ****         { 
 616              		.loc 1 567 31 view .LVU191
 617 0368 1B68     		ldr	r3, [r3]
 567:Drivers/STM32F3xx_HAL_Driver/Src/stm32f3xx_hal_opamp_ex.c ****         { 
 618              		.loc 1 567 12 view .LVU192
 619 036a 13F0804F 		tst	r3, #1073741824
 620 036e C8D0     		beq	.L18
 570:Drivers/STM32F3xx_HAL_Driver/Src/stm32f3xx_hal_opamp_ex.c ****         }
 621              		.loc 1 570 11 is_stmt 1 view .LVU193
 570:Drivers/STM32F3xx_HAL_Driver/Src/stm32f3xx_hal_opamp_ex.c ****         }
 622              		.loc 1 570 27 is_stmt 0 view .LVU194
 623 0370 D144     		add	r9, r9, r10
 624              	.LVL35:
 625              	.L19:
 577:Drivers/STM32F3xx_HAL_Driver/Src/stm32f3xx_hal_opamp_ex.c ****         { 
 626              		.loc 1 577 9 is_stmt 1 view .LVU195
 577:Drivers/STM32F3xx_HAL_Driver/Src/stm32f3xx_hal_opamp_ex.c ****         { 
 627              		.loc 1 577 21 is_stmt 0 view .LVU196
 628 0372 2368     		ldr	r3, [r4]
 577:Drivers/STM32F3xx_HAL_Driver/Src/stm32f3xx_hal_opamp_ex.c ****         { 
 629              		.loc 1 577 31 view .LVU197
 630 0374 1B68     		ldr	r3, [r3]
 577:Drivers/STM32F3xx_HAL_Driver/Src/stm32f3xx_hal_opamp_ex.c ****         { 
 631              		.loc 1 577 12 view .LVU198
 632 0376 13F0804F 		tst	r3, #1073741824
 633 037a C5D0     		beq	.L20
 580:Drivers/STM32F3xx_HAL_Driver/Src/stm32f3xx_hal_opamp_ex.c ****         }
 634              		.loc 1 580 11 is_stmt 1 view .LVU199
 580:Drivers/STM32F3xx_HAL_Driver/Src/stm32f3xx_hal_opamp_ex.c ****         }
 635              		.loc 1 580 27 is_stmt 0 view .LVU200
 636 037c D344     		add	fp, fp, r10
 637              	.LVL36:
 638              	.L21:
 587:Drivers/STM32F3xx_HAL_Driver/Src/stm32f3xx_hal_opamp_ex.c ****         { 
 639              		.loc 1 587 9 is_stmt 1 view .LVU201
 587:Drivers/STM32F3xx_HAL_Driver/Src/stm32f3xx_hal_opamp_ex.c ****         { 
 640              		.loc 1 587 21 is_stmt 0 view .LVU202
 641 037e 3368     		ldr	r3, [r6]
 587:Drivers/STM32F3xx_HAL_Driver/Src/stm32f3xx_hal_opamp_ex.c ****         { 
 642              		.loc 1 587 31 view .LVU203
 643 0380 1B68     		ldr	r3, [r3]
 587:Drivers/STM32F3xx_HAL_Driver/Src/stm32f3xx_hal_opamp_ex.c ****         { 
 644              		.loc 1 587 12 view .LVU204
 645 0382 13F0804F 		tst	r3, #1073741824
 646 0386 C2D0     		beq	.L22
 590:Drivers/STM32F3xx_HAL_Driver/Src/stm32f3xx_hal_opamp_ex.c ****         }
 647              		.loc 1 590 11 is_stmt 1 view .LVU205
 590:Drivers/STM32F3xx_HAL_Driver/Src/stm32f3xx_hal_opamp_ex.c ****         }
 648              		.loc 1 590 27 is_stmt 0 view .LVU206
 649 0388 009B     		ldr	r3, [sp]
 650 038a 5344     		add	r3, r3, r10
 651 038c 0093     		str	r3, [sp]
 652              	.LVL37:
 653              	.L23:
ARM GAS  /var/folders/_1/sgnj6dm57r56n1x62bwb5w5h0000gn/T//ccvwjkBq.s 			page 28


 597:Drivers/STM32F3xx_HAL_Driver/Src/stm32f3xx_hal_opamp_ex.c ****         { 
 654              		.loc 1 597 9 is_stmt 1 view .LVU207
 597:Drivers/STM32F3xx_HAL_Driver/Src/stm32f3xx_hal_opamp_ex.c ****         { 
 655              		.loc 1 597 21 is_stmt 0 view .LVU208
 656 038e 3B68     		ldr	r3, [r7]
 597:Drivers/STM32F3xx_HAL_Driver/Src/stm32f3xx_hal_opamp_ex.c ****         { 
 657              		.loc 1 597 31 view .LVU209
 658 0390 1B68     		ldr	r3, [r3]
 597:Drivers/STM32F3xx_HAL_Driver/Src/stm32f3xx_hal_opamp_ex.c ****         { 
 659              		.loc 1 597 12 view .LVU210
 660 0392 13F0804F 		tst	r3, #1073741824
 661 0396 BFD0     		beq	.L24
 600:Drivers/STM32F3xx_HAL_Driver/Src/stm32f3xx_hal_opamp_ex.c ****         }
 662              		.loc 1 600 11 is_stmt 1 view .LVU211
 600:Drivers/STM32F3xx_HAL_Driver/Src/stm32f3xx_hal_opamp_ex.c ****         }
 663              		.loc 1 600 27 is_stmt 0 view .LVU212
 664 0398 D044     		add	r8, r8, r10
 665              	.LVL38:
 600:Drivers/STM32F3xx_HAL_Driver/Src/stm32f3xx_hal_opamp_ex.c ****         }
 666              		.loc 1 600 27 view .LVU213
 667 039a BFE7     		b	.L25
 668              	.L48:
 600:Drivers/STM32F3xx_HAL_Driver/Src/stm32f3xx_hal_opamp_ex.c ****         }
 669              		.loc 1 600 27 view .LVU214
 670 039c 4946     		mov	r1, r9
 671 039e 5846     		mov	r0, fp
 672 03a0 CDF80CB0 		str	fp, [sp, #12]
 673 03a4 DDF808B0 		ldr	fp, [sp, #8]
 674              	.LVL39:
 600:Drivers/STM32F3xx_HAL_Driver/Src/stm32f3xx_hal_opamp_ex.c ****         }
 675              		.loc 1 600 27 view .LVU215
 676 03a8 DDF81490 		ldr	r9, [sp, #20]
 677              	.LVL40:
 613:Drivers/STM32F3xx_HAL_Driver/Src/stm32f3xx_hal_opamp_ex.c ****       MODIFY_REG(hopamp2->Instance->CSR, OPAMP_CSR_TRIMOFFSETP, trimmingvaluep2<<OPAMP_INPUT_NONINV
 678              		.loc 1 613 7 is_stmt 1 view .LVU216
 679 03ac 2A68     		ldr	r2, [r5]
 680 03ae 1368     		ldr	r3, [r2]
 681 03b0 23F47803 		bic	r3, r3, #16252928
 682 03b4 0291     		str	r1, [sp, #8]
 683              	.LVL41:
 613:Drivers/STM32F3xx_HAL_Driver/Src/stm32f3xx_hal_opamp_ex.c ****       MODIFY_REG(hopamp2->Instance->CSR, OPAMP_CSR_TRIMOFFSETP, trimmingvaluep2<<OPAMP_INPUT_NONINV
 684              		.loc 1 613 7 is_stmt 0 view .LVU217
 685 03b6 43EAC143 		orr	r3, r3, r1, lsl #19
 686 03ba 1360     		str	r3, [r2]
 614:Drivers/STM32F3xx_HAL_Driver/Src/stm32f3xx_hal_opamp_ex.c ****       MODIFY_REG(hopamp3->Instance->CSR, OPAMP_CSR_TRIMOFFSETP, trimmingvaluep3<<OPAMP_INPUT_NONINV
 687              		.loc 1 614 7 is_stmt 1 view .LVU218
 688 03bc 2268     		ldr	r2, [r4]
 689 03be 1368     		ldr	r3, [r2]
 690 03c0 23F47803 		bic	r3, r3, #16252928
 691 03c4 43EAC043 		orr	r3, r3, r0, lsl #19
 692 03c8 1360     		str	r3, [r2]
 615:Drivers/STM32F3xx_HAL_Driver/Src/stm32f3xx_hal_opamp_ex.c ****       MODIFY_REG(hopamp4->Instance->CSR, OPAMP_CSR_TRIMOFFSETP, trimmingvaluep4<<OPAMP_INPUT_NONINV
 693              		.loc 1 615 7 view .LVU219
 694 03ca 3268     		ldr	r2, [r6]
 695 03cc 1368     		ldr	r3, [r2]
 696 03ce 23F47803 		bic	r3, r3, #16252928
 697 03d2 0098     		ldr	r0, [sp]
ARM GAS  /var/folders/_1/sgnj6dm57r56n1x62bwb5w5h0000gn/T//ccvwjkBq.s 			page 29


 698              	.LVL42:
 615:Drivers/STM32F3xx_HAL_Driver/Src/stm32f3xx_hal_opamp_ex.c ****       MODIFY_REG(hopamp4->Instance->CSR, OPAMP_CSR_TRIMOFFSETP, trimmingvaluep4<<OPAMP_INPUT_NONINV
 699              		.loc 1 615 7 is_stmt 0 view .LVU220
 700 03d4 43EAC043 		orr	r3, r3, r0, lsl #19
 701 03d8 1360     		str	r3, [r2]
 616:Drivers/STM32F3xx_HAL_Driver/Src/stm32f3xx_hal_opamp_ex.c **** 
 702              		.loc 1 616 7 is_stmt 1 view .LVU221
 703 03da 3A68     		ldr	r2, [r7]
 704 03dc 1368     		ldr	r3, [r2]
 705 03de 23F47803 		bic	r3, r3, #16252928
 706 03e2 43EAC843 		orr	r3, r3, r8, lsl #19
 707 03e6 1360     		str	r3, [r2]
 621:Drivers/STM32F3xx_HAL_Driver/Src/stm32f3xx_hal_opamp_ex.c ****       
 708              		.loc 1 621 7 view .LVU222
 709 03e8 0220     		movs	r0, #2
 710 03ea FFF7FEFF 		bl	HAL_Delay
 711              	.LVL43:
 623:Drivers/STM32F3xx_HAL_Driver/Src/stm32f3xx_hal_opamp_ex.c ****       { 
 712              		.loc 1 623 7 view .LVU223
 623:Drivers/STM32F3xx_HAL_Driver/Src/stm32f3xx_hal_opamp_ex.c ****       { 
 713              		.loc 1 623 19 is_stmt 0 view .LVU224
 714 03ee 2A68     		ldr	r2, [r5]
 623:Drivers/STM32F3xx_HAL_Driver/Src/stm32f3xx_hal_opamp_ex.c ****       { 
 715              		.loc 1 623 29 view .LVU225
 716 03f0 1368     		ldr	r3, [r2]
 623:Drivers/STM32F3xx_HAL_Driver/Src/stm32f3xx_hal_opamp_ex.c ****       { 
 717              		.loc 1 623 10 view .LVU226
 718 03f2 13F0804F 		tst	r3, #1073741824
 719 03f6 08D0     		beq	.L27
 626:Drivers/STM32F3xx_HAL_Driver/Src/stm32f3xx_hal_opamp_ex.c ****         /* Set right trimming */
 720              		.loc 1 626 9 is_stmt 1 view .LVU227
 626:Drivers/STM32F3xx_HAL_Driver/Src/stm32f3xx_hal_opamp_ex.c ****         /* Set right trimming */
 721              		.loc 1 626 24 is_stmt 0 view .LVU228
 722 03f8 0299     		ldr	r1, [sp, #8]
 723 03fa 0131     		adds	r1, r1, #1
 724 03fc 0291     		str	r1, [sp, #8]
 725              	.LVL44:
 628:Drivers/STM32F3xx_HAL_Driver/Src/stm32f3xx_hal_opamp_ex.c ****       }
 726              		.loc 1 628 9 is_stmt 1 view .LVU229
 727 03fe 1368     		ldr	r3, [r2]
 728 0400 23F47803 		bic	r3, r3, #16252928
 729 0404 43EAC143 		orr	r3, r3, r1, lsl #19
 730 0408 1360     		str	r3, [r2]
 731              	.LVL45:
 732              	.L27:
 631:Drivers/STM32F3xx_HAL_Driver/Src/stm32f3xx_hal_opamp_ex.c ****       { 
 733              		.loc 1 631 7 view .LVU230
 631:Drivers/STM32F3xx_HAL_Driver/Src/stm32f3xx_hal_opamp_ex.c ****       { 
 734              		.loc 1 631 19 is_stmt 0 view .LVU231
 735 040a 2268     		ldr	r2, [r4]
 631:Drivers/STM32F3xx_HAL_Driver/Src/stm32f3xx_hal_opamp_ex.c ****       { 
 736              		.loc 1 631 29 view .LVU232
 737 040c 1368     		ldr	r3, [r2]
 631:Drivers/STM32F3xx_HAL_Driver/Src/stm32f3xx_hal_opamp_ex.c ****       { 
 738              		.loc 1 631 10 view .LVU233
 739 040e 13F0804F 		tst	r3, #1073741824
 740 0412 08D0     		beq	.L28
ARM GAS  /var/folders/_1/sgnj6dm57r56n1x62bwb5w5h0000gn/T//ccvwjkBq.s 			page 30


 634:Drivers/STM32F3xx_HAL_Driver/Src/stm32f3xx_hal_opamp_ex.c ****         /* Set right trimming */
 741              		.loc 1 634 9 is_stmt 1 view .LVU234
 634:Drivers/STM32F3xx_HAL_Driver/Src/stm32f3xx_hal_opamp_ex.c ****         /* Set right trimming */
 742              		.loc 1 634 24 is_stmt 0 view .LVU235
 743 0414 0399     		ldr	r1, [sp, #12]
 744 0416 0131     		adds	r1, r1, #1
 745 0418 0391     		str	r1, [sp, #12]
 746              	.LVL46:
 636:Drivers/STM32F3xx_HAL_Driver/Src/stm32f3xx_hal_opamp_ex.c ****       }
 747              		.loc 1 636 9 is_stmt 1 view .LVU236
 748 041a 1368     		ldr	r3, [r2]
 749 041c 23F47803 		bic	r3, r3, #16252928
 750 0420 43EAC143 		orr	r3, r3, r1, lsl #19
 751 0424 1360     		str	r3, [r2]
 752              	.LVL47:
 753              	.L28:
 639:Drivers/STM32F3xx_HAL_Driver/Src/stm32f3xx_hal_opamp_ex.c ****       { 
 754              		.loc 1 639 7 view .LVU237
 639:Drivers/STM32F3xx_HAL_Driver/Src/stm32f3xx_hal_opamp_ex.c ****       { 
 755              		.loc 1 639 19 is_stmt 0 view .LVU238
 756 0426 3268     		ldr	r2, [r6]
 639:Drivers/STM32F3xx_HAL_Driver/Src/stm32f3xx_hal_opamp_ex.c ****       { 
 757              		.loc 1 639 29 view .LVU239
 758 0428 1368     		ldr	r3, [r2]
 639:Drivers/STM32F3xx_HAL_Driver/Src/stm32f3xx_hal_opamp_ex.c ****       { 
 759              		.loc 1 639 10 view .LVU240
 760 042a 13F0804F 		tst	r3, #1073741824
 761 042e 08D0     		beq	.L29
 642:Drivers/STM32F3xx_HAL_Driver/Src/stm32f3xx_hal_opamp_ex.c ****         /* Set right trimming */
 762              		.loc 1 642 9 is_stmt 1 view .LVU241
 642:Drivers/STM32F3xx_HAL_Driver/Src/stm32f3xx_hal_opamp_ex.c ****         /* Set right trimming */
 763              		.loc 1 642 24 is_stmt 0 view .LVU242
 764 0430 0099     		ldr	r1, [sp]
 765 0432 0131     		adds	r1, r1, #1
 766 0434 0091     		str	r1, [sp]
 767              	.LVL48:
 644:Drivers/STM32F3xx_HAL_Driver/Src/stm32f3xx_hal_opamp_ex.c ****       }
 768              		.loc 1 644 9 is_stmt 1 view .LVU243
 769 0436 1368     		ldr	r3, [r2]
 770 0438 23F47803 		bic	r3, r3, #16252928
 771 043c 43EAC143 		orr	r3, r3, r1, lsl #19
 772 0440 1360     		str	r3, [r2]
 773              	.LVL49:
 774              	.L29:
 647:Drivers/STM32F3xx_HAL_Driver/Src/stm32f3xx_hal_opamp_ex.c ****       { 
 775              		.loc 1 647 7 view .LVU244
 647:Drivers/STM32F3xx_HAL_Driver/Src/stm32f3xx_hal_opamp_ex.c ****       { 
 776              		.loc 1 647 19 is_stmt 0 view .LVU245
 777 0442 3A68     		ldr	r2, [r7]
 647:Drivers/STM32F3xx_HAL_Driver/Src/stm32f3xx_hal_opamp_ex.c ****       { 
 778              		.loc 1 647 29 view .LVU246
 779 0444 1368     		ldr	r3, [r2]
 647:Drivers/STM32F3xx_HAL_Driver/Src/stm32f3xx_hal_opamp_ex.c ****       { 
 780              		.loc 1 647 10 view .LVU247
 781 0446 13F0804F 		tst	r3, #1073741824
 782 044a 07D0     		beq	.L30
 650:Drivers/STM32F3xx_HAL_Driver/Src/stm32f3xx_hal_opamp_ex.c ****         /* Set right trimming */
ARM GAS  /var/folders/_1/sgnj6dm57r56n1x62bwb5w5h0000gn/T//ccvwjkBq.s 			page 31


 783              		.loc 1 650 9 is_stmt 1 view .LVU248
 650:Drivers/STM32F3xx_HAL_Driver/Src/stm32f3xx_hal_opamp_ex.c ****         /* Set right trimming */
 784              		.loc 1 650 24 is_stmt 0 view .LVU249
 785 044c 08F10108 		add	r8, r8, #1
 786              	.LVL50:
 652:Drivers/STM32F3xx_HAL_Driver/Src/stm32f3xx_hal_opamp_ex.c ****       }
 787              		.loc 1 652 9 is_stmt 1 view .LVU250
 788 0450 1368     		ldr	r3, [r2]
 789 0452 23F47803 		bic	r3, r3, #16252928
 790 0456 43EAC843 		orr	r3, r3, r8, lsl #19
 791 045a 1360     		str	r3, [r2]
 792              	.L30:
 656:Drivers/STM32F3xx_HAL_Driver/Src/stm32f3xx_hal_opamp_ex.c ****       CLEAR_BIT (hopamp2->Instance->CSR, OPAMP_CSR_CALON);
 793              		.loc 1 656 7 view .LVU251
 794 045c 2A68     		ldr	r2, [r5]
 795 045e 1368     		ldr	r3, [r2]
 796 0460 23F40063 		bic	r3, r3, #2048
 797 0464 1360     		str	r3, [r2]
 657:Drivers/STM32F3xx_HAL_Driver/Src/stm32f3xx_hal_opamp_ex.c ****       CLEAR_BIT (hopamp3->Instance->CSR, OPAMP_CSR_CALON);
 798              		.loc 1 657 7 view .LVU252
 799 0466 2268     		ldr	r2, [r4]
 800 0468 1368     		ldr	r3, [r2]
 801 046a 23F40063 		bic	r3, r3, #2048
 802 046e 1360     		str	r3, [r2]
 658:Drivers/STM32F3xx_HAL_Driver/Src/stm32f3xx_hal_opamp_ex.c ****       CLEAR_BIT (hopamp4->Instance->CSR, OPAMP_CSR_CALON);
 803              		.loc 1 658 7 view .LVU253
 804 0470 3268     		ldr	r2, [r6]
 805 0472 1368     		ldr	r3, [r2]
 806 0474 23F40063 		bic	r3, r3, #2048
 807 0478 1360     		str	r3, [r2]
 659:Drivers/STM32F3xx_HAL_Driver/Src/stm32f3xx_hal_opamp_ex.c **** 
 808              		.loc 1 659 7 view .LVU254
 809 047a 3A68     		ldr	r2, [r7]
 810 047c 1368     		ldr	r3, [r2]
 811 047e 23F40063 		bic	r3, r3, #2048
 812 0482 1360     		str	r3, [r2]
 662:Drivers/STM32F3xx_HAL_Driver/Src/stm32f3xx_hal_opamp_ex.c ****       CLEAR_BIT (hopamp2->Instance->CSR, OPAMP_CSR_OPAMPxEN);
 813              		.loc 1 662 7 view .LVU255
 814 0484 2A68     		ldr	r2, [r5]
 815 0486 1368     		ldr	r3, [r2]
 816 0488 23F00103 		bic	r3, r3, #1
 817 048c 1360     		str	r3, [r2]
 663:Drivers/STM32F3xx_HAL_Driver/Src/stm32f3xx_hal_opamp_ex.c ****       CLEAR_BIT (hopamp3->Instance->CSR, OPAMP_CSR_OPAMPxEN);
 818              		.loc 1 663 7 view .LVU256
 819 048e 2268     		ldr	r2, [r4]
 820 0490 1368     		ldr	r3, [r2]
 821 0492 23F00103 		bic	r3, r3, #1
 822 0496 1360     		str	r3, [r2]
 664:Drivers/STM32F3xx_HAL_Driver/Src/stm32f3xx_hal_opamp_ex.c ****       CLEAR_BIT (hopamp4->Instance->CSR, OPAMP_CSR_OPAMPxEN);
 823              		.loc 1 664 7 view .LVU257
 824 0498 3268     		ldr	r2, [r6]
 825 049a 1368     		ldr	r3, [r2]
 826 049c 23F00103 		bic	r3, r3, #1
 827 04a0 1360     		str	r3, [r2]
 665:Drivers/STM32F3xx_HAL_Driver/Src/stm32f3xx_hal_opamp_ex.c **** 
 828              		.loc 1 665 7 view .LVU258
 829 04a2 3A68     		ldr	r2, [r7]
ARM GAS  /var/folders/_1/sgnj6dm57r56n1x62bwb5w5h0000gn/T//ccvwjkBq.s 			page 32


 830 04a4 1368     		ldr	r3, [r2]
 831 04a6 23F00103 		bic	r3, r3, #1
 832 04aa 1360     		str	r3, [r2]
 668:Drivers/STM32F3xx_HAL_Driver/Src/stm32f3xx_hal_opamp_ex.c ****       CLEAR_BIT(hopamp2->Instance->CSR, OPAMP_CSR_FORCEVP);
 833              		.loc 1 668 7 view .LVU259
 834 04ac 2A68     		ldr	r2, [r5]
 835 04ae 1368     		ldr	r3, [r2]
 836 04b0 23F00203 		bic	r3, r3, #2
 837 04b4 1360     		str	r3, [r2]
 669:Drivers/STM32F3xx_HAL_Driver/Src/stm32f3xx_hal_opamp_ex.c ****       CLEAR_BIT(hopamp3->Instance->CSR, OPAMP_CSR_FORCEVP);
 838              		.loc 1 669 7 view .LVU260
 839 04b6 2268     		ldr	r2, [r4]
 840 04b8 1368     		ldr	r3, [r2]
 841 04ba 23F00203 		bic	r3, r3, #2
 842 04be 1360     		str	r3, [r2]
 670:Drivers/STM32F3xx_HAL_Driver/Src/stm32f3xx_hal_opamp_ex.c ****       CLEAR_BIT(hopamp4->Instance->CSR, OPAMP_CSR_FORCEVP);
 843              		.loc 1 670 7 view .LVU261
 844 04c0 3268     		ldr	r2, [r6]
 845 04c2 1368     		ldr	r3, [r2]
 846 04c4 23F00203 		bic	r3, r3, #2
 847 04c8 1360     		str	r3, [r2]
 671:Drivers/STM32F3xx_HAL_Driver/Src/stm32f3xx_hal_opamp_ex.c ****       
 848              		.loc 1 671 7 view .LVU262
 849 04ca 3A68     		ldr	r2, [r7]
 850 04cc 1368     		ldr	r3, [r2]
 851 04ce 23F00203 		bic	r3, r3, #2
 852 04d2 1360     		str	r3, [r2]
 678:Drivers/STM32F3xx_HAL_Driver/Src/stm32f3xx_hal_opamp_ex.c ****       hopamp2->Init.TrimmingValueN = trimmingvaluen2;
 853              		.loc 1 678 7 view .LVU263
 678:Drivers/STM32F3xx_HAL_Driver/Src/stm32f3xx_hal_opamp_ex.c ****       hopamp2->Init.TrimmingValueN = trimmingvaluen2;
 854              		.loc 1 678 36 is_stmt 0 view .LVU264
 855 04d4 C5F82CB0 		str	fp, [r5, #44]
 679:Drivers/STM32F3xx_HAL_Driver/Src/stm32f3xx_hal_opamp_ex.c ****       hopamp3->Init.TrimmingValueN = trimmingvaluen3;
 856              		.loc 1 679 7 is_stmt 1 view .LVU265
 679:Drivers/STM32F3xx_HAL_Driver/Src/stm32f3xx_hal_opamp_ex.c ****       hopamp3->Init.TrimmingValueN = trimmingvaluen3;
 857              		.loc 1 679 36 is_stmt 0 view .LVU266
 858 04d8 0199     		ldr	r1, [sp, #4]
 859 04da E162     		str	r1, [r4, #44]
 680:Drivers/STM32F3xx_HAL_Driver/Src/stm32f3xx_hal_opamp_ex.c ****       hopamp4->Init.TrimmingValueN = trimmingvaluen4;
 860              		.loc 1 680 7 is_stmt 1 view .LVU267
 680:Drivers/STM32F3xx_HAL_Driver/Src/stm32f3xx_hal_opamp_ex.c ****       hopamp4->Init.TrimmingValueN = trimmingvaluen4;
 861              		.loc 1 680 36 is_stmt 0 view .LVU268
 862 04dc 0498     		ldr	r0, [sp, #16]
 863 04de F062     		str	r0, [r6, #44]
 681:Drivers/STM32F3xx_HAL_Driver/Src/stm32f3xx_hal_opamp_ex.c ****      
 864              		.loc 1 681 7 is_stmt 1 view .LVU269
 681:Drivers/STM32F3xx_HAL_Driver/Src/stm32f3xx_hal_opamp_ex.c ****      
 865              		.loc 1 681 36 is_stmt 0 view .LVU270
 866 04e0 C7F82C90 		str	r9, [r7, #44]
 684:Drivers/STM32F3xx_HAL_Driver/Src/stm32f3xx_hal_opamp_ex.c ****       hopamp2->Init.TrimmingValueP = trimmingvaluep2;
 867              		.loc 1 684 7 is_stmt 1 view .LVU271
 684:Drivers/STM32F3xx_HAL_Driver/Src/stm32f3xx_hal_opamp_ex.c ****       hopamp2->Init.TrimmingValueP = trimmingvaluep2;
 868              		.loc 1 684 36 is_stmt 0 view .LVU272
 869 04e4 029B     		ldr	r3, [sp, #8]
 870 04e6 AB62     		str	r3, [r5, #40]
 685:Drivers/STM32F3xx_HAL_Driver/Src/stm32f3xx_hal_opamp_ex.c ****       hopamp3->Init.TrimmingValueP = trimmingvaluep3;
 871              		.loc 1 685 7 is_stmt 1 view .LVU273
ARM GAS  /var/folders/_1/sgnj6dm57r56n1x62bwb5w5h0000gn/T//ccvwjkBq.s 			page 33


 685:Drivers/STM32F3xx_HAL_Driver/Src/stm32f3xx_hal_opamp_ex.c ****       hopamp3->Init.TrimmingValueP = trimmingvaluep3;
 872              		.loc 1 685 36 is_stmt 0 view .LVU274
 873 04e8 039A     		ldr	r2, [sp, #12]
 874 04ea A262     		str	r2, [r4, #40]
 686:Drivers/STM32F3xx_HAL_Driver/Src/stm32f3xx_hal_opamp_ex.c ****       hopamp4->Init.TrimmingValueP = trimmingvaluep4;
 875              		.loc 1 686 7 is_stmt 1 view .LVU275
 686:Drivers/STM32F3xx_HAL_Driver/Src/stm32f3xx_hal_opamp_ex.c ****       hopamp4->Init.TrimmingValueP = trimmingvaluep4;
 876              		.loc 1 686 36 is_stmt 0 view .LVU276
 877 04ec 009B     		ldr	r3, [sp]
 878 04ee B362     		str	r3, [r6, #40]
 687:Drivers/STM32F3xx_HAL_Driver/Src/stm32f3xx_hal_opamp_ex.c ****             
 879              		.loc 1 687 7 is_stmt 1 view .LVU277
 687:Drivers/STM32F3xx_HAL_Driver/Src/stm32f3xx_hal_opamp_ex.c ****             
 880              		.loc 1 687 36 is_stmt 0 view .LVU278
 881 04f0 C7F82880 		str	r8, [r7, #40]
 691:Drivers/STM32F3xx_HAL_Driver/Src/stm32f3xx_hal_opamp_ex.c ****       hopamp2->Init.UserTrimming = OPAMP_TRIMMING_USER;
 882              		.loc 1 691 7 is_stmt 1 view .LVU279
 691:Drivers/STM32F3xx_HAL_Driver/Src/stm32f3xx_hal_opamp_ex.c ****       hopamp2->Init.UserTrimming = OPAMP_TRIMMING_USER;
 883              		.loc 1 691 34 is_stmt 0 view .LVU280
 884 04f4 4FF48023 		mov	r3, #262144
 885 04f8 6B62     		str	r3, [r5, #36]
 692:Drivers/STM32F3xx_HAL_Driver/Src/stm32f3xx_hal_opamp_ex.c ****       hopamp3->Init.UserTrimming = OPAMP_TRIMMING_USER;
 886              		.loc 1 692 7 is_stmt 1 view .LVU281
 692:Drivers/STM32F3xx_HAL_Driver/Src/stm32f3xx_hal_opamp_ex.c ****       hopamp3->Init.UserTrimming = OPAMP_TRIMMING_USER;
 887              		.loc 1 692 34 is_stmt 0 view .LVU282
 888 04fa 6362     		str	r3, [r4, #36]
 693:Drivers/STM32F3xx_HAL_Driver/Src/stm32f3xx_hal_opamp_ex.c ****       hopamp4->Init.UserTrimming = OPAMP_TRIMMING_USER;
 889              		.loc 1 693 7 is_stmt 1 view .LVU283
 693:Drivers/STM32F3xx_HAL_Driver/Src/stm32f3xx_hal_opamp_ex.c ****       hopamp4->Init.UserTrimming = OPAMP_TRIMMING_USER;
 890              		.loc 1 693 34 is_stmt 0 view .LVU284
 891 04fc 7362     		str	r3, [r6, #36]
 694:Drivers/STM32F3xx_HAL_Driver/Src/stm32f3xx_hal_opamp_ex.c ****            
 892              		.loc 1 694 7 is_stmt 1 view .LVU285
 694:Drivers/STM32F3xx_HAL_Driver/Src/stm32f3xx_hal_opamp_ex.c ****            
 893              		.loc 1 694 34 is_stmt 0 view .LVU286
 894 04fe 7B62     		str	r3, [r7, #36]
 696:Drivers/STM32F3xx_HAL_Driver/Src/stm32f3xx_hal_opamp_ex.c ****       MODIFY_REG(hopamp2->Instance->CSR, OPAMP_CSR_TRIMOFFSETN, trimmingvaluen2<<OPAMP_INPUT_INVERT
 895              		.loc 1 696 7 is_stmt 1 view .LVU287
 896 0500 2A68     		ldr	r2, [r5]
 897 0502 1368     		ldr	r3, [r2]
 898 0504 23F0F853 		bic	r3, r3, #520093696
 899 0508 43EA0B63 		orr	r3, r3, fp, lsl #24
 900 050c 1360     		str	r3, [r2]
 697:Drivers/STM32F3xx_HAL_Driver/Src/stm32f3xx_hal_opamp_ex.c ****       MODIFY_REG(hopamp3->Instance->CSR, OPAMP_CSR_TRIMOFFSETN, trimmingvaluen3<<OPAMP_INPUT_INVERT
 901              		.loc 1 697 7 view .LVU288
 902 050e 2268     		ldr	r2, [r4]
 903 0510 1368     		ldr	r3, [r2]
 904 0512 23F0F853 		bic	r3, r3, #520093696
 905 0516 43EA0163 		orr	r3, r3, r1, lsl #24
 906 051a 1360     		str	r3, [r2]
 698:Drivers/STM32F3xx_HAL_Driver/Src/stm32f3xx_hal_opamp_ex.c ****       MODIFY_REG(hopamp4->Instance->CSR, OPAMP_CSR_TRIMOFFSETN, trimmingvaluen4<<OPAMP_INPUT_INVERT
 907              		.loc 1 698 7 view .LVU289
 908 051c 3268     		ldr	r2, [r6]
 909 051e 1368     		ldr	r3, [r2]
 910 0520 23F0F853 		bic	r3, r3, #520093696
 911 0524 43EA0063 		orr	r3, r3, r0, lsl #24
 912 0528 1360     		str	r3, [r2]
ARM GAS  /var/folders/_1/sgnj6dm57r56n1x62bwb5w5h0000gn/T//ccvwjkBq.s 			page 34


 699:Drivers/STM32F3xx_HAL_Driver/Src/stm32f3xx_hal_opamp_ex.c ****      
 913              		.loc 1 699 7 view .LVU290
 914 052a 3A68     		ldr	r2, [r7]
 915 052c 1368     		ldr	r3, [r2]
 916 052e 23F0F853 		bic	r3, r3, #520093696
 917 0532 43EA0963 		orr	r3, r3, r9, lsl #24
 918 0536 1360     		str	r3, [r2]
 701:Drivers/STM32F3xx_HAL_Driver/Src/stm32f3xx_hal_opamp_ex.c ****       MODIFY_REG(hopamp2->Instance->CSR, OPAMP_CSR_TRIMOFFSETP, trimmingvaluep2<<OPAMP_INPUT_NONINV
 919              		.loc 1 701 7 view .LVU291
 920 0538 2A68     		ldr	r2, [r5]
 921 053a 1368     		ldr	r3, [r2]
 922 053c 23F47803 		bic	r3, r3, #16252928
 923 0540 0299     		ldr	r1, [sp, #8]
 924 0542 43EAC143 		orr	r3, r3, r1, lsl #19
 925 0546 1360     		str	r3, [r2]
 702:Drivers/STM32F3xx_HAL_Driver/Src/stm32f3xx_hal_opamp_ex.c ****       MODIFY_REG(hopamp3->Instance->CSR, OPAMP_CSR_TRIMOFFSETP, trimmingvaluep3<<OPAMP_INPUT_NONINV
 926              		.loc 1 702 7 view .LVU292
 927 0548 2268     		ldr	r2, [r4]
 928 054a 1368     		ldr	r3, [r2]
 929 054c 23F47803 		bic	r3, r3, #16252928
 930 0550 0399     		ldr	r1, [sp, #12]
 931 0552 43EAC143 		orr	r3, r3, r1, lsl #19
 932 0556 1360     		str	r3, [r2]
 703:Drivers/STM32F3xx_HAL_Driver/Src/stm32f3xx_hal_opamp_ex.c ****       MODIFY_REG(hopamp4->Instance->CSR, OPAMP_CSR_TRIMOFFSETP, trimmingvaluep4<<OPAMP_INPUT_NONINV
 933              		.loc 1 703 7 view .LVU293
 934 0558 3268     		ldr	r2, [r6]
 935 055a 1368     		ldr	r3, [r2]
 936 055c 23F47803 		bic	r3, r3, #16252928
 937 0560 0099     		ldr	r1, [sp]
 938 0562 43EAC143 		orr	r3, r3, r1, lsl #19
 939 0566 1360     		str	r3, [r2]
 704:Drivers/STM32F3xx_HAL_Driver/Src/stm32f3xx_hal_opamp_ex.c ****     
 940              		.loc 1 704 7 view .LVU294
 941 0568 3A68     		ldr	r2, [r7]
 942 056a 1368     		ldr	r3, [r2]
 943 056c 23F47803 		bic	r3, r3, #16252928
 944 0570 43EAC843 		orr	r3, r3, r8, lsl #19
 945 0574 1360     		str	r3, [r2]
 361:Drivers/STM32F3xx_HAL_Driver/Src/stm32f3xx_hal_opamp_ex.c ****   
 946              		.loc 1 361 21 is_stmt 0 view .LVU295
 947 0576 0020     		movs	r0, #0
 704:Drivers/STM32F3xx_HAL_Driver/Src/stm32f3xx_hal_opamp_ex.c ****     
 948              		.loc 1 704 7 view .LVU296
 949 0578 02E0     		b	.L2
 950              	.LVL51:
 951              	.L31:
 952              	.LCFI2:
 953              		.cfi_def_cfa_offset 0
 954              		.cfi_restore 4
 955              		.cfi_restore 5
 956              		.cfi_restore 6
 957              		.cfi_restore 7
 958              		.cfi_restore 8
 959              		.cfi_restore 9
 960              		.cfi_restore 10
 961              		.cfi_restore 11
 962              		.cfi_restore 14
ARM GAS  /var/folders/_1/sgnj6dm57r56n1x62bwb5w5h0000gn/T//ccvwjkBq.s 			page 35


 379:Drivers/STM32F3xx_HAL_Driver/Src/stm32f3xx_hal_opamp_ex.c ****   }
 963              		.loc 1 379 12 view .LVU297
 964 057a 0120     		movs	r0, #1
 965              	.LVL52:
 712:Drivers/STM32F3xx_HAL_Driver/Src/stm32f3xx_hal_opamp_ex.c ****     }   
 713:Drivers/STM32F3xx_HAL_Driver/Src/stm32f3xx_hal_opamp_ex.c ****   }
 714:Drivers/STM32F3xx_HAL_Driver/Src/stm32f3xx_hal_opamp_ex.c ****   
 715:Drivers/STM32F3xx_HAL_Driver/Src/stm32f3xx_hal_opamp_ex.c ****   return status;
 966              		.loc 1 715 3 is_stmt 1 view .LVU298
 716:Drivers/STM32F3xx_HAL_Driver/Src/stm32f3xx_hal_opamp_ex.c **** }
 967              		.loc 1 716 1 is_stmt 0 view .LVU299
 968 057c 7047     		bx	lr
 969              	.LVL53:
 970              	.L32:
 971              	.LCFI3:
 972              		.cfi_def_cfa_offset 64
 973              		.cfi_offset 4, -36
 974              		.cfi_offset 5, -32
 975              		.cfi_offset 6, -28
 976              		.cfi_offset 7, -24
 977              		.cfi_offset 8, -20
 978              		.cfi_offset 9, -16
 979              		.cfi_offset 10, -12
 980              		.cfi_offset 11, -8
 981              		.cfi_offset 14, -4
 379:Drivers/STM32F3xx_HAL_Driver/Src/stm32f3xx_hal_opamp_ex.c ****   }
 982              		.loc 1 379 12 view .LVU300
 983 057e 0120     		movs	r0, #1
 984              	.LVL54:
 985              	.L2:
 715:Drivers/STM32F3xx_HAL_Driver/Src/stm32f3xx_hal_opamp_ex.c **** }
 986              		.loc 1 715 3 is_stmt 1 view .LVU301
 987              		.loc 1 716 1 is_stmt 0 view .LVU302
 988 0580 07B0     		add	sp, sp, #28
 989              	.LCFI4:
 990              		.cfi_remember_state
 991              		.cfi_def_cfa_offset 36
 992              		@ sp needed
 993 0582 BDE8F08F 		pop	{r4, r5, r6, r7, r8, r9, r10, fp, pc}
 994              	.LVL55:
 995              	.L33:
 996              	.LCFI5:
 997              		.cfi_restore_state
 379:Drivers/STM32F3xx_HAL_Driver/Src/stm32f3xx_hal_opamp_ex.c ****   }
 998              		.loc 1 379 12 view .LVU303
 999 0586 0120     		movs	r0, #1
 1000 0588 FAE7     		b	.L2
 1001              	.L34:
 1002 058a 0120     		movs	r0, #1
 1003 058c F8E7     		b	.L2
 1004              	.L35:
 1005 058e 0120     		movs	r0, #1
 1006 0590 F6E7     		b	.L2
 1007              	.L36:
 1008 0592 0120     		movs	r0, #1
 1009 0594 F4E7     		b	.L2
 1010              	.L37:
ARM GAS  /var/folders/_1/sgnj6dm57r56n1x62bwb5w5h0000gn/T//ccvwjkBq.s 			page 36


 1011 0596 0120     		movs	r0, #1
 1012 0598 F2E7     		b	.L2
 1013              	.L38:
 1014 059a 0120     		movs	r0, #1
 1015 059c F0E7     		b	.L2
 1016              		.cfi_endproc
 1017              	.LFE126:
 1019              		.text
 1020              	.Letext0:
 1021              		.file 2 "/usr/local/opt/gcc-arm-none-eabi-8-2019-q3-update/arm-none-eabi/include/machine/_default_
 1022              		.file 3 "/usr/local/opt/gcc-arm-none-eabi-8-2019-q3-update/arm-none-eabi/include/sys/_stdint.h"
 1023              		.file 4 "Drivers/CMSIS/Include/core_cm4.h"
 1024              		.file 5 "Drivers/CMSIS/Device/ST/STM32F3xx/Include/system_stm32f3xx.h"
 1025              		.file 6 "Drivers/CMSIS/Device/ST/STM32F3xx/Include/stm32f303xc.h"
 1026              		.file 7 "/usr/local/opt/gcc-arm-none-eabi-8-2019-q3-update/lib/gcc/arm-none-eabi/8.3.1/include/std
 1027              		.file 8 "/usr/local/opt/gcc-arm-none-eabi-8-2019-q3-update/arm-none-eabi/include/sys/_types.h"
 1028              		.file 9 "/usr/local/opt/gcc-arm-none-eabi-8-2019-q3-update/arm-none-eabi/include/sys/reent.h"
 1029              		.file 10 "/usr/local/opt/gcc-arm-none-eabi-8-2019-q3-update/arm-none-eabi/include/sys/lock.h"
 1030              		.file 11 "Drivers/CMSIS/Device/ST/STM32F3xx/Include/stm32f3xx.h"
 1031              		.file 12 "Drivers/STM32F3xx_HAL_Driver/Inc/stm32f3xx_hal_def.h"
 1032              		.file 13 "Drivers/STM32F3xx_HAL_Driver/Inc/stm32f3xx_hal_opamp.h"
 1033              		.file 14 "Drivers/STM32F3xx_HAL_Driver/Inc/stm32f3xx_hal.h"
ARM GAS  /var/folders/_1/sgnj6dm57r56n1x62bwb5w5h0000gn/T//ccvwjkBq.s 			page 37

