ARM GAS  /var/folders/md/lgcc8l7571l9vt9sx0g0zflw0000gn/T//ccyhNZ7g.s 			page 1


   1              		.cpu cortex-m4
   2              		.eabi_attribute 27, 1
   3              		.eabi_attribute 28, 1
   4              		.eabi_attribute 20, 1
   5              		.eabi_attribute 21, 1
   6              		.eabi_attribute 23, 3
   7              		.eabi_attribute 24, 1
   8              		.eabi_attribute 25, 1
   9              		.eabi_attribute 26, 1
  10              		.eabi_attribute 30, 1
  11              		.eabi_attribute 34, 1
  12              		.eabi_attribute 18, 4
  13              		.file	"stm32f3xx_hal_flash_ex.c"
  14              		.text
  15              	.Ltext0:
  16              		.cfi_sections	.debug_frame
  17              		.section	.text.FLASH_MassErase,"ax",%progbits
  18              		.align	1
  19              		.arch armv7e-m
  20              		.syntax unified
  21              		.thumb
  22              		.thumb_func
  23              		.fpu fpv4-sp-d16
  25              	FLASH_MassErase:
  26              	.LFB132:
  27              		.file 1 "Drivers/STM32F3xx_HAL_Driver/Src/stm32f3xx_hal_flash_ex.c"
   1:Drivers/STM32F3xx_HAL_Driver/Src/stm32f3xx_hal_flash_ex.c **** /**
   2:Drivers/STM32F3xx_HAL_Driver/Src/stm32f3xx_hal_flash_ex.c ****   ******************************************************************************
   3:Drivers/STM32F3xx_HAL_Driver/Src/stm32f3xx_hal_flash_ex.c ****   * @file    stm32f3xx_hal_flash_ex.c
   4:Drivers/STM32F3xx_HAL_Driver/Src/stm32f3xx_hal_flash_ex.c ****   * @author  MCD Application Team
   5:Drivers/STM32F3xx_HAL_Driver/Src/stm32f3xx_hal_flash_ex.c ****   * @brief   Extended FLASH HAL module driver.
   6:Drivers/STM32F3xx_HAL_Driver/Src/stm32f3xx_hal_flash_ex.c ****   *    
   7:Drivers/STM32F3xx_HAL_Driver/Src/stm32f3xx_hal_flash_ex.c ****   *          This file provides firmware functions to manage the following 
   8:Drivers/STM32F3xx_HAL_Driver/Src/stm32f3xx_hal_flash_ex.c ****   *          functionalities of the FLASH peripheral:
   9:Drivers/STM32F3xx_HAL_Driver/Src/stm32f3xx_hal_flash_ex.c ****   *           + Extended Initialization/de-initialization functions
  10:Drivers/STM32F3xx_HAL_Driver/Src/stm32f3xx_hal_flash_ex.c ****   *           + Extended I/O operation functions
  11:Drivers/STM32F3xx_HAL_Driver/Src/stm32f3xx_hal_flash_ex.c ****   *           + Extended Peripheral Control functions 
  12:Drivers/STM32F3xx_HAL_Driver/Src/stm32f3xx_hal_flash_ex.c ****   *         
  13:Drivers/STM32F3xx_HAL_Driver/Src/stm32f3xx_hal_flash_ex.c ****   @verbatim
  14:Drivers/STM32F3xx_HAL_Driver/Src/stm32f3xx_hal_flash_ex.c ****   ==============================================================================
  15:Drivers/STM32F3xx_HAL_Driver/Src/stm32f3xx_hal_flash_ex.c ****                ##### Flash peripheral extended features  #####
  16:Drivers/STM32F3xx_HAL_Driver/Src/stm32f3xx_hal_flash_ex.c ****   ==============================================================================
  17:Drivers/STM32F3xx_HAL_Driver/Src/stm32f3xx_hal_flash_ex.c ****            
  18:Drivers/STM32F3xx_HAL_Driver/Src/stm32f3xx_hal_flash_ex.c ****                       ##### How to use this driver #####
  19:Drivers/STM32F3xx_HAL_Driver/Src/stm32f3xx_hal_flash_ex.c ****   ==============================================================================
  20:Drivers/STM32F3xx_HAL_Driver/Src/stm32f3xx_hal_flash_ex.c ****   [..] This driver provides functions to configure and program the FLASH memory 
  21:Drivers/STM32F3xx_HAL_Driver/Src/stm32f3xx_hal_flash_ex.c ****        of all STM32F3xxx devices. It includes
  22:Drivers/STM32F3xx_HAL_Driver/Src/stm32f3xx_hal_flash_ex.c ****        
  23:Drivers/STM32F3xx_HAL_Driver/Src/stm32f3xx_hal_flash_ex.c ****         (++) Set/Reset the write protection
  24:Drivers/STM32F3xx_HAL_Driver/Src/stm32f3xx_hal_flash_ex.c ****         (++) Program the user Option Bytes
  25:Drivers/STM32F3xx_HAL_Driver/Src/stm32f3xx_hal_flash_ex.c ****         (++) Get the Read protection Level
  26:Drivers/STM32F3xx_HAL_Driver/Src/stm32f3xx_hal_flash_ex.c ****   
  27:Drivers/STM32F3xx_HAL_Driver/Src/stm32f3xx_hal_flash_ex.c ****   @endverbatim
  28:Drivers/STM32F3xx_HAL_Driver/Src/stm32f3xx_hal_flash_ex.c ****   ******************************************************************************
  29:Drivers/STM32F3xx_HAL_Driver/Src/stm32f3xx_hal_flash_ex.c ****   * @attention
  30:Drivers/STM32F3xx_HAL_Driver/Src/stm32f3xx_hal_flash_ex.c ****   *
  31:Drivers/STM32F3xx_HAL_Driver/Src/stm32f3xx_hal_flash_ex.c ****   * <h2><center>&copy; COPYRIGHT(c) 2016 STMicroelectronics</center></h2>
ARM GAS  /var/folders/md/lgcc8l7571l9vt9sx0g0zflw0000gn/T//ccyhNZ7g.s 			page 2


  32:Drivers/STM32F3xx_HAL_Driver/Src/stm32f3xx_hal_flash_ex.c ****   *
  33:Drivers/STM32F3xx_HAL_Driver/Src/stm32f3xx_hal_flash_ex.c ****   * Redistribution and use in source and binary forms, with or without modification,
  34:Drivers/STM32F3xx_HAL_Driver/Src/stm32f3xx_hal_flash_ex.c ****   * are permitted provided that the following conditions are met:
  35:Drivers/STM32F3xx_HAL_Driver/Src/stm32f3xx_hal_flash_ex.c ****   *   1. Redistributions of source code must retain the above copyright notice,
  36:Drivers/STM32F3xx_HAL_Driver/Src/stm32f3xx_hal_flash_ex.c ****   *      this list of conditions and the following disclaimer.
  37:Drivers/STM32F3xx_HAL_Driver/Src/stm32f3xx_hal_flash_ex.c ****   *   2. Redistributions in binary form must reproduce the above copyright notice,
  38:Drivers/STM32F3xx_HAL_Driver/Src/stm32f3xx_hal_flash_ex.c ****   *      this list of conditions and the following disclaimer in the documentation
  39:Drivers/STM32F3xx_HAL_Driver/Src/stm32f3xx_hal_flash_ex.c ****   *      and/or other materials provided with the distribution.
  40:Drivers/STM32F3xx_HAL_Driver/Src/stm32f3xx_hal_flash_ex.c ****   *   3. Neither the name of STMicroelectronics nor the names of its contributors
  41:Drivers/STM32F3xx_HAL_Driver/Src/stm32f3xx_hal_flash_ex.c ****   *      may be used to endorse or promote products derived from this software
  42:Drivers/STM32F3xx_HAL_Driver/Src/stm32f3xx_hal_flash_ex.c ****   *      without specific prior written permission.
  43:Drivers/STM32F3xx_HAL_Driver/Src/stm32f3xx_hal_flash_ex.c ****   *
  44:Drivers/STM32F3xx_HAL_Driver/Src/stm32f3xx_hal_flash_ex.c ****   * THIS SOFTWARE IS PROVIDED BY THE COPYRIGHT HOLDERS AND CONTRIBUTORS "AS IS"
  45:Drivers/STM32F3xx_HAL_Driver/Src/stm32f3xx_hal_flash_ex.c ****   * AND ANY EXPRESS OR IMPLIED WARRANTIES, INCLUDING, BUT NOT LIMITED TO, THE
  46:Drivers/STM32F3xx_HAL_Driver/Src/stm32f3xx_hal_flash_ex.c ****   * IMPLIED WARRANTIES OF MERCHANTABILITY AND FITNESS FOR A PARTICULAR PURPOSE ARE
  47:Drivers/STM32F3xx_HAL_Driver/Src/stm32f3xx_hal_flash_ex.c ****   * DISCLAIMED. IN NO EVENT SHALL THE COPYRIGHT HOLDER OR CONTRIBUTORS BE LIABLE
  48:Drivers/STM32F3xx_HAL_Driver/Src/stm32f3xx_hal_flash_ex.c ****   * FOR ANY DIRECT, INDIRECT, INCIDENTAL, SPECIAL, EXEMPLARY, OR CONSEQUENTIAL
  49:Drivers/STM32F3xx_HAL_Driver/Src/stm32f3xx_hal_flash_ex.c ****   * DAMAGES (INCLUDING, BUT NOT LIMITED TO, PROCUREMENT OF SUBSTITUTE GOODS OR
  50:Drivers/STM32F3xx_HAL_Driver/Src/stm32f3xx_hal_flash_ex.c ****   * SERVICES; LOSS OF USE, DATA, OR PROFITS; OR BUSINESS INTERRUPTION) HOWEVER
  51:Drivers/STM32F3xx_HAL_Driver/Src/stm32f3xx_hal_flash_ex.c ****   * CAUSED AND ON ANY THEORY OF LIABILITY, WHETHER IN CONTRACT, STRICT LIABILITY,
  52:Drivers/STM32F3xx_HAL_Driver/Src/stm32f3xx_hal_flash_ex.c ****   * OR TORT (INCLUDING NEGLIGENCE OR OTHERWISE) ARISING IN ANY WAY OUT OF THE USE
  53:Drivers/STM32F3xx_HAL_Driver/Src/stm32f3xx_hal_flash_ex.c ****   * OF THIS SOFTWARE, EVEN IF ADVISED OF THE POSSIBILITY OF SUCH DAMAGE.
  54:Drivers/STM32F3xx_HAL_Driver/Src/stm32f3xx_hal_flash_ex.c ****   *
  55:Drivers/STM32F3xx_HAL_Driver/Src/stm32f3xx_hal_flash_ex.c ****   ******************************************************************************  
  56:Drivers/STM32F3xx_HAL_Driver/Src/stm32f3xx_hal_flash_ex.c ****   */
  57:Drivers/STM32F3xx_HAL_Driver/Src/stm32f3xx_hal_flash_ex.c **** 
  58:Drivers/STM32F3xx_HAL_Driver/Src/stm32f3xx_hal_flash_ex.c **** /* Includes ------------------------------------------------------------------*/
  59:Drivers/STM32F3xx_HAL_Driver/Src/stm32f3xx_hal_flash_ex.c **** #include "stm32f3xx_hal.h"
  60:Drivers/STM32F3xx_HAL_Driver/Src/stm32f3xx_hal_flash_ex.c **** 
  61:Drivers/STM32F3xx_HAL_Driver/Src/stm32f3xx_hal_flash_ex.c **** /** @addtogroup STM32F3xx_HAL_Driver
  62:Drivers/STM32F3xx_HAL_Driver/Src/stm32f3xx_hal_flash_ex.c ****   * @{
  63:Drivers/STM32F3xx_HAL_Driver/Src/stm32f3xx_hal_flash_ex.c ****   */
  64:Drivers/STM32F3xx_HAL_Driver/Src/stm32f3xx_hal_flash_ex.c **** #ifdef HAL_FLASH_MODULE_ENABLED
  65:Drivers/STM32F3xx_HAL_Driver/Src/stm32f3xx_hal_flash_ex.c **** 
  66:Drivers/STM32F3xx_HAL_Driver/Src/stm32f3xx_hal_flash_ex.c **** /** @addtogroup FLASH
  67:Drivers/STM32F3xx_HAL_Driver/Src/stm32f3xx_hal_flash_ex.c ****   * @{
  68:Drivers/STM32F3xx_HAL_Driver/Src/stm32f3xx_hal_flash_ex.c ****   */
  69:Drivers/STM32F3xx_HAL_Driver/Src/stm32f3xx_hal_flash_ex.c **** /** @addtogroup FLASH_Private_Variables
  70:Drivers/STM32F3xx_HAL_Driver/Src/stm32f3xx_hal_flash_ex.c ****  * @{
  71:Drivers/STM32F3xx_HAL_Driver/Src/stm32f3xx_hal_flash_ex.c ****  */
  72:Drivers/STM32F3xx_HAL_Driver/Src/stm32f3xx_hal_flash_ex.c **** /* Variables used for Erase pages under interruption*/
  73:Drivers/STM32F3xx_HAL_Driver/Src/stm32f3xx_hal_flash_ex.c **** extern FLASH_ProcessTypeDef pFlash;
  74:Drivers/STM32F3xx_HAL_Driver/Src/stm32f3xx_hal_flash_ex.c **** /**
  75:Drivers/STM32F3xx_HAL_Driver/Src/stm32f3xx_hal_flash_ex.c ****   * @}
  76:Drivers/STM32F3xx_HAL_Driver/Src/stm32f3xx_hal_flash_ex.c ****   */
  77:Drivers/STM32F3xx_HAL_Driver/Src/stm32f3xx_hal_flash_ex.c **** 
  78:Drivers/STM32F3xx_HAL_Driver/Src/stm32f3xx_hal_flash_ex.c **** /**
  79:Drivers/STM32F3xx_HAL_Driver/Src/stm32f3xx_hal_flash_ex.c ****   * @}
  80:Drivers/STM32F3xx_HAL_Driver/Src/stm32f3xx_hal_flash_ex.c ****   */
  81:Drivers/STM32F3xx_HAL_Driver/Src/stm32f3xx_hal_flash_ex.c ****   
  82:Drivers/STM32F3xx_HAL_Driver/Src/stm32f3xx_hal_flash_ex.c **** /** @defgroup FLASHEx FLASHEx
  83:Drivers/STM32F3xx_HAL_Driver/Src/stm32f3xx_hal_flash_ex.c ****   * @brief FLASH HAL Extension module driver
  84:Drivers/STM32F3xx_HAL_Driver/Src/stm32f3xx_hal_flash_ex.c ****   * @{
  85:Drivers/STM32F3xx_HAL_Driver/Src/stm32f3xx_hal_flash_ex.c ****   */
  86:Drivers/STM32F3xx_HAL_Driver/Src/stm32f3xx_hal_flash_ex.c **** 
  87:Drivers/STM32F3xx_HAL_Driver/Src/stm32f3xx_hal_flash_ex.c **** /* Private typedef -----------------------------------------------------------*/
  88:Drivers/STM32F3xx_HAL_Driver/Src/stm32f3xx_hal_flash_ex.c **** /* Private define ------------------------------------------------------------*/
ARM GAS  /var/folders/md/lgcc8l7571l9vt9sx0g0zflw0000gn/T//ccyhNZ7g.s 			page 3


  89:Drivers/STM32F3xx_HAL_Driver/Src/stm32f3xx_hal_flash_ex.c **** /** @defgroup FLASHEx_Private_Constants FLASHEx Private Constants
  90:Drivers/STM32F3xx_HAL_Driver/Src/stm32f3xx_hal_flash_ex.c ****  * @{
  91:Drivers/STM32F3xx_HAL_Driver/Src/stm32f3xx_hal_flash_ex.c ****  */
  92:Drivers/STM32F3xx_HAL_Driver/Src/stm32f3xx_hal_flash_ex.c **** #define FLASH_POSITION_IWDGSW_BIT        (uint32_t)POSITION_VAL(FLASH_OBR_IWDG_SW)
  93:Drivers/STM32F3xx_HAL_Driver/Src/stm32f3xx_hal_flash_ex.c **** #define FLASH_POSITION_OB_USERDATA0_BIT  (uint32_t)POSITION_VAL(FLASH_OBR_DATA0)
  94:Drivers/STM32F3xx_HAL_Driver/Src/stm32f3xx_hal_flash_ex.c **** #define FLASH_POSITION_OB_USERDATA1_BIT  (uint32_t)POSITION_VAL(FLASH_OBR_DATA1)
  95:Drivers/STM32F3xx_HAL_Driver/Src/stm32f3xx_hal_flash_ex.c **** /**
  96:Drivers/STM32F3xx_HAL_Driver/Src/stm32f3xx_hal_flash_ex.c ****   * @}
  97:Drivers/STM32F3xx_HAL_Driver/Src/stm32f3xx_hal_flash_ex.c ****   */
  98:Drivers/STM32F3xx_HAL_Driver/Src/stm32f3xx_hal_flash_ex.c **** 
  99:Drivers/STM32F3xx_HAL_Driver/Src/stm32f3xx_hal_flash_ex.c **** /* Private macro -------------------------------------------------------------*/
 100:Drivers/STM32F3xx_HAL_Driver/Src/stm32f3xx_hal_flash_ex.c **** /** @defgroup FLASHEx_Private_Macros FLASHEx Private Macros
 101:Drivers/STM32F3xx_HAL_Driver/Src/stm32f3xx_hal_flash_ex.c ****   * @{
 102:Drivers/STM32F3xx_HAL_Driver/Src/stm32f3xx_hal_flash_ex.c ****   */
 103:Drivers/STM32F3xx_HAL_Driver/Src/stm32f3xx_hal_flash_ex.c **** /**
 104:Drivers/STM32F3xx_HAL_Driver/Src/stm32f3xx_hal_flash_ex.c ****   * @}
 105:Drivers/STM32F3xx_HAL_Driver/Src/stm32f3xx_hal_flash_ex.c ****   */ 
 106:Drivers/STM32F3xx_HAL_Driver/Src/stm32f3xx_hal_flash_ex.c **** 
 107:Drivers/STM32F3xx_HAL_Driver/Src/stm32f3xx_hal_flash_ex.c **** /* Private variables ---------------------------------------------------------*/
 108:Drivers/STM32F3xx_HAL_Driver/Src/stm32f3xx_hal_flash_ex.c **** /* Private function prototypes -----------------------------------------------*/
 109:Drivers/STM32F3xx_HAL_Driver/Src/stm32f3xx_hal_flash_ex.c **** /** @defgroup FLASHEx_Private_Functions FLASHEx Private Functions
 110:Drivers/STM32F3xx_HAL_Driver/Src/stm32f3xx_hal_flash_ex.c ****  * @{
 111:Drivers/STM32F3xx_HAL_Driver/Src/stm32f3xx_hal_flash_ex.c ****  */
 112:Drivers/STM32F3xx_HAL_Driver/Src/stm32f3xx_hal_flash_ex.c **** /* Erase operations */
 113:Drivers/STM32F3xx_HAL_Driver/Src/stm32f3xx_hal_flash_ex.c **** static void              FLASH_MassErase(void);
 114:Drivers/STM32F3xx_HAL_Driver/Src/stm32f3xx_hal_flash_ex.c **** void    FLASH_PageErase(uint32_t PageAddress);
 115:Drivers/STM32F3xx_HAL_Driver/Src/stm32f3xx_hal_flash_ex.c **** 
 116:Drivers/STM32F3xx_HAL_Driver/Src/stm32f3xx_hal_flash_ex.c **** /* Option bytes control */
 117:Drivers/STM32F3xx_HAL_Driver/Src/stm32f3xx_hal_flash_ex.c **** static HAL_StatusTypeDef FLASH_OB_EnableWRP(uint32_t WriteProtectPage);
 118:Drivers/STM32F3xx_HAL_Driver/Src/stm32f3xx_hal_flash_ex.c **** static HAL_StatusTypeDef FLASH_OB_DisableWRP(uint32_t WriteProtectPage);
 119:Drivers/STM32F3xx_HAL_Driver/Src/stm32f3xx_hal_flash_ex.c **** static HAL_StatusTypeDef FLASH_OB_RDP_LevelConfig(uint8_t ReadProtectLevel);
 120:Drivers/STM32F3xx_HAL_Driver/Src/stm32f3xx_hal_flash_ex.c **** static HAL_StatusTypeDef FLASH_OB_UserConfig(uint8_t UserConfig);
 121:Drivers/STM32F3xx_HAL_Driver/Src/stm32f3xx_hal_flash_ex.c **** static HAL_StatusTypeDef FLASH_OB_ProgramData(uint32_t Address, uint8_t Data);
 122:Drivers/STM32F3xx_HAL_Driver/Src/stm32f3xx_hal_flash_ex.c **** static uint32_t          FLASH_OB_GetWRP(void);
 123:Drivers/STM32F3xx_HAL_Driver/Src/stm32f3xx_hal_flash_ex.c **** static uint32_t          FLASH_OB_GetRDP(void);
 124:Drivers/STM32F3xx_HAL_Driver/Src/stm32f3xx_hal_flash_ex.c **** static uint8_t           FLASH_OB_GetUser(void);
 125:Drivers/STM32F3xx_HAL_Driver/Src/stm32f3xx_hal_flash_ex.c **** 
 126:Drivers/STM32F3xx_HAL_Driver/Src/stm32f3xx_hal_flash_ex.c **** /**
 127:Drivers/STM32F3xx_HAL_Driver/Src/stm32f3xx_hal_flash_ex.c ****   * @}
 128:Drivers/STM32F3xx_HAL_Driver/Src/stm32f3xx_hal_flash_ex.c ****   */
 129:Drivers/STM32F3xx_HAL_Driver/Src/stm32f3xx_hal_flash_ex.c **** 
 130:Drivers/STM32F3xx_HAL_Driver/Src/stm32f3xx_hal_flash_ex.c **** /* Exported functions ---------------------------------------------------------*/
 131:Drivers/STM32F3xx_HAL_Driver/Src/stm32f3xx_hal_flash_ex.c **** /** @defgroup FLASHEx_Exported_Functions FLASHEx Exported Functions
 132:Drivers/STM32F3xx_HAL_Driver/Src/stm32f3xx_hal_flash_ex.c ****   * @{
 133:Drivers/STM32F3xx_HAL_Driver/Src/stm32f3xx_hal_flash_ex.c ****   */
 134:Drivers/STM32F3xx_HAL_Driver/Src/stm32f3xx_hal_flash_ex.c ****   
 135:Drivers/STM32F3xx_HAL_Driver/Src/stm32f3xx_hal_flash_ex.c **** /** @defgroup FLASHEx_Exported_Functions_Group1 FLASHEx Memory Erasing functions
 136:Drivers/STM32F3xx_HAL_Driver/Src/stm32f3xx_hal_flash_ex.c ****  *  @brief   FLASH Memory Erasing functions
 137:Drivers/STM32F3xx_HAL_Driver/Src/stm32f3xx_hal_flash_ex.c ****   *
 138:Drivers/STM32F3xx_HAL_Driver/Src/stm32f3xx_hal_flash_ex.c **** @verbatim   
 139:Drivers/STM32F3xx_HAL_Driver/Src/stm32f3xx_hal_flash_ex.c ****   ==============================================================================
 140:Drivers/STM32F3xx_HAL_Driver/Src/stm32f3xx_hal_flash_ex.c ****                 ##### FLASH Erasing Programming functions ##### 
 141:Drivers/STM32F3xx_HAL_Driver/Src/stm32f3xx_hal_flash_ex.c ****   ==============================================================================
 142:Drivers/STM32F3xx_HAL_Driver/Src/stm32f3xx_hal_flash_ex.c **** 
 143:Drivers/STM32F3xx_HAL_Driver/Src/stm32f3xx_hal_flash_ex.c ****     [..] The FLASH Memory Erasing functions, includes the following functions:
 144:Drivers/STM32F3xx_HAL_Driver/Src/stm32f3xx_hal_flash_ex.c ****     (+) @ref HAL_FLASHEx_Erase: return only when erase has been done
 145:Drivers/STM32F3xx_HAL_Driver/Src/stm32f3xx_hal_flash_ex.c ****     (+) @ref HAL_FLASHEx_Erase_IT: end of erase is done when @ref HAL_FLASH_EndOfOperationCallback 
ARM GAS  /var/folders/md/lgcc8l7571l9vt9sx0g0zflw0000gn/T//ccyhNZ7g.s 			page 4


 146:Drivers/STM32F3xx_HAL_Driver/Src/stm32f3xx_hal_flash_ex.c ****         is called with parameter 0xFFFFFFFF
 147:Drivers/STM32F3xx_HAL_Driver/Src/stm32f3xx_hal_flash_ex.c **** 
 148:Drivers/STM32F3xx_HAL_Driver/Src/stm32f3xx_hal_flash_ex.c ****     [..] Any operation of erase should follow these steps:
 149:Drivers/STM32F3xx_HAL_Driver/Src/stm32f3xx_hal_flash_ex.c ****     (#) Call the @ref HAL_FLASH_Unlock() function to enable the flash control register and 
 150:Drivers/STM32F3xx_HAL_Driver/Src/stm32f3xx_hal_flash_ex.c ****         program memory access.
 151:Drivers/STM32F3xx_HAL_Driver/Src/stm32f3xx_hal_flash_ex.c ****     (#) Call the desired function to erase page.
 152:Drivers/STM32F3xx_HAL_Driver/Src/stm32f3xx_hal_flash_ex.c ****     (#) Call the @ref HAL_FLASH_Lock() to disable the flash program memory access 
 153:Drivers/STM32F3xx_HAL_Driver/Src/stm32f3xx_hal_flash_ex.c ****        (recommended to protect the FLASH memory against possible unwanted operation).
 154:Drivers/STM32F3xx_HAL_Driver/Src/stm32f3xx_hal_flash_ex.c **** 
 155:Drivers/STM32F3xx_HAL_Driver/Src/stm32f3xx_hal_flash_ex.c **** @endverbatim
 156:Drivers/STM32F3xx_HAL_Driver/Src/stm32f3xx_hal_flash_ex.c ****   * @{
 157:Drivers/STM32F3xx_HAL_Driver/Src/stm32f3xx_hal_flash_ex.c ****   */
 158:Drivers/STM32F3xx_HAL_Driver/Src/stm32f3xx_hal_flash_ex.c ****   
 159:Drivers/STM32F3xx_HAL_Driver/Src/stm32f3xx_hal_flash_ex.c **** 
 160:Drivers/STM32F3xx_HAL_Driver/Src/stm32f3xx_hal_flash_ex.c **** /**
 161:Drivers/STM32F3xx_HAL_Driver/Src/stm32f3xx_hal_flash_ex.c ****   * @brief  Perform a mass erase or erase the specified FLASH memory pages
 162:Drivers/STM32F3xx_HAL_Driver/Src/stm32f3xx_hal_flash_ex.c ****   * @note   To correctly run this function, the @ref HAL_FLASH_Unlock() function
 163:Drivers/STM32F3xx_HAL_Driver/Src/stm32f3xx_hal_flash_ex.c ****   *         must be called before.
 164:Drivers/STM32F3xx_HAL_Driver/Src/stm32f3xx_hal_flash_ex.c ****   *         Call the @ref HAL_FLASH_Lock() to disable the flash memory access 
 165:Drivers/STM32F3xx_HAL_Driver/Src/stm32f3xx_hal_flash_ex.c ****   *         (recommended to protect the FLASH memory against possible unwanted operation)
 166:Drivers/STM32F3xx_HAL_Driver/Src/stm32f3xx_hal_flash_ex.c ****   * @param[in]  pEraseInit pointer to an FLASH_EraseInitTypeDef structure that
 167:Drivers/STM32F3xx_HAL_Driver/Src/stm32f3xx_hal_flash_ex.c ****   *         contains the configuration information for the erasing.
 168:Drivers/STM32F3xx_HAL_Driver/Src/stm32f3xx_hal_flash_ex.c ****   *
 169:Drivers/STM32F3xx_HAL_Driver/Src/stm32f3xx_hal_flash_ex.c ****   * @param[out]  PageError pointer to variable  that
 170:Drivers/STM32F3xx_HAL_Driver/Src/stm32f3xx_hal_flash_ex.c ****   *         contains the configuration information on faulty page in case of error
 171:Drivers/STM32F3xx_HAL_Driver/Src/stm32f3xx_hal_flash_ex.c ****   *         (0xFFFFFFFF means that all the pages have been correctly erased)
 172:Drivers/STM32F3xx_HAL_Driver/Src/stm32f3xx_hal_flash_ex.c ****   *
 173:Drivers/STM32F3xx_HAL_Driver/Src/stm32f3xx_hal_flash_ex.c ****   * @retval HAL_StatusTypeDef HAL Status
 174:Drivers/STM32F3xx_HAL_Driver/Src/stm32f3xx_hal_flash_ex.c ****   */
 175:Drivers/STM32F3xx_HAL_Driver/Src/stm32f3xx_hal_flash_ex.c **** HAL_StatusTypeDef HAL_FLASHEx_Erase(FLASH_EraseInitTypeDef *pEraseInit, uint32_t *PageError)
 176:Drivers/STM32F3xx_HAL_Driver/Src/stm32f3xx_hal_flash_ex.c **** {
 177:Drivers/STM32F3xx_HAL_Driver/Src/stm32f3xx_hal_flash_ex.c ****   HAL_StatusTypeDef status = HAL_ERROR;
 178:Drivers/STM32F3xx_HAL_Driver/Src/stm32f3xx_hal_flash_ex.c ****   uint32_t address = 0U;
 179:Drivers/STM32F3xx_HAL_Driver/Src/stm32f3xx_hal_flash_ex.c **** 
 180:Drivers/STM32F3xx_HAL_Driver/Src/stm32f3xx_hal_flash_ex.c ****   /* Process Locked */
 181:Drivers/STM32F3xx_HAL_Driver/Src/stm32f3xx_hal_flash_ex.c ****   __HAL_LOCK(&pFlash);
 182:Drivers/STM32F3xx_HAL_Driver/Src/stm32f3xx_hal_flash_ex.c **** 
 183:Drivers/STM32F3xx_HAL_Driver/Src/stm32f3xx_hal_flash_ex.c ****   /* Check the parameters */
 184:Drivers/STM32F3xx_HAL_Driver/Src/stm32f3xx_hal_flash_ex.c ****   assert_param(IS_FLASH_TYPEERASE(pEraseInit->TypeErase));
 185:Drivers/STM32F3xx_HAL_Driver/Src/stm32f3xx_hal_flash_ex.c **** 
 186:Drivers/STM32F3xx_HAL_Driver/Src/stm32f3xx_hal_flash_ex.c ****   if (pEraseInit->TypeErase == FLASH_TYPEERASE_MASSERASE)
 187:Drivers/STM32F3xx_HAL_Driver/Src/stm32f3xx_hal_flash_ex.c ****   {
 188:Drivers/STM32F3xx_HAL_Driver/Src/stm32f3xx_hal_flash_ex.c ****       /* Mass Erase requested for Bank1 */
 189:Drivers/STM32F3xx_HAL_Driver/Src/stm32f3xx_hal_flash_ex.c ****       /* Wait for last operation to be completed */
 190:Drivers/STM32F3xx_HAL_Driver/Src/stm32f3xx_hal_flash_ex.c ****       if (FLASH_WaitForLastOperation((uint32_t)FLASH_TIMEOUT_VALUE) == HAL_OK)
 191:Drivers/STM32F3xx_HAL_Driver/Src/stm32f3xx_hal_flash_ex.c ****       {
 192:Drivers/STM32F3xx_HAL_Driver/Src/stm32f3xx_hal_flash_ex.c ****         /*Mass erase to be done*/
 193:Drivers/STM32F3xx_HAL_Driver/Src/stm32f3xx_hal_flash_ex.c ****         FLASH_MassErase();
 194:Drivers/STM32F3xx_HAL_Driver/Src/stm32f3xx_hal_flash_ex.c ****         
 195:Drivers/STM32F3xx_HAL_Driver/Src/stm32f3xx_hal_flash_ex.c ****         /* Wait for last operation to be completed */
 196:Drivers/STM32F3xx_HAL_Driver/Src/stm32f3xx_hal_flash_ex.c ****         status = FLASH_WaitForLastOperation((uint32_t)FLASH_TIMEOUT_VALUE);
 197:Drivers/STM32F3xx_HAL_Driver/Src/stm32f3xx_hal_flash_ex.c ****         
 198:Drivers/STM32F3xx_HAL_Driver/Src/stm32f3xx_hal_flash_ex.c ****         /* If the erase operation is completed, disable the MER Bit */
 199:Drivers/STM32F3xx_HAL_Driver/Src/stm32f3xx_hal_flash_ex.c ****         CLEAR_BIT(FLASH->CR, FLASH_CR_MER);
 200:Drivers/STM32F3xx_HAL_Driver/Src/stm32f3xx_hal_flash_ex.c ****       }
 201:Drivers/STM32F3xx_HAL_Driver/Src/stm32f3xx_hal_flash_ex.c ****   }
 202:Drivers/STM32F3xx_HAL_Driver/Src/stm32f3xx_hal_flash_ex.c ****   else
ARM GAS  /var/folders/md/lgcc8l7571l9vt9sx0g0zflw0000gn/T//ccyhNZ7g.s 			page 5


 203:Drivers/STM32F3xx_HAL_Driver/Src/stm32f3xx_hal_flash_ex.c ****   {
 204:Drivers/STM32F3xx_HAL_Driver/Src/stm32f3xx_hal_flash_ex.c ****     /* Page Erase is requested */
 205:Drivers/STM32F3xx_HAL_Driver/Src/stm32f3xx_hal_flash_ex.c ****     /* Check the parameters */
 206:Drivers/STM32F3xx_HAL_Driver/Src/stm32f3xx_hal_flash_ex.c ****     assert_param(IS_FLASH_PROGRAM_ADDRESS(pEraseInit->PageAddress));
 207:Drivers/STM32F3xx_HAL_Driver/Src/stm32f3xx_hal_flash_ex.c ****     assert_param(IS_FLASH_NB_PAGES(pEraseInit->PageAddress, pEraseInit->NbPages));
 208:Drivers/STM32F3xx_HAL_Driver/Src/stm32f3xx_hal_flash_ex.c ****     
 209:Drivers/STM32F3xx_HAL_Driver/Src/stm32f3xx_hal_flash_ex.c ****       /* Page Erase requested on address located on bank1 */
 210:Drivers/STM32F3xx_HAL_Driver/Src/stm32f3xx_hal_flash_ex.c ****       /* Wait for last operation to be completed */
 211:Drivers/STM32F3xx_HAL_Driver/Src/stm32f3xx_hal_flash_ex.c ****       if (FLASH_WaitForLastOperation((uint32_t)FLASH_TIMEOUT_VALUE) == HAL_OK)
 212:Drivers/STM32F3xx_HAL_Driver/Src/stm32f3xx_hal_flash_ex.c ****       {
 213:Drivers/STM32F3xx_HAL_Driver/Src/stm32f3xx_hal_flash_ex.c ****         /*Initialization of PageError variable*/
 214:Drivers/STM32F3xx_HAL_Driver/Src/stm32f3xx_hal_flash_ex.c ****         *PageError = 0xFFFFFFFFU;
 215:Drivers/STM32F3xx_HAL_Driver/Src/stm32f3xx_hal_flash_ex.c ****         
 216:Drivers/STM32F3xx_HAL_Driver/Src/stm32f3xx_hal_flash_ex.c ****         /* Erase page by page to be done*/
 217:Drivers/STM32F3xx_HAL_Driver/Src/stm32f3xx_hal_flash_ex.c ****         for(address = pEraseInit->PageAddress;
 218:Drivers/STM32F3xx_HAL_Driver/Src/stm32f3xx_hal_flash_ex.c ****             address < ((pEraseInit->NbPages * FLASH_PAGE_SIZE) + pEraseInit->PageAddress);
 219:Drivers/STM32F3xx_HAL_Driver/Src/stm32f3xx_hal_flash_ex.c ****             address += FLASH_PAGE_SIZE)
 220:Drivers/STM32F3xx_HAL_Driver/Src/stm32f3xx_hal_flash_ex.c ****         {
 221:Drivers/STM32F3xx_HAL_Driver/Src/stm32f3xx_hal_flash_ex.c ****           FLASH_PageErase(address);
 222:Drivers/STM32F3xx_HAL_Driver/Src/stm32f3xx_hal_flash_ex.c ****           
 223:Drivers/STM32F3xx_HAL_Driver/Src/stm32f3xx_hal_flash_ex.c ****           /* Wait for last operation to be completed */
 224:Drivers/STM32F3xx_HAL_Driver/Src/stm32f3xx_hal_flash_ex.c ****           status = FLASH_WaitForLastOperation((uint32_t)FLASH_TIMEOUT_VALUE);
 225:Drivers/STM32F3xx_HAL_Driver/Src/stm32f3xx_hal_flash_ex.c ****           
 226:Drivers/STM32F3xx_HAL_Driver/Src/stm32f3xx_hal_flash_ex.c ****           /* If the erase operation is completed, disable the PER Bit */
 227:Drivers/STM32F3xx_HAL_Driver/Src/stm32f3xx_hal_flash_ex.c ****           CLEAR_BIT(FLASH->CR, FLASH_CR_PER);
 228:Drivers/STM32F3xx_HAL_Driver/Src/stm32f3xx_hal_flash_ex.c ****           
 229:Drivers/STM32F3xx_HAL_Driver/Src/stm32f3xx_hal_flash_ex.c ****           if (status != HAL_OK)
 230:Drivers/STM32F3xx_HAL_Driver/Src/stm32f3xx_hal_flash_ex.c ****           {
 231:Drivers/STM32F3xx_HAL_Driver/Src/stm32f3xx_hal_flash_ex.c ****             /* In case of error, stop erase procedure and return the faulty address */
 232:Drivers/STM32F3xx_HAL_Driver/Src/stm32f3xx_hal_flash_ex.c ****             *PageError = address;
 233:Drivers/STM32F3xx_HAL_Driver/Src/stm32f3xx_hal_flash_ex.c ****             break;
 234:Drivers/STM32F3xx_HAL_Driver/Src/stm32f3xx_hal_flash_ex.c ****           }
 235:Drivers/STM32F3xx_HAL_Driver/Src/stm32f3xx_hal_flash_ex.c ****         }
 236:Drivers/STM32F3xx_HAL_Driver/Src/stm32f3xx_hal_flash_ex.c ****       }
 237:Drivers/STM32F3xx_HAL_Driver/Src/stm32f3xx_hal_flash_ex.c ****   }
 238:Drivers/STM32F3xx_HAL_Driver/Src/stm32f3xx_hal_flash_ex.c **** 
 239:Drivers/STM32F3xx_HAL_Driver/Src/stm32f3xx_hal_flash_ex.c ****   /* Process Unlocked */
 240:Drivers/STM32F3xx_HAL_Driver/Src/stm32f3xx_hal_flash_ex.c ****   __HAL_UNLOCK(&pFlash);
 241:Drivers/STM32F3xx_HAL_Driver/Src/stm32f3xx_hal_flash_ex.c **** 
 242:Drivers/STM32F3xx_HAL_Driver/Src/stm32f3xx_hal_flash_ex.c ****   return status;
 243:Drivers/STM32F3xx_HAL_Driver/Src/stm32f3xx_hal_flash_ex.c **** }
 244:Drivers/STM32F3xx_HAL_Driver/Src/stm32f3xx_hal_flash_ex.c **** 
 245:Drivers/STM32F3xx_HAL_Driver/Src/stm32f3xx_hal_flash_ex.c **** /**
 246:Drivers/STM32F3xx_HAL_Driver/Src/stm32f3xx_hal_flash_ex.c ****   * @brief  Perform a mass erase or erase the specified FLASH memory pages with interrupt enabled
 247:Drivers/STM32F3xx_HAL_Driver/Src/stm32f3xx_hal_flash_ex.c ****   * @note   To correctly run this function, the @ref HAL_FLASH_Unlock() function
 248:Drivers/STM32F3xx_HAL_Driver/Src/stm32f3xx_hal_flash_ex.c ****   *         must be called before.
 249:Drivers/STM32F3xx_HAL_Driver/Src/stm32f3xx_hal_flash_ex.c ****   *         Call the @ref HAL_FLASH_Lock() to disable the flash memory access 
 250:Drivers/STM32F3xx_HAL_Driver/Src/stm32f3xx_hal_flash_ex.c ****   *         (recommended to protect the FLASH memory against possible unwanted operation)
 251:Drivers/STM32F3xx_HAL_Driver/Src/stm32f3xx_hal_flash_ex.c ****   * @param  pEraseInit pointer to an FLASH_EraseInitTypeDef structure that
 252:Drivers/STM32F3xx_HAL_Driver/Src/stm32f3xx_hal_flash_ex.c ****   *         contains the configuration information for the erasing.
 253:Drivers/STM32F3xx_HAL_Driver/Src/stm32f3xx_hal_flash_ex.c ****   *
 254:Drivers/STM32F3xx_HAL_Driver/Src/stm32f3xx_hal_flash_ex.c ****   * @retval HAL_StatusTypeDef HAL Status
 255:Drivers/STM32F3xx_HAL_Driver/Src/stm32f3xx_hal_flash_ex.c ****   */
 256:Drivers/STM32F3xx_HAL_Driver/Src/stm32f3xx_hal_flash_ex.c **** HAL_StatusTypeDef HAL_FLASHEx_Erase_IT(FLASH_EraseInitTypeDef *pEraseInit)
 257:Drivers/STM32F3xx_HAL_Driver/Src/stm32f3xx_hal_flash_ex.c **** {
 258:Drivers/STM32F3xx_HAL_Driver/Src/stm32f3xx_hal_flash_ex.c ****   HAL_StatusTypeDef status = HAL_OK;
 259:Drivers/STM32F3xx_HAL_Driver/Src/stm32f3xx_hal_flash_ex.c **** 
ARM GAS  /var/folders/md/lgcc8l7571l9vt9sx0g0zflw0000gn/T//ccyhNZ7g.s 			page 6


 260:Drivers/STM32F3xx_HAL_Driver/Src/stm32f3xx_hal_flash_ex.c ****   /* Process Locked */
 261:Drivers/STM32F3xx_HAL_Driver/Src/stm32f3xx_hal_flash_ex.c ****   __HAL_LOCK(&pFlash);
 262:Drivers/STM32F3xx_HAL_Driver/Src/stm32f3xx_hal_flash_ex.c **** 
 263:Drivers/STM32F3xx_HAL_Driver/Src/stm32f3xx_hal_flash_ex.c ****   /* If procedure already ongoing, reject the next one */
 264:Drivers/STM32F3xx_HAL_Driver/Src/stm32f3xx_hal_flash_ex.c ****   if (pFlash.ProcedureOnGoing != FLASH_PROC_NONE)
 265:Drivers/STM32F3xx_HAL_Driver/Src/stm32f3xx_hal_flash_ex.c ****   {
 266:Drivers/STM32F3xx_HAL_Driver/Src/stm32f3xx_hal_flash_ex.c ****     return HAL_ERROR;
 267:Drivers/STM32F3xx_HAL_Driver/Src/stm32f3xx_hal_flash_ex.c ****   }
 268:Drivers/STM32F3xx_HAL_Driver/Src/stm32f3xx_hal_flash_ex.c ****   
 269:Drivers/STM32F3xx_HAL_Driver/Src/stm32f3xx_hal_flash_ex.c ****   /* Check the parameters */
 270:Drivers/STM32F3xx_HAL_Driver/Src/stm32f3xx_hal_flash_ex.c ****   assert_param(IS_FLASH_TYPEERASE(pEraseInit->TypeErase));
 271:Drivers/STM32F3xx_HAL_Driver/Src/stm32f3xx_hal_flash_ex.c **** 
 272:Drivers/STM32F3xx_HAL_Driver/Src/stm32f3xx_hal_flash_ex.c ****   /* Enable End of FLASH Operation and Error source interrupts */
 273:Drivers/STM32F3xx_HAL_Driver/Src/stm32f3xx_hal_flash_ex.c ****   __HAL_FLASH_ENABLE_IT(FLASH_IT_EOP | FLASH_IT_ERR);
 274:Drivers/STM32F3xx_HAL_Driver/Src/stm32f3xx_hal_flash_ex.c **** 
 275:Drivers/STM32F3xx_HAL_Driver/Src/stm32f3xx_hal_flash_ex.c ****   if (pEraseInit->TypeErase == FLASH_TYPEERASE_MASSERASE)
 276:Drivers/STM32F3xx_HAL_Driver/Src/stm32f3xx_hal_flash_ex.c ****   {
 277:Drivers/STM32F3xx_HAL_Driver/Src/stm32f3xx_hal_flash_ex.c ****     /*Mass erase to be done*/
 278:Drivers/STM32F3xx_HAL_Driver/Src/stm32f3xx_hal_flash_ex.c ****     pFlash.ProcedureOnGoing = FLASH_PROC_MASSERASE;
 279:Drivers/STM32F3xx_HAL_Driver/Src/stm32f3xx_hal_flash_ex.c ****         FLASH_MassErase();
 280:Drivers/STM32F3xx_HAL_Driver/Src/stm32f3xx_hal_flash_ex.c ****   }
 281:Drivers/STM32F3xx_HAL_Driver/Src/stm32f3xx_hal_flash_ex.c ****   else
 282:Drivers/STM32F3xx_HAL_Driver/Src/stm32f3xx_hal_flash_ex.c ****   {
 283:Drivers/STM32F3xx_HAL_Driver/Src/stm32f3xx_hal_flash_ex.c ****     /* Erase by page to be done*/
 284:Drivers/STM32F3xx_HAL_Driver/Src/stm32f3xx_hal_flash_ex.c **** 
 285:Drivers/STM32F3xx_HAL_Driver/Src/stm32f3xx_hal_flash_ex.c ****     /* Check the parameters */
 286:Drivers/STM32F3xx_HAL_Driver/Src/stm32f3xx_hal_flash_ex.c ****     assert_param(IS_FLASH_PROGRAM_ADDRESS(pEraseInit->PageAddress));
 287:Drivers/STM32F3xx_HAL_Driver/Src/stm32f3xx_hal_flash_ex.c ****     assert_param(IS_FLASH_NB_PAGES(pEraseInit->PageAddress, pEraseInit->NbPages));
 288:Drivers/STM32F3xx_HAL_Driver/Src/stm32f3xx_hal_flash_ex.c **** 
 289:Drivers/STM32F3xx_HAL_Driver/Src/stm32f3xx_hal_flash_ex.c ****     pFlash.ProcedureOnGoing = FLASH_PROC_PAGEERASE;
 290:Drivers/STM32F3xx_HAL_Driver/Src/stm32f3xx_hal_flash_ex.c ****     pFlash.DataRemaining = pEraseInit->NbPages;
 291:Drivers/STM32F3xx_HAL_Driver/Src/stm32f3xx_hal_flash_ex.c ****     pFlash.Address = pEraseInit->PageAddress;
 292:Drivers/STM32F3xx_HAL_Driver/Src/stm32f3xx_hal_flash_ex.c **** 
 293:Drivers/STM32F3xx_HAL_Driver/Src/stm32f3xx_hal_flash_ex.c ****     /*Erase 1st page and wait for IT*/
 294:Drivers/STM32F3xx_HAL_Driver/Src/stm32f3xx_hal_flash_ex.c ****     FLASH_PageErase(pEraseInit->PageAddress);
 295:Drivers/STM32F3xx_HAL_Driver/Src/stm32f3xx_hal_flash_ex.c ****   }
 296:Drivers/STM32F3xx_HAL_Driver/Src/stm32f3xx_hal_flash_ex.c **** 
 297:Drivers/STM32F3xx_HAL_Driver/Src/stm32f3xx_hal_flash_ex.c ****   return status;
 298:Drivers/STM32F3xx_HAL_Driver/Src/stm32f3xx_hal_flash_ex.c **** }
 299:Drivers/STM32F3xx_HAL_Driver/Src/stm32f3xx_hal_flash_ex.c **** 
 300:Drivers/STM32F3xx_HAL_Driver/Src/stm32f3xx_hal_flash_ex.c **** /**
 301:Drivers/STM32F3xx_HAL_Driver/Src/stm32f3xx_hal_flash_ex.c ****   * @}
 302:Drivers/STM32F3xx_HAL_Driver/Src/stm32f3xx_hal_flash_ex.c ****   */
 303:Drivers/STM32F3xx_HAL_Driver/Src/stm32f3xx_hal_flash_ex.c **** 
 304:Drivers/STM32F3xx_HAL_Driver/Src/stm32f3xx_hal_flash_ex.c **** /** @defgroup FLASHEx_Exported_Functions_Group2 Option Bytes Programming functions
 305:Drivers/STM32F3xx_HAL_Driver/Src/stm32f3xx_hal_flash_ex.c ****  *  @brief   Option Bytes Programming functions
 306:Drivers/STM32F3xx_HAL_Driver/Src/stm32f3xx_hal_flash_ex.c ****   *
 307:Drivers/STM32F3xx_HAL_Driver/Src/stm32f3xx_hal_flash_ex.c **** @verbatim   
 308:Drivers/STM32F3xx_HAL_Driver/Src/stm32f3xx_hal_flash_ex.c ****   ==============================================================================
 309:Drivers/STM32F3xx_HAL_Driver/Src/stm32f3xx_hal_flash_ex.c ****                 ##### Option Bytes Programming functions ##### 
 310:Drivers/STM32F3xx_HAL_Driver/Src/stm32f3xx_hal_flash_ex.c ****   ==============================================================================  
 311:Drivers/STM32F3xx_HAL_Driver/Src/stm32f3xx_hal_flash_ex.c ****     [..]
 312:Drivers/STM32F3xx_HAL_Driver/Src/stm32f3xx_hal_flash_ex.c ****     This subsection provides a set of functions allowing to control the FLASH 
 313:Drivers/STM32F3xx_HAL_Driver/Src/stm32f3xx_hal_flash_ex.c ****     option bytes operations.
 314:Drivers/STM32F3xx_HAL_Driver/Src/stm32f3xx_hal_flash_ex.c **** 
 315:Drivers/STM32F3xx_HAL_Driver/Src/stm32f3xx_hal_flash_ex.c **** @endverbatim
 316:Drivers/STM32F3xx_HAL_Driver/Src/stm32f3xx_hal_flash_ex.c ****   * @{
ARM GAS  /var/folders/md/lgcc8l7571l9vt9sx0g0zflw0000gn/T//ccyhNZ7g.s 			page 7


 317:Drivers/STM32F3xx_HAL_Driver/Src/stm32f3xx_hal_flash_ex.c ****   */
 318:Drivers/STM32F3xx_HAL_Driver/Src/stm32f3xx_hal_flash_ex.c **** 
 319:Drivers/STM32F3xx_HAL_Driver/Src/stm32f3xx_hal_flash_ex.c **** /**
 320:Drivers/STM32F3xx_HAL_Driver/Src/stm32f3xx_hal_flash_ex.c ****   * @brief  Erases the FLASH option bytes.
 321:Drivers/STM32F3xx_HAL_Driver/Src/stm32f3xx_hal_flash_ex.c ****   * @note   This functions erases all option bytes except the Read protection (RDP).
 322:Drivers/STM32F3xx_HAL_Driver/Src/stm32f3xx_hal_flash_ex.c ****   *         The function @ref HAL_FLASH_Unlock() should be called before to unlock the FLASH interf
 323:Drivers/STM32F3xx_HAL_Driver/Src/stm32f3xx_hal_flash_ex.c ****   *         The function @ref HAL_FLASH_OB_Unlock() should be called before to unlock the options b
 324:Drivers/STM32F3xx_HAL_Driver/Src/stm32f3xx_hal_flash_ex.c ****   *         The function @ref HAL_FLASH_OB_Launch() should be called after to force the reload of t
 325:Drivers/STM32F3xx_HAL_Driver/Src/stm32f3xx_hal_flash_ex.c ****   *         (system reset will occur)
 326:Drivers/STM32F3xx_HAL_Driver/Src/stm32f3xx_hal_flash_ex.c ****   * @retval HAL status
 327:Drivers/STM32F3xx_HAL_Driver/Src/stm32f3xx_hal_flash_ex.c ****   */
 328:Drivers/STM32F3xx_HAL_Driver/Src/stm32f3xx_hal_flash_ex.c **** 
 329:Drivers/STM32F3xx_HAL_Driver/Src/stm32f3xx_hal_flash_ex.c **** HAL_StatusTypeDef HAL_FLASHEx_OBErase(void)
 330:Drivers/STM32F3xx_HAL_Driver/Src/stm32f3xx_hal_flash_ex.c **** {
 331:Drivers/STM32F3xx_HAL_Driver/Src/stm32f3xx_hal_flash_ex.c ****   uint8_t rdptmp = OB_RDP_LEVEL_0;
 332:Drivers/STM32F3xx_HAL_Driver/Src/stm32f3xx_hal_flash_ex.c ****   HAL_StatusTypeDef status = HAL_ERROR;
 333:Drivers/STM32F3xx_HAL_Driver/Src/stm32f3xx_hal_flash_ex.c **** 
 334:Drivers/STM32F3xx_HAL_Driver/Src/stm32f3xx_hal_flash_ex.c ****   /* Get the actual read protection Option Byte value */
 335:Drivers/STM32F3xx_HAL_Driver/Src/stm32f3xx_hal_flash_ex.c ****   rdptmp = FLASH_OB_GetRDP();
 336:Drivers/STM32F3xx_HAL_Driver/Src/stm32f3xx_hal_flash_ex.c **** 
 337:Drivers/STM32F3xx_HAL_Driver/Src/stm32f3xx_hal_flash_ex.c ****   /* Wait for last operation to be completed */
 338:Drivers/STM32F3xx_HAL_Driver/Src/stm32f3xx_hal_flash_ex.c ****   status = FLASH_WaitForLastOperation((uint32_t)FLASH_TIMEOUT_VALUE);
 339:Drivers/STM32F3xx_HAL_Driver/Src/stm32f3xx_hal_flash_ex.c **** 
 340:Drivers/STM32F3xx_HAL_Driver/Src/stm32f3xx_hal_flash_ex.c ****   if(status == HAL_OK)
 341:Drivers/STM32F3xx_HAL_Driver/Src/stm32f3xx_hal_flash_ex.c ****   {
 342:Drivers/STM32F3xx_HAL_Driver/Src/stm32f3xx_hal_flash_ex.c ****     /* Clean the error context */
 343:Drivers/STM32F3xx_HAL_Driver/Src/stm32f3xx_hal_flash_ex.c ****     pFlash.ErrorCode = HAL_FLASH_ERROR_NONE;
 344:Drivers/STM32F3xx_HAL_Driver/Src/stm32f3xx_hal_flash_ex.c **** 
 345:Drivers/STM32F3xx_HAL_Driver/Src/stm32f3xx_hal_flash_ex.c ****     /* If the previous operation is completed, proceed to erase the option bytes */
 346:Drivers/STM32F3xx_HAL_Driver/Src/stm32f3xx_hal_flash_ex.c ****     SET_BIT(FLASH->CR, FLASH_CR_OPTER);
 347:Drivers/STM32F3xx_HAL_Driver/Src/stm32f3xx_hal_flash_ex.c ****     SET_BIT(FLASH->CR, FLASH_CR_STRT);
 348:Drivers/STM32F3xx_HAL_Driver/Src/stm32f3xx_hal_flash_ex.c **** 
 349:Drivers/STM32F3xx_HAL_Driver/Src/stm32f3xx_hal_flash_ex.c ****     /* Wait for last operation to be completed */
 350:Drivers/STM32F3xx_HAL_Driver/Src/stm32f3xx_hal_flash_ex.c ****     status = FLASH_WaitForLastOperation((uint32_t)FLASH_TIMEOUT_VALUE);
 351:Drivers/STM32F3xx_HAL_Driver/Src/stm32f3xx_hal_flash_ex.c **** 
 352:Drivers/STM32F3xx_HAL_Driver/Src/stm32f3xx_hal_flash_ex.c ****     /* If the erase operation is completed, disable the OPTER Bit */
 353:Drivers/STM32F3xx_HAL_Driver/Src/stm32f3xx_hal_flash_ex.c ****     CLEAR_BIT(FLASH->CR, FLASH_CR_OPTER);
 354:Drivers/STM32F3xx_HAL_Driver/Src/stm32f3xx_hal_flash_ex.c **** 
 355:Drivers/STM32F3xx_HAL_Driver/Src/stm32f3xx_hal_flash_ex.c ****     if(status == HAL_OK)
 356:Drivers/STM32F3xx_HAL_Driver/Src/stm32f3xx_hal_flash_ex.c ****     {
 357:Drivers/STM32F3xx_HAL_Driver/Src/stm32f3xx_hal_flash_ex.c ****       /* Restore the last read protection Option Byte value */
 358:Drivers/STM32F3xx_HAL_Driver/Src/stm32f3xx_hal_flash_ex.c ****       status = FLASH_OB_RDP_LevelConfig(rdptmp);
 359:Drivers/STM32F3xx_HAL_Driver/Src/stm32f3xx_hal_flash_ex.c ****     }
 360:Drivers/STM32F3xx_HAL_Driver/Src/stm32f3xx_hal_flash_ex.c ****   }
 361:Drivers/STM32F3xx_HAL_Driver/Src/stm32f3xx_hal_flash_ex.c **** 
 362:Drivers/STM32F3xx_HAL_Driver/Src/stm32f3xx_hal_flash_ex.c ****   /* Return the erase status */
 363:Drivers/STM32F3xx_HAL_Driver/Src/stm32f3xx_hal_flash_ex.c ****   return status;
 364:Drivers/STM32F3xx_HAL_Driver/Src/stm32f3xx_hal_flash_ex.c **** }
 365:Drivers/STM32F3xx_HAL_Driver/Src/stm32f3xx_hal_flash_ex.c **** 
 366:Drivers/STM32F3xx_HAL_Driver/Src/stm32f3xx_hal_flash_ex.c **** /**
 367:Drivers/STM32F3xx_HAL_Driver/Src/stm32f3xx_hal_flash_ex.c ****   * @brief  Program option bytes
 368:Drivers/STM32F3xx_HAL_Driver/Src/stm32f3xx_hal_flash_ex.c ****   * @note   The function @ref HAL_FLASH_Unlock() should be called before to unlock the FLASH interf
 369:Drivers/STM32F3xx_HAL_Driver/Src/stm32f3xx_hal_flash_ex.c ****   *         The function @ref HAL_FLASH_OB_Unlock() should be called before to unlock the options b
 370:Drivers/STM32F3xx_HAL_Driver/Src/stm32f3xx_hal_flash_ex.c ****   *         The function @ref HAL_FLASH_OB_Launch() should be called after to force the reload of t
 371:Drivers/STM32F3xx_HAL_Driver/Src/stm32f3xx_hal_flash_ex.c ****   *         (system reset will occur)
 372:Drivers/STM32F3xx_HAL_Driver/Src/stm32f3xx_hal_flash_ex.c ****   *
 373:Drivers/STM32F3xx_HAL_Driver/Src/stm32f3xx_hal_flash_ex.c ****   * @param  pOBInit pointer to an FLASH_OBInitStruct structure that
ARM GAS  /var/folders/md/lgcc8l7571l9vt9sx0g0zflw0000gn/T//ccyhNZ7g.s 			page 8


 374:Drivers/STM32F3xx_HAL_Driver/Src/stm32f3xx_hal_flash_ex.c ****   *         contains the configuration information for the programming.
 375:Drivers/STM32F3xx_HAL_Driver/Src/stm32f3xx_hal_flash_ex.c ****   *
 376:Drivers/STM32F3xx_HAL_Driver/Src/stm32f3xx_hal_flash_ex.c ****   * @retval HAL_StatusTypeDef HAL Status
 377:Drivers/STM32F3xx_HAL_Driver/Src/stm32f3xx_hal_flash_ex.c ****   */
 378:Drivers/STM32F3xx_HAL_Driver/Src/stm32f3xx_hal_flash_ex.c **** HAL_StatusTypeDef HAL_FLASHEx_OBProgram(FLASH_OBProgramInitTypeDef *pOBInit)
 379:Drivers/STM32F3xx_HAL_Driver/Src/stm32f3xx_hal_flash_ex.c **** {
 380:Drivers/STM32F3xx_HAL_Driver/Src/stm32f3xx_hal_flash_ex.c ****   HAL_StatusTypeDef status = HAL_ERROR;
 381:Drivers/STM32F3xx_HAL_Driver/Src/stm32f3xx_hal_flash_ex.c **** 
 382:Drivers/STM32F3xx_HAL_Driver/Src/stm32f3xx_hal_flash_ex.c ****   /* Process Locked */
 383:Drivers/STM32F3xx_HAL_Driver/Src/stm32f3xx_hal_flash_ex.c ****   __HAL_LOCK(&pFlash);
 384:Drivers/STM32F3xx_HAL_Driver/Src/stm32f3xx_hal_flash_ex.c **** 
 385:Drivers/STM32F3xx_HAL_Driver/Src/stm32f3xx_hal_flash_ex.c ****   /* Check the parameters */
 386:Drivers/STM32F3xx_HAL_Driver/Src/stm32f3xx_hal_flash_ex.c ****   assert_param(IS_OPTIONBYTE(pOBInit->OptionType));
 387:Drivers/STM32F3xx_HAL_Driver/Src/stm32f3xx_hal_flash_ex.c **** 
 388:Drivers/STM32F3xx_HAL_Driver/Src/stm32f3xx_hal_flash_ex.c ****   /* Write protection configuration */
 389:Drivers/STM32F3xx_HAL_Driver/Src/stm32f3xx_hal_flash_ex.c ****   if((pOBInit->OptionType & OPTIONBYTE_WRP) == OPTIONBYTE_WRP)
 390:Drivers/STM32F3xx_HAL_Driver/Src/stm32f3xx_hal_flash_ex.c ****   {
 391:Drivers/STM32F3xx_HAL_Driver/Src/stm32f3xx_hal_flash_ex.c ****     assert_param(IS_WRPSTATE(pOBInit->WRPState));
 392:Drivers/STM32F3xx_HAL_Driver/Src/stm32f3xx_hal_flash_ex.c ****     if (pOBInit->WRPState == OB_WRPSTATE_ENABLE)
 393:Drivers/STM32F3xx_HAL_Driver/Src/stm32f3xx_hal_flash_ex.c ****     {
 394:Drivers/STM32F3xx_HAL_Driver/Src/stm32f3xx_hal_flash_ex.c ****       /* Enable of Write protection on the selected page */
 395:Drivers/STM32F3xx_HAL_Driver/Src/stm32f3xx_hal_flash_ex.c ****       status = FLASH_OB_EnableWRP(pOBInit->WRPPage);
 396:Drivers/STM32F3xx_HAL_Driver/Src/stm32f3xx_hal_flash_ex.c ****     }
 397:Drivers/STM32F3xx_HAL_Driver/Src/stm32f3xx_hal_flash_ex.c ****     else
 398:Drivers/STM32F3xx_HAL_Driver/Src/stm32f3xx_hal_flash_ex.c ****     {
 399:Drivers/STM32F3xx_HAL_Driver/Src/stm32f3xx_hal_flash_ex.c ****       /* Disable of Write protection on the selected page */
 400:Drivers/STM32F3xx_HAL_Driver/Src/stm32f3xx_hal_flash_ex.c ****       status = FLASH_OB_DisableWRP(pOBInit->WRPPage);
 401:Drivers/STM32F3xx_HAL_Driver/Src/stm32f3xx_hal_flash_ex.c ****     }
 402:Drivers/STM32F3xx_HAL_Driver/Src/stm32f3xx_hal_flash_ex.c ****     if (status != HAL_OK)
 403:Drivers/STM32F3xx_HAL_Driver/Src/stm32f3xx_hal_flash_ex.c ****     {
 404:Drivers/STM32F3xx_HAL_Driver/Src/stm32f3xx_hal_flash_ex.c ****       /* Process Unlocked */
 405:Drivers/STM32F3xx_HAL_Driver/Src/stm32f3xx_hal_flash_ex.c ****       __HAL_UNLOCK(&pFlash);
 406:Drivers/STM32F3xx_HAL_Driver/Src/stm32f3xx_hal_flash_ex.c ****       return status;
 407:Drivers/STM32F3xx_HAL_Driver/Src/stm32f3xx_hal_flash_ex.c ****     }
 408:Drivers/STM32F3xx_HAL_Driver/Src/stm32f3xx_hal_flash_ex.c ****   }
 409:Drivers/STM32F3xx_HAL_Driver/Src/stm32f3xx_hal_flash_ex.c **** 
 410:Drivers/STM32F3xx_HAL_Driver/Src/stm32f3xx_hal_flash_ex.c ****   /* Read protection configuration */
 411:Drivers/STM32F3xx_HAL_Driver/Src/stm32f3xx_hal_flash_ex.c ****   if((pOBInit->OptionType & OPTIONBYTE_RDP) == OPTIONBYTE_RDP)
 412:Drivers/STM32F3xx_HAL_Driver/Src/stm32f3xx_hal_flash_ex.c ****   {
 413:Drivers/STM32F3xx_HAL_Driver/Src/stm32f3xx_hal_flash_ex.c ****     status = FLASH_OB_RDP_LevelConfig(pOBInit->RDPLevel);
 414:Drivers/STM32F3xx_HAL_Driver/Src/stm32f3xx_hal_flash_ex.c ****     if (status != HAL_OK)
 415:Drivers/STM32F3xx_HAL_Driver/Src/stm32f3xx_hal_flash_ex.c ****     {
 416:Drivers/STM32F3xx_HAL_Driver/Src/stm32f3xx_hal_flash_ex.c ****       /* Process Unlocked */
 417:Drivers/STM32F3xx_HAL_Driver/Src/stm32f3xx_hal_flash_ex.c ****       __HAL_UNLOCK(&pFlash);
 418:Drivers/STM32F3xx_HAL_Driver/Src/stm32f3xx_hal_flash_ex.c ****       return status;
 419:Drivers/STM32F3xx_HAL_Driver/Src/stm32f3xx_hal_flash_ex.c ****     }
 420:Drivers/STM32F3xx_HAL_Driver/Src/stm32f3xx_hal_flash_ex.c ****   }
 421:Drivers/STM32F3xx_HAL_Driver/Src/stm32f3xx_hal_flash_ex.c **** 
 422:Drivers/STM32F3xx_HAL_Driver/Src/stm32f3xx_hal_flash_ex.c ****   /* USER configuration */
 423:Drivers/STM32F3xx_HAL_Driver/Src/stm32f3xx_hal_flash_ex.c ****   if((pOBInit->OptionType & OPTIONBYTE_USER) == OPTIONBYTE_USER)
 424:Drivers/STM32F3xx_HAL_Driver/Src/stm32f3xx_hal_flash_ex.c ****   {
 425:Drivers/STM32F3xx_HAL_Driver/Src/stm32f3xx_hal_flash_ex.c ****     status = FLASH_OB_UserConfig(pOBInit->USERConfig);
 426:Drivers/STM32F3xx_HAL_Driver/Src/stm32f3xx_hal_flash_ex.c ****     if (status != HAL_OK)
 427:Drivers/STM32F3xx_HAL_Driver/Src/stm32f3xx_hal_flash_ex.c ****     {
 428:Drivers/STM32F3xx_HAL_Driver/Src/stm32f3xx_hal_flash_ex.c ****       /* Process Unlocked */
 429:Drivers/STM32F3xx_HAL_Driver/Src/stm32f3xx_hal_flash_ex.c ****       __HAL_UNLOCK(&pFlash);
 430:Drivers/STM32F3xx_HAL_Driver/Src/stm32f3xx_hal_flash_ex.c ****       return status;
ARM GAS  /var/folders/md/lgcc8l7571l9vt9sx0g0zflw0000gn/T//ccyhNZ7g.s 			page 9


 431:Drivers/STM32F3xx_HAL_Driver/Src/stm32f3xx_hal_flash_ex.c ****     }
 432:Drivers/STM32F3xx_HAL_Driver/Src/stm32f3xx_hal_flash_ex.c ****   }
 433:Drivers/STM32F3xx_HAL_Driver/Src/stm32f3xx_hal_flash_ex.c **** 
 434:Drivers/STM32F3xx_HAL_Driver/Src/stm32f3xx_hal_flash_ex.c ****   /* DATA configuration*/
 435:Drivers/STM32F3xx_HAL_Driver/Src/stm32f3xx_hal_flash_ex.c ****   if((pOBInit->OptionType & OPTIONBYTE_DATA) == OPTIONBYTE_DATA)
 436:Drivers/STM32F3xx_HAL_Driver/Src/stm32f3xx_hal_flash_ex.c ****   {
 437:Drivers/STM32F3xx_HAL_Driver/Src/stm32f3xx_hal_flash_ex.c ****     status = FLASH_OB_ProgramData(pOBInit->DATAAddress, pOBInit->DATAData);
 438:Drivers/STM32F3xx_HAL_Driver/Src/stm32f3xx_hal_flash_ex.c ****     if (status != HAL_OK)
 439:Drivers/STM32F3xx_HAL_Driver/Src/stm32f3xx_hal_flash_ex.c ****     {
 440:Drivers/STM32F3xx_HAL_Driver/Src/stm32f3xx_hal_flash_ex.c ****       /* Process Unlocked */
 441:Drivers/STM32F3xx_HAL_Driver/Src/stm32f3xx_hal_flash_ex.c ****       __HAL_UNLOCK(&pFlash);
 442:Drivers/STM32F3xx_HAL_Driver/Src/stm32f3xx_hal_flash_ex.c ****       return status;
 443:Drivers/STM32F3xx_HAL_Driver/Src/stm32f3xx_hal_flash_ex.c ****     }
 444:Drivers/STM32F3xx_HAL_Driver/Src/stm32f3xx_hal_flash_ex.c ****   }
 445:Drivers/STM32F3xx_HAL_Driver/Src/stm32f3xx_hal_flash_ex.c **** 
 446:Drivers/STM32F3xx_HAL_Driver/Src/stm32f3xx_hal_flash_ex.c ****   /* Process Unlocked */
 447:Drivers/STM32F3xx_HAL_Driver/Src/stm32f3xx_hal_flash_ex.c ****   __HAL_UNLOCK(&pFlash);
 448:Drivers/STM32F3xx_HAL_Driver/Src/stm32f3xx_hal_flash_ex.c **** 
 449:Drivers/STM32F3xx_HAL_Driver/Src/stm32f3xx_hal_flash_ex.c ****   return status;
 450:Drivers/STM32F3xx_HAL_Driver/Src/stm32f3xx_hal_flash_ex.c **** }
 451:Drivers/STM32F3xx_HAL_Driver/Src/stm32f3xx_hal_flash_ex.c **** 
 452:Drivers/STM32F3xx_HAL_Driver/Src/stm32f3xx_hal_flash_ex.c **** /**
 453:Drivers/STM32F3xx_HAL_Driver/Src/stm32f3xx_hal_flash_ex.c ****   * @brief  Get the Option byte configuration
 454:Drivers/STM32F3xx_HAL_Driver/Src/stm32f3xx_hal_flash_ex.c ****   * @param  pOBInit pointer to an FLASH_OBInitStruct structure that
 455:Drivers/STM32F3xx_HAL_Driver/Src/stm32f3xx_hal_flash_ex.c ****   *         contains the configuration information for the programming.
 456:Drivers/STM32F3xx_HAL_Driver/Src/stm32f3xx_hal_flash_ex.c ****   *
 457:Drivers/STM32F3xx_HAL_Driver/Src/stm32f3xx_hal_flash_ex.c ****   * @retval None
 458:Drivers/STM32F3xx_HAL_Driver/Src/stm32f3xx_hal_flash_ex.c ****   */
 459:Drivers/STM32F3xx_HAL_Driver/Src/stm32f3xx_hal_flash_ex.c **** void HAL_FLASHEx_OBGetConfig(FLASH_OBProgramInitTypeDef *pOBInit)
 460:Drivers/STM32F3xx_HAL_Driver/Src/stm32f3xx_hal_flash_ex.c **** {
 461:Drivers/STM32F3xx_HAL_Driver/Src/stm32f3xx_hal_flash_ex.c ****   pOBInit->OptionType = OPTIONBYTE_WRP | OPTIONBYTE_RDP | OPTIONBYTE_USER;
 462:Drivers/STM32F3xx_HAL_Driver/Src/stm32f3xx_hal_flash_ex.c **** 
 463:Drivers/STM32F3xx_HAL_Driver/Src/stm32f3xx_hal_flash_ex.c ****   /*Get WRP*/
 464:Drivers/STM32F3xx_HAL_Driver/Src/stm32f3xx_hal_flash_ex.c ****   pOBInit->WRPPage = FLASH_OB_GetWRP();
 465:Drivers/STM32F3xx_HAL_Driver/Src/stm32f3xx_hal_flash_ex.c **** 
 466:Drivers/STM32F3xx_HAL_Driver/Src/stm32f3xx_hal_flash_ex.c ****   /*Get RDP Level*/
 467:Drivers/STM32F3xx_HAL_Driver/Src/stm32f3xx_hal_flash_ex.c ****   pOBInit->RDPLevel = FLASH_OB_GetRDP();
 468:Drivers/STM32F3xx_HAL_Driver/Src/stm32f3xx_hal_flash_ex.c **** 
 469:Drivers/STM32F3xx_HAL_Driver/Src/stm32f3xx_hal_flash_ex.c ****   /*Get USER*/
 470:Drivers/STM32F3xx_HAL_Driver/Src/stm32f3xx_hal_flash_ex.c ****   pOBInit->USERConfig = FLASH_OB_GetUser();
 471:Drivers/STM32F3xx_HAL_Driver/Src/stm32f3xx_hal_flash_ex.c **** }
 472:Drivers/STM32F3xx_HAL_Driver/Src/stm32f3xx_hal_flash_ex.c **** 
 473:Drivers/STM32F3xx_HAL_Driver/Src/stm32f3xx_hal_flash_ex.c **** /**
 474:Drivers/STM32F3xx_HAL_Driver/Src/stm32f3xx_hal_flash_ex.c ****   * @brief  Get the Option byte user data
 475:Drivers/STM32F3xx_HAL_Driver/Src/stm32f3xx_hal_flash_ex.c ****   * @param  DATAAdress Address of the option byte DATA
 476:Drivers/STM32F3xx_HAL_Driver/Src/stm32f3xx_hal_flash_ex.c ****   *          This parameter can be one of the following values:
 477:Drivers/STM32F3xx_HAL_Driver/Src/stm32f3xx_hal_flash_ex.c ****   *            @arg @ref OB_DATA_ADDRESS_DATA0
 478:Drivers/STM32F3xx_HAL_Driver/Src/stm32f3xx_hal_flash_ex.c ****   *            @arg @ref OB_DATA_ADDRESS_DATA1
 479:Drivers/STM32F3xx_HAL_Driver/Src/stm32f3xx_hal_flash_ex.c ****   * @retval Value programmed in USER data
 480:Drivers/STM32F3xx_HAL_Driver/Src/stm32f3xx_hal_flash_ex.c ****   */
 481:Drivers/STM32F3xx_HAL_Driver/Src/stm32f3xx_hal_flash_ex.c **** uint32_t HAL_FLASHEx_OBGetUserData(uint32_t DATAAdress)
 482:Drivers/STM32F3xx_HAL_Driver/Src/stm32f3xx_hal_flash_ex.c **** {
 483:Drivers/STM32F3xx_HAL_Driver/Src/stm32f3xx_hal_flash_ex.c ****   uint32_t value = 0U;
 484:Drivers/STM32F3xx_HAL_Driver/Src/stm32f3xx_hal_flash_ex.c ****   
 485:Drivers/STM32F3xx_HAL_Driver/Src/stm32f3xx_hal_flash_ex.c ****   if (DATAAdress == OB_DATA_ADDRESS_DATA0)
 486:Drivers/STM32F3xx_HAL_Driver/Src/stm32f3xx_hal_flash_ex.c ****   {
 487:Drivers/STM32F3xx_HAL_Driver/Src/stm32f3xx_hal_flash_ex.c ****     /* Get value programmed in OB USER Data0 */
ARM GAS  /var/folders/md/lgcc8l7571l9vt9sx0g0zflw0000gn/T//ccyhNZ7g.s 			page 10


 488:Drivers/STM32F3xx_HAL_Driver/Src/stm32f3xx_hal_flash_ex.c ****     value = READ_BIT(FLASH->OBR, FLASH_OBR_DATA0) >> FLASH_POSITION_OB_USERDATA0_BIT;
 489:Drivers/STM32F3xx_HAL_Driver/Src/stm32f3xx_hal_flash_ex.c ****   }
 490:Drivers/STM32F3xx_HAL_Driver/Src/stm32f3xx_hal_flash_ex.c ****   else
 491:Drivers/STM32F3xx_HAL_Driver/Src/stm32f3xx_hal_flash_ex.c ****   {
 492:Drivers/STM32F3xx_HAL_Driver/Src/stm32f3xx_hal_flash_ex.c ****     /* Get value programmed in OB USER Data1 */
 493:Drivers/STM32F3xx_HAL_Driver/Src/stm32f3xx_hal_flash_ex.c ****     value = READ_BIT(FLASH->OBR, FLASH_OBR_DATA1) >> FLASH_POSITION_OB_USERDATA1_BIT;
 494:Drivers/STM32F3xx_HAL_Driver/Src/stm32f3xx_hal_flash_ex.c ****   }
 495:Drivers/STM32F3xx_HAL_Driver/Src/stm32f3xx_hal_flash_ex.c ****   
 496:Drivers/STM32F3xx_HAL_Driver/Src/stm32f3xx_hal_flash_ex.c ****   return value;
 497:Drivers/STM32F3xx_HAL_Driver/Src/stm32f3xx_hal_flash_ex.c **** }
 498:Drivers/STM32F3xx_HAL_Driver/Src/stm32f3xx_hal_flash_ex.c **** 
 499:Drivers/STM32F3xx_HAL_Driver/Src/stm32f3xx_hal_flash_ex.c **** /**
 500:Drivers/STM32F3xx_HAL_Driver/Src/stm32f3xx_hal_flash_ex.c ****   * @}
 501:Drivers/STM32F3xx_HAL_Driver/Src/stm32f3xx_hal_flash_ex.c ****   */
 502:Drivers/STM32F3xx_HAL_Driver/Src/stm32f3xx_hal_flash_ex.c **** 
 503:Drivers/STM32F3xx_HAL_Driver/Src/stm32f3xx_hal_flash_ex.c **** /**
 504:Drivers/STM32F3xx_HAL_Driver/Src/stm32f3xx_hal_flash_ex.c ****   * @}
 505:Drivers/STM32F3xx_HAL_Driver/Src/stm32f3xx_hal_flash_ex.c ****   */
 506:Drivers/STM32F3xx_HAL_Driver/Src/stm32f3xx_hal_flash_ex.c **** 
 507:Drivers/STM32F3xx_HAL_Driver/Src/stm32f3xx_hal_flash_ex.c **** /** @addtogroup FLASHEx_Private_Functions
 508:Drivers/STM32F3xx_HAL_Driver/Src/stm32f3xx_hal_flash_ex.c ****  * @{
 509:Drivers/STM32F3xx_HAL_Driver/Src/stm32f3xx_hal_flash_ex.c ****  */
 510:Drivers/STM32F3xx_HAL_Driver/Src/stm32f3xx_hal_flash_ex.c **** 
 511:Drivers/STM32F3xx_HAL_Driver/Src/stm32f3xx_hal_flash_ex.c **** /**
 512:Drivers/STM32F3xx_HAL_Driver/Src/stm32f3xx_hal_flash_ex.c ****   * @brief  Full erase of FLASH memory Bank 
 513:Drivers/STM32F3xx_HAL_Driver/Src/stm32f3xx_hal_flash_ex.c ****   *
 514:Drivers/STM32F3xx_HAL_Driver/Src/stm32f3xx_hal_flash_ex.c ****   * @retval None
 515:Drivers/STM32F3xx_HAL_Driver/Src/stm32f3xx_hal_flash_ex.c ****   */
 516:Drivers/STM32F3xx_HAL_Driver/Src/stm32f3xx_hal_flash_ex.c **** static void FLASH_MassErase(void)
 517:Drivers/STM32F3xx_HAL_Driver/Src/stm32f3xx_hal_flash_ex.c **** {
  28              		.loc 1 517 1 view -0
  29              		.cfi_startproc
  30              		@ args = 0, pretend = 0, frame = 0
  31              		@ frame_needed = 0, uses_anonymous_args = 0
  32              		@ link register save eliminated.
 518:Drivers/STM32F3xx_HAL_Driver/Src/stm32f3xx_hal_flash_ex.c ****   /* Clean the error context */
 519:Drivers/STM32F3xx_HAL_Driver/Src/stm32f3xx_hal_flash_ex.c ****   pFlash.ErrorCode = HAL_FLASH_ERROR_NONE;
  33              		.loc 1 519 3 view .LVU1
  34              		.loc 1 519 20 is_stmt 0 view .LVU2
  35 0000 064B     		ldr	r3, .L2
  36 0002 0022     		movs	r2, #0
  37 0004 DA61     		str	r2, [r3, #28]
 520:Drivers/STM32F3xx_HAL_Driver/Src/stm32f3xx_hal_flash_ex.c **** 
 521:Drivers/STM32F3xx_HAL_Driver/Src/stm32f3xx_hal_flash_ex.c ****     /* Only bank1 will be erased*/
 522:Drivers/STM32F3xx_HAL_Driver/Src/stm32f3xx_hal_flash_ex.c ****     SET_BIT(FLASH->CR, FLASH_CR_MER);
  38              		.loc 1 522 5 is_stmt 1 view .LVU3
  39 0006 064B     		ldr	r3, .L2+4
  40 0008 1A69     		ldr	r2, [r3, #16]
  41 000a 42F00402 		orr	r2, r2, #4
  42 000e 1A61     		str	r2, [r3, #16]
 523:Drivers/STM32F3xx_HAL_Driver/Src/stm32f3xx_hal_flash_ex.c ****     SET_BIT(FLASH->CR, FLASH_CR_STRT);
  43              		.loc 1 523 5 view .LVU4
  44 0010 1A69     		ldr	r2, [r3, #16]
  45 0012 42F04002 		orr	r2, r2, #64
  46 0016 1A61     		str	r2, [r3, #16]
 524:Drivers/STM32F3xx_HAL_Driver/Src/stm32f3xx_hal_flash_ex.c **** }
  47              		.loc 1 524 1 is_stmt 0 view .LVU5
ARM GAS  /var/folders/md/lgcc8l7571l9vt9sx0g0zflw0000gn/T//ccyhNZ7g.s 			page 11


  48 0018 7047     		bx	lr
  49              	.L3:
  50 001a 00BF     		.align	2
  51              	.L2:
  52 001c 00000000 		.word	pFlash
  53 0020 00200240 		.word	1073881088
  54              		.cfi_endproc
  55              	.LFE132:
  57              		.section	.text.FLASH_OB_GetWRP,"ax",%progbits
  58              		.align	1
  59              		.syntax unified
  60              		.thumb
  61              		.thumb_func
  62              		.fpu fpv4-sp-d16
  64              	FLASH_OB_GetWRP:
  65              	.LFB138:
 525:Drivers/STM32F3xx_HAL_Driver/Src/stm32f3xx_hal_flash_ex.c **** 
 526:Drivers/STM32F3xx_HAL_Driver/Src/stm32f3xx_hal_flash_ex.c **** /**
 527:Drivers/STM32F3xx_HAL_Driver/Src/stm32f3xx_hal_flash_ex.c ****   * @brief  Enable the write protection of the desired pages
 528:Drivers/STM32F3xx_HAL_Driver/Src/stm32f3xx_hal_flash_ex.c ****   * @note   An option byte erase is done automatically in this function. 
 529:Drivers/STM32F3xx_HAL_Driver/Src/stm32f3xx_hal_flash_ex.c ****   * @note   When the memory read protection level is selected (RDP level = 1), 
 530:Drivers/STM32F3xx_HAL_Driver/Src/stm32f3xx_hal_flash_ex.c ****   *         it is not possible to program or erase the flash page i if
 531:Drivers/STM32F3xx_HAL_Driver/Src/stm32f3xx_hal_flash_ex.c ****   *         debug features are connected or boot code is executed in RAM, even if nWRPi = 1 
 532:Drivers/STM32F3xx_HAL_Driver/Src/stm32f3xx_hal_flash_ex.c ****   * 
 533:Drivers/STM32F3xx_HAL_Driver/Src/stm32f3xx_hal_flash_ex.c ****   * @param  WriteProtectPage specifies the page(s) to be write protected.
 534:Drivers/STM32F3xx_HAL_Driver/Src/stm32f3xx_hal_flash_ex.c ****   *         The value of this parameter depend on device used within the same series 
 535:Drivers/STM32F3xx_HAL_Driver/Src/stm32f3xx_hal_flash_ex.c ****   * @retval HAL status 
 536:Drivers/STM32F3xx_HAL_Driver/Src/stm32f3xx_hal_flash_ex.c ****   */
 537:Drivers/STM32F3xx_HAL_Driver/Src/stm32f3xx_hal_flash_ex.c **** static HAL_StatusTypeDef FLASH_OB_EnableWRP(uint32_t WriteProtectPage)
 538:Drivers/STM32F3xx_HAL_Driver/Src/stm32f3xx_hal_flash_ex.c **** {
 539:Drivers/STM32F3xx_HAL_Driver/Src/stm32f3xx_hal_flash_ex.c ****   HAL_StatusTypeDef status = HAL_OK;
 540:Drivers/STM32F3xx_HAL_Driver/Src/stm32f3xx_hal_flash_ex.c ****   uint16_t WRP0_Data = 0xFFFFU;
 541:Drivers/STM32F3xx_HAL_Driver/Src/stm32f3xx_hal_flash_ex.c **** #if defined(OB_WRP1_WRP1)
 542:Drivers/STM32F3xx_HAL_Driver/Src/stm32f3xx_hal_flash_ex.c ****   uint16_t WRP1_Data = 0xFFFFU;
 543:Drivers/STM32F3xx_HAL_Driver/Src/stm32f3xx_hal_flash_ex.c **** #endif /* OB_WRP1_WRP1 */
 544:Drivers/STM32F3xx_HAL_Driver/Src/stm32f3xx_hal_flash_ex.c **** #if defined(OB_WRP2_WRP2)
 545:Drivers/STM32F3xx_HAL_Driver/Src/stm32f3xx_hal_flash_ex.c ****   uint16_t WRP2_Data = 0xFFFFU;
 546:Drivers/STM32F3xx_HAL_Driver/Src/stm32f3xx_hal_flash_ex.c **** #endif /* OB_WRP2_WRP2 */
 547:Drivers/STM32F3xx_HAL_Driver/Src/stm32f3xx_hal_flash_ex.c **** #if defined(OB_WRP3_WRP3)
 548:Drivers/STM32F3xx_HAL_Driver/Src/stm32f3xx_hal_flash_ex.c ****   uint16_t WRP3_Data = 0xFFFFU;
 549:Drivers/STM32F3xx_HAL_Driver/Src/stm32f3xx_hal_flash_ex.c **** #endif /* OB_WRP3_WRP3 */
 550:Drivers/STM32F3xx_HAL_Driver/Src/stm32f3xx_hal_flash_ex.c ****   
 551:Drivers/STM32F3xx_HAL_Driver/Src/stm32f3xx_hal_flash_ex.c ****   /* Check the parameters */
 552:Drivers/STM32F3xx_HAL_Driver/Src/stm32f3xx_hal_flash_ex.c ****   assert_param(IS_OB_WRP(WriteProtectPage));
 553:Drivers/STM32F3xx_HAL_Driver/Src/stm32f3xx_hal_flash_ex.c ****     
 554:Drivers/STM32F3xx_HAL_Driver/Src/stm32f3xx_hal_flash_ex.c ****   /* Get current write protected pages and the new pages to be protected ******/
 555:Drivers/STM32F3xx_HAL_Driver/Src/stm32f3xx_hal_flash_ex.c ****   WriteProtectPage = (uint32_t)(~((~FLASH_OB_GetWRP()) | WriteProtectPage));
 556:Drivers/STM32F3xx_HAL_Driver/Src/stm32f3xx_hal_flash_ex.c ****   
 557:Drivers/STM32F3xx_HAL_Driver/Src/stm32f3xx_hal_flash_ex.c **** #if defined(OB_WRP_PAGES0TO15MASK)
 558:Drivers/STM32F3xx_HAL_Driver/Src/stm32f3xx_hal_flash_ex.c ****   WRP0_Data = (uint16_t)(WriteProtectPage & OB_WRP_PAGES0TO15MASK);
 559:Drivers/STM32F3xx_HAL_Driver/Src/stm32f3xx_hal_flash_ex.c **** #endif /* OB_WRP_PAGES0TO31MASK */
 560:Drivers/STM32F3xx_HAL_Driver/Src/stm32f3xx_hal_flash_ex.c ****   
 561:Drivers/STM32F3xx_HAL_Driver/Src/stm32f3xx_hal_flash_ex.c **** #if defined(OB_WRP_PAGES16TO31MASK)
 562:Drivers/STM32F3xx_HAL_Driver/Src/stm32f3xx_hal_flash_ex.c ****   WRP1_Data = (uint16_t)((WriteProtectPage & OB_WRP_PAGES16TO31MASK) >> 8U);
 563:Drivers/STM32F3xx_HAL_Driver/Src/stm32f3xx_hal_flash_ex.c **** #endif /* OB_WRP_PAGES32TO63MASK */
 564:Drivers/STM32F3xx_HAL_Driver/Src/stm32f3xx_hal_flash_ex.c ****  
 565:Drivers/STM32F3xx_HAL_Driver/Src/stm32f3xx_hal_flash_ex.c **** #if defined(OB_WRP_PAGES32TO47MASK)
ARM GAS  /var/folders/md/lgcc8l7571l9vt9sx0g0zflw0000gn/T//ccyhNZ7g.s 			page 12


 566:Drivers/STM32F3xx_HAL_Driver/Src/stm32f3xx_hal_flash_ex.c ****   WRP2_Data = (uint16_t)((WriteProtectPage & OB_WRP_PAGES32TO47MASK) >> 16U);
 567:Drivers/STM32F3xx_HAL_Driver/Src/stm32f3xx_hal_flash_ex.c **** #endif /* OB_WRP_PAGES32TO47MASK */
 568:Drivers/STM32F3xx_HAL_Driver/Src/stm32f3xx_hal_flash_ex.c **** 
 569:Drivers/STM32F3xx_HAL_Driver/Src/stm32f3xx_hal_flash_ex.c **** #if defined(OB_WRP_PAGES48TO127MASK)
 570:Drivers/STM32F3xx_HAL_Driver/Src/stm32f3xx_hal_flash_ex.c ****   WRP3_Data = (uint16_t)((WriteProtectPage & OB_WRP_PAGES48TO127MASK) >> 24U); 
 571:Drivers/STM32F3xx_HAL_Driver/Src/stm32f3xx_hal_flash_ex.c **** #elif defined(OB_WRP_PAGES48TO255MASK)
 572:Drivers/STM32F3xx_HAL_Driver/Src/stm32f3xx_hal_flash_ex.c ****   WRP3_Data = (uint16_t)((WriteProtectPage & OB_WRP_PAGES48TO255MASK) >> 24U); 
 573:Drivers/STM32F3xx_HAL_Driver/Src/stm32f3xx_hal_flash_ex.c **** #endif /* OB_WRP_PAGES48TO63MASK */
 574:Drivers/STM32F3xx_HAL_Driver/Src/stm32f3xx_hal_flash_ex.c ****   
 575:Drivers/STM32F3xx_HAL_Driver/Src/stm32f3xx_hal_flash_ex.c ****   /* Wait for last operation to be completed */
 576:Drivers/STM32F3xx_HAL_Driver/Src/stm32f3xx_hal_flash_ex.c ****   status = FLASH_WaitForLastOperation((uint32_t)FLASH_TIMEOUT_VALUE);
 577:Drivers/STM32F3xx_HAL_Driver/Src/stm32f3xx_hal_flash_ex.c **** 
 578:Drivers/STM32F3xx_HAL_Driver/Src/stm32f3xx_hal_flash_ex.c ****   if(status == HAL_OK)
 579:Drivers/STM32F3xx_HAL_Driver/Src/stm32f3xx_hal_flash_ex.c ****   { 
 580:Drivers/STM32F3xx_HAL_Driver/Src/stm32f3xx_hal_flash_ex.c ****     /* Clean the error context */
 581:Drivers/STM32F3xx_HAL_Driver/Src/stm32f3xx_hal_flash_ex.c ****     pFlash.ErrorCode = HAL_FLASH_ERROR_NONE;
 582:Drivers/STM32F3xx_HAL_Driver/Src/stm32f3xx_hal_flash_ex.c **** 
 583:Drivers/STM32F3xx_HAL_Driver/Src/stm32f3xx_hal_flash_ex.c ****     /* To be able to write again option byte, need to perform a option byte erase */
 584:Drivers/STM32F3xx_HAL_Driver/Src/stm32f3xx_hal_flash_ex.c ****     status = HAL_FLASHEx_OBErase();
 585:Drivers/STM32F3xx_HAL_Driver/Src/stm32f3xx_hal_flash_ex.c ****     if (status == HAL_OK)  
 586:Drivers/STM32F3xx_HAL_Driver/Src/stm32f3xx_hal_flash_ex.c ****     {
 587:Drivers/STM32F3xx_HAL_Driver/Src/stm32f3xx_hal_flash_ex.c ****       /* Enable write protection */
 588:Drivers/STM32F3xx_HAL_Driver/Src/stm32f3xx_hal_flash_ex.c ****       SET_BIT(FLASH->CR, FLASH_CR_OPTPG);
 589:Drivers/STM32F3xx_HAL_Driver/Src/stm32f3xx_hal_flash_ex.c **** 
 590:Drivers/STM32F3xx_HAL_Driver/Src/stm32f3xx_hal_flash_ex.c **** #if defined(OB_WRP0_WRP0)
 591:Drivers/STM32F3xx_HAL_Driver/Src/stm32f3xx_hal_flash_ex.c ****       if(WRP0_Data != 0xFFU)
 592:Drivers/STM32F3xx_HAL_Driver/Src/stm32f3xx_hal_flash_ex.c ****       {
 593:Drivers/STM32F3xx_HAL_Driver/Src/stm32f3xx_hal_flash_ex.c ****         OB->WRP0 &= WRP0_Data;
 594:Drivers/STM32F3xx_HAL_Driver/Src/stm32f3xx_hal_flash_ex.c ****         
 595:Drivers/STM32F3xx_HAL_Driver/Src/stm32f3xx_hal_flash_ex.c ****         /* Wait for last operation to be completed */
 596:Drivers/STM32F3xx_HAL_Driver/Src/stm32f3xx_hal_flash_ex.c ****         status = FLASH_WaitForLastOperation((uint32_t)FLASH_TIMEOUT_VALUE);
 597:Drivers/STM32F3xx_HAL_Driver/Src/stm32f3xx_hal_flash_ex.c ****       }
 598:Drivers/STM32F3xx_HAL_Driver/Src/stm32f3xx_hal_flash_ex.c **** #endif /* OB_WRP0_WRP0 */
 599:Drivers/STM32F3xx_HAL_Driver/Src/stm32f3xx_hal_flash_ex.c **** 
 600:Drivers/STM32F3xx_HAL_Driver/Src/stm32f3xx_hal_flash_ex.c **** #if defined(OB_WRP1_WRP1)
 601:Drivers/STM32F3xx_HAL_Driver/Src/stm32f3xx_hal_flash_ex.c ****       if((status == HAL_OK) && (WRP1_Data != 0xFFU))
 602:Drivers/STM32F3xx_HAL_Driver/Src/stm32f3xx_hal_flash_ex.c ****       {
 603:Drivers/STM32F3xx_HAL_Driver/Src/stm32f3xx_hal_flash_ex.c ****         OB->WRP1 &= WRP1_Data;
 604:Drivers/STM32F3xx_HAL_Driver/Src/stm32f3xx_hal_flash_ex.c ****         
 605:Drivers/STM32F3xx_HAL_Driver/Src/stm32f3xx_hal_flash_ex.c ****         /* Wait for last operation to be completed */
 606:Drivers/STM32F3xx_HAL_Driver/Src/stm32f3xx_hal_flash_ex.c ****         status = FLASH_WaitForLastOperation((uint32_t)FLASH_TIMEOUT_VALUE);
 607:Drivers/STM32F3xx_HAL_Driver/Src/stm32f3xx_hal_flash_ex.c ****       }
 608:Drivers/STM32F3xx_HAL_Driver/Src/stm32f3xx_hal_flash_ex.c **** #endif /* OB_WRP1_WRP1 */
 609:Drivers/STM32F3xx_HAL_Driver/Src/stm32f3xx_hal_flash_ex.c **** 
 610:Drivers/STM32F3xx_HAL_Driver/Src/stm32f3xx_hal_flash_ex.c **** #if defined(OB_WRP2_WRP2)
 611:Drivers/STM32F3xx_HAL_Driver/Src/stm32f3xx_hal_flash_ex.c ****       if((status == HAL_OK) && (WRP2_Data != 0xFFU))
 612:Drivers/STM32F3xx_HAL_Driver/Src/stm32f3xx_hal_flash_ex.c ****       {
 613:Drivers/STM32F3xx_HAL_Driver/Src/stm32f3xx_hal_flash_ex.c ****         OB->WRP2 &= WRP2_Data;
 614:Drivers/STM32F3xx_HAL_Driver/Src/stm32f3xx_hal_flash_ex.c ****         
 615:Drivers/STM32F3xx_HAL_Driver/Src/stm32f3xx_hal_flash_ex.c ****         /* Wait for last operation to be completed */
 616:Drivers/STM32F3xx_HAL_Driver/Src/stm32f3xx_hal_flash_ex.c ****         status = FLASH_WaitForLastOperation((uint32_t)FLASH_TIMEOUT_VALUE);
 617:Drivers/STM32F3xx_HAL_Driver/Src/stm32f3xx_hal_flash_ex.c ****       }
 618:Drivers/STM32F3xx_HAL_Driver/Src/stm32f3xx_hal_flash_ex.c **** #endif /* OB_WRP2_WRP2 */
 619:Drivers/STM32F3xx_HAL_Driver/Src/stm32f3xx_hal_flash_ex.c **** 
 620:Drivers/STM32F3xx_HAL_Driver/Src/stm32f3xx_hal_flash_ex.c **** #if defined(OB_WRP3_WRP3)
 621:Drivers/STM32F3xx_HAL_Driver/Src/stm32f3xx_hal_flash_ex.c ****       if((status == HAL_OK) && (WRP3_Data != 0xFFU))
 622:Drivers/STM32F3xx_HAL_Driver/Src/stm32f3xx_hal_flash_ex.c ****       {
ARM GAS  /var/folders/md/lgcc8l7571l9vt9sx0g0zflw0000gn/T//ccyhNZ7g.s 			page 13


 623:Drivers/STM32F3xx_HAL_Driver/Src/stm32f3xx_hal_flash_ex.c ****         OB->WRP3 &= WRP3_Data;
 624:Drivers/STM32F3xx_HAL_Driver/Src/stm32f3xx_hal_flash_ex.c ****         
 625:Drivers/STM32F3xx_HAL_Driver/Src/stm32f3xx_hal_flash_ex.c ****         /* Wait for last operation to be completed */
 626:Drivers/STM32F3xx_HAL_Driver/Src/stm32f3xx_hal_flash_ex.c ****         status = FLASH_WaitForLastOperation((uint32_t)FLASH_TIMEOUT_VALUE);
 627:Drivers/STM32F3xx_HAL_Driver/Src/stm32f3xx_hal_flash_ex.c ****       }
 628:Drivers/STM32F3xx_HAL_Driver/Src/stm32f3xx_hal_flash_ex.c **** #endif /* OB_WRP3_WRP3 */
 629:Drivers/STM32F3xx_HAL_Driver/Src/stm32f3xx_hal_flash_ex.c **** 
 630:Drivers/STM32F3xx_HAL_Driver/Src/stm32f3xx_hal_flash_ex.c ****       /* if the program operation is completed, disable the OPTPG Bit */
 631:Drivers/STM32F3xx_HAL_Driver/Src/stm32f3xx_hal_flash_ex.c ****       CLEAR_BIT(FLASH->CR, FLASH_CR_OPTPG);
 632:Drivers/STM32F3xx_HAL_Driver/Src/stm32f3xx_hal_flash_ex.c ****     }
 633:Drivers/STM32F3xx_HAL_Driver/Src/stm32f3xx_hal_flash_ex.c ****   }
 634:Drivers/STM32F3xx_HAL_Driver/Src/stm32f3xx_hal_flash_ex.c ****   
 635:Drivers/STM32F3xx_HAL_Driver/Src/stm32f3xx_hal_flash_ex.c ****   return status;
 636:Drivers/STM32F3xx_HAL_Driver/Src/stm32f3xx_hal_flash_ex.c **** }
 637:Drivers/STM32F3xx_HAL_Driver/Src/stm32f3xx_hal_flash_ex.c **** 
 638:Drivers/STM32F3xx_HAL_Driver/Src/stm32f3xx_hal_flash_ex.c **** /**
 639:Drivers/STM32F3xx_HAL_Driver/Src/stm32f3xx_hal_flash_ex.c ****   * @brief  Disable the write protection of the desired pages
 640:Drivers/STM32F3xx_HAL_Driver/Src/stm32f3xx_hal_flash_ex.c ****   * @note   An option byte erase is done automatically in this function. 
 641:Drivers/STM32F3xx_HAL_Driver/Src/stm32f3xx_hal_flash_ex.c ****   * @note   When the memory read protection level is selected (RDP level = 1), 
 642:Drivers/STM32F3xx_HAL_Driver/Src/stm32f3xx_hal_flash_ex.c ****   *         it is not possible to program or erase the flash page i if   
 643:Drivers/STM32F3xx_HAL_Driver/Src/stm32f3xx_hal_flash_ex.c ****   *         debug features are connected or boot code is executed in RAM, even if nWRPi = 1 
 644:Drivers/STM32F3xx_HAL_Driver/Src/stm32f3xx_hal_flash_ex.c ****   * 
 645:Drivers/STM32F3xx_HAL_Driver/Src/stm32f3xx_hal_flash_ex.c ****   * @param  WriteProtectPage specifies the page(s) to be write unprotected.
 646:Drivers/STM32F3xx_HAL_Driver/Src/stm32f3xx_hal_flash_ex.c ****   *         The value of this parameter depend on device used within the same series 
 647:Drivers/STM32F3xx_HAL_Driver/Src/stm32f3xx_hal_flash_ex.c ****   * @retval HAL status 
 648:Drivers/STM32F3xx_HAL_Driver/Src/stm32f3xx_hal_flash_ex.c ****   */
 649:Drivers/STM32F3xx_HAL_Driver/Src/stm32f3xx_hal_flash_ex.c **** static HAL_StatusTypeDef FLASH_OB_DisableWRP(uint32_t WriteProtectPage)
 650:Drivers/STM32F3xx_HAL_Driver/Src/stm32f3xx_hal_flash_ex.c **** {
 651:Drivers/STM32F3xx_HAL_Driver/Src/stm32f3xx_hal_flash_ex.c ****   HAL_StatusTypeDef status = HAL_OK;
 652:Drivers/STM32F3xx_HAL_Driver/Src/stm32f3xx_hal_flash_ex.c ****   uint16_t WRP0_Data = 0xFFFFU;
 653:Drivers/STM32F3xx_HAL_Driver/Src/stm32f3xx_hal_flash_ex.c **** #if defined(OB_WRP1_WRP1)
 654:Drivers/STM32F3xx_HAL_Driver/Src/stm32f3xx_hal_flash_ex.c ****   uint16_t WRP1_Data = 0xFFFFU;
 655:Drivers/STM32F3xx_HAL_Driver/Src/stm32f3xx_hal_flash_ex.c **** #endif /* OB_WRP1_WRP1 */
 656:Drivers/STM32F3xx_HAL_Driver/Src/stm32f3xx_hal_flash_ex.c **** #if defined(OB_WRP2_WRP2)
 657:Drivers/STM32F3xx_HAL_Driver/Src/stm32f3xx_hal_flash_ex.c ****   uint16_t WRP2_Data = 0xFFFFU;
 658:Drivers/STM32F3xx_HAL_Driver/Src/stm32f3xx_hal_flash_ex.c **** #endif /* OB_WRP2_WRP2 */
 659:Drivers/STM32F3xx_HAL_Driver/Src/stm32f3xx_hal_flash_ex.c **** #if defined(OB_WRP3_WRP3)
 660:Drivers/STM32F3xx_HAL_Driver/Src/stm32f3xx_hal_flash_ex.c ****   uint16_t WRP3_Data = 0xFFFFU;
 661:Drivers/STM32F3xx_HAL_Driver/Src/stm32f3xx_hal_flash_ex.c **** #endif /* OB_WRP3_WRP3 */
 662:Drivers/STM32F3xx_HAL_Driver/Src/stm32f3xx_hal_flash_ex.c ****   
 663:Drivers/STM32F3xx_HAL_Driver/Src/stm32f3xx_hal_flash_ex.c ****   /* Check the parameters */
 664:Drivers/STM32F3xx_HAL_Driver/Src/stm32f3xx_hal_flash_ex.c ****   assert_param(IS_OB_WRP(WriteProtectPage));
 665:Drivers/STM32F3xx_HAL_Driver/Src/stm32f3xx_hal_flash_ex.c **** 
 666:Drivers/STM32F3xx_HAL_Driver/Src/stm32f3xx_hal_flash_ex.c ****   /* Get current write protected pages and the new pages to be unprotected ******/
 667:Drivers/STM32F3xx_HAL_Driver/Src/stm32f3xx_hal_flash_ex.c ****   WriteProtectPage = (FLASH_OB_GetWRP() | WriteProtectPage);
 668:Drivers/STM32F3xx_HAL_Driver/Src/stm32f3xx_hal_flash_ex.c **** 
 669:Drivers/STM32F3xx_HAL_Driver/Src/stm32f3xx_hal_flash_ex.c **** #if defined(OB_WRP_PAGES0TO15MASK)
 670:Drivers/STM32F3xx_HAL_Driver/Src/stm32f3xx_hal_flash_ex.c ****   WRP0_Data = (uint16_t)(WriteProtectPage & OB_WRP_PAGES0TO15MASK);
 671:Drivers/STM32F3xx_HAL_Driver/Src/stm32f3xx_hal_flash_ex.c **** #endif /* OB_WRP_PAGES0TO31MASK */
 672:Drivers/STM32F3xx_HAL_Driver/Src/stm32f3xx_hal_flash_ex.c ****   
 673:Drivers/STM32F3xx_HAL_Driver/Src/stm32f3xx_hal_flash_ex.c **** #if defined(OB_WRP_PAGES16TO31MASK)
 674:Drivers/STM32F3xx_HAL_Driver/Src/stm32f3xx_hal_flash_ex.c ****   WRP1_Data = (uint16_t)((WriteProtectPage & OB_WRP_PAGES16TO31MASK) >> 8U);
 675:Drivers/STM32F3xx_HAL_Driver/Src/stm32f3xx_hal_flash_ex.c **** #endif /* OB_WRP_PAGES32TO63MASK */
 676:Drivers/STM32F3xx_HAL_Driver/Src/stm32f3xx_hal_flash_ex.c ****  
 677:Drivers/STM32F3xx_HAL_Driver/Src/stm32f3xx_hal_flash_ex.c **** #if defined(OB_WRP_PAGES32TO47MASK)
 678:Drivers/STM32F3xx_HAL_Driver/Src/stm32f3xx_hal_flash_ex.c ****   WRP2_Data = (uint16_t)((WriteProtectPage & OB_WRP_PAGES32TO47MASK) >> 16U);
 679:Drivers/STM32F3xx_HAL_Driver/Src/stm32f3xx_hal_flash_ex.c **** #endif /* OB_WRP_PAGES32TO47MASK */
ARM GAS  /var/folders/md/lgcc8l7571l9vt9sx0g0zflw0000gn/T//ccyhNZ7g.s 			page 14


 680:Drivers/STM32F3xx_HAL_Driver/Src/stm32f3xx_hal_flash_ex.c **** 
 681:Drivers/STM32F3xx_HAL_Driver/Src/stm32f3xx_hal_flash_ex.c **** #if defined(OB_WRP_PAGES48TO127MASK)
 682:Drivers/STM32F3xx_HAL_Driver/Src/stm32f3xx_hal_flash_ex.c ****   WRP3_Data = (uint16_t)((WriteProtectPage & OB_WRP_PAGES48TO127MASK) >> 24U); 
 683:Drivers/STM32F3xx_HAL_Driver/Src/stm32f3xx_hal_flash_ex.c **** #elif defined(OB_WRP_PAGES48TO255MASK)
 684:Drivers/STM32F3xx_HAL_Driver/Src/stm32f3xx_hal_flash_ex.c ****   WRP3_Data = (uint16_t)((WriteProtectPage & OB_WRP_PAGES48TO255MASK) >> 24U); 
 685:Drivers/STM32F3xx_HAL_Driver/Src/stm32f3xx_hal_flash_ex.c **** #endif /* OB_WRP_PAGES48TO63MASK */
 686:Drivers/STM32F3xx_HAL_Driver/Src/stm32f3xx_hal_flash_ex.c **** 
 687:Drivers/STM32F3xx_HAL_Driver/Src/stm32f3xx_hal_flash_ex.c ****     
 688:Drivers/STM32F3xx_HAL_Driver/Src/stm32f3xx_hal_flash_ex.c ****   /* Wait for last operation to be completed */
 689:Drivers/STM32F3xx_HAL_Driver/Src/stm32f3xx_hal_flash_ex.c ****   status = FLASH_WaitForLastOperation((uint32_t)FLASH_TIMEOUT_VALUE);
 690:Drivers/STM32F3xx_HAL_Driver/Src/stm32f3xx_hal_flash_ex.c **** 
 691:Drivers/STM32F3xx_HAL_Driver/Src/stm32f3xx_hal_flash_ex.c ****   if(status == HAL_OK)
 692:Drivers/STM32F3xx_HAL_Driver/Src/stm32f3xx_hal_flash_ex.c ****   { 
 693:Drivers/STM32F3xx_HAL_Driver/Src/stm32f3xx_hal_flash_ex.c ****     /* Clean the error context */
 694:Drivers/STM32F3xx_HAL_Driver/Src/stm32f3xx_hal_flash_ex.c ****     pFlash.ErrorCode = HAL_FLASH_ERROR_NONE;
 695:Drivers/STM32F3xx_HAL_Driver/Src/stm32f3xx_hal_flash_ex.c **** 
 696:Drivers/STM32F3xx_HAL_Driver/Src/stm32f3xx_hal_flash_ex.c ****     /* To be able to write again option byte, need to perform a option byte erase */
 697:Drivers/STM32F3xx_HAL_Driver/Src/stm32f3xx_hal_flash_ex.c ****     status = HAL_FLASHEx_OBErase();
 698:Drivers/STM32F3xx_HAL_Driver/Src/stm32f3xx_hal_flash_ex.c ****     if (status == HAL_OK)  
 699:Drivers/STM32F3xx_HAL_Driver/Src/stm32f3xx_hal_flash_ex.c ****     {
 700:Drivers/STM32F3xx_HAL_Driver/Src/stm32f3xx_hal_flash_ex.c ****       SET_BIT(FLASH->CR, FLASH_CR_OPTPG);
 701:Drivers/STM32F3xx_HAL_Driver/Src/stm32f3xx_hal_flash_ex.c **** 
 702:Drivers/STM32F3xx_HAL_Driver/Src/stm32f3xx_hal_flash_ex.c **** #if defined(OB_WRP0_WRP0)
 703:Drivers/STM32F3xx_HAL_Driver/Src/stm32f3xx_hal_flash_ex.c ****       if(WRP0_Data != 0xFFU)
 704:Drivers/STM32F3xx_HAL_Driver/Src/stm32f3xx_hal_flash_ex.c ****       {
 705:Drivers/STM32F3xx_HAL_Driver/Src/stm32f3xx_hal_flash_ex.c ****         OB->WRP0 |= WRP0_Data;
 706:Drivers/STM32F3xx_HAL_Driver/Src/stm32f3xx_hal_flash_ex.c ****         
 707:Drivers/STM32F3xx_HAL_Driver/Src/stm32f3xx_hal_flash_ex.c ****         /* Wait for last operation to be completed */
 708:Drivers/STM32F3xx_HAL_Driver/Src/stm32f3xx_hal_flash_ex.c ****         status = FLASH_WaitForLastOperation((uint32_t)FLASH_TIMEOUT_VALUE);
 709:Drivers/STM32F3xx_HAL_Driver/Src/stm32f3xx_hal_flash_ex.c ****       }
 710:Drivers/STM32F3xx_HAL_Driver/Src/stm32f3xx_hal_flash_ex.c **** #endif /* OB_WRP0_WRP0 */
 711:Drivers/STM32F3xx_HAL_Driver/Src/stm32f3xx_hal_flash_ex.c **** 
 712:Drivers/STM32F3xx_HAL_Driver/Src/stm32f3xx_hal_flash_ex.c **** #if defined(OB_WRP1_WRP1)
 713:Drivers/STM32F3xx_HAL_Driver/Src/stm32f3xx_hal_flash_ex.c ****       if((status == HAL_OK) && (WRP1_Data != 0xFFU))
 714:Drivers/STM32F3xx_HAL_Driver/Src/stm32f3xx_hal_flash_ex.c ****       {
 715:Drivers/STM32F3xx_HAL_Driver/Src/stm32f3xx_hal_flash_ex.c ****         OB->WRP1 |= WRP1_Data;
 716:Drivers/STM32F3xx_HAL_Driver/Src/stm32f3xx_hal_flash_ex.c ****         
 717:Drivers/STM32F3xx_HAL_Driver/Src/stm32f3xx_hal_flash_ex.c ****         /* Wait for last operation to be completed */
 718:Drivers/STM32F3xx_HAL_Driver/Src/stm32f3xx_hal_flash_ex.c ****         status = FLASH_WaitForLastOperation((uint32_t)FLASH_TIMEOUT_VALUE);
 719:Drivers/STM32F3xx_HAL_Driver/Src/stm32f3xx_hal_flash_ex.c ****       }
 720:Drivers/STM32F3xx_HAL_Driver/Src/stm32f3xx_hal_flash_ex.c **** #endif /* OB_WRP1_WRP1 */
 721:Drivers/STM32F3xx_HAL_Driver/Src/stm32f3xx_hal_flash_ex.c **** 
 722:Drivers/STM32F3xx_HAL_Driver/Src/stm32f3xx_hal_flash_ex.c **** #if defined(OB_WRP2_WRP2)
 723:Drivers/STM32F3xx_HAL_Driver/Src/stm32f3xx_hal_flash_ex.c ****       if((status == HAL_OK) && (WRP2_Data != 0xFFU))
 724:Drivers/STM32F3xx_HAL_Driver/Src/stm32f3xx_hal_flash_ex.c ****       {
 725:Drivers/STM32F3xx_HAL_Driver/Src/stm32f3xx_hal_flash_ex.c ****         OB->WRP2 |= WRP2_Data;
 726:Drivers/STM32F3xx_HAL_Driver/Src/stm32f3xx_hal_flash_ex.c ****         
 727:Drivers/STM32F3xx_HAL_Driver/Src/stm32f3xx_hal_flash_ex.c ****         /* Wait for last operation to be completed */
 728:Drivers/STM32F3xx_HAL_Driver/Src/stm32f3xx_hal_flash_ex.c ****         status = FLASH_WaitForLastOperation((uint32_t)FLASH_TIMEOUT_VALUE);
 729:Drivers/STM32F3xx_HAL_Driver/Src/stm32f3xx_hal_flash_ex.c ****       }
 730:Drivers/STM32F3xx_HAL_Driver/Src/stm32f3xx_hal_flash_ex.c **** #endif /* OB_WRP2_WRP2 */
 731:Drivers/STM32F3xx_HAL_Driver/Src/stm32f3xx_hal_flash_ex.c **** 
 732:Drivers/STM32F3xx_HAL_Driver/Src/stm32f3xx_hal_flash_ex.c **** #if defined(OB_WRP3_WRP3)
 733:Drivers/STM32F3xx_HAL_Driver/Src/stm32f3xx_hal_flash_ex.c ****       if((status == HAL_OK) && (WRP3_Data != 0xFFU))
 734:Drivers/STM32F3xx_HAL_Driver/Src/stm32f3xx_hal_flash_ex.c ****       {
 735:Drivers/STM32F3xx_HAL_Driver/Src/stm32f3xx_hal_flash_ex.c ****         OB->WRP3 |= WRP3_Data;
 736:Drivers/STM32F3xx_HAL_Driver/Src/stm32f3xx_hal_flash_ex.c ****         
ARM GAS  /var/folders/md/lgcc8l7571l9vt9sx0g0zflw0000gn/T//ccyhNZ7g.s 			page 15


 737:Drivers/STM32F3xx_HAL_Driver/Src/stm32f3xx_hal_flash_ex.c ****         /* Wait for last operation to be completed */
 738:Drivers/STM32F3xx_HAL_Driver/Src/stm32f3xx_hal_flash_ex.c ****         status = FLASH_WaitForLastOperation((uint32_t)FLASH_TIMEOUT_VALUE);
 739:Drivers/STM32F3xx_HAL_Driver/Src/stm32f3xx_hal_flash_ex.c ****       }
 740:Drivers/STM32F3xx_HAL_Driver/Src/stm32f3xx_hal_flash_ex.c **** #endif /* OB_WRP3_WRP3 */
 741:Drivers/STM32F3xx_HAL_Driver/Src/stm32f3xx_hal_flash_ex.c **** 
 742:Drivers/STM32F3xx_HAL_Driver/Src/stm32f3xx_hal_flash_ex.c ****       /* if the program operation is completed, disable the OPTPG Bit */
 743:Drivers/STM32F3xx_HAL_Driver/Src/stm32f3xx_hal_flash_ex.c ****       CLEAR_BIT(FLASH->CR, FLASH_CR_OPTPG);
 744:Drivers/STM32F3xx_HAL_Driver/Src/stm32f3xx_hal_flash_ex.c ****     }
 745:Drivers/STM32F3xx_HAL_Driver/Src/stm32f3xx_hal_flash_ex.c ****   }
 746:Drivers/STM32F3xx_HAL_Driver/Src/stm32f3xx_hal_flash_ex.c ****   return status;
 747:Drivers/STM32F3xx_HAL_Driver/Src/stm32f3xx_hal_flash_ex.c **** }
 748:Drivers/STM32F3xx_HAL_Driver/Src/stm32f3xx_hal_flash_ex.c **** 
 749:Drivers/STM32F3xx_HAL_Driver/Src/stm32f3xx_hal_flash_ex.c **** /**
 750:Drivers/STM32F3xx_HAL_Driver/Src/stm32f3xx_hal_flash_ex.c ****   * @brief  Set the read protection level.
 751:Drivers/STM32F3xx_HAL_Driver/Src/stm32f3xx_hal_flash_ex.c ****   * @param  ReadProtectLevel specifies the read protection level.
 752:Drivers/STM32F3xx_HAL_Driver/Src/stm32f3xx_hal_flash_ex.c ****   *         This parameter can be one of the following values:
 753:Drivers/STM32F3xx_HAL_Driver/Src/stm32f3xx_hal_flash_ex.c ****   *            @arg @ref OB_RDP_LEVEL_0 No protection
 754:Drivers/STM32F3xx_HAL_Driver/Src/stm32f3xx_hal_flash_ex.c ****   *            @arg @ref OB_RDP_LEVEL_1 Read protection of the memory
 755:Drivers/STM32F3xx_HAL_Driver/Src/stm32f3xx_hal_flash_ex.c ****   *            @arg @ref OB_RDP_LEVEL_2 Full chip protection
 756:Drivers/STM32F3xx_HAL_Driver/Src/stm32f3xx_hal_flash_ex.c ****   * @note   Warning: When enabling OB_RDP level 2 it's no more possible to go back to level 1 or 0
 757:Drivers/STM32F3xx_HAL_Driver/Src/stm32f3xx_hal_flash_ex.c ****   * @retval HAL status
 758:Drivers/STM32F3xx_HAL_Driver/Src/stm32f3xx_hal_flash_ex.c ****   */
 759:Drivers/STM32F3xx_HAL_Driver/Src/stm32f3xx_hal_flash_ex.c **** static HAL_StatusTypeDef FLASH_OB_RDP_LevelConfig(uint8_t ReadProtectLevel)
 760:Drivers/STM32F3xx_HAL_Driver/Src/stm32f3xx_hal_flash_ex.c **** {
 761:Drivers/STM32F3xx_HAL_Driver/Src/stm32f3xx_hal_flash_ex.c ****   HAL_StatusTypeDef status = HAL_OK;
 762:Drivers/STM32F3xx_HAL_Driver/Src/stm32f3xx_hal_flash_ex.c ****   
 763:Drivers/STM32F3xx_HAL_Driver/Src/stm32f3xx_hal_flash_ex.c ****   /* Check the parameters */
 764:Drivers/STM32F3xx_HAL_Driver/Src/stm32f3xx_hal_flash_ex.c ****   assert_param(IS_OB_RDP_LEVEL(ReadProtectLevel));
 765:Drivers/STM32F3xx_HAL_Driver/Src/stm32f3xx_hal_flash_ex.c ****   
 766:Drivers/STM32F3xx_HAL_Driver/Src/stm32f3xx_hal_flash_ex.c ****   /* Wait for last operation to be completed */
 767:Drivers/STM32F3xx_HAL_Driver/Src/stm32f3xx_hal_flash_ex.c ****   status = FLASH_WaitForLastOperation((uint32_t)FLASH_TIMEOUT_VALUE);
 768:Drivers/STM32F3xx_HAL_Driver/Src/stm32f3xx_hal_flash_ex.c ****   
 769:Drivers/STM32F3xx_HAL_Driver/Src/stm32f3xx_hal_flash_ex.c ****   if(status == HAL_OK)
 770:Drivers/STM32F3xx_HAL_Driver/Src/stm32f3xx_hal_flash_ex.c ****   { 
 771:Drivers/STM32F3xx_HAL_Driver/Src/stm32f3xx_hal_flash_ex.c ****     /* Clean the error context */
 772:Drivers/STM32F3xx_HAL_Driver/Src/stm32f3xx_hal_flash_ex.c ****     pFlash.ErrorCode = HAL_FLASH_ERROR_NONE;
 773:Drivers/STM32F3xx_HAL_Driver/Src/stm32f3xx_hal_flash_ex.c ****     
 774:Drivers/STM32F3xx_HAL_Driver/Src/stm32f3xx_hal_flash_ex.c ****     /* If the previous operation is completed, proceed to erase the option bytes */
 775:Drivers/STM32F3xx_HAL_Driver/Src/stm32f3xx_hal_flash_ex.c ****     SET_BIT(FLASH->CR, FLASH_CR_OPTER);
 776:Drivers/STM32F3xx_HAL_Driver/Src/stm32f3xx_hal_flash_ex.c ****     SET_BIT(FLASH->CR, FLASH_CR_STRT);
 777:Drivers/STM32F3xx_HAL_Driver/Src/stm32f3xx_hal_flash_ex.c **** 
 778:Drivers/STM32F3xx_HAL_Driver/Src/stm32f3xx_hal_flash_ex.c ****     /* Wait for last operation to be completed */
 779:Drivers/STM32F3xx_HAL_Driver/Src/stm32f3xx_hal_flash_ex.c ****     status = FLASH_WaitForLastOperation((uint32_t)FLASH_TIMEOUT_VALUE);
 780:Drivers/STM32F3xx_HAL_Driver/Src/stm32f3xx_hal_flash_ex.c **** 
 781:Drivers/STM32F3xx_HAL_Driver/Src/stm32f3xx_hal_flash_ex.c ****     /* If the erase operation is completed, disable the OPTER Bit */
 782:Drivers/STM32F3xx_HAL_Driver/Src/stm32f3xx_hal_flash_ex.c ****     CLEAR_BIT(FLASH->CR, FLASH_CR_OPTER);
 783:Drivers/STM32F3xx_HAL_Driver/Src/stm32f3xx_hal_flash_ex.c **** 
 784:Drivers/STM32F3xx_HAL_Driver/Src/stm32f3xx_hal_flash_ex.c ****     if(status == HAL_OK)
 785:Drivers/STM32F3xx_HAL_Driver/Src/stm32f3xx_hal_flash_ex.c ****     {
 786:Drivers/STM32F3xx_HAL_Driver/Src/stm32f3xx_hal_flash_ex.c ****       /* Enable the Option Bytes Programming operation */
 787:Drivers/STM32F3xx_HAL_Driver/Src/stm32f3xx_hal_flash_ex.c ****       SET_BIT(FLASH->CR, FLASH_CR_OPTPG);
 788:Drivers/STM32F3xx_HAL_Driver/Src/stm32f3xx_hal_flash_ex.c ****       
 789:Drivers/STM32F3xx_HAL_Driver/Src/stm32f3xx_hal_flash_ex.c ****       WRITE_REG(OB->RDP, ReadProtectLevel);
 790:Drivers/STM32F3xx_HAL_Driver/Src/stm32f3xx_hal_flash_ex.c ****       
 791:Drivers/STM32F3xx_HAL_Driver/Src/stm32f3xx_hal_flash_ex.c ****       /* Wait for last operation to be completed */
 792:Drivers/STM32F3xx_HAL_Driver/Src/stm32f3xx_hal_flash_ex.c ****       status = FLASH_WaitForLastOperation((uint32_t)FLASH_TIMEOUT_VALUE); 
 793:Drivers/STM32F3xx_HAL_Driver/Src/stm32f3xx_hal_flash_ex.c ****       
ARM GAS  /var/folders/md/lgcc8l7571l9vt9sx0g0zflw0000gn/T//ccyhNZ7g.s 			page 16


 794:Drivers/STM32F3xx_HAL_Driver/Src/stm32f3xx_hal_flash_ex.c ****       /* if the program operation is completed, disable the OPTPG Bit */
 795:Drivers/STM32F3xx_HAL_Driver/Src/stm32f3xx_hal_flash_ex.c ****       CLEAR_BIT(FLASH->CR, FLASH_CR_OPTPG);
 796:Drivers/STM32F3xx_HAL_Driver/Src/stm32f3xx_hal_flash_ex.c ****     }
 797:Drivers/STM32F3xx_HAL_Driver/Src/stm32f3xx_hal_flash_ex.c ****   }
 798:Drivers/STM32F3xx_HAL_Driver/Src/stm32f3xx_hal_flash_ex.c ****   
 799:Drivers/STM32F3xx_HAL_Driver/Src/stm32f3xx_hal_flash_ex.c ****   return status;
 800:Drivers/STM32F3xx_HAL_Driver/Src/stm32f3xx_hal_flash_ex.c **** }
 801:Drivers/STM32F3xx_HAL_Driver/Src/stm32f3xx_hal_flash_ex.c **** 
 802:Drivers/STM32F3xx_HAL_Driver/Src/stm32f3xx_hal_flash_ex.c **** /**
 803:Drivers/STM32F3xx_HAL_Driver/Src/stm32f3xx_hal_flash_ex.c ****   * @brief  Program the FLASH User Option Byte.    
 804:Drivers/STM32F3xx_HAL_Driver/Src/stm32f3xx_hal_flash_ex.c ****   * @note   Programming of the OB should be performed only after an erase (otherwise PGERR occurs)
 805:Drivers/STM32F3xx_HAL_Driver/Src/stm32f3xx_hal_flash_ex.c ****   * @param  UserConfig The FLASH User Option Bytes values: IWDG_SW(Bit0), RST_STOP(Bit1), RST_STDBY
 806:Drivers/STM32F3xx_HAL_Driver/Src/stm32f3xx_hal_flash_ex.c ****   *         VDDA_Analog_Monitoring(Bit5) and SRAM_Parity_Enable(Bit6). 
 807:Drivers/STM32F3xx_HAL_Driver/Src/stm32f3xx_hal_flash_ex.c ****   *         And SDADC12_VDD_MONITOR(Bit7) for STM32F373 or STM32F378 . 
 808:Drivers/STM32F3xx_HAL_Driver/Src/stm32f3xx_hal_flash_ex.c ****   * @retval HAL status
 809:Drivers/STM32F3xx_HAL_Driver/Src/stm32f3xx_hal_flash_ex.c ****   */
 810:Drivers/STM32F3xx_HAL_Driver/Src/stm32f3xx_hal_flash_ex.c **** static HAL_StatusTypeDef FLASH_OB_UserConfig(uint8_t UserConfig)
 811:Drivers/STM32F3xx_HAL_Driver/Src/stm32f3xx_hal_flash_ex.c **** {
 812:Drivers/STM32F3xx_HAL_Driver/Src/stm32f3xx_hal_flash_ex.c ****   HAL_StatusTypeDef status = HAL_OK;
 813:Drivers/STM32F3xx_HAL_Driver/Src/stm32f3xx_hal_flash_ex.c **** 
 814:Drivers/STM32F3xx_HAL_Driver/Src/stm32f3xx_hal_flash_ex.c ****   /* Check the parameters */
 815:Drivers/STM32F3xx_HAL_Driver/Src/stm32f3xx_hal_flash_ex.c ****   assert_param(IS_OB_IWDG_SOURCE((UserConfig&OB_IWDG_SW)));
 816:Drivers/STM32F3xx_HAL_Driver/Src/stm32f3xx_hal_flash_ex.c ****   assert_param(IS_OB_STOP_SOURCE((UserConfig&OB_STOP_NO_RST)));
 817:Drivers/STM32F3xx_HAL_Driver/Src/stm32f3xx_hal_flash_ex.c ****   assert_param(IS_OB_STDBY_SOURCE((UserConfig&OB_STDBY_NO_RST)));
 818:Drivers/STM32F3xx_HAL_Driver/Src/stm32f3xx_hal_flash_ex.c ****   assert_param(IS_OB_BOOT1((UserConfig&OB_BOOT1_SET)));
 819:Drivers/STM32F3xx_HAL_Driver/Src/stm32f3xx_hal_flash_ex.c ****   assert_param(IS_OB_VDDA_ANALOG((UserConfig&OB_VDDA_ANALOG_ON)));
 820:Drivers/STM32F3xx_HAL_Driver/Src/stm32f3xx_hal_flash_ex.c ****   assert_param(IS_OB_SRAM_PARITY((UserConfig&OB_SRAM_PARITY_RESET)));
 821:Drivers/STM32F3xx_HAL_Driver/Src/stm32f3xx_hal_flash_ex.c **** #if defined(FLASH_OBR_SDADC12_VDD_MONITOR)
 822:Drivers/STM32F3xx_HAL_Driver/Src/stm32f3xx_hal_flash_ex.c ****   assert_param(IS_OB_SDACD_VDD_MONITOR((UserConfig&OB_SDACD_VDD_MONITOR_SET)));
 823:Drivers/STM32F3xx_HAL_Driver/Src/stm32f3xx_hal_flash_ex.c **** #endif /* FLASH_OBR_SDADC12_VDD_MONITOR */
 824:Drivers/STM32F3xx_HAL_Driver/Src/stm32f3xx_hal_flash_ex.c **** 
 825:Drivers/STM32F3xx_HAL_Driver/Src/stm32f3xx_hal_flash_ex.c ****   /* Wait for last operation to be completed */
 826:Drivers/STM32F3xx_HAL_Driver/Src/stm32f3xx_hal_flash_ex.c ****   status = FLASH_WaitForLastOperation((uint32_t)FLASH_TIMEOUT_VALUE);
 827:Drivers/STM32F3xx_HAL_Driver/Src/stm32f3xx_hal_flash_ex.c ****   
 828:Drivers/STM32F3xx_HAL_Driver/Src/stm32f3xx_hal_flash_ex.c ****   if(status == HAL_OK)
 829:Drivers/STM32F3xx_HAL_Driver/Src/stm32f3xx_hal_flash_ex.c ****   {     
 830:Drivers/STM32F3xx_HAL_Driver/Src/stm32f3xx_hal_flash_ex.c ****     /* Clean the error context */
 831:Drivers/STM32F3xx_HAL_Driver/Src/stm32f3xx_hal_flash_ex.c ****     pFlash.ErrorCode = HAL_FLASH_ERROR_NONE;
 832:Drivers/STM32F3xx_HAL_Driver/Src/stm32f3xx_hal_flash_ex.c **** 
 833:Drivers/STM32F3xx_HAL_Driver/Src/stm32f3xx_hal_flash_ex.c ****     /* Enable the Option Bytes Programming operation */
 834:Drivers/STM32F3xx_HAL_Driver/Src/stm32f3xx_hal_flash_ex.c ****     SET_BIT(FLASH->CR, FLASH_CR_OPTPG); 
 835:Drivers/STM32F3xx_HAL_Driver/Src/stm32f3xx_hal_flash_ex.c ****  
 836:Drivers/STM32F3xx_HAL_Driver/Src/stm32f3xx_hal_flash_ex.c **** #if   defined(FLASH_OBR_SDADC12_VDD_MONITOR)
 837:Drivers/STM32F3xx_HAL_Driver/Src/stm32f3xx_hal_flash_ex.c ****     OB->USER = (UserConfig | 0x08U);
 838:Drivers/STM32F3xx_HAL_Driver/Src/stm32f3xx_hal_flash_ex.c **** #else
 839:Drivers/STM32F3xx_HAL_Driver/Src/stm32f3xx_hal_flash_ex.c ****     OB->USER = (UserConfig | 0x88U);
 840:Drivers/STM32F3xx_HAL_Driver/Src/stm32f3xx_hal_flash_ex.c **** #endif
 841:Drivers/STM32F3xx_HAL_Driver/Src/stm32f3xx_hal_flash_ex.c **** 
 842:Drivers/STM32F3xx_HAL_Driver/Src/stm32f3xx_hal_flash_ex.c ****     /* Wait for last operation to be completed */
 843:Drivers/STM32F3xx_HAL_Driver/Src/stm32f3xx_hal_flash_ex.c ****     status = FLASH_WaitForLastOperation((uint32_t)FLASH_TIMEOUT_VALUE);
 844:Drivers/STM32F3xx_HAL_Driver/Src/stm32f3xx_hal_flash_ex.c **** 
 845:Drivers/STM32F3xx_HAL_Driver/Src/stm32f3xx_hal_flash_ex.c ****     /* if the program operation is completed, disable the OPTPG Bit */
 846:Drivers/STM32F3xx_HAL_Driver/Src/stm32f3xx_hal_flash_ex.c ****     CLEAR_BIT(FLASH->CR, FLASH_CR_OPTPG);
 847:Drivers/STM32F3xx_HAL_Driver/Src/stm32f3xx_hal_flash_ex.c ****   }
 848:Drivers/STM32F3xx_HAL_Driver/Src/stm32f3xx_hal_flash_ex.c ****   
 849:Drivers/STM32F3xx_HAL_Driver/Src/stm32f3xx_hal_flash_ex.c ****   return status; 
 850:Drivers/STM32F3xx_HAL_Driver/Src/stm32f3xx_hal_flash_ex.c **** }
ARM GAS  /var/folders/md/lgcc8l7571l9vt9sx0g0zflw0000gn/T//ccyhNZ7g.s 			page 17


 851:Drivers/STM32F3xx_HAL_Driver/Src/stm32f3xx_hal_flash_ex.c **** 
 852:Drivers/STM32F3xx_HAL_Driver/Src/stm32f3xx_hal_flash_ex.c **** /**
 853:Drivers/STM32F3xx_HAL_Driver/Src/stm32f3xx_hal_flash_ex.c ****   * @brief  Programs a half word at a specified Option Byte Data address.
 854:Drivers/STM32F3xx_HAL_Driver/Src/stm32f3xx_hal_flash_ex.c ****   * @note   The function @ref HAL_FLASH_Unlock() should be called before to unlock the FLASH interf
 855:Drivers/STM32F3xx_HAL_Driver/Src/stm32f3xx_hal_flash_ex.c ****   *         The function @ref HAL_FLASH_OB_Unlock() should be called before to unlock the options b
 856:Drivers/STM32F3xx_HAL_Driver/Src/stm32f3xx_hal_flash_ex.c ****   *         The function @ref HAL_FLASH_OB_Launch() should be called after to force the reload of t
 857:Drivers/STM32F3xx_HAL_Driver/Src/stm32f3xx_hal_flash_ex.c ****   *         (system reset will occur)
 858:Drivers/STM32F3xx_HAL_Driver/Src/stm32f3xx_hal_flash_ex.c ****   *         Programming of the OB should be performed only after an erase (otherwise PGERR occurs)
 859:Drivers/STM32F3xx_HAL_Driver/Src/stm32f3xx_hal_flash_ex.c ****   * @param  Address specifies the address to be programmed.
 860:Drivers/STM32F3xx_HAL_Driver/Src/stm32f3xx_hal_flash_ex.c ****   *         This parameter can be 0x1FFFF804 or 0x1FFFF806. 
 861:Drivers/STM32F3xx_HAL_Driver/Src/stm32f3xx_hal_flash_ex.c ****   * @param  Data specifies the data to be programmed.
 862:Drivers/STM32F3xx_HAL_Driver/Src/stm32f3xx_hal_flash_ex.c ****   * @retval HAL status
 863:Drivers/STM32F3xx_HAL_Driver/Src/stm32f3xx_hal_flash_ex.c ****   */
 864:Drivers/STM32F3xx_HAL_Driver/Src/stm32f3xx_hal_flash_ex.c **** static HAL_StatusTypeDef FLASH_OB_ProgramData(uint32_t Address, uint8_t Data)
 865:Drivers/STM32F3xx_HAL_Driver/Src/stm32f3xx_hal_flash_ex.c **** {
 866:Drivers/STM32F3xx_HAL_Driver/Src/stm32f3xx_hal_flash_ex.c ****   HAL_StatusTypeDef status = HAL_ERROR;
 867:Drivers/STM32F3xx_HAL_Driver/Src/stm32f3xx_hal_flash_ex.c ****   
 868:Drivers/STM32F3xx_HAL_Driver/Src/stm32f3xx_hal_flash_ex.c ****   /* Check the parameters */
 869:Drivers/STM32F3xx_HAL_Driver/Src/stm32f3xx_hal_flash_ex.c ****   assert_param(IS_OB_DATA_ADDRESS(Address));
 870:Drivers/STM32F3xx_HAL_Driver/Src/stm32f3xx_hal_flash_ex.c ****   
 871:Drivers/STM32F3xx_HAL_Driver/Src/stm32f3xx_hal_flash_ex.c ****   /* Wait for last operation to be completed */
 872:Drivers/STM32F3xx_HAL_Driver/Src/stm32f3xx_hal_flash_ex.c ****   status = FLASH_WaitForLastOperation((uint32_t)FLASH_TIMEOUT_VALUE);
 873:Drivers/STM32F3xx_HAL_Driver/Src/stm32f3xx_hal_flash_ex.c ****   
 874:Drivers/STM32F3xx_HAL_Driver/Src/stm32f3xx_hal_flash_ex.c ****   if(status == HAL_OK)
 875:Drivers/STM32F3xx_HAL_Driver/Src/stm32f3xx_hal_flash_ex.c ****   {
 876:Drivers/STM32F3xx_HAL_Driver/Src/stm32f3xx_hal_flash_ex.c ****     /* Clean the error context */
 877:Drivers/STM32F3xx_HAL_Driver/Src/stm32f3xx_hal_flash_ex.c ****     pFlash.ErrorCode = HAL_FLASH_ERROR_NONE;
 878:Drivers/STM32F3xx_HAL_Driver/Src/stm32f3xx_hal_flash_ex.c **** 
 879:Drivers/STM32F3xx_HAL_Driver/Src/stm32f3xx_hal_flash_ex.c ****     /* Enables the Option Bytes Programming operation */
 880:Drivers/STM32F3xx_HAL_Driver/Src/stm32f3xx_hal_flash_ex.c ****     SET_BIT(FLASH->CR, FLASH_CR_OPTPG); 
 881:Drivers/STM32F3xx_HAL_Driver/Src/stm32f3xx_hal_flash_ex.c ****     *(__IO uint16_t*)Address = Data;
 882:Drivers/STM32F3xx_HAL_Driver/Src/stm32f3xx_hal_flash_ex.c ****     
 883:Drivers/STM32F3xx_HAL_Driver/Src/stm32f3xx_hal_flash_ex.c ****     /* Wait for last operation to be completed */
 884:Drivers/STM32F3xx_HAL_Driver/Src/stm32f3xx_hal_flash_ex.c ****     status = FLASH_WaitForLastOperation((uint32_t)FLASH_TIMEOUT_VALUE);
 885:Drivers/STM32F3xx_HAL_Driver/Src/stm32f3xx_hal_flash_ex.c ****     
 886:Drivers/STM32F3xx_HAL_Driver/Src/stm32f3xx_hal_flash_ex.c ****     /* If the program operation is completed, disable the OPTPG Bit */
 887:Drivers/STM32F3xx_HAL_Driver/Src/stm32f3xx_hal_flash_ex.c ****     CLEAR_BIT(FLASH->CR, FLASH_CR_OPTPG);
 888:Drivers/STM32F3xx_HAL_Driver/Src/stm32f3xx_hal_flash_ex.c ****   }
 889:Drivers/STM32F3xx_HAL_Driver/Src/stm32f3xx_hal_flash_ex.c ****   /* Return the Option Byte Data Program Status */
 890:Drivers/STM32F3xx_HAL_Driver/Src/stm32f3xx_hal_flash_ex.c ****   return status;
 891:Drivers/STM32F3xx_HAL_Driver/Src/stm32f3xx_hal_flash_ex.c **** }
 892:Drivers/STM32F3xx_HAL_Driver/Src/stm32f3xx_hal_flash_ex.c **** 
 893:Drivers/STM32F3xx_HAL_Driver/Src/stm32f3xx_hal_flash_ex.c **** /**
 894:Drivers/STM32F3xx_HAL_Driver/Src/stm32f3xx_hal_flash_ex.c ****   * @brief  Return the FLASH Write Protection Option Bytes value.
 895:Drivers/STM32F3xx_HAL_Driver/Src/stm32f3xx_hal_flash_ex.c ****   * @retval The FLASH Write Protection Option Bytes value
 896:Drivers/STM32F3xx_HAL_Driver/Src/stm32f3xx_hal_flash_ex.c ****   */
 897:Drivers/STM32F3xx_HAL_Driver/Src/stm32f3xx_hal_flash_ex.c **** static uint32_t FLASH_OB_GetWRP(void)
 898:Drivers/STM32F3xx_HAL_Driver/Src/stm32f3xx_hal_flash_ex.c **** {
  66              		.loc 1 898 1 is_stmt 1 view -0
  67              		.cfi_startproc
  68              		@ args = 0, pretend = 0, frame = 0
  69              		@ frame_needed = 0, uses_anonymous_args = 0
  70              		@ link register save eliminated.
 899:Drivers/STM32F3xx_HAL_Driver/Src/stm32f3xx_hal_flash_ex.c ****   /* Return the FLASH write protection Register value */
 900:Drivers/STM32F3xx_HAL_Driver/Src/stm32f3xx_hal_flash_ex.c ****   return (uint32_t)(READ_REG(FLASH->WRPR));
  71              		.loc 1 900 3 view .LVU7
  72              		.loc 1 900 10 is_stmt 0 view .LVU8
ARM GAS  /var/folders/md/lgcc8l7571l9vt9sx0g0zflw0000gn/T//ccyhNZ7g.s 			page 18


  73 0000 014B     		ldr	r3, .L5
  74 0002 186A     		ldr	r0, [r3, #32]
 901:Drivers/STM32F3xx_HAL_Driver/Src/stm32f3xx_hal_flash_ex.c **** }
  75              		.loc 1 901 1 view .LVU9
  76 0004 7047     		bx	lr
  77              	.L6:
  78 0006 00BF     		.align	2
  79              	.L5:
  80 0008 00200240 		.word	1073881088
  81              		.cfi_endproc
  82              	.LFE138:
  84              		.section	.text.FLASH_OB_GetRDP,"ax",%progbits
  85              		.align	1
  86              		.syntax unified
  87              		.thumb
  88              		.thumb_func
  89              		.fpu fpv4-sp-d16
  91              	FLASH_OB_GetRDP:
  92              	.LFB139:
 902:Drivers/STM32F3xx_HAL_Driver/Src/stm32f3xx_hal_flash_ex.c **** 
 903:Drivers/STM32F3xx_HAL_Driver/Src/stm32f3xx_hal_flash_ex.c **** /**
 904:Drivers/STM32F3xx_HAL_Driver/Src/stm32f3xx_hal_flash_ex.c ****   * @brief  Returns the FLASH Read Protection level.
 905:Drivers/STM32F3xx_HAL_Driver/Src/stm32f3xx_hal_flash_ex.c ****   * @retval FLASH RDP level
 906:Drivers/STM32F3xx_HAL_Driver/Src/stm32f3xx_hal_flash_ex.c ****   *         This parameter can be one of the following values:
 907:Drivers/STM32F3xx_HAL_Driver/Src/stm32f3xx_hal_flash_ex.c ****   *            @arg @ref OB_RDP_LEVEL_0 No protection
 908:Drivers/STM32F3xx_HAL_Driver/Src/stm32f3xx_hal_flash_ex.c ****   *            @arg @ref OB_RDP_LEVEL_1 Read protection of the memory
 909:Drivers/STM32F3xx_HAL_Driver/Src/stm32f3xx_hal_flash_ex.c ****   *            @arg @ref OB_RDP_LEVEL_2 Full chip protection
 910:Drivers/STM32F3xx_HAL_Driver/Src/stm32f3xx_hal_flash_ex.c ****   */
 911:Drivers/STM32F3xx_HAL_Driver/Src/stm32f3xx_hal_flash_ex.c **** static uint32_t FLASH_OB_GetRDP(void)
 912:Drivers/STM32F3xx_HAL_Driver/Src/stm32f3xx_hal_flash_ex.c **** {
  93              		.loc 1 912 1 is_stmt 1 view -0
  94              		.cfi_startproc
  95              		@ args = 0, pretend = 0, frame = 0
  96              		@ frame_needed = 0, uses_anonymous_args = 0
  97              		@ link register save eliminated.
 913:Drivers/STM32F3xx_HAL_Driver/Src/stm32f3xx_hal_flash_ex.c ****   uint32_t tmp_reg = 0U;
  98              		.loc 1 913 3 view .LVU11
  99              	.LVL0:
 914:Drivers/STM32F3xx_HAL_Driver/Src/stm32f3xx_hal_flash_ex.c ****   
 915:Drivers/STM32F3xx_HAL_Driver/Src/stm32f3xx_hal_flash_ex.c ****   /* Read RDP level bits */
 916:Drivers/STM32F3xx_HAL_Driver/Src/stm32f3xx_hal_flash_ex.c **** #if defined(FLASH_OBR_RDPRT)
 917:Drivers/STM32F3xx_HAL_Driver/Src/stm32f3xx_hal_flash_ex.c ****   tmp_reg = READ_BIT(FLASH->OBR, FLASH_OBR_RDPRT);
 100              		.loc 1 917 3 view .LVU12
 101              		.loc 1 917 13 is_stmt 0 view .LVU13
 102 0000 064B     		ldr	r3, .L12
 103 0002 DB69     		ldr	r3, [r3, #28]
 104              		.loc 1 917 11 view .LVU14
 105 0004 03F00603 		and	r3, r3, #6
 106              	.LVL1:
 918:Drivers/STM32F3xx_HAL_Driver/Src/stm32f3xx_hal_flash_ex.c **** #endif
 919:Drivers/STM32F3xx_HAL_Driver/Src/stm32f3xx_hal_flash_ex.c **** #if defined(FLASH_OBR_LEVEL1_PROT)
 920:Drivers/STM32F3xx_HAL_Driver/Src/stm32f3xx_hal_flash_ex.c ****   tmp_reg = READ_BIT(FLASH->OBR, (FLASH_OBR_LEVEL1_PROT | FLASH_OBR_LEVEL2_PROT));
 921:Drivers/STM32F3xx_HAL_Driver/Src/stm32f3xx_hal_flash_ex.c **** #endif /* FLASH_OBR_LEVEL1_PROT */
 922:Drivers/STM32F3xx_HAL_Driver/Src/stm32f3xx_hal_flash_ex.c **** 
 923:Drivers/STM32F3xx_HAL_Driver/Src/stm32f3xx_hal_flash_ex.c **** #if defined(FLASH_OBR_RDPRT)
 924:Drivers/STM32F3xx_HAL_Driver/Src/stm32f3xx_hal_flash_ex.c ****   if (tmp_reg == FLASH_OBR_RDPRT_1)
 107              		.loc 1 924 3 is_stmt 1 view .LVU15
ARM GAS  /var/folders/md/lgcc8l7571l9vt9sx0g0zflw0000gn/T//ccyhNZ7g.s 			page 19


 108              		.loc 1 924 6 is_stmt 0 view .LVU16
 109 0008 022B     		cmp	r3, #2
 110 000a 05D0     		beq	.L9
 925:Drivers/STM32F3xx_HAL_Driver/Src/stm32f3xx_hal_flash_ex.c **** #endif
 926:Drivers/STM32F3xx_HAL_Driver/Src/stm32f3xx_hal_flash_ex.c **** #if defined(FLASH_OBR_LEVEL1_PROT)
 927:Drivers/STM32F3xx_HAL_Driver/Src/stm32f3xx_hal_flash_ex.c ****   if (tmp_reg == FLASH_OBR_LEVEL1_PROT)
 928:Drivers/STM32F3xx_HAL_Driver/Src/stm32f3xx_hal_flash_ex.c **** #endif /* FLASH_OBR_LEVEL1_PROT */
 929:Drivers/STM32F3xx_HAL_Driver/Src/stm32f3xx_hal_flash_ex.c ****   {
 930:Drivers/STM32F3xx_HAL_Driver/Src/stm32f3xx_hal_flash_ex.c ****     return OB_RDP_LEVEL_1;
 931:Drivers/STM32F3xx_HAL_Driver/Src/stm32f3xx_hal_flash_ex.c ****   }
 932:Drivers/STM32F3xx_HAL_Driver/Src/stm32f3xx_hal_flash_ex.c **** #if   defined(FLASH_OBR_RDPRT)
 933:Drivers/STM32F3xx_HAL_Driver/Src/stm32f3xx_hal_flash_ex.c ****   else if (tmp_reg == FLASH_OBR_RDPRT_2)
 111              		.loc 1 933 8 is_stmt 1 view .LVU17
 112              		.loc 1 933 11 is_stmt 0 view .LVU18
 113 000c 062B     		cmp	r3, #6
 114 000e 01D0     		beq	.L11
 934:Drivers/STM32F3xx_HAL_Driver/Src/stm32f3xx_hal_flash_ex.c **** #elif defined(FLASH_OBR_LEVEL2_PROT)
 935:Drivers/STM32F3xx_HAL_Driver/Src/stm32f3xx_hal_flash_ex.c ****   else if (tmp_reg == FLASH_OBR_LEVEL2_PROT)
 936:Drivers/STM32F3xx_HAL_Driver/Src/stm32f3xx_hal_flash_ex.c **** #endif
 937:Drivers/STM32F3xx_HAL_Driver/Src/stm32f3xx_hal_flash_ex.c ****   {
 938:Drivers/STM32F3xx_HAL_Driver/Src/stm32f3xx_hal_flash_ex.c ****     return OB_RDP_LEVEL_2;
 939:Drivers/STM32F3xx_HAL_Driver/Src/stm32f3xx_hal_flash_ex.c ****   }
 940:Drivers/STM32F3xx_HAL_Driver/Src/stm32f3xx_hal_flash_ex.c ****   else 
 941:Drivers/STM32F3xx_HAL_Driver/Src/stm32f3xx_hal_flash_ex.c ****   {
 942:Drivers/STM32F3xx_HAL_Driver/Src/stm32f3xx_hal_flash_ex.c ****     return OB_RDP_LEVEL_0;
 115              		.loc 1 942 12 view .LVU19
 116 0010 AA20     		movs	r0, #170
 943:Drivers/STM32F3xx_HAL_Driver/Src/stm32f3xx_hal_flash_ex.c ****   }
 944:Drivers/STM32F3xx_HAL_Driver/Src/stm32f3xx_hal_flash_ex.c **** }
 117              		.loc 1 944 1 view .LVU20
 118 0012 7047     		bx	lr
 119              	.L11:
 938:Drivers/STM32F3xx_HAL_Driver/Src/stm32f3xx_hal_flash_ex.c ****   }
 120              		.loc 1 938 12 view .LVU21
 121 0014 CC20     		movs	r0, #204
 122 0016 7047     		bx	lr
 123              	.L9:
 930:Drivers/STM32F3xx_HAL_Driver/Src/stm32f3xx_hal_flash_ex.c ****   }
 124              		.loc 1 930 12 view .LVU22
 125 0018 BB20     		movs	r0, #187
 126 001a 7047     		bx	lr
 127              	.L13:
 128              		.align	2
 129              	.L12:
 130 001c 00200240 		.word	1073881088
 131              		.cfi_endproc
 132              	.LFE139:
 134              		.section	.text.FLASH_OB_RDP_LevelConfig,"ax",%progbits
 135              		.align	1
 136              		.syntax unified
 137              		.thumb
 138              		.thumb_func
 139              		.fpu fpv4-sp-d16
 141              	FLASH_OB_RDP_LevelConfig:
 142              	.LVL2:
 143              	.LFB135:
 760:Drivers/STM32F3xx_HAL_Driver/Src/stm32f3xx_hal_flash_ex.c ****   HAL_StatusTypeDef status = HAL_OK;
ARM GAS  /var/folders/md/lgcc8l7571l9vt9sx0g0zflw0000gn/T//ccyhNZ7g.s 			page 20


 144              		.loc 1 760 1 is_stmt 1 view -0
 145              		.cfi_startproc
 146              		@ args = 0, pretend = 0, frame = 0
 147              		@ frame_needed = 0, uses_anonymous_args = 0
 760:Drivers/STM32F3xx_HAL_Driver/Src/stm32f3xx_hal_flash_ex.c ****   HAL_StatusTypeDef status = HAL_OK;
 148              		.loc 1 760 1 is_stmt 0 view .LVU24
 149 0000 38B5     		push	{r3, r4, r5, lr}
 150              	.LCFI0:
 151              		.cfi_def_cfa_offset 16
 152              		.cfi_offset 3, -16
 153              		.cfi_offset 4, -12
 154              		.cfi_offset 5, -8
 155              		.cfi_offset 14, -4
 156 0002 0546     		mov	r5, r0
 761:Drivers/STM32F3xx_HAL_Driver/Src/stm32f3xx_hal_flash_ex.c ****   
 157              		.loc 1 761 3 is_stmt 1 view .LVU25
 158              	.LVL3:
 764:Drivers/STM32F3xx_HAL_Driver/Src/stm32f3xx_hal_flash_ex.c ****   
 159              		.loc 1 764 3 view .LVU26
 767:Drivers/STM32F3xx_HAL_Driver/Src/stm32f3xx_hal_flash_ex.c ****   
 160              		.loc 1 767 3 view .LVU27
 767:Drivers/STM32F3xx_HAL_Driver/Src/stm32f3xx_hal_flash_ex.c ****   
 161              		.loc 1 767 12 is_stmt 0 view .LVU28
 162 0004 4CF25030 		movw	r0, #50000
 163              	.LVL4:
 767:Drivers/STM32F3xx_HAL_Driver/Src/stm32f3xx_hal_flash_ex.c ****   
 164              		.loc 1 767 12 view .LVU29
 165 0008 FFF7FEFF 		bl	FLASH_WaitForLastOperation
 166              	.LVL5:
 769:Drivers/STM32F3xx_HAL_Driver/Src/stm32f3xx_hal_flash_ex.c ****   { 
 167              		.loc 1 769 3 is_stmt 1 view .LVU30
 769:Drivers/STM32F3xx_HAL_Driver/Src/stm32f3xx_hal_flash_ex.c ****   { 
 168              		.loc 1 769 5 is_stmt 0 view .LVU31
 169 000c 0346     		mov	r3, r0
 170 000e 08B1     		cbz	r0, .L17
 171              	.LVL6:
 172              	.L15:
 799:Drivers/STM32F3xx_HAL_Driver/Src/stm32f3xx_hal_flash_ex.c **** }
 173              		.loc 1 799 3 is_stmt 1 view .LVU32
 800:Drivers/STM32F3xx_HAL_Driver/Src/stm32f3xx_hal_flash_ex.c **** 
 174              		.loc 1 800 1 is_stmt 0 view .LVU33
 175 0010 1846     		mov	r0, r3
 176 0012 38BD     		pop	{r3, r4, r5, pc}
 177              	.LVL7:
 178              	.L17:
 772:Drivers/STM32F3xx_HAL_Driver/Src/stm32f3xx_hal_flash_ex.c ****     
 179              		.loc 1 772 5 is_stmt 1 view .LVU34
 772:Drivers/STM32F3xx_HAL_Driver/Src/stm32f3xx_hal_flash_ex.c ****     
 180              		.loc 1 772 22 is_stmt 0 view .LVU35
 181 0014 134B     		ldr	r3, .L18
 182 0016 0022     		movs	r2, #0
 183 0018 DA61     		str	r2, [r3, #28]
 775:Drivers/STM32F3xx_HAL_Driver/Src/stm32f3xx_hal_flash_ex.c ****     SET_BIT(FLASH->CR, FLASH_CR_STRT);
 184              		.loc 1 775 5 is_stmt 1 view .LVU36
 185 001a 134C     		ldr	r4, .L18+4
 186 001c 2369     		ldr	r3, [r4, #16]
 187 001e 43F02003 		orr	r3, r3, #32
ARM GAS  /var/folders/md/lgcc8l7571l9vt9sx0g0zflw0000gn/T//ccyhNZ7g.s 			page 21


 188 0022 2361     		str	r3, [r4, #16]
 776:Drivers/STM32F3xx_HAL_Driver/Src/stm32f3xx_hal_flash_ex.c **** 
 189              		.loc 1 776 5 view .LVU37
 190 0024 2369     		ldr	r3, [r4, #16]
 191 0026 43F04003 		orr	r3, r3, #64
 192 002a 2361     		str	r3, [r4, #16]
 779:Drivers/STM32F3xx_HAL_Driver/Src/stm32f3xx_hal_flash_ex.c **** 
 193              		.loc 1 779 5 view .LVU38
 779:Drivers/STM32F3xx_HAL_Driver/Src/stm32f3xx_hal_flash_ex.c **** 
 194              		.loc 1 779 14 is_stmt 0 view .LVU39
 195 002c 4CF25030 		movw	r0, #50000
 196              	.LVL8:
 779:Drivers/STM32F3xx_HAL_Driver/Src/stm32f3xx_hal_flash_ex.c **** 
 197              		.loc 1 779 14 view .LVU40
 198 0030 FFF7FEFF 		bl	FLASH_WaitForLastOperation
 199              	.LVL9:
 782:Drivers/STM32F3xx_HAL_Driver/Src/stm32f3xx_hal_flash_ex.c **** 
 200              		.loc 1 782 5 is_stmt 1 view .LVU41
 201 0034 2369     		ldr	r3, [r4, #16]
 202 0036 23F02003 		bic	r3, r3, #32
 203 003a 2361     		str	r3, [r4, #16]
 784:Drivers/STM32F3xx_HAL_Driver/Src/stm32f3xx_hal_flash_ex.c ****     {
 204              		.loc 1 784 5 view .LVU42
 784:Drivers/STM32F3xx_HAL_Driver/Src/stm32f3xx_hal_flash_ex.c ****     {
 205              		.loc 1 784 7 is_stmt 0 view .LVU43
 206 003c 0346     		mov	r3, r0
 207 003e 0028     		cmp	r0, #0
 208 0040 E6D1     		bne	.L15
 787:Drivers/STM32F3xx_HAL_Driver/Src/stm32f3xx_hal_flash_ex.c ****       
 209              		.loc 1 787 7 is_stmt 1 view .LVU44
 210 0042 2369     		ldr	r3, [r4, #16]
 211 0044 43F01003 		orr	r3, r3, #16
 212 0048 2361     		str	r3, [r4, #16]
 789:Drivers/STM32F3xx_HAL_Driver/Src/stm32f3xx_hal_flash_ex.c ****       
 213              		.loc 1 789 7 view .LVU45
 214 004a ADB2     		uxth	r5, r5
 215 004c 074B     		ldr	r3, .L18+8
 216 004e 1D80     		strh	r5, [r3]	@ movhi
 792:Drivers/STM32F3xx_HAL_Driver/Src/stm32f3xx_hal_flash_ex.c ****       
 217              		.loc 1 792 7 view .LVU46
 792:Drivers/STM32F3xx_HAL_Driver/Src/stm32f3xx_hal_flash_ex.c ****       
 218              		.loc 1 792 16 is_stmt 0 view .LVU47
 219 0050 4CF25030 		movw	r0, #50000
 220              	.LVL10:
 792:Drivers/STM32F3xx_HAL_Driver/Src/stm32f3xx_hal_flash_ex.c ****       
 221              		.loc 1 792 16 view .LVU48
 222 0054 FFF7FEFF 		bl	FLASH_WaitForLastOperation
 223              	.LVL11:
 224 0058 0346     		mov	r3, r0
 225              	.LVL12:
 795:Drivers/STM32F3xx_HAL_Driver/Src/stm32f3xx_hal_flash_ex.c ****     }
 226              		.loc 1 795 7 is_stmt 1 view .LVU49
 227 005a 2269     		ldr	r2, [r4, #16]
 228 005c 22F01002 		bic	r2, r2, #16
 229 0060 2261     		str	r2, [r4, #16]
 230 0062 D5E7     		b	.L15
 231              	.L19:
ARM GAS  /var/folders/md/lgcc8l7571l9vt9sx0g0zflw0000gn/T//ccyhNZ7g.s 			page 22


 232              		.align	2
 233              	.L18:
 234 0064 00000000 		.word	pFlash
 235 0068 00200240 		.word	1073881088
 236 006c 00F8FF1F 		.word	536868864
 237              		.cfi_endproc
 238              	.LFE135:
 240              		.section	.text.FLASH_OB_UserConfig,"ax",%progbits
 241              		.align	1
 242              		.syntax unified
 243              		.thumb
 244              		.thumb_func
 245              		.fpu fpv4-sp-d16
 247              	FLASH_OB_UserConfig:
 248              	.LVL13:
 249              	.LFB136:
 811:Drivers/STM32F3xx_HAL_Driver/Src/stm32f3xx_hal_flash_ex.c ****   HAL_StatusTypeDef status = HAL_OK;
 250              		.loc 1 811 1 view -0
 251              		.cfi_startproc
 252              		@ args = 0, pretend = 0, frame = 0
 253              		@ frame_needed = 0, uses_anonymous_args = 0
 811:Drivers/STM32F3xx_HAL_Driver/Src/stm32f3xx_hal_flash_ex.c ****   HAL_StatusTypeDef status = HAL_OK;
 254              		.loc 1 811 1 is_stmt 0 view .LVU51
 255 0000 38B5     		push	{r3, r4, r5, lr}
 256              	.LCFI1:
 257              		.cfi_def_cfa_offset 16
 258              		.cfi_offset 3, -16
 259              		.cfi_offset 4, -12
 260              		.cfi_offset 5, -8
 261              		.cfi_offset 14, -4
 262 0002 0446     		mov	r4, r0
 812:Drivers/STM32F3xx_HAL_Driver/Src/stm32f3xx_hal_flash_ex.c **** 
 263              		.loc 1 812 3 is_stmt 1 view .LVU52
 264              	.LVL14:
 815:Drivers/STM32F3xx_HAL_Driver/Src/stm32f3xx_hal_flash_ex.c ****   assert_param(IS_OB_STOP_SOURCE((UserConfig&OB_STOP_NO_RST)));
 265              		.loc 1 815 3 view .LVU53
 816:Drivers/STM32F3xx_HAL_Driver/Src/stm32f3xx_hal_flash_ex.c ****   assert_param(IS_OB_STDBY_SOURCE((UserConfig&OB_STDBY_NO_RST)));
 266              		.loc 1 816 3 view .LVU54
 817:Drivers/STM32F3xx_HAL_Driver/Src/stm32f3xx_hal_flash_ex.c ****   assert_param(IS_OB_BOOT1((UserConfig&OB_BOOT1_SET)));
 267              		.loc 1 817 3 view .LVU55
 818:Drivers/STM32F3xx_HAL_Driver/Src/stm32f3xx_hal_flash_ex.c ****   assert_param(IS_OB_VDDA_ANALOG((UserConfig&OB_VDDA_ANALOG_ON)));
 268              		.loc 1 818 3 view .LVU56
 819:Drivers/STM32F3xx_HAL_Driver/Src/stm32f3xx_hal_flash_ex.c ****   assert_param(IS_OB_SRAM_PARITY((UserConfig&OB_SRAM_PARITY_RESET)));
 269              		.loc 1 819 3 view .LVU57
 820:Drivers/STM32F3xx_HAL_Driver/Src/stm32f3xx_hal_flash_ex.c **** #if defined(FLASH_OBR_SDADC12_VDD_MONITOR)
 270              		.loc 1 820 3 view .LVU58
 826:Drivers/STM32F3xx_HAL_Driver/Src/stm32f3xx_hal_flash_ex.c ****   
 271              		.loc 1 826 3 view .LVU59
 826:Drivers/STM32F3xx_HAL_Driver/Src/stm32f3xx_hal_flash_ex.c ****   
 272              		.loc 1 826 12 is_stmt 0 view .LVU60
 273 0004 4CF25030 		movw	r0, #50000
 274              	.LVL15:
 826:Drivers/STM32F3xx_HAL_Driver/Src/stm32f3xx_hal_flash_ex.c ****   
 275              		.loc 1 826 12 view .LVU61
 276 0008 FFF7FEFF 		bl	FLASH_WaitForLastOperation
 277              	.LVL16:
 828:Drivers/STM32F3xx_HAL_Driver/Src/stm32f3xx_hal_flash_ex.c ****   {     
ARM GAS  /var/folders/md/lgcc8l7571l9vt9sx0g0zflw0000gn/T//ccyhNZ7g.s 			page 23


 278              		.loc 1 828 3 is_stmt 1 view .LVU62
 828:Drivers/STM32F3xx_HAL_Driver/Src/stm32f3xx_hal_flash_ex.c ****   {     
 279              		.loc 1 828 5 is_stmt 0 view .LVU63
 280 000c 0346     		mov	r3, r0
 281 000e 08B1     		cbz	r0, .L23
 282              	.LVL17:
 283              	.L21:
 849:Drivers/STM32F3xx_HAL_Driver/Src/stm32f3xx_hal_flash_ex.c **** }
 284              		.loc 1 849 3 is_stmt 1 view .LVU64
 850:Drivers/STM32F3xx_HAL_Driver/Src/stm32f3xx_hal_flash_ex.c **** 
 285              		.loc 1 850 1 is_stmt 0 view .LVU65
 286 0010 1846     		mov	r0, r3
 287 0012 38BD     		pop	{r3, r4, r5, pc}
 288              	.LVL18:
 289              	.L23:
 831:Drivers/STM32F3xx_HAL_Driver/Src/stm32f3xx_hal_flash_ex.c **** 
 290              		.loc 1 831 5 is_stmt 1 view .LVU66
 831:Drivers/STM32F3xx_HAL_Driver/Src/stm32f3xx_hal_flash_ex.c **** 
 291              		.loc 1 831 22 is_stmt 0 view .LVU67
 292 0014 0A4B     		ldr	r3, .L24
 293 0016 0022     		movs	r2, #0
 294 0018 DA61     		str	r2, [r3, #28]
 834:Drivers/STM32F3xx_HAL_Driver/Src/stm32f3xx_hal_flash_ex.c ****  
 295              		.loc 1 834 5 is_stmt 1 view .LVU68
 296 001a 0A4D     		ldr	r5, .L24+4
 297 001c 2B69     		ldr	r3, [r5, #16]
 298 001e 43F01003 		orr	r3, r3, #16
 299 0022 2B61     		str	r3, [r5, #16]
 839:Drivers/STM32F3xx_HAL_Driver/Src/stm32f3xx_hal_flash_ex.c **** #endif
 300              		.loc 1 839 5 view .LVU69
 839:Drivers/STM32F3xx_HAL_Driver/Src/stm32f3xx_hal_flash_ex.c **** #endif
 301              		.loc 1 839 14 is_stmt 0 view .LVU70
 302 0024 44F08804 		orr	r4, r4, #136
 303 0028 074B     		ldr	r3, .L24+8
 304 002a 5C80     		strh	r4, [r3, #2]	@ movhi
 843:Drivers/STM32F3xx_HAL_Driver/Src/stm32f3xx_hal_flash_ex.c **** 
 305              		.loc 1 843 5 is_stmt 1 view .LVU71
 843:Drivers/STM32F3xx_HAL_Driver/Src/stm32f3xx_hal_flash_ex.c **** 
 306              		.loc 1 843 14 is_stmt 0 view .LVU72
 307 002c 4CF25030 		movw	r0, #50000
 308              	.LVL19:
 843:Drivers/STM32F3xx_HAL_Driver/Src/stm32f3xx_hal_flash_ex.c **** 
 309              		.loc 1 843 14 view .LVU73
 310 0030 FFF7FEFF 		bl	FLASH_WaitForLastOperation
 311              	.LVL20:
 312 0034 0346     		mov	r3, r0
 313              	.LVL21:
 846:Drivers/STM32F3xx_HAL_Driver/Src/stm32f3xx_hal_flash_ex.c ****   }
 314              		.loc 1 846 5 is_stmt 1 view .LVU74
 315 0036 2A69     		ldr	r2, [r5, #16]
 316 0038 22F01002 		bic	r2, r2, #16
 317 003c 2A61     		str	r2, [r5, #16]
 318 003e E7E7     		b	.L21
 319              	.L25:
 320              		.align	2
 321              	.L24:
 322 0040 00000000 		.word	pFlash
ARM GAS  /var/folders/md/lgcc8l7571l9vt9sx0g0zflw0000gn/T//ccyhNZ7g.s 			page 24


 323 0044 00200240 		.word	1073881088
 324 0048 00F8FF1F 		.word	536868864
 325              		.cfi_endproc
 326              	.LFE136:
 328              		.section	.text.FLASH_OB_ProgramData,"ax",%progbits
 329              		.align	1
 330              		.syntax unified
 331              		.thumb
 332              		.thumb_func
 333              		.fpu fpv4-sp-d16
 335              	FLASH_OB_ProgramData:
 336              	.LVL22:
 337              	.LFB137:
 865:Drivers/STM32F3xx_HAL_Driver/Src/stm32f3xx_hal_flash_ex.c ****   HAL_StatusTypeDef status = HAL_ERROR;
 338              		.loc 1 865 1 view -0
 339              		.cfi_startproc
 340              		@ args = 0, pretend = 0, frame = 0
 341              		@ frame_needed = 0, uses_anonymous_args = 0
 865:Drivers/STM32F3xx_HAL_Driver/Src/stm32f3xx_hal_flash_ex.c ****   HAL_StatusTypeDef status = HAL_ERROR;
 342              		.loc 1 865 1 is_stmt 0 view .LVU76
 343 0000 70B5     		push	{r4, r5, r6, lr}
 344              	.LCFI2:
 345              		.cfi_def_cfa_offset 16
 346              		.cfi_offset 4, -16
 347              		.cfi_offset 5, -12
 348              		.cfi_offset 6, -8
 349              		.cfi_offset 14, -4
 350 0002 0646     		mov	r6, r0
 351 0004 0C46     		mov	r4, r1
 866:Drivers/STM32F3xx_HAL_Driver/Src/stm32f3xx_hal_flash_ex.c ****   
 352              		.loc 1 866 3 is_stmt 1 view .LVU77
 353              	.LVL23:
 869:Drivers/STM32F3xx_HAL_Driver/Src/stm32f3xx_hal_flash_ex.c ****   
 354              		.loc 1 869 3 view .LVU78
 872:Drivers/STM32F3xx_HAL_Driver/Src/stm32f3xx_hal_flash_ex.c ****   
 355              		.loc 1 872 3 view .LVU79
 872:Drivers/STM32F3xx_HAL_Driver/Src/stm32f3xx_hal_flash_ex.c ****   
 356              		.loc 1 872 12 is_stmt 0 view .LVU80
 357 0006 4CF25030 		movw	r0, #50000
 358              	.LVL24:
 872:Drivers/STM32F3xx_HAL_Driver/Src/stm32f3xx_hal_flash_ex.c ****   
 359              		.loc 1 872 12 view .LVU81
 360 000a FFF7FEFF 		bl	FLASH_WaitForLastOperation
 361              	.LVL25:
 874:Drivers/STM32F3xx_HAL_Driver/Src/stm32f3xx_hal_flash_ex.c ****   {
 362              		.loc 1 874 3 is_stmt 1 view .LVU82
 874:Drivers/STM32F3xx_HAL_Driver/Src/stm32f3xx_hal_flash_ex.c ****   {
 363              		.loc 1 874 5 is_stmt 0 view .LVU83
 364 000e 0346     		mov	r3, r0
 365 0010 08B1     		cbz	r0, .L29
 366              	.LVL26:
 367              	.L27:
 890:Drivers/STM32F3xx_HAL_Driver/Src/stm32f3xx_hal_flash_ex.c **** }
 368              		.loc 1 890 3 is_stmt 1 view .LVU84
 891:Drivers/STM32F3xx_HAL_Driver/Src/stm32f3xx_hal_flash_ex.c **** 
 369              		.loc 1 891 1 is_stmt 0 view .LVU85
 370 0012 1846     		mov	r0, r3
ARM GAS  /var/folders/md/lgcc8l7571l9vt9sx0g0zflw0000gn/T//ccyhNZ7g.s 			page 25


 371 0014 70BD     		pop	{r4, r5, r6, pc}
 372              	.LVL27:
 373              	.L29:
 877:Drivers/STM32F3xx_HAL_Driver/Src/stm32f3xx_hal_flash_ex.c **** 
 374              		.loc 1 877 5 is_stmt 1 view .LVU86
 877:Drivers/STM32F3xx_HAL_Driver/Src/stm32f3xx_hal_flash_ex.c **** 
 375              		.loc 1 877 22 is_stmt 0 view .LVU87
 376 0016 0A4B     		ldr	r3, .L30
 377 0018 0022     		movs	r2, #0
 378 001a DA61     		str	r2, [r3, #28]
 880:Drivers/STM32F3xx_HAL_Driver/Src/stm32f3xx_hal_flash_ex.c ****     *(__IO uint16_t*)Address = Data;
 379              		.loc 1 880 5 is_stmt 1 view .LVU88
 380 001c 094D     		ldr	r5, .L30+4
 381 001e 2B69     		ldr	r3, [r5, #16]
 382 0020 43F01003 		orr	r3, r3, #16
 383 0024 2B61     		str	r3, [r5, #16]
 881:Drivers/STM32F3xx_HAL_Driver/Src/stm32f3xx_hal_flash_ex.c ****     
 384              		.loc 1 881 5 view .LVU89
 881:Drivers/STM32F3xx_HAL_Driver/Src/stm32f3xx_hal_flash_ex.c ****     
 385              		.loc 1 881 30 is_stmt 0 view .LVU90
 386 0026 A4B2     		uxth	r4, r4
 387 0028 3480     		strh	r4, [r6]	@ movhi
 884:Drivers/STM32F3xx_HAL_Driver/Src/stm32f3xx_hal_flash_ex.c ****     
 388              		.loc 1 884 5 is_stmt 1 view .LVU91
 884:Drivers/STM32F3xx_HAL_Driver/Src/stm32f3xx_hal_flash_ex.c ****     
 389              		.loc 1 884 14 is_stmt 0 view .LVU92
 390 002a 4CF25030 		movw	r0, #50000
 391              	.LVL28:
 884:Drivers/STM32F3xx_HAL_Driver/Src/stm32f3xx_hal_flash_ex.c ****     
 392              		.loc 1 884 14 view .LVU93
 393 002e FFF7FEFF 		bl	FLASH_WaitForLastOperation
 394              	.LVL29:
 395 0032 0346     		mov	r3, r0
 396              	.LVL30:
 887:Drivers/STM32F3xx_HAL_Driver/Src/stm32f3xx_hal_flash_ex.c ****   }
 397              		.loc 1 887 5 is_stmt 1 view .LVU94
 398 0034 2A69     		ldr	r2, [r5, #16]
 399 0036 22F01002 		bic	r2, r2, #16
 400 003a 2A61     		str	r2, [r5, #16]
 401 003c E9E7     		b	.L27
 402              	.L31:
 403 003e 00BF     		.align	2
 404              	.L30:
 405 0040 00000000 		.word	pFlash
 406 0044 00200240 		.word	1073881088
 407              		.cfi_endproc
 408              	.LFE137:
 410              		.section	.text.FLASH_OB_GetUser,"ax",%progbits
 411              		.align	1
 412              		.syntax unified
 413              		.thumb
 414              		.thumb_func
 415              		.fpu fpv4-sp-d16
 417              	FLASH_OB_GetUser:
 418              	.LFB140:
 945:Drivers/STM32F3xx_HAL_Driver/Src/stm32f3xx_hal_flash_ex.c **** 
 946:Drivers/STM32F3xx_HAL_Driver/Src/stm32f3xx_hal_flash_ex.c **** /**
ARM GAS  /var/folders/md/lgcc8l7571l9vt9sx0g0zflw0000gn/T//ccyhNZ7g.s 			page 26


 947:Drivers/STM32F3xx_HAL_Driver/Src/stm32f3xx_hal_flash_ex.c ****   * @brief  Return the FLASH User Option Byte value.
 948:Drivers/STM32F3xx_HAL_Driver/Src/stm32f3xx_hal_flash_ex.c ****   * @retval  The FLASH User Option Bytes values: IWDG_SW(Bit0), RST_STOP(Bit1), RST_STDBY(Bit2), nB
 949:Drivers/STM32F3xx_HAL_Driver/Src/stm32f3xx_hal_flash_ex.c ****   *         VDDA_Analog_Monitoring(Bit5) and SRAM_Parity_Enable(Bit6). 
 950:Drivers/STM32F3xx_HAL_Driver/Src/stm32f3xx_hal_flash_ex.c ****   *         And SDADC12_VDD_MONITOR(Bit7) for STM32F373 or STM32F378 . 
 951:Drivers/STM32F3xx_HAL_Driver/Src/stm32f3xx_hal_flash_ex.c ****   */
 952:Drivers/STM32F3xx_HAL_Driver/Src/stm32f3xx_hal_flash_ex.c **** static uint8_t FLASH_OB_GetUser(void)
 953:Drivers/STM32F3xx_HAL_Driver/Src/stm32f3xx_hal_flash_ex.c **** {
 419              		.loc 1 953 1 view -0
 420              		.cfi_startproc
 421              		@ args = 0, pretend = 0, frame = 0
 422              		@ frame_needed = 0, uses_anonymous_args = 0
 423              		@ link register save eliminated.
 954:Drivers/STM32F3xx_HAL_Driver/Src/stm32f3xx_hal_flash_ex.c ****   /* Return the User Option Byte */
 955:Drivers/STM32F3xx_HAL_Driver/Src/stm32f3xx_hal_flash_ex.c ****   return (uint8_t)((READ_REG(FLASH->OBR) & FLASH_OBR_USER) >> FLASH_POSITION_IWDGSW_BIT);
 424              		.loc 1 955 3 view .LVU96
 425              		.loc 1 955 21 is_stmt 0 view .LVU97
 426 0000 064B     		ldr	r3, .L33
 427 0002 D869     		ldr	r0, [r3, #28]
 428              		.loc 1 955 42 view .LVU98
 429 0004 00F4EE40 		and	r0, r0, #30464
 430              	.LVL31:
 431              	.LBB8:
 432              	.LBI8:
 433              		.file 2 "Drivers/CMSIS/Include/cmsis_gcc.h"
   1:Drivers/CMSIS/Include/cmsis_gcc.h **** /**************************************************************************//**
   2:Drivers/CMSIS/Include/cmsis_gcc.h ****  * @file     cmsis_gcc.h
   3:Drivers/CMSIS/Include/cmsis_gcc.h ****  * @brief    CMSIS Cortex-M Core Function/Instruction Header File
   4:Drivers/CMSIS/Include/cmsis_gcc.h ****  * @version  V4.30
   5:Drivers/CMSIS/Include/cmsis_gcc.h ****  * @date     20. October 2015
   6:Drivers/CMSIS/Include/cmsis_gcc.h ****  ******************************************************************************/
   7:Drivers/CMSIS/Include/cmsis_gcc.h **** /* Copyright (c) 2009 - 2015 ARM LIMITED
   8:Drivers/CMSIS/Include/cmsis_gcc.h **** 
   9:Drivers/CMSIS/Include/cmsis_gcc.h ****    All rights reserved.
  10:Drivers/CMSIS/Include/cmsis_gcc.h ****    Redistribution and use in source and binary forms, with or without
  11:Drivers/CMSIS/Include/cmsis_gcc.h ****    modification, are permitted provided that the following conditions are met:
  12:Drivers/CMSIS/Include/cmsis_gcc.h ****    - Redistributions of source code must retain the above copyright
  13:Drivers/CMSIS/Include/cmsis_gcc.h ****      notice, this list of conditions and the following disclaimer.
  14:Drivers/CMSIS/Include/cmsis_gcc.h ****    - Redistributions in binary form must reproduce the above copyright
  15:Drivers/CMSIS/Include/cmsis_gcc.h ****      notice, this list of conditions and the following disclaimer in the
  16:Drivers/CMSIS/Include/cmsis_gcc.h ****      documentation and/or other materials provided with the distribution.
  17:Drivers/CMSIS/Include/cmsis_gcc.h ****    - Neither the name of ARM nor the names of its contributors may be used
  18:Drivers/CMSIS/Include/cmsis_gcc.h ****      to endorse or promote products derived from this software without
  19:Drivers/CMSIS/Include/cmsis_gcc.h ****      specific prior written permission.
  20:Drivers/CMSIS/Include/cmsis_gcc.h ****    *
  21:Drivers/CMSIS/Include/cmsis_gcc.h ****    THIS SOFTWARE IS PROVIDED BY THE COPYRIGHT HOLDERS AND CONTRIBUTORS "AS IS"
  22:Drivers/CMSIS/Include/cmsis_gcc.h ****    AND ANY EXPRESS OR IMPLIED WARRANTIES, INCLUDING, BUT NOT LIMITED TO, THE
  23:Drivers/CMSIS/Include/cmsis_gcc.h ****    IMPLIED WARRANTIES OF MERCHANTABILITY AND FITNESS FOR A PARTICULAR PURPOSE
  24:Drivers/CMSIS/Include/cmsis_gcc.h ****    ARE DISCLAIMED. IN NO EVENT SHALL COPYRIGHT HOLDERS AND CONTRIBUTORS BE
  25:Drivers/CMSIS/Include/cmsis_gcc.h ****    LIABLE FOR ANY DIRECT, INDIRECT, INCIDENTAL, SPECIAL, EXEMPLARY, OR
  26:Drivers/CMSIS/Include/cmsis_gcc.h ****    CONSEQUENTIAL DAMAGES (INCLUDING, BUT NOT LIMITED TO, PROCUREMENT OF
  27:Drivers/CMSIS/Include/cmsis_gcc.h ****    SUBSTITUTE GOODS OR SERVICES; LOSS OF USE, DATA, OR PROFITS; OR BUSINESS
  28:Drivers/CMSIS/Include/cmsis_gcc.h ****    INTERRUPTION) HOWEVER CAUSED AND ON ANY THEORY OF LIABILITY, WHETHER IN
  29:Drivers/CMSIS/Include/cmsis_gcc.h ****    CONTRACT, STRICT LIABILITY, OR TORT (INCLUDING NEGLIGENCE OR OTHERWISE)
  30:Drivers/CMSIS/Include/cmsis_gcc.h ****    ARISING IN ANY WAY OUT OF THE USE OF THIS SOFTWARE, EVEN IF ADVISED OF THE
  31:Drivers/CMSIS/Include/cmsis_gcc.h ****    POSSIBILITY OF SUCH DAMAGE.
  32:Drivers/CMSIS/Include/cmsis_gcc.h ****    ---------------------------------------------------------------------------*/
  33:Drivers/CMSIS/Include/cmsis_gcc.h **** 
ARM GAS  /var/folders/md/lgcc8l7571l9vt9sx0g0zflw0000gn/T//ccyhNZ7g.s 			page 27


  34:Drivers/CMSIS/Include/cmsis_gcc.h **** 
  35:Drivers/CMSIS/Include/cmsis_gcc.h **** #ifndef __CMSIS_GCC_H
  36:Drivers/CMSIS/Include/cmsis_gcc.h **** #define __CMSIS_GCC_H
  37:Drivers/CMSIS/Include/cmsis_gcc.h **** 
  38:Drivers/CMSIS/Include/cmsis_gcc.h **** /* ignore some GCC warnings */
  39:Drivers/CMSIS/Include/cmsis_gcc.h **** #if defined ( __GNUC__ )
  40:Drivers/CMSIS/Include/cmsis_gcc.h **** #pragma GCC diagnostic push
  41:Drivers/CMSIS/Include/cmsis_gcc.h **** #pragma GCC diagnostic ignored "-Wsign-conversion"
  42:Drivers/CMSIS/Include/cmsis_gcc.h **** #pragma GCC diagnostic ignored "-Wconversion"
  43:Drivers/CMSIS/Include/cmsis_gcc.h **** #pragma GCC diagnostic ignored "-Wunused-parameter"
  44:Drivers/CMSIS/Include/cmsis_gcc.h **** #endif
  45:Drivers/CMSIS/Include/cmsis_gcc.h **** 
  46:Drivers/CMSIS/Include/cmsis_gcc.h **** 
  47:Drivers/CMSIS/Include/cmsis_gcc.h **** /* ###########################  Core Function Access  ########################### */
  48:Drivers/CMSIS/Include/cmsis_gcc.h **** /** \ingroup  CMSIS_Core_FunctionInterface
  49:Drivers/CMSIS/Include/cmsis_gcc.h ****     \defgroup CMSIS_Core_RegAccFunctions CMSIS Core Register Access Functions
  50:Drivers/CMSIS/Include/cmsis_gcc.h ****   @{
  51:Drivers/CMSIS/Include/cmsis_gcc.h ****  */
  52:Drivers/CMSIS/Include/cmsis_gcc.h **** 
  53:Drivers/CMSIS/Include/cmsis_gcc.h **** /**
  54:Drivers/CMSIS/Include/cmsis_gcc.h ****   \brief   Enable IRQ Interrupts
  55:Drivers/CMSIS/Include/cmsis_gcc.h ****   \details Enables IRQ interrupts by clearing the I-bit in the CPSR.
  56:Drivers/CMSIS/Include/cmsis_gcc.h ****            Can only be executed in Privileged modes.
  57:Drivers/CMSIS/Include/cmsis_gcc.h ****  */
  58:Drivers/CMSIS/Include/cmsis_gcc.h **** __attribute__( ( always_inline ) ) __STATIC_INLINE void __enable_irq(void)
  59:Drivers/CMSIS/Include/cmsis_gcc.h **** {
  60:Drivers/CMSIS/Include/cmsis_gcc.h ****   __ASM volatile ("cpsie i" : : : "memory");
  61:Drivers/CMSIS/Include/cmsis_gcc.h **** }
  62:Drivers/CMSIS/Include/cmsis_gcc.h **** 
  63:Drivers/CMSIS/Include/cmsis_gcc.h **** 
  64:Drivers/CMSIS/Include/cmsis_gcc.h **** /**
  65:Drivers/CMSIS/Include/cmsis_gcc.h ****   \brief   Disable IRQ Interrupts
  66:Drivers/CMSIS/Include/cmsis_gcc.h ****   \details Disables IRQ interrupts by setting the I-bit in the CPSR.
  67:Drivers/CMSIS/Include/cmsis_gcc.h ****   Can only be executed in Privileged modes.
  68:Drivers/CMSIS/Include/cmsis_gcc.h ****  */
  69:Drivers/CMSIS/Include/cmsis_gcc.h **** __attribute__( ( always_inline ) ) __STATIC_INLINE void __disable_irq(void)
  70:Drivers/CMSIS/Include/cmsis_gcc.h **** {
  71:Drivers/CMSIS/Include/cmsis_gcc.h ****   __ASM volatile ("cpsid i" : : : "memory");
  72:Drivers/CMSIS/Include/cmsis_gcc.h **** }
  73:Drivers/CMSIS/Include/cmsis_gcc.h **** 
  74:Drivers/CMSIS/Include/cmsis_gcc.h **** 
  75:Drivers/CMSIS/Include/cmsis_gcc.h **** /**
  76:Drivers/CMSIS/Include/cmsis_gcc.h ****   \brief   Get Control Register
  77:Drivers/CMSIS/Include/cmsis_gcc.h ****   \details Returns the content of the Control Register.
  78:Drivers/CMSIS/Include/cmsis_gcc.h ****   \return               Control Register value
  79:Drivers/CMSIS/Include/cmsis_gcc.h ****  */
  80:Drivers/CMSIS/Include/cmsis_gcc.h **** __attribute__( ( always_inline ) ) __STATIC_INLINE uint32_t __get_CONTROL(void)
  81:Drivers/CMSIS/Include/cmsis_gcc.h **** {
  82:Drivers/CMSIS/Include/cmsis_gcc.h ****   uint32_t result;
  83:Drivers/CMSIS/Include/cmsis_gcc.h **** 
  84:Drivers/CMSIS/Include/cmsis_gcc.h ****   __ASM volatile ("MRS %0, control" : "=r" (result) );
  85:Drivers/CMSIS/Include/cmsis_gcc.h ****   return(result);
  86:Drivers/CMSIS/Include/cmsis_gcc.h **** }
  87:Drivers/CMSIS/Include/cmsis_gcc.h **** 
  88:Drivers/CMSIS/Include/cmsis_gcc.h **** 
  89:Drivers/CMSIS/Include/cmsis_gcc.h **** /**
  90:Drivers/CMSIS/Include/cmsis_gcc.h ****   \brief   Set Control Register
ARM GAS  /var/folders/md/lgcc8l7571l9vt9sx0g0zflw0000gn/T//ccyhNZ7g.s 			page 28


  91:Drivers/CMSIS/Include/cmsis_gcc.h ****   \details Writes the given value to the Control Register.
  92:Drivers/CMSIS/Include/cmsis_gcc.h ****   \param [in]    control  Control Register value to set
  93:Drivers/CMSIS/Include/cmsis_gcc.h ****  */
  94:Drivers/CMSIS/Include/cmsis_gcc.h **** __attribute__( ( always_inline ) ) __STATIC_INLINE void __set_CONTROL(uint32_t control)
  95:Drivers/CMSIS/Include/cmsis_gcc.h **** {
  96:Drivers/CMSIS/Include/cmsis_gcc.h ****   __ASM volatile ("MSR control, %0" : : "r" (control) : "memory");
  97:Drivers/CMSIS/Include/cmsis_gcc.h **** }
  98:Drivers/CMSIS/Include/cmsis_gcc.h **** 
  99:Drivers/CMSIS/Include/cmsis_gcc.h **** 
 100:Drivers/CMSIS/Include/cmsis_gcc.h **** /**
 101:Drivers/CMSIS/Include/cmsis_gcc.h ****   \brief   Get IPSR Register
 102:Drivers/CMSIS/Include/cmsis_gcc.h ****   \details Returns the content of the IPSR Register.
 103:Drivers/CMSIS/Include/cmsis_gcc.h ****   \return               IPSR Register value
 104:Drivers/CMSIS/Include/cmsis_gcc.h ****  */
 105:Drivers/CMSIS/Include/cmsis_gcc.h **** __attribute__( ( always_inline ) ) __STATIC_INLINE uint32_t __get_IPSR(void)
 106:Drivers/CMSIS/Include/cmsis_gcc.h **** {
 107:Drivers/CMSIS/Include/cmsis_gcc.h ****   uint32_t result;
 108:Drivers/CMSIS/Include/cmsis_gcc.h **** 
 109:Drivers/CMSIS/Include/cmsis_gcc.h ****   __ASM volatile ("MRS %0, ipsr" : "=r" (result) );
 110:Drivers/CMSIS/Include/cmsis_gcc.h ****   return(result);
 111:Drivers/CMSIS/Include/cmsis_gcc.h **** }
 112:Drivers/CMSIS/Include/cmsis_gcc.h **** 
 113:Drivers/CMSIS/Include/cmsis_gcc.h **** 
 114:Drivers/CMSIS/Include/cmsis_gcc.h **** /**
 115:Drivers/CMSIS/Include/cmsis_gcc.h ****   \brief   Get APSR Register
 116:Drivers/CMSIS/Include/cmsis_gcc.h ****   \details Returns the content of the APSR Register.
 117:Drivers/CMSIS/Include/cmsis_gcc.h ****   \return               APSR Register value
 118:Drivers/CMSIS/Include/cmsis_gcc.h ****  */
 119:Drivers/CMSIS/Include/cmsis_gcc.h **** __attribute__( ( always_inline ) ) __STATIC_INLINE uint32_t __get_APSR(void)
 120:Drivers/CMSIS/Include/cmsis_gcc.h **** {
 121:Drivers/CMSIS/Include/cmsis_gcc.h ****   uint32_t result;
 122:Drivers/CMSIS/Include/cmsis_gcc.h **** 
 123:Drivers/CMSIS/Include/cmsis_gcc.h ****   __ASM volatile ("MRS %0, apsr" : "=r" (result) );
 124:Drivers/CMSIS/Include/cmsis_gcc.h ****   return(result);
 125:Drivers/CMSIS/Include/cmsis_gcc.h **** }
 126:Drivers/CMSIS/Include/cmsis_gcc.h **** 
 127:Drivers/CMSIS/Include/cmsis_gcc.h **** 
 128:Drivers/CMSIS/Include/cmsis_gcc.h **** /**
 129:Drivers/CMSIS/Include/cmsis_gcc.h ****   \brief   Get xPSR Register
 130:Drivers/CMSIS/Include/cmsis_gcc.h ****   \details Returns the content of the xPSR Register.
 131:Drivers/CMSIS/Include/cmsis_gcc.h **** 
 132:Drivers/CMSIS/Include/cmsis_gcc.h ****     \return               xPSR Register value
 133:Drivers/CMSIS/Include/cmsis_gcc.h ****  */
 134:Drivers/CMSIS/Include/cmsis_gcc.h **** __attribute__( ( always_inline ) ) __STATIC_INLINE uint32_t __get_xPSR(void)
 135:Drivers/CMSIS/Include/cmsis_gcc.h **** {
 136:Drivers/CMSIS/Include/cmsis_gcc.h ****   uint32_t result;
 137:Drivers/CMSIS/Include/cmsis_gcc.h **** 
 138:Drivers/CMSIS/Include/cmsis_gcc.h ****   __ASM volatile ("MRS %0, xpsr" : "=r" (result) );
 139:Drivers/CMSIS/Include/cmsis_gcc.h ****   return(result);
 140:Drivers/CMSIS/Include/cmsis_gcc.h **** }
 141:Drivers/CMSIS/Include/cmsis_gcc.h **** 
 142:Drivers/CMSIS/Include/cmsis_gcc.h **** 
 143:Drivers/CMSIS/Include/cmsis_gcc.h **** /**
 144:Drivers/CMSIS/Include/cmsis_gcc.h ****   \brief   Get Process Stack Pointer
 145:Drivers/CMSIS/Include/cmsis_gcc.h ****   \details Returns the current value of the Process Stack Pointer (PSP).
 146:Drivers/CMSIS/Include/cmsis_gcc.h ****   \return               PSP Register value
 147:Drivers/CMSIS/Include/cmsis_gcc.h ****  */
ARM GAS  /var/folders/md/lgcc8l7571l9vt9sx0g0zflw0000gn/T//ccyhNZ7g.s 			page 29


 148:Drivers/CMSIS/Include/cmsis_gcc.h **** __attribute__( ( always_inline ) ) __STATIC_INLINE uint32_t __get_PSP(void)
 149:Drivers/CMSIS/Include/cmsis_gcc.h **** {
 150:Drivers/CMSIS/Include/cmsis_gcc.h ****   register uint32_t result;
 151:Drivers/CMSIS/Include/cmsis_gcc.h **** 
 152:Drivers/CMSIS/Include/cmsis_gcc.h ****   __ASM volatile ("MRS %0, psp\n"  : "=r" (result) );
 153:Drivers/CMSIS/Include/cmsis_gcc.h ****   return(result);
 154:Drivers/CMSIS/Include/cmsis_gcc.h **** }
 155:Drivers/CMSIS/Include/cmsis_gcc.h **** 
 156:Drivers/CMSIS/Include/cmsis_gcc.h **** 
 157:Drivers/CMSIS/Include/cmsis_gcc.h **** /**
 158:Drivers/CMSIS/Include/cmsis_gcc.h ****   \brief   Set Process Stack Pointer
 159:Drivers/CMSIS/Include/cmsis_gcc.h ****   \details Assigns the given value to the Process Stack Pointer (PSP).
 160:Drivers/CMSIS/Include/cmsis_gcc.h ****   \param [in]    topOfProcStack  Process Stack Pointer value to set
 161:Drivers/CMSIS/Include/cmsis_gcc.h ****  */
 162:Drivers/CMSIS/Include/cmsis_gcc.h **** __attribute__( ( always_inline ) ) __STATIC_INLINE void __set_PSP(uint32_t topOfProcStack)
 163:Drivers/CMSIS/Include/cmsis_gcc.h **** {
 164:Drivers/CMSIS/Include/cmsis_gcc.h ****   __ASM volatile ("MSR psp, %0\n" : : "r" (topOfProcStack) : "sp");
 165:Drivers/CMSIS/Include/cmsis_gcc.h **** }
 166:Drivers/CMSIS/Include/cmsis_gcc.h **** 
 167:Drivers/CMSIS/Include/cmsis_gcc.h **** 
 168:Drivers/CMSIS/Include/cmsis_gcc.h **** /**
 169:Drivers/CMSIS/Include/cmsis_gcc.h ****   \brief   Get Main Stack Pointer
 170:Drivers/CMSIS/Include/cmsis_gcc.h ****   \details Returns the current value of the Main Stack Pointer (MSP).
 171:Drivers/CMSIS/Include/cmsis_gcc.h ****   \return               MSP Register value
 172:Drivers/CMSIS/Include/cmsis_gcc.h ****  */
 173:Drivers/CMSIS/Include/cmsis_gcc.h **** __attribute__( ( always_inline ) ) __STATIC_INLINE uint32_t __get_MSP(void)
 174:Drivers/CMSIS/Include/cmsis_gcc.h **** {
 175:Drivers/CMSIS/Include/cmsis_gcc.h ****   register uint32_t result;
 176:Drivers/CMSIS/Include/cmsis_gcc.h **** 
 177:Drivers/CMSIS/Include/cmsis_gcc.h ****   __ASM volatile ("MRS %0, msp\n" : "=r" (result) );
 178:Drivers/CMSIS/Include/cmsis_gcc.h ****   return(result);
 179:Drivers/CMSIS/Include/cmsis_gcc.h **** }
 180:Drivers/CMSIS/Include/cmsis_gcc.h **** 
 181:Drivers/CMSIS/Include/cmsis_gcc.h **** 
 182:Drivers/CMSIS/Include/cmsis_gcc.h **** /**
 183:Drivers/CMSIS/Include/cmsis_gcc.h ****   \brief   Set Main Stack Pointer
 184:Drivers/CMSIS/Include/cmsis_gcc.h ****   \details Assigns the given value to the Main Stack Pointer (MSP).
 185:Drivers/CMSIS/Include/cmsis_gcc.h **** 
 186:Drivers/CMSIS/Include/cmsis_gcc.h ****     \param [in]    topOfMainStack  Main Stack Pointer value to set
 187:Drivers/CMSIS/Include/cmsis_gcc.h ****  */
 188:Drivers/CMSIS/Include/cmsis_gcc.h **** __attribute__( ( always_inline ) ) __STATIC_INLINE void __set_MSP(uint32_t topOfMainStack)
 189:Drivers/CMSIS/Include/cmsis_gcc.h **** {
 190:Drivers/CMSIS/Include/cmsis_gcc.h ****   __ASM volatile ("MSR msp, %0\n" : : "r" (topOfMainStack) : "sp");
 191:Drivers/CMSIS/Include/cmsis_gcc.h **** }
 192:Drivers/CMSIS/Include/cmsis_gcc.h **** 
 193:Drivers/CMSIS/Include/cmsis_gcc.h **** 
 194:Drivers/CMSIS/Include/cmsis_gcc.h **** /**
 195:Drivers/CMSIS/Include/cmsis_gcc.h ****   \brief   Get Priority Mask
 196:Drivers/CMSIS/Include/cmsis_gcc.h ****   \details Returns the current state of the priority mask bit from the Priority Mask Register.
 197:Drivers/CMSIS/Include/cmsis_gcc.h ****   \return               Priority Mask value
 198:Drivers/CMSIS/Include/cmsis_gcc.h ****  */
 199:Drivers/CMSIS/Include/cmsis_gcc.h **** __attribute__( ( always_inline ) ) __STATIC_INLINE uint32_t __get_PRIMASK(void)
 200:Drivers/CMSIS/Include/cmsis_gcc.h **** {
 201:Drivers/CMSIS/Include/cmsis_gcc.h ****   uint32_t result;
 202:Drivers/CMSIS/Include/cmsis_gcc.h **** 
 203:Drivers/CMSIS/Include/cmsis_gcc.h ****   __ASM volatile ("MRS %0, primask" : "=r" (result) );
 204:Drivers/CMSIS/Include/cmsis_gcc.h ****   return(result);
ARM GAS  /var/folders/md/lgcc8l7571l9vt9sx0g0zflw0000gn/T//ccyhNZ7g.s 			page 30


 205:Drivers/CMSIS/Include/cmsis_gcc.h **** }
 206:Drivers/CMSIS/Include/cmsis_gcc.h **** 
 207:Drivers/CMSIS/Include/cmsis_gcc.h **** 
 208:Drivers/CMSIS/Include/cmsis_gcc.h **** /**
 209:Drivers/CMSIS/Include/cmsis_gcc.h ****   \brief   Set Priority Mask
 210:Drivers/CMSIS/Include/cmsis_gcc.h ****   \details Assigns the given value to the Priority Mask Register.
 211:Drivers/CMSIS/Include/cmsis_gcc.h ****   \param [in]    priMask  Priority Mask
 212:Drivers/CMSIS/Include/cmsis_gcc.h ****  */
 213:Drivers/CMSIS/Include/cmsis_gcc.h **** __attribute__( ( always_inline ) ) __STATIC_INLINE void __set_PRIMASK(uint32_t priMask)
 214:Drivers/CMSIS/Include/cmsis_gcc.h **** {
 215:Drivers/CMSIS/Include/cmsis_gcc.h ****   __ASM volatile ("MSR primask, %0" : : "r" (priMask) : "memory");
 216:Drivers/CMSIS/Include/cmsis_gcc.h **** }
 217:Drivers/CMSIS/Include/cmsis_gcc.h **** 
 218:Drivers/CMSIS/Include/cmsis_gcc.h **** 
 219:Drivers/CMSIS/Include/cmsis_gcc.h **** #if       (__CORTEX_M >= 0x03U)
 220:Drivers/CMSIS/Include/cmsis_gcc.h **** 
 221:Drivers/CMSIS/Include/cmsis_gcc.h **** /**
 222:Drivers/CMSIS/Include/cmsis_gcc.h ****   \brief   Enable FIQ
 223:Drivers/CMSIS/Include/cmsis_gcc.h ****   \details Enables FIQ interrupts by clearing the F-bit in the CPSR.
 224:Drivers/CMSIS/Include/cmsis_gcc.h ****            Can only be executed in Privileged modes.
 225:Drivers/CMSIS/Include/cmsis_gcc.h ****  */
 226:Drivers/CMSIS/Include/cmsis_gcc.h **** __attribute__( ( always_inline ) ) __STATIC_INLINE void __enable_fault_irq(void)
 227:Drivers/CMSIS/Include/cmsis_gcc.h **** {
 228:Drivers/CMSIS/Include/cmsis_gcc.h ****   __ASM volatile ("cpsie f" : : : "memory");
 229:Drivers/CMSIS/Include/cmsis_gcc.h **** }
 230:Drivers/CMSIS/Include/cmsis_gcc.h **** 
 231:Drivers/CMSIS/Include/cmsis_gcc.h **** 
 232:Drivers/CMSIS/Include/cmsis_gcc.h **** /**
 233:Drivers/CMSIS/Include/cmsis_gcc.h ****   \brief   Disable FIQ
 234:Drivers/CMSIS/Include/cmsis_gcc.h ****   \details Disables FIQ interrupts by setting the F-bit in the CPSR.
 235:Drivers/CMSIS/Include/cmsis_gcc.h ****            Can only be executed in Privileged modes.
 236:Drivers/CMSIS/Include/cmsis_gcc.h ****  */
 237:Drivers/CMSIS/Include/cmsis_gcc.h **** __attribute__( ( always_inline ) ) __STATIC_INLINE void __disable_fault_irq(void)
 238:Drivers/CMSIS/Include/cmsis_gcc.h **** {
 239:Drivers/CMSIS/Include/cmsis_gcc.h ****   __ASM volatile ("cpsid f" : : : "memory");
 240:Drivers/CMSIS/Include/cmsis_gcc.h **** }
 241:Drivers/CMSIS/Include/cmsis_gcc.h **** 
 242:Drivers/CMSIS/Include/cmsis_gcc.h **** 
 243:Drivers/CMSIS/Include/cmsis_gcc.h **** /**
 244:Drivers/CMSIS/Include/cmsis_gcc.h ****   \brief   Get Base Priority
 245:Drivers/CMSIS/Include/cmsis_gcc.h ****   \details Returns the current value of the Base Priority register.
 246:Drivers/CMSIS/Include/cmsis_gcc.h ****   \return               Base Priority register value
 247:Drivers/CMSIS/Include/cmsis_gcc.h ****  */
 248:Drivers/CMSIS/Include/cmsis_gcc.h **** __attribute__( ( always_inline ) ) __STATIC_INLINE uint32_t __get_BASEPRI(void)
 249:Drivers/CMSIS/Include/cmsis_gcc.h **** {
 250:Drivers/CMSIS/Include/cmsis_gcc.h ****   uint32_t result;
 251:Drivers/CMSIS/Include/cmsis_gcc.h **** 
 252:Drivers/CMSIS/Include/cmsis_gcc.h ****   __ASM volatile ("MRS %0, basepri" : "=r" (result) );
 253:Drivers/CMSIS/Include/cmsis_gcc.h ****   return(result);
 254:Drivers/CMSIS/Include/cmsis_gcc.h **** }
 255:Drivers/CMSIS/Include/cmsis_gcc.h **** 
 256:Drivers/CMSIS/Include/cmsis_gcc.h **** 
 257:Drivers/CMSIS/Include/cmsis_gcc.h **** /**
 258:Drivers/CMSIS/Include/cmsis_gcc.h ****   \brief   Set Base Priority
 259:Drivers/CMSIS/Include/cmsis_gcc.h ****   \details Assigns the given value to the Base Priority register.
 260:Drivers/CMSIS/Include/cmsis_gcc.h ****   \param [in]    basePri  Base Priority value to set
 261:Drivers/CMSIS/Include/cmsis_gcc.h ****  */
ARM GAS  /var/folders/md/lgcc8l7571l9vt9sx0g0zflw0000gn/T//ccyhNZ7g.s 			page 31


 262:Drivers/CMSIS/Include/cmsis_gcc.h **** __attribute__( ( always_inline ) ) __STATIC_INLINE void __set_BASEPRI(uint32_t value)
 263:Drivers/CMSIS/Include/cmsis_gcc.h **** {
 264:Drivers/CMSIS/Include/cmsis_gcc.h ****   __ASM volatile ("MSR basepri, %0" : : "r" (value) : "memory");
 265:Drivers/CMSIS/Include/cmsis_gcc.h **** }
 266:Drivers/CMSIS/Include/cmsis_gcc.h **** 
 267:Drivers/CMSIS/Include/cmsis_gcc.h **** 
 268:Drivers/CMSIS/Include/cmsis_gcc.h **** /**
 269:Drivers/CMSIS/Include/cmsis_gcc.h ****   \brief   Set Base Priority with condition
 270:Drivers/CMSIS/Include/cmsis_gcc.h ****   \details Assigns the given value to the Base Priority register only if BASEPRI masking is disable
 271:Drivers/CMSIS/Include/cmsis_gcc.h ****            or the new value increases the BASEPRI priority level.
 272:Drivers/CMSIS/Include/cmsis_gcc.h ****   \param [in]    basePri  Base Priority value to set
 273:Drivers/CMSIS/Include/cmsis_gcc.h ****  */
 274:Drivers/CMSIS/Include/cmsis_gcc.h **** __attribute__( ( always_inline ) ) __STATIC_INLINE void __set_BASEPRI_MAX(uint32_t value)
 275:Drivers/CMSIS/Include/cmsis_gcc.h **** {
 276:Drivers/CMSIS/Include/cmsis_gcc.h ****   __ASM volatile ("MSR basepri_max, %0" : : "r" (value) : "memory");
 277:Drivers/CMSIS/Include/cmsis_gcc.h **** }
 278:Drivers/CMSIS/Include/cmsis_gcc.h **** 
 279:Drivers/CMSIS/Include/cmsis_gcc.h **** 
 280:Drivers/CMSIS/Include/cmsis_gcc.h **** /**
 281:Drivers/CMSIS/Include/cmsis_gcc.h ****   \brief   Get Fault Mask
 282:Drivers/CMSIS/Include/cmsis_gcc.h ****   \details Returns the current value of the Fault Mask register.
 283:Drivers/CMSIS/Include/cmsis_gcc.h ****   \return               Fault Mask register value
 284:Drivers/CMSIS/Include/cmsis_gcc.h ****  */
 285:Drivers/CMSIS/Include/cmsis_gcc.h **** __attribute__( ( always_inline ) ) __STATIC_INLINE uint32_t __get_FAULTMASK(void)
 286:Drivers/CMSIS/Include/cmsis_gcc.h **** {
 287:Drivers/CMSIS/Include/cmsis_gcc.h ****   uint32_t result;
 288:Drivers/CMSIS/Include/cmsis_gcc.h **** 
 289:Drivers/CMSIS/Include/cmsis_gcc.h ****   __ASM volatile ("MRS %0, faultmask" : "=r" (result) );
 290:Drivers/CMSIS/Include/cmsis_gcc.h ****   return(result);
 291:Drivers/CMSIS/Include/cmsis_gcc.h **** }
 292:Drivers/CMSIS/Include/cmsis_gcc.h **** 
 293:Drivers/CMSIS/Include/cmsis_gcc.h **** 
 294:Drivers/CMSIS/Include/cmsis_gcc.h **** /**
 295:Drivers/CMSIS/Include/cmsis_gcc.h ****   \brief   Set Fault Mask
 296:Drivers/CMSIS/Include/cmsis_gcc.h ****   \details Assigns the given value to the Fault Mask register.
 297:Drivers/CMSIS/Include/cmsis_gcc.h ****   \param [in]    faultMask  Fault Mask value to set
 298:Drivers/CMSIS/Include/cmsis_gcc.h ****  */
 299:Drivers/CMSIS/Include/cmsis_gcc.h **** __attribute__( ( always_inline ) ) __STATIC_INLINE void __set_FAULTMASK(uint32_t faultMask)
 300:Drivers/CMSIS/Include/cmsis_gcc.h **** {
 301:Drivers/CMSIS/Include/cmsis_gcc.h ****   __ASM volatile ("MSR faultmask, %0" : : "r" (faultMask) : "memory");
 302:Drivers/CMSIS/Include/cmsis_gcc.h **** }
 303:Drivers/CMSIS/Include/cmsis_gcc.h **** 
 304:Drivers/CMSIS/Include/cmsis_gcc.h **** #endif /* (__CORTEX_M >= 0x03U) */
 305:Drivers/CMSIS/Include/cmsis_gcc.h **** 
 306:Drivers/CMSIS/Include/cmsis_gcc.h **** 
 307:Drivers/CMSIS/Include/cmsis_gcc.h **** #if       (__CORTEX_M == 0x04U) || (__CORTEX_M == 0x07U)
 308:Drivers/CMSIS/Include/cmsis_gcc.h **** 
 309:Drivers/CMSIS/Include/cmsis_gcc.h **** /**
 310:Drivers/CMSIS/Include/cmsis_gcc.h ****   \brief   Get FPSCR
 311:Drivers/CMSIS/Include/cmsis_gcc.h ****   \details Returns the current value of the Floating Point Status/Control register.
 312:Drivers/CMSIS/Include/cmsis_gcc.h ****   \return               Floating Point Status/Control register value
 313:Drivers/CMSIS/Include/cmsis_gcc.h ****  */
 314:Drivers/CMSIS/Include/cmsis_gcc.h **** __attribute__( ( always_inline ) ) __STATIC_INLINE uint32_t __get_FPSCR(void)
 315:Drivers/CMSIS/Include/cmsis_gcc.h **** {
 316:Drivers/CMSIS/Include/cmsis_gcc.h **** #if (__FPU_PRESENT == 1U) && (__FPU_USED == 1U)
 317:Drivers/CMSIS/Include/cmsis_gcc.h ****   uint32_t result;
 318:Drivers/CMSIS/Include/cmsis_gcc.h **** 
ARM GAS  /var/folders/md/lgcc8l7571l9vt9sx0g0zflw0000gn/T//ccyhNZ7g.s 			page 32


 319:Drivers/CMSIS/Include/cmsis_gcc.h ****   /* Empty asm statement works as a scheduling barrier */
 320:Drivers/CMSIS/Include/cmsis_gcc.h ****   __ASM volatile ("");
 321:Drivers/CMSIS/Include/cmsis_gcc.h ****   __ASM volatile ("VMRS %0, fpscr" : "=r" (result) );
 322:Drivers/CMSIS/Include/cmsis_gcc.h ****   __ASM volatile ("");
 323:Drivers/CMSIS/Include/cmsis_gcc.h ****   return(result);
 324:Drivers/CMSIS/Include/cmsis_gcc.h **** #else
 325:Drivers/CMSIS/Include/cmsis_gcc.h ****    return(0);
 326:Drivers/CMSIS/Include/cmsis_gcc.h **** #endif
 327:Drivers/CMSIS/Include/cmsis_gcc.h **** }
 328:Drivers/CMSIS/Include/cmsis_gcc.h **** 
 329:Drivers/CMSIS/Include/cmsis_gcc.h **** 
 330:Drivers/CMSIS/Include/cmsis_gcc.h **** /**
 331:Drivers/CMSIS/Include/cmsis_gcc.h ****   \brief   Set FPSCR
 332:Drivers/CMSIS/Include/cmsis_gcc.h ****   \details Assigns the given value to the Floating Point Status/Control register.
 333:Drivers/CMSIS/Include/cmsis_gcc.h ****   \param [in]    fpscr  Floating Point Status/Control value to set
 334:Drivers/CMSIS/Include/cmsis_gcc.h ****  */
 335:Drivers/CMSIS/Include/cmsis_gcc.h **** __attribute__( ( always_inline ) ) __STATIC_INLINE void __set_FPSCR(uint32_t fpscr)
 336:Drivers/CMSIS/Include/cmsis_gcc.h **** {
 337:Drivers/CMSIS/Include/cmsis_gcc.h **** #if (__FPU_PRESENT == 1U) && (__FPU_USED == 1U)
 338:Drivers/CMSIS/Include/cmsis_gcc.h ****   /* Empty asm statement works as a scheduling barrier */
 339:Drivers/CMSIS/Include/cmsis_gcc.h ****   __ASM volatile ("");
 340:Drivers/CMSIS/Include/cmsis_gcc.h ****   __ASM volatile ("VMSR fpscr, %0" : : "r" (fpscr) : "vfpcc");
 341:Drivers/CMSIS/Include/cmsis_gcc.h ****   __ASM volatile ("");
 342:Drivers/CMSIS/Include/cmsis_gcc.h **** #endif
 343:Drivers/CMSIS/Include/cmsis_gcc.h **** }
 344:Drivers/CMSIS/Include/cmsis_gcc.h **** 
 345:Drivers/CMSIS/Include/cmsis_gcc.h **** #endif /* (__CORTEX_M == 0x04U) || (__CORTEX_M == 0x07U) */
 346:Drivers/CMSIS/Include/cmsis_gcc.h **** 
 347:Drivers/CMSIS/Include/cmsis_gcc.h **** 
 348:Drivers/CMSIS/Include/cmsis_gcc.h **** 
 349:Drivers/CMSIS/Include/cmsis_gcc.h **** /*@} end of CMSIS_Core_RegAccFunctions */
 350:Drivers/CMSIS/Include/cmsis_gcc.h **** 
 351:Drivers/CMSIS/Include/cmsis_gcc.h **** 
 352:Drivers/CMSIS/Include/cmsis_gcc.h **** /* ##########################  Core Instruction Access  ######################### */
 353:Drivers/CMSIS/Include/cmsis_gcc.h **** /** \defgroup CMSIS_Core_InstructionInterface CMSIS Core Instruction Interface
 354:Drivers/CMSIS/Include/cmsis_gcc.h ****   Access to dedicated instructions
 355:Drivers/CMSIS/Include/cmsis_gcc.h ****   @{
 356:Drivers/CMSIS/Include/cmsis_gcc.h **** */
 357:Drivers/CMSIS/Include/cmsis_gcc.h **** 
 358:Drivers/CMSIS/Include/cmsis_gcc.h **** /* Define macros for porting to both thumb1 and thumb2.
 359:Drivers/CMSIS/Include/cmsis_gcc.h ****  * For thumb1, use low register (r0-r7), specified by constraint "l"
 360:Drivers/CMSIS/Include/cmsis_gcc.h ****  * Otherwise, use general registers, specified by constraint "r" */
 361:Drivers/CMSIS/Include/cmsis_gcc.h **** #if defined (__thumb__) && !defined (__thumb2__)
 362:Drivers/CMSIS/Include/cmsis_gcc.h **** #define __CMSIS_GCC_OUT_REG(r) "=l" (r)
 363:Drivers/CMSIS/Include/cmsis_gcc.h **** #define __CMSIS_GCC_USE_REG(r) "l" (r)
 364:Drivers/CMSIS/Include/cmsis_gcc.h **** #else
 365:Drivers/CMSIS/Include/cmsis_gcc.h **** #define __CMSIS_GCC_OUT_REG(r) "=r" (r)
 366:Drivers/CMSIS/Include/cmsis_gcc.h **** #define __CMSIS_GCC_USE_REG(r) "r" (r)
 367:Drivers/CMSIS/Include/cmsis_gcc.h **** #endif
 368:Drivers/CMSIS/Include/cmsis_gcc.h **** 
 369:Drivers/CMSIS/Include/cmsis_gcc.h **** /**
 370:Drivers/CMSIS/Include/cmsis_gcc.h ****   \brief   No Operation
 371:Drivers/CMSIS/Include/cmsis_gcc.h ****   \details No Operation does nothing. This instruction can be used for code alignment purposes.
 372:Drivers/CMSIS/Include/cmsis_gcc.h ****  */
 373:Drivers/CMSIS/Include/cmsis_gcc.h **** __attribute__((always_inline)) __STATIC_INLINE void __NOP(void)
 374:Drivers/CMSIS/Include/cmsis_gcc.h **** {
 375:Drivers/CMSIS/Include/cmsis_gcc.h ****   __ASM volatile ("nop");
ARM GAS  /var/folders/md/lgcc8l7571l9vt9sx0g0zflw0000gn/T//ccyhNZ7g.s 			page 33


 376:Drivers/CMSIS/Include/cmsis_gcc.h **** }
 377:Drivers/CMSIS/Include/cmsis_gcc.h **** 
 378:Drivers/CMSIS/Include/cmsis_gcc.h **** 
 379:Drivers/CMSIS/Include/cmsis_gcc.h **** /**
 380:Drivers/CMSIS/Include/cmsis_gcc.h ****   \brief   Wait For Interrupt
 381:Drivers/CMSIS/Include/cmsis_gcc.h ****   \details Wait For Interrupt is a hint instruction that suspends execution until one of a number o
 382:Drivers/CMSIS/Include/cmsis_gcc.h ****  */
 383:Drivers/CMSIS/Include/cmsis_gcc.h **** __attribute__((always_inline)) __STATIC_INLINE void __WFI(void)
 384:Drivers/CMSIS/Include/cmsis_gcc.h **** {
 385:Drivers/CMSIS/Include/cmsis_gcc.h ****   __ASM volatile ("wfi");
 386:Drivers/CMSIS/Include/cmsis_gcc.h **** }
 387:Drivers/CMSIS/Include/cmsis_gcc.h **** 
 388:Drivers/CMSIS/Include/cmsis_gcc.h **** 
 389:Drivers/CMSIS/Include/cmsis_gcc.h **** /**
 390:Drivers/CMSIS/Include/cmsis_gcc.h ****   \brief   Wait For Event
 391:Drivers/CMSIS/Include/cmsis_gcc.h ****   \details Wait For Event is a hint instruction that permits the processor to enter
 392:Drivers/CMSIS/Include/cmsis_gcc.h ****     a low-power state until one of a number of events occurs.
 393:Drivers/CMSIS/Include/cmsis_gcc.h ****  */
 394:Drivers/CMSIS/Include/cmsis_gcc.h **** __attribute__((always_inline)) __STATIC_INLINE void __WFE(void)
 395:Drivers/CMSIS/Include/cmsis_gcc.h **** {
 396:Drivers/CMSIS/Include/cmsis_gcc.h ****   __ASM volatile ("wfe");
 397:Drivers/CMSIS/Include/cmsis_gcc.h **** }
 398:Drivers/CMSIS/Include/cmsis_gcc.h **** 
 399:Drivers/CMSIS/Include/cmsis_gcc.h **** 
 400:Drivers/CMSIS/Include/cmsis_gcc.h **** /**
 401:Drivers/CMSIS/Include/cmsis_gcc.h ****   \brief   Send Event
 402:Drivers/CMSIS/Include/cmsis_gcc.h ****   \details Send Event is a hint instruction. It causes an event to be signaled to the CPU.
 403:Drivers/CMSIS/Include/cmsis_gcc.h ****  */
 404:Drivers/CMSIS/Include/cmsis_gcc.h **** __attribute__((always_inline)) __STATIC_INLINE void __SEV(void)
 405:Drivers/CMSIS/Include/cmsis_gcc.h **** {
 406:Drivers/CMSIS/Include/cmsis_gcc.h ****   __ASM volatile ("sev");
 407:Drivers/CMSIS/Include/cmsis_gcc.h **** }
 408:Drivers/CMSIS/Include/cmsis_gcc.h **** 
 409:Drivers/CMSIS/Include/cmsis_gcc.h **** 
 410:Drivers/CMSIS/Include/cmsis_gcc.h **** /**
 411:Drivers/CMSIS/Include/cmsis_gcc.h ****   \brief   Instruction Synchronization Barrier
 412:Drivers/CMSIS/Include/cmsis_gcc.h ****   \details Instruction Synchronization Barrier flushes the pipeline in the processor,
 413:Drivers/CMSIS/Include/cmsis_gcc.h ****            so that all instructions following the ISB are fetched from cache or memory,
 414:Drivers/CMSIS/Include/cmsis_gcc.h ****            after the instruction has been completed.
 415:Drivers/CMSIS/Include/cmsis_gcc.h ****  */
 416:Drivers/CMSIS/Include/cmsis_gcc.h **** __attribute__((always_inline)) __STATIC_INLINE void __ISB(void)
 417:Drivers/CMSIS/Include/cmsis_gcc.h **** {
 418:Drivers/CMSIS/Include/cmsis_gcc.h ****   __ASM volatile ("isb 0xF":::"memory");
 419:Drivers/CMSIS/Include/cmsis_gcc.h **** }
 420:Drivers/CMSIS/Include/cmsis_gcc.h **** 
 421:Drivers/CMSIS/Include/cmsis_gcc.h **** 
 422:Drivers/CMSIS/Include/cmsis_gcc.h **** /**
 423:Drivers/CMSIS/Include/cmsis_gcc.h ****   \brief   Data Synchronization Barrier
 424:Drivers/CMSIS/Include/cmsis_gcc.h ****   \details Acts as a special kind of Data Memory Barrier.
 425:Drivers/CMSIS/Include/cmsis_gcc.h ****            It completes when all explicit memory accesses before this instruction complete.
 426:Drivers/CMSIS/Include/cmsis_gcc.h ****  */
 427:Drivers/CMSIS/Include/cmsis_gcc.h **** __attribute__((always_inline)) __STATIC_INLINE void __DSB(void)
 428:Drivers/CMSIS/Include/cmsis_gcc.h **** {
 429:Drivers/CMSIS/Include/cmsis_gcc.h ****   __ASM volatile ("dsb 0xF":::"memory");
 430:Drivers/CMSIS/Include/cmsis_gcc.h **** }
 431:Drivers/CMSIS/Include/cmsis_gcc.h **** 
 432:Drivers/CMSIS/Include/cmsis_gcc.h **** 
ARM GAS  /var/folders/md/lgcc8l7571l9vt9sx0g0zflw0000gn/T//ccyhNZ7g.s 			page 34


 433:Drivers/CMSIS/Include/cmsis_gcc.h **** /**
 434:Drivers/CMSIS/Include/cmsis_gcc.h ****   \brief   Data Memory Barrier
 435:Drivers/CMSIS/Include/cmsis_gcc.h ****   \details Ensures the apparent order of the explicit memory operations before
 436:Drivers/CMSIS/Include/cmsis_gcc.h ****            and after the instruction, without ensuring their completion.
 437:Drivers/CMSIS/Include/cmsis_gcc.h ****  */
 438:Drivers/CMSIS/Include/cmsis_gcc.h **** __attribute__((always_inline)) __STATIC_INLINE void __DMB(void)
 439:Drivers/CMSIS/Include/cmsis_gcc.h **** {
 440:Drivers/CMSIS/Include/cmsis_gcc.h ****   __ASM volatile ("dmb 0xF":::"memory");
 441:Drivers/CMSIS/Include/cmsis_gcc.h **** }
 442:Drivers/CMSIS/Include/cmsis_gcc.h **** 
 443:Drivers/CMSIS/Include/cmsis_gcc.h **** 
 444:Drivers/CMSIS/Include/cmsis_gcc.h **** /**
 445:Drivers/CMSIS/Include/cmsis_gcc.h ****   \brief   Reverse byte order (32 bit)
 446:Drivers/CMSIS/Include/cmsis_gcc.h ****   \details Reverses the byte order in integer value.
 447:Drivers/CMSIS/Include/cmsis_gcc.h ****   \param [in]    value  Value to reverse
 448:Drivers/CMSIS/Include/cmsis_gcc.h ****   \return               Reversed value
 449:Drivers/CMSIS/Include/cmsis_gcc.h ****  */
 450:Drivers/CMSIS/Include/cmsis_gcc.h **** __attribute__((always_inline)) __STATIC_INLINE uint32_t __REV(uint32_t value)
 451:Drivers/CMSIS/Include/cmsis_gcc.h **** {
 452:Drivers/CMSIS/Include/cmsis_gcc.h **** #if (__GNUC__ > 4) || (__GNUC__ == 4 && __GNUC_MINOR__ >= 5)
 453:Drivers/CMSIS/Include/cmsis_gcc.h ****   return __builtin_bswap32(value);
 454:Drivers/CMSIS/Include/cmsis_gcc.h **** #else
 455:Drivers/CMSIS/Include/cmsis_gcc.h ****   uint32_t result;
 456:Drivers/CMSIS/Include/cmsis_gcc.h **** 
 457:Drivers/CMSIS/Include/cmsis_gcc.h ****   __ASM volatile ("rev %0, %1" : __CMSIS_GCC_OUT_REG (result) : __CMSIS_GCC_USE_REG (value) );
 458:Drivers/CMSIS/Include/cmsis_gcc.h ****   return(result);
 459:Drivers/CMSIS/Include/cmsis_gcc.h **** #endif
 460:Drivers/CMSIS/Include/cmsis_gcc.h **** }
 461:Drivers/CMSIS/Include/cmsis_gcc.h **** 
 462:Drivers/CMSIS/Include/cmsis_gcc.h **** 
 463:Drivers/CMSIS/Include/cmsis_gcc.h **** /**
 464:Drivers/CMSIS/Include/cmsis_gcc.h ****   \brief   Reverse byte order (16 bit)
 465:Drivers/CMSIS/Include/cmsis_gcc.h ****   \details Reverses the byte order in two unsigned short values.
 466:Drivers/CMSIS/Include/cmsis_gcc.h ****   \param [in]    value  Value to reverse
 467:Drivers/CMSIS/Include/cmsis_gcc.h ****   \return               Reversed value
 468:Drivers/CMSIS/Include/cmsis_gcc.h ****  */
 469:Drivers/CMSIS/Include/cmsis_gcc.h **** __attribute__((always_inline)) __STATIC_INLINE uint32_t __REV16(uint32_t value)
 470:Drivers/CMSIS/Include/cmsis_gcc.h **** {
 471:Drivers/CMSIS/Include/cmsis_gcc.h ****   uint32_t result;
 472:Drivers/CMSIS/Include/cmsis_gcc.h **** 
 473:Drivers/CMSIS/Include/cmsis_gcc.h ****   __ASM volatile ("rev16 %0, %1" : __CMSIS_GCC_OUT_REG (result) : __CMSIS_GCC_USE_REG (value) );
 474:Drivers/CMSIS/Include/cmsis_gcc.h ****   return(result);
 475:Drivers/CMSIS/Include/cmsis_gcc.h **** }
 476:Drivers/CMSIS/Include/cmsis_gcc.h **** 
 477:Drivers/CMSIS/Include/cmsis_gcc.h **** 
 478:Drivers/CMSIS/Include/cmsis_gcc.h **** /**
 479:Drivers/CMSIS/Include/cmsis_gcc.h ****   \brief   Reverse byte order in signed short value
 480:Drivers/CMSIS/Include/cmsis_gcc.h ****   \details Reverses the byte order in a signed short value with sign extension to integer.
 481:Drivers/CMSIS/Include/cmsis_gcc.h ****   \param [in]    value  Value to reverse
 482:Drivers/CMSIS/Include/cmsis_gcc.h ****   \return               Reversed value
 483:Drivers/CMSIS/Include/cmsis_gcc.h ****  */
 484:Drivers/CMSIS/Include/cmsis_gcc.h **** __attribute__((always_inline)) __STATIC_INLINE int32_t __REVSH(int32_t value)
 485:Drivers/CMSIS/Include/cmsis_gcc.h **** {
 486:Drivers/CMSIS/Include/cmsis_gcc.h **** #if (__GNUC__ > 4) || (__GNUC__ == 4 && __GNUC_MINOR__ >= 8)
 487:Drivers/CMSIS/Include/cmsis_gcc.h ****   return (short)__builtin_bswap16(value);
 488:Drivers/CMSIS/Include/cmsis_gcc.h **** #else
 489:Drivers/CMSIS/Include/cmsis_gcc.h ****   int32_t result;
ARM GAS  /var/folders/md/lgcc8l7571l9vt9sx0g0zflw0000gn/T//ccyhNZ7g.s 			page 35


 490:Drivers/CMSIS/Include/cmsis_gcc.h **** 
 491:Drivers/CMSIS/Include/cmsis_gcc.h ****   __ASM volatile ("revsh %0, %1" : __CMSIS_GCC_OUT_REG (result) : __CMSIS_GCC_USE_REG (value) );
 492:Drivers/CMSIS/Include/cmsis_gcc.h ****   return(result);
 493:Drivers/CMSIS/Include/cmsis_gcc.h **** #endif
 494:Drivers/CMSIS/Include/cmsis_gcc.h **** }
 495:Drivers/CMSIS/Include/cmsis_gcc.h **** 
 496:Drivers/CMSIS/Include/cmsis_gcc.h **** 
 497:Drivers/CMSIS/Include/cmsis_gcc.h **** /**
 498:Drivers/CMSIS/Include/cmsis_gcc.h ****   \brief   Rotate Right in unsigned value (32 bit)
 499:Drivers/CMSIS/Include/cmsis_gcc.h ****   \details Rotate Right (immediate) provides the value of the contents of a register rotated by a v
 500:Drivers/CMSIS/Include/cmsis_gcc.h ****   \param [in]    value  Value to rotate
 501:Drivers/CMSIS/Include/cmsis_gcc.h ****   \param [in]    value  Number of Bits to rotate
 502:Drivers/CMSIS/Include/cmsis_gcc.h ****   \return               Rotated value
 503:Drivers/CMSIS/Include/cmsis_gcc.h ****  */
 504:Drivers/CMSIS/Include/cmsis_gcc.h **** __attribute__((always_inline)) __STATIC_INLINE uint32_t __ROR(uint32_t op1, uint32_t op2)
 505:Drivers/CMSIS/Include/cmsis_gcc.h **** {
 506:Drivers/CMSIS/Include/cmsis_gcc.h ****   return (op1 >> op2) | (op1 << (32U - op2));
 507:Drivers/CMSIS/Include/cmsis_gcc.h **** }
 508:Drivers/CMSIS/Include/cmsis_gcc.h **** 
 509:Drivers/CMSIS/Include/cmsis_gcc.h **** 
 510:Drivers/CMSIS/Include/cmsis_gcc.h **** /**
 511:Drivers/CMSIS/Include/cmsis_gcc.h ****   \brief   Breakpoint
 512:Drivers/CMSIS/Include/cmsis_gcc.h ****   \details Causes the processor to enter Debug state.
 513:Drivers/CMSIS/Include/cmsis_gcc.h ****            Debug tools can use this to investigate system state when the instruction at a particula
 514:Drivers/CMSIS/Include/cmsis_gcc.h ****   \param [in]    value  is ignored by the processor.
 515:Drivers/CMSIS/Include/cmsis_gcc.h ****                  If required, a debugger can use it to store additional information about the break
 516:Drivers/CMSIS/Include/cmsis_gcc.h ****  */
 517:Drivers/CMSIS/Include/cmsis_gcc.h **** #define __BKPT(value)                       __ASM volatile ("bkpt "#value)
 518:Drivers/CMSIS/Include/cmsis_gcc.h **** 
 519:Drivers/CMSIS/Include/cmsis_gcc.h **** 
 520:Drivers/CMSIS/Include/cmsis_gcc.h **** /**
 521:Drivers/CMSIS/Include/cmsis_gcc.h ****   \brief   Reverse bit order of value
 522:Drivers/CMSIS/Include/cmsis_gcc.h ****   \details Reverses the bit order of the given value.
 523:Drivers/CMSIS/Include/cmsis_gcc.h ****   \param [in]    value  Value to reverse
 524:Drivers/CMSIS/Include/cmsis_gcc.h ****   \return               Reversed value
 525:Drivers/CMSIS/Include/cmsis_gcc.h ****  */
 526:Drivers/CMSIS/Include/cmsis_gcc.h **** __attribute__((always_inline)) __STATIC_INLINE uint32_t __RBIT(uint32_t value)
 434              		.loc 2 526 57 is_stmt 1 view .LVU99
 435              	.LBB9:
 527:Drivers/CMSIS/Include/cmsis_gcc.h **** {
 528:Drivers/CMSIS/Include/cmsis_gcc.h ****   uint32_t result;
 436              		.loc 2 528 3 view .LVU100
 529:Drivers/CMSIS/Include/cmsis_gcc.h **** 
 530:Drivers/CMSIS/Include/cmsis_gcc.h **** #if       (__CORTEX_M >= 0x03U) || (__CORTEX_SC >= 300U)
 531:Drivers/CMSIS/Include/cmsis_gcc.h ****    __ASM volatile ("rbit %0, %1" : "=r" (result) : "r" (value) );
 437              		.loc 2 531 4 view .LVU101
 438 0008 4FF48073 		mov	r3, #256
 439              		.syntax unified
 440              	@ 531 "Drivers/CMSIS/Include/cmsis_gcc.h" 1
 441 000c 93FAA3F3 		rbit r3, r3
 442              	@ 0 "" 2
 443              	.LVL32:
 532:Drivers/CMSIS/Include/cmsis_gcc.h **** #else
 533:Drivers/CMSIS/Include/cmsis_gcc.h ****   int32_t s = 4 /*sizeof(v)*/ * 8 - 1; /* extra shift needed at end */
 534:Drivers/CMSIS/Include/cmsis_gcc.h **** 
 535:Drivers/CMSIS/Include/cmsis_gcc.h ****   result = value;                      /* r will be reversed bits of v; first get LSB of v */
 536:Drivers/CMSIS/Include/cmsis_gcc.h ****   for (value >>= 1U; value; value >>= 1U)
ARM GAS  /var/folders/md/lgcc8l7571l9vt9sx0g0zflw0000gn/T//ccyhNZ7g.s 			page 36


 537:Drivers/CMSIS/Include/cmsis_gcc.h ****   {
 538:Drivers/CMSIS/Include/cmsis_gcc.h ****     result <<= 1U;
 539:Drivers/CMSIS/Include/cmsis_gcc.h ****     result |= value & 1U;
 540:Drivers/CMSIS/Include/cmsis_gcc.h ****     s--;
 541:Drivers/CMSIS/Include/cmsis_gcc.h ****   }
 542:Drivers/CMSIS/Include/cmsis_gcc.h ****   result <<= s;                        /* shift when v's highest bits are zero */
 543:Drivers/CMSIS/Include/cmsis_gcc.h **** #endif
 544:Drivers/CMSIS/Include/cmsis_gcc.h ****   return(result);
 444              		.loc 2 544 3 view .LVU102
 445              		.loc 2 544 3 is_stmt 0 view .LVU103
 446              		.thumb
 447              		.syntax unified
 448              	.LBE9:
 449              	.LBE8:
 450              		.loc 1 955 63 view .LVU104
 451 0010 B3FA83F3 		clz	r3, r3
 452              		.loc 1 955 60 view .LVU105
 453 0014 D840     		lsrs	r0, r0, r3
 956:Drivers/STM32F3xx_HAL_Driver/Src/stm32f3xx_hal_flash_ex.c **** }
 454              		.loc 1 956 1 view .LVU106
 455 0016 C0B2     		uxtb	r0, r0
 456 0018 7047     		bx	lr
 457              	.L34:
 458 001a 00BF     		.align	2
 459              	.L33:
 460 001c 00200240 		.word	1073881088
 461              		.cfi_endproc
 462              	.LFE140:
 464              		.section	.text.HAL_FLASHEx_OBErase,"ax",%progbits
 465              		.align	1
 466              		.global	HAL_FLASHEx_OBErase
 467              		.syntax unified
 468              		.thumb
 469              		.thumb_func
 470              		.fpu fpv4-sp-d16
 472              	HAL_FLASHEx_OBErase:
 473              	.LFB128:
 330:Drivers/STM32F3xx_HAL_Driver/Src/stm32f3xx_hal_flash_ex.c ****   uint8_t rdptmp = OB_RDP_LEVEL_0;
 474              		.loc 1 330 1 is_stmt 1 view -0
 475              		.cfi_startproc
 476              		@ args = 0, pretend = 0, frame = 0
 477              		@ frame_needed = 0, uses_anonymous_args = 0
 478 0000 38B5     		push	{r3, r4, r5, lr}
 479              	.LCFI3:
 480              		.cfi_def_cfa_offset 16
 481              		.cfi_offset 3, -16
 482              		.cfi_offset 4, -12
 483              		.cfi_offset 5, -8
 484              		.cfi_offset 14, -4
 331:Drivers/STM32F3xx_HAL_Driver/Src/stm32f3xx_hal_flash_ex.c ****   HAL_StatusTypeDef status = HAL_ERROR;
 485              		.loc 1 331 3 view .LVU108
 486              	.LVL33:
 332:Drivers/STM32F3xx_HAL_Driver/Src/stm32f3xx_hal_flash_ex.c **** 
 487              		.loc 1 332 3 view .LVU109
 335:Drivers/STM32F3xx_HAL_Driver/Src/stm32f3xx_hal_flash_ex.c **** 
 488              		.loc 1 335 3 view .LVU110
 335:Drivers/STM32F3xx_HAL_Driver/Src/stm32f3xx_hal_flash_ex.c **** 
ARM GAS  /var/folders/md/lgcc8l7571l9vt9sx0g0zflw0000gn/T//ccyhNZ7g.s 			page 37


 489              		.loc 1 335 12 is_stmt 0 view .LVU111
 490 0002 FFF7FEFF 		bl	FLASH_OB_GetRDP
 491              	.LVL34:
 335:Drivers/STM32F3xx_HAL_Driver/Src/stm32f3xx_hal_flash_ex.c **** 
 492              		.loc 1 335 10 view .LVU112
 493 0006 C5B2     		uxtb	r5, r0
 494              	.LVL35:
 338:Drivers/STM32F3xx_HAL_Driver/Src/stm32f3xx_hal_flash_ex.c **** 
 495              		.loc 1 338 3 is_stmt 1 view .LVU113
 338:Drivers/STM32F3xx_HAL_Driver/Src/stm32f3xx_hal_flash_ex.c **** 
 496              		.loc 1 338 12 is_stmt 0 view .LVU114
 497 0008 4CF25030 		movw	r0, #50000
 498 000c FFF7FEFF 		bl	FLASH_WaitForLastOperation
 499              	.LVL36:
 340:Drivers/STM32F3xx_HAL_Driver/Src/stm32f3xx_hal_flash_ex.c ****   {
 500              		.loc 1 340 3 is_stmt 1 view .LVU115
 340:Drivers/STM32F3xx_HAL_Driver/Src/stm32f3xx_hal_flash_ex.c ****   {
 501              		.loc 1 340 5 is_stmt 0 view .LVU116
 502 0010 0346     		mov	r3, r0
 503 0012 08B1     		cbz	r0, .L38
 504              	.LVL37:
 505              	.L36:
 363:Drivers/STM32F3xx_HAL_Driver/Src/stm32f3xx_hal_flash_ex.c **** }
 506              		.loc 1 363 3 is_stmt 1 view .LVU117
 364:Drivers/STM32F3xx_HAL_Driver/Src/stm32f3xx_hal_flash_ex.c **** 
 507              		.loc 1 364 1 is_stmt 0 view .LVU118
 508 0014 1846     		mov	r0, r3
 509 0016 38BD     		pop	{r3, r4, r5, pc}
 510              	.LVL38:
 511              	.L38:
 343:Drivers/STM32F3xx_HAL_Driver/Src/stm32f3xx_hal_flash_ex.c **** 
 512              		.loc 1 343 5 is_stmt 1 view .LVU119
 343:Drivers/STM32F3xx_HAL_Driver/Src/stm32f3xx_hal_flash_ex.c **** 
 513              		.loc 1 343 22 is_stmt 0 view .LVU120
 514 0018 0D4B     		ldr	r3, .L39
 515 001a 0022     		movs	r2, #0
 516 001c DA61     		str	r2, [r3, #28]
 346:Drivers/STM32F3xx_HAL_Driver/Src/stm32f3xx_hal_flash_ex.c ****     SET_BIT(FLASH->CR, FLASH_CR_STRT);
 517              		.loc 1 346 5 is_stmt 1 view .LVU121
 518 001e 0D4C     		ldr	r4, .L39+4
 519 0020 2369     		ldr	r3, [r4, #16]
 520 0022 43F02003 		orr	r3, r3, #32
 521 0026 2361     		str	r3, [r4, #16]
 347:Drivers/STM32F3xx_HAL_Driver/Src/stm32f3xx_hal_flash_ex.c **** 
 522              		.loc 1 347 5 view .LVU122
 523 0028 2369     		ldr	r3, [r4, #16]
 524 002a 43F04003 		orr	r3, r3, #64
 525 002e 2361     		str	r3, [r4, #16]
 350:Drivers/STM32F3xx_HAL_Driver/Src/stm32f3xx_hal_flash_ex.c **** 
 526              		.loc 1 350 5 view .LVU123
 350:Drivers/STM32F3xx_HAL_Driver/Src/stm32f3xx_hal_flash_ex.c **** 
 527              		.loc 1 350 14 is_stmt 0 view .LVU124
 528 0030 4CF25030 		movw	r0, #50000
 529              	.LVL39:
 350:Drivers/STM32F3xx_HAL_Driver/Src/stm32f3xx_hal_flash_ex.c **** 
 530              		.loc 1 350 14 view .LVU125
 531 0034 FFF7FEFF 		bl	FLASH_WaitForLastOperation
ARM GAS  /var/folders/md/lgcc8l7571l9vt9sx0g0zflw0000gn/T//ccyhNZ7g.s 			page 38


 532              	.LVL40:
 353:Drivers/STM32F3xx_HAL_Driver/Src/stm32f3xx_hal_flash_ex.c **** 
 533              		.loc 1 353 5 is_stmt 1 view .LVU126
 534 0038 2369     		ldr	r3, [r4, #16]
 535 003a 23F02003 		bic	r3, r3, #32
 536 003e 2361     		str	r3, [r4, #16]
 355:Drivers/STM32F3xx_HAL_Driver/Src/stm32f3xx_hal_flash_ex.c ****     {
 537              		.loc 1 355 5 view .LVU127
 355:Drivers/STM32F3xx_HAL_Driver/Src/stm32f3xx_hal_flash_ex.c ****     {
 538              		.loc 1 355 7 is_stmt 0 view .LVU128
 539 0040 0346     		mov	r3, r0
 540 0042 0028     		cmp	r0, #0
 541 0044 E6D1     		bne	.L36
 358:Drivers/STM32F3xx_HAL_Driver/Src/stm32f3xx_hal_flash_ex.c ****     }
 542              		.loc 1 358 7 is_stmt 1 view .LVU129
 358:Drivers/STM32F3xx_HAL_Driver/Src/stm32f3xx_hal_flash_ex.c ****     }
 543              		.loc 1 358 16 is_stmt 0 view .LVU130
 544 0046 2846     		mov	r0, r5
 545              	.LVL41:
 358:Drivers/STM32F3xx_HAL_Driver/Src/stm32f3xx_hal_flash_ex.c ****     }
 546              		.loc 1 358 16 view .LVU131
 547 0048 FFF7FEFF 		bl	FLASH_OB_RDP_LevelConfig
 548              	.LVL42:
 549 004c 0346     		mov	r3, r0
 550              	.LVL43:
 358:Drivers/STM32F3xx_HAL_Driver/Src/stm32f3xx_hal_flash_ex.c ****     }
 551              		.loc 1 358 16 view .LVU132
 552 004e E1E7     		b	.L36
 553              	.L40:
 554              		.align	2
 555              	.L39:
 556 0050 00000000 		.word	pFlash
 557 0054 00200240 		.word	1073881088
 558              		.cfi_endproc
 559              	.LFE128:
 561              		.section	.text.FLASH_OB_EnableWRP,"ax",%progbits
 562              		.align	1
 563              		.syntax unified
 564              		.thumb
 565              		.thumb_func
 566              		.fpu fpv4-sp-d16
 568              	FLASH_OB_EnableWRP:
 569              	.LVL44:
 570              	.LFB133:
 538:Drivers/STM32F3xx_HAL_Driver/Src/stm32f3xx_hal_flash_ex.c ****   HAL_StatusTypeDef status = HAL_OK;
 571              		.loc 1 538 1 is_stmt 1 view -0
 572              		.cfi_startproc
 573              		@ args = 0, pretend = 0, frame = 0
 574              		@ frame_needed = 0, uses_anonymous_args = 0
 538:Drivers/STM32F3xx_HAL_Driver/Src/stm32f3xx_hal_flash_ex.c ****   HAL_StatusTypeDef status = HAL_OK;
 575              		.loc 1 538 1 is_stmt 0 view .LVU134
 576 0000 F8B5     		push	{r3, r4, r5, r6, r7, lr}
 577              	.LCFI4:
 578              		.cfi_def_cfa_offset 24
 579              		.cfi_offset 3, -24
 580              		.cfi_offset 4, -20
 581              		.cfi_offset 5, -16
ARM GAS  /var/folders/md/lgcc8l7571l9vt9sx0g0zflw0000gn/T//ccyhNZ7g.s 			page 39


 582              		.cfi_offset 6, -12
 583              		.cfi_offset 7, -8
 584              		.cfi_offset 14, -4
 585 0002 0446     		mov	r4, r0
 539:Drivers/STM32F3xx_HAL_Driver/Src/stm32f3xx_hal_flash_ex.c ****   uint16_t WRP0_Data = 0xFFFFU;
 586              		.loc 1 539 3 is_stmt 1 view .LVU135
 587              	.LVL45:
 540:Drivers/STM32F3xx_HAL_Driver/Src/stm32f3xx_hal_flash_ex.c **** #if defined(OB_WRP1_WRP1)
 588              		.loc 1 540 3 view .LVU136
 542:Drivers/STM32F3xx_HAL_Driver/Src/stm32f3xx_hal_flash_ex.c **** #endif /* OB_WRP1_WRP1 */
 589              		.loc 1 542 3 view .LVU137
 545:Drivers/STM32F3xx_HAL_Driver/Src/stm32f3xx_hal_flash_ex.c **** #endif /* OB_WRP2_WRP2 */
 590              		.loc 1 545 3 view .LVU138
 548:Drivers/STM32F3xx_HAL_Driver/Src/stm32f3xx_hal_flash_ex.c **** #endif /* OB_WRP3_WRP3 */
 591              		.loc 1 548 3 view .LVU139
 552:Drivers/STM32F3xx_HAL_Driver/Src/stm32f3xx_hal_flash_ex.c ****     
 592              		.loc 1 552 3 view .LVU140
 555:Drivers/STM32F3xx_HAL_Driver/Src/stm32f3xx_hal_flash_ex.c ****   
 593              		.loc 1 555 3 view .LVU141
 555:Drivers/STM32F3xx_HAL_Driver/Src/stm32f3xx_hal_flash_ex.c ****   
 594              		.loc 1 555 37 is_stmt 0 view .LVU142
 595 0004 FFF7FEFF 		bl	FLASH_OB_GetWRP
 596              	.LVL46:
 555:Drivers/STM32F3xx_HAL_Driver/Src/stm32f3xx_hal_flash_ex.c ****   
 597              		.loc 1 555 20 view .LVU143
 598 0008 20EA0404 		bic	r4, r0, r4
 599              	.LVL47:
 558:Drivers/STM32F3xx_HAL_Driver/Src/stm32f3xx_hal_flash_ex.c **** #endif /* OB_WRP_PAGES0TO31MASK */
 600              		.loc 1 558 3 is_stmt 1 view .LVU144
 562:Drivers/STM32F3xx_HAL_Driver/Src/stm32f3xx_hal_flash_ex.c **** #endif /* OB_WRP_PAGES32TO63MASK */
 601              		.loc 1 562 3 view .LVU145
 562:Drivers/STM32F3xx_HAL_Driver/Src/stm32f3xx_hal_flash_ex.c **** #endif /* OB_WRP_PAGES32TO63MASK */
 602              		.loc 1 562 13 is_stmt 0 view .LVU146
 603 000c C4F30727 		ubfx	r7, r4, #8, #8
 604              	.LVL48:
 566:Drivers/STM32F3xx_HAL_Driver/Src/stm32f3xx_hal_flash_ex.c **** #endif /* OB_WRP_PAGES32TO47MASK */
 605              		.loc 1 566 3 is_stmt 1 view .LVU147
 566:Drivers/STM32F3xx_HAL_Driver/Src/stm32f3xx_hal_flash_ex.c **** #endif /* OB_WRP_PAGES32TO47MASK */
 606              		.loc 1 566 13 is_stmt 0 view .LVU148
 607 0010 C4F30746 		ubfx	r6, r4, #16, #8
 608              	.LVL49:
 570:Drivers/STM32F3xx_HAL_Driver/Src/stm32f3xx_hal_flash_ex.c **** #elif defined(OB_WRP_PAGES48TO255MASK)
 609              		.loc 1 570 3 is_stmt 1 view .LVU149
 576:Drivers/STM32F3xx_HAL_Driver/Src/stm32f3xx_hal_flash_ex.c **** 
 610              		.loc 1 576 3 view .LVU150
 576:Drivers/STM32F3xx_HAL_Driver/Src/stm32f3xx_hal_flash_ex.c **** 
 611              		.loc 1 576 12 is_stmt 0 view .LVU151
 612 0014 4CF25030 		movw	r0, #50000
 613 0018 FFF7FEFF 		bl	FLASH_WaitForLastOperation
 614              	.LVL50:
 578:Drivers/STM32F3xx_HAL_Driver/Src/stm32f3xx_hal_flash_ex.c ****   { 
 615              		.loc 1 578 3 is_stmt 1 view .LVU152
 578:Drivers/STM32F3xx_HAL_Driver/Src/stm32f3xx_hal_flash_ex.c ****   { 
 616              		.loc 1 578 5 is_stmt 0 view .LVU153
 617 001c 0346     		mov	r3, r0
 618 001e 08B1     		cbz	r0, .L48
 619              	.LVL51:
ARM GAS  /var/folders/md/lgcc8l7571l9vt9sx0g0zflw0000gn/T//ccyhNZ7g.s 			page 40


 620              	.L42:
 635:Drivers/STM32F3xx_HAL_Driver/Src/stm32f3xx_hal_flash_ex.c **** }
 621              		.loc 1 635 3 is_stmt 1 view .LVU154
 636:Drivers/STM32F3xx_HAL_Driver/Src/stm32f3xx_hal_flash_ex.c **** 
 622              		.loc 1 636 1 is_stmt 0 view .LVU155
 623 0020 1846     		mov	r0, r3
 624 0022 F8BD     		pop	{r3, r4, r5, r6, r7, pc}
 625              	.LVL52:
 626              	.L48:
 636:Drivers/STM32F3xx_HAL_Driver/Src/stm32f3xx_hal_flash_ex.c **** 
 627              		.loc 1 636 1 view .LVU156
 628 0024 E5B2     		uxtb	r5, r4
 629 0026 240E     		lsrs	r4, r4, #24
 630              	.LVL53:
 581:Drivers/STM32F3xx_HAL_Driver/Src/stm32f3xx_hal_flash_ex.c **** 
 631              		.loc 1 581 5 is_stmt 1 view .LVU157
 581:Drivers/STM32F3xx_HAL_Driver/Src/stm32f3xx_hal_flash_ex.c **** 
 632              		.loc 1 581 22 is_stmt 0 view .LVU158
 633 0028 224B     		ldr	r3, .L53
 634 002a 0022     		movs	r2, #0
 635 002c DA61     		str	r2, [r3, #28]
 584:Drivers/STM32F3xx_HAL_Driver/Src/stm32f3xx_hal_flash_ex.c ****     if (status == HAL_OK)  
 636              		.loc 1 584 5 is_stmt 1 view .LVU159
 584:Drivers/STM32F3xx_HAL_Driver/Src/stm32f3xx_hal_flash_ex.c ****     if (status == HAL_OK)  
 637              		.loc 1 584 14 is_stmt 0 view .LVU160
 638 002e FFF7FEFF 		bl	HAL_FLASHEx_OBErase
 639              	.LVL54:
 585:Drivers/STM32F3xx_HAL_Driver/Src/stm32f3xx_hal_flash_ex.c ****     {
 640              		.loc 1 585 5 is_stmt 1 view .LVU161
 585:Drivers/STM32F3xx_HAL_Driver/Src/stm32f3xx_hal_flash_ex.c ****     {
 641              		.loc 1 585 8 is_stmt 0 view .LVU162
 642 0032 0346     		mov	r3, r0
 643 0034 0028     		cmp	r0, #0
 644 0036 F3D1     		bne	.L42
 588:Drivers/STM32F3xx_HAL_Driver/Src/stm32f3xx_hal_flash_ex.c **** 
 645              		.loc 1 588 7 is_stmt 1 view .LVU163
 646 0038 1F49     		ldr	r1, .L53+4
 647 003a 0A69     		ldr	r2, [r1, #16]
 648 003c 42F01002 		orr	r2, r2, #16
 649 0040 0A61     		str	r2, [r1, #16]
 591:Drivers/STM32F3xx_HAL_Driver/Src/stm32f3xx_hal_flash_ex.c ****       {
 650              		.loc 1 591 7 view .LVU164
 591:Drivers/STM32F3xx_HAL_Driver/Src/stm32f3xx_hal_flash_ex.c ****       {
 651              		.loc 1 591 9 is_stmt 0 view .LVU165
 652 0042 FF2D     		cmp	r5, #255
 653 0044 0ED1     		bne	.L49
 654              	.LVL55:
 655              	.L43:
 601:Drivers/STM32F3xx_HAL_Driver/Src/stm32f3xx_hal_flash_ex.c ****       {
 656              		.loc 1 601 7 is_stmt 1 view .LVU166
 601:Drivers/STM32F3xx_HAL_Driver/Src/stm32f3xx_hal_flash_ex.c ****       {
 657              		.loc 1 601 9 is_stmt 0 view .LVU167
 658 0046 0BB9     		cbnz	r3, .L44
 601:Drivers/STM32F3xx_HAL_Driver/Src/stm32f3xx_hal_flash_ex.c ****       {
 659              		.loc 1 601 29 discriminator 1 view .LVU168
 660 0048 FF2F     		cmp	r7, #255
 661 004a 15D1     		bne	.L50
ARM GAS  /var/folders/md/lgcc8l7571l9vt9sx0g0zflw0000gn/T//ccyhNZ7g.s 			page 41


 662              	.LVL56:
 663              	.L44:
 611:Drivers/STM32F3xx_HAL_Driver/Src/stm32f3xx_hal_flash_ex.c ****       {
 664              		.loc 1 611 7 is_stmt 1 view .LVU169
 611:Drivers/STM32F3xx_HAL_Driver/Src/stm32f3xx_hal_flash_ex.c ****       {
 665              		.loc 1 611 9 is_stmt 0 view .LVU170
 666 004c 0BB9     		cbnz	r3, .L45
 611:Drivers/STM32F3xx_HAL_Driver/Src/stm32f3xx_hal_flash_ex.c ****       {
 667              		.loc 1 611 29 discriminator 1 view .LVU171
 668 004e FF2E     		cmp	r6, #255
 669 0050 1CD1     		bne	.L51
 670              	.LVL57:
 671              	.L45:
 621:Drivers/STM32F3xx_HAL_Driver/Src/stm32f3xx_hal_flash_ex.c ****       {
 672              		.loc 1 621 7 is_stmt 1 view .LVU172
 621:Drivers/STM32F3xx_HAL_Driver/Src/stm32f3xx_hal_flash_ex.c ****       {
 673              		.loc 1 621 9 is_stmt 0 view .LVU173
 674 0052 0BB9     		cbnz	r3, .L46
 621:Drivers/STM32F3xx_HAL_Driver/Src/stm32f3xx_hal_flash_ex.c ****       {
 675              		.loc 1 621 29 discriminator 1 view .LVU174
 676 0054 FF2C     		cmp	r4, #255
 677 0056 23D1     		bne	.L52
 678              	.L46:
 631:Drivers/STM32F3xx_HAL_Driver/Src/stm32f3xx_hal_flash_ex.c ****     }
 679              		.loc 1 631 7 is_stmt 1 view .LVU175
 680 0058 1749     		ldr	r1, .L53+4
 681 005a 0A69     		ldr	r2, [r1, #16]
 682 005c 22F01002 		bic	r2, r2, #16
 683 0060 0A61     		str	r2, [r1, #16]
 684 0062 DDE7     		b	.L42
 685              	.LVL58:
 686              	.L49:
 593:Drivers/STM32F3xx_HAL_Driver/Src/stm32f3xx_hal_flash_ex.c ****         
 687              		.loc 1 593 9 view .LVU176
 593:Drivers/STM32F3xx_HAL_Driver/Src/stm32f3xx_hal_flash_ex.c ****         
 688              		.loc 1 593 18 is_stmt 0 view .LVU177
 689 0064 154B     		ldr	r3, .L53+8
 690 0066 1A89     		ldrh	r2, [r3, #8]
 691 0068 1540     		ands	r5, r5, r2
 692              	.LVL59:
 593:Drivers/STM32F3xx_HAL_Driver/Src/stm32f3xx_hal_flash_ex.c ****         
 693              		.loc 1 593 18 view .LVU178
 694 006a 1D81     		strh	r5, [r3, #8]	@ movhi
 596:Drivers/STM32F3xx_HAL_Driver/Src/stm32f3xx_hal_flash_ex.c ****       }
 695              		.loc 1 596 9 is_stmt 1 view .LVU179
 596:Drivers/STM32F3xx_HAL_Driver/Src/stm32f3xx_hal_flash_ex.c ****       }
 696              		.loc 1 596 18 is_stmt 0 view .LVU180
 697 006c 4CF25030 		movw	r0, #50000
 698              	.LVL60:
 596:Drivers/STM32F3xx_HAL_Driver/Src/stm32f3xx_hal_flash_ex.c ****       }
 699              		.loc 1 596 18 view .LVU181
 700 0070 FFF7FEFF 		bl	FLASH_WaitForLastOperation
 701              	.LVL61:
 702 0074 0346     		mov	r3, r0
 703              	.LVL62:
 596:Drivers/STM32F3xx_HAL_Driver/Src/stm32f3xx_hal_flash_ex.c ****       }
 704              		.loc 1 596 18 view .LVU182
ARM GAS  /var/folders/md/lgcc8l7571l9vt9sx0g0zflw0000gn/T//ccyhNZ7g.s 			page 42


 705 0076 E6E7     		b	.L43
 706              	.L50:
 603:Drivers/STM32F3xx_HAL_Driver/Src/stm32f3xx_hal_flash_ex.c ****         
 707              		.loc 1 603 9 is_stmt 1 view .LVU183
 603:Drivers/STM32F3xx_HAL_Driver/Src/stm32f3xx_hal_flash_ex.c ****         
 708              		.loc 1 603 18 is_stmt 0 view .LVU184
 709 0078 104B     		ldr	r3, .L53+8
 710              	.LVL63:
 603:Drivers/STM32F3xx_HAL_Driver/Src/stm32f3xx_hal_flash_ex.c ****         
 711              		.loc 1 603 18 view .LVU185
 712 007a 5A89     		ldrh	r2, [r3, #10]
 713 007c 1740     		ands	r7, r7, r2
 714              	.LVL64:
 603:Drivers/STM32F3xx_HAL_Driver/Src/stm32f3xx_hal_flash_ex.c ****         
 715              		.loc 1 603 18 view .LVU186
 716 007e 5F81     		strh	r7, [r3, #10]	@ movhi
 606:Drivers/STM32F3xx_HAL_Driver/Src/stm32f3xx_hal_flash_ex.c ****       }
 717              		.loc 1 606 9 is_stmt 1 view .LVU187
 606:Drivers/STM32F3xx_HAL_Driver/Src/stm32f3xx_hal_flash_ex.c ****       }
 718              		.loc 1 606 18 is_stmt 0 view .LVU188
 719 0080 4CF25030 		movw	r0, #50000
 720 0084 FFF7FEFF 		bl	FLASH_WaitForLastOperation
 721              	.LVL65:
 722 0088 0346     		mov	r3, r0
 723              	.LVL66:
 606:Drivers/STM32F3xx_HAL_Driver/Src/stm32f3xx_hal_flash_ex.c ****       }
 724              		.loc 1 606 18 view .LVU189
 725 008a DFE7     		b	.L44
 726              	.L51:
 613:Drivers/STM32F3xx_HAL_Driver/Src/stm32f3xx_hal_flash_ex.c ****         
 727              		.loc 1 613 9 is_stmt 1 view .LVU190
 613:Drivers/STM32F3xx_HAL_Driver/Src/stm32f3xx_hal_flash_ex.c ****         
 728              		.loc 1 613 18 is_stmt 0 view .LVU191
 729 008c 0B4B     		ldr	r3, .L53+8
 730              	.LVL67:
 613:Drivers/STM32F3xx_HAL_Driver/Src/stm32f3xx_hal_flash_ex.c ****         
 731              		.loc 1 613 18 view .LVU192
 732 008e 9A89     		ldrh	r2, [r3, #12]
 733 0090 1640     		ands	r6, r6, r2
 734              	.LVL68:
 613:Drivers/STM32F3xx_HAL_Driver/Src/stm32f3xx_hal_flash_ex.c ****         
 735              		.loc 1 613 18 view .LVU193
 736 0092 9E81     		strh	r6, [r3, #12]	@ movhi
 616:Drivers/STM32F3xx_HAL_Driver/Src/stm32f3xx_hal_flash_ex.c ****       }
 737              		.loc 1 616 9 is_stmt 1 view .LVU194
 616:Drivers/STM32F3xx_HAL_Driver/Src/stm32f3xx_hal_flash_ex.c ****       }
 738              		.loc 1 616 18 is_stmt 0 view .LVU195
 739 0094 4CF25030 		movw	r0, #50000
 740 0098 FFF7FEFF 		bl	FLASH_WaitForLastOperation
 741              	.LVL69:
 742 009c 0346     		mov	r3, r0
 743              	.LVL70:
 616:Drivers/STM32F3xx_HAL_Driver/Src/stm32f3xx_hal_flash_ex.c ****       }
 744              		.loc 1 616 18 view .LVU196
 745 009e D8E7     		b	.L45
 746              	.L52:
 623:Drivers/STM32F3xx_HAL_Driver/Src/stm32f3xx_hal_flash_ex.c ****         
ARM GAS  /var/folders/md/lgcc8l7571l9vt9sx0g0zflw0000gn/T//ccyhNZ7g.s 			page 43


 747              		.loc 1 623 9 is_stmt 1 view .LVU197
 623:Drivers/STM32F3xx_HAL_Driver/Src/stm32f3xx_hal_flash_ex.c ****         
 748              		.loc 1 623 18 is_stmt 0 view .LVU198
 749 00a0 064B     		ldr	r3, .L53+8
 750              	.LVL71:
 623:Drivers/STM32F3xx_HAL_Driver/Src/stm32f3xx_hal_flash_ex.c ****         
 751              		.loc 1 623 18 view .LVU199
 752 00a2 D889     		ldrh	r0, [r3, #14]
 753 00a4 2040     		ands	r0, r0, r4
 754 00a6 D881     		strh	r0, [r3, #14]	@ movhi
 626:Drivers/STM32F3xx_HAL_Driver/Src/stm32f3xx_hal_flash_ex.c ****       }
 755              		.loc 1 626 9 is_stmt 1 view .LVU200
 626:Drivers/STM32F3xx_HAL_Driver/Src/stm32f3xx_hal_flash_ex.c ****       }
 756              		.loc 1 626 18 is_stmt 0 view .LVU201
 757 00a8 4CF25030 		movw	r0, #50000
 758 00ac FFF7FEFF 		bl	FLASH_WaitForLastOperation
 759              	.LVL72:
 760 00b0 0346     		mov	r3, r0
 761              	.LVL73:
 626:Drivers/STM32F3xx_HAL_Driver/Src/stm32f3xx_hal_flash_ex.c ****       }
 762              		.loc 1 626 18 view .LVU202
 763 00b2 D1E7     		b	.L46
 764              	.L54:
 765              		.align	2
 766              	.L53:
 767 00b4 00000000 		.word	pFlash
 768 00b8 00200240 		.word	1073881088
 769 00bc 00F8FF1F 		.word	536868864
 770              		.cfi_endproc
 771              	.LFE133:
 773              		.section	.text.FLASH_OB_DisableWRP,"ax",%progbits
 774              		.align	1
 775              		.syntax unified
 776              		.thumb
 777              		.thumb_func
 778              		.fpu fpv4-sp-d16
 780              	FLASH_OB_DisableWRP:
 781              	.LVL74:
 782              	.LFB134:
 650:Drivers/STM32F3xx_HAL_Driver/Src/stm32f3xx_hal_flash_ex.c ****   HAL_StatusTypeDef status = HAL_OK;
 783              		.loc 1 650 1 is_stmt 1 view -0
 784              		.cfi_startproc
 785              		@ args = 0, pretend = 0, frame = 0
 786              		@ frame_needed = 0, uses_anonymous_args = 0
 650:Drivers/STM32F3xx_HAL_Driver/Src/stm32f3xx_hal_flash_ex.c ****   HAL_StatusTypeDef status = HAL_OK;
 787              		.loc 1 650 1 is_stmt 0 view .LVU204
 788 0000 F8B5     		push	{r3, r4, r5, r6, r7, lr}
 789              	.LCFI5:
 790              		.cfi_def_cfa_offset 24
 791              		.cfi_offset 3, -24
 792              		.cfi_offset 4, -20
 793              		.cfi_offset 5, -16
 794              		.cfi_offset 6, -12
 795              		.cfi_offset 7, -8
 796              		.cfi_offset 14, -4
 797 0002 0446     		mov	r4, r0
 651:Drivers/STM32F3xx_HAL_Driver/Src/stm32f3xx_hal_flash_ex.c ****   uint16_t WRP0_Data = 0xFFFFU;
ARM GAS  /var/folders/md/lgcc8l7571l9vt9sx0g0zflw0000gn/T//ccyhNZ7g.s 			page 44


 798              		.loc 1 651 3 is_stmt 1 view .LVU205
 799              	.LVL75:
 652:Drivers/STM32F3xx_HAL_Driver/Src/stm32f3xx_hal_flash_ex.c **** #if defined(OB_WRP1_WRP1)
 800              		.loc 1 652 3 view .LVU206
 654:Drivers/STM32F3xx_HAL_Driver/Src/stm32f3xx_hal_flash_ex.c **** #endif /* OB_WRP1_WRP1 */
 801              		.loc 1 654 3 view .LVU207
 657:Drivers/STM32F3xx_HAL_Driver/Src/stm32f3xx_hal_flash_ex.c **** #endif /* OB_WRP2_WRP2 */
 802              		.loc 1 657 3 view .LVU208
 660:Drivers/STM32F3xx_HAL_Driver/Src/stm32f3xx_hal_flash_ex.c **** #endif /* OB_WRP3_WRP3 */
 803              		.loc 1 660 3 view .LVU209
 664:Drivers/STM32F3xx_HAL_Driver/Src/stm32f3xx_hal_flash_ex.c **** 
 804              		.loc 1 664 3 view .LVU210
 667:Drivers/STM32F3xx_HAL_Driver/Src/stm32f3xx_hal_flash_ex.c **** 
 805              		.loc 1 667 3 view .LVU211
 667:Drivers/STM32F3xx_HAL_Driver/Src/stm32f3xx_hal_flash_ex.c **** 
 806              		.loc 1 667 23 is_stmt 0 view .LVU212
 807 0004 FFF7FEFF 		bl	FLASH_OB_GetWRP
 808              	.LVL76:
 667:Drivers/STM32F3xx_HAL_Driver/Src/stm32f3xx_hal_flash_ex.c **** 
 809              		.loc 1 667 20 view .LVU213
 810 0008 0443     		orrs	r4, r4, r0
 811              	.LVL77:
 670:Drivers/STM32F3xx_HAL_Driver/Src/stm32f3xx_hal_flash_ex.c **** #endif /* OB_WRP_PAGES0TO31MASK */
 812              		.loc 1 670 3 is_stmt 1 view .LVU214
 674:Drivers/STM32F3xx_HAL_Driver/Src/stm32f3xx_hal_flash_ex.c **** #endif /* OB_WRP_PAGES32TO63MASK */
 813              		.loc 1 674 3 view .LVU215
 674:Drivers/STM32F3xx_HAL_Driver/Src/stm32f3xx_hal_flash_ex.c **** #endif /* OB_WRP_PAGES32TO63MASK */
 814              		.loc 1 674 13 is_stmt 0 view .LVU216
 815 000a C4F30727 		ubfx	r7, r4, #8, #8
 816              	.LVL78:
 678:Drivers/STM32F3xx_HAL_Driver/Src/stm32f3xx_hal_flash_ex.c **** #endif /* OB_WRP_PAGES32TO47MASK */
 817              		.loc 1 678 3 is_stmt 1 view .LVU217
 678:Drivers/STM32F3xx_HAL_Driver/Src/stm32f3xx_hal_flash_ex.c **** #endif /* OB_WRP_PAGES32TO47MASK */
 818              		.loc 1 678 13 is_stmt 0 view .LVU218
 819 000e C4F30746 		ubfx	r6, r4, #16, #8
 820              	.LVL79:
 682:Drivers/STM32F3xx_HAL_Driver/Src/stm32f3xx_hal_flash_ex.c **** #elif defined(OB_WRP_PAGES48TO255MASK)
 821              		.loc 1 682 3 is_stmt 1 view .LVU219
 689:Drivers/STM32F3xx_HAL_Driver/Src/stm32f3xx_hal_flash_ex.c **** 
 822              		.loc 1 689 3 view .LVU220
 689:Drivers/STM32F3xx_HAL_Driver/Src/stm32f3xx_hal_flash_ex.c **** 
 823              		.loc 1 689 12 is_stmt 0 view .LVU221
 824 0012 4CF25030 		movw	r0, #50000
 825 0016 FFF7FEFF 		bl	FLASH_WaitForLastOperation
 826              	.LVL80:
 691:Drivers/STM32F3xx_HAL_Driver/Src/stm32f3xx_hal_flash_ex.c ****   { 
 827              		.loc 1 691 3 is_stmt 1 view .LVU222
 691:Drivers/STM32F3xx_HAL_Driver/Src/stm32f3xx_hal_flash_ex.c ****   { 
 828              		.loc 1 691 5 is_stmt 0 view .LVU223
 829 001a 0346     		mov	r3, r0
 830 001c 08B1     		cbz	r0, .L62
 831              	.LVL81:
 832              	.L56:
 746:Drivers/STM32F3xx_HAL_Driver/Src/stm32f3xx_hal_flash_ex.c **** }
 833              		.loc 1 746 3 is_stmt 1 view .LVU224
 747:Drivers/STM32F3xx_HAL_Driver/Src/stm32f3xx_hal_flash_ex.c **** 
 834              		.loc 1 747 1 is_stmt 0 view .LVU225
ARM GAS  /var/folders/md/lgcc8l7571l9vt9sx0g0zflw0000gn/T//ccyhNZ7g.s 			page 45


 835 001e 1846     		mov	r0, r3
 836 0020 F8BD     		pop	{r3, r4, r5, r6, r7, pc}
 837              	.LVL82:
 838              	.L62:
 747:Drivers/STM32F3xx_HAL_Driver/Src/stm32f3xx_hal_flash_ex.c **** 
 839              		.loc 1 747 1 view .LVU226
 840 0022 E5B2     		uxtb	r5, r4
 841 0024 240E     		lsrs	r4, r4, #24
 842              	.LVL83:
 694:Drivers/STM32F3xx_HAL_Driver/Src/stm32f3xx_hal_flash_ex.c **** 
 843              		.loc 1 694 5 is_stmt 1 view .LVU227
 694:Drivers/STM32F3xx_HAL_Driver/Src/stm32f3xx_hal_flash_ex.c **** 
 844              		.loc 1 694 22 is_stmt 0 view .LVU228
 845 0026 234B     		ldr	r3, .L67
 846 0028 0022     		movs	r2, #0
 847 002a DA61     		str	r2, [r3, #28]
 697:Drivers/STM32F3xx_HAL_Driver/Src/stm32f3xx_hal_flash_ex.c ****     if (status == HAL_OK)  
 848              		.loc 1 697 5 is_stmt 1 view .LVU229
 697:Drivers/STM32F3xx_HAL_Driver/Src/stm32f3xx_hal_flash_ex.c ****     if (status == HAL_OK)  
 849              		.loc 1 697 14 is_stmt 0 view .LVU230
 850 002c FFF7FEFF 		bl	HAL_FLASHEx_OBErase
 851              	.LVL84:
 698:Drivers/STM32F3xx_HAL_Driver/Src/stm32f3xx_hal_flash_ex.c ****     {
 852              		.loc 1 698 5 is_stmt 1 view .LVU231
 698:Drivers/STM32F3xx_HAL_Driver/Src/stm32f3xx_hal_flash_ex.c ****     {
 853              		.loc 1 698 8 is_stmt 0 view .LVU232
 854 0030 0346     		mov	r3, r0
 855 0032 0028     		cmp	r0, #0
 856 0034 F3D1     		bne	.L56
 700:Drivers/STM32F3xx_HAL_Driver/Src/stm32f3xx_hal_flash_ex.c **** 
 857              		.loc 1 700 7 is_stmt 1 view .LVU233
 858 0036 2049     		ldr	r1, .L67+4
 859 0038 0A69     		ldr	r2, [r1, #16]
 860 003a 42F01002 		orr	r2, r2, #16
 861 003e 0A61     		str	r2, [r1, #16]
 703:Drivers/STM32F3xx_HAL_Driver/Src/stm32f3xx_hal_flash_ex.c ****       {
 862              		.loc 1 703 7 view .LVU234
 703:Drivers/STM32F3xx_HAL_Driver/Src/stm32f3xx_hal_flash_ex.c ****       {
 863              		.loc 1 703 9 is_stmt 0 view .LVU235
 864 0040 FF2D     		cmp	r5, #255
 865 0042 0ED1     		bne	.L63
 866              	.LVL85:
 867              	.L57:
 713:Drivers/STM32F3xx_HAL_Driver/Src/stm32f3xx_hal_flash_ex.c ****       {
 868              		.loc 1 713 7 is_stmt 1 view .LVU236
 713:Drivers/STM32F3xx_HAL_Driver/Src/stm32f3xx_hal_flash_ex.c ****       {
 869              		.loc 1 713 9 is_stmt 0 view .LVU237
 870 0044 0BB9     		cbnz	r3, .L58
 713:Drivers/STM32F3xx_HAL_Driver/Src/stm32f3xx_hal_flash_ex.c ****       {
 871              		.loc 1 713 29 discriminator 1 view .LVU238
 872 0046 FF2F     		cmp	r7, #255
 873 0048 15D1     		bne	.L64
 874              	.LVL86:
 875              	.L58:
 723:Drivers/STM32F3xx_HAL_Driver/Src/stm32f3xx_hal_flash_ex.c ****       {
 876              		.loc 1 723 7 is_stmt 1 view .LVU239
 723:Drivers/STM32F3xx_HAL_Driver/Src/stm32f3xx_hal_flash_ex.c ****       {
ARM GAS  /var/folders/md/lgcc8l7571l9vt9sx0g0zflw0000gn/T//ccyhNZ7g.s 			page 46


 877              		.loc 1 723 9 is_stmt 0 view .LVU240
 878 004a 0BB9     		cbnz	r3, .L59
 723:Drivers/STM32F3xx_HAL_Driver/Src/stm32f3xx_hal_flash_ex.c ****       {
 879              		.loc 1 723 29 discriminator 1 view .LVU241
 880 004c FF2E     		cmp	r6, #255
 881 004e 1CD1     		bne	.L65
 882              	.LVL87:
 883              	.L59:
 733:Drivers/STM32F3xx_HAL_Driver/Src/stm32f3xx_hal_flash_ex.c ****       {
 884              		.loc 1 733 7 is_stmt 1 view .LVU242
 733:Drivers/STM32F3xx_HAL_Driver/Src/stm32f3xx_hal_flash_ex.c ****       {
 885              		.loc 1 733 9 is_stmt 0 view .LVU243
 886 0050 0BB9     		cbnz	r3, .L60
 733:Drivers/STM32F3xx_HAL_Driver/Src/stm32f3xx_hal_flash_ex.c ****       {
 887              		.loc 1 733 29 discriminator 1 view .LVU244
 888 0052 FF2C     		cmp	r4, #255
 889 0054 23D1     		bne	.L66
 890              	.L60:
 743:Drivers/STM32F3xx_HAL_Driver/Src/stm32f3xx_hal_flash_ex.c ****     }
 891              		.loc 1 743 7 is_stmt 1 view .LVU245
 892 0056 1849     		ldr	r1, .L67+4
 893 0058 0A69     		ldr	r2, [r1, #16]
 894 005a 22F01002 		bic	r2, r2, #16
 895 005e 0A61     		str	r2, [r1, #16]
 896 0060 DDE7     		b	.L56
 897              	.LVL88:
 898              	.L63:
 705:Drivers/STM32F3xx_HAL_Driver/Src/stm32f3xx_hal_flash_ex.c ****         
 899              		.loc 1 705 9 view .LVU246
 705:Drivers/STM32F3xx_HAL_Driver/Src/stm32f3xx_hal_flash_ex.c ****         
 900              		.loc 1 705 18 is_stmt 0 view .LVU247
 901 0062 164B     		ldr	r3, .L67+8
 902 0064 1A89     		ldrh	r2, [r3, #8]
 903 0066 1543     		orrs	r5, r5, r2
 904              	.LVL89:
 705:Drivers/STM32F3xx_HAL_Driver/Src/stm32f3xx_hal_flash_ex.c ****         
 905              		.loc 1 705 18 view .LVU248
 906 0068 1D81     		strh	r5, [r3, #8]	@ movhi
 708:Drivers/STM32F3xx_HAL_Driver/Src/stm32f3xx_hal_flash_ex.c ****       }
 907              		.loc 1 708 9 is_stmt 1 view .LVU249
 708:Drivers/STM32F3xx_HAL_Driver/Src/stm32f3xx_hal_flash_ex.c ****       }
 908              		.loc 1 708 18 is_stmt 0 view .LVU250
 909 006a 4CF25030 		movw	r0, #50000
 910              	.LVL90:
 708:Drivers/STM32F3xx_HAL_Driver/Src/stm32f3xx_hal_flash_ex.c ****       }
 911              		.loc 1 708 18 view .LVU251
 912 006e FFF7FEFF 		bl	FLASH_WaitForLastOperation
 913              	.LVL91:
 914 0072 0346     		mov	r3, r0
 915              	.LVL92:
 708:Drivers/STM32F3xx_HAL_Driver/Src/stm32f3xx_hal_flash_ex.c ****       }
 916              		.loc 1 708 18 view .LVU252
 917 0074 E6E7     		b	.L57
 918              	.L64:
 715:Drivers/STM32F3xx_HAL_Driver/Src/stm32f3xx_hal_flash_ex.c ****         
 919              		.loc 1 715 9 is_stmt 1 view .LVU253
 715:Drivers/STM32F3xx_HAL_Driver/Src/stm32f3xx_hal_flash_ex.c ****         
ARM GAS  /var/folders/md/lgcc8l7571l9vt9sx0g0zflw0000gn/T//ccyhNZ7g.s 			page 47


 920              		.loc 1 715 18 is_stmt 0 view .LVU254
 921 0076 114B     		ldr	r3, .L67+8
 922              	.LVL93:
 715:Drivers/STM32F3xx_HAL_Driver/Src/stm32f3xx_hal_flash_ex.c ****         
 923              		.loc 1 715 18 view .LVU255
 924 0078 5A89     		ldrh	r2, [r3, #10]
 925 007a 1743     		orrs	r7, r7, r2
 926              	.LVL94:
 715:Drivers/STM32F3xx_HAL_Driver/Src/stm32f3xx_hal_flash_ex.c ****         
 927              		.loc 1 715 18 view .LVU256
 928 007c 5F81     		strh	r7, [r3, #10]	@ movhi
 718:Drivers/STM32F3xx_HAL_Driver/Src/stm32f3xx_hal_flash_ex.c ****       }
 929              		.loc 1 718 9 is_stmt 1 view .LVU257
 718:Drivers/STM32F3xx_HAL_Driver/Src/stm32f3xx_hal_flash_ex.c ****       }
 930              		.loc 1 718 18 is_stmt 0 view .LVU258
 931 007e 4CF25030 		movw	r0, #50000
 932 0082 FFF7FEFF 		bl	FLASH_WaitForLastOperation
 933              	.LVL95:
 934 0086 0346     		mov	r3, r0
 935              	.LVL96:
 718:Drivers/STM32F3xx_HAL_Driver/Src/stm32f3xx_hal_flash_ex.c ****       }
 936              		.loc 1 718 18 view .LVU259
 937 0088 DFE7     		b	.L58
 938              	.L65:
 725:Drivers/STM32F3xx_HAL_Driver/Src/stm32f3xx_hal_flash_ex.c ****         
 939              		.loc 1 725 9 is_stmt 1 view .LVU260
 725:Drivers/STM32F3xx_HAL_Driver/Src/stm32f3xx_hal_flash_ex.c ****         
 940              		.loc 1 725 18 is_stmt 0 view .LVU261
 941 008a 0C4B     		ldr	r3, .L67+8
 942              	.LVL97:
 725:Drivers/STM32F3xx_HAL_Driver/Src/stm32f3xx_hal_flash_ex.c ****         
 943              		.loc 1 725 18 view .LVU262
 944 008c 9A89     		ldrh	r2, [r3, #12]
 945 008e 1643     		orrs	r6, r6, r2
 946              	.LVL98:
 725:Drivers/STM32F3xx_HAL_Driver/Src/stm32f3xx_hal_flash_ex.c ****         
 947              		.loc 1 725 18 view .LVU263
 948 0090 9E81     		strh	r6, [r3, #12]	@ movhi
 728:Drivers/STM32F3xx_HAL_Driver/Src/stm32f3xx_hal_flash_ex.c ****       }
 949              		.loc 1 728 9 is_stmt 1 view .LVU264
 728:Drivers/STM32F3xx_HAL_Driver/Src/stm32f3xx_hal_flash_ex.c ****       }
 950              		.loc 1 728 18 is_stmt 0 view .LVU265
 951 0092 4CF25030 		movw	r0, #50000
 952 0096 FFF7FEFF 		bl	FLASH_WaitForLastOperation
 953              	.LVL99:
 954 009a 0346     		mov	r3, r0
 955              	.LVL100:
 728:Drivers/STM32F3xx_HAL_Driver/Src/stm32f3xx_hal_flash_ex.c ****       }
 956              		.loc 1 728 18 view .LVU266
 957 009c D8E7     		b	.L59
 958              	.L66:
 735:Drivers/STM32F3xx_HAL_Driver/Src/stm32f3xx_hal_flash_ex.c ****         
 959              		.loc 1 735 9 is_stmt 1 view .LVU267
 735:Drivers/STM32F3xx_HAL_Driver/Src/stm32f3xx_hal_flash_ex.c ****         
 960              		.loc 1 735 18 is_stmt 0 view .LVU268
 961 009e 074B     		ldr	r3, .L67+8
 962              	.LVL101:
ARM GAS  /var/folders/md/lgcc8l7571l9vt9sx0g0zflw0000gn/T//ccyhNZ7g.s 			page 48


 735:Drivers/STM32F3xx_HAL_Driver/Src/stm32f3xx_hal_flash_ex.c ****         
 963              		.loc 1 735 18 view .LVU269
 964 00a0 D889     		ldrh	r0, [r3, #14]
 965 00a2 2043     		orrs	r0, r0, r4
 966 00a4 D881     		strh	r0, [r3, #14]	@ movhi
 738:Drivers/STM32F3xx_HAL_Driver/Src/stm32f3xx_hal_flash_ex.c ****       }
 967              		.loc 1 738 9 is_stmt 1 view .LVU270
 738:Drivers/STM32F3xx_HAL_Driver/Src/stm32f3xx_hal_flash_ex.c ****       }
 968              		.loc 1 738 18 is_stmt 0 view .LVU271
 969 00a6 4CF25030 		movw	r0, #50000
 970 00aa FFF7FEFF 		bl	FLASH_WaitForLastOperation
 971              	.LVL102:
 972 00ae 0346     		mov	r3, r0
 973              	.LVL103:
 738:Drivers/STM32F3xx_HAL_Driver/Src/stm32f3xx_hal_flash_ex.c ****       }
 974              		.loc 1 738 18 view .LVU272
 975 00b0 D1E7     		b	.L60
 976              	.L68:
 977 00b2 00BF     		.align	2
 978              	.L67:
 979 00b4 00000000 		.word	pFlash
 980 00b8 00200240 		.word	1073881088
 981 00bc 00F8FF1F 		.word	536868864
 982              		.cfi_endproc
 983              	.LFE134:
 985              		.section	.text.HAL_FLASHEx_OBProgram,"ax",%progbits
 986              		.align	1
 987              		.global	HAL_FLASHEx_OBProgram
 988              		.syntax unified
 989              		.thumb
 990              		.thumb_func
 991              		.fpu fpv4-sp-d16
 993              	HAL_FLASHEx_OBProgram:
 994              	.LVL104:
 995              	.LFB129:
 379:Drivers/STM32F3xx_HAL_Driver/Src/stm32f3xx_hal_flash_ex.c ****   HAL_StatusTypeDef status = HAL_ERROR;
 996              		.loc 1 379 1 is_stmt 1 view -0
 997              		.cfi_startproc
 998              		@ args = 0, pretend = 0, frame = 0
 999              		@ frame_needed = 0, uses_anonymous_args = 0
 380:Drivers/STM32F3xx_HAL_Driver/Src/stm32f3xx_hal_flash_ex.c **** 
 1000              		.loc 1 380 3 view .LVU274
 383:Drivers/STM32F3xx_HAL_Driver/Src/stm32f3xx_hal_flash_ex.c **** 
 1001              		.loc 1 383 3 view .LVU275
 383:Drivers/STM32F3xx_HAL_Driver/Src/stm32f3xx_hal_flash_ex.c **** 
 1002              		.loc 1 383 3 view .LVU276
 1003 0000 284B     		ldr	r3, .L87
 1004 0002 1B7E     		ldrb	r3, [r3, #24]	@ zero_extendqisi2
 1005 0004 012B     		cmp	r3, #1
 1006 0006 4AD0     		beq	.L77
 379:Drivers/STM32F3xx_HAL_Driver/Src/stm32f3xx_hal_flash_ex.c ****   HAL_StatusTypeDef status = HAL_ERROR;
 1007              		.loc 1 379 1 is_stmt 0 discriminator 2 view .LVU277
 1008 0008 10B5     		push	{r4, lr}
 1009              	.LCFI6:
 1010              		.cfi_def_cfa_offset 8
 1011              		.cfi_offset 4, -8
 1012              		.cfi_offset 14, -4
ARM GAS  /var/folders/md/lgcc8l7571l9vt9sx0g0zflw0000gn/T//ccyhNZ7g.s 			page 49


 1013 000a 0446     		mov	r4, r0
 383:Drivers/STM32F3xx_HAL_Driver/Src/stm32f3xx_hal_flash_ex.c **** 
 1014              		.loc 1 383 3 is_stmt 1 discriminator 2 view .LVU278
 1015 000c 254B     		ldr	r3, .L87
 1016 000e 0122     		movs	r2, #1
 1017 0010 1A76     		strb	r2, [r3, #24]
 386:Drivers/STM32F3xx_HAL_Driver/Src/stm32f3xx_hal_flash_ex.c **** 
 1018              		.loc 1 386 3 discriminator 2 view .LVU279
 389:Drivers/STM32F3xx_HAL_Driver/Src/stm32f3xx_hal_flash_ex.c ****   {
 1019              		.loc 1 389 3 discriminator 2 view .LVU280
 389:Drivers/STM32F3xx_HAL_Driver/Src/stm32f3xx_hal_flash_ex.c ****   {
 1020              		.loc 1 389 14 is_stmt 0 discriminator 2 view .LVU281
 1021 0012 0368     		ldr	r3, [r0]
 389:Drivers/STM32F3xx_HAL_Driver/Src/stm32f3xx_hal_flash_ex.c ****   {
 1022              		.loc 1 389 5 discriminator 2 view .LVU282
 1023 0014 13F0010F 		tst	r3, #1
 1024 0018 10D0     		beq	.L78
 391:Drivers/STM32F3xx_HAL_Driver/Src/stm32f3xx_hal_flash_ex.c ****     if (pOBInit->WRPState == OB_WRPSTATE_ENABLE)
 1025              		.loc 1 391 5 is_stmt 1 view .LVU283
 392:Drivers/STM32F3xx_HAL_Driver/Src/stm32f3xx_hal_flash_ex.c ****     {
 1026              		.loc 1 392 5 view .LVU284
 392:Drivers/STM32F3xx_HAL_Driver/Src/stm32f3xx_hal_flash_ex.c ****     {
 1027              		.loc 1 392 16 is_stmt 0 view .LVU285
 1028 001a 4368     		ldr	r3, [r0, #4]
 392:Drivers/STM32F3xx_HAL_Driver/Src/stm32f3xx_hal_flash_ex.c ****     {
 1029              		.loc 1 392 8 view .LVU286
 1030 001c 9342     		cmp	r3, r2
 1031 001e 08D0     		beq	.L83
 400:Drivers/STM32F3xx_HAL_Driver/Src/stm32f3xx_hal_flash_ex.c ****     }
 1032              		.loc 1 400 7 is_stmt 1 view .LVU287
 400:Drivers/STM32F3xx_HAL_Driver/Src/stm32f3xx_hal_flash_ex.c ****     }
 1033              		.loc 1 400 16 is_stmt 0 view .LVU288
 1034 0020 8068     		ldr	r0, [r0, #8]
 1035              	.LVL105:
 400:Drivers/STM32F3xx_HAL_Driver/Src/stm32f3xx_hal_flash_ex.c ****     }
 1036              		.loc 1 400 16 view .LVU289
 1037 0022 FFF7FEFF 		bl	FLASH_OB_DisableWRP
 1038              	.LVL106:
 1039 0026 0346     		mov	r3, r0
 1040              	.LVL107:
 1041              	.L73:
 402:Drivers/STM32F3xx_HAL_Driver/Src/stm32f3xx_hal_flash_ex.c ****     {
 1042              		.loc 1 402 5 is_stmt 1 view .LVU290
 402:Drivers/STM32F3xx_HAL_Driver/Src/stm32f3xx_hal_flash_ex.c ****     {
 1043              		.loc 1 402 8 is_stmt 0 view .LVU291
 1044 0028 4BB1     		cbz	r3, .L71
 405:Drivers/STM32F3xx_HAL_Driver/Src/stm32f3xx_hal_flash_ex.c ****       return status;
 1045              		.loc 1 405 7 is_stmt 1 view .LVU292
 405:Drivers/STM32F3xx_HAL_Driver/Src/stm32f3xx_hal_flash_ex.c ****       return status;
 1046              		.loc 1 405 7 view .LVU293
 1047 002a 1E4A     		ldr	r2, .L87
 1048 002c 0021     		movs	r1, #0
 1049 002e 1176     		strb	r1, [r2, #24]
 406:Drivers/STM32F3xx_HAL_Driver/Src/stm32f3xx_hal_flash_ex.c ****     }
 1050              		.loc 1 406 7 view .LVU294
 406:Drivers/STM32F3xx_HAL_Driver/Src/stm32f3xx_hal_flash_ex.c ****     }
 1051              		.loc 1 406 14 is_stmt 0 view .LVU295
ARM GAS  /var/folders/md/lgcc8l7571l9vt9sx0g0zflw0000gn/T//ccyhNZ7g.s 			page 50


 1052 0030 14E0     		b	.L70
 1053              	.LVL108:
 1054              	.L83:
 395:Drivers/STM32F3xx_HAL_Driver/Src/stm32f3xx_hal_flash_ex.c ****     }
 1055              		.loc 1 395 7 is_stmt 1 view .LVU296
 395:Drivers/STM32F3xx_HAL_Driver/Src/stm32f3xx_hal_flash_ex.c ****     }
 1056              		.loc 1 395 16 is_stmt 0 view .LVU297
 1057 0032 8068     		ldr	r0, [r0, #8]
 1058              	.LVL109:
 395:Drivers/STM32F3xx_HAL_Driver/Src/stm32f3xx_hal_flash_ex.c ****     }
 1059              		.loc 1 395 16 view .LVU298
 1060 0034 FFF7FEFF 		bl	FLASH_OB_EnableWRP
 1061              	.LVL110:
 1062 0038 0346     		mov	r3, r0
 1063              	.LVL111:
 395:Drivers/STM32F3xx_HAL_Driver/Src/stm32f3xx_hal_flash_ex.c ****     }
 1064              		.loc 1 395 16 view .LVU299
 1065 003a F5E7     		b	.L73
 1066              	.LVL112:
 1067              	.L78:
 380:Drivers/STM32F3xx_HAL_Driver/Src/stm32f3xx_hal_flash_ex.c **** 
 1068              		.loc 1 380 21 view .LVU300
 1069 003c 0123     		movs	r3, #1
 1070              	.LVL113:
 1071              	.L71:
 411:Drivers/STM32F3xx_HAL_Driver/Src/stm32f3xx_hal_flash_ex.c ****   {
 1072              		.loc 1 411 3 is_stmt 1 view .LVU301
 411:Drivers/STM32F3xx_HAL_Driver/Src/stm32f3xx_hal_flash_ex.c ****   {
 1073              		.loc 1 411 14 is_stmt 0 view .LVU302
 1074 003e 2268     		ldr	r2, [r4]
 411:Drivers/STM32F3xx_HAL_Driver/Src/stm32f3xx_hal_flash_ex.c ****   {
 1075              		.loc 1 411 5 view .LVU303
 1076 0040 12F0020F 		tst	r2, #2
 1077 0044 0CD1     		bne	.L84
 1078              	.LVL114:
 1079              	.L74:
 423:Drivers/STM32F3xx_HAL_Driver/Src/stm32f3xx_hal_flash_ex.c ****   {
 1080              		.loc 1 423 3 is_stmt 1 view .LVU304
 423:Drivers/STM32F3xx_HAL_Driver/Src/stm32f3xx_hal_flash_ex.c ****   {
 1081              		.loc 1 423 14 is_stmt 0 view .LVU305
 1082 0046 2268     		ldr	r2, [r4]
 423:Drivers/STM32F3xx_HAL_Driver/Src/stm32f3xx_hal_flash_ex.c ****   {
 1083              		.loc 1 423 5 view .LVU306
 1084 0048 12F0040F 		tst	r2, #4
 1085 004c 12D1     		bne	.L85
 1086              	.LVL115:
 1087              	.L75:
 435:Drivers/STM32F3xx_HAL_Driver/Src/stm32f3xx_hal_flash_ex.c ****   {
 1088              		.loc 1 435 3 is_stmt 1 view .LVU307
 435:Drivers/STM32F3xx_HAL_Driver/Src/stm32f3xx_hal_flash_ex.c ****   {
 1089              		.loc 1 435 14 is_stmt 0 view .LVU308
 1090 004e 2268     		ldr	r2, [r4]
 435:Drivers/STM32F3xx_HAL_Driver/Src/stm32f3xx_hal_flash_ex.c ****   {
 1091              		.loc 1 435 5 view .LVU309
 1092 0050 12F0080F 		tst	r2, #8
 1093 0054 18D1     		bne	.L86
 1094              	.LVL116:
ARM GAS  /var/folders/md/lgcc8l7571l9vt9sx0g0zflw0000gn/T//ccyhNZ7g.s 			page 51


 1095              	.L76:
 447:Drivers/STM32F3xx_HAL_Driver/Src/stm32f3xx_hal_flash_ex.c **** 
 1096              		.loc 1 447 3 is_stmt 1 view .LVU310
 447:Drivers/STM32F3xx_HAL_Driver/Src/stm32f3xx_hal_flash_ex.c **** 
 1097              		.loc 1 447 3 view .LVU311
 1098 0056 134A     		ldr	r2, .L87
 1099 0058 0021     		movs	r1, #0
 1100 005a 1176     		strb	r1, [r2, #24]
 449:Drivers/STM32F3xx_HAL_Driver/Src/stm32f3xx_hal_flash_ex.c **** }
 1101              		.loc 1 449 3 view .LVU312
 1102              	.LVL117:
 1103              	.L70:
 450:Drivers/STM32F3xx_HAL_Driver/Src/stm32f3xx_hal_flash_ex.c **** 
 1104              		.loc 1 450 1 is_stmt 0 view .LVU313
 1105 005c 1846     		mov	r0, r3
 1106 005e 10BD     		pop	{r4, pc}
 1107              	.LVL118:
 1108              	.L84:
 413:Drivers/STM32F3xx_HAL_Driver/Src/stm32f3xx_hal_flash_ex.c ****     if (status != HAL_OK)
 1109              		.loc 1 413 5 is_stmt 1 view .LVU314
 413:Drivers/STM32F3xx_HAL_Driver/Src/stm32f3xx_hal_flash_ex.c ****     if (status != HAL_OK)
 1110              		.loc 1 413 14 is_stmt 0 view .LVU315
 1111 0060 207B     		ldrb	r0, [r4, #12]	@ zero_extendqisi2
 1112 0062 FFF7FEFF 		bl	FLASH_OB_RDP_LevelConfig
 1113              	.LVL119:
 414:Drivers/STM32F3xx_HAL_Driver/Src/stm32f3xx_hal_flash_ex.c ****     {
 1114              		.loc 1 414 5 is_stmt 1 view .LVU316
 414:Drivers/STM32F3xx_HAL_Driver/Src/stm32f3xx_hal_flash_ex.c ****     {
 1115              		.loc 1 414 8 is_stmt 0 view .LVU317
 1116 0066 0346     		mov	r3, r0
 1117 0068 0028     		cmp	r0, #0
 1118 006a ECD0     		beq	.L74
 417:Drivers/STM32F3xx_HAL_Driver/Src/stm32f3xx_hal_flash_ex.c ****       return status;
 1119              		.loc 1 417 7 is_stmt 1 view .LVU318
 417:Drivers/STM32F3xx_HAL_Driver/Src/stm32f3xx_hal_flash_ex.c ****       return status;
 1120              		.loc 1 417 7 view .LVU319
 1121 006c 0D4A     		ldr	r2, .L87
 1122 006e 0021     		movs	r1, #0
 1123 0070 1176     		strb	r1, [r2, #24]
 418:Drivers/STM32F3xx_HAL_Driver/Src/stm32f3xx_hal_flash_ex.c ****     }
 1124              		.loc 1 418 7 view .LVU320
 418:Drivers/STM32F3xx_HAL_Driver/Src/stm32f3xx_hal_flash_ex.c ****     }
 1125              		.loc 1 418 14 is_stmt 0 view .LVU321
 1126 0072 F3E7     		b	.L70
 1127              	.LVL120:
 1128              	.L85:
 425:Drivers/STM32F3xx_HAL_Driver/Src/stm32f3xx_hal_flash_ex.c ****     if (status != HAL_OK)
 1129              		.loc 1 425 5 is_stmt 1 view .LVU322
 425:Drivers/STM32F3xx_HAL_Driver/Src/stm32f3xx_hal_flash_ex.c ****     if (status != HAL_OK)
 1130              		.loc 1 425 14 is_stmt 0 view .LVU323
 1131 0074 607B     		ldrb	r0, [r4, #13]	@ zero_extendqisi2
 1132 0076 FFF7FEFF 		bl	FLASH_OB_UserConfig
 1133              	.LVL121:
 426:Drivers/STM32F3xx_HAL_Driver/Src/stm32f3xx_hal_flash_ex.c ****     {
 1134              		.loc 1 426 5 is_stmt 1 view .LVU324
 426:Drivers/STM32F3xx_HAL_Driver/Src/stm32f3xx_hal_flash_ex.c ****     {
 1135              		.loc 1 426 8 is_stmt 0 view .LVU325
ARM GAS  /var/folders/md/lgcc8l7571l9vt9sx0g0zflw0000gn/T//ccyhNZ7g.s 			page 52


 1136 007a 0346     		mov	r3, r0
 1137 007c 0028     		cmp	r0, #0
 1138 007e E6D0     		beq	.L75
 429:Drivers/STM32F3xx_HAL_Driver/Src/stm32f3xx_hal_flash_ex.c ****       return status;
 1139              		.loc 1 429 7 is_stmt 1 view .LVU326
 429:Drivers/STM32F3xx_HAL_Driver/Src/stm32f3xx_hal_flash_ex.c ****       return status;
 1140              		.loc 1 429 7 view .LVU327
 1141 0080 084A     		ldr	r2, .L87
 1142 0082 0021     		movs	r1, #0
 1143 0084 1176     		strb	r1, [r2, #24]
 430:Drivers/STM32F3xx_HAL_Driver/Src/stm32f3xx_hal_flash_ex.c ****     }
 1144              		.loc 1 430 7 view .LVU328
 430:Drivers/STM32F3xx_HAL_Driver/Src/stm32f3xx_hal_flash_ex.c ****     }
 1145              		.loc 1 430 14 is_stmt 0 view .LVU329
 1146 0086 E9E7     		b	.L70
 1147              	.LVL122:
 1148              	.L86:
 437:Drivers/STM32F3xx_HAL_Driver/Src/stm32f3xx_hal_flash_ex.c ****     if (status != HAL_OK)
 1149              		.loc 1 437 5 is_stmt 1 view .LVU330
 437:Drivers/STM32F3xx_HAL_Driver/Src/stm32f3xx_hal_flash_ex.c ****     if (status != HAL_OK)
 1150              		.loc 1 437 14 is_stmt 0 view .LVU331
 1151 0088 217D     		ldrb	r1, [r4, #20]	@ zero_extendqisi2
 1152 008a 2069     		ldr	r0, [r4, #16]
 1153 008c FFF7FEFF 		bl	FLASH_OB_ProgramData
 1154              	.LVL123:
 438:Drivers/STM32F3xx_HAL_Driver/Src/stm32f3xx_hal_flash_ex.c ****     {
 1155              		.loc 1 438 5 is_stmt 1 view .LVU332
 438:Drivers/STM32F3xx_HAL_Driver/Src/stm32f3xx_hal_flash_ex.c ****     {
 1156              		.loc 1 438 8 is_stmt 0 view .LVU333
 1157 0090 0346     		mov	r3, r0
 1158 0092 0028     		cmp	r0, #0
 1159 0094 DFD0     		beq	.L76
 441:Drivers/STM32F3xx_HAL_Driver/Src/stm32f3xx_hal_flash_ex.c ****       return status;
 1160              		.loc 1 441 7 is_stmt 1 view .LVU334
 441:Drivers/STM32F3xx_HAL_Driver/Src/stm32f3xx_hal_flash_ex.c ****       return status;
 1161              		.loc 1 441 7 view .LVU335
 1162 0096 034A     		ldr	r2, .L87
 1163 0098 0021     		movs	r1, #0
 1164 009a 1176     		strb	r1, [r2, #24]
 442:Drivers/STM32F3xx_HAL_Driver/Src/stm32f3xx_hal_flash_ex.c ****     }
 1165              		.loc 1 442 7 view .LVU336
 442:Drivers/STM32F3xx_HAL_Driver/Src/stm32f3xx_hal_flash_ex.c ****     }
 1166              		.loc 1 442 14 is_stmt 0 view .LVU337
 1167 009c DEE7     		b	.L70
 1168              	.LVL124:
 1169              	.L77:
 1170              	.LCFI7:
 1171              		.cfi_def_cfa_offset 0
 1172              		.cfi_restore 4
 1173              		.cfi_restore 14
 383:Drivers/STM32F3xx_HAL_Driver/Src/stm32f3xx_hal_flash_ex.c **** 
 1174              		.loc 1 383 3 view .LVU338
 1175 009e 0223     		movs	r3, #2
 450:Drivers/STM32F3xx_HAL_Driver/Src/stm32f3xx_hal_flash_ex.c **** 
 1176              		.loc 1 450 1 view .LVU339
 1177 00a0 1846     		mov	r0, r3
 1178              	.LVL125:
ARM GAS  /var/folders/md/lgcc8l7571l9vt9sx0g0zflw0000gn/T//ccyhNZ7g.s 			page 53


 450:Drivers/STM32F3xx_HAL_Driver/Src/stm32f3xx_hal_flash_ex.c **** 
 1179              		.loc 1 450 1 view .LVU340
 1180 00a2 7047     		bx	lr
 1181              	.L88:
 1182              		.align	2
 1183              	.L87:
 1184 00a4 00000000 		.word	pFlash
 1185              		.cfi_endproc
 1186              	.LFE129:
 1188              		.section	.text.HAL_FLASHEx_OBGetConfig,"ax",%progbits
 1189              		.align	1
 1190              		.global	HAL_FLASHEx_OBGetConfig
 1191              		.syntax unified
 1192              		.thumb
 1193              		.thumb_func
 1194              		.fpu fpv4-sp-d16
 1196              	HAL_FLASHEx_OBGetConfig:
 1197              	.LVL126:
 1198              	.LFB130:
 460:Drivers/STM32F3xx_HAL_Driver/Src/stm32f3xx_hal_flash_ex.c ****   pOBInit->OptionType = OPTIONBYTE_WRP | OPTIONBYTE_RDP | OPTIONBYTE_USER;
 1199              		.loc 1 460 1 is_stmt 1 view -0
 1200              		.cfi_startproc
 1201              		@ args = 0, pretend = 0, frame = 0
 1202              		@ frame_needed = 0, uses_anonymous_args = 0
 460:Drivers/STM32F3xx_HAL_Driver/Src/stm32f3xx_hal_flash_ex.c ****   pOBInit->OptionType = OPTIONBYTE_WRP | OPTIONBYTE_RDP | OPTIONBYTE_USER;
 1203              		.loc 1 460 1 is_stmt 0 view .LVU342
 1204 0000 10B5     		push	{r4, lr}
 1205              	.LCFI8:
 1206              		.cfi_def_cfa_offset 8
 1207              		.cfi_offset 4, -8
 1208              		.cfi_offset 14, -4
 1209 0002 0446     		mov	r4, r0
 461:Drivers/STM32F3xx_HAL_Driver/Src/stm32f3xx_hal_flash_ex.c **** 
 1210              		.loc 1 461 3 is_stmt 1 view .LVU343
 461:Drivers/STM32F3xx_HAL_Driver/Src/stm32f3xx_hal_flash_ex.c **** 
 1211              		.loc 1 461 23 is_stmt 0 view .LVU344
 1212 0004 0723     		movs	r3, #7
 1213 0006 0360     		str	r3, [r0]
 464:Drivers/STM32F3xx_HAL_Driver/Src/stm32f3xx_hal_flash_ex.c **** 
 1214              		.loc 1 464 3 is_stmt 1 view .LVU345
 464:Drivers/STM32F3xx_HAL_Driver/Src/stm32f3xx_hal_flash_ex.c **** 
 1215              		.loc 1 464 22 is_stmt 0 view .LVU346
 1216 0008 FFF7FEFF 		bl	FLASH_OB_GetWRP
 1217              	.LVL127:
 464:Drivers/STM32F3xx_HAL_Driver/Src/stm32f3xx_hal_flash_ex.c **** 
 1218              		.loc 1 464 20 view .LVU347
 1219 000c A060     		str	r0, [r4, #8]
 467:Drivers/STM32F3xx_HAL_Driver/Src/stm32f3xx_hal_flash_ex.c **** 
 1220              		.loc 1 467 3 is_stmt 1 view .LVU348
 467:Drivers/STM32F3xx_HAL_Driver/Src/stm32f3xx_hal_flash_ex.c **** 
 1221              		.loc 1 467 23 is_stmt 0 view .LVU349
 1222 000e FFF7FEFF 		bl	FLASH_OB_GetRDP
 1223              	.LVL128:
 467:Drivers/STM32F3xx_HAL_Driver/Src/stm32f3xx_hal_flash_ex.c **** 
 1224              		.loc 1 467 21 view .LVU350
 1225 0012 2073     		strb	r0, [r4, #12]
 470:Drivers/STM32F3xx_HAL_Driver/Src/stm32f3xx_hal_flash_ex.c **** }
ARM GAS  /var/folders/md/lgcc8l7571l9vt9sx0g0zflw0000gn/T//ccyhNZ7g.s 			page 54


 1226              		.loc 1 470 3 is_stmt 1 view .LVU351
 470:Drivers/STM32F3xx_HAL_Driver/Src/stm32f3xx_hal_flash_ex.c **** }
 1227              		.loc 1 470 25 is_stmt 0 view .LVU352
 1228 0014 FFF7FEFF 		bl	FLASH_OB_GetUser
 1229              	.LVL129:
 470:Drivers/STM32F3xx_HAL_Driver/Src/stm32f3xx_hal_flash_ex.c **** }
 1230              		.loc 1 470 23 view .LVU353
 1231 0018 6073     		strb	r0, [r4, #13]
 471:Drivers/STM32F3xx_HAL_Driver/Src/stm32f3xx_hal_flash_ex.c **** 
 1232              		.loc 1 471 1 view .LVU354
 1233 001a 10BD     		pop	{r4, pc}
 471:Drivers/STM32F3xx_HAL_Driver/Src/stm32f3xx_hal_flash_ex.c **** 
 1234              		.loc 1 471 1 view .LVU355
 1235              		.cfi_endproc
 1236              	.LFE130:
 1238              		.section	.text.HAL_FLASHEx_OBGetUserData,"ax",%progbits
 1239              		.align	1
 1240              		.global	HAL_FLASHEx_OBGetUserData
 1241              		.syntax unified
 1242              		.thumb
 1243              		.thumb_func
 1244              		.fpu fpv4-sp-d16
 1246              	HAL_FLASHEx_OBGetUserData:
 1247              	.LVL130:
 1248              	.LFB131:
 482:Drivers/STM32F3xx_HAL_Driver/Src/stm32f3xx_hal_flash_ex.c ****   uint32_t value = 0U;
 1249              		.loc 1 482 1 is_stmt 1 view -0
 1250              		.cfi_startproc
 1251              		@ args = 0, pretend = 0, frame = 0
 1252              		@ frame_needed = 0, uses_anonymous_args = 0
 1253              		@ link register save eliminated.
 483:Drivers/STM32F3xx_HAL_Driver/Src/stm32f3xx_hal_flash_ex.c ****   
 1254              		.loc 1 483 3 view .LVU357
 485:Drivers/STM32F3xx_HAL_Driver/Src/stm32f3xx_hal_flash_ex.c ****   {
 1255              		.loc 1 485 3 view .LVU358
 485:Drivers/STM32F3xx_HAL_Driver/Src/stm32f3xx_hal_flash_ex.c ****   {
 1256              		.loc 1 485 6 is_stmt 0 view .LVU359
 1257 0000 0D4B     		ldr	r3, .L95
 1258 0002 9842     		cmp	r0, r3
 1259 0004 0BD0     		beq	.L94
 493:Drivers/STM32F3xx_HAL_Driver/Src/stm32f3xx_hal_flash_ex.c ****   }
 1260              		.loc 1 493 5 is_stmt 1 view .LVU360
 493:Drivers/STM32F3xx_HAL_Driver/Src/stm32f3xx_hal_flash_ex.c ****   }
 1261              		.loc 1 493 13 is_stmt 0 view .LVU361
 1262 0006 0D4B     		ldr	r3, .L95+4
 1263 0008 D869     		ldr	r0, [r3, #28]
 1264              	.LVL131:
 493:Drivers/STM32F3xx_HAL_Driver/Src/stm32f3xx_hal_flash_ex.c ****   }
 1265              		.loc 1 493 13 view .LVU362
 1266 000a 00F07F40 		and	r0, r0, #-16777216
 1267              	.LVL132:
 1268              	.LBB10:
 1269              	.LBI10:
 526:Drivers/CMSIS/Include/cmsis_gcc.h **** {
 1270              		.loc 2 526 57 is_stmt 1 view .LVU363
 1271              	.LBB11:
 528:Drivers/CMSIS/Include/cmsis_gcc.h **** 
ARM GAS  /var/folders/md/lgcc8l7571l9vt9sx0g0zflw0000gn/T//ccyhNZ7g.s 			page 55


 1272              		.loc 2 528 3 view .LVU364
 531:Drivers/CMSIS/Include/cmsis_gcc.h **** #else
 1273              		.loc 2 531 4 view .LVU365
 1274 000e 4FF07F43 		mov	r3, #-16777216
 1275              		.syntax unified
 1276              	@ 531 "Drivers/CMSIS/Include/cmsis_gcc.h" 1
 1277 0012 93FAA3F3 		rbit r3, r3
 1278              	@ 0 "" 2
 1279              	.LVL133:
 1280              		.loc 2 544 3 view .LVU366
 1281              		.loc 2 544 3 is_stmt 0 view .LVU367
 1282              		.thumb
 1283              		.syntax unified
 1284              	.LBE11:
 1285              	.LBE10:
 493:Drivers/STM32F3xx_HAL_Driver/Src/stm32f3xx_hal_flash_ex.c ****   }
 1286              		.loc 1 493 54 view .LVU368
 1287 0016 B3FA83F3 		clz	r3, r3
 493:Drivers/STM32F3xx_HAL_Driver/Src/stm32f3xx_hal_flash_ex.c ****   }
 1288              		.loc 1 493 11 view .LVU369
 1289 001a D840     		lsrs	r0, r0, r3
 1290              	.LVL134:
 496:Drivers/STM32F3xx_HAL_Driver/Src/stm32f3xx_hal_flash_ex.c **** }
 1291              		.loc 1 496 3 is_stmt 1 view .LVU370
 497:Drivers/STM32F3xx_HAL_Driver/Src/stm32f3xx_hal_flash_ex.c **** 
 1292              		.loc 1 497 1 is_stmt 0 view .LVU371
 1293 001c 7047     		bx	lr
 1294              	.LVL135:
 1295              	.L94:
 488:Drivers/STM32F3xx_HAL_Driver/Src/stm32f3xx_hal_flash_ex.c ****   }
 1296              		.loc 1 488 5 is_stmt 1 view .LVU372
 488:Drivers/STM32F3xx_HAL_Driver/Src/stm32f3xx_hal_flash_ex.c ****   }
 1297              		.loc 1 488 13 is_stmt 0 view .LVU373
 1298 001e 074B     		ldr	r3, .L95+4
 1299 0020 D869     		ldr	r0, [r3, #28]
 1300              	.LVL136:
 488:Drivers/STM32F3xx_HAL_Driver/Src/stm32f3xx_hal_flash_ex.c ****   }
 1301              		.loc 1 488 13 view .LVU374
 1302 0022 00F47F00 		and	r0, r0, #16711680
 1303              	.LVL137:
 1304              	.LBB12:
 1305              	.LBI12:
 526:Drivers/CMSIS/Include/cmsis_gcc.h **** {
 1306              		.loc 2 526 57 is_stmt 1 view .LVU375
 1307              	.LBB13:
 528:Drivers/CMSIS/Include/cmsis_gcc.h **** 
 1308              		.loc 2 528 3 view .LVU376
 531:Drivers/CMSIS/Include/cmsis_gcc.h **** #else
 1309              		.loc 2 531 4 view .LVU377
 1310 0026 4FF47F03 		mov	r3, #16711680
 1311              		.syntax unified
 1312              	@ 531 "Drivers/CMSIS/Include/cmsis_gcc.h" 1
 1313 002a 93FAA3F3 		rbit r3, r3
 1314              	@ 0 "" 2
 1315              	.LVL138:
 1316              		.loc 2 544 3 view .LVU378
 1317              		.loc 2 544 3 is_stmt 0 view .LVU379
ARM GAS  /var/folders/md/lgcc8l7571l9vt9sx0g0zflw0000gn/T//ccyhNZ7g.s 			page 56


 1318              		.thumb
 1319              		.syntax unified
 1320              	.LBE13:
 1321              	.LBE12:
 488:Drivers/STM32F3xx_HAL_Driver/Src/stm32f3xx_hal_flash_ex.c ****   }
 1322              		.loc 1 488 54 view .LVU380
 1323 002e B3FA83F3 		clz	r3, r3
 488:Drivers/STM32F3xx_HAL_Driver/Src/stm32f3xx_hal_flash_ex.c ****   }
 1324              		.loc 1 488 11 view .LVU381
 1325 0032 D840     		lsrs	r0, r0, r3
 1326              	.LVL139:
 488:Drivers/STM32F3xx_HAL_Driver/Src/stm32f3xx_hal_flash_ex.c ****   }
 1327              		.loc 1 488 11 view .LVU382
 1328 0034 7047     		bx	lr
 1329              	.L96:
 1330 0036 00BF     		.align	2
 1331              	.L95:
 1332 0038 04F8FF1F 		.word	536868868
 1333 003c 00200240 		.word	1073881088
 1334              		.cfi_endproc
 1335              	.LFE131:
 1337              		.section	.text.FLASH_PageErase,"ax",%progbits
 1338              		.align	1
 1339              		.global	FLASH_PageErase
 1340              		.syntax unified
 1341              		.thumb
 1342              		.thumb_func
 1343              		.fpu fpv4-sp-d16
 1345              	FLASH_PageErase:
 1346              	.LVL140:
 1347              	.LFB141:
 957:Drivers/STM32F3xx_HAL_Driver/Src/stm32f3xx_hal_flash_ex.c **** 
 958:Drivers/STM32F3xx_HAL_Driver/Src/stm32f3xx_hal_flash_ex.c **** /**
 959:Drivers/STM32F3xx_HAL_Driver/Src/stm32f3xx_hal_flash_ex.c ****   * @}
 960:Drivers/STM32F3xx_HAL_Driver/Src/stm32f3xx_hal_flash_ex.c ****   */
 961:Drivers/STM32F3xx_HAL_Driver/Src/stm32f3xx_hal_flash_ex.c **** 
 962:Drivers/STM32F3xx_HAL_Driver/Src/stm32f3xx_hal_flash_ex.c **** /**
 963:Drivers/STM32F3xx_HAL_Driver/Src/stm32f3xx_hal_flash_ex.c ****   * @}
 964:Drivers/STM32F3xx_HAL_Driver/Src/stm32f3xx_hal_flash_ex.c ****   */
 965:Drivers/STM32F3xx_HAL_Driver/Src/stm32f3xx_hal_flash_ex.c **** 
 966:Drivers/STM32F3xx_HAL_Driver/Src/stm32f3xx_hal_flash_ex.c **** /** @addtogroup FLASH
 967:Drivers/STM32F3xx_HAL_Driver/Src/stm32f3xx_hal_flash_ex.c ****   * @{
 968:Drivers/STM32F3xx_HAL_Driver/Src/stm32f3xx_hal_flash_ex.c ****   */
 969:Drivers/STM32F3xx_HAL_Driver/Src/stm32f3xx_hal_flash_ex.c **** 
 970:Drivers/STM32F3xx_HAL_Driver/Src/stm32f3xx_hal_flash_ex.c **** /** @addtogroup FLASH_Private_Functions
 971:Drivers/STM32F3xx_HAL_Driver/Src/stm32f3xx_hal_flash_ex.c ****  * @{
 972:Drivers/STM32F3xx_HAL_Driver/Src/stm32f3xx_hal_flash_ex.c ****  */
 973:Drivers/STM32F3xx_HAL_Driver/Src/stm32f3xx_hal_flash_ex.c **** 
 974:Drivers/STM32F3xx_HAL_Driver/Src/stm32f3xx_hal_flash_ex.c **** /**
 975:Drivers/STM32F3xx_HAL_Driver/Src/stm32f3xx_hal_flash_ex.c ****   * @brief  Erase the specified FLASH memory page
 976:Drivers/STM32F3xx_HAL_Driver/Src/stm32f3xx_hal_flash_ex.c ****   * @param  PageAddress FLASH page to erase
 977:Drivers/STM32F3xx_HAL_Driver/Src/stm32f3xx_hal_flash_ex.c ****   *         The value of this parameter depend on device used within the same series      
 978:Drivers/STM32F3xx_HAL_Driver/Src/stm32f3xx_hal_flash_ex.c ****   * 
 979:Drivers/STM32F3xx_HAL_Driver/Src/stm32f3xx_hal_flash_ex.c ****   * @retval None
 980:Drivers/STM32F3xx_HAL_Driver/Src/stm32f3xx_hal_flash_ex.c ****   */
 981:Drivers/STM32F3xx_HAL_Driver/Src/stm32f3xx_hal_flash_ex.c **** void FLASH_PageErase(uint32_t PageAddress)
 982:Drivers/STM32F3xx_HAL_Driver/Src/stm32f3xx_hal_flash_ex.c **** {
ARM GAS  /var/folders/md/lgcc8l7571l9vt9sx0g0zflw0000gn/T//ccyhNZ7g.s 			page 57


 1348              		.loc 1 982 1 is_stmt 1 view -0
 1349              		.cfi_startproc
 1350              		@ args = 0, pretend = 0, frame = 0
 1351              		@ frame_needed = 0, uses_anonymous_args = 0
 1352              		@ link register save eliminated.
 983:Drivers/STM32F3xx_HAL_Driver/Src/stm32f3xx_hal_flash_ex.c ****   /* Clean the error context */
 984:Drivers/STM32F3xx_HAL_Driver/Src/stm32f3xx_hal_flash_ex.c ****   pFlash.ErrorCode = HAL_FLASH_ERROR_NONE;
 1353              		.loc 1 984 3 view .LVU384
 1354              		.loc 1 984 20 is_stmt 0 view .LVU385
 1355 0000 064B     		ldr	r3, .L98
 1356 0002 0022     		movs	r2, #0
 1357 0004 DA61     		str	r2, [r3, #28]
 985:Drivers/STM32F3xx_HAL_Driver/Src/stm32f3xx_hal_flash_ex.c **** 
 986:Drivers/STM32F3xx_HAL_Driver/Src/stm32f3xx_hal_flash_ex.c ****     /* Proceed to erase the page */
 987:Drivers/STM32F3xx_HAL_Driver/Src/stm32f3xx_hal_flash_ex.c ****     SET_BIT(FLASH->CR, FLASH_CR_PER);
 1358              		.loc 1 987 5 is_stmt 1 view .LVU386
 1359 0006 064B     		ldr	r3, .L98+4
 1360 0008 1A69     		ldr	r2, [r3, #16]
 1361 000a 42F00202 		orr	r2, r2, #2
 1362 000e 1A61     		str	r2, [r3, #16]
 988:Drivers/STM32F3xx_HAL_Driver/Src/stm32f3xx_hal_flash_ex.c ****     WRITE_REG(FLASH->AR, PageAddress);
 1363              		.loc 1 988 5 view .LVU387
 1364 0010 5861     		str	r0, [r3, #20]
 989:Drivers/STM32F3xx_HAL_Driver/Src/stm32f3xx_hal_flash_ex.c ****     SET_BIT(FLASH->CR, FLASH_CR_STRT);
 1365              		.loc 1 989 5 view .LVU388
 1366 0012 1A69     		ldr	r2, [r3, #16]
 1367 0014 42F04002 		orr	r2, r2, #64
 1368 0018 1A61     		str	r2, [r3, #16]
 990:Drivers/STM32F3xx_HAL_Driver/Src/stm32f3xx_hal_flash_ex.c **** }
 1369              		.loc 1 990 1 is_stmt 0 view .LVU389
 1370 001a 7047     		bx	lr
 1371              	.L99:
 1372              		.align	2
 1373              	.L98:
 1374 001c 00000000 		.word	pFlash
 1375 0020 00200240 		.word	1073881088
 1376              		.cfi_endproc
 1377              	.LFE141:
 1379              		.section	.text.HAL_FLASHEx_Erase,"ax",%progbits
 1380              		.align	1
 1381              		.global	HAL_FLASHEx_Erase
 1382              		.syntax unified
 1383              		.thumb
 1384              		.thumb_func
 1385              		.fpu fpv4-sp-d16
 1387              	HAL_FLASHEx_Erase:
 1388              	.LVL141:
 1389              	.LFB126:
 176:Drivers/STM32F3xx_HAL_Driver/Src/stm32f3xx_hal_flash_ex.c ****   HAL_StatusTypeDef status = HAL_ERROR;
 1390              		.loc 1 176 1 is_stmt 1 view -0
 1391              		.cfi_startproc
 1392              		@ args = 0, pretend = 0, frame = 0
 1393              		@ frame_needed = 0, uses_anonymous_args = 0
 177:Drivers/STM32F3xx_HAL_Driver/Src/stm32f3xx_hal_flash_ex.c ****   uint32_t address = 0U;
 1394              		.loc 1 177 3 view .LVU391
 178:Drivers/STM32F3xx_HAL_Driver/Src/stm32f3xx_hal_flash_ex.c **** 
 1395              		.loc 1 178 3 view .LVU392
ARM GAS  /var/folders/md/lgcc8l7571l9vt9sx0g0zflw0000gn/T//ccyhNZ7g.s 			page 58


 181:Drivers/STM32F3xx_HAL_Driver/Src/stm32f3xx_hal_flash_ex.c **** 
 1396              		.loc 1 181 3 view .LVU393
 181:Drivers/STM32F3xx_HAL_Driver/Src/stm32f3xx_hal_flash_ex.c **** 
 1397              		.loc 1 181 3 view .LVU394
 1398 0000 264B     		ldr	r3, .L117
 1399 0002 1B7E     		ldrb	r3, [r3, #24]	@ zero_extendqisi2
 1400 0004 012B     		cmp	r3, #1
 1401 0006 45D0     		beq	.L107
 176:Drivers/STM32F3xx_HAL_Driver/Src/stm32f3xx_hal_flash_ex.c ****   HAL_StatusTypeDef status = HAL_ERROR;
 1402              		.loc 1 176 1 is_stmt 0 discriminator 2 view .LVU395
 1403 0008 70B5     		push	{r4, r5, r6, lr}
 1404              	.LCFI9:
 1405              		.cfi_def_cfa_offset 16
 1406              		.cfi_offset 4, -16
 1407              		.cfi_offset 5, -12
 1408              		.cfi_offset 6, -8
 1409              		.cfi_offset 14, -4
 1410 000a 0E46     		mov	r6, r1
 1411 000c 0546     		mov	r5, r0
 181:Drivers/STM32F3xx_HAL_Driver/Src/stm32f3xx_hal_flash_ex.c **** 
 1412              		.loc 1 181 3 is_stmt 1 discriminator 2 view .LVU396
 1413 000e 234B     		ldr	r3, .L117
 1414 0010 0122     		movs	r2, #1
 1415 0012 1A76     		strb	r2, [r3, #24]
 184:Drivers/STM32F3xx_HAL_Driver/Src/stm32f3xx_hal_flash_ex.c **** 
 1416              		.loc 1 184 3 discriminator 2 view .LVU397
 186:Drivers/STM32F3xx_HAL_Driver/Src/stm32f3xx_hal_flash_ex.c ****   {
 1417              		.loc 1 186 3 discriminator 2 view .LVU398
 186:Drivers/STM32F3xx_HAL_Driver/Src/stm32f3xx_hal_flash_ex.c ****   {
 1418              		.loc 1 186 17 is_stmt 0 discriminator 2 view .LVU399
 1419 0014 0368     		ldr	r3, [r0]
 186:Drivers/STM32F3xx_HAL_Driver/Src/stm32f3xx_hal_flash_ex.c ****   {
 1420              		.loc 1 186 6 discriminator 2 view .LVU400
 1421 0016 9342     		cmp	r3, r2
 1422 0018 20D0     		beq	.L114
 206:Drivers/STM32F3xx_HAL_Driver/Src/stm32f3xx_hal_flash_ex.c ****     assert_param(IS_FLASH_NB_PAGES(pEraseInit->PageAddress, pEraseInit->NbPages));
 1423              		.loc 1 206 5 is_stmt 1 view .LVU401
 207:Drivers/STM32F3xx_HAL_Driver/Src/stm32f3xx_hal_flash_ex.c ****     
 1424              		.loc 1 207 5 view .LVU402
 211:Drivers/STM32F3xx_HAL_Driver/Src/stm32f3xx_hal_flash_ex.c ****       {
 1425              		.loc 1 211 7 view .LVU403
 211:Drivers/STM32F3xx_HAL_Driver/Src/stm32f3xx_hal_flash_ex.c ****       {
 1426              		.loc 1 211 11 is_stmt 0 view .LVU404
 1427 001a 4CF25030 		movw	r0, #50000
 1428              	.LVL142:
 211:Drivers/STM32F3xx_HAL_Driver/Src/stm32f3xx_hal_flash_ex.c ****       {
 1429              		.loc 1 211 11 view .LVU405
 1430 001e FFF7FEFF 		bl	FLASH_WaitForLastOperation
 1431              	.LVL143:
 211:Drivers/STM32F3xx_HAL_Driver/Src/stm32f3xx_hal_flash_ex.c ****       {
 1432              		.loc 1 211 10 view .LVU406
 1433 0022 88BB     		cbnz	r0, .L109
 214:Drivers/STM32F3xx_HAL_Driver/Src/stm32f3xx_hal_flash_ex.c ****         
 1434              		.loc 1 214 9 is_stmt 1 view .LVU407
 214:Drivers/STM32F3xx_HAL_Driver/Src/stm32f3xx_hal_flash_ex.c ****         
 1435              		.loc 1 214 20 is_stmt 0 view .LVU408
 1436 0024 4FF0FF33 		mov	r3, #-1
ARM GAS  /var/folders/md/lgcc8l7571l9vt9sx0g0zflw0000gn/T//ccyhNZ7g.s 			page 59


 1437 0028 3360     		str	r3, [r6]
 217:Drivers/STM32F3xx_HAL_Driver/Src/stm32f3xx_hal_flash_ex.c ****             address < ((pEraseInit->NbPages * FLASH_PAGE_SIZE) + pEraseInit->PageAddress);
 1438              		.loc 1 217 9 is_stmt 1 view .LVU409
 217:Drivers/STM32F3xx_HAL_Driver/Src/stm32f3xx_hal_flash_ex.c ****             address < ((pEraseInit->NbPages * FLASH_PAGE_SIZE) + pEraseInit->PageAddress);
 1439              		.loc 1 217 21 is_stmt 0 view .LVU410
 1440 002a 6C68     		ldr	r4, [r5, #4]
 1441              	.LVL144:
 177:Drivers/STM32F3xx_HAL_Driver/Src/stm32f3xx_hal_flash_ex.c ****   uint32_t address = 0U;
 1442              		.loc 1 177 21 view .LVU411
 1443 002c 0121     		movs	r1, #1
 1444              	.LVL145:
 1445              	.L104:
 218:Drivers/STM32F3xx_HAL_Driver/Src/stm32f3xx_hal_flash_ex.c ****             address += FLASH_PAGE_SIZE)
 1446              		.loc 1 218 35 discriminator 1 view .LVU412
 1447 002e AA68     		ldr	r2, [r5, #8]
 218:Drivers/STM32F3xx_HAL_Driver/Src/stm32f3xx_hal_flash_ex.c ****             address += FLASH_PAGE_SIZE)
 1448              		.loc 1 218 76 discriminator 1 view .LVU413
 1449 0030 6B68     		ldr	r3, [r5, #4]
 218:Drivers/STM32F3xx_HAL_Driver/Src/stm32f3xx_hal_flash_ex.c ****             address += FLASH_PAGE_SIZE)
 1450              		.loc 1 218 64 discriminator 1 view .LVU414
 1451 0032 03EBC223 		add	r3, r3, r2, lsl #11
 217:Drivers/STM32F3xx_HAL_Driver/Src/stm32f3xx_hal_flash_ex.c ****             address < ((pEraseInit->NbPages * FLASH_PAGE_SIZE) + pEraseInit->PageAddress);
 1452              		.loc 1 217 9 discriminator 1 view .LVU415
 1453 0036 A342     		cmp	r3, r4
 1454 0038 27D9     		bls	.L103
 221:Drivers/STM32F3xx_HAL_Driver/Src/stm32f3xx_hal_flash_ex.c ****           
 1455              		.loc 1 221 11 is_stmt 1 view .LVU416
 1456 003a 2046     		mov	r0, r4
 1457 003c FFF7FEFF 		bl	FLASH_PageErase
 1458              	.LVL146:
 224:Drivers/STM32F3xx_HAL_Driver/Src/stm32f3xx_hal_flash_ex.c ****           
 1459              		.loc 1 224 11 view .LVU417
 224:Drivers/STM32F3xx_HAL_Driver/Src/stm32f3xx_hal_flash_ex.c ****           
 1460              		.loc 1 224 20 is_stmt 0 view .LVU418
 1461 0040 4CF25030 		movw	r0, #50000
 1462 0044 FFF7FEFF 		bl	FLASH_WaitForLastOperation
 1463              	.LVL147:
 227:Drivers/STM32F3xx_HAL_Driver/Src/stm32f3xx_hal_flash_ex.c ****           
 1464              		.loc 1 227 11 is_stmt 1 view .LVU419
 1465 0048 154A     		ldr	r2, .L117+4
 1466 004a 1369     		ldr	r3, [r2, #16]
 1467 004c 23F00203 		bic	r3, r3, #2
 1468 0050 1361     		str	r3, [r2, #16]
 229:Drivers/STM32F3xx_HAL_Driver/Src/stm32f3xx_hal_flash_ex.c ****           {
 1469              		.loc 1 229 11 view .LVU420
 229:Drivers/STM32F3xx_HAL_Driver/Src/stm32f3xx_hal_flash_ex.c ****           {
 1470              		.loc 1 229 14 is_stmt 0 view .LVU421
 1471 0052 0146     		mov	r1, r0
 1472 0054 B0B9     		cbnz	r0, .L115
 219:Drivers/STM32F3xx_HAL_Driver/Src/stm32f3xx_hal_flash_ex.c ****         {
 1473              		.loc 1 219 21 view .LVU422
 1474 0056 04F50064 		add	r4, r4, #2048
 1475              	.LVL148:
 219:Drivers/STM32F3xx_HAL_Driver/Src/stm32f3xx_hal_flash_ex.c ****         {
 1476              		.loc 1 219 21 view .LVU423
 1477 005a E8E7     		b	.L104
 1478              	.LVL149:
ARM GAS  /var/folders/md/lgcc8l7571l9vt9sx0g0zflw0000gn/T//ccyhNZ7g.s 			page 60


 1479              	.L114:
 190:Drivers/STM32F3xx_HAL_Driver/Src/stm32f3xx_hal_flash_ex.c ****       {
 1480              		.loc 1 190 7 is_stmt 1 view .LVU424
 190:Drivers/STM32F3xx_HAL_Driver/Src/stm32f3xx_hal_flash_ex.c ****       {
 1481              		.loc 1 190 11 is_stmt 0 view .LVU425
 1482 005c 4CF25030 		movw	r0, #50000
 1483              	.LVL150:
 190:Drivers/STM32F3xx_HAL_Driver/Src/stm32f3xx_hal_flash_ex.c ****       {
 1484              		.loc 1 190 11 view .LVU426
 1485 0060 FFF7FEFF 		bl	FLASH_WaitForLastOperation
 1486              	.LVL151:
 190:Drivers/STM32F3xx_HAL_Driver/Src/stm32f3xx_hal_flash_ex.c ****       {
 1487              		.loc 1 190 10 view .LVU427
 1488 0064 08B1     		cbz	r0, .L116
 177:Drivers/STM32F3xx_HAL_Driver/Src/stm32f3xx_hal_flash_ex.c ****   uint32_t address = 0U;
 1489              		.loc 1 177 21 view .LVU428
 1490 0066 0121     		movs	r1, #1
 1491 0068 0FE0     		b	.L103
 1492              	.L116:
 193:Drivers/STM32F3xx_HAL_Driver/Src/stm32f3xx_hal_flash_ex.c ****         
 1493              		.loc 1 193 9 is_stmt 1 view .LVU429
 1494 006a FFF7FEFF 		bl	FLASH_MassErase
 1495              	.LVL152:
 196:Drivers/STM32F3xx_HAL_Driver/Src/stm32f3xx_hal_flash_ex.c ****         
 1496              		.loc 1 196 9 view .LVU430
 196:Drivers/STM32F3xx_HAL_Driver/Src/stm32f3xx_hal_flash_ex.c ****         
 1497              		.loc 1 196 18 is_stmt 0 view .LVU431
 1498 006e 4CF25030 		movw	r0, #50000
 1499 0072 FFF7FEFF 		bl	FLASH_WaitForLastOperation
 1500              	.LVL153:
 1501 0076 0146     		mov	r1, r0
 1502              	.LVL154:
 199:Drivers/STM32F3xx_HAL_Driver/Src/stm32f3xx_hal_flash_ex.c ****       }
 1503              		.loc 1 199 9 is_stmt 1 view .LVU432
 1504 0078 094A     		ldr	r2, .L117+4
 1505 007a 1369     		ldr	r3, [r2, #16]
 1506 007c 23F00403 		bic	r3, r3, #4
 1507 0080 1361     		str	r3, [r2, #16]
 1508 0082 02E0     		b	.L103
 1509              	.LVL155:
 1510              	.L115:
 232:Drivers/STM32F3xx_HAL_Driver/Src/stm32f3xx_hal_flash_ex.c ****             break;
 1511              		.loc 1 232 13 view .LVU433
 232:Drivers/STM32F3xx_HAL_Driver/Src/stm32f3xx_hal_flash_ex.c ****             break;
 1512              		.loc 1 232 24 is_stmt 0 view .LVU434
 1513 0084 3460     		str	r4, [r6]
 233:Drivers/STM32F3xx_HAL_Driver/Src/stm32f3xx_hal_flash_ex.c ****           }
 1514              		.loc 1 233 13 is_stmt 1 view .LVU435
 1515 0086 00E0     		b	.L103
 1516              	.LVL156:
 1517              	.L109:
 177:Drivers/STM32F3xx_HAL_Driver/Src/stm32f3xx_hal_flash_ex.c ****   uint32_t address = 0U;
 1518              		.loc 1 177 21 is_stmt 0 view .LVU436
 1519 0088 0121     		movs	r1, #1
 1520              	.LVL157:
 1521              	.L103:
 240:Drivers/STM32F3xx_HAL_Driver/Src/stm32f3xx_hal_flash_ex.c **** 
ARM GAS  /var/folders/md/lgcc8l7571l9vt9sx0g0zflw0000gn/T//ccyhNZ7g.s 			page 61


 1522              		.loc 1 240 3 is_stmt 1 view .LVU437
 240:Drivers/STM32F3xx_HAL_Driver/Src/stm32f3xx_hal_flash_ex.c **** 
 1523              		.loc 1 240 3 view .LVU438
 1524 008a 044B     		ldr	r3, .L117
 1525 008c 0022     		movs	r2, #0
 1526 008e 1A76     		strb	r2, [r3, #24]
 242:Drivers/STM32F3xx_HAL_Driver/Src/stm32f3xx_hal_flash_ex.c **** }
 1527              		.loc 1 242 3 view .LVU439
 243:Drivers/STM32F3xx_HAL_Driver/Src/stm32f3xx_hal_flash_ex.c **** 
 1528              		.loc 1 243 1 is_stmt 0 view .LVU440
 1529 0090 0846     		mov	r0, r1
 1530 0092 70BD     		pop	{r4, r5, r6, pc}
 1531              	.LVL158:
 1532              	.L107:
 1533              	.LCFI10:
 1534              		.cfi_def_cfa_offset 0
 1535              		.cfi_restore 4
 1536              		.cfi_restore 5
 1537              		.cfi_restore 6
 1538              		.cfi_restore 14
 181:Drivers/STM32F3xx_HAL_Driver/Src/stm32f3xx_hal_flash_ex.c **** 
 1539              		.loc 1 181 3 view .LVU441
 1540 0094 0221     		movs	r1, #2
 1541              	.LVL159:
 243:Drivers/STM32F3xx_HAL_Driver/Src/stm32f3xx_hal_flash_ex.c **** 
 1542              		.loc 1 243 1 view .LVU442
 1543 0096 0846     		mov	r0, r1
 1544              	.LVL160:
 243:Drivers/STM32F3xx_HAL_Driver/Src/stm32f3xx_hal_flash_ex.c **** 
 1545              		.loc 1 243 1 view .LVU443
 1546 0098 7047     		bx	lr
 1547              	.L118:
 1548 009a 00BF     		.align	2
 1549              	.L117:
 1550 009c 00000000 		.word	pFlash
 1551 00a0 00200240 		.word	1073881088
 1552              		.cfi_endproc
 1553              	.LFE126:
 1555              		.section	.text.HAL_FLASHEx_Erase_IT,"ax",%progbits
 1556              		.align	1
 1557              		.global	HAL_FLASHEx_Erase_IT
 1558              		.syntax unified
 1559              		.thumb
 1560              		.thumb_func
 1561              		.fpu fpv4-sp-d16
 1563              	HAL_FLASHEx_Erase_IT:
 1564              	.LVL161:
 1565              	.LFB127:
 257:Drivers/STM32F3xx_HAL_Driver/Src/stm32f3xx_hal_flash_ex.c ****   HAL_StatusTypeDef status = HAL_OK;
 1566              		.loc 1 257 1 is_stmt 1 view -0
 1567              		.cfi_startproc
 1568              		@ args = 0, pretend = 0, frame = 0
 1569              		@ frame_needed = 0, uses_anonymous_args = 0
 257:Drivers/STM32F3xx_HAL_Driver/Src/stm32f3xx_hal_flash_ex.c ****   HAL_StatusTypeDef status = HAL_OK;
 1570              		.loc 1 257 1 is_stmt 0 view .LVU445
 1571 0000 10B5     		push	{r4, lr}
 1572              	.LCFI11:
ARM GAS  /var/folders/md/lgcc8l7571l9vt9sx0g0zflw0000gn/T//ccyhNZ7g.s 			page 62


 1573              		.cfi_def_cfa_offset 8
 1574              		.cfi_offset 4, -8
 1575              		.cfi_offset 14, -4
 258:Drivers/STM32F3xx_HAL_Driver/Src/stm32f3xx_hal_flash_ex.c **** 
 1576              		.loc 1 258 3 is_stmt 1 view .LVU446
 1577              	.LVL162:
 261:Drivers/STM32F3xx_HAL_Driver/Src/stm32f3xx_hal_flash_ex.c **** 
 1578              		.loc 1 261 3 view .LVU447
 261:Drivers/STM32F3xx_HAL_Driver/Src/stm32f3xx_hal_flash_ex.c **** 
 1579              		.loc 1 261 3 view .LVU448
 1580 0002 144B     		ldr	r3, .L126
 1581 0004 1B7E     		ldrb	r3, [r3, #24]	@ zero_extendqisi2
 1582 0006 012B     		cmp	r3, #1
 1583 0008 1FD0     		beq	.L122
 261:Drivers/STM32F3xx_HAL_Driver/Src/stm32f3xx_hal_flash_ex.c **** 
 1584              		.loc 1 261 3 discriminator 2 view .LVU449
 1585 000a 124B     		ldr	r3, .L126
 1586 000c 0122     		movs	r2, #1
 1587 000e 1A76     		strb	r2, [r3, #24]
 264:Drivers/STM32F3xx_HAL_Driver/Src/stm32f3xx_hal_flash_ex.c ****   {
 1588              		.loc 1 264 3 discriminator 2 view .LVU450
 264:Drivers/STM32F3xx_HAL_Driver/Src/stm32f3xx_hal_flash_ex.c ****   {
 1589              		.loc 1 264 13 is_stmt 0 discriminator 2 view .LVU451
 1590 0010 1B78     		ldrb	r3, [r3]	@ zero_extendqisi2
 264:Drivers/STM32F3xx_HAL_Driver/Src/stm32f3xx_hal_flash_ex.c ****   {
 1591              		.loc 1 264 6 discriminator 2 view .LVU452
 1592 0012 03F0FF04 		and	r4, r3, #255
 1593 0016 D3B9     		cbnz	r3, .L123
 270:Drivers/STM32F3xx_HAL_Driver/Src/stm32f3xx_hal_flash_ex.c **** 
 1594              		.loc 1 270 3 is_stmt 1 view .LVU453
 273:Drivers/STM32F3xx_HAL_Driver/Src/stm32f3xx_hal_flash_ex.c **** 
 1595              		.loc 1 273 3 view .LVU454
 1596 0018 0F4A     		ldr	r2, .L126+4
 1597 001a 1369     		ldr	r3, [r2, #16]
 1598 001c 43F4A053 		orr	r3, r3, #5120
 1599 0020 1361     		str	r3, [r2, #16]
 275:Drivers/STM32F3xx_HAL_Driver/Src/stm32f3xx_hal_flash_ex.c ****   {
 1600              		.loc 1 275 3 view .LVU455
 275:Drivers/STM32F3xx_HAL_Driver/Src/stm32f3xx_hal_flash_ex.c ****   {
 1601              		.loc 1 275 17 is_stmt 0 view .LVU456
 1602 0022 0368     		ldr	r3, [r0]
 275:Drivers/STM32F3xx_HAL_Driver/Src/stm32f3xx_hal_flash_ex.c ****   {
 1603              		.loc 1 275 6 view .LVU457
 1604 0024 012B     		cmp	r3, #1
 1605 0026 0AD0     		beq	.L125
 286:Drivers/STM32F3xx_HAL_Driver/Src/stm32f3xx_hal_flash_ex.c ****     assert_param(IS_FLASH_NB_PAGES(pEraseInit->PageAddress, pEraseInit->NbPages));
 1606              		.loc 1 286 5 is_stmt 1 view .LVU458
 287:Drivers/STM32F3xx_HAL_Driver/Src/stm32f3xx_hal_flash_ex.c **** 
 1607              		.loc 1 287 5 view .LVU459
 289:Drivers/STM32F3xx_HAL_Driver/Src/stm32f3xx_hal_flash_ex.c ****     pFlash.DataRemaining = pEraseInit->NbPages;
 1608              		.loc 1 289 5 view .LVU460
 289:Drivers/STM32F3xx_HAL_Driver/Src/stm32f3xx_hal_flash_ex.c ****     pFlash.DataRemaining = pEraseInit->NbPages;
 1609              		.loc 1 289 29 is_stmt 0 view .LVU461
 1610 0028 0A4B     		ldr	r3, .L126
 1611 002a 0122     		movs	r2, #1
 1612 002c 1A70     		strb	r2, [r3]
 290:Drivers/STM32F3xx_HAL_Driver/Src/stm32f3xx_hal_flash_ex.c ****     pFlash.Address = pEraseInit->PageAddress;
ARM GAS  /var/folders/md/lgcc8l7571l9vt9sx0g0zflw0000gn/T//ccyhNZ7g.s 			page 63


 1613              		.loc 1 290 5 is_stmt 1 view .LVU462
 290:Drivers/STM32F3xx_HAL_Driver/Src/stm32f3xx_hal_flash_ex.c ****     pFlash.Address = pEraseInit->PageAddress;
 1614              		.loc 1 290 38 is_stmt 0 view .LVU463
 1615 002e 8268     		ldr	r2, [r0, #8]
 290:Drivers/STM32F3xx_HAL_Driver/Src/stm32f3xx_hal_flash_ex.c ****     pFlash.Address = pEraseInit->PageAddress;
 1616              		.loc 1 290 26 view .LVU464
 1617 0030 5A60     		str	r2, [r3, #4]
 291:Drivers/STM32F3xx_HAL_Driver/Src/stm32f3xx_hal_flash_ex.c **** 
 1618              		.loc 1 291 5 is_stmt 1 view .LVU465
 291:Drivers/STM32F3xx_HAL_Driver/Src/stm32f3xx_hal_flash_ex.c **** 
 1619              		.loc 1 291 32 is_stmt 0 view .LVU466
 1620 0032 4068     		ldr	r0, [r0, #4]
 1621              	.LVL163:
 291:Drivers/STM32F3xx_HAL_Driver/Src/stm32f3xx_hal_flash_ex.c **** 
 1622              		.loc 1 291 20 view .LVU467
 1623 0034 9860     		str	r0, [r3, #8]
 294:Drivers/STM32F3xx_HAL_Driver/Src/stm32f3xx_hal_flash_ex.c ****   }
 1624              		.loc 1 294 5 is_stmt 1 view .LVU468
 1625 0036 FFF7FEFF 		bl	FLASH_PageErase
 1626              	.LVL164:
 1627              	.L120:
 298:Drivers/STM32F3xx_HAL_Driver/Src/stm32f3xx_hal_flash_ex.c **** 
 1628              		.loc 1 298 1 is_stmt 0 view .LVU469
 1629 003a 2046     		mov	r0, r4
 1630 003c 10BD     		pop	{r4, pc}
 1631              	.LVL165:
 1632              	.L125:
 278:Drivers/STM32F3xx_HAL_Driver/Src/stm32f3xx_hal_flash_ex.c ****         FLASH_MassErase();
 1633              		.loc 1 278 5 is_stmt 1 view .LVU470
 278:Drivers/STM32F3xx_HAL_Driver/Src/stm32f3xx_hal_flash_ex.c ****         FLASH_MassErase();
 1634              		.loc 1 278 29 is_stmt 0 view .LVU471
 1635 003e 054B     		ldr	r3, .L126
 1636 0040 0222     		movs	r2, #2
 1637 0042 1A70     		strb	r2, [r3]
 279:Drivers/STM32F3xx_HAL_Driver/Src/stm32f3xx_hal_flash_ex.c ****   }
 1638              		.loc 1 279 9 is_stmt 1 view .LVU472
 1639 0044 FFF7FEFF 		bl	FLASH_MassErase
 1640              	.LVL166:
 279:Drivers/STM32F3xx_HAL_Driver/Src/stm32f3xx_hal_flash_ex.c ****   }
 1641              		.loc 1 279 9 is_stmt 0 view .LVU473
 1642 0048 F7E7     		b	.L120
 1643              	.LVL167:
 1644              	.L122:
 261:Drivers/STM32F3xx_HAL_Driver/Src/stm32f3xx_hal_flash_ex.c **** 
 1645              		.loc 1 261 3 view .LVU474
 1646 004a 0224     		movs	r4, #2
 1647 004c F5E7     		b	.L120
 1648              	.L123:
 266:Drivers/STM32F3xx_HAL_Driver/Src/stm32f3xx_hal_flash_ex.c ****   }
 1649              		.loc 1 266 12 view .LVU475
 1650 004e 0124     		movs	r4, #1
 1651 0050 F3E7     		b	.L120
 1652              	.L127:
 1653 0052 00BF     		.align	2
 1654              	.L126:
 1655 0054 00000000 		.word	pFlash
 1656 0058 00200240 		.word	1073881088
ARM GAS  /var/folders/md/lgcc8l7571l9vt9sx0g0zflw0000gn/T//ccyhNZ7g.s 			page 64


 1657              		.cfi_endproc
 1658              	.LFE127:
 1660              		.text
 1661              	.Letext0:
 1662              		.file 3 "/usr/local/gcc-arm-none-eabi-8-2019-q3-update/arm-none-eabi/include/machine/_default_type
 1663              		.file 4 "/usr/local/gcc-arm-none-eabi-8-2019-q3-update/arm-none-eabi/include/sys/_stdint.h"
 1664              		.file 5 "Drivers/CMSIS/Include/core_cm4.h"
 1665              		.file 6 "Drivers/CMSIS/Device/ST/STM32F3xx/Include/system_stm32f3xx.h"
 1666              		.file 7 "Drivers/CMSIS/Device/ST/STM32F3xx/Include/stm32f303xc.h"
 1667              		.file 8 "/usr/local/gcc-arm-none-eabi-8-2019-q3-update/lib/gcc/arm-none-eabi/8.3.1/include/stddef.
 1668              		.file 9 "/usr/local/gcc-arm-none-eabi-8-2019-q3-update/arm-none-eabi/include/sys/_types.h"
 1669              		.file 10 "/usr/local/gcc-arm-none-eabi-8-2019-q3-update/arm-none-eabi/include/sys/reent.h"
 1670              		.file 11 "/usr/local/gcc-arm-none-eabi-8-2019-q3-update/arm-none-eabi/include/sys/lock.h"
 1671              		.file 12 "Drivers/STM32F3xx_HAL_Driver/Inc/stm32f3xx_hal_def.h"
 1672              		.file 13 "Drivers/STM32F3xx_HAL_Driver/Inc/stm32f3xx_hal_flash.h"
 1673              		.file 14 "Drivers/STM32F3xx_HAL_Driver/Inc/stm32f3xx_hal_flash_ex.h"
 1674              		.file 15 "Drivers/STM32F3xx_HAL_Driver/Inc/stm32f3xx_hal.h"
ARM GAS  /var/folders/md/lgcc8l7571l9vt9sx0g0zflw0000gn/T//ccyhNZ7g.s 			page 65

