ARM GAS  /var/folders/_1/sgnj6dm57r56n1x62bwb5w5h0000gn/T//cckoM3Hr.s 			page 1


   1              		.cpu cortex-m4
   2              		.eabi_attribute 27, 1
   3              		.eabi_attribute 28, 1
   4              		.eabi_attribute 20, 1
   5              		.eabi_attribute 21, 1
   6              		.eabi_attribute 23, 3
   7              		.eabi_attribute 24, 1
   8              		.eabi_attribute 25, 1
   9              		.eabi_attribute 26, 1
  10              		.eabi_attribute 30, 1
  11              		.eabi_attribute 34, 1
  12              		.eabi_attribute 18, 4
  13              		.file	"usbd_dfu.c"
  14              		.text
  15              	.Ltext0:
  16              		.cfi_sections	.debug_frame
  17              		.section	.text.USBD_DFU_GetCfgDesc,"ax",%progbits
  18              		.align	1
  19              		.arch armv7e-m
  20              		.syntax unified
  21              		.thumb
  22              		.thumb_func
  23              		.fpu fpv4-sp-d16
  25              	USBD_DFU_GetCfgDesc:
  26              	.LVL0:
  27              	.LFB129:
  28              		.file 1 "Middlewares/ST/STM32_USB_Device_Library/Class/DFU/Src/usbd_dfu.c"
   1:Middlewares/ST/STM32_USB_Device_Library/Class/DFU/Src/usbd_dfu.c **** /**
   2:Middlewares/ST/STM32_USB_Device_Library/Class/DFU/Src/usbd_dfu.c ****   ******************************************************************************
   3:Middlewares/ST/STM32_USB_Device_Library/Class/DFU/Src/usbd_dfu.c ****   * @file    usbd_dfu.c
   4:Middlewares/ST/STM32_USB_Device_Library/Class/DFU/Src/usbd_dfu.c ****   * @author  MCD Application Team
   5:Middlewares/ST/STM32_USB_Device_Library/Class/DFU/Src/usbd_dfu.c ****   * @version V2.4.2
   6:Middlewares/ST/STM32_USB_Device_Library/Class/DFU/Src/usbd_dfu.c ****   * @date    11-December-2015
   7:Middlewares/ST/STM32_USB_Device_Library/Class/DFU/Src/usbd_dfu.c ****   * @brief   This file provides the DFU core functions.
   8:Middlewares/ST/STM32_USB_Device_Library/Class/DFU/Src/usbd_dfu.c ****   *
   9:Middlewares/ST/STM32_USB_Device_Library/Class/DFU/Src/usbd_dfu.c ****   * @verbatim
  10:Middlewares/ST/STM32_USB_Device_Library/Class/DFU/Src/usbd_dfu.c ****   *      
  11:Middlewares/ST/STM32_USB_Device_Library/Class/DFU/Src/usbd_dfu.c ****   *          ===================================================================      
  12:Middlewares/ST/STM32_USB_Device_Library/Class/DFU/Src/usbd_dfu.c ****   *                                DFU Class Driver Description
  13:Middlewares/ST/STM32_USB_Device_Library/Class/DFU/Src/usbd_dfu.c ****   *          =================================================================== 
  14:Middlewares/ST/STM32_USB_Device_Library/Class/DFU/Src/usbd_dfu.c ****   *           This driver manages the DFU class V1.1 following the "Device Class Specification for 
  15:Middlewares/ST/STM32_USB_Device_Library/Class/DFU/Src/usbd_dfu.c ****   *           Device Firmware Upgrade Version 1.1 Aug 5, 2004".
  16:Middlewares/ST/STM32_USB_Device_Library/Class/DFU/Src/usbd_dfu.c ****   *           This driver implements the following aspects of the specification:
  17:Middlewares/ST/STM32_USB_Device_Library/Class/DFU/Src/usbd_dfu.c ****   *             - Device descriptor management
  18:Middlewares/ST/STM32_USB_Device_Library/Class/DFU/Src/usbd_dfu.c ****   *             - Configuration descriptor management
  19:Middlewares/ST/STM32_USB_Device_Library/Class/DFU/Src/usbd_dfu.c ****   *             - Enumeration as DFU device (in DFU mode only)
  20:Middlewares/ST/STM32_USB_Device_Library/Class/DFU/Src/usbd_dfu.c ****   *             - Requests management (supporting ST DFU sub-protocol)
  21:Middlewares/ST/STM32_USB_Device_Library/Class/DFU/Src/usbd_dfu.c ****   *             - Memory operations management (Download/Upload/Erase/Detach/GetState/GetStatus)
  22:Middlewares/ST/STM32_USB_Device_Library/Class/DFU/Src/usbd_dfu.c ****   *             - DFU state machine implementation.
  23:Middlewares/ST/STM32_USB_Device_Library/Class/DFU/Src/usbd_dfu.c ****   *          
  24:Middlewares/ST/STM32_USB_Device_Library/Class/DFU/Src/usbd_dfu.c ****   *           @note
  25:Middlewares/ST/STM32_USB_Device_Library/Class/DFU/Src/usbd_dfu.c ****   *            ST DFU sub-protocol is compliant with DFU protocol and use sub-requests to manage
  26:Middlewares/ST/STM32_USB_Device_Library/Class/DFU/Src/usbd_dfu.c ****   *            memory addressing, commands processing, specific memories operations (ie. Erase) ...
  27:Middlewares/ST/STM32_USB_Device_Library/Class/DFU/Src/usbd_dfu.c ****   *            As required by the DFU specification, only endpoint 0 is used in this application.
  28:Middlewares/ST/STM32_USB_Device_Library/Class/DFU/Src/usbd_dfu.c ****   *            Other endpoints and functions may be added to the application (ie. DFU ...)
  29:Middlewares/ST/STM32_USB_Device_Library/Class/DFU/Src/usbd_dfu.c ****   * 
  30:Middlewares/ST/STM32_USB_Device_Library/Class/DFU/Src/usbd_dfu.c ****   *           These aspects may be enriched or modified for a specific user application.
ARM GAS  /var/folders/_1/sgnj6dm57r56n1x62bwb5w5h0000gn/T//cckoM3Hr.s 			page 2


  31:Middlewares/ST/STM32_USB_Device_Library/Class/DFU/Src/usbd_dfu.c ****   *          
  32:Middlewares/ST/STM32_USB_Device_Library/Class/DFU/Src/usbd_dfu.c ****   *           This driver doesn't implement the following aspects of the specification 
  33:Middlewares/ST/STM32_USB_Device_Library/Class/DFU/Src/usbd_dfu.c ****   *           (but it is possible to manage these features with some modifications on this driver):
  34:Middlewares/ST/STM32_USB_Device_Library/Class/DFU/Src/usbd_dfu.c ****   *             - Manifestation Tolerant mode
  35:Middlewares/ST/STM32_USB_Device_Library/Class/DFU/Src/usbd_dfu.c ****   *      
  36:Middlewares/ST/STM32_USB_Device_Library/Class/DFU/Src/usbd_dfu.c ****   *  @endverbatim
  37:Middlewares/ST/STM32_USB_Device_Library/Class/DFU/Src/usbd_dfu.c ****   *
  38:Middlewares/ST/STM32_USB_Device_Library/Class/DFU/Src/usbd_dfu.c ****   ******************************************************************************
  39:Middlewares/ST/STM32_USB_Device_Library/Class/DFU/Src/usbd_dfu.c ****   * @attention
  40:Middlewares/ST/STM32_USB_Device_Library/Class/DFU/Src/usbd_dfu.c ****   *
  41:Middlewares/ST/STM32_USB_Device_Library/Class/DFU/Src/usbd_dfu.c ****   * <h2><center>&copy; COPYRIGHT 2015 STMicroelectronics</center></h2>
  42:Middlewares/ST/STM32_USB_Device_Library/Class/DFU/Src/usbd_dfu.c ****   *
  43:Middlewares/ST/STM32_USB_Device_Library/Class/DFU/Src/usbd_dfu.c ****   * Licensed under MCD-ST Liberty SW License Agreement V2, (the "License");
  44:Middlewares/ST/STM32_USB_Device_Library/Class/DFU/Src/usbd_dfu.c ****   * You may not use this file except in compliance with the License.
  45:Middlewares/ST/STM32_USB_Device_Library/Class/DFU/Src/usbd_dfu.c ****   * You may obtain a copy of the License at:
  46:Middlewares/ST/STM32_USB_Device_Library/Class/DFU/Src/usbd_dfu.c ****   *
  47:Middlewares/ST/STM32_USB_Device_Library/Class/DFU/Src/usbd_dfu.c ****   *        http://www.st.com/software_license_agreement_liberty_v2
  48:Middlewares/ST/STM32_USB_Device_Library/Class/DFU/Src/usbd_dfu.c ****   *
  49:Middlewares/ST/STM32_USB_Device_Library/Class/DFU/Src/usbd_dfu.c ****   * Unless required by applicable law or agreed to in writing, software 
  50:Middlewares/ST/STM32_USB_Device_Library/Class/DFU/Src/usbd_dfu.c ****   * distributed under the License is distributed on an "AS IS" BASIS, 
  51:Middlewares/ST/STM32_USB_Device_Library/Class/DFU/Src/usbd_dfu.c ****   * WITHOUT WARRANTIES OR CONDITIONS OF ANY KIND, either express or implied.
  52:Middlewares/ST/STM32_USB_Device_Library/Class/DFU/Src/usbd_dfu.c ****   * See the License for the specific language governing permissions and
  53:Middlewares/ST/STM32_USB_Device_Library/Class/DFU/Src/usbd_dfu.c ****   * limitations under the License.
  54:Middlewares/ST/STM32_USB_Device_Library/Class/DFU/Src/usbd_dfu.c ****   *
  55:Middlewares/ST/STM32_USB_Device_Library/Class/DFU/Src/usbd_dfu.c ****   ******************************************************************************
  56:Middlewares/ST/STM32_USB_Device_Library/Class/DFU/Src/usbd_dfu.c ****   */ 
  57:Middlewares/ST/STM32_USB_Device_Library/Class/DFU/Src/usbd_dfu.c **** 
  58:Middlewares/ST/STM32_USB_Device_Library/Class/DFU/Src/usbd_dfu.c **** /* Includes ------------------------------------------------------------------*/
  59:Middlewares/ST/STM32_USB_Device_Library/Class/DFU/Src/usbd_dfu.c **** #include "usbd_dfu.h"
  60:Middlewares/ST/STM32_USB_Device_Library/Class/DFU/Src/usbd_dfu.c **** #include "usbd_desc.h"
  61:Middlewares/ST/STM32_USB_Device_Library/Class/DFU/Src/usbd_dfu.c **** #include "usbd_ctlreq.h"
  62:Middlewares/ST/STM32_USB_Device_Library/Class/DFU/Src/usbd_dfu.c **** 
  63:Middlewares/ST/STM32_USB_Device_Library/Class/DFU/Src/usbd_dfu.c **** 
  64:Middlewares/ST/STM32_USB_Device_Library/Class/DFU/Src/usbd_dfu.c **** /** @addtogroup STM32_USB_DEVICE_LIBRARY
  65:Middlewares/ST/STM32_USB_Device_Library/Class/DFU/Src/usbd_dfu.c ****   * @{
  66:Middlewares/ST/STM32_USB_Device_Library/Class/DFU/Src/usbd_dfu.c ****   */
  67:Middlewares/ST/STM32_USB_Device_Library/Class/DFU/Src/usbd_dfu.c **** 
  68:Middlewares/ST/STM32_USB_Device_Library/Class/DFU/Src/usbd_dfu.c **** 
  69:Middlewares/ST/STM32_USB_Device_Library/Class/DFU/Src/usbd_dfu.c **** /** @defgroup USBD_DFU 
  70:Middlewares/ST/STM32_USB_Device_Library/Class/DFU/Src/usbd_dfu.c ****   * @brief usbd core module
  71:Middlewares/ST/STM32_USB_Device_Library/Class/DFU/Src/usbd_dfu.c ****   * @{
  72:Middlewares/ST/STM32_USB_Device_Library/Class/DFU/Src/usbd_dfu.c ****   */ 
  73:Middlewares/ST/STM32_USB_Device_Library/Class/DFU/Src/usbd_dfu.c **** 
  74:Middlewares/ST/STM32_USB_Device_Library/Class/DFU/Src/usbd_dfu.c **** /** @defgroup USBD_DFU_Private_TypesDefinitions
  75:Middlewares/ST/STM32_USB_Device_Library/Class/DFU/Src/usbd_dfu.c ****   * @{
  76:Middlewares/ST/STM32_USB_Device_Library/Class/DFU/Src/usbd_dfu.c ****   */ 
  77:Middlewares/ST/STM32_USB_Device_Library/Class/DFU/Src/usbd_dfu.c **** /**
  78:Middlewares/ST/STM32_USB_Device_Library/Class/DFU/Src/usbd_dfu.c ****   * @}
  79:Middlewares/ST/STM32_USB_Device_Library/Class/DFU/Src/usbd_dfu.c ****   */ 
  80:Middlewares/ST/STM32_USB_Device_Library/Class/DFU/Src/usbd_dfu.c **** 
  81:Middlewares/ST/STM32_USB_Device_Library/Class/DFU/Src/usbd_dfu.c **** 
  82:Middlewares/ST/STM32_USB_Device_Library/Class/DFU/Src/usbd_dfu.c **** /** @defgroup USBD_DFU_Private_Defines
  83:Middlewares/ST/STM32_USB_Device_Library/Class/DFU/Src/usbd_dfu.c ****   * @{
  84:Middlewares/ST/STM32_USB_Device_Library/Class/DFU/Src/usbd_dfu.c ****   */ 
  85:Middlewares/ST/STM32_USB_Device_Library/Class/DFU/Src/usbd_dfu.c **** 
  86:Middlewares/ST/STM32_USB_Device_Library/Class/DFU/Src/usbd_dfu.c **** /**
  87:Middlewares/ST/STM32_USB_Device_Library/Class/DFU/Src/usbd_dfu.c ****   * @}
ARM GAS  /var/folders/_1/sgnj6dm57r56n1x62bwb5w5h0000gn/T//cckoM3Hr.s 			page 3


  88:Middlewares/ST/STM32_USB_Device_Library/Class/DFU/Src/usbd_dfu.c ****   */ 
  89:Middlewares/ST/STM32_USB_Device_Library/Class/DFU/Src/usbd_dfu.c **** 
  90:Middlewares/ST/STM32_USB_Device_Library/Class/DFU/Src/usbd_dfu.c **** 
  91:Middlewares/ST/STM32_USB_Device_Library/Class/DFU/Src/usbd_dfu.c **** /** @defgroup USBD_DFU_Private_Macros
  92:Middlewares/ST/STM32_USB_Device_Library/Class/DFU/Src/usbd_dfu.c ****   * @{
  93:Middlewares/ST/STM32_USB_Device_Library/Class/DFU/Src/usbd_dfu.c ****   */ 
  94:Middlewares/ST/STM32_USB_Device_Library/Class/DFU/Src/usbd_dfu.c **** #define DFU_SAMPLE_FREQ(frq)      (uint8_t)(frq), (uint8_t)((frq >> 8)), (uint8_t)((frq >> 16))
  95:Middlewares/ST/STM32_USB_Device_Library/Class/DFU/Src/usbd_dfu.c **** 
  96:Middlewares/ST/STM32_USB_Device_Library/Class/DFU/Src/usbd_dfu.c **** #define DFU_PACKET_SZE(frq)          (uint8_t)(((frq * 2 * 2)/1000) & 0xFF), \
  97:Middlewares/ST/STM32_USB_Device_Library/Class/DFU/Src/usbd_dfu.c ****                                        (uint8_t)((((frq * 2 * 2)/1000) >> 8) & 0xFF)
  98:Middlewares/ST/STM32_USB_Device_Library/Class/DFU/Src/usbd_dfu.c ****                                          
  99:Middlewares/ST/STM32_USB_Device_Library/Class/DFU/Src/usbd_dfu.c **** /**
 100:Middlewares/ST/STM32_USB_Device_Library/Class/DFU/Src/usbd_dfu.c ****   * @}
 101:Middlewares/ST/STM32_USB_Device_Library/Class/DFU/Src/usbd_dfu.c ****   */ 
 102:Middlewares/ST/STM32_USB_Device_Library/Class/DFU/Src/usbd_dfu.c **** 
 103:Middlewares/ST/STM32_USB_Device_Library/Class/DFU/Src/usbd_dfu.c **** 
 104:Middlewares/ST/STM32_USB_Device_Library/Class/DFU/Src/usbd_dfu.c **** 
 105:Middlewares/ST/STM32_USB_Device_Library/Class/DFU/Src/usbd_dfu.c **** 
 106:Middlewares/ST/STM32_USB_Device_Library/Class/DFU/Src/usbd_dfu.c **** /** @defgroup USBD_DFU_Private_FunctionPrototypes
 107:Middlewares/ST/STM32_USB_Device_Library/Class/DFU/Src/usbd_dfu.c ****   * @{
 108:Middlewares/ST/STM32_USB_Device_Library/Class/DFU/Src/usbd_dfu.c ****   */
 109:Middlewares/ST/STM32_USB_Device_Library/Class/DFU/Src/usbd_dfu.c **** 
 110:Middlewares/ST/STM32_USB_Device_Library/Class/DFU/Src/usbd_dfu.c **** 
 111:Middlewares/ST/STM32_USB_Device_Library/Class/DFU/Src/usbd_dfu.c **** static uint8_t  USBD_DFU_Init (USBD_HandleTypeDef *pdev, 
 112:Middlewares/ST/STM32_USB_Device_Library/Class/DFU/Src/usbd_dfu.c ****                                uint8_t cfgidx);
 113:Middlewares/ST/STM32_USB_Device_Library/Class/DFU/Src/usbd_dfu.c **** 
 114:Middlewares/ST/STM32_USB_Device_Library/Class/DFU/Src/usbd_dfu.c **** static uint8_t  USBD_DFU_DeInit (USBD_HandleTypeDef *pdev, 
 115:Middlewares/ST/STM32_USB_Device_Library/Class/DFU/Src/usbd_dfu.c ****                                  uint8_t cfgidx);
 116:Middlewares/ST/STM32_USB_Device_Library/Class/DFU/Src/usbd_dfu.c **** 
 117:Middlewares/ST/STM32_USB_Device_Library/Class/DFU/Src/usbd_dfu.c **** static uint8_t  USBD_DFU_Setup (USBD_HandleTypeDef *pdev, 
 118:Middlewares/ST/STM32_USB_Device_Library/Class/DFU/Src/usbd_dfu.c ****                                 USBD_SetupReqTypedef *req);
 119:Middlewares/ST/STM32_USB_Device_Library/Class/DFU/Src/usbd_dfu.c **** 
 120:Middlewares/ST/STM32_USB_Device_Library/Class/DFU/Src/usbd_dfu.c **** static uint8_t  *USBD_DFU_GetCfgDesc (uint16_t *length);
 121:Middlewares/ST/STM32_USB_Device_Library/Class/DFU/Src/usbd_dfu.c **** 
 122:Middlewares/ST/STM32_USB_Device_Library/Class/DFU/Src/usbd_dfu.c **** static uint8_t  *USBD_DFU_GetDeviceQualifierDesc (uint16_t *length);
 123:Middlewares/ST/STM32_USB_Device_Library/Class/DFU/Src/usbd_dfu.c **** 
 124:Middlewares/ST/STM32_USB_Device_Library/Class/DFU/Src/usbd_dfu.c **** static uint8_t  USBD_DFU_DataIn (USBD_HandleTypeDef *pdev, uint8_t epnum);
 125:Middlewares/ST/STM32_USB_Device_Library/Class/DFU/Src/usbd_dfu.c **** 
 126:Middlewares/ST/STM32_USB_Device_Library/Class/DFU/Src/usbd_dfu.c **** static uint8_t  USBD_DFU_DataOut (USBD_HandleTypeDef *pdev, uint8_t epnum);
 127:Middlewares/ST/STM32_USB_Device_Library/Class/DFU/Src/usbd_dfu.c **** 
 128:Middlewares/ST/STM32_USB_Device_Library/Class/DFU/Src/usbd_dfu.c **** static uint8_t  USBD_DFU_EP0_RxReady (USBD_HandleTypeDef *pdev);
 129:Middlewares/ST/STM32_USB_Device_Library/Class/DFU/Src/usbd_dfu.c **** 
 130:Middlewares/ST/STM32_USB_Device_Library/Class/DFU/Src/usbd_dfu.c **** static uint8_t  USBD_DFU_EP0_TxReady (USBD_HandleTypeDef *pdev);
 131:Middlewares/ST/STM32_USB_Device_Library/Class/DFU/Src/usbd_dfu.c **** 
 132:Middlewares/ST/STM32_USB_Device_Library/Class/DFU/Src/usbd_dfu.c **** static uint8_t  USBD_DFU_SOF (USBD_HandleTypeDef *pdev);
 133:Middlewares/ST/STM32_USB_Device_Library/Class/DFU/Src/usbd_dfu.c **** 
 134:Middlewares/ST/STM32_USB_Device_Library/Class/DFU/Src/usbd_dfu.c **** static uint8_t  USBD_DFU_IsoINIncomplete (USBD_HandleTypeDef *pdev, uint8_t epnum);
 135:Middlewares/ST/STM32_USB_Device_Library/Class/DFU/Src/usbd_dfu.c **** 
 136:Middlewares/ST/STM32_USB_Device_Library/Class/DFU/Src/usbd_dfu.c **** static uint8_t  USBD_DFU_IsoOutIncomplete (USBD_HandleTypeDef *pdev, uint8_t epnum);
 137:Middlewares/ST/STM32_USB_Device_Library/Class/DFU/Src/usbd_dfu.c **** 
 138:Middlewares/ST/STM32_USB_Device_Library/Class/DFU/Src/usbd_dfu.c **** #if (USBD_SUPPORT_USER_STRING == 1)  
 139:Middlewares/ST/STM32_USB_Device_Library/Class/DFU/Src/usbd_dfu.c **** static uint8_t* USBD_DFU_GetUsrStringDesc ( USBD_HandleTypeDef *pdev, uint8_t index , uint16_t *len
 140:Middlewares/ST/STM32_USB_Device_Library/Class/DFU/Src/usbd_dfu.c **** #endif
 141:Middlewares/ST/STM32_USB_Device_Library/Class/DFU/Src/usbd_dfu.c **** 
 142:Middlewares/ST/STM32_USB_Device_Library/Class/DFU/Src/usbd_dfu.c **** static void DFU_Detach    (USBD_HandleTypeDef *pdev, USBD_SetupReqTypedef *req);
 143:Middlewares/ST/STM32_USB_Device_Library/Class/DFU/Src/usbd_dfu.c **** 
 144:Middlewares/ST/STM32_USB_Device_Library/Class/DFU/Src/usbd_dfu.c **** static void DFU_Download  (USBD_HandleTypeDef *pdev, USBD_SetupReqTypedef *req);
ARM GAS  /var/folders/_1/sgnj6dm57r56n1x62bwb5w5h0000gn/T//cckoM3Hr.s 			page 4


 145:Middlewares/ST/STM32_USB_Device_Library/Class/DFU/Src/usbd_dfu.c **** 
 146:Middlewares/ST/STM32_USB_Device_Library/Class/DFU/Src/usbd_dfu.c **** static void DFU_Upload    (USBD_HandleTypeDef *pdev, USBD_SetupReqTypedef *req);
 147:Middlewares/ST/STM32_USB_Device_Library/Class/DFU/Src/usbd_dfu.c **** 
 148:Middlewares/ST/STM32_USB_Device_Library/Class/DFU/Src/usbd_dfu.c **** static void DFU_GetStatus (USBD_HandleTypeDef *pdev);
 149:Middlewares/ST/STM32_USB_Device_Library/Class/DFU/Src/usbd_dfu.c **** 
 150:Middlewares/ST/STM32_USB_Device_Library/Class/DFU/Src/usbd_dfu.c **** static void DFU_ClearStatus (USBD_HandleTypeDef *pdev);
 151:Middlewares/ST/STM32_USB_Device_Library/Class/DFU/Src/usbd_dfu.c **** 
 152:Middlewares/ST/STM32_USB_Device_Library/Class/DFU/Src/usbd_dfu.c **** static void DFU_GetState  (USBD_HandleTypeDef *pdev);
 153:Middlewares/ST/STM32_USB_Device_Library/Class/DFU/Src/usbd_dfu.c **** 
 154:Middlewares/ST/STM32_USB_Device_Library/Class/DFU/Src/usbd_dfu.c **** static void DFU_Abort     (USBD_HandleTypeDef *pdev);
 155:Middlewares/ST/STM32_USB_Device_Library/Class/DFU/Src/usbd_dfu.c **** 
 156:Middlewares/ST/STM32_USB_Device_Library/Class/DFU/Src/usbd_dfu.c **** static void DFU_Leave  (USBD_HandleTypeDef *pdev); 
 157:Middlewares/ST/STM32_USB_Device_Library/Class/DFU/Src/usbd_dfu.c **** 
 158:Middlewares/ST/STM32_USB_Device_Library/Class/DFU/Src/usbd_dfu.c **** 
 159:Middlewares/ST/STM32_USB_Device_Library/Class/DFU/Src/usbd_dfu.c **** /**
 160:Middlewares/ST/STM32_USB_Device_Library/Class/DFU/Src/usbd_dfu.c ****   * @}
 161:Middlewares/ST/STM32_USB_Device_Library/Class/DFU/Src/usbd_dfu.c ****   */ 
 162:Middlewares/ST/STM32_USB_Device_Library/Class/DFU/Src/usbd_dfu.c **** 
 163:Middlewares/ST/STM32_USB_Device_Library/Class/DFU/Src/usbd_dfu.c **** /** @defgroup USBD_DFU_Private_Variables
 164:Middlewares/ST/STM32_USB_Device_Library/Class/DFU/Src/usbd_dfu.c ****   * @{
 165:Middlewares/ST/STM32_USB_Device_Library/Class/DFU/Src/usbd_dfu.c ****   */ 
 166:Middlewares/ST/STM32_USB_Device_Library/Class/DFU/Src/usbd_dfu.c **** 
 167:Middlewares/ST/STM32_USB_Device_Library/Class/DFU/Src/usbd_dfu.c **** USBD_ClassTypeDef  USBD_DFU = 
 168:Middlewares/ST/STM32_USB_Device_Library/Class/DFU/Src/usbd_dfu.c **** {
 169:Middlewares/ST/STM32_USB_Device_Library/Class/DFU/Src/usbd_dfu.c ****   USBD_DFU_Init,
 170:Middlewares/ST/STM32_USB_Device_Library/Class/DFU/Src/usbd_dfu.c ****   USBD_DFU_DeInit,
 171:Middlewares/ST/STM32_USB_Device_Library/Class/DFU/Src/usbd_dfu.c ****   USBD_DFU_Setup,
 172:Middlewares/ST/STM32_USB_Device_Library/Class/DFU/Src/usbd_dfu.c ****   USBD_DFU_EP0_TxReady,  
 173:Middlewares/ST/STM32_USB_Device_Library/Class/DFU/Src/usbd_dfu.c ****   USBD_DFU_EP0_RxReady,
 174:Middlewares/ST/STM32_USB_Device_Library/Class/DFU/Src/usbd_dfu.c ****   USBD_DFU_DataIn,
 175:Middlewares/ST/STM32_USB_Device_Library/Class/DFU/Src/usbd_dfu.c ****   USBD_DFU_DataOut,
 176:Middlewares/ST/STM32_USB_Device_Library/Class/DFU/Src/usbd_dfu.c ****   USBD_DFU_SOF,
 177:Middlewares/ST/STM32_USB_Device_Library/Class/DFU/Src/usbd_dfu.c ****   USBD_DFU_IsoINIncomplete,
 178:Middlewares/ST/STM32_USB_Device_Library/Class/DFU/Src/usbd_dfu.c ****   USBD_DFU_IsoOutIncomplete,      
 179:Middlewares/ST/STM32_USB_Device_Library/Class/DFU/Src/usbd_dfu.c ****   USBD_DFU_GetCfgDesc,
 180:Middlewares/ST/STM32_USB_Device_Library/Class/DFU/Src/usbd_dfu.c ****   USBD_DFU_GetCfgDesc, 
 181:Middlewares/ST/STM32_USB_Device_Library/Class/DFU/Src/usbd_dfu.c ****   USBD_DFU_GetCfgDesc,
 182:Middlewares/ST/STM32_USB_Device_Library/Class/DFU/Src/usbd_dfu.c ****   USBD_DFU_GetDeviceQualifierDesc,
 183:Middlewares/ST/STM32_USB_Device_Library/Class/DFU/Src/usbd_dfu.c **** #if (USBD_SUPPORT_USER_STRING == 1)  
 184:Middlewares/ST/STM32_USB_Device_Library/Class/DFU/Src/usbd_dfu.c ****   USBD_DFU_GetUsrStringDesc
 185:Middlewares/ST/STM32_USB_Device_Library/Class/DFU/Src/usbd_dfu.c **** #endif
 186:Middlewares/ST/STM32_USB_Device_Library/Class/DFU/Src/usbd_dfu.c **** };
 187:Middlewares/ST/STM32_USB_Device_Library/Class/DFU/Src/usbd_dfu.c **** 
 188:Middlewares/ST/STM32_USB_Device_Library/Class/DFU/Src/usbd_dfu.c **** /* USB DFU device Configuration Descriptor */
 189:Middlewares/ST/STM32_USB_Device_Library/Class/DFU/Src/usbd_dfu.c **** __ALIGN_BEGIN static uint8_t USBD_DFU_CfgDesc[USB_DFU_CONFIG_DESC_SIZ] __ALIGN_END =
 190:Middlewares/ST/STM32_USB_Device_Library/Class/DFU/Src/usbd_dfu.c **** {
 191:Middlewares/ST/STM32_USB_Device_Library/Class/DFU/Src/usbd_dfu.c ****   0x09, /* bLength: Configuation Descriptor size */
 192:Middlewares/ST/STM32_USB_Device_Library/Class/DFU/Src/usbd_dfu.c ****   USB_DESC_TYPE_CONFIGURATION, /* bDescriptorType: Configuration */
 193:Middlewares/ST/STM32_USB_Device_Library/Class/DFU/Src/usbd_dfu.c ****   USB_DFU_CONFIG_DESC_SIZ,
 194:Middlewares/ST/STM32_USB_Device_Library/Class/DFU/Src/usbd_dfu.c ****   /* wTotalLength: Bytes returned */
 195:Middlewares/ST/STM32_USB_Device_Library/Class/DFU/Src/usbd_dfu.c ****   0x00,
 196:Middlewares/ST/STM32_USB_Device_Library/Class/DFU/Src/usbd_dfu.c ****   0x01,         /*bNumInterfaces: 1 interface*/
 197:Middlewares/ST/STM32_USB_Device_Library/Class/DFU/Src/usbd_dfu.c ****   0x01,         /*bConfigurationValue: Configuration value*/
 198:Middlewares/ST/STM32_USB_Device_Library/Class/DFU/Src/usbd_dfu.c ****   0x02,         /*iConfiguration: Index of string descriptor describing the configuration*/
 199:Middlewares/ST/STM32_USB_Device_Library/Class/DFU/Src/usbd_dfu.c ****   0xC0,         /*bmAttributes: bus powered and Supprts Remote Wakeup */
 200:Middlewares/ST/STM32_USB_Device_Library/Class/DFU/Src/usbd_dfu.c ****   0x32,         /*MaxPower 100 mA: this current is used for detecting Vbus*/
 201:Middlewares/ST/STM32_USB_Device_Library/Class/DFU/Src/usbd_dfu.c ****   /* 09 */
ARM GAS  /var/folders/_1/sgnj6dm57r56n1x62bwb5w5h0000gn/T//cckoM3Hr.s 			page 5


 202:Middlewares/ST/STM32_USB_Device_Library/Class/DFU/Src/usbd_dfu.c ****   
 203:Middlewares/ST/STM32_USB_Device_Library/Class/DFU/Src/usbd_dfu.c ****   /**********  Descriptor of DFU interface 0 Alternate setting 0 **************/  
 204:Middlewares/ST/STM32_USB_Device_Library/Class/DFU/Src/usbd_dfu.c ****   USBD_DFU_IF_DESC(0), /* This interface is mandatory for all devices */
 205:Middlewares/ST/STM32_USB_Device_Library/Class/DFU/Src/usbd_dfu.c ****   
 206:Middlewares/ST/STM32_USB_Device_Library/Class/DFU/Src/usbd_dfu.c **** #if (USBD_DFU_MAX_ITF_NUM > 1)
 207:Middlewares/ST/STM32_USB_Device_Library/Class/DFU/Src/usbd_dfu.c ****   /**********  Descriptor of DFU interface 0 Alternate setting 1 **************/ 
 208:Middlewares/ST/STM32_USB_Device_Library/Class/DFU/Src/usbd_dfu.c ****   USBD_DFU_IF_DESC(1),
 209:Middlewares/ST/STM32_USB_Device_Library/Class/DFU/Src/usbd_dfu.c **** #endif /* (USBD_DFU_MAX_ITF_NUM > 1) */
 210:Middlewares/ST/STM32_USB_Device_Library/Class/DFU/Src/usbd_dfu.c **** 
 211:Middlewares/ST/STM32_USB_Device_Library/Class/DFU/Src/usbd_dfu.c **** #if (USBD_DFU_MAX_ITF_NUM > 2)
 212:Middlewares/ST/STM32_USB_Device_Library/Class/DFU/Src/usbd_dfu.c ****   /**********  Descriptor of DFU interface 0 Alternate setting 2 **************/ 
 213:Middlewares/ST/STM32_USB_Device_Library/Class/DFU/Src/usbd_dfu.c ****   USBD_DFU_IF_DESC(2),
 214:Middlewares/ST/STM32_USB_Device_Library/Class/DFU/Src/usbd_dfu.c **** #endif /* (USBD_DFU_MAX_ITF_NUM > 2) */
 215:Middlewares/ST/STM32_USB_Device_Library/Class/DFU/Src/usbd_dfu.c **** 
 216:Middlewares/ST/STM32_USB_Device_Library/Class/DFU/Src/usbd_dfu.c **** #if (USBD_DFU_MAX_ITF_NUM > 3)
 217:Middlewares/ST/STM32_USB_Device_Library/Class/DFU/Src/usbd_dfu.c ****   /**********  Descriptor of DFU interface 0 Alternate setting 3 **************/ 
 218:Middlewares/ST/STM32_USB_Device_Library/Class/DFU/Src/usbd_dfu.c ****   USBD_DFU_IF_DESC(3),
 219:Middlewares/ST/STM32_USB_Device_Library/Class/DFU/Src/usbd_dfu.c **** #endif /* (USBD_DFU_MAX_ITF_NUM > 3) */
 220:Middlewares/ST/STM32_USB_Device_Library/Class/DFU/Src/usbd_dfu.c **** 
 221:Middlewares/ST/STM32_USB_Device_Library/Class/DFU/Src/usbd_dfu.c **** #if (USBD_DFU_MAX_ITF_NUM > 4)
 222:Middlewares/ST/STM32_USB_Device_Library/Class/DFU/Src/usbd_dfu.c ****   /**********  Descriptor of DFU interface 0 Alternate setting 4 **************/ 
 223:Middlewares/ST/STM32_USB_Device_Library/Class/DFU/Src/usbd_dfu.c ****   USBD_DFU_IF_DESC(4),
 224:Middlewares/ST/STM32_USB_Device_Library/Class/DFU/Src/usbd_dfu.c **** #endif /* (USBD_DFU_MAX_ITF_NUM > 4) */
 225:Middlewares/ST/STM32_USB_Device_Library/Class/DFU/Src/usbd_dfu.c **** 
 226:Middlewares/ST/STM32_USB_Device_Library/Class/DFU/Src/usbd_dfu.c **** #if (USBD_DFU_MAX_ITF_NUM > 5)
 227:Middlewares/ST/STM32_USB_Device_Library/Class/DFU/Src/usbd_dfu.c ****   /**********  Descriptor of DFU interface 0 Alternate setting 5 **************/ 
 228:Middlewares/ST/STM32_USB_Device_Library/Class/DFU/Src/usbd_dfu.c ****   USBD_DFU_IF_DESC(5),
 229:Middlewares/ST/STM32_USB_Device_Library/Class/DFU/Src/usbd_dfu.c **** #endif /* (USBD_DFU_MAX_ITF_NUM > 5) */
 230:Middlewares/ST/STM32_USB_Device_Library/Class/DFU/Src/usbd_dfu.c **** 
 231:Middlewares/ST/STM32_USB_Device_Library/Class/DFU/Src/usbd_dfu.c **** #if (USBD_DFU_MAX_ITF_NUM > 6)
 232:Middlewares/ST/STM32_USB_Device_Library/Class/DFU/Src/usbd_dfu.c **** #error "ERROR: usbd_dfu_core.c: Modify the file to support more descriptors!"
 233:Middlewares/ST/STM32_USB_Device_Library/Class/DFU/Src/usbd_dfu.c **** #endif /* (USBD_DFU_MAX_ITF_NUM > 6) */
 234:Middlewares/ST/STM32_USB_Device_Library/Class/DFU/Src/usbd_dfu.c **** 
 235:Middlewares/ST/STM32_USB_Device_Library/Class/DFU/Src/usbd_dfu.c ****   /******************** DFU Functional Descriptor********************/
 236:Middlewares/ST/STM32_USB_Device_Library/Class/DFU/Src/usbd_dfu.c ****   0x09,   /*blength = 9 Bytes*/
 237:Middlewares/ST/STM32_USB_Device_Library/Class/DFU/Src/usbd_dfu.c ****   DFU_DESCRIPTOR_TYPE,   /* DFU Functional Descriptor*/
 238:Middlewares/ST/STM32_USB_Device_Library/Class/DFU/Src/usbd_dfu.c ****   0x0B,   /*bmAttribute
 239:Middlewares/ST/STM32_USB_Device_Library/Class/DFU/Src/usbd_dfu.c ****                 bitCanDnload             = 1      (bit 0)
 240:Middlewares/ST/STM32_USB_Device_Library/Class/DFU/Src/usbd_dfu.c ****                 bitCanUpload             = 1      (bit 1)
 241:Middlewares/ST/STM32_USB_Device_Library/Class/DFU/Src/usbd_dfu.c ****                 bitManifestationTolerant = 0      (bit 2)
 242:Middlewares/ST/STM32_USB_Device_Library/Class/DFU/Src/usbd_dfu.c ****                 bitWillDetach            = 1      (bit 3)
 243:Middlewares/ST/STM32_USB_Device_Library/Class/DFU/Src/usbd_dfu.c ****                 Reserved                          (bit4-6)
 244:Middlewares/ST/STM32_USB_Device_Library/Class/DFU/Src/usbd_dfu.c ****                 bitAcceleratedST         = 0      (bit 7)*/
 245:Middlewares/ST/STM32_USB_Device_Library/Class/DFU/Src/usbd_dfu.c ****   0xFF,   /*DetachTimeOut= 255 ms*/
 246:Middlewares/ST/STM32_USB_Device_Library/Class/DFU/Src/usbd_dfu.c ****   0x00,
 247:Middlewares/ST/STM32_USB_Device_Library/Class/DFU/Src/usbd_dfu.c ****   /*WARNING: In DMA mode the multiple MPS packets feature is still not supported
 248:Middlewares/ST/STM32_USB_Device_Library/Class/DFU/Src/usbd_dfu.c ****    ==> In this case, when using DMA USBD_DFU_XFER_SIZE should be set to 64 in usbd_conf.h */
 249:Middlewares/ST/STM32_USB_Device_Library/Class/DFU/Src/usbd_dfu.c ****   TRANSFER_SIZE_BYTES(USBD_DFU_XFER_SIZE),       /* TransferSize = 1024 Byte*/         
 250:Middlewares/ST/STM32_USB_Device_Library/Class/DFU/Src/usbd_dfu.c ****   0x1A,                                /* bcdDFUVersion*/
 251:Middlewares/ST/STM32_USB_Device_Library/Class/DFU/Src/usbd_dfu.c ****   0x01
 252:Middlewares/ST/STM32_USB_Device_Library/Class/DFU/Src/usbd_dfu.c ****   /***********************************************************/
 253:Middlewares/ST/STM32_USB_Device_Library/Class/DFU/Src/usbd_dfu.c ****   /* 9*/
 254:Middlewares/ST/STM32_USB_Device_Library/Class/DFU/Src/usbd_dfu.c **** };
 255:Middlewares/ST/STM32_USB_Device_Library/Class/DFU/Src/usbd_dfu.c ****   
 256:Middlewares/ST/STM32_USB_Device_Library/Class/DFU/Src/usbd_dfu.c **** /* USB Standard Device Descriptor */
 257:Middlewares/ST/STM32_USB_Device_Library/Class/DFU/Src/usbd_dfu.c **** __ALIGN_BEGIN static uint8_t USBD_DFU_DeviceQualifierDesc[USB_LEN_DEV_QUALIFIER_DESC] __ALIGN_END =
 258:Middlewares/ST/STM32_USB_Device_Library/Class/DFU/Src/usbd_dfu.c **** {
ARM GAS  /var/folders/_1/sgnj6dm57r56n1x62bwb5w5h0000gn/T//cckoM3Hr.s 			page 6


 259:Middlewares/ST/STM32_USB_Device_Library/Class/DFU/Src/usbd_dfu.c ****   USB_LEN_DEV_QUALIFIER_DESC,
 260:Middlewares/ST/STM32_USB_Device_Library/Class/DFU/Src/usbd_dfu.c ****   USB_DESC_TYPE_DEVICE_QUALIFIER,
 261:Middlewares/ST/STM32_USB_Device_Library/Class/DFU/Src/usbd_dfu.c ****   0x00,
 262:Middlewares/ST/STM32_USB_Device_Library/Class/DFU/Src/usbd_dfu.c ****   0x02,
 263:Middlewares/ST/STM32_USB_Device_Library/Class/DFU/Src/usbd_dfu.c ****   0x00,
 264:Middlewares/ST/STM32_USB_Device_Library/Class/DFU/Src/usbd_dfu.c ****   0x00,
 265:Middlewares/ST/STM32_USB_Device_Library/Class/DFU/Src/usbd_dfu.c ****   0x00,
 266:Middlewares/ST/STM32_USB_Device_Library/Class/DFU/Src/usbd_dfu.c ****   0x40,
 267:Middlewares/ST/STM32_USB_Device_Library/Class/DFU/Src/usbd_dfu.c ****   0x01,
 268:Middlewares/ST/STM32_USB_Device_Library/Class/DFU/Src/usbd_dfu.c ****   0x00,
 269:Middlewares/ST/STM32_USB_Device_Library/Class/DFU/Src/usbd_dfu.c **** };
 270:Middlewares/ST/STM32_USB_Device_Library/Class/DFU/Src/usbd_dfu.c **** 
 271:Middlewares/ST/STM32_USB_Device_Library/Class/DFU/Src/usbd_dfu.c **** /**
 272:Middlewares/ST/STM32_USB_Device_Library/Class/DFU/Src/usbd_dfu.c ****   * @}
 273:Middlewares/ST/STM32_USB_Device_Library/Class/DFU/Src/usbd_dfu.c ****   */ 
 274:Middlewares/ST/STM32_USB_Device_Library/Class/DFU/Src/usbd_dfu.c **** 
 275:Middlewares/ST/STM32_USB_Device_Library/Class/DFU/Src/usbd_dfu.c **** /** @defgroup USBD_DFU_Private_Functions
 276:Middlewares/ST/STM32_USB_Device_Library/Class/DFU/Src/usbd_dfu.c ****   * @{
 277:Middlewares/ST/STM32_USB_Device_Library/Class/DFU/Src/usbd_dfu.c ****   */ 
 278:Middlewares/ST/STM32_USB_Device_Library/Class/DFU/Src/usbd_dfu.c **** 
 279:Middlewares/ST/STM32_USB_Device_Library/Class/DFU/Src/usbd_dfu.c **** /**
 280:Middlewares/ST/STM32_USB_Device_Library/Class/DFU/Src/usbd_dfu.c ****   * @brief  USBD_DFU_Init
 281:Middlewares/ST/STM32_USB_Device_Library/Class/DFU/Src/usbd_dfu.c ****   *         Initialize the DFU interface
 282:Middlewares/ST/STM32_USB_Device_Library/Class/DFU/Src/usbd_dfu.c ****   * @param  pdev: device instance
 283:Middlewares/ST/STM32_USB_Device_Library/Class/DFU/Src/usbd_dfu.c ****   * @param  cfgidx: Configuration index
 284:Middlewares/ST/STM32_USB_Device_Library/Class/DFU/Src/usbd_dfu.c ****   * @retval status
 285:Middlewares/ST/STM32_USB_Device_Library/Class/DFU/Src/usbd_dfu.c ****   */
 286:Middlewares/ST/STM32_USB_Device_Library/Class/DFU/Src/usbd_dfu.c **** static uint8_t  USBD_DFU_Init (USBD_HandleTypeDef *pdev, 
 287:Middlewares/ST/STM32_USB_Device_Library/Class/DFU/Src/usbd_dfu.c ****                                uint8_t cfgidx)
 288:Middlewares/ST/STM32_USB_Device_Library/Class/DFU/Src/usbd_dfu.c **** {
 289:Middlewares/ST/STM32_USB_Device_Library/Class/DFU/Src/usbd_dfu.c ****   USBD_DFU_HandleTypeDef   *hdfu;
 290:Middlewares/ST/STM32_USB_Device_Library/Class/DFU/Src/usbd_dfu.c ****   
 291:Middlewares/ST/STM32_USB_Device_Library/Class/DFU/Src/usbd_dfu.c ****  /* Allocate Audio structure */
 292:Middlewares/ST/STM32_USB_Device_Library/Class/DFU/Src/usbd_dfu.c ****   pdev->pClassData = USBD_malloc(sizeof (USBD_DFU_HandleTypeDef));
 293:Middlewares/ST/STM32_USB_Device_Library/Class/DFU/Src/usbd_dfu.c ****   
 294:Middlewares/ST/STM32_USB_Device_Library/Class/DFU/Src/usbd_dfu.c ****   if(pdev->pClassData == NULL)
 295:Middlewares/ST/STM32_USB_Device_Library/Class/DFU/Src/usbd_dfu.c ****   {
 296:Middlewares/ST/STM32_USB_Device_Library/Class/DFU/Src/usbd_dfu.c ****     return USBD_FAIL; 
 297:Middlewares/ST/STM32_USB_Device_Library/Class/DFU/Src/usbd_dfu.c ****   }
 298:Middlewares/ST/STM32_USB_Device_Library/Class/DFU/Src/usbd_dfu.c ****   else
 299:Middlewares/ST/STM32_USB_Device_Library/Class/DFU/Src/usbd_dfu.c ****   {
 300:Middlewares/ST/STM32_USB_Device_Library/Class/DFU/Src/usbd_dfu.c ****     hdfu = (USBD_DFU_HandleTypeDef*) pdev->pClassData;
 301:Middlewares/ST/STM32_USB_Device_Library/Class/DFU/Src/usbd_dfu.c ****     
 302:Middlewares/ST/STM32_USB_Device_Library/Class/DFU/Src/usbd_dfu.c ****     hdfu->alt_setting = 0;
 303:Middlewares/ST/STM32_USB_Device_Library/Class/DFU/Src/usbd_dfu.c ****     hdfu->data_ptr = USBD_DFU_APP_DEFAULT_ADD;
 304:Middlewares/ST/STM32_USB_Device_Library/Class/DFU/Src/usbd_dfu.c ****     hdfu->wblock_num = 0;
 305:Middlewares/ST/STM32_USB_Device_Library/Class/DFU/Src/usbd_dfu.c ****     hdfu->wlength = 0;
 306:Middlewares/ST/STM32_USB_Device_Library/Class/DFU/Src/usbd_dfu.c ****     
 307:Middlewares/ST/STM32_USB_Device_Library/Class/DFU/Src/usbd_dfu.c ****     hdfu->manif_state = DFU_MANIFEST_COMPLETE;
 308:Middlewares/ST/STM32_USB_Device_Library/Class/DFU/Src/usbd_dfu.c ****     hdfu->dev_state = DFU_STATE_IDLE;
 309:Middlewares/ST/STM32_USB_Device_Library/Class/DFU/Src/usbd_dfu.c ****     
 310:Middlewares/ST/STM32_USB_Device_Library/Class/DFU/Src/usbd_dfu.c ****     hdfu->dev_status[0] = DFU_ERROR_NONE;
 311:Middlewares/ST/STM32_USB_Device_Library/Class/DFU/Src/usbd_dfu.c ****     hdfu->dev_status[1] = 0;
 312:Middlewares/ST/STM32_USB_Device_Library/Class/DFU/Src/usbd_dfu.c ****     hdfu->dev_status[2] = 0;   
 313:Middlewares/ST/STM32_USB_Device_Library/Class/DFU/Src/usbd_dfu.c ****     hdfu->dev_status[3] = 0;
 314:Middlewares/ST/STM32_USB_Device_Library/Class/DFU/Src/usbd_dfu.c ****     hdfu->dev_status[4] = DFU_STATE_IDLE;    
 315:Middlewares/ST/STM32_USB_Device_Library/Class/DFU/Src/usbd_dfu.c ****     hdfu->dev_status[5] = 0;    
ARM GAS  /var/folders/_1/sgnj6dm57r56n1x62bwb5w5h0000gn/T//cckoM3Hr.s 			page 7


 316:Middlewares/ST/STM32_USB_Device_Library/Class/DFU/Src/usbd_dfu.c ****     
 317:Middlewares/ST/STM32_USB_Device_Library/Class/DFU/Src/usbd_dfu.c ****     /* Initialize Hardware layer */
 318:Middlewares/ST/STM32_USB_Device_Library/Class/DFU/Src/usbd_dfu.c ****     if (((USBD_DFU_MediaTypeDef *)pdev->pUserData)->Init() != USBD_OK)
 319:Middlewares/ST/STM32_USB_Device_Library/Class/DFU/Src/usbd_dfu.c ****     {
 320:Middlewares/ST/STM32_USB_Device_Library/Class/DFU/Src/usbd_dfu.c ****       return USBD_FAIL;
 321:Middlewares/ST/STM32_USB_Device_Library/Class/DFU/Src/usbd_dfu.c ****     }   
 322:Middlewares/ST/STM32_USB_Device_Library/Class/DFU/Src/usbd_dfu.c ****   }
 323:Middlewares/ST/STM32_USB_Device_Library/Class/DFU/Src/usbd_dfu.c ****   return USBD_OK;
 324:Middlewares/ST/STM32_USB_Device_Library/Class/DFU/Src/usbd_dfu.c **** }
 325:Middlewares/ST/STM32_USB_Device_Library/Class/DFU/Src/usbd_dfu.c **** 
 326:Middlewares/ST/STM32_USB_Device_Library/Class/DFU/Src/usbd_dfu.c **** /**
 327:Middlewares/ST/STM32_USB_Device_Library/Class/DFU/Src/usbd_dfu.c ****   * @brief  USBD_DFU_Init
 328:Middlewares/ST/STM32_USB_Device_Library/Class/DFU/Src/usbd_dfu.c ****   *         De-Initialize the DFU layer
 329:Middlewares/ST/STM32_USB_Device_Library/Class/DFU/Src/usbd_dfu.c ****   * @param  pdev: device instance
 330:Middlewares/ST/STM32_USB_Device_Library/Class/DFU/Src/usbd_dfu.c ****   * @param  cfgidx: Configuration index
 331:Middlewares/ST/STM32_USB_Device_Library/Class/DFU/Src/usbd_dfu.c ****   * @retval status
 332:Middlewares/ST/STM32_USB_Device_Library/Class/DFU/Src/usbd_dfu.c ****   */
 333:Middlewares/ST/STM32_USB_Device_Library/Class/DFU/Src/usbd_dfu.c **** static uint8_t  USBD_DFU_DeInit (USBD_HandleTypeDef *pdev, 
 334:Middlewares/ST/STM32_USB_Device_Library/Class/DFU/Src/usbd_dfu.c ****                                  uint8_t cfgidx)
 335:Middlewares/ST/STM32_USB_Device_Library/Class/DFU/Src/usbd_dfu.c **** {
 336:Middlewares/ST/STM32_USB_Device_Library/Class/DFU/Src/usbd_dfu.c ****   USBD_DFU_HandleTypeDef   *hdfu;
 337:Middlewares/ST/STM32_USB_Device_Library/Class/DFU/Src/usbd_dfu.c ****   hdfu = (USBD_DFU_HandleTypeDef*) pdev->pClassData;
 338:Middlewares/ST/STM32_USB_Device_Library/Class/DFU/Src/usbd_dfu.c ****   
 339:Middlewares/ST/STM32_USB_Device_Library/Class/DFU/Src/usbd_dfu.c ****   hdfu->wblock_num = 0;
 340:Middlewares/ST/STM32_USB_Device_Library/Class/DFU/Src/usbd_dfu.c ****   hdfu->wlength = 0;
 341:Middlewares/ST/STM32_USB_Device_Library/Class/DFU/Src/usbd_dfu.c **** 
 342:Middlewares/ST/STM32_USB_Device_Library/Class/DFU/Src/usbd_dfu.c ****   hdfu->dev_state = DFU_STATE_IDLE;
 343:Middlewares/ST/STM32_USB_Device_Library/Class/DFU/Src/usbd_dfu.c ****   hdfu->dev_status[0] = DFU_ERROR_NONE;
 344:Middlewares/ST/STM32_USB_Device_Library/Class/DFU/Src/usbd_dfu.c ****   hdfu->dev_status[4] = DFU_STATE_IDLE;
 345:Middlewares/ST/STM32_USB_Device_Library/Class/DFU/Src/usbd_dfu.c ****  
 346:Middlewares/ST/STM32_USB_Device_Library/Class/DFU/Src/usbd_dfu.c ****   /* DeInit  physical Interface components */
 347:Middlewares/ST/STM32_USB_Device_Library/Class/DFU/Src/usbd_dfu.c ****   if(pdev->pClassData != NULL)
 348:Middlewares/ST/STM32_USB_Device_Library/Class/DFU/Src/usbd_dfu.c ****   {
 349:Middlewares/ST/STM32_USB_Device_Library/Class/DFU/Src/usbd_dfu.c ****     /* De-Initialize Hardware layer */
 350:Middlewares/ST/STM32_USB_Device_Library/Class/DFU/Src/usbd_dfu.c ****     ((USBD_DFU_MediaTypeDef *)pdev->pUserData)->DeInit(); 
 351:Middlewares/ST/STM32_USB_Device_Library/Class/DFU/Src/usbd_dfu.c ****     USBD_free(pdev->pClassData);
 352:Middlewares/ST/STM32_USB_Device_Library/Class/DFU/Src/usbd_dfu.c ****     pdev->pClassData = NULL;
 353:Middlewares/ST/STM32_USB_Device_Library/Class/DFU/Src/usbd_dfu.c ****   } 
 354:Middlewares/ST/STM32_USB_Device_Library/Class/DFU/Src/usbd_dfu.c **** 
 355:Middlewares/ST/STM32_USB_Device_Library/Class/DFU/Src/usbd_dfu.c ****   return USBD_OK;
 356:Middlewares/ST/STM32_USB_Device_Library/Class/DFU/Src/usbd_dfu.c **** }
 357:Middlewares/ST/STM32_USB_Device_Library/Class/DFU/Src/usbd_dfu.c **** 
 358:Middlewares/ST/STM32_USB_Device_Library/Class/DFU/Src/usbd_dfu.c **** /**
 359:Middlewares/ST/STM32_USB_Device_Library/Class/DFU/Src/usbd_dfu.c ****   * @brief  USBD_DFU_Setup
 360:Middlewares/ST/STM32_USB_Device_Library/Class/DFU/Src/usbd_dfu.c ****   *         Handle the DFU specific requests
 361:Middlewares/ST/STM32_USB_Device_Library/Class/DFU/Src/usbd_dfu.c ****   * @param  pdev: instance
 362:Middlewares/ST/STM32_USB_Device_Library/Class/DFU/Src/usbd_dfu.c ****   * @param  req: usb requests
 363:Middlewares/ST/STM32_USB_Device_Library/Class/DFU/Src/usbd_dfu.c ****   * @retval status
 364:Middlewares/ST/STM32_USB_Device_Library/Class/DFU/Src/usbd_dfu.c ****   */
 365:Middlewares/ST/STM32_USB_Device_Library/Class/DFU/Src/usbd_dfu.c **** static uint8_t  USBD_DFU_Setup (USBD_HandleTypeDef *pdev, 
 366:Middlewares/ST/STM32_USB_Device_Library/Class/DFU/Src/usbd_dfu.c ****                                 USBD_SetupReqTypedef *req)
 367:Middlewares/ST/STM32_USB_Device_Library/Class/DFU/Src/usbd_dfu.c **** {
 368:Middlewares/ST/STM32_USB_Device_Library/Class/DFU/Src/usbd_dfu.c ****   uint8_t *pbuf = 0;
 369:Middlewares/ST/STM32_USB_Device_Library/Class/DFU/Src/usbd_dfu.c ****   uint16_t len = 0;
 370:Middlewares/ST/STM32_USB_Device_Library/Class/DFU/Src/usbd_dfu.c ****   uint8_t ret = USBD_OK;
 371:Middlewares/ST/STM32_USB_Device_Library/Class/DFU/Src/usbd_dfu.c ****   USBD_DFU_HandleTypeDef   *hdfu;
 372:Middlewares/ST/STM32_USB_Device_Library/Class/DFU/Src/usbd_dfu.c ****   
ARM GAS  /var/folders/_1/sgnj6dm57r56n1x62bwb5w5h0000gn/T//cckoM3Hr.s 			page 8


 373:Middlewares/ST/STM32_USB_Device_Library/Class/DFU/Src/usbd_dfu.c ****   hdfu = (USBD_DFU_HandleTypeDef*) pdev->pClassData;
 374:Middlewares/ST/STM32_USB_Device_Library/Class/DFU/Src/usbd_dfu.c ****   
 375:Middlewares/ST/STM32_USB_Device_Library/Class/DFU/Src/usbd_dfu.c ****   switch (req->bmRequest & USB_REQ_TYPE_MASK)
 376:Middlewares/ST/STM32_USB_Device_Library/Class/DFU/Src/usbd_dfu.c ****   {
 377:Middlewares/ST/STM32_USB_Device_Library/Class/DFU/Src/usbd_dfu.c ****   case USB_REQ_TYPE_CLASS :  
 378:Middlewares/ST/STM32_USB_Device_Library/Class/DFU/Src/usbd_dfu.c ****     switch (req->bRequest)
 379:Middlewares/ST/STM32_USB_Device_Library/Class/DFU/Src/usbd_dfu.c ****     {
 380:Middlewares/ST/STM32_USB_Device_Library/Class/DFU/Src/usbd_dfu.c ****     case DFU_DNLOAD:
 381:Middlewares/ST/STM32_USB_Device_Library/Class/DFU/Src/usbd_dfu.c ****       DFU_Download(pdev, req);
 382:Middlewares/ST/STM32_USB_Device_Library/Class/DFU/Src/usbd_dfu.c ****       break;
 383:Middlewares/ST/STM32_USB_Device_Library/Class/DFU/Src/usbd_dfu.c ****       
 384:Middlewares/ST/STM32_USB_Device_Library/Class/DFU/Src/usbd_dfu.c ****     case DFU_UPLOAD:
 385:Middlewares/ST/STM32_USB_Device_Library/Class/DFU/Src/usbd_dfu.c ****       DFU_Upload(pdev, req);   
 386:Middlewares/ST/STM32_USB_Device_Library/Class/DFU/Src/usbd_dfu.c ****       break;
 387:Middlewares/ST/STM32_USB_Device_Library/Class/DFU/Src/usbd_dfu.c ****       
 388:Middlewares/ST/STM32_USB_Device_Library/Class/DFU/Src/usbd_dfu.c ****     case DFU_GETSTATUS:
 389:Middlewares/ST/STM32_USB_Device_Library/Class/DFU/Src/usbd_dfu.c ****       DFU_GetStatus(pdev);
 390:Middlewares/ST/STM32_USB_Device_Library/Class/DFU/Src/usbd_dfu.c ****       break;
 391:Middlewares/ST/STM32_USB_Device_Library/Class/DFU/Src/usbd_dfu.c ****       
 392:Middlewares/ST/STM32_USB_Device_Library/Class/DFU/Src/usbd_dfu.c ****     case DFU_CLRSTATUS:
 393:Middlewares/ST/STM32_USB_Device_Library/Class/DFU/Src/usbd_dfu.c ****       DFU_ClearStatus(pdev);
 394:Middlewares/ST/STM32_USB_Device_Library/Class/DFU/Src/usbd_dfu.c ****       break;      
 395:Middlewares/ST/STM32_USB_Device_Library/Class/DFU/Src/usbd_dfu.c ****       
 396:Middlewares/ST/STM32_USB_Device_Library/Class/DFU/Src/usbd_dfu.c ****     case DFU_GETSTATE:
 397:Middlewares/ST/STM32_USB_Device_Library/Class/DFU/Src/usbd_dfu.c ****       DFU_GetState(pdev);
 398:Middlewares/ST/STM32_USB_Device_Library/Class/DFU/Src/usbd_dfu.c ****       break;  
 399:Middlewares/ST/STM32_USB_Device_Library/Class/DFU/Src/usbd_dfu.c ****       
 400:Middlewares/ST/STM32_USB_Device_Library/Class/DFU/Src/usbd_dfu.c ****     case DFU_ABORT:
 401:Middlewares/ST/STM32_USB_Device_Library/Class/DFU/Src/usbd_dfu.c ****       DFU_Abort(pdev);
 402:Middlewares/ST/STM32_USB_Device_Library/Class/DFU/Src/usbd_dfu.c ****       break;
 403:Middlewares/ST/STM32_USB_Device_Library/Class/DFU/Src/usbd_dfu.c ****       
 404:Middlewares/ST/STM32_USB_Device_Library/Class/DFU/Src/usbd_dfu.c ****     case DFU_DETACH:
 405:Middlewares/ST/STM32_USB_Device_Library/Class/DFU/Src/usbd_dfu.c ****       DFU_Detach(pdev, req);
 406:Middlewares/ST/STM32_USB_Device_Library/Class/DFU/Src/usbd_dfu.c ****       break;
 407:Middlewares/ST/STM32_USB_Device_Library/Class/DFU/Src/usbd_dfu.c ****       
 408:Middlewares/ST/STM32_USB_Device_Library/Class/DFU/Src/usbd_dfu.c ****       
 409:Middlewares/ST/STM32_USB_Device_Library/Class/DFU/Src/usbd_dfu.c ****     default:
 410:Middlewares/ST/STM32_USB_Device_Library/Class/DFU/Src/usbd_dfu.c ****       USBD_CtlError (pdev, req);
 411:Middlewares/ST/STM32_USB_Device_Library/Class/DFU/Src/usbd_dfu.c ****       ret = USBD_FAIL; 
 412:Middlewares/ST/STM32_USB_Device_Library/Class/DFU/Src/usbd_dfu.c ****     }
 413:Middlewares/ST/STM32_USB_Device_Library/Class/DFU/Src/usbd_dfu.c ****     break;
 414:Middlewares/ST/STM32_USB_Device_Library/Class/DFU/Src/usbd_dfu.c ****     
 415:Middlewares/ST/STM32_USB_Device_Library/Class/DFU/Src/usbd_dfu.c ****   case USB_REQ_TYPE_STANDARD:
 416:Middlewares/ST/STM32_USB_Device_Library/Class/DFU/Src/usbd_dfu.c ****     switch (req->bRequest)
 417:Middlewares/ST/STM32_USB_Device_Library/Class/DFU/Src/usbd_dfu.c ****     {
 418:Middlewares/ST/STM32_USB_Device_Library/Class/DFU/Src/usbd_dfu.c ****     case USB_REQ_GET_DESCRIPTOR: 
 419:Middlewares/ST/STM32_USB_Device_Library/Class/DFU/Src/usbd_dfu.c ****       if( (req->wValue >> 8) == DFU_DESCRIPTOR_TYPE)
 420:Middlewares/ST/STM32_USB_Device_Library/Class/DFU/Src/usbd_dfu.c ****       {
 421:Middlewares/ST/STM32_USB_Device_Library/Class/DFU/Src/usbd_dfu.c ****         pbuf = USBD_DFU_CfgDesc + (9 * (USBD_DFU_MAX_ITF_NUM + 1));
 422:Middlewares/ST/STM32_USB_Device_Library/Class/DFU/Src/usbd_dfu.c ****         len = MIN(USB_DFU_DESC_SIZ , req->wLength);
 423:Middlewares/ST/STM32_USB_Device_Library/Class/DFU/Src/usbd_dfu.c ****       }
 424:Middlewares/ST/STM32_USB_Device_Library/Class/DFU/Src/usbd_dfu.c ****       
 425:Middlewares/ST/STM32_USB_Device_Library/Class/DFU/Src/usbd_dfu.c ****       USBD_CtlSendData (pdev, 
 426:Middlewares/ST/STM32_USB_Device_Library/Class/DFU/Src/usbd_dfu.c ****                         pbuf,
 427:Middlewares/ST/STM32_USB_Device_Library/Class/DFU/Src/usbd_dfu.c ****                         len);
 428:Middlewares/ST/STM32_USB_Device_Library/Class/DFU/Src/usbd_dfu.c ****       break;
 429:Middlewares/ST/STM32_USB_Device_Library/Class/DFU/Src/usbd_dfu.c ****       
ARM GAS  /var/folders/_1/sgnj6dm57r56n1x62bwb5w5h0000gn/T//cckoM3Hr.s 			page 9


 430:Middlewares/ST/STM32_USB_Device_Library/Class/DFU/Src/usbd_dfu.c ****     case USB_REQ_GET_INTERFACE :
 431:Middlewares/ST/STM32_USB_Device_Library/Class/DFU/Src/usbd_dfu.c ****       USBD_CtlSendData (pdev,
 432:Middlewares/ST/STM32_USB_Device_Library/Class/DFU/Src/usbd_dfu.c ****                         (uint8_t *)&hdfu->alt_setting,
 433:Middlewares/ST/STM32_USB_Device_Library/Class/DFU/Src/usbd_dfu.c ****                         1);
 434:Middlewares/ST/STM32_USB_Device_Library/Class/DFU/Src/usbd_dfu.c ****       break;
 435:Middlewares/ST/STM32_USB_Device_Library/Class/DFU/Src/usbd_dfu.c ****       
 436:Middlewares/ST/STM32_USB_Device_Library/Class/DFU/Src/usbd_dfu.c ****     case USB_REQ_SET_INTERFACE :
 437:Middlewares/ST/STM32_USB_Device_Library/Class/DFU/Src/usbd_dfu.c ****       if ((uint8_t)(req->wValue) < USBD_DFU_MAX_ITF_NUM)
 438:Middlewares/ST/STM32_USB_Device_Library/Class/DFU/Src/usbd_dfu.c ****       {
 439:Middlewares/ST/STM32_USB_Device_Library/Class/DFU/Src/usbd_dfu.c ****         hdfu->alt_setting = (uint8_t)(req->wValue);
 440:Middlewares/ST/STM32_USB_Device_Library/Class/DFU/Src/usbd_dfu.c ****       }
 441:Middlewares/ST/STM32_USB_Device_Library/Class/DFU/Src/usbd_dfu.c ****       else
 442:Middlewares/ST/STM32_USB_Device_Library/Class/DFU/Src/usbd_dfu.c ****       {
 443:Middlewares/ST/STM32_USB_Device_Library/Class/DFU/Src/usbd_dfu.c ****         /* Call the error management function (command will be nacked */
 444:Middlewares/ST/STM32_USB_Device_Library/Class/DFU/Src/usbd_dfu.c ****         USBD_CtlError (pdev, req);
 445:Middlewares/ST/STM32_USB_Device_Library/Class/DFU/Src/usbd_dfu.c ****         ret = USBD_FAIL;  
 446:Middlewares/ST/STM32_USB_Device_Library/Class/DFU/Src/usbd_dfu.c ****       }
 447:Middlewares/ST/STM32_USB_Device_Library/Class/DFU/Src/usbd_dfu.c ****       break;
 448:Middlewares/ST/STM32_USB_Device_Library/Class/DFU/Src/usbd_dfu.c ****       
 449:Middlewares/ST/STM32_USB_Device_Library/Class/DFU/Src/usbd_dfu.c ****     default:
 450:Middlewares/ST/STM32_USB_Device_Library/Class/DFU/Src/usbd_dfu.c ****       USBD_CtlError (pdev, req);
 451:Middlewares/ST/STM32_USB_Device_Library/Class/DFU/Src/usbd_dfu.c ****       ret = USBD_FAIL;     
 452:Middlewares/ST/STM32_USB_Device_Library/Class/DFU/Src/usbd_dfu.c ****     }
 453:Middlewares/ST/STM32_USB_Device_Library/Class/DFU/Src/usbd_dfu.c ****   }
 454:Middlewares/ST/STM32_USB_Device_Library/Class/DFU/Src/usbd_dfu.c ****   return ret;
 455:Middlewares/ST/STM32_USB_Device_Library/Class/DFU/Src/usbd_dfu.c **** }
 456:Middlewares/ST/STM32_USB_Device_Library/Class/DFU/Src/usbd_dfu.c **** 
 457:Middlewares/ST/STM32_USB_Device_Library/Class/DFU/Src/usbd_dfu.c **** 
 458:Middlewares/ST/STM32_USB_Device_Library/Class/DFU/Src/usbd_dfu.c **** /**
 459:Middlewares/ST/STM32_USB_Device_Library/Class/DFU/Src/usbd_dfu.c ****   * @brief  USBD_DFU_GetCfgDesc 
 460:Middlewares/ST/STM32_USB_Device_Library/Class/DFU/Src/usbd_dfu.c ****   *         return configuration descriptor
 461:Middlewares/ST/STM32_USB_Device_Library/Class/DFU/Src/usbd_dfu.c ****   * @param  speed : current device speed
 462:Middlewares/ST/STM32_USB_Device_Library/Class/DFU/Src/usbd_dfu.c ****   * @param  length : pointer data length
 463:Middlewares/ST/STM32_USB_Device_Library/Class/DFU/Src/usbd_dfu.c ****   * @retval pointer to descriptor buffer
 464:Middlewares/ST/STM32_USB_Device_Library/Class/DFU/Src/usbd_dfu.c ****   */
 465:Middlewares/ST/STM32_USB_Device_Library/Class/DFU/Src/usbd_dfu.c **** static uint8_t  *USBD_DFU_GetCfgDesc (uint16_t *length)
 466:Middlewares/ST/STM32_USB_Device_Library/Class/DFU/Src/usbd_dfu.c **** {
  29              		.loc 1 466 1 view -0
  30              		.cfi_startproc
  31              		@ args = 0, pretend = 0, frame = 0
  32              		@ frame_needed = 0, uses_anonymous_args = 0
  33              		@ link register save eliminated.
 467:Middlewares/ST/STM32_USB_Device_Library/Class/DFU/Src/usbd_dfu.c ****   *length = sizeof (USBD_DFU_CfgDesc);
  34              		.loc 1 467 3 view .LVU1
  35              		.loc 1 467 11 is_stmt 0 view .LVU2
  36 0000 1B23     		movs	r3, #27
  37 0002 0380     		strh	r3, [r0]	@ movhi
 468:Middlewares/ST/STM32_USB_Device_Library/Class/DFU/Src/usbd_dfu.c ****   return USBD_DFU_CfgDesc;
  38              		.loc 1 468 3 is_stmt 1 view .LVU3
 469:Middlewares/ST/STM32_USB_Device_Library/Class/DFU/Src/usbd_dfu.c **** }
  39              		.loc 1 469 1 is_stmt 0 view .LVU4
  40 0004 0048     		ldr	r0, .L2
  41              	.LVL1:
  42              		.loc 1 469 1 view .LVU5
  43 0006 7047     		bx	lr
  44              	.L3:
  45              		.align	2
ARM GAS  /var/folders/_1/sgnj6dm57r56n1x62bwb5w5h0000gn/T//cckoM3Hr.s 			page 10


  46              	.L2:
  47 0008 00000000 		.word	.LANCHOR0
  48              		.cfi_endproc
  49              	.LFE129:
  51              		.section	.text.USBD_DFU_DataIn,"ax",%progbits
  52              		.align	1
  53              		.syntax unified
  54              		.thumb
  55              		.thumb_func
  56              		.fpu fpv4-sp-d16
  58              	USBD_DFU_DataIn:
  59              	.LVL2:
  60              	.LFB130:
 470:Middlewares/ST/STM32_USB_Device_Library/Class/DFU/Src/usbd_dfu.c **** 
 471:Middlewares/ST/STM32_USB_Device_Library/Class/DFU/Src/usbd_dfu.c **** /**
 472:Middlewares/ST/STM32_USB_Device_Library/Class/DFU/Src/usbd_dfu.c ****   * @brief  USBD_DFU_DataIn
 473:Middlewares/ST/STM32_USB_Device_Library/Class/DFU/Src/usbd_dfu.c ****   *         handle data IN Stage
 474:Middlewares/ST/STM32_USB_Device_Library/Class/DFU/Src/usbd_dfu.c ****   * @param  pdev: device instance
 475:Middlewares/ST/STM32_USB_Device_Library/Class/DFU/Src/usbd_dfu.c ****   * @param  epnum: endpoint index
 476:Middlewares/ST/STM32_USB_Device_Library/Class/DFU/Src/usbd_dfu.c ****   * @retval status
 477:Middlewares/ST/STM32_USB_Device_Library/Class/DFU/Src/usbd_dfu.c ****   */
 478:Middlewares/ST/STM32_USB_Device_Library/Class/DFU/Src/usbd_dfu.c **** static uint8_t  USBD_DFU_DataIn (USBD_HandleTypeDef *pdev, 
 479:Middlewares/ST/STM32_USB_Device_Library/Class/DFU/Src/usbd_dfu.c ****                               uint8_t epnum)
 480:Middlewares/ST/STM32_USB_Device_Library/Class/DFU/Src/usbd_dfu.c **** {
  61              		.loc 1 480 1 is_stmt 1 view -0
  62              		.cfi_startproc
  63              		@ args = 0, pretend = 0, frame = 0
  64              		@ frame_needed = 0, uses_anonymous_args = 0
  65              		@ link register save eliminated.
 481:Middlewares/ST/STM32_USB_Device_Library/Class/DFU/Src/usbd_dfu.c **** 
 482:Middlewares/ST/STM32_USB_Device_Library/Class/DFU/Src/usbd_dfu.c ****   return USBD_OK;
  66              		.loc 1 482 3 view .LVU7
 483:Middlewares/ST/STM32_USB_Device_Library/Class/DFU/Src/usbd_dfu.c **** }
  67              		.loc 1 483 1 is_stmt 0 view .LVU8
  68 0000 0020     		movs	r0, #0
  69              	.LVL3:
  70              		.loc 1 483 1 view .LVU9
  71 0002 7047     		bx	lr
  72              		.cfi_endproc
  73              	.LFE130:
  75              		.section	.text.USBD_DFU_EP0_RxReady,"ax",%progbits
  76              		.align	1
  77              		.syntax unified
  78              		.thumb
  79              		.thumb_func
  80              		.fpu fpv4-sp-d16
  82              	USBD_DFU_EP0_RxReady:
  83              	.LVL4:
  84              	.LFB131:
 484:Middlewares/ST/STM32_USB_Device_Library/Class/DFU/Src/usbd_dfu.c **** 
 485:Middlewares/ST/STM32_USB_Device_Library/Class/DFU/Src/usbd_dfu.c **** /**
 486:Middlewares/ST/STM32_USB_Device_Library/Class/DFU/Src/usbd_dfu.c ****   * @brief  USBD_DFU_EP0_RxReady
 487:Middlewares/ST/STM32_USB_Device_Library/Class/DFU/Src/usbd_dfu.c ****   *         handle EP0 Rx Ready event
 488:Middlewares/ST/STM32_USB_Device_Library/Class/DFU/Src/usbd_dfu.c ****   * @param  pdev: device instance
 489:Middlewares/ST/STM32_USB_Device_Library/Class/DFU/Src/usbd_dfu.c ****   * @retval status
 490:Middlewares/ST/STM32_USB_Device_Library/Class/DFU/Src/usbd_dfu.c ****   */
 491:Middlewares/ST/STM32_USB_Device_Library/Class/DFU/Src/usbd_dfu.c **** static uint8_t  USBD_DFU_EP0_RxReady (USBD_HandleTypeDef *pdev)
ARM GAS  /var/folders/_1/sgnj6dm57r56n1x62bwb5w5h0000gn/T//cckoM3Hr.s 			page 11


 492:Middlewares/ST/STM32_USB_Device_Library/Class/DFU/Src/usbd_dfu.c **** {
  85              		.loc 1 492 1 is_stmt 1 view -0
  86              		.cfi_startproc
  87              		@ args = 0, pretend = 0, frame = 0
  88              		@ frame_needed = 0, uses_anonymous_args = 0
  89              		@ link register save eliminated.
 493:Middlewares/ST/STM32_USB_Device_Library/Class/DFU/Src/usbd_dfu.c **** 
 494:Middlewares/ST/STM32_USB_Device_Library/Class/DFU/Src/usbd_dfu.c ****   return USBD_OK;
  90              		.loc 1 494 3 view .LVU11
 495:Middlewares/ST/STM32_USB_Device_Library/Class/DFU/Src/usbd_dfu.c **** }
  91              		.loc 1 495 1 is_stmt 0 view .LVU12
  92 0000 0020     		movs	r0, #0
  93              	.LVL5:
  94              		.loc 1 495 1 view .LVU13
  95 0002 7047     		bx	lr
  96              		.cfi_endproc
  97              	.LFE131:
  99              		.section	.text.USBD_DFU_SOF,"ax",%progbits
 100              		.align	1
 101              		.syntax unified
 102              		.thumb
 103              		.thumb_func
 104              		.fpu fpv4-sp-d16
 106              	USBD_DFU_SOF:
 107              	.LVL6:
 108              	.LFB133:
 496:Middlewares/ST/STM32_USB_Device_Library/Class/DFU/Src/usbd_dfu.c **** /**
 497:Middlewares/ST/STM32_USB_Device_Library/Class/DFU/Src/usbd_dfu.c ****   * @brief  USBD_DFU_EP0_TxReady
 498:Middlewares/ST/STM32_USB_Device_Library/Class/DFU/Src/usbd_dfu.c ****   *         handle EP0 TRx Ready event
 499:Middlewares/ST/STM32_USB_Device_Library/Class/DFU/Src/usbd_dfu.c ****   * @param  pdev: device instance
 500:Middlewares/ST/STM32_USB_Device_Library/Class/DFU/Src/usbd_dfu.c ****   * @retval status
 501:Middlewares/ST/STM32_USB_Device_Library/Class/DFU/Src/usbd_dfu.c ****   */
 502:Middlewares/ST/STM32_USB_Device_Library/Class/DFU/Src/usbd_dfu.c **** static uint8_t  USBD_DFU_EP0_TxReady (USBD_HandleTypeDef *pdev)
 503:Middlewares/ST/STM32_USB_Device_Library/Class/DFU/Src/usbd_dfu.c **** {
 504:Middlewares/ST/STM32_USB_Device_Library/Class/DFU/Src/usbd_dfu.c ****  uint32_t addr;
 505:Middlewares/ST/STM32_USB_Device_Library/Class/DFU/Src/usbd_dfu.c ****  USBD_SetupReqTypedef     req; 
 506:Middlewares/ST/STM32_USB_Device_Library/Class/DFU/Src/usbd_dfu.c ****  USBD_DFU_HandleTypeDef   *hdfu;
 507:Middlewares/ST/STM32_USB_Device_Library/Class/DFU/Src/usbd_dfu.c ****  
 508:Middlewares/ST/STM32_USB_Device_Library/Class/DFU/Src/usbd_dfu.c ****  hdfu = (USBD_DFU_HandleTypeDef*) pdev->pClassData;
 509:Middlewares/ST/STM32_USB_Device_Library/Class/DFU/Src/usbd_dfu.c ****   
 510:Middlewares/ST/STM32_USB_Device_Library/Class/DFU/Src/usbd_dfu.c ****   if (hdfu->dev_state == DFU_STATE_DNLOAD_BUSY)
 511:Middlewares/ST/STM32_USB_Device_Library/Class/DFU/Src/usbd_dfu.c ****   {
 512:Middlewares/ST/STM32_USB_Device_Library/Class/DFU/Src/usbd_dfu.c ****     /* Decode the Special Command*/
 513:Middlewares/ST/STM32_USB_Device_Library/Class/DFU/Src/usbd_dfu.c ****     if (hdfu->wblock_num == 0)   
 514:Middlewares/ST/STM32_USB_Device_Library/Class/DFU/Src/usbd_dfu.c ****     {
 515:Middlewares/ST/STM32_USB_Device_Library/Class/DFU/Src/usbd_dfu.c ****       if ((hdfu->buffer.d8[0] ==  DFU_CMD_GETCOMMANDS) && (hdfu->wlength == 1))
 516:Middlewares/ST/STM32_USB_Device_Library/Class/DFU/Src/usbd_dfu.c ****       {
 517:Middlewares/ST/STM32_USB_Device_Library/Class/DFU/Src/usbd_dfu.c ****        
 518:Middlewares/ST/STM32_USB_Device_Library/Class/DFU/Src/usbd_dfu.c ****       }
 519:Middlewares/ST/STM32_USB_Device_Library/Class/DFU/Src/usbd_dfu.c ****       else if  (( hdfu->buffer.d8[0] ==  DFU_CMD_SETADDRESSPOINTER ) && (hdfu->wlength == 5))
 520:Middlewares/ST/STM32_USB_Device_Library/Class/DFU/Src/usbd_dfu.c ****       {
 521:Middlewares/ST/STM32_USB_Device_Library/Class/DFU/Src/usbd_dfu.c ****         hdfu->data_ptr  = hdfu->buffer.d8[1];
 522:Middlewares/ST/STM32_USB_Device_Library/Class/DFU/Src/usbd_dfu.c ****         hdfu->data_ptr += hdfu->buffer.d8[2] << 8;
 523:Middlewares/ST/STM32_USB_Device_Library/Class/DFU/Src/usbd_dfu.c ****         hdfu->data_ptr += hdfu->buffer.d8[3] << 16;
 524:Middlewares/ST/STM32_USB_Device_Library/Class/DFU/Src/usbd_dfu.c ****         hdfu->data_ptr += hdfu->buffer.d8[4] << 24;
 525:Middlewares/ST/STM32_USB_Device_Library/Class/DFU/Src/usbd_dfu.c ****       }
 526:Middlewares/ST/STM32_USB_Device_Library/Class/DFU/Src/usbd_dfu.c ****       else if (( hdfu->buffer.d8[0] ==  DFU_CMD_ERASE ) && (hdfu->wlength == 5))
ARM GAS  /var/folders/_1/sgnj6dm57r56n1x62bwb5w5h0000gn/T//cckoM3Hr.s 			page 12


 527:Middlewares/ST/STM32_USB_Device_Library/Class/DFU/Src/usbd_dfu.c ****       {
 528:Middlewares/ST/STM32_USB_Device_Library/Class/DFU/Src/usbd_dfu.c ****         hdfu->data_ptr  = hdfu->buffer.d8[1];
 529:Middlewares/ST/STM32_USB_Device_Library/Class/DFU/Src/usbd_dfu.c ****         hdfu->data_ptr += hdfu->buffer.d8[2] << 8;
 530:Middlewares/ST/STM32_USB_Device_Library/Class/DFU/Src/usbd_dfu.c ****         hdfu->data_ptr += hdfu->buffer.d8[3] << 16;
 531:Middlewares/ST/STM32_USB_Device_Library/Class/DFU/Src/usbd_dfu.c ****         hdfu->data_ptr += hdfu->buffer.d8[4] << 24;
 532:Middlewares/ST/STM32_USB_Device_Library/Class/DFU/Src/usbd_dfu.c ****        
 533:Middlewares/ST/STM32_USB_Device_Library/Class/DFU/Src/usbd_dfu.c ****         if (((USBD_DFU_MediaTypeDef *)pdev->pUserData)->Erase(hdfu->data_ptr) != USBD_OK)
 534:Middlewares/ST/STM32_USB_Device_Library/Class/DFU/Src/usbd_dfu.c ****         {
 535:Middlewares/ST/STM32_USB_Device_Library/Class/DFU/Src/usbd_dfu.c ****           return USBD_FAIL;
 536:Middlewares/ST/STM32_USB_Device_Library/Class/DFU/Src/usbd_dfu.c ****         }
 537:Middlewares/ST/STM32_USB_Device_Library/Class/DFU/Src/usbd_dfu.c ****       }
 538:Middlewares/ST/STM32_USB_Device_Library/Class/DFU/Src/usbd_dfu.c ****       else
 539:Middlewares/ST/STM32_USB_Device_Library/Class/DFU/Src/usbd_dfu.c ****       {
 540:Middlewares/ST/STM32_USB_Device_Library/Class/DFU/Src/usbd_dfu.c ****         /* Reset the global length and block number */
 541:Middlewares/ST/STM32_USB_Device_Library/Class/DFU/Src/usbd_dfu.c ****         hdfu->wlength = 0;
 542:Middlewares/ST/STM32_USB_Device_Library/Class/DFU/Src/usbd_dfu.c ****         hdfu->wblock_num = 0;     
 543:Middlewares/ST/STM32_USB_Device_Library/Class/DFU/Src/usbd_dfu.c ****         /* Call the error management function (command will be nacked) */
 544:Middlewares/ST/STM32_USB_Device_Library/Class/DFU/Src/usbd_dfu.c ****         req.bmRequest = 0;
 545:Middlewares/ST/STM32_USB_Device_Library/Class/DFU/Src/usbd_dfu.c ****         req.wLength = 1;
 546:Middlewares/ST/STM32_USB_Device_Library/Class/DFU/Src/usbd_dfu.c ****         USBD_CtlError (pdev, &req);
 547:Middlewares/ST/STM32_USB_Device_Library/Class/DFU/Src/usbd_dfu.c ****       }
 548:Middlewares/ST/STM32_USB_Device_Library/Class/DFU/Src/usbd_dfu.c ****     }
 549:Middlewares/ST/STM32_USB_Device_Library/Class/DFU/Src/usbd_dfu.c ****     /* Regular Download Command */
 550:Middlewares/ST/STM32_USB_Device_Library/Class/DFU/Src/usbd_dfu.c ****     else if (hdfu->wblock_num > 1)  
 551:Middlewares/ST/STM32_USB_Device_Library/Class/DFU/Src/usbd_dfu.c ****     {
 552:Middlewares/ST/STM32_USB_Device_Library/Class/DFU/Src/usbd_dfu.c ****       /* Decode the required address */
 553:Middlewares/ST/STM32_USB_Device_Library/Class/DFU/Src/usbd_dfu.c ****       addr = ((hdfu->wblock_num - 2) * USBD_DFU_XFER_SIZE) + hdfu->data_ptr;
 554:Middlewares/ST/STM32_USB_Device_Library/Class/DFU/Src/usbd_dfu.c ****       
 555:Middlewares/ST/STM32_USB_Device_Library/Class/DFU/Src/usbd_dfu.c ****       /* Preform the write operation */
 556:Middlewares/ST/STM32_USB_Device_Library/Class/DFU/Src/usbd_dfu.c ****       if (((USBD_DFU_MediaTypeDef *)pdev->pUserData)->Write(hdfu->buffer.d8, (uint8_t *)addr, hdfu-
 557:Middlewares/ST/STM32_USB_Device_Library/Class/DFU/Src/usbd_dfu.c ****       {
 558:Middlewares/ST/STM32_USB_Device_Library/Class/DFU/Src/usbd_dfu.c ****         return USBD_FAIL;
 559:Middlewares/ST/STM32_USB_Device_Library/Class/DFU/Src/usbd_dfu.c ****       }      
 560:Middlewares/ST/STM32_USB_Device_Library/Class/DFU/Src/usbd_dfu.c ****     }
 561:Middlewares/ST/STM32_USB_Device_Library/Class/DFU/Src/usbd_dfu.c ****     /* Reset the global length and block number */
 562:Middlewares/ST/STM32_USB_Device_Library/Class/DFU/Src/usbd_dfu.c ****     hdfu->wlength = 0;
 563:Middlewares/ST/STM32_USB_Device_Library/Class/DFU/Src/usbd_dfu.c ****     hdfu->wblock_num = 0;
 564:Middlewares/ST/STM32_USB_Device_Library/Class/DFU/Src/usbd_dfu.c ****     
 565:Middlewares/ST/STM32_USB_Device_Library/Class/DFU/Src/usbd_dfu.c ****     /* Update the state machine */
 566:Middlewares/ST/STM32_USB_Device_Library/Class/DFU/Src/usbd_dfu.c ****     hdfu->dev_state =  DFU_STATE_DNLOAD_SYNC;
 567:Middlewares/ST/STM32_USB_Device_Library/Class/DFU/Src/usbd_dfu.c **** 
 568:Middlewares/ST/STM32_USB_Device_Library/Class/DFU/Src/usbd_dfu.c ****     hdfu->dev_status[1] = 0;
 569:Middlewares/ST/STM32_USB_Device_Library/Class/DFU/Src/usbd_dfu.c ****     hdfu->dev_status[2] = 0;
 570:Middlewares/ST/STM32_USB_Device_Library/Class/DFU/Src/usbd_dfu.c ****     hdfu->dev_status[3] = 0;
 571:Middlewares/ST/STM32_USB_Device_Library/Class/DFU/Src/usbd_dfu.c ****     hdfu->dev_status[4] = hdfu->dev_state;    
 572:Middlewares/ST/STM32_USB_Device_Library/Class/DFU/Src/usbd_dfu.c ****     return USBD_OK;
 573:Middlewares/ST/STM32_USB_Device_Library/Class/DFU/Src/usbd_dfu.c ****   }
 574:Middlewares/ST/STM32_USB_Device_Library/Class/DFU/Src/usbd_dfu.c ****   else if (hdfu->dev_state == DFU_STATE_MANIFEST)/* Manifestation in progress*/
 575:Middlewares/ST/STM32_USB_Device_Library/Class/DFU/Src/usbd_dfu.c ****   {
 576:Middlewares/ST/STM32_USB_Device_Library/Class/DFU/Src/usbd_dfu.c ****     /* Start leaving DFU mode */
 577:Middlewares/ST/STM32_USB_Device_Library/Class/DFU/Src/usbd_dfu.c ****     DFU_Leave(pdev);
 578:Middlewares/ST/STM32_USB_Device_Library/Class/DFU/Src/usbd_dfu.c ****   }
 579:Middlewares/ST/STM32_USB_Device_Library/Class/DFU/Src/usbd_dfu.c ****   
 580:Middlewares/ST/STM32_USB_Device_Library/Class/DFU/Src/usbd_dfu.c ****   return USBD_OK;
 581:Middlewares/ST/STM32_USB_Device_Library/Class/DFU/Src/usbd_dfu.c **** }
 582:Middlewares/ST/STM32_USB_Device_Library/Class/DFU/Src/usbd_dfu.c **** /**
 583:Middlewares/ST/STM32_USB_Device_Library/Class/DFU/Src/usbd_dfu.c ****   * @brief  USBD_DFU_SOF
ARM GAS  /var/folders/_1/sgnj6dm57r56n1x62bwb5w5h0000gn/T//cckoM3Hr.s 			page 13


 584:Middlewares/ST/STM32_USB_Device_Library/Class/DFU/Src/usbd_dfu.c ****   *         handle SOF event
 585:Middlewares/ST/STM32_USB_Device_Library/Class/DFU/Src/usbd_dfu.c ****   * @param  pdev: device instance
 586:Middlewares/ST/STM32_USB_Device_Library/Class/DFU/Src/usbd_dfu.c ****   * @retval status
 587:Middlewares/ST/STM32_USB_Device_Library/Class/DFU/Src/usbd_dfu.c ****   */
 588:Middlewares/ST/STM32_USB_Device_Library/Class/DFU/Src/usbd_dfu.c **** static uint8_t  USBD_DFU_SOF (USBD_HandleTypeDef *pdev)
 589:Middlewares/ST/STM32_USB_Device_Library/Class/DFU/Src/usbd_dfu.c **** {
 109              		.loc 1 589 1 is_stmt 1 view -0
 110              		.cfi_startproc
 111              		@ args = 0, pretend = 0, frame = 0
 112              		@ frame_needed = 0, uses_anonymous_args = 0
 113              		@ link register save eliminated.
 590:Middlewares/ST/STM32_USB_Device_Library/Class/DFU/Src/usbd_dfu.c **** 
 591:Middlewares/ST/STM32_USB_Device_Library/Class/DFU/Src/usbd_dfu.c ****   return USBD_OK;
 114              		.loc 1 591 3 view .LVU15
 592:Middlewares/ST/STM32_USB_Device_Library/Class/DFU/Src/usbd_dfu.c **** }
 115              		.loc 1 592 1 is_stmt 0 view .LVU16
 116 0000 0020     		movs	r0, #0
 117              	.LVL7:
 118              		.loc 1 592 1 view .LVU17
 119 0002 7047     		bx	lr
 120              		.cfi_endproc
 121              	.LFE133:
 123              		.section	.text.USBD_DFU_IsoINIncomplete,"ax",%progbits
 124              		.align	1
 125              		.syntax unified
 126              		.thumb
 127              		.thumb_func
 128              		.fpu fpv4-sp-d16
 130              	USBD_DFU_IsoINIncomplete:
 131              	.LVL8:
 132              	.LFB134:
 593:Middlewares/ST/STM32_USB_Device_Library/Class/DFU/Src/usbd_dfu.c **** /**
 594:Middlewares/ST/STM32_USB_Device_Library/Class/DFU/Src/usbd_dfu.c ****   * @brief  USBD_DFU_IsoINIncomplete
 595:Middlewares/ST/STM32_USB_Device_Library/Class/DFU/Src/usbd_dfu.c ****   *         handle data ISO IN Incomplete event
 596:Middlewares/ST/STM32_USB_Device_Library/Class/DFU/Src/usbd_dfu.c ****   * @param  pdev: device instance
 597:Middlewares/ST/STM32_USB_Device_Library/Class/DFU/Src/usbd_dfu.c ****   * @param  epnum: endpoint index
 598:Middlewares/ST/STM32_USB_Device_Library/Class/DFU/Src/usbd_dfu.c ****   * @retval status
 599:Middlewares/ST/STM32_USB_Device_Library/Class/DFU/Src/usbd_dfu.c ****   */
 600:Middlewares/ST/STM32_USB_Device_Library/Class/DFU/Src/usbd_dfu.c **** static uint8_t  USBD_DFU_IsoINIncomplete (USBD_HandleTypeDef *pdev, uint8_t epnum)
 601:Middlewares/ST/STM32_USB_Device_Library/Class/DFU/Src/usbd_dfu.c **** {
 133              		.loc 1 601 1 is_stmt 1 view -0
 134              		.cfi_startproc
 135              		@ args = 0, pretend = 0, frame = 0
 136              		@ frame_needed = 0, uses_anonymous_args = 0
 137              		@ link register save eliminated.
 602:Middlewares/ST/STM32_USB_Device_Library/Class/DFU/Src/usbd_dfu.c **** 
 603:Middlewares/ST/STM32_USB_Device_Library/Class/DFU/Src/usbd_dfu.c ****   return USBD_OK;
 138              		.loc 1 603 3 view .LVU19
 604:Middlewares/ST/STM32_USB_Device_Library/Class/DFU/Src/usbd_dfu.c **** }
 139              		.loc 1 604 1 is_stmt 0 view .LVU20
 140 0000 0020     		movs	r0, #0
 141              	.LVL9:
 142              		.loc 1 604 1 view .LVU21
 143 0002 7047     		bx	lr
 144              		.cfi_endproc
 145              	.LFE134:
 147              		.section	.text.USBD_DFU_IsoOutIncomplete,"ax",%progbits
ARM GAS  /var/folders/_1/sgnj6dm57r56n1x62bwb5w5h0000gn/T//cckoM3Hr.s 			page 14


 148              		.align	1
 149              		.syntax unified
 150              		.thumb
 151              		.thumb_func
 152              		.fpu fpv4-sp-d16
 154              	USBD_DFU_IsoOutIncomplete:
 155              	.LVL10:
 156              	.LFB135:
 605:Middlewares/ST/STM32_USB_Device_Library/Class/DFU/Src/usbd_dfu.c **** /**
 606:Middlewares/ST/STM32_USB_Device_Library/Class/DFU/Src/usbd_dfu.c ****   * @brief  USBD_DFU_IsoOutIncomplete
 607:Middlewares/ST/STM32_USB_Device_Library/Class/DFU/Src/usbd_dfu.c ****   *         handle data ISO OUT Incomplete event
 608:Middlewares/ST/STM32_USB_Device_Library/Class/DFU/Src/usbd_dfu.c ****   * @param  pdev: device instance
 609:Middlewares/ST/STM32_USB_Device_Library/Class/DFU/Src/usbd_dfu.c ****   * @param  epnum: endpoint index
 610:Middlewares/ST/STM32_USB_Device_Library/Class/DFU/Src/usbd_dfu.c ****   * @retval status
 611:Middlewares/ST/STM32_USB_Device_Library/Class/DFU/Src/usbd_dfu.c ****   */
 612:Middlewares/ST/STM32_USB_Device_Library/Class/DFU/Src/usbd_dfu.c **** static uint8_t  USBD_DFU_IsoOutIncomplete (USBD_HandleTypeDef *pdev, uint8_t epnum)
 613:Middlewares/ST/STM32_USB_Device_Library/Class/DFU/Src/usbd_dfu.c **** {
 157              		.loc 1 613 1 is_stmt 1 view -0
 158              		.cfi_startproc
 159              		@ args = 0, pretend = 0, frame = 0
 160              		@ frame_needed = 0, uses_anonymous_args = 0
 161              		@ link register save eliminated.
 614:Middlewares/ST/STM32_USB_Device_Library/Class/DFU/Src/usbd_dfu.c **** 
 615:Middlewares/ST/STM32_USB_Device_Library/Class/DFU/Src/usbd_dfu.c ****   return USBD_OK;
 162              		.loc 1 615 3 view .LVU23
 616:Middlewares/ST/STM32_USB_Device_Library/Class/DFU/Src/usbd_dfu.c **** }
 163              		.loc 1 616 1 is_stmt 0 view .LVU24
 164 0000 0020     		movs	r0, #0
 165              	.LVL11:
 166              		.loc 1 616 1 view .LVU25
 167 0002 7047     		bx	lr
 168              		.cfi_endproc
 169              	.LFE135:
 171              		.section	.text.USBD_DFU_DataOut,"ax",%progbits
 172              		.align	1
 173              		.syntax unified
 174              		.thumb
 175              		.thumb_func
 176              		.fpu fpv4-sp-d16
 178              	USBD_DFU_DataOut:
 179              	.LVL12:
 180              	.LFB136:
 617:Middlewares/ST/STM32_USB_Device_Library/Class/DFU/Src/usbd_dfu.c **** /**
 618:Middlewares/ST/STM32_USB_Device_Library/Class/DFU/Src/usbd_dfu.c ****   * @brief  USBD_DFU_DataOut
 619:Middlewares/ST/STM32_USB_Device_Library/Class/DFU/Src/usbd_dfu.c ****   *         handle data OUT Stage
 620:Middlewares/ST/STM32_USB_Device_Library/Class/DFU/Src/usbd_dfu.c ****   * @param  pdev: device instance
 621:Middlewares/ST/STM32_USB_Device_Library/Class/DFU/Src/usbd_dfu.c ****   * @param  epnum: endpoint index
 622:Middlewares/ST/STM32_USB_Device_Library/Class/DFU/Src/usbd_dfu.c ****   * @retval status
 623:Middlewares/ST/STM32_USB_Device_Library/Class/DFU/Src/usbd_dfu.c ****   */
 624:Middlewares/ST/STM32_USB_Device_Library/Class/DFU/Src/usbd_dfu.c **** static uint8_t  USBD_DFU_DataOut (USBD_HandleTypeDef *pdev, 
 625:Middlewares/ST/STM32_USB_Device_Library/Class/DFU/Src/usbd_dfu.c ****                               uint8_t epnum)
 626:Middlewares/ST/STM32_USB_Device_Library/Class/DFU/Src/usbd_dfu.c **** {
 181              		.loc 1 626 1 is_stmt 1 view -0
 182              		.cfi_startproc
 183              		@ args = 0, pretend = 0, frame = 0
 184              		@ frame_needed = 0, uses_anonymous_args = 0
 185              		@ link register save eliminated.
ARM GAS  /var/folders/_1/sgnj6dm57r56n1x62bwb5w5h0000gn/T//cckoM3Hr.s 			page 15


 627:Middlewares/ST/STM32_USB_Device_Library/Class/DFU/Src/usbd_dfu.c **** 
 628:Middlewares/ST/STM32_USB_Device_Library/Class/DFU/Src/usbd_dfu.c ****   return USBD_OK;
 186              		.loc 1 628 3 view .LVU27
 629:Middlewares/ST/STM32_USB_Device_Library/Class/DFU/Src/usbd_dfu.c **** }
 187              		.loc 1 629 1 is_stmt 0 view .LVU28
 188 0000 0020     		movs	r0, #0
 189              	.LVL13:
 190              		.loc 1 629 1 view .LVU29
 191 0002 7047     		bx	lr
 192              		.cfi_endproc
 193              	.LFE136:
 195              		.section	.text.USBD_DFU_GetDeviceQualifierDesc,"ax",%progbits
 196              		.align	1
 197              		.syntax unified
 198              		.thumb
 199              		.thumb_func
 200              		.fpu fpv4-sp-d16
 202              	USBD_DFU_GetDeviceQualifierDesc:
 203              	.LVL14:
 204              	.LFB137:
 630:Middlewares/ST/STM32_USB_Device_Library/Class/DFU/Src/usbd_dfu.c **** 
 631:Middlewares/ST/STM32_USB_Device_Library/Class/DFU/Src/usbd_dfu.c **** /**
 632:Middlewares/ST/STM32_USB_Device_Library/Class/DFU/Src/usbd_dfu.c **** * @brief  DeviceQualifierDescriptor 
 633:Middlewares/ST/STM32_USB_Device_Library/Class/DFU/Src/usbd_dfu.c **** *         return Device Qualifier descriptor
 634:Middlewares/ST/STM32_USB_Device_Library/Class/DFU/Src/usbd_dfu.c **** * @param  length : pointer data length
 635:Middlewares/ST/STM32_USB_Device_Library/Class/DFU/Src/usbd_dfu.c **** * @retval pointer to descriptor buffer
 636:Middlewares/ST/STM32_USB_Device_Library/Class/DFU/Src/usbd_dfu.c **** */
 637:Middlewares/ST/STM32_USB_Device_Library/Class/DFU/Src/usbd_dfu.c **** static uint8_t  *USBD_DFU_GetDeviceQualifierDesc (uint16_t *length)
 638:Middlewares/ST/STM32_USB_Device_Library/Class/DFU/Src/usbd_dfu.c **** {
 205              		.loc 1 638 1 is_stmt 1 view -0
 206              		.cfi_startproc
 207              		@ args = 0, pretend = 0, frame = 0
 208              		@ frame_needed = 0, uses_anonymous_args = 0
 209              		@ link register save eliminated.
 639:Middlewares/ST/STM32_USB_Device_Library/Class/DFU/Src/usbd_dfu.c ****   *length = sizeof (USBD_DFU_DeviceQualifierDesc);
 210              		.loc 1 639 3 view .LVU31
 211              		.loc 1 639 11 is_stmt 0 view .LVU32
 212 0000 0A23     		movs	r3, #10
 213 0002 0380     		strh	r3, [r0]	@ movhi
 640:Middlewares/ST/STM32_USB_Device_Library/Class/DFU/Src/usbd_dfu.c ****   return USBD_DFU_DeviceQualifierDesc;
 214              		.loc 1 640 3 is_stmt 1 view .LVU33
 641:Middlewares/ST/STM32_USB_Device_Library/Class/DFU/Src/usbd_dfu.c **** }
 215              		.loc 1 641 1 is_stmt 0 view .LVU34
 216 0004 0048     		ldr	r0, .L11
 217              	.LVL15:
 218              		.loc 1 641 1 view .LVU35
 219 0006 7047     		bx	lr
 220              	.L12:
 221              		.align	2
 222              	.L11:
 223 0008 00000000 		.word	.LANCHOR1
 224              		.cfi_endproc
 225              	.LFE137:
 227              		.section	.text.DFU_ClearStatus,"ax",%progbits
 228              		.align	1
 229              		.syntax unified
 230              		.thumb
ARM GAS  /var/folders/_1/sgnj6dm57r56n1x62bwb5w5h0000gn/T//cckoM3Hr.s 			page 16


 231              		.thumb_func
 232              		.fpu fpv4-sp-d16
 234              	DFU_ClearStatus:
 235              	.LVL16:
 236              	.LFB144:
 642:Middlewares/ST/STM32_USB_Device_Library/Class/DFU/Src/usbd_dfu.c **** 
 643:Middlewares/ST/STM32_USB_Device_Library/Class/DFU/Src/usbd_dfu.c **** /**
 644:Middlewares/ST/STM32_USB_Device_Library/Class/DFU/Src/usbd_dfu.c ****   * @brief  USBD_DFU_GetUsrStringDesc
 645:Middlewares/ST/STM32_USB_Device_Library/Class/DFU/Src/usbd_dfu.c ****   *         Manages the transfer of memory interfaces string descriptors.
 646:Middlewares/ST/STM32_USB_Device_Library/Class/DFU/Src/usbd_dfu.c ****   * @param  speed : current device speed
 647:Middlewares/ST/STM32_USB_Device_Library/Class/DFU/Src/usbd_dfu.c ****   * @param  index: desciptor index
 648:Middlewares/ST/STM32_USB_Device_Library/Class/DFU/Src/usbd_dfu.c ****   * @param  length : pointer data length
 649:Middlewares/ST/STM32_USB_Device_Library/Class/DFU/Src/usbd_dfu.c ****   * @retval pointer to the descriptor table or NULL if the descriptor is not supported.
 650:Middlewares/ST/STM32_USB_Device_Library/Class/DFU/Src/usbd_dfu.c ****   */
 651:Middlewares/ST/STM32_USB_Device_Library/Class/DFU/Src/usbd_dfu.c **** #if (USBD_SUPPORT_USER_STRING == 1)  
 652:Middlewares/ST/STM32_USB_Device_Library/Class/DFU/Src/usbd_dfu.c **** static uint8_t* USBD_DFU_GetUsrStringDesc (USBD_HandleTypeDef *pdev, uint8_t index , uint16_t *leng
 653:Middlewares/ST/STM32_USB_Device_Library/Class/DFU/Src/usbd_dfu.c **** {
 654:Middlewares/ST/STM32_USB_Device_Library/Class/DFU/Src/usbd_dfu.c ****   static uint8_t USBD_StrDesc[255];
 655:Middlewares/ST/STM32_USB_Device_Library/Class/DFU/Src/usbd_dfu.c ****   /* Check if the requested string interface is supported */
 656:Middlewares/ST/STM32_USB_Device_Library/Class/DFU/Src/usbd_dfu.c ****   if (index <= (USBD_IDX_INTERFACE_STR + USBD_DFU_MAX_ITF_NUM))
 657:Middlewares/ST/STM32_USB_Device_Library/Class/DFU/Src/usbd_dfu.c ****   {
 658:Middlewares/ST/STM32_USB_Device_Library/Class/DFU/Src/usbd_dfu.c ****     USBD_GetString ((uint8_t *)((USBD_DFU_MediaTypeDef *)pdev->pUserData)->pStrDesc, USBD_StrDesc, 
 659:Middlewares/ST/STM32_USB_Device_Library/Class/DFU/Src/usbd_dfu.c ****     return USBD_StrDesc;  
 660:Middlewares/ST/STM32_USB_Device_Library/Class/DFU/Src/usbd_dfu.c ****   }
 661:Middlewares/ST/STM32_USB_Device_Library/Class/DFU/Src/usbd_dfu.c ****   /* Not supported Interface Descriptor index */
 662:Middlewares/ST/STM32_USB_Device_Library/Class/DFU/Src/usbd_dfu.c ****   else
 663:Middlewares/ST/STM32_USB_Device_Library/Class/DFU/Src/usbd_dfu.c ****   {
 664:Middlewares/ST/STM32_USB_Device_Library/Class/DFU/Src/usbd_dfu.c ****     return NULL;
 665:Middlewares/ST/STM32_USB_Device_Library/Class/DFU/Src/usbd_dfu.c ****   }
 666:Middlewares/ST/STM32_USB_Device_Library/Class/DFU/Src/usbd_dfu.c **** }
 667:Middlewares/ST/STM32_USB_Device_Library/Class/DFU/Src/usbd_dfu.c **** #endif
 668:Middlewares/ST/STM32_USB_Device_Library/Class/DFU/Src/usbd_dfu.c **** 
 669:Middlewares/ST/STM32_USB_Device_Library/Class/DFU/Src/usbd_dfu.c **** /**
 670:Middlewares/ST/STM32_USB_Device_Library/Class/DFU/Src/usbd_dfu.c **** * @brief  USBD_MSC_RegisterStorage
 671:Middlewares/ST/STM32_USB_Device_Library/Class/DFU/Src/usbd_dfu.c **** * @param  fops: storage callback
 672:Middlewares/ST/STM32_USB_Device_Library/Class/DFU/Src/usbd_dfu.c **** * @retval status
 673:Middlewares/ST/STM32_USB_Device_Library/Class/DFU/Src/usbd_dfu.c **** */
 674:Middlewares/ST/STM32_USB_Device_Library/Class/DFU/Src/usbd_dfu.c **** uint8_t  USBD_DFU_RegisterMedia    (USBD_HandleTypeDef   *pdev, 
 675:Middlewares/ST/STM32_USB_Device_Library/Class/DFU/Src/usbd_dfu.c ****                                     USBD_DFU_MediaTypeDef *fops)
 676:Middlewares/ST/STM32_USB_Device_Library/Class/DFU/Src/usbd_dfu.c **** {
 677:Middlewares/ST/STM32_USB_Device_Library/Class/DFU/Src/usbd_dfu.c ****   if(fops != NULL)
 678:Middlewares/ST/STM32_USB_Device_Library/Class/DFU/Src/usbd_dfu.c ****   {
 679:Middlewares/ST/STM32_USB_Device_Library/Class/DFU/Src/usbd_dfu.c ****     pdev->pUserData= fops;
 680:Middlewares/ST/STM32_USB_Device_Library/Class/DFU/Src/usbd_dfu.c ****   }
 681:Middlewares/ST/STM32_USB_Device_Library/Class/DFU/Src/usbd_dfu.c ****   return 0;
 682:Middlewares/ST/STM32_USB_Device_Library/Class/DFU/Src/usbd_dfu.c **** }
 683:Middlewares/ST/STM32_USB_Device_Library/Class/DFU/Src/usbd_dfu.c **** 
 684:Middlewares/ST/STM32_USB_Device_Library/Class/DFU/Src/usbd_dfu.c **** /******************************************************************************
 685:Middlewares/ST/STM32_USB_Device_Library/Class/DFU/Src/usbd_dfu.c ****      DFU Class requests management
 686:Middlewares/ST/STM32_USB_Device_Library/Class/DFU/Src/usbd_dfu.c **** ******************************************************************************/
 687:Middlewares/ST/STM32_USB_Device_Library/Class/DFU/Src/usbd_dfu.c **** /**
 688:Middlewares/ST/STM32_USB_Device_Library/Class/DFU/Src/usbd_dfu.c ****   * @brief  DFU_Detach
 689:Middlewares/ST/STM32_USB_Device_Library/Class/DFU/Src/usbd_dfu.c ****   *         Handles the DFU DETACH request.
 690:Middlewares/ST/STM32_USB_Device_Library/Class/DFU/Src/usbd_dfu.c ****   * @param  pdev: device instance
 691:Middlewares/ST/STM32_USB_Device_Library/Class/DFU/Src/usbd_dfu.c ****   * @param  req: pointer to the request structure.
 692:Middlewares/ST/STM32_USB_Device_Library/Class/DFU/Src/usbd_dfu.c ****   * @retval None.
 693:Middlewares/ST/STM32_USB_Device_Library/Class/DFU/Src/usbd_dfu.c ****   */
ARM GAS  /var/folders/_1/sgnj6dm57r56n1x62bwb5w5h0000gn/T//cckoM3Hr.s 			page 17


 694:Middlewares/ST/STM32_USB_Device_Library/Class/DFU/Src/usbd_dfu.c **** static void DFU_Detach(USBD_HandleTypeDef *pdev, USBD_SetupReqTypedef *req)
 695:Middlewares/ST/STM32_USB_Device_Library/Class/DFU/Src/usbd_dfu.c **** {
 696:Middlewares/ST/STM32_USB_Device_Library/Class/DFU/Src/usbd_dfu.c ****  USBD_DFU_HandleTypeDef   *hdfu;
 697:Middlewares/ST/STM32_USB_Device_Library/Class/DFU/Src/usbd_dfu.c ****  
 698:Middlewares/ST/STM32_USB_Device_Library/Class/DFU/Src/usbd_dfu.c ****  hdfu = (USBD_DFU_HandleTypeDef*) pdev->pClassData;
 699:Middlewares/ST/STM32_USB_Device_Library/Class/DFU/Src/usbd_dfu.c ****  
 700:Middlewares/ST/STM32_USB_Device_Library/Class/DFU/Src/usbd_dfu.c ****   if (hdfu->dev_state == DFU_STATE_IDLE || hdfu->dev_state == DFU_STATE_DNLOAD_SYNC
 701:Middlewares/ST/STM32_USB_Device_Library/Class/DFU/Src/usbd_dfu.c ****       || hdfu->dev_state == DFU_STATE_DNLOAD_IDLE || hdfu->dev_state == DFU_STATE_MANIFEST_SYNC
 702:Middlewares/ST/STM32_USB_Device_Library/Class/DFU/Src/usbd_dfu.c ****         || hdfu->dev_state == DFU_STATE_UPLOAD_IDLE )
 703:Middlewares/ST/STM32_USB_Device_Library/Class/DFU/Src/usbd_dfu.c ****   {
 704:Middlewares/ST/STM32_USB_Device_Library/Class/DFU/Src/usbd_dfu.c ****     /* Update the state machine */
 705:Middlewares/ST/STM32_USB_Device_Library/Class/DFU/Src/usbd_dfu.c ****     hdfu->dev_state = DFU_STATE_IDLE;
 706:Middlewares/ST/STM32_USB_Device_Library/Class/DFU/Src/usbd_dfu.c ****     hdfu->dev_status[0] = DFU_ERROR_NONE;
 707:Middlewares/ST/STM32_USB_Device_Library/Class/DFU/Src/usbd_dfu.c ****     hdfu->dev_status[1] = 0;
 708:Middlewares/ST/STM32_USB_Device_Library/Class/DFU/Src/usbd_dfu.c ****     hdfu->dev_status[2] = 0;
 709:Middlewares/ST/STM32_USB_Device_Library/Class/DFU/Src/usbd_dfu.c ****     hdfu->dev_status[3] = 0; /*bwPollTimeout=0ms*/
 710:Middlewares/ST/STM32_USB_Device_Library/Class/DFU/Src/usbd_dfu.c ****     hdfu->dev_status[4] = hdfu->dev_state;
 711:Middlewares/ST/STM32_USB_Device_Library/Class/DFU/Src/usbd_dfu.c ****     hdfu->dev_status[5] = 0; /*iString*/
 712:Middlewares/ST/STM32_USB_Device_Library/Class/DFU/Src/usbd_dfu.c ****     hdfu->wblock_num = 0;
 713:Middlewares/ST/STM32_USB_Device_Library/Class/DFU/Src/usbd_dfu.c ****     hdfu->wlength = 0;
 714:Middlewares/ST/STM32_USB_Device_Library/Class/DFU/Src/usbd_dfu.c ****   } 
 715:Middlewares/ST/STM32_USB_Device_Library/Class/DFU/Src/usbd_dfu.c ****   
 716:Middlewares/ST/STM32_USB_Device_Library/Class/DFU/Src/usbd_dfu.c ****   /* Check the detach capability in the DFU functional descriptor */
 717:Middlewares/ST/STM32_USB_Device_Library/Class/DFU/Src/usbd_dfu.c ****   if ((USBD_DFU_CfgDesc[12 + (9 * USBD_DFU_MAX_ITF_NUM)]) & DFU_DETACH_MASK)
 718:Middlewares/ST/STM32_USB_Device_Library/Class/DFU/Src/usbd_dfu.c ****   {
 719:Middlewares/ST/STM32_USB_Device_Library/Class/DFU/Src/usbd_dfu.c ****     /* Perform an Attach-Detach operation on USB bus */
 720:Middlewares/ST/STM32_USB_Device_Library/Class/DFU/Src/usbd_dfu.c ****     USBD_Stop (pdev);
 721:Middlewares/ST/STM32_USB_Device_Library/Class/DFU/Src/usbd_dfu.c ****     USBD_Start (pdev);  
 722:Middlewares/ST/STM32_USB_Device_Library/Class/DFU/Src/usbd_dfu.c ****   }
 723:Middlewares/ST/STM32_USB_Device_Library/Class/DFU/Src/usbd_dfu.c ****   else
 724:Middlewares/ST/STM32_USB_Device_Library/Class/DFU/Src/usbd_dfu.c ****   {
 725:Middlewares/ST/STM32_USB_Device_Library/Class/DFU/Src/usbd_dfu.c ****     /* Wait for the period of time specified in Detach request */
 726:Middlewares/ST/STM32_USB_Device_Library/Class/DFU/Src/usbd_dfu.c ****     USBD_Delay (req->wValue);  
 727:Middlewares/ST/STM32_USB_Device_Library/Class/DFU/Src/usbd_dfu.c ****   }
 728:Middlewares/ST/STM32_USB_Device_Library/Class/DFU/Src/usbd_dfu.c **** }
 729:Middlewares/ST/STM32_USB_Device_Library/Class/DFU/Src/usbd_dfu.c **** 
 730:Middlewares/ST/STM32_USB_Device_Library/Class/DFU/Src/usbd_dfu.c **** /**
 731:Middlewares/ST/STM32_USB_Device_Library/Class/DFU/Src/usbd_dfu.c ****   * @brief  DFU_Download
 732:Middlewares/ST/STM32_USB_Device_Library/Class/DFU/Src/usbd_dfu.c ****   *         Handles the DFU DNLOAD request.
 733:Middlewares/ST/STM32_USB_Device_Library/Class/DFU/Src/usbd_dfu.c ****   * @param  pdev: device instance
 734:Middlewares/ST/STM32_USB_Device_Library/Class/DFU/Src/usbd_dfu.c ****   * @param  req: pointer to the request structure
 735:Middlewares/ST/STM32_USB_Device_Library/Class/DFU/Src/usbd_dfu.c ****   * @retval None
 736:Middlewares/ST/STM32_USB_Device_Library/Class/DFU/Src/usbd_dfu.c ****   */
 737:Middlewares/ST/STM32_USB_Device_Library/Class/DFU/Src/usbd_dfu.c **** static void DFU_Download(USBD_HandleTypeDef *pdev, USBD_SetupReqTypedef *req)
 738:Middlewares/ST/STM32_USB_Device_Library/Class/DFU/Src/usbd_dfu.c **** {
 739:Middlewares/ST/STM32_USB_Device_Library/Class/DFU/Src/usbd_dfu.c ****  USBD_DFU_HandleTypeDef   *hdfu;
 740:Middlewares/ST/STM32_USB_Device_Library/Class/DFU/Src/usbd_dfu.c ****  
 741:Middlewares/ST/STM32_USB_Device_Library/Class/DFU/Src/usbd_dfu.c ****  hdfu = (USBD_DFU_HandleTypeDef*) pdev->pClassData;
 742:Middlewares/ST/STM32_USB_Device_Library/Class/DFU/Src/usbd_dfu.c ****  
 743:Middlewares/ST/STM32_USB_Device_Library/Class/DFU/Src/usbd_dfu.c ****   /* Data setup request */
 744:Middlewares/ST/STM32_USB_Device_Library/Class/DFU/Src/usbd_dfu.c ****   if (req->wLength > 0)
 745:Middlewares/ST/STM32_USB_Device_Library/Class/DFU/Src/usbd_dfu.c ****   {
 746:Middlewares/ST/STM32_USB_Device_Library/Class/DFU/Src/usbd_dfu.c ****     if ((hdfu->dev_state == DFU_STATE_IDLE) || (hdfu->dev_state == DFU_STATE_DNLOAD_IDLE))
 747:Middlewares/ST/STM32_USB_Device_Library/Class/DFU/Src/usbd_dfu.c ****     {
 748:Middlewares/ST/STM32_USB_Device_Library/Class/DFU/Src/usbd_dfu.c ****       /* Update the global length and block number */
 749:Middlewares/ST/STM32_USB_Device_Library/Class/DFU/Src/usbd_dfu.c ****       hdfu->wblock_num = req->wValue;
 750:Middlewares/ST/STM32_USB_Device_Library/Class/DFU/Src/usbd_dfu.c ****       hdfu->wlength = req->wLength;
ARM GAS  /var/folders/_1/sgnj6dm57r56n1x62bwb5w5h0000gn/T//cckoM3Hr.s 			page 18


 751:Middlewares/ST/STM32_USB_Device_Library/Class/DFU/Src/usbd_dfu.c ****       
 752:Middlewares/ST/STM32_USB_Device_Library/Class/DFU/Src/usbd_dfu.c ****       /* Update the state machine */
 753:Middlewares/ST/STM32_USB_Device_Library/Class/DFU/Src/usbd_dfu.c ****       hdfu->dev_state = DFU_STATE_DNLOAD_SYNC;
 754:Middlewares/ST/STM32_USB_Device_Library/Class/DFU/Src/usbd_dfu.c ****       hdfu->dev_status[4] = hdfu->dev_state;
 755:Middlewares/ST/STM32_USB_Device_Library/Class/DFU/Src/usbd_dfu.c ****       
 756:Middlewares/ST/STM32_USB_Device_Library/Class/DFU/Src/usbd_dfu.c ****       /* Prepare the reception of the buffer over EP0 */
 757:Middlewares/ST/STM32_USB_Device_Library/Class/DFU/Src/usbd_dfu.c ****       USBD_CtlPrepareRx (pdev,
 758:Middlewares/ST/STM32_USB_Device_Library/Class/DFU/Src/usbd_dfu.c ****                          (uint8_t*)hdfu->buffer.d8,                                  
 759:Middlewares/ST/STM32_USB_Device_Library/Class/DFU/Src/usbd_dfu.c ****                          hdfu->wlength);
 760:Middlewares/ST/STM32_USB_Device_Library/Class/DFU/Src/usbd_dfu.c ****     }
 761:Middlewares/ST/STM32_USB_Device_Library/Class/DFU/Src/usbd_dfu.c ****     /* Unsupported state */
 762:Middlewares/ST/STM32_USB_Device_Library/Class/DFU/Src/usbd_dfu.c ****     else
 763:Middlewares/ST/STM32_USB_Device_Library/Class/DFU/Src/usbd_dfu.c ****     {
 764:Middlewares/ST/STM32_USB_Device_Library/Class/DFU/Src/usbd_dfu.c ****       /* Call the error management function (command will be nacked */
 765:Middlewares/ST/STM32_USB_Device_Library/Class/DFU/Src/usbd_dfu.c ****       USBD_CtlError (pdev, req);
 766:Middlewares/ST/STM32_USB_Device_Library/Class/DFU/Src/usbd_dfu.c ****     }
 767:Middlewares/ST/STM32_USB_Device_Library/Class/DFU/Src/usbd_dfu.c ****   }
 768:Middlewares/ST/STM32_USB_Device_Library/Class/DFU/Src/usbd_dfu.c ****   /* 0 Data DNLOAD request */
 769:Middlewares/ST/STM32_USB_Device_Library/Class/DFU/Src/usbd_dfu.c ****   else
 770:Middlewares/ST/STM32_USB_Device_Library/Class/DFU/Src/usbd_dfu.c ****   {
 771:Middlewares/ST/STM32_USB_Device_Library/Class/DFU/Src/usbd_dfu.c ****     /* End of DNLOAD operation*/
 772:Middlewares/ST/STM32_USB_Device_Library/Class/DFU/Src/usbd_dfu.c ****     if (hdfu->dev_state == DFU_STATE_DNLOAD_IDLE || hdfu->dev_state == DFU_STATE_IDLE )
 773:Middlewares/ST/STM32_USB_Device_Library/Class/DFU/Src/usbd_dfu.c ****     {
 774:Middlewares/ST/STM32_USB_Device_Library/Class/DFU/Src/usbd_dfu.c ****       hdfu->manif_state = DFU_MANIFEST_IN_PROGRESS;
 775:Middlewares/ST/STM32_USB_Device_Library/Class/DFU/Src/usbd_dfu.c ****       hdfu->dev_state = DFU_STATE_MANIFEST_SYNC;
 776:Middlewares/ST/STM32_USB_Device_Library/Class/DFU/Src/usbd_dfu.c ****       hdfu->dev_status[1] = 0;
 777:Middlewares/ST/STM32_USB_Device_Library/Class/DFU/Src/usbd_dfu.c ****       hdfu->dev_status[2] = 0;
 778:Middlewares/ST/STM32_USB_Device_Library/Class/DFU/Src/usbd_dfu.c ****       hdfu->dev_status[3] = 0;
 779:Middlewares/ST/STM32_USB_Device_Library/Class/DFU/Src/usbd_dfu.c ****       hdfu->dev_status[4] = hdfu->dev_state;        
 780:Middlewares/ST/STM32_USB_Device_Library/Class/DFU/Src/usbd_dfu.c ****     }
 781:Middlewares/ST/STM32_USB_Device_Library/Class/DFU/Src/usbd_dfu.c ****     else
 782:Middlewares/ST/STM32_USB_Device_Library/Class/DFU/Src/usbd_dfu.c ****     {
 783:Middlewares/ST/STM32_USB_Device_Library/Class/DFU/Src/usbd_dfu.c ****       /* Call the error management function (command will be nacked */
 784:Middlewares/ST/STM32_USB_Device_Library/Class/DFU/Src/usbd_dfu.c ****       USBD_CtlError (pdev, req);
 785:Middlewares/ST/STM32_USB_Device_Library/Class/DFU/Src/usbd_dfu.c ****     }
 786:Middlewares/ST/STM32_USB_Device_Library/Class/DFU/Src/usbd_dfu.c ****   }  
 787:Middlewares/ST/STM32_USB_Device_Library/Class/DFU/Src/usbd_dfu.c **** }
 788:Middlewares/ST/STM32_USB_Device_Library/Class/DFU/Src/usbd_dfu.c **** 
 789:Middlewares/ST/STM32_USB_Device_Library/Class/DFU/Src/usbd_dfu.c **** /**
 790:Middlewares/ST/STM32_USB_Device_Library/Class/DFU/Src/usbd_dfu.c ****   * @brief  DFU_Upload
 791:Middlewares/ST/STM32_USB_Device_Library/Class/DFU/Src/usbd_dfu.c ****   *         Handles the DFU UPLOAD request.
 792:Middlewares/ST/STM32_USB_Device_Library/Class/DFU/Src/usbd_dfu.c ****   * @param  pdev: instance
 793:Middlewares/ST/STM32_USB_Device_Library/Class/DFU/Src/usbd_dfu.c ****   * @param  req: pointer to the request structure
 794:Middlewares/ST/STM32_USB_Device_Library/Class/DFU/Src/usbd_dfu.c ****   * @retval status
 795:Middlewares/ST/STM32_USB_Device_Library/Class/DFU/Src/usbd_dfu.c ****   */
 796:Middlewares/ST/STM32_USB_Device_Library/Class/DFU/Src/usbd_dfu.c **** static void DFU_Upload(USBD_HandleTypeDef *pdev, USBD_SetupReqTypedef *req)
 797:Middlewares/ST/STM32_USB_Device_Library/Class/DFU/Src/usbd_dfu.c **** {
 798:Middlewares/ST/STM32_USB_Device_Library/Class/DFU/Src/usbd_dfu.c ****  USBD_DFU_HandleTypeDef   *hdfu;
 799:Middlewares/ST/STM32_USB_Device_Library/Class/DFU/Src/usbd_dfu.c ****  
 800:Middlewares/ST/STM32_USB_Device_Library/Class/DFU/Src/usbd_dfu.c ****  hdfu = (USBD_DFU_HandleTypeDef*) pdev->pClassData;
 801:Middlewares/ST/STM32_USB_Device_Library/Class/DFU/Src/usbd_dfu.c ****  
 802:Middlewares/ST/STM32_USB_Device_Library/Class/DFU/Src/usbd_dfu.c ****   uint8_t *phaddr = NULL;
 803:Middlewares/ST/STM32_USB_Device_Library/Class/DFU/Src/usbd_dfu.c ****   uint32_t addr = 0;
 804:Middlewares/ST/STM32_USB_Device_Library/Class/DFU/Src/usbd_dfu.c ****   
 805:Middlewares/ST/STM32_USB_Device_Library/Class/DFU/Src/usbd_dfu.c ****   /* Data setup request */
 806:Middlewares/ST/STM32_USB_Device_Library/Class/DFU/Src/usbd_dfu.c ****   if (req->wLength > 0)
 807:Middlewares/ST/STM32_USB_Device_Library/Class/DFU/Src/usbd_dfu.c ****   {
ARM GAS  /var/folders/_1/sgnj6dm57r56n1x62bwb5w5h0000gn/T//cckoM3Hr.s 			page 19


 808:Middlewares/ST/STM32_USB_Device_Library/Class/DFU/Src/usbd_dfu.c ****     if ((hdfu->dev_state == DFU_STATE_IDLE) || (hdfu->dev_state == DFU_STATE_UPLOAD_IDLE))
 809:Middlewares/ST/STM32_USB_Device_Library/Class/DFU/Src/usbd_dfu.c ****     {
 810:Middlewares/ST/STM32_USB_Device_Library/Class/DFU/Src/usbd_dfu.c ****       /* Update the global length and block number */
 811:Middlewares/ST/STM32_USB_Device_Library/Class/DFU/Src/usbd_dfu.c ****       hdfu->wblock_num = req->wValue;
 812:Middlewares/ST/STM32_USB_Device_Library/Class/DFU/Src/usbd_dfu.c ****       hdfu->wlength = req->wLength;
 813:Middlewares/ST/STM32_USB_Device_Library/Class/DFU/Src/usbd_dfu.c ****       
 814:Middlewares/ST/STM32_USB_Device_Library/Class/DFU/Src/usbd_dfu.c ****       /* DFU Get Command */
 815:Middlewares/ST/STM32_USB_Device_Library/Class/DFU/Src/usbd_dfu.c ****       if (hdfu->wblock_num == 0)  
 816:Middlewares/ST/STM32_USB_Device_Library/Class/DFU/Src/usbd_dfu.c ****       {
 817:Middlewares/ST/STM32_USB_Device_Library/Class/DFU/Src/usbd_dfu.c ****         /* Update the state machine */
 818:Middlewares/ST/STM32_USB_Device_Library/Class/DFU/Src/usbd_dfu.c ****         hdfu->dev_state = (hdfu->wlength > 3)? DFU_STATE_IDLE:DFU_STATE_UPLOAD_IDLE;        
 819:Middlewares/ST/STM32_USB_Device_Library/Class/DFU/Src/usbd_dfu.c ****     
 820:Middlewares/ST/STM32_USB_Device_Library/Class/DFU/Src/usbd_dfu.c ****         hdfu->dev_status[1] = 0;
 821:Middlewares/ST/STM32_USB_Device_Library/Class/DFU/Src/usbd_dfu.c ****         hdfu->dev_status[2] = 0;
 822:Middlewares/ST/STM32_USB_Device_Library/Class/DFU/Src/usbd_dfu.c ****         hdfu->dev_status[3] = 0;
 823:Middlewares/ST/STM32_USB_Device_Library/Class/DFU/Src/usbd_dfu.c ****         hdfu->dev_status[4] = hdfu->dev_state;       
 824:Middlewares/ST/STM32_USB_Device_Library/Class/DFU/Src/usbd_dfu.c ****         
 825:Middlewares/ST/STM32_USB_Device_Library/Class/DFU/Src/usbd_dfu.c ****         /* Store the values of all supported commands */
 826:Middlewares/ST/STM32_USB_Device_Library/Class/DFU/Src/usbd_dfu.c ****         hdfu->buffer.d8[0] = DFU_CMD_GETCOMMANDS;
 827:Middlewares/ST/STM32_USB_Device_Library/Class/DFU/Src/usbd_dfu.c ****         hdfu->buffer.d8[1] = DFU_CMD_SETADDRESSPOINTER;
 828:Middlewares/ST/STM32_USB_Device_Library/Class/DFU/Src/usbd_dfu.c ****         hdfu->buffer.d8[2] = DFU_CMD_ERASE;
 829:Middlewares/ST/STM32_USB_Device_Library/Class/DFU/Src/usbd_dfu.c ****         
 830:Middlewares/ST/STM32_USB_Device_Library/Class/DFU/Src/usbd_dfu.c ****         /* Send the status data over EP0 */
 831:Middlewares/ST/STM32_USB_Device_Library/Class/DFU/Src/usbd_dfu.c ****         USBD_CtlSendData (pdev,
 832:Middlewares/ST/STM32_USB_Device_Library/Class/DFU/Src/usbd_dfu.c ****                           (uint8_t *)(&(hdfu->buffer.d8[0])),
 833:Middlewares/ST/STM32_USB_Device_Library/Class/DFU/Src/usbd_dfu.c ****                           3);
 834:Middlewares/ST/STM32_USB_Device_Library/Class/DFU/Src/usbd_dfu.c ****       }
 835:Middlewares/ST/STM32_USB_Device_Library/Class/DFU/Src/usbd_dfu.c ****       else if (hdfu->wblock_num > 1)
 836:Middlewares/ST/STM32_USB_Device_Library/Class/DFU/Src/usbd_dfu.c ****       {
 837:Middlewares/ST/STM32_USB_Device_Library/Class/DFU/Src/usbd_dfu.c ****         hdfu->dev_state = DFU_STATE_UPLOAD_IDLE ;
 838:Middlewares/ST/STM32_USB_Device_Library/Class/DFU/Src/usbd_dfu.c ****         
 839:Middlewares/ST/STM32_USB_Device_Library/Class/DFU/Src/usbd_dfu.c ****         hdfu->dev_status[1] = 0;
 840:Middlewares/ST/STM32_USB_Device_Library/Class/DFU/Src/usbd_dfu.c ****         hdfu->dev_status[2] = 0;
 841:Middlewares/ST/STM32_USB_Device_Library/Class/DFU/Src/usbd_dfu.c ****         hdfu->dev_status[3] = 0;
 842:Middlewares/ST/STM32_USB_Device_Library/Class/DFU/Src/usbd_dfu.c ****         hdfu->dev_status[4] = hdfu->dev_state;
 843:Middlewares/ST/STM32_USB_Device_Library/Class/DFU/Src/usbd_dfu.c ****         
 844:Middlewares/ST/STM32_USB_Device_Library/Class/DFU/Src/usbd_dfu.c ****         addr = ((hdfu->wblock_num - 2) * USBD_DFU_XFER_SIZE) + hdfu->data_ptr;  /* Change is Accele
 845:Middlewares/ST/STM32_USB_Device_Library/Class/DFU/Src/usbd_dfu.c ****         
 846:Middlewares/ST/STM32_USB_Device_Library/Class/DFU/Src/usbd_dfu.c ****         /* Return the physical address where data are stored */
 847:Middlewares/ST/STM32_USB_Device_Library/Class/DFU/Src/usbd_dfu.c ****         phaddr =  ((USBD_DFU_MediaTypeDef *)pdev->pUserData)->Read((uint8_t *)addr, hdfu->buffer.d8
 848:Middlewares/ST/STM32_USB_Device_Library/Class/DFU/Src/usbd_dfu.c ****         
 849:Middlewares/ST/STM32_USB_Device_Library/Class/DFU/Src/usbd_dfu.c ****         /* Send the status data over EP0 */
 850:Middlewares/ST/STM32_USB_Device_Library/Class/DFU/Src/usbd_dfu.c ****         USBD_CtlSendData (pdev,
 851:Middlewares/ST/STM32_USB_Device_Library/Class/DFU/Src/usbd_dfu.c ****                           phaddr,
 852:Middlewares/ST/STM32_USB_Device_Library/Class/DFU/Src/usbd_dfu.c ****                           hdfu->wlength);
 853:Middlewares/ST/STM32_USB_Device_Library/Class/DFU/Src/usbd_dfu.c ****       }
 854:Middlewares/ST/STM32_USB_Device_Library/Class/DFU/Src/usbd_dfu.c ****       else  /* unsupported hdfu->wblock_num */
 855:Middlewares/ST/STM32_USB_Device_Library/Class/DFU/Src/usbd_dfu.c ****       {
 856:Middlewares/ST/STM32_USB_Device_Library/Class/DFU/Src/usbd_dfu.c ****         hdfu->dev_state = DFU_ERROR_STALLEDPKT;
 857:Middlewares/ST/STM32_USB_Device_Library/Class/DFU/Src/usbd_dfu.c ****         
 858:Middlewares/ST/STM32_USB_Device_Library/Class/DFU/Src/usbd_dfu.c ****         hdfu->dev_status[1] = 0;
 859:Middlewares/ST/STM32_USB_Device_Library/Class/DFU/Src/usbd_dfu.c ****         hdfu->dev_status[2] = 0;
 860:Middlewares/ST/STM32_USB_Device_Library/Class/DFU/Src/usbd_dfu.c ****         hdfu->dev_status[3] = 0;
 861:Middlewares/ST/STM32_USB_Device_Library/Class/DFU/Src/usbd_dfu.c ****         hdfu->dev_status[4] = hdfu->dev_state;        
 862:Middlewares/ST/STM32_USB_Device_Library/Class/DFU/Src/usbd_dfu.c ****         
 863:Middlewares/ST/STM32_USB_Device_Library/Class/DFU/Src/usbd_dfu.c ****         /* Call the error management function (command will be nacked */
 864:Middlewares/ST/STM32_USB_Device_Library/Class/DFU/Src/usbd_dfu.c ****         USBD_CtlError (pdev, req); 
ARM GAS  /var/folders/_1/sgnj6dm57r56n1x62bwb5w5h0000gn/T//cckoM3Hr.s 			page 20


 865:Middlewares/ST/STM32_USB_Device_Library/Class/DFU/Src/usbd_dfu.c ****       }
 866:Middlewares/ST/STM32_USB_Device_Library/Class/DFU/Src/usbd_dfu.c ****     }
 867:Middlewares/ST/STM32_USB_Device_Library/Class/DFU/Src/usbd_dfu.c ****     /* Unsupported state */
 868:Middlewares/ST/STM32_USB_Device_Library/Class/DFU/Src/usbd_dfu.c ****     else
 869:Middlewares/ST/STM32_USB_Device_Library/Class/DFU/Src/usbd_dfu.c ****     {
 870:Middlewares/ST/STM32_USB_Device_Library/Class/DFU/Src/usbd_dfu.c ****       hdfu->wlength = 0;
 871:Middlewares/ST/STM32_USB_Device_Library/Class/DFU/Src/usbd_dfu.c ****       hdfu->wblock_num = 0;   
 872:Middlewares/ST/STM32_USB_Device_Library/Class/DFU/Src/usbd_dfu.c ****       /* Call the error management function (command will be nacked */
 873:Middlewares/ST/STM32_USB_Device_Library/Class/DFU/Src/usbd_dfu.c ****       USBD_CtlError (pdev, req);
 874:Middlewares/ST/STM32_USB_Device_Library/Class/DFU/Src/usbd_dfu.c ****     }
 875:Middlewares/ST/STM32_USB_Device_Library/Class/DFU/Src/usbd_dfu.c ****   }
 876:Middlewares/ST/STM32_USB_Device_Library/Class/DFU/Src/usbd_dfu.c ****   /* No Data setup request */
 877:Middlewares/ST/STM32_USB_Device_Library/Class/DFU/Src/usbd_dfu.c ****   else
 878:Middlewares/ST/STM32_USB_Device_Library/Class/DFU/Src/usbd_dfu.c ****   {
 879:Middlewares/ST/STM32_USB_Device_Library/Class/DFU/Src/usbd_dfu.c ****     hdfu->dev_state = DFU_STATE_IDLE;
 880:Middlewares/ST/STM32_USB_Device_Library/Class/DFU/Src/usbd_dfu.c ****      
 881:Middlewares/ST/STM32_USB_Device_Library/Class/DFU/Src/usbd_dfu.c ****     hdfu->dev_status[1] = 0;
 882:Middlewares/ST/STM32_USB_Device_Library/Class/DFU/Src/usbd_dfu.c ****     hdfu->dev_status[2] = 0;
 883:Middlewares/ST/STM32_USB_Device_Library/Class/DFU/Src/usbd_dfu.c ****     hdfu->dev_status[3] = 0;
 884:Middlewares/ST/STM32_USB_Device_Library/Class/DFU/Src/usbd_dfu.c ****     hdfu->dev_status[4] = hdfu->dev_state;
 885:Middlewares/ST/STM32_USB_Device_Library/Class/DFU/Src/usbd_dfu.c ****   }
 886:Middlewares/ST/STM32_USB_Device_Library/Class/DFU/Src/usbd_dfu.c **** }
 887:Middlewares/ST/STM32_USB_Device_Library/Class/DFU/Src/usbd_dfu.c **** 
 888:Middlewares/ST/STM32_USB_Device_Library/Class/DFU/Src/usbd_dfu.c **** /**
 889:Middlewares/ST/STM32_USB_Device_Library/Class/DFU/Src/usbd_dfu.c ****   * @brief  DFU_GetStatus
 890:Middlewares/ST/STM32_USB_Device_Library/Class/DFU/Src/usbd_dfu.c ****   *         Handles the DFU GETSTATUS request.
 891:Middlewares/ST/STM32_USB_Device_Library/Class/DFU/Src/usbd_dfu.c ****   * @param  pdev: instance
 892:Middlewares/ST/STM32_USB_Device_Library/Class/DFU/Src/usbd_dfu.c ****   * @retval status
 893:Middlewares/ST/STM32_USB_Device_Library/Class/DFU/Src/usbd_dfu.c ****   */
 894:Middlewares/ST/STM32_USB_Device_Library/Class/DFU/Src/usbd_dfu.c **** static void DFU_GetStatus(USBD_HandleTypeDef *pdev)
 895:Middlewares/ST/STM32_USB_Device_Library/Class/DFU/Src/usbd_dfu.c **** {
 896:Middlewares/ST/STM32_USB_Device_Library/Class/DFU/Src/usbd_dfu.c ****  USBD_DFU_HandleTypeDef   *hdfu;
 897:Middlewares/ST/STM32_USB_Device_Library/Class/DFU/Src/usbd_dfu.c ****  
 898:Middlewares/ST/STM32_USB_Device_Library/Class/DFU/Src/usbd_dfu.c ****  hdfu = (USBD_DFU_HandleTypeDef*) pdev->pClassData;
 899:Middlewares/ST/STM32_USB_Device_Library/Class/DFU/Src/usbd_dfu.c ****  
 900:Middlewares/ST/STM32_USB_Device_Library/Class/DFU/Src/usbd_dfu.c ****   switch (hdfu->dev_state)
 901:Middlewares/ST/STM32_USB_Device_Library/Class/DFU/Src/usbd_dfu.c ****   {
 902:Middlewares/ST/STM32_USB_Device_Library/Class/DFU/Src/usbd_dfu.c ****   case   DFU_STATE_DNLOAD_SYNC:
 903:Middlewares/ST/STM32_USB_Device_Library/Class/DFU/Src/usbd_dfu.c ****     if (hdfu->wlength != 0)
 904:Middlewares/ST/STM32_USB_Device_Library/Class/DFU/Src/usbd_dfu.c ****     {
 905:Middlewares/ST/STM32_USB_Device_Library/Class/DFU/Src/usbd_dfu.c ****       hdfu->dev_state = DFU_STATE_DNLOAD_BUSY;
 906:Middlewares/ST/STM32_USB_Device_Library/Class/DFU/Src/usbd_dfu.c ****        
 907:Middlewares/ST/STM32_USB_Device_Library/Class/DFU/Src/usbd_dfu.c ****       hdfu->dev_status[1] = 0;
 908:Middlewares/ST/STM32_USB_Device_Library/Class/DFU/Src/usbd_dfu.c ****       hdfu->dev_status[2] = 0;
 909:Middlewares/ST/STM32_USB_Device_Library/Class/DFU/Src/usbd_dfu.c ****       hdfu->dev_status[3] = 0;
 910:Middlewares/ST/STM32_USB_Device_Library/Class/DFU/Src/usbd_dfu.c ****       hdfu->dev_status[4] = hdfu->dev_state;
 911:Middlewares/ST/STM32_USB_Device_Library/Class/DFU/Src/usbd_dfu.c ****       
 912:Middlewares/ST/STM32_USB_Device_Library/Class/DFU/Src/usbd_dfu.c ****       if ((hdfu->wblock_num == 0) && (hdfu->buffer.d8[0] == DFU_CMD_ERASE))
 913:Middlewares/ST/STM32_USB_Device_Library/Class/DFU/Src/usbd_dfu.c ****       {
 914:Middlewares/ST/STM32_USB_Device_Library/Class/DFU/Src/usbd_dfu.c ****         ((USBD_DFU_MediaTypeDef *)pdev->pUserData)->GetStatus(hdfu->data_ptr, DFU_MEDIA_ERASE, hdfu
 915:Middlewares/ST/STM32_USB_Device_Library/Class/DFU/Src/usbd_dfu.c ****       }
 916:Middlewares/ST/STM32_USB_Device_Library/Class/DFU/Src/usbd_dfu.c ****       else
 917:Middlewares/ST/STM32_USB_Device_Library/Class/DFU/Src/usbd_dfu.c ****       {
 918:Middlewares/ST/STM32_USB_Device_Library/Class/DFU/Src/usbd_dfu.c ****         ((USBD_DFU_MediaTypeDef *)pdev->pUserData)->GetStatus(hdfu->data_ptr, DFU_MEDIA_PROGRAM, hd
 919:Middlewares/ST/STM32_USB_Device_Library/Class/DFU/Src/usbd_dfu.c ****       }
 920:Middlewares/ST/STM32_USB_Device_Library/Class/DFU/Src/usbd_dfu.c ****     }
 921:Middlewares/ST/STM32_USB_Device_Library/Class/DFU/Src/usbd_dfu.c ****     else  /* (hdfu->wlength==0)*/
ARM GAS  /var/folders/_1/sgnj6dm57r56n1x62bwb5w5h0000gn/T//cckoM3Hr.s 			page 21


 922:Middlewares/ST/STM32_USB_Device_Library/Class/DFU/Src/usbd_dfu.c ****     {
 923:Middlewares/ST/STM32_USB_Device_Library/Class/DFU/Src/usbd_dfu.c ****       hdfu->dev_state = DFU_STATE_DNLOAD_IDLE;
 924:Middlewares/ST/STM32_USB_Device_Library/Class/DFU/Src/usbd_dfu.c **** 
 925:Middlewares/ST/STM32_USB_Device_Library/Class/DFU/Src/usbd_dfu.c ****       hdfu->dev_status[1] = 0;
 926:Middlewares/ST/STM32_USB_Device_Library/Class/DFU/Src/usbd_dfu.c ****       hdfu->dev_status[2] = 0;
 927:Middlewares/ST/STM32_USB_Device_Library/Class/DFU/Src/usbd_dfu.c ****       hdfu->dev_status[3] = 0;
 928:Middlewares/ST/STM32_USB_Device_Library/Class/DFU/Src/usbd_dfu.c ****       hdfu->dev_status[4] = hdfu->dev_state;     
 929:Middlewares/ST/STM32_USB_Device_Library/Class/DFU/Src/usbd_dfu.c ****     }
 930:Middlewares/ST/STM32_USB_Device_Library/Class/DFU/Src/usbd_dfu.c ****     break;
 931:Middlewares/ST/STM32_USB_Device_Library/Class/DFU/Src/usbd_dfu.c ****     
 932:Middlewares/ST/STM32_USB_Device_Library/Class/DFU/Src/usbd_dfu.c ****   case   DFU_STATE_MANIFEST_SYNC :
 933:Middlewares/ST/STM32_USB_Device_Library/Class/DFU/Src/usbd_dfu.c ****     if (hdfu->manif_state == DFU_MANIFEST_IN_PROGRESS)
 934:Middlewares/ST/STM32_USB_Device_Library/Class/DFU/Src/usbd_dfu.c ****     {
 935:Middlewares/ST/STM32_USB_Device_Library/Class/DFU/Src/usbd_dfu.c ****       hdfu->dev_state = DFU_STATE_MANIFEST;
 936:Middlewares/ST/STM32_USB_Device_Library/Class/DFU/Src/usbd_dfu.c ****       
 937:Middlewares/ST/STM32_USB_Device_Library/Class/DFU/Src/usbd_dfu.c ****       hdfu->dev_status[1] = 1;             /*bwPollTimeout = 1ms*/
 938:Middlewares/ST/STM32_USB_Device_Library/Class/DFU/Src/usbd_dfu.c ****       hdfu->dev_status[2] = 0;
 939:Middlewares/ST/STM32_USB_Device_Library/Class/DFU/Src/usbd_dfu.c ****       hdfu->dev_status[3] = 0;
 940:Middlewares/ST/STM32_USB_Device_Library/Class/DFU/Src/usbd_dfu.c ****       hdfu->dev_status[4] = hdfu->dev_state;   
 941:Middlewares/ST/STM32_USB_Device_Library/Class/DFU/Src/usbd_dfu.c ****     }
 942:Middlewares/ST/STM32_USB_Device_Library/Class/DFU/Src/usbd_dfu.c ****     else if ((hdfu->manif_state == DFU_MANIFEST_COMPLETE) && \
 943:Middlewares/ST/STM32_USB_Device_Library/Class/DFU/Src/usbd_dfu.c ****       ((USBD_DFU_CfgDesc[(11 + (9 * USBD_DFU_MAX_ITF_NUM))]) & 0x04))
 944:Middlewares/ST/STM32_USB_Device_Library/Class/DFU/Src/usbd_dfu.c ****     {
 945:Middlewares/ST/STM32_USB_Device_Library/Class/DFU/Src/usbd_dfu.c ****       hdfu->dev_state = DFU_STATE_IDLE;
 946:Middlewares/ST/STM32_USB_Device_Library/Class/DFU/Src/usbd_dfu.c ****       
 947:Middlewares/ST/STM32_USB_Device_Library/Class/DFU/Src/usbd_dfu.c ****       hdfu->dev_status[1] = 0;
 948:Middlewares/ST/STM32_USB_Device_Library/Class/DFU/Src/usbd_dfu.c ****       hdfu->dev_status[2] = 0;
 949:Middlewares/ST/STM32_USB_Device_Library/Class/DFU/Src/usbd_dfu.c ****       hdfu->dev_status[3] = 0;
 950:Middlewares/ST/STM32_USB_Device_Library/Class/DFU/Src/usbd_dfu.c ****       hdfu->dev_status[4] = hdfu->dev_state;      
 951:Middlewares/ST/STM32_USB_Device_Library/Class/DFU/Src/usbd_dfu.c ****     }
 952:Middlewares/ST/STM32_USB_Device_Library/Class/DFU/Src/usbd_dfu.c ****     break;
 953:Middlewares/ST/STM32_USB_Device_Library/Class/DFU/Src/usbd_dfu.c ****     
 954:Middlewares/ST/STM32_USB_Device_Library/Class/DFU/Src/usbd_dfu.c ****   default :
 955:Middlewares/ST/STM32_USB_Device_Library/Class/DFU/Src/usbd_dfu.c ****     break;
 956:Middlewares/ST/STM32_USB_Device_Library/Class/DFU/Src/usbd_dfu.c ****   }
 957:Middlewares/ST/STM32_USB_Device_Library/Class/DFU/Src/usbd_dfu.c ****   
 958:Middlewares/ST/STM32_USB_Device_Library/Class/DFU/Src/usbd_dfu.c ****   /* Send the status data over EP0 */
 959:Middlewares/ST/STM32_USB_Device_Library/Class/DFU/Src/usbd_dfu.c ****   USBD_CtlSendData (pdev,
 960:Middlewares/ST/STM32_USB_Device_Library/Class/DFU/Src/usbd_dfu.c ****                     (uint8_t *)(&(hdfu->dev_status[0])),
 961:Middlewares/ST/STM32_USB_Device_Library/Class/DFU/Src/usbd_dfu.c ****                     6);
 962:Middlewares/ST/STM32_USB_Device_Library/Class/DFU/Src/usbd_dfu.c **** }
 963:Middlewares/ST/STM32_USB_Device_Library/Class/DFU/Src/usbd_dfu.c **** 
 964:Middlewares/ST/STM32_USB_Device_Library/Class/DFU/Src/usbd_dfu.c **** /**
 965:Middlewares/ST/STM32_USB_Device_Library/Class/DFU/Src/usbd_dfu.c ****   * @brief  DFU_ClearStatus 
 966:Middlewares/ST/STM32_USB_Device_Library/Class/DFU/Src/usbd_dfu.c ****   *         Handles the DFU CLRSTATUS request.
 967:Middlewares/ST/STM32_USB_Device_Library/Class/DFU/Src/usbd_dfu.c ****   * @param  pdev: device instance
 968:Middlewares/ST/STM32_USB_Device_Library/Class/DFU/Src/usbd_dfu.c ****   * @retval status
 969:Middlewares/ST/STM32_USB_Device_Library/Class/DFU/Src/usbd_dfu.c ****   */
 970:Middlewares/ST/STM32_USB_Device_Library/Class/DFU/Src/usbd_dfu.c **** static void DFU_ClearStatus(USBD_HandleTypeDef *pdev)
 971:Middlewares/ST/STM32_USB_Device_Library/Class/DFU/Src/usbd_dfu.c **** {
 237              		.loc 1 971 1 is_stmt 1 view -0
 238              		.cfi_startproc
 239              		@ args = 0, pretend = 0, frame = 0
 240              		@ frame_needed = 0, uses_anonymous_args = 0
 241              		@ link register save eliminated.
 972:Middlewares/ST/STM32_USB_Device_Library/Class/DFU/Src/usbd_dfu.c ****  USBD_DFU_HandleTypeDef   *hdfu;
 242              		.loc 1 972 2 view .LVU37
ARM GAS  /var/folders/_1/sgnj6dm57r56n1x62bwb5w5h0000gn/T//cckoM3Hr.s 			page 22


 973:Middlewares/ST/STM32_USB_Device_Library/Class/DFU/Src/usbd_dfu.c ****  
 974:Middlewares/ST/STM32_USB_Device_Library/Class/DFU/Src/usbd_dfu.c ****  hdfu = (USBD_DFU_HandleTypeDef*) pdev->pClassData;
 243              		.loc 1 974 2 view .LVU38
 244              		.loc 1 974 7 is_stmt 0 view .LVU39
 245 0000 D0F81832 		ldr	r3, [r0, #536]
 246              	.LVL17:
 975:Middlewares/ST/STM32_USB_Device_Library/Class/DFU/Src/usbd_dfu.c ****  
 976:Middlewares/ST/STM32_USB_Device_Library/Class/DFU/Src/usbd_dfu.c ****   if (hdfu->dev_state == DFU_STATE_ERROR)
 247              		.loc 1 976 3 is_stmt 1 view .LVU40
 248              		.loc 1 976 11 is_stmt 0 view .LVU41
 249 0004 93F80024 		ldrb	r2, [r3, #1024]	@ zero_extendqisi2
 250              		.loc 1 976 6 view .LVU42
 251 0008 0A2A     		cmp	r2, #10
 252 000a 11D0     		beq	.L16
 977:Middlewares/ST/STM32_USB_Device_Library/Class/DFU/Src/usbd_dfu.c ****   {
 978:Middlewares/ST/STM32_USB_Device_Library/Class/DFU/Src/usbd_dfu.c ****     hdfu->dev_state = DFU_STATE_IDLE;
 979:Middlewares/ST/STM32_USB_Device_Library/Class/DFU/Src/usbd_dfu.c ****     hdfu->dev_status[0] = DFU_ERROR_NONE;/*bStatus*/
 980:Middlewares/ST/STM32_USB_Device_Library/Class/DFU/Src/usbd_dfu.c ****     hdfu->dev_status[1] = 0;
 981:Middlewares/ST/STM32_USB_Device_Library/Class/DFU/Src/usbd_dfu.c ****     hdfu->dev_status[2] = 0;
 982:Middlewares/ST/STM32_USB_Device_Library/Class/DFU/Src/usbd_dfu.c ****     hdfu->dev_status[3] = 0; /*bwPollTimeout=0ms*/
 983:Middlewares/ST/STM32_USB_Device_Library/Class/DFU/Src/usbd_dfu.c ****     hdfu->dev_status[4] = hdfu->dev_state;/*bState*/
 984:Middlewares/ST/STM32_USB_Device_Library/Class/DFU/Src/usbd_dfu.c ****     hdfu->dev_status[5] = 0;/*iString*/
 985:Middlewares/ST/STM32_USB_Device_Library/Class/DFU/Src/usbd_dfu.c ****   }
 986:Middlewares/ST/STM32_USB_Device_Library/Class/DFU/Src/usbd_dfu.c ****   else
 987:Middlewares/ST/STM32_USB_Device_Library/Class/DFU/Src/usbd_dfu.c ****   {   /*State Error*/
 988:Middlewares/ST/STM32_USB_Device_Library/Class/DFU/Src/usbd_dfu.c ****     hdfu->dev_state = DFU_STATE_ERROR;
 253              		.loc 1 988 5 is_stmt 1 view .LVU43
 254              		.loc 1 988 21 is_stmt 0 view .LVU44
 255 000c 0A21     		movs	r1, #10
 256 000e 83F80014 		strb	r1, [r3, #1024]
 989:Middlewares/ST/STM32_USB_Device_Library/Class/DFU/Src/usbd_dfu.c ****     hdfu->dev_status[0] = DFU_ERROR_UNKNOWN;/*bStatus*/
 257              		.loc 1 989 5 is_stmt 1 view .LVU45
 258              		.loc 1 989 25 is_stmt 0 view .LVU46
 259 0012 0E22     		movs	r2, #14
 260 0014 83F80124 		strb	r2, [r3, #1025]
 990:Middlewares/ST/STM32_USB_Device_Library/Class/DFU/Src/usbd_dfu.c ****     hdfu->dev_status[1] = 0;
 261              		.loc 1 990 5 is_stmt 1 view .LVU47
 262              		.loc 1 990 25 is_stmt 0 view .LVU48
 263 0018 0022     		movs	r2, #0
 264 001a 83F80224 		strb	r2, [r3, #1026]
 991:Middlewares/ST/STM32_USB_Device_Library/Class/DFU/Src/usbd_dfu.c ****     hdfu->dev_status[2] = 0;
 265              		.loc 1 991 5 is_stmt 1 view .LVU49
 266              		.loc 1 991 25 is_stmt 0 view .LVU50
 267 001e 83F80324 		strb	r2, [r3, #1027]
 992:Middlewares/ST/STM32_USB_Device_Library/Class/DFU/Src/usbd_dfu.c ****     hdfu->dev_status[3] = 0; /*bwPollTimeout=0ms*/
 268              		.loc 1 992 5 is_stmt 1 view .LVU51
 269              		.loc 1 992 25 is_stmt 0 view .LVU52
 270 0022 83F80424 		strb	r2, [r3, #1028]
 993:Middlewares/ST/STM32_USB_Device_Library/Class/DFU/Src/usbd_dfu.c ****     hdfu->dev_status[4] = hdfu->dev_state;/*bState*/
 271              		.loc 1 993 5 is_stmt 1 view .LVU53
 272              		.loc 1 993 25 is_stmt 0 view .LVU54
 273 0026 83F80514 		strb	r1, [r3, #1029]
 994:Middlewares/ST/STM32_USB_Device_Library/Class/DFU/Src/usbd_dfu.c ****     hdfu->dev_status[5] = 0;/*iString*/
 274              		.loc 1 994 5 is_stmt 1 view .LVU55
 275              		.loc 1 994 25 is_stmt 0 view .LVU56
 276 002a 83F80624 		strb	r2, [r3, #1030]
 995:Middlewares/ST/STM32_USB_Device_Library/Class/DFU/Src/usbd_dfu.c ****   }
ARM GAS  /var/folders/_1/sgnj6dm57r56n1x62bwb5w5h0000gn/T//cckoM3Hr.s 			page 23


 996:Middlewares/ST/STM32_USB_Device_Library/Class/DFU/Src/usbd_dfu.c **** }
 277              		.loc 1 996 1 view .LVU57
 278 002e 7047     		bx	lr
 279              	.L16:
 978:Middlewares/ST/STM32_USB_Device_Library/Class/DFU/Src/usbd_dfu.c ****     hdfu->dev_status[0] = DFU_ERROR_NONE;/*bStatus*/
 280              		.loc 1 978 5 is_stmt 1 view .LVU58
 978:Middlewares/ST/STM32_USB_Device_Library/Class/DFU/Src/usbd_dfu.c ****     hdfu->dev_status[0] = DFU_ERROR_NONE;/*bStatus*/
 281              		.loc 1 978 21 is_stmt 0 view .LVU59
 282 0030 0221     		movs	r1, #2
 283 0032 83F80014 		strb	r1, [r3, #1024]
 979:Middlewares/ST/STM32_USB_Device_Library/Class/DFU/Src/usbd_dfu.c ****     hdfu->dev_status[1] = 0;
 284              		.loc 1 979 5 is_stmt 1 view .LVU60
 979:Middlewares/ST/STM32_USB_Device_Library/Class/DFU/Src/usbd_dfu.c ****     hdfu->dev_status[1] = 0;
 285              		.loc 1 979 25 is_stmt 0 view .LVU61
 286 0036 0022     		movs	r2, #0
 287 0038 83F80124 		strb	r2, [r3, #1025]
 980:Middlewares/ST/STM32_USB_Device_Library/Class/DFU/Src/usbd_dfu.c ****     hdfu->dev_status[2] = 0;
 288              		.loc 1 980 5 is_stmt 1 view .LVU62
 980:Middlewares/ST/STM32_USB_Device_Library/Class/DFU/Src/usbd_dfu.c ****     hdfu->dev_status[2] = 0;
 289              		.loc 1 980 25 is_stmt 0 view .LVU63
 290 003c 83F80224 		strb	r2, [r3, #1026]
 981:Middlewares/ST/STM32_USB_Device_Library/Class/DFU/Src/usbd_dfu.c ****     hdfu->dev_status[3] = 0; /*bwPollTimeout=0ms*/
 291              		.loc 1 981 5 is_stmt 1 view .LVU64
 981:Middlewares/ST/STM32_USB_Device_Library/Class/DFU/Src/usbd_dfu.c ****     hdfu->dev_status[3] = 0; /*bwPollTimeout=0ms*/
 292              		.loc 1 981 25 is_stmt 0 view .LVU65
 293 0040 83F80324 		strb	r2, [r3, #1027]
 982:Middlewares/ST/STM32_USB_Device_Library/Class/DFU/Src/usbd_dfu.c ****     hdfu->dev_status[4] = hdfu->dev_state;/*bState*/
 294              		.loc 1 982 5 is_stmt 1 view .LVU66
 982:Middlewares/ST/STM32_USB_Device_Library/Class/DFU/Src/usbd_dfu.c ****     hdfu->dev_status[4] = hdfu->dev_state;/*bState*/
 295              		.loc 1 982 25 is_stmt 0 view .LVU67
 296 0044 83F80424 		strb	r2, [r3, #1028]
 983:Middlewares/ST/STM32_USB_Device_Library/Class/DFU/Src/usbd_dfu.c ****     hdfu->dev_status[5] = 0;/*iString*/
 297              		.loc 1 983 5 is_stmt 1 view .LVU68
 983:Middlewares/ST/STM32_USB_Device_Library/Class/DFU/Src/usbd_dfu.c ****     hdfu->dev_status[5] = 0;/*iString*/
 298              		.loc 1 983 25 is_stmt 0 view .LVU69
 299 0048 83F80514 		strb	r1, [r3, #1029]
 984:Middlewares/ST/STM32_USB_Device_Library/Class/DFU/Src/usbd_dfu.c ****   }
 300              		.loc 1 984 5 is_stmt 1 view .LVU70
 984:Middlewares/ST/STM32_USB_Device_Library/Class/DFU/Src/usbd_dfu.c ****   }
 301              		.loc 1 984 25 is_stmt 0 view .LVU71
 302 004c 83F80624 		strb	r2, [r3, #1030]
 303 0050 7047     		bx	lr
 304              		.cfi_endproc
 305              	.LFE144:
 307              		.section	.text.DFU_Abort,"ax",%progbits
 308              		.align	1
 309              		.syntax unified
 310              		.thumb
 311              		.thumb_func
 312              		.fpu fpv4-sp-d16
 314              	DFU_Abort:
 315              	.LVL18:
 316              	.LFB146:
 997:Middlewares/ST/STM32_USB_Device_Library/Class/DFU/Src/usbd_dfu.c **** 
 998:Middlewares/ST/STM32_USB_Device_Library/Class/DFU/Src/usbd_dfu.c **** /**
 999:Middlewares/ST/STM32_USB_Device_Library/Class/DFU/Src/usbd_dfu.c ****   * @brief  DFU_GetState
1000:Middlewares/ST/STM32_USB_Device_Library/Class/DFU/Src/usbd_dfu.c ****   *         Handles the DFU GETSTATE request.
ARM GAS  /var/folders/_1/sgnj6dm57r56n1x62bwb5w5h0000gn/T//cckoM3Hr.s 			page 24


1001:Middlewares/ST/STM32_USB_Device_Library/Class/DFU/Src/usbd_dfu.c ****   * @param  pdev: device instance
1002:Middlewares/ST/STM32_USB_Device_Library/Class/DFU/Src/usbd_dfu.c ****   * @retval None
1003:Middlewares/ST/STM32_USB_Device_Library/Class/DFU/Src/usbd_dfu.c ****   */
1004:Middlewares/ST/STM32_USB_Device_Library/Class/DFU/Src/usbd_dfu.c **** static void DFU_GetState(USBD_HandleTypeDef *pdev)
1005:Middlewares/ST/STM32_USB_Device_Library/Class/DFU/Src/usbd_dfu.c **** {
1006:Middlewares/ST/STM32_USB_Device_Library/Class/DFU/Src/usbd_dfu.c ****  USBD_DFU_HandleTypeDef   *hdfu;
1007:Middlewares/ST/STM32_USB_Device_Library/Class/DFU/Src/usbd_dfu.c ****  
1008:Middlewares/ST/STM32_USB_Device_Library/Class/DFU/Src/usbd_dfu.c ****  hdfu = (USBD_DFU_HandleTypeDef*) pdev->pClassData;
1009:Middlewares/ST/STM32_USB_Device_Library/Class/DFU/Src/usbd_dfu.c ****  
1010:Middlewares/ST/STM32_USB_Device_Library/Class/DFU/Src/usbd_dfu.c ****   /* Return the current state of the DFU interface */
1011:Middlewares/ST/STM32_USB_Device_Library/Class/DFU/Src/usbd_dfu.c ****   USBD_CtlSendData (pdev, 
1012:Middlewares/ST/STM32_USB_Device_Library/Class/DFU/Src/usbd_dfu.c ****                     &hdfu->dev_state,
1013:Middlewares/ST/STM32_USB_Device_Library/Class/DFU/Src/usbd_dfu.c ****                     1);  
1014:Middlewares/ST/STM32_USB_Device_Library/Class/DFU/Src/usbd_dfu.c **** }
1015:Middlewares/ST/STM32_USB_Device_Library/Class/DFU/Src/usbd_dfu.c **** 
1016:Middlewares/ST/STM32_USB_Device_Library/Class/DFU/Src/usbd_dfu.c **** /**
1017:Middlewares/ST/STM32_USB_Device_Library/Class/DFU/Src/usbd_dfu.c ****   * @brief  DFU_Abort
1018:Middlewares/ST/STM32_USB_Device_Library/Class/DFU/Src/usbd_dfu.c ****   *         Handles the DFU ABORT request.
1019:Middlewares/ST/STM32_USB_Device_Library/Class/DFU/Src/usbd_dfu.c ****   * @param  pdev: device instance
1020:Middlewares/ST/STM32_USB_Device_Library/Class/DFU/Src/usbd_dfu.c ****   * @retval None
1021:Middlewares/ST/STM32_USB_Device_Library/Class/DFU/Src/usbd_dfu.c ****   */
1022:Middlewares/ST/STM32_USB_Device_Library/Class/DFU/Src/usbd_dfu.c **** static void DFU_Abort(USBD_HandleTypeDef *pdev)
1023:Middlewares/ST/STM32_USB_Device_Library/Class/DFU/Src/usbd_dfu.c **** {
 317              		.loc 1 1023 1 is_stmt 1 view -0
 318              		.cfi_startproc
 319              		@ args = 0, pretend = 0, frame = 0
 320              		@ frame_needed = 0, uses_anonymous_args = 0
 321              		@ link register save eliminated.
1024:Middlewares/ST/STM32_USB_Device_Library/Class/DFU/Src/usbd_dfu.c ****  USBD_DFU_HandleTypeDef   *hdfu;
 322              		.loc 1 1024 2 view .LVU73
1025:Middlewares/ST/STM32_USB_Device_Library/Class/DFU/Src/usbd_dfu.c ****  
1026:Middlewares/ST/STM32_USB_Device_Library/Class/DFU/Src/usbd_dfu.c ****  hdfu = (USBD_DFU_HandleTypeDef*) pdev->pClassData;
 323              		.loc 1 1026 2 view .LVU74
 324              		.loc 1 1026 7 is_stmt 0 view .LVU75
 325 0000 D0F81832 		ldr	r3, [r0, #536]
 326              	.LVL19:
1027:Middlewares/ST/STM32_USB_Device_Library/Class/DFU/Src/usbd_dfu.c ****  
1028:Middlewares/ST/STM32_USB_Device_Library/Class/DFU/Src/usbd_dfu.c ****   if (hdfu->dev_state == DFU_STATE_IDLE || hdfu->dev_state == DFU_STATE_DNLOAD_SYNC
 327              		.loc 1 1028 3 is_stmt 1 view .LVU76
 328              		.loc 1 1028 11 is_stmt 0 view .LVU77
 329 0004 93F80014 		ldrb	r1, [r3, #1024]	@ zero_extendqisi2
 330              		.loc 1 1028 41 view .LVU78
 331 0008 8A1E     		subs	r2, r1, #2
 332 000a D2B2     		uxtb	r2, r2
 333              		.loc 1 1028 6 view .LVU79
 334 000c 012A     		cmp	r2, #1
 335 000e 05D9     		bls	.L18
1029:Middlewares/ST/STM32_USB_Device_Library/Class/DFU/Src/usbd_dfu.c ****       || hdfu->dev_state == DFU_STATE_DNLOAD_IDLE || hdfu->dev_state == DFU_STATE_MANIFEST_SYNC
 336              		.loc 1 1029 7 view .LVU80
 337 0010 0529     		cmp	r1, #5
 338 0012 03D0     		beq	.L18
 339              		.loc 1 1029 51 discriminator 1 view .LVU81
 340 0014 0629     		cmp	r1, #6
 341 0016 01D0     		beq	.L18
1030:Middlewares/ST/STM32_USB_Device_Library/Class/DFU/Src/usbd_dfu.c ****         || hdfu->dev_state == DFU_STATE_UPLOAD_IDLE )
 342              		.loc 1 1030 9 view .LVU82
 343 0018 0929     		cmp	r1, #9
ARM GAS  /var/folders/_1/sgnj6dm57r56n1x62bwb5w5h0000gn/T//cckoM3Hr.s 			page 25


 344 001a 13D1     		bne	.L17
 345              	.L18:
1031:Middlewares/ST/STM32_USB_Device_Library/Class/DFU/Src/usbd_dfu.c ****   {
1032:Middlewares/ST/STM32_USB_Device_Library/Class/DFU/Src/usbd_dfu.c ****     hdfu->dev_state = DFU_STATE_IDLE;
 346              		.loc 1 1032 5 is_stmt 1 view .LVU83
 347              		.loc 1 1032 21 is_stmt 0 view .LVU84
 348 001c 0221     		movs	r1, #2
 349 001e 83F80014 		strb	r1, [r3, #1024]
1033:Middlewares/ST/STM32_USB_Device_Library/Class/DFU/Src/usbd_dfu.c ****     hdfu->dev_status[0] = DFU_ERROR_NONE;
 350              		.loc 1 1033 5 is_stmt 1 view .LVU85
 351              		.loc 1 1033 25 is_stmt 0 view .LVU86
 352 0022 0022     		movs	r2, #0
 353 0024 83F80124 		strb	r2, [r3, #1025]
1034:Middlewares/ST/STM32_USB_Device_Library/Class/DFU/Src/usbd_dfu.c ****     hdfu->dev_status[1] = 0;
 354              		.loc 1 1034 5 is_stmt 1 view .LVU87
 355              		.loc 1 1034 25 is_stmt 0 view .LVU88
 356 0028 83F80224 		strb	r2, [r3, #1026]
1035:Middlewares/ST/STM32_USB_Device_Library/Class/DFU/Src/usbd_dfu.c ****     hdfu->dev_status[2] = 0;
 357              		.loc 1 1035 5 is_stmt 1 view .LVU89
 358              		.loc 1 1035 25 is_stmt 0 view .LVU90
 359 002c 83F80324 		strb	r2, [r3, #1027]
1036:Middlewares/ST/STM32_USB_Device_Library/Class/DFU/Src/usbd_dfu.c ****     hdfu->dev_status[3] = 0; /*bwPollTimeout=0ms*/
 360              		.loc 1 1036 5 is_stmt 1 view .LVU91
 361              		.loc 1 1036 25 is_stmt 0 view .LVU92
 362 0030 83F80424 		strb	r2, [r3, #1028]
1037:Middlewares/ST/STM32_USB_Device_Library/Class/DFU/Src/usbd_dfu.c ****     hdfu->dev_status[4] = hdfu->dev_state;
 363              		.loc 1 1037 5 is_stmt 1 view .LVU93
 364              		.loc 1 1037 25 is_stmt 0 view .LVU94
 365 0034 83F80514 		strb	r1, [r3, #1029]
1038:Middlewares/ST/STM32_USB_Device_Library/Class/DFU/Src/usbd_dfu.c ****     hdfu->dev_status[5] = 0; /*iString*/
 366              		.loc 1 1038 5 is_stmt 1 view .LVU95
 367              		.loc 1 1038 25 is_stmt 0 view .LVU96
 368 0038 83F80624 		strb	r2, [r3, #1030]
1039:Middlewares/ST/STM32_USB_Device_Library/Class/DFU/Src/usbd_dfu.c ****     hdfu->wblock_num = 0;
 369              		.loc 1 1039 5 is_stmt 1 view .LVU97
 370              		.loc 1 1039 22 is_stmt 0 view .LVU98
 371 003c C3F80824 		str	r2, [r3, #1032]
1040:Middlewares/ST/STM32_USB_Device_Library/Class/DFU/Src/usbd_dfu.c ****     hdfu->wlength = 0;
 372              		.loc 1 1040 5 is_stmt 1 view .LVU99
 373              		.loc 1 1040 19 is_stmt 0 view .LVU100
 374 0040 C3F80C24 		str	r2, [r3, #1036]
 375              	.L17:
1041:Middlewares/ST/STM32_USB_Device_Library/Class/DFU/Src/usbd_dfu.c ****   }  
1042:Middlewares/ST/STM32_USB_Device_Library/Class/DFU/Src/usbd_dfu.c **** }
 376              		.loc 1 1042 1 view .LVU101
 377 0044 7047     		bx	lr
 378              		.cfi_endproc
 379              	.LFE146:
 381              		.section	.text.USBD_DFU_GetUsrStringDesc,"ax",%progbits
 382              		.align	1
 383              		.syntax unified
 384              		.thumb
 385              		.thumb_func
 386              		.fpu fpv4-sp-d16
 388              	USBD_DFU_GetUsrStringDesc:
 389              	.LVL20:
 390              	.LFB138:
ARM GAS  /var/folders/_1/sgnj6dm57r56n1x62bwb5w5h0000gn/T//cckoM3Hr.s 			page 26


 653:Middlewares/ST/STM32_USB_Device_Library/Class/DFU/Src/usbd_dfu.c ****   static uint8_t USBD_StrDesc[255];
 391              		.loc 1 653 1 is_stmt 1 view -0
 392              		.cfi_startproc
 393              		@ args = 0, pretend = 0, frame = 0
 394              		@ frame_needed = 0, uses_anonymous_args = 0
 654:Middlewares/ST/STM32_USB_Device_Library/Class/DFU/Src/usbd_dfu.c ****   /* Check if the requested string interface is supported */
 395              		.loc 1 654 3 view .LVU103
 656:Middlewares/ST/STM32_USB_Device_Library/Class/DFU/Src/usbd_dfu.c ****   {
 396              		.loc 1 656 3 view .LVU104
 656:Middlewares/ST/STM32_USB_Device_Library/Class/DFU/Src/usbd_dfu.c ****   {
 397              		.loc 1 656 6 is_stmt 0 view .LVU105
 398 0000 0629     		cmp	r1, #6
 399 0002 09D8     		bhi	.L22
 653:Middlewares/ST/STM32_USB_Device_Library/Class/DFU/Src/usbd_dfu.c ****   static uint8_t USBD_StrDesc[255];
 400              		.loc 1 653 1 view .LVU106
 401 0004 10B5     		push	{r4, lr}
 402              	.LCFI0:
 403              		.cfi_def_cfa_offset 8
 404              		.cfi_offset 4, -8
 405              		.cfi_offset 14, -4
 658:Middlewares/ST/STM32_USB_Device_Library/Class/DFU/Src/usbd_dfu.c ****     return USBD_StrDesc;  
 406              		.loc 1 658 5 is_stmt 1 view .LVU107
 658:Middlewares/ST/STM32_USB_Device_Library/Class/DFU/Src/usbd_dfu.c ****     return USBD_StrDesc;  
 407              		.loc 1 658 62 is_stmt 0 view .LVU108
 408 0006 D0F81C32 		ldr	r3, [r0, #540]
 658:Middlewares/ST/STM32_USB_Device_Library/Class/DFU/Src/usbd_dfu.c ****     return USBD_StrDesc;  
 409              		.loc 1 658 5 view .LVU109
 410 000a 044C     		ldr	r4, .L27
 411 000c 2146     		mov	r1, r4
 412              	.LVL21:
 658:Middlewares/ST/STM32_USB_Device_Library/Class/DFU/Src/usbd_dfu.c ****     return USBD_StrDesc;  
 413              		.loc 1 658 5 view .LVU110
 414 000e 1868     		ldr	r0, [r3]
 415              	.LVL22:
 658:Middlewares/ST/STM32_USB_Device_Library/Class/DFU/Src/usbd_dfu.c ****     return USBD_StrDesc;  
 416              		.loc 1 658 5 view .LVU111
 417 0010 FFF7FEFF 		bl	USBD_GetString
 418              	.LVL23:
 659:Middlewares/ST/STM32_USB_Device_Library/Class/DFU/Src/usbd_dfu.c ****   }
 419              		.loc 1 659 5 is_stmt 1 view .LVU112
 659:Middlewares/ST/STM32_USB_Device_Library/Class/DFU/Src/usbd_dfu.c ****   }
 420              		.loc 1 659 12 is_stmt 0 view .LVU113
 421 0014 2046     		mov	r0, r4
 666:Middlewares/ST/STM32_USB_Device_Library/Class/DFU/Src/usbd_dfu.c **** #endif
 422              		.loc 1 666 1 view .LVU114
 423 0016 10BD     		pop	{r4, pc}
 424              	.LVL24:
 425              	.L22:
 426              	.LCFI1:
 427              		.cfi_def_cfa_offset 0
 428              		.cfi_restore 4
 429              		.cfi_restore 14
 664:Middlewares/ST/STM32_USB_Device_Library/Class/DFU/Src/usbd_dfu.c ****   }
 430              		.loc 1 664 12 view .LVU115
 431 0018 0020     		movs	r0, #0
 432              	.LVL25:
 666:Middlewares/ST/STM32_USB_Device_Library/Class/DFU/Src/usbd_dfu.c **** #endif
ARM GAS  /var/folders/_1/sgnj6dm57r56n1x62bwb5w5h0000gn/T//cckoM3Hr.s 			page 27


 433              		.loc 1 666 1 view .LVU116
 434 001a 7047     		bx	lr
 435              	.L28:
 436              		.align	2
 437              	.L27:
 438 001c 00000000 		.word	.LANCHOR2
 439              		.cfi_endproc
 440              	.LFE138:
 442              		.section	.text.DFU_Leave,"ax",%progbits
 443              		.align	1
 444              		.syntax unified
 445              		.thumb
 446              		.thumb_func
 447              		.fpu fpv4-sp-d16
 449              	DFU_Leave:
 450              	.LVL26:
 451              	.LFB147:
1043:Middlewares/ST/STM32_USB_Device_Library/Class/DFU/Src/usbd_dfu.c **** 
1044:Middlewares/ST/STM32_USB_Device_Library/Class/DFU/Src/usbd_dfu.c **** /**
1045:Middlewares/ST/STM32_USB_Device_Library/Class/DFU/Src/usbd_dfu.c ****   * @brief  DFU_Leave
1046:Middlewares/ST/STM32_USB_Device_Library/Class/DFU/Src/usbd_dfu.c ****   *         Handles the sub-protocol DFU leave DFU mode request (leaves DFU mode
1047:Middlewares/ST/STM32_USB_Device_Library/Class/DFU/Src/usbd_dfu.c ****   *         and resets device to jump to user loaded code).
1048:Middlewares/ST/STM32_USB_Device_Library/Class/DFU/Src/usbd_dfu.c ****   * @param  pdev: device instance
1049:Middlewares/ST/STM32_USB_Device_Library/Class/DFU/Src/usbd_dfu.c ****   * @retval None
1050:Middlewares/ST/STM32_USB_Device_Library/Class/DFU/Src/usbd_dfu.c ****   */
1051:Middlewares/ST/STM32_USB_Device_Library/Class/DFU/Src/usbd_dfu.c **** void DFU_Leave(USBD_HandleTypeDef *pdev)
1052:Middlewares/ST/STM32_USB_Device_Library/Class/DFU/Src/usbd_dfu.c **** {
 452              		.loc 1 1052 1 is_stmt 1 view -0
 453              		.cfi_startproc
 454              		@ args = 0, pretend = 0, frame = 0
 455              		@ frame_needed = 0, uses_anonymous_args = 0
1053:Middlewares/ST/STM32_USB_Device_Library/Class/DFU/Src/usbd_dfu.c ****  USBD_DFU_HandleTypeDef   *hdfu;
 456              		.loc 1 1053 2 view .LVU118
1054:Middlewares/ST/STM32_USB_Device_Library/Class/DFU/Src/usbd_dfu.c ****  
1055:Middlewares/ST/STM32_USB_Device_Library/Class/DFU/Src/usbd_dfu.c ****  hdfu = (USBD_DFU_HandleTypeDef*) pdev->pClassData;
 457              		.loc 1 1055 2 view .LVU119
 458              		.loc 1 1055 7 is_stmt 0 view .LVU120
 459 0000 D0F81832 		ldr	r3, [r0, #536]
 460              	.LVL27:
1056:Middlewares/ST/STM32_USB_Device_Library/Class/DFU/Src/usbd_dfu.c ****  
1057:Middlewares/ST/STM32_USB_Device_Library/Class/DFU/Src/usbd_dfu.c ****  hdfu->manif_state = DFU_MANIFEST_COMPLETE;
 461              		.loc 1 1057 2 is_stmt 1 view .LVU121
 462              		.loc 1 1057 20 is_stmt 0 view .LVU122
 463 0004 0022     		movs	r2, #0
 464 0006 83F80724 		strb	r2, [r3, #1031]
1058:Middlewares/ST/STM32_USB_Device_Library/Class/DFU/Src/usbd_dfu.c **** 
1059:Middlewares/ST/STM32_USB_Device_Library/Class/DFU/Src/usbd_dfu.c ****   if ((USBD_DFU_CfgDesc[(11 + (9 * USBD_DFU_MAX_ITF_NUM))]) & 0x04)
 465              		.loc 1 1059 3 is_stmt 1 view .LVU123
 466              		.loc 1 1059 24 is_stmt 0 view .LVU124
 467 000a 194A     		ldr	r2, .L35
 468 000c 127D     		ldrb	r2, [r2, #20]	@ zero_extendqisi2
 469              		.loc 1 1059 6 view .LVU125
 470 000e 12F0040F 		tst	r2, #4
 471 0012 0CD0     		beq	.L30
1060:Middlewares/ST/STM32_USB_Device_Library/Class/DFU/Src/usbd_dfu.c ****   {
1061:Middlewares/ST/STM32_USB_Device_Library/Class/DFU/Src/usbd_dfu.c ****     hdfu->dev_state = DFU_STATE_MANIFEST_SYNC;
 472              		.loc 1 1061 5 is_stmt 1 view .LVU126
ARM GAS  /var/folders/_1/sgnj6dm57r56n1x62bwb5w5h0000gn/T//cckoM3Hr.s 			page 28


 473              		.loc 1 1061 21 is_stmt 0 view .LVU127
 474 0014 0621     		movs	r1, #6
 475 0016 83F80014 		strb	r1, [r3, #1024]
1062:Middlewares/ST/STM32_USB_Device_Library/Class/DFU/Src/usbd_dfu.c **** 
1063:Middlewares/ST/STM32_USB_Device_Library/Class/DFU/Src/usbd_dfu.c ****     hdfu->dev_status[1] = 0;
 476              		.loc 1 1063 5 is_stmt 1 view .LVU128
 477              		.loc 1 1063 25 is_stmt 0 view .LVU129
 478 001a 0022     		movs	r2, #0
 479 001c 83F80224 		strb	r2, [r3, #1026]
1064:Middlewares/ST/STM32_USB_Device_Library/Class/DFU/Src/usbd_dfu.c ****     hdfu->dev_status[2] = 0;
 480              		.loc 1 1064 5 is_stmt 1 view .LVU130
 481              		.loc 1 1064 25 is_stmt 0 view .LVU131
 482 0020 83F80324 		strb	r2, [r3, #1027]
1065:Middlewares/ST/STM32_USB_Device_Library/Class/DFU/Src/usbd_dfu.c ****     hdfu->dev_status[3] = 0;
 483              		.loc 1 1065 5 is_stmt 1 view .LVU132
 484              		.loc 1 1065 25 is_stmt 0 view .LVU133
 485 0024 83F80424 		strb	r2, [r3, #1028]
1066:Middlewares/ST/STM32_USB_Device_Library/Class/DFU/Src/usbd_dfu.c ****     hdfu->dev_status[4] = hdfu->dev_state;       
 486              		.loc 1 1066 5 is_stmt 1 view .LVU134
 487              		.loc 1 1066 25 is_stmt 0 view .LVU135
 488 0028 83F80514 		strb	r1, [r3, #1029]
1067:Middlewares/ST/STM32_USB_Device_Library/Class/DFU/Src/usbd_dfu.c ****     return;
 489              		.loc 1 1067 5 is_stmt 1 view .LVU136
 490 002c 7047     		bx	lr
 491              	.L30:
1052:Middlewares/ST/STM32_USB_Device_Library/Class/DFU/Src/usbd_dfu.c ****  USBD_DFU_HandleTypeDef   *hdfu;
 492              		.loc 1 1052 1 is_stmt 0 view .LVU137
 493 002e 10B5     		push	{r4, lr}
 494              	.LCFI2:
 495              		.cfi_def_cfa_offset 8
 496              		.cfi_offset 4, -8
 497              		.cfi_offset 14, -4
 498 0030 0446     		mov	r4, r0
1068:Middlewares/ST/STM32_USB_Device_Library/Class/DFU/Src/usbd_dfu.c ****   }
1069:Middlewares/ST/STM32_USB_Device_Library/Class/DFU/Src/usbd_dfu.c ****   else
1070:Middlewares/ST/STM32_USB_Device_Library/Class/DFU/Src/usbd_dfu.c ****   {
1071:Middlewares/ST/STM32_USB_Device_Library/Class/DFU/Src/usbd_dfu.c ****     
1072:Middlewares/ST/STM32_USB_Device_Library/Class/DFU/Src/usbd_dfu.c ****     hdfu->dev_state = DFU_STATE_MANIFEST_WAIT_RESET;
 499              		.loc 1 1072 5 is_stmt 1 view .LVU138
 500              		.loc 1 1072 21 is_stmt 0 view .LVU139
 501 0032 0821     		movs	r1, #8
 502 0034 83F80014 		strb	r1, [r3, #1024]
1073:Middlewares/ST/STM32_USB_Device_Library/Class/DFU/Src/usbd_dfu.c ****     
1074:Middlewares/ST/STM32_USB_Device_Library/Class/DFU/Src/usbd_dfu.c ****     hdfu->dev_status[1] = 0;
 503              		.loc 1 1074 5 is_stmt 1 view .LVU140
 504              		.loc 1 1074 25 is_stmt 0 view .LVU141
 505 0038 0022     		movs	r2, #0
 506 003a 83F80224 		strb	r2, [r3, #1026]
1075:Middlewares/ST/STM32_USB_Device_Library/Class/DFU/Src/usbd_dfu.c ****     hdfu->dev_status[2] = 0;
 507              		.loc 1 1075 5 is_stmt 1 view .LVU142
 508              		.loc 1 1075 25 is_stmt 0 view .LVU143
 509 003e 83F80324 		strb	r2, [r3, #1027]
1076:Middlewares/ST/STM32_USB_Device_Library/Class/DFU/Src/usbd_dfu.c ****     hdfu->dev_status[3] = 0;
 510              		.loc 1 1076 5 is_stmt 1 view .LVU144
 511              		.loc 1 1076 25 is_stmt 0 view .LVU145
 512 0042 83F80424 		strb	r2, [r3, #1028]
1077:Middlewares/ST/STM32_USB_Device_Library/Class/DFU/Src/usbd_dfu.c ****     hdfu->dev_status[4] = hdfu->dev_state;     
ARM GAS  /var/folders/_1/sgnj6dm57r56n1x62bwb5w5h0000gn/T//cckoM3Hr.s 			page 29


 513              		.loc 1 1077 5 is_stmt 1 view .LVU146
 514              		.loc 1 1077 25 is_stmt 0 view .LVU147
 515 0046 83F80514 		strb	r1, [r3, #1029]
1078:Middlewares/ST/STM32_USB_Device_Library/Class/DFU/Src/usbd_dfu.c ****     
1079:Middlewares/ST/STM32_USB_Device_Library/Class/DFU/Src/usbd_dfu.c ****     /* Disconnect the USB device */
1080:Middlewares/ST/STM32_USB_Device_Library/Class/DFU/Src/usbd_dfu.c ****     USBD_Stop (pdev);
 516              		.loc 1 1080 5 is_stmt 1 view .LVU148
 517 004a FFF7FEFF 		bl	USBD_Stop
 518              	.LVL28:
1081:Middlewares/ST/STM32_USB_Device_Library/Class/DFU/Src/usbd_dfu.c **** 
1082:Middlewares/ST/STM32_USB_Device_Library/Class/DFU/Src/usbd_dfu.c ****     /* DeInitilialize the MAL(Media Access Layer) */
1083:Middlewares/ST/STM32_USB_Device_Library/Class/DFU/Src/usbd_dfu.c ****     ((USBD_DFU_MediaTypeDef *)pdev->pUserData)->DeInit();
 519              		.loc 1 1083 5 view .LVU149
 520              		.loc 1 1083 35 is_stmt 0 view .LVU150
 521 004e D4F81C32 		ldr	r3, [r4, #540]
 522              		.loc 1 1083 47 view .LVU151
 523 0052 9B68     		ldr	r3, [r3, #8]
 524              		.loc 1 1083 6 view .LVU152
 525 0054 9847     		blx	r3
 526              	.LVL29:
1084:Middlewares/ST/STM32_USB_Device_Library/Class/DFU/Src/usbd_dfu.c ****     
1085:Middlewares/ST/STM32_USB_Device_Library/Class/DFU/Src/usbd_dfu.c ****     /* Generate system reset to allow jumping to the user code */
1086:Middlewares/ST/STM32_USB_Device_Library/Class/DFU/Src/usbd_dfu.c ****     NVIC_SystemReset();
 527              		.loc 1 1086 5 is_stmt 1 view .LVU153
 528              	.LBB16:
 529              	.LBI16:
 530              		.file 2 "Drivers/CMSIS/Include/core_cm4.h"
   1:Drivers/CMSIS/Include/core_cm4.h **** /**************************************************************************//**
   2:Drivers/CMSIS/Include/core_cm4.h ****  * @file     core_cm4.h
   3:Drivers/CMSIS/Include/core_cm4.h ****  * @brief    CMSIS Cortex-M4 Core Peripheral Access Layer Header File
   4:Drivers/CMSIS/Include/core_cm4.h ****  * @version  V4.30
   5:Drivers/CMSIS/Include/core_cm4.h ****  * @date     20. October 2015
   6:Drivers/CMSIS/Include/core_cm4.h ****  ******************************************************************************/
   7:Drivers/CMSIS/Include/core_cm4.h **** /* Copyright (c) 2009 - 2015 ARM LIMITED
   8:Drivers/CMSIS/Include/core_cm4.h **** 
   9:Drivers/CMSIS/Include/core_cm4.h ****    All rights reserved.
  10:Drivers/CMSIS/Include/core_cm4.h ****    Redistribution and use in source and binary forms, with or without
  11:Drivers/CMSIS/Include/core_cm4.h ****    modification, are permitted provided that the following conditions are met:
  12:Drivers/CMSIS/Include/core_cm4.h ****    - Redistributions of source code must retain the above copyright
  13:Drivers/CMSIS/Include/core_cm4.h ****      notice, this list of conditions and the following disclaimer.
  14:Drivers/CMSIS/Include/core_cm4.h ****    - Redistributions in binary form must reproduce the above copyright
  15:Drivers/CMSIS/Include/core_cm4.h ****      notice, this list of conditions and the following disclaimer in the
  16:Drivers/CMSIS/Include/core_cm4.h ****      documentation and/or other materials provided with the distribution.
  17:Drivers/CMSIS/Include/core_cm4.h ****    - Neither the name of ARM nor the names of its contributors may be used
  18:Drivers/CMSIS/Include/core_cm4.h ****      to endorse or promote products derived from this software without
  19:Drivers/CMSIS/Include/core_cm4.h ****      specific prior written permission.
  20:Drivers/CMSIS/Include/core_cm4.h ****    *
  21:Drivers/CMSIS/Include/core_cm4.h ****    THIS SOFTWARE IS PROVIDED BY THE COPYRIGHT HOLDERS AND CONTRIBUTORS "AS IS"
  22:Drivers/CMSIS/Include/core_cm4.h ****    AND ANY EXPRESS OR IMPLIED WARRANTIES, INCLUDING, BUT NOT LIMITED TO, THE
  23:Drivers/CMSIS/Include/core_cm4.h ****    IMPLIED WARRANTIES OF MERCHANTABILITY AND FITNESS FOR A PARTICULAR PURPOSE
  24:Drivers/CMSIS/Include/core_cm4.h ****    ARE DISCLAIMED. IN NO EVENT SHALL COPYRIGHT HOLDERS AND CONTRIBUTORS BE
  25:Drivers/CMSIS/Include/core_cm4.h ****    LIABLE FOR ANY DIRECT, INDIRECT, INCIDENTAL, SPECIAL, EXEMPLARY, OR
  26:Drivers/CMSIS/Include/core_cm4.h ****    CONSEQUENTIAL DAMAGES (INCLUDING, BUT NOT LIMITED TO, PROCUREMENT OF
  27:Drivers/CMSIS/Include/core_cm4.h ****    SUBSTITUTE GOODS OR SERVICES; LOSS OF USE, DATA, OR PROFITS; OR BUSINESS
  28:Drivers/CMSIS/Include/core_cm4.h ****    INTERRUPTION) HOWEVER CAUSED AND ON ANY THEORY OF LIABILITY, WHETHER IN
  29:Drivers/CMSIS/Include/core_cm4.h ****    CONTRACT, STRICT LIABILITY, OR TORT (INCLUDING NEGLIGENCE OR OTHERWISE)
  30:Drivers/CMSIS/Include/core_cm4.h ****    ARISING IN ANY WAY OUT OF THE USE OF THIS SOFTWARE, EVEN IF ADVISED OF THE
ARM GAS  /var/folders/_1/sgnj6dm57r56n1x62bwb5w5h0000gn/T//cckoM3Hr.s 			page 30


  31:Drivers/CMSIS/Include/core_cm4.h ****    POSSIBILITY OF SUCH DAMAGE.
  32:Drivers/CMSIS/Include/core_cm4.h ****    ---------------------------------------------------------------------------*/
  33:Drivers/CMSIS/Include/core_cm4.h **** 
  34:Drivers/CMSIS/Include/core_cm4.h **** 
  35:Drivers/CMSIS/Include/core_cm4.h **** #if   defined ( __ICCARM__ )
  36:Drivers/CMSIS/Include/core_cm4.h ****  #pragma system_include         /* treat file as system include file for MISRA check */
  37:Drivers/CMSIS/Include/core_cm4.h **** #elif defined(__ARMCC_VERSION) && (__ARMCC_VERSION >= 6010050)
  38:Drivers/CMSIS/Include/core_cm4.h ****   #pragma clang system_header   /* treat file as system include file */
  39:Drivers/CMSIS/Include/core_cm4.h **** #endif
  40:Drivers/CMSIS/Include/core_cm4.h **** 
  41:Drivers/CMSIS/Include/core_cm4.h **** #ifndef __CORE_CM4_H_GENERIC
  42:Drivers/CMSIS/Include/core_cm4.h **** #define __CORE_CM4_H_GENERIC
  43:Drivers/CMSIS/Include/core_cm4.h **** 
  44:Drivers/CMSIS/Include/core_cm4.h **** #include <stdint.h>
  45:Drivers/CMSIS/Include/core_cm4.h **** 
  46:Drivers/CMSIS/Include/core_cm4.h **** #ifdef __cplusplus
  47:Drivers/CMSIS/Include/core_cm4.h ****  extern "C" {
  48:Drivers/CMSIS/Include/core_cm4.h **** #endif
  49:Drivers/CMSIS/Include/core_cm4.h **** 
  50:Drivers/CMSIS/Include/core_cm4.h **** /**
  51:Drivers/CMSIS/Include/core_cm4.h ****   \page CMSIS_MISRA_Exceptions  MISRA-C:2004 Compliance Exceptions
  52:Drivers/CMSIS/Include/core_cm4.h ****   CMSIS violates the following MISRA-C:2004 rules:
  53:Drivers/CMSIS/Include/core_cm4.h **** 
  54:Drivers/CMSIS/Include/core_cm4.h ****    \li Required Rule 8.5, object/function definition in header file.<br>
  55:Drivers/CMSIS/Include/core_cm4.h ****      Function definitions in header files are used to allow 'inlining'.
  56:Drivers/CMSIS/Include/core_cm4.h **** 
  57:Drivers/CMSIS/Include/core_cm4.h ****    \li Required Rule 18.4, declaration of union type or object of union type: '{...}'.<br>
  58:Drivers/CMSIS/Include/core_cm4.h ****      Unions are used for effective representation of core registers.
  59:Drivers/CMSIS/Include/core_cm4.h **** 
  60:Drivers/CMSIS/Include/core_cm4.h ****    \li Advisory Rule 19.7, Function-like macro defined.<br>
  61:Drivers/CMSIS/Include/core_cm4.h ****      Function-like macros are used to allow more efficient code.
  62:Drivers/CMSIS/Include/core_cm4.h ****  */
  63:Drivers/CMSIS/Include/core_cm4.h **** 
  64:Drivers/CMSIS/Include/core_cm4.h **** 
  65:Drivers/CMSIS/Include/core_cm4.h **** /*******************************************************************************
  66:Drivers/CMSIS/Include/core_cm4.h ****  *                 CMSIS definitions
  67:Drivers/CMSIS/Include/core_cm4.h ****  ******************************************************************************/
  68:Drivers/CMSIS/Include/core_cm4.h **** /**
  69:Drivers/CMSIS/Include/core_cm4.h ****   \ingroup Cortex_M4
  70:Drivers/CMSIS/Include/core_cm4.h ****   @{
  71:Drivers/CMSIS/Include/core_cm4.h ****  */
  72:Drivers/CMSIS/Include/core_cm4.h **** 
  73:Drivers/CMSIS/Include/core_cm4.h **** /*  CMSIS CM4 definitions */
  74:Drivers/CMSIS/Include/core_cm4.h **** #define __CM4_CMSIS_VERSION_MAIN  (0x04U)                                      /*!< [31:16] CMSIS H
  75:Drivers/CMSIS/Include/core_cm4.h **** #define __CM4_CMSIS_VERSION_SUB   (0x1EU)                                      /*!< [15:0]  CMSIS H
  76:Drivers/CMSIS/Include/core_cm4.h **** #define __CM4_CMSIS_VERSION       ((__CM4_CMSIS_VERSION_MAIN << 16U) | \
  77:Drivers/CMSIS/Include/core_cm4.h ****                                     __CM4_CMSIS_VERSION_SUB           )        /*!< CMSIS HAL versi
  78:Drivers/CMSIS/Include/core_cm4.h **** 
  79:Drivers/CMSIS/Include/core_cm4.h **** #define __CORTEX_M                (0x04U)                                      /*!< Cortex-M Core *
  80:Drivers/CMSIS/Include/core_cm4.h **** 
  81:Drivers/CMSIS/Include/core_cm4.h **** 
  82:Drivers/CMSIS/Include/core_cm4.h **** #if   defined ( __CC_ARM )
  83:Drivers/CMSIS/Include/core_cm4.h ****   #define __ASM            __asm                                      /*!< asm keyword for ARM Comp
  84:Drivers/CMSIS/Include/core_cm4.h ****   #define __INLINE         __inline                                   /*!< inline keyword for ARM C
  85:Drivers/CMSIS/Include/core_cm4.h ****   #define __STATIC_INLINE  static __inline
  86:Drivers/CMSIS/Include/core_cm4.h **** 
  87:Drivers/CMSIS/Include/core_cm4.h **** #elif defined(__ARMCC_VERSION) && (__ARMCC_VERSION >= 6010050)
ARM GAS  /var/folders/_1/sgnj6dm57r56n1x62bwb5w5h0000gn/T//cckoM3Hr.s 			page 31


  88:Drivers/CMSIS/Include/core_cm4.h ****   #define __ASM            __asm                                      /*!< asm keyword for ARM Comp
  89:Drivers/CMSIS/Include/core_cm4.h ****   #define __INLINE         __inline                                   /*!< inline keyword for ARM C
  90:Drivers/CMSIS/Include/core_cm4.h ****   #define __STATIC_INLINE  static __inline
  91:Drivers/CMSIS/Include/core_cm4.h **** 
  92:Drivers/CMSIS/Include/core_cm4.h **** #elif defined ( __GNUC__ )
  93:Drivers/CMSIS/Include/core_cm4.h ****   #define __ASM            __asm                                      /*!< asm keyword for GNU Comp
  94:Drivers/CMSIS/Include/core_cm4.h ****   #define __INLINE         inline                                     /*!< inline keyword for GNU C
  95:Drivers/CMSIS/Include/core_cm4.h ****   #define __STATIC_INLINE  static inline
  96:Drivers/CMSIS/Include/core_cm4.h **** 
  97:Drivers/CMSIS/Include/core_cm4.h **** #elif defined ( __ICCARM__ )
  98:Drivers/CMSIS/Include/core_cm4.h ****   #define __ASM            __asm                                      /*!< asm keyword for IAR Comp
  99:Drivers/CMSIS/Include/core_cm4.h ****   #define __INLINE         inline                                     /*!< inline keyword for IAR C
 100:Drivers/CMSIS/Include/core_cm4.h ****   #define __STATIC_INLINE  static inline
 101:Drivers/CMSIS/Include/core_cm4.h **** 
 102:Drivers/CMSIS/Include/core_cm4.h **** #elif defined ( __TMS470__ )
 103:Drivers/CMSIS/Include/core_cm4.h ****   #define __ASM            __asm                                      /*!< asm keyword for TI CCS C
 104:Drivers/CMSIS/Include/core_cm4.h ****   #define __STATIC_INLINE  static inline
 105:Drivers/CMSIS/Include/core_cm4.h **** 
 106:Drivers/CMSIS/Include/core_cm4.h **** #elif defined ( __TASKING__ )
 107:Drivers/CMSIS/Include/core_cm4.h ****   #define __ASM            __asm                                      /*!< asm keyword for TASKING 
 108:Drivers/CMSIS/Include/core_cm4.h ****   #define __INLINE         inline                                     /*!< inline keyword for TASKI
 109:Drivers/CMSIS/Include/core_cm4.h ****   #define __STATIC_INLINE  static inline
 110:Drivers/CMSIS/Include/core_cm4.h **** 
 111:Drivers/CMSIS/Include/core_cm4.h **** #elif defined ( __CSMC__ )
 112:Drivers/CMSIS/Include/core_cm4.h ****   #define __packed
 113:Drivers/CMSIS/Include/core_cm4.h ****   #define __ASM            _asm                                      /*!< asm keyword for COSMIC Co
 114:Drivers/CMSIS/Include/core_cm4.h ****   #define __INLINE         inline                                    /*!< inline keyword for COSMIC
 115:Drivers/CMSIS/Include/core_cm4.h ****   #define __STATIC_INLINE  static inline
 116:Drivers/CMSIS/Include/core_cm4.h **** 
 117:Drivers/CMSIS/Include/core_cm4.h **** #else
 118:Drivers/CMSIS/Include/core_cm4.h ****   #error Unknown compiler
 119:Drivers/CMSIS/Include/core_cm4.h **** #endif
 120:Drivers/CMSIS/Include/core_cm4.h **** 
 121:Drivers/CMSIS/Include/core_cm4.h **** /** __FPU_USED indicates whether an FPU is used or not.
 122:Drivers/CMSIS/Include/core_cm4.h ****     For this, __FPU_PRESENT has to be checked prior to making use of FPU specific registers and fun
 123:Drivers/CMSIS/Include/core_cm4.h **** */
 124:Drivers/CMSIS/Include/core_cm4.h **** #if defined ( __CC_ARM )
 125:Drivers/CMSIS/Include/core_cm4.h ****   #if defined __TARGET_FPU_VFP
 126:Drivers/CMSIS/Include/core_cm4.h ****     #if (__FPU_PRESENT == 1U)
 127:Drivers/CMSIS/Include/core_cm4.h ****       #define __FPU_USED       1U
 128:Drivers/CMSIS/Include/core_cm4.h ****     #else
 129:Drivers/CMSIS/Include/core_cm4.h ****       #error "Compiler generates FPU instructions for a device without an FPU (check __FPU_PRESENT)
 130:Drivers/CMSIS/Include/core_cm4.h ****       #define __FPU_USED       0U
 131:Drivers/CMSIS/Include/core_cm4.h ****     #endif
 132:Drivers/CMSIS/Include/core_cm4.h ****   #else
 133:Drivers/CMSIS/Include/core_cm4.h ****     #define __FPU_USED         0U
 134:Drivers/CMSIS/Include/core_cm4.h ****   #endif
 135:Drivers/CMSIS/Include/core_cm4.h **** 
 136:Drivers/CMSIS/Include/core_cm4.h **** #elif defined(__ARMCC_VERSION) && (__ARMCC_VERSION >= 6010050)
 137:Drivers/CMSIS/Include/core_cm4.h ****   #if defined __ARM_PCS_VFP
 138:Drivers/CMSIS/Include/core_cm4.h ****     #if (__FPU_PRESENT == 1)
 139:Drivers/CMSIS/Include/core_cm4.h ****       #define __FPU_USED       1U
 140:Drivers/CMSIS/Include/core_cm4.h ****     #else
 141:Drivers/CMSIS/Include/core_cm4.h ****       #warning "Compiler generates FPU instructions for a device without an FPU (check __FPU_PRESEN
 142:Drivers/CMSIS/Include/core_cm4.h ****       #define __FPU_USED       0U
 143:Drivers/CMSIS/Include/core_cm4.h ****     #endif
 144:Drivers/CMSIS/Include/core_cm4.h ****   #else
ARM GAS  /var/folders/_1/sgnj6dm57r56n1x62bwb5w5h0000gn/T//cckoM3Hr.s 			page 32


 145:Drivers/CMSIS/Include/core_cm4.h ****     #define __FPU_USED         0U
 146:Drivers/CMSIS/Include/core_cm4.h ****   #endif
 147:Drivers/CMSIS/Include/core_cm4.h **** 
 148:Drivers/CMSIS/Include/core_cm4.h **** #elif defined ( __GNUC__ )
 149:Drivers/CMSIS/Include/core_cm4.h ****   #if defined (__VFP_FP__) && !defined(__SOFTFP__)
 150:Drivers/CMSIS/Include/core_cm4.h ****     #if (__FPU_PRESENT == 1U)
 151:Drivers/CMSIS/Include/core_cm4.h ****       #define __FPU_USED       1U
 152:Drivers/CMSIS/Include/core_cm4.h ****     #else
 153:Drivers/CMSIS/Include/core_cm4.h ****       #error "Compiler generates FPU instructions for a device without an FPU (check __FPU_PRESENT)
 154:Drivers/CMSIS/Include/core_cm4.h ****       #define __FPU_USED       0U
 155:Drivers/CMSIS/Include/core_cm4.h ****     #endif
 156:Drivers/CMSIS/Include/core_cm4.h ****   #else
 157:Drivers/CMSIS/Include/core_cm4.h ****     #define __FPU_USED         0U
 158:Drivers/CMSIS/Include/core_cm4.h ****   #endif
 159:Drivers/CMSIS/Include/core_cm4.h **** 
 160:Drivers/CMSIS/Include/core_cm4.h **** #elif defined ( __ICCARM__ )
 161:Drivers/CMSIS/Include/core_cm4.h ****   #if defined __ARMVFP__
 162:Drivers/CMSIS/Include/core_cm4.h ****     #if (__FPU_PRESENT == 1U)
 163:Drivers/CMSIS/Include/core_cm4.h ****       #define __FPU_USED       1U
 164:Drivers/CMSIS/Include/core_cm4.h ****     #else
 165:Drivers/CMSIS/Include/core_cm4.h ****       #error "Compiler generates FPU instructions for a device without an FPU (check __FPU_PRESENT)
 166:Drivers/CMSIS/Include/core_cm4.h ****       #define __FPU_USED       0U
 167:Drivers/CMSIS/Include/core_cm4.h ****     #endif
 168:Drivers/CMSIS/Include/core_cm4.h ****   #else
 169:Drivers/CMSIS/Include/core_cm4.h ****     #define __FPU_USED         0U
 170:Drivers/CMSIS/Include/core_cm4.h ****   #endif
 171:Drivers/CMSIS/Include/core_cm4.h **** 
 172:Drivers/CMSIS/Include/core_cm4.h **** #elif defined ( __TMS470__ )
 173:Drivers/CMSIS/Include/core_cm4.h ****   #if defined __TI_VFP_SUPPORT__
 174:Drivers/CMSIS/Include/core_cm4.h ****     #if (__FPU_PRESENT == 1U)
 175:Drivers/CMSIS/Include/core_cm4.h ****       #define __FPU_USED       1U
 176:Drivers/CMSIS/Include/core_cm4.h ****     #else
 177:Drivers/CMSIS/Include/core_cm4.h ****       #error "Compiler generates FPU instructions for a device without an FPU (check __FPU_PRESENT)
 178:Drivers/CMSIS/Include/core_cm4.h ****       #define __FPU_USED       0U
 179:Drivers/CMSIS/Include/core_cm4.h ****     #endif
 180:Drivers/CMSIS/Include/core_cm4.h ****   #else
 181:Drivers/CMSIS/Include/core_cm4.h ****     #define __FPU_USED         0U
 182:Drivers/CMSIS/Include/core_cm4.h ****   #endif
 183:Drivers/CMSIS/Include/core_cm4.h **** 
 184:Drivers/CMSIS/Include/core_cm4.h **** #elif defined ( __TASKING__ )
 185:Drivers/CMSIS/Include/core_cm4.h ****   #if defined __FPU_VFP__
 186:Drivers/CMSIS/Include/core_cm4.h ****     #if (__FPU_PRESENT == 1U)
 187:Drivers/CMSIS/Include/core_cm4.h ****       #define __FPU_USED       1U
 188:Drivers/CMSIS/Include/core_cm4.h ****     #else
 189:Drivers/CMSIS/Include/core_cm4.h ****       #error "Compiler generates FPU instructions for a device without an FPU (check __FPU_PRESENT)
 190:Drivers/CMSIS/Include/core_cm4.h ****       #define __FPU_USED       0U
 191:Drivers/CMSIS/Include/core_cm4.h ****     #endif
 192:Drivers/CMSIS/Include/core_cm4.h ****   #else
 193:Drivers/CMSIS/Include/core_cm4.h ****     #define __FPU_USED         0U
 194:Drivers/CMSIS/Include/core_cm4.h ****   #endif
 195:Drivers/CMSIS/Include/core_cm4.h **** 
 196:Drivers/CMSIS/Include/core_cm4.h **** #elif defined ( __CSMC__ )
 197:Drivers/CMSIS/Include/core_cm4.h ****   #if ( __CSMC__ & 0x400U)
 198:Drivers/CMSIS/Include/core_cm4.h ****     #if (__FPU_PRESENT == 1U)
 199:Drivers/CMSIS/Include/core_cm4.h ****       #define __FPU_USED       1U
 200:Drivers/CMSIS/Include/core_cm4.h ****     #else
 201:Drivers/CMSIS/Include/core_cm4.h ****       #error "Compiler generates FPU instructions for a device without an FPU (check __FPU_PRESENT)
ARM GAS  /var/folders/_1/sgnj6dm57r56n1x62bwb5w5h0000gn/T//cckoM3Hr.s 			page 33


 202:Drivers/CMSIS/Include/core_cm4.h ****       #define __FPU_USED       0U
 203:Drivers/CMSIS/Include/core_cm4.h ****     #endif
 204:Drivers/CMSIS/Include/core_cm4.h ****   #else
 205:Drivers/CMSIS/Include/core_cm4.h ****     #define __FPU_USED         0U
 206:Drivers/CMSIS/Include/core_cm4.h ****   #endif
 207:Drivers/CMSIS/Include/core_cm4.h **** 
 208:Drivers/CMSIS/Include/core_cm4.h **** #endif
 209:Drivers/CMSIS/Include/core_cm4.h **** 
 210:Drivers/CMSIS/Include/core_cm4.h **** #include "core_cmInstr.h"                /* Core Instruction Access */
 211:Drivers/CMSIS/Include/core_cm4.h **** #include "core_cmFunc.h"                 /* Core Function Access */
 212:Drivers/CMSIS/Include/core_cm4.h **** #include "core_cmSimd.h"                 /* Compiler specific SIMD Intrinsics */
 213:Drivers/CMSIS/Include/core_cm4.h **** 
 214:Drivers/CMSIS/Include/core_cm4.h **** #ifdef __cplusplus
 215:Drivers/CMSIS/Include/core_cm4.h **** }
 216:Drivers/CMSIS/Include/core_cm4.h **** #endif
 217:Drivers/CMSIS/Include/core_cm4.h **** 
 218:Drivers/CMSIS/Include/core_cm4.h **** #endif /* __CORE_CM4_H_GENERIC */
 219:Drivers/CMSIS/Include/core_cm4.h **** 
 220:Drivers/CMSIS/Include/core_cm4.h **** #ifndef __CMSIS_GENERIC
 221:Drivers/CMSIS/Include/core_cm4.h **** 
 222:Drivers/CMSIS/Include/core_cm4.h **** #ifndef __CORE_CM4_H_DEPENDANT
 223:Drivers/CMSIS/Include/core_cm4.h **** #define __CORE_CM4_H_DEPENDANT
 224:Drivers/CMSIS/Include/core_cm4.h **** 
 225:Drivers/CMSIS/Include/core_cm4.h **** #ifdef __cplusplus
 226:Drivers/CMSIS/Include/core_cm4.h ****  extern "C" {
 227:Drivers/CMSIS/Include/core_cm4.h **** #endif
 228:Drivers/CMSIS/Include/core_cm4.h **** 
 229:Drivers/CMSIS/Include/core_cm4.h **** /* check device defines and use defaults */
 230:Drivers/CMSIS/Include/core_cm4.h **** #if defined __CHECK_DEVICE_DEFINES
 231:Drivers/CMSIS/Include/core_cm4.h ****   #ifndef __CM4_REV
 232:Drivers/CMSIS/Include/core_cm4.h ****     #define __CM4_REV               0x0000U
 233:Drivers/CMSIS/Include/core_cm4.h ****     #warning "__CM4_REV not defined in device header file; using default!"
 234:Drivers/CMSIS/Include/core_cm4.h ****   #endif
 235:Drivers/CMSIS/Include/core_cm4.h **** 
 236:Drivers/CMSIS/Include/core_cm4.h ****   #ifndef __FPU_PRESENT
 237:Drivers/CMSIS/Include/core_cm4.h ****     #define __FPU_PRESENT             0U
 238:Drivers/CMSIS/Include/core_cm4.h ****     #warning "__FPU_PRESENT not defined in device header file; using default!"
 239:Drivers/CMSIS/Include/core_cm4.h ****   #endif
 240:Drivers/CMSIS/Include/core_cm4.h **** 
 241:Drivers/CMSIS/Include/core_cm4.h ****   #ifndef __MPU_PRESENT
 242:Drivers/CMSIS/Include/core_cm4.h ****     #define __MPU_PRESENT             0U
 243:Drivers/CMSIS/Include/core_cm4.h ****     #warning "__MPU_PRESENT not defined in device header file; using default!"
 244:Drivers/CMSIS/Include/core_cm4.h ****   #endif
 245:Drivers/CMSIS/Include/core_cm4.h **** 
 246:Drivers/CMSIS/Include/core_cm4.h ****   #ifndef __NVIC_PRIO_BITS
 247:Drivers/CMSIS/Include/core_cm4.h ****     #define __NVIC_PRIO_BITS          4U
 248:Drivers/CMSIS/Include/core_cm4.h ****     #warning "__NVIC_PRIO_BITS not defined in device header file; using default!"
 249:Drivers/CMSIS/Include/core_cm4.h ****   #endif
 250:Drivers/CMSIS/Include/core_cm4.h **** 
 251:Drivers/CMSIS/Include/core_cm4.h ****   #ifndef __Vendor_SysTickConfig
 252:Drivers/CMSIS/Include/core_cm4.h ****     #define __Vendor_SysTickConfig    0U
 253:Drivers/CMSIS/Include/core_cm4.h ****     #warning "__Vendor_SysTickConfig not defined in device header file; using default!"
 254:Drivers/CMSIS/Include/core_cm4.h ****   #endif
 255:Drivers/CMSIS/Include/core_cm4.h **** #endif
 256:Drivers/CMSIS/Include/core_cm4.h **** 
 257:Drivers/CMSIS/Include/core_cm4.h **** /* IO definitions (access restrictions to peripheral registers) */
 258:Drivers/CMSIS/Include/core_cm4.h **** /**
ARM GAS  /var/folders/_1/sgnj6dm57r56n1x62bwb5w5h0000gn/T//cckoM3Hr.s 			page 34


 259:Drivers/CMSIS/Include/core_cm4.h ****     \defgroup CMSIS_glob_defs CMSIS Global Defines
 260:Drivers/CMSIS/Include/core_cm4.h **** 
 261:Drivers/CMSIS/Include/core_cm4.h ****     <strong>IO Type Qualifiers</strong> are used
 262:Drivers/CMSIS/Include/core_cm4.h ****     \li to specify the access to peripheral variables.
 263:Drivers/CMSIS/Include/core_cm4.h ****     \li for automatic generation of peripheral register debug information.
 264:Drivers/CMSIS/Include/core_cm4.h **** */
 265:Drivers/CMSIS/Include/core_cm4.h **** #ifdef __cplusplus
 266:Drivers/CMSIS/Include/core_cm4.h ****   #define   __I     volatile             /*!< Defines 'read only' permissions */
 267:Drivers/CMSIS/Include/core_cm4.h **** #else
 268:Drivers/CMSIS/Include/core_cm4.h ****   #define   __I     volatile const       /*!< Defines 'read only' permissions */
 269:Drivers/CMSIS/Include/core_cm4.h **** #endif
 270:Drivers/CMSIS/Include/core_cm4.h **** #define     __O     volatile             /*!< Defines 'write only' permissions */
 271:Drivers/CMSIS/Include/core_cm4.h **** #define     __IO    volatile             /*!< Defines 'read / write' permissions */
 272:Drivers/CMSIS/Include/core_cm4.h **** 
 273:Drivers/CMSIS/Include/core_cm4.h **** /* following defines should be used for structure members */
 274:Drivers/CMSIS/Include/core_cm4.h **** #define     __IM     volatile const      /*! Defines 'read only' structure member permissions */
 275:Drivers/CMSIS/Include/core_cm4.h **** #define     __OM     volatile            /*! Defines 'write only' structure member permissions */
 276:Drivers/CMSIS/Include/core_cm4.h **** #define     __IOM    volatile            /*! Defines 'read / write' structure member permissions */
 277:Drivers/CMSIS/Include/core_cm4.h **** 
 278:Drivers/CMSIS/Include/core_cm4.h **** /*@} end of group Cortex_M4 */
 279:Drivers/CMSIS/Include/core_cm4.h **** 
 280:Drivers/CMSIS/Include/core_cm4.h **** 
 281:Drivers/CMSIS/Include/core_cm4.h **** 
 282:Drivers/CMSIS/Include/core_cm4.h **** /*******************************************************************************
 283:Drivers/CMSIS/Include/core_cm4.h ****  *                 Register Abstraction
 284:Drivers/CMSIS/Include/core_cm4.h ****   Core Register contain:
 285:Drivers/CMSIS/Include/core_cm4.h ****   - Core Register
 286:Drivers/CMSIS/Include/core_cm4.h ****   - Core NVIC Register
 287:Drivers/CMSIS/Include/core_cm4.h ****   - Core SCB Register
 288:Drivers/CMSIS/Include/core_cm4.h ****   - Core SysTick Register
 289:Drivers/CMSIS/Include/core_cm4.h ****   - Core Debug Register
 290:Drivers/CMSIS/Include/core_cm4.h ****   - Core MPU Register
 291:Drivers/CMSIS/Include/core_cm4.h ****   - Core FPU Register
 292:Drivers/CMSIS/Include/core_cm4.h ****  ******************************************************************************/
 293:Drivers/CMSIS/Include/core_cm4.h **** /**
 294:Drivers/CMSIS/Include/core_cm4.h ****   \defgroup CMSIS_core_register Defines and Type Definitions
 295:Drivers/CMSIS/Include/core_cm4.h ****   \brief Type definitions and defines for Cortex-M processor based devices.
 296:Drivers/CMSIS/Include/core_cm4.h **** */
 297:Drivers/CMSIS/Include/core_cm4.h **** 
 298:Drivers/CMSIS/Include/core_cm4.h **** /**
 299:Drivers/CMSIS/Include/core_cm4.h ****   \ingroup    CMSIS_core_register
 300:Drivers/CMSIS/Include/core_cm4.h ****   \defgroup   CMSIS_CORE  Status and Control Registers
 301:Drivers/CMSIS/Include/core_cm4.h ****   \brief      Core Register type definitions.
 302:Drivers/CMSIS/Include/core_cm4.h ****   @{
 303:Drivers/CMSIS/Include/core_cm4.h ****  */
 304:Drivers/CMSIS/Include/core_cm4.h **** 
 305:Drivers/CMSIS/Include/core_cm4.h **** /**
 306:Drivers/CMSIS/Include/core_cm4.h ****   \brief  Union type to access the Application Program Status Register (APSR).
 307:Drivers/CMSIS/Include/core_cm4.h ****  */
 308:Drivers/CMSIS/Include/core_cm4.h **** typedef union
 309:Drivers/CMSIS/Include/core_cm4.h **** {
 310:Drivers/CMSIS/Include/core_cm4.h ****   struct
 311:Drivers/CMSIS/Include/core_cm4.h ****   {
 312:Drivers/CMSIS/Include/core_cm4.h ****     uint32_t _reserved0:16;              /*!< bit:  0..15  Reserved */
 313:Drivers/CMSIS/Include/core_cm4.h ****     uint32_t GE:4;                       /*!< bit: 16..19  Greater than or Equal flags */
 314:Drivers/CMSIS/Include/core_cm4.h ****     uint32_t _reserved1:7;               /*!< bit: 20..26  Reserved */
 315:Drivers/CMSIS/Include/core_cm4.h ****     uint32_t Q:1;                        /*!< bit:     27  Saturation condition flag */
ARM GAS  /var/folders/_1/sgnj6dm57r56n1x62bwb5w5h0000gn/T//cckoM3Hr.s 			page 35


 316:Drivers/CMSIS/Include/core_cm4.h ****     uint32_t V:1;                        /*!< bit:     28  Overflow condition code flag */
 317:Drivers/CMSIS/Include/core_cm4.h ****     uint32_t C:1;                        /*!< bit:     29  Carry condition code flag */
 318:Drivers/CMSIS/Include/core_cm4.h ****     uint32_t Z:1;                        /*!< bit:     30  Zero condition code flag */
 319:Drivers/CMSIS/Include/core_cm4.h ****     uint32_t N:1;                        /*!< bit:     31  Negative condition code flag */
 320:Drivers/CMSIS/Include/core_cm4.h ****   } b;                                   /*!< Structure used for bit  access */
 321:Drivers/CMSIS/Include/core_cm4.h ****   uint32_t w;                            /*!< Type      used for word access */
 322:Drivers/CMSIS/Include/core_cm4.h **** } APSR_Type;
 323:Drivers/CMSIS/Include/core_cm4.h **** 
 324:Drivers/CMSIS/Include/core_cm4.h **** /* APSR Register Definitions */
 325:Drivers/CMSIS/Include/core_cm4.h **** #define APSR_N_Pos                         31U                                            /*!< APSR
 326:Drivers/CMSIS/Include/core_cm4.h **** #define APSR_N_Msk                         (1UL << APSR_N_Pos)                            /*!< APSR
 327:Drivers/CMSIS/Include/core_cm4.h **** 
 328:Drivers/CMSIS/Include/core_cm4.h **** #define APSR_Z_Pos                         30U                                            /*!< APSR
 329:Drivers/CMSIS/Include/core_cm4.h **** #define APSR_Z_Msk                         (1UL << APSR_Z_Pos)                            /*!< APSR
 330:Drivers/CMSIS/Include/core_cm4.h **** 
 331:Drivers/CMSIS/Include/core_cm4.h **** #define APSR_C_Pos                         29U                                            /*!< APSR
 332:Drivers/CMSIS/Include/core_cm4.h **** #define APSR_C_Msk                         (1UL << APSR_C_Pos)                            /*!< APSR
 333:Drivers/CMSIS/Include/core_cm4.h **** 
 334:Drivers/CMSIS/Include/core_cm4.h **** #define APSR_V_Pos                         28U                                            /*!< APSR
 335:Drivers/CMSIS/Include/core_cm4.h **** #define APSR_V_Msk                         (1UL << APSR_V_Pos)                            /*!< APSR
 336:Drivers/CMSIS/Include/core_cm4.h **** 
 337:Drivers/CMSIS/Include/core_cm4.h **** #define APSR_Q_Pos                         27U                                            /*!< APSR
 338:Drivers/CMSIS/Include/core_cm4.h **** #define APSR_Q_Msk                         (1UL << APSR_Q_Pos)                            /*!< APSR
 339:Drivers/CMSIS/Include/core_cm4.h **** 
 340:Drivers/CMSIS/Include/core_cm4.h **** #define APSR_GE_Pos                        16U                                            /*!< APSR
 341:Drivers/CMSIS/Include/core_cm4.h **** #define APSR_GE_Msk                        (0xFUL << APSR_GE_Pos)                         /*!< APSR
 342:Drivers/CMSIS/Include/core_cm4.h **** 
 343:Drivers/CMSIS/Include/core_cm4.h **** 
 344:Drivers/CMSIS/Include/core_cm4.h **** /**
 345:Drivers/CMSIS/Include/core_cm4.h ****   \brief  Union type to access the Interrupt Program Status Register (IPSR).
 346:Drivers/CMSIS/Include/core_cm4.h ****  */
 347:Drivers/CMSIS/Include/core_cm4.h **** typedef union
 348:Drivers/CMSIS/Include/core_cm4.h **** {
 349:Drivers/CMSIS/Include/core_cm4.h ****   struct
 350:Drivers/CMSIS/Include/core_cm4.h ****   {
 351:Drivers/CMSIS/Include/core_cm4.h ****     uint32_t ISR:9;                      /*!< bit:  0.. 8  Exception number */
 352:Drivers/CMSIS/Include/core_cm4.h ****     uint32_t _reserved0:23;              /*!< bit:  9..31  Reserved */
 353:Drivers/CMSIS/Include/core_cm4.h ****   } b;                                   /*!< Structure used for bit  access */
 354:Drivers/CMSIS/Include/core_cm4.h ****   uint32_t w;                            /*!< Type      used for word access */
 355:Drivers/CMSIS/Include/core_cm4.h **** } IPSR_Type;
 356:Drivers/CMSIS/Include/core_cm4.h **** 
 357:Drivers/CMSIS/Include/core_cm4.h **** /* IPSR Register Definitions */
 358:Drivers/CMSIS/Include/core_cm4.h **** #define IPSR_ISR_Pos                        0U                                            /*!< IPSR
 359:Drivers/CMSIS/Include/core_cm4.h **** #define IPSR_ISR_Msk                       (0x1FFUL /*<< IPSR_ISR_Pos*/)                  /*!< IPSR
 360:Drivers/CMSIS/Include/core_cm4.h **** 
 361:Drivers/CMSIS/Include/core_cm4.h **** 
 362:Drivers/CMSIS/Include/core_cm4.h **** /**
 363:Drivers/CMSIS/Include/core_cm4.h ****   \brief  Union type to access the Special-Purpose Program Status Registers (xPSR).
 364:Drivers/CMSIS/Include/core_cm4.h ****  */
 365:Drivers/CMSIS/Include/core_cm4.h **** typedef union
 366:Drivers/CMSIS/Include/core_cm4.h **** {
 367:Drivers/CMSIS/Include/core_cm4.h ****   struct
 368:Drivers/CMSIS/Include/core_cm4.h ****   {
 369:Drivers/CMSIS/Include/core_cm4.h ****     uint32_t ISR:9;                      /*!< bit:  0.. 8  Exception number */
 370:Drivers/CMSIS/Include/core_cm4.h ****     uint32_t _reserved0:7;               /*!< bit:  9..15  Reserved */
 371:Drivers/CMSIS/Include/core_cm4.h ****     uint32_t GE:4;                       /*!< bit: 16..19  Greater than or Equal flags */
 372:Drivers/CMSIS/Include/core_cm4.h ****     uint32_t _reserved1:4;               /*!< bit: 20..23  Reserved */
ARM GAS  /var/folders/_1/sgnj6dm57r56n1x62bwb5w5h0000gn/T//cckoM3Hr.s 			page 36


 373:Drivers/CMSIS/Include/core_cm4.h ****     uint32_t T:1;                        /*!< bit:     24  Thumb bit        (read 0) */
 374:Drivers/CMSIS/Include/core_cm4.h ****     uint32_t IT:2;                       /*!< bit: 25..26  saved IT state   (read 0) */
 375:Drivers/CMSIS/Include/core_cm4.h ****     uint32_t Q:1;                        /*!< bit:     27  Saturation condition flag */
 376:Drivers/CMSIS/Include/core_cm4.h ****     uint32_t V:1;                        /*!< bit:     28  Overflow condition code flag */
 377:Drivers/CMSIS/Include/core_cm4.h ****     uint32_t C:1;                        /*!< bit:     29  Carry condition code flag */
 378:Drivers/CMSIS/Include/core_cm4.h ****     uint32_t Z:1;                        /*!< bit:     30  Zero condition code flag */
 379:Drivers/CMSIS/Include/core_cm4.h ****     uint32_t N:1;                        /*!< bit:     31  Negative condition code flag */
 380:Drivers/CMSIS/Include/core_cm4.h ****   } b;                                   /*!< Structure used for bit  access */
 381:Drivers/CMSIS/Include/core_cm4.h ****   uint32_t w;                            /*!< Type      used for word access */
 382:Drivers/CMSIS/Include/core_cm4.h **** } xPSR_Type;
 383:Drivers/CMSIS/Include/core_cm4.h **** 
 384:Drivers/CMSIS/Include/core_cm4.h **** /* xPSR Register Definitions */
 385:Drivers/CMSIS/Include/core_cm4.h **** #define xPSR_N_Pos                         31U                                            /*!< xPSR
 386:Drivers/CMSIS/Include/core_cm4.h **** #define xPSR_N_Msk                         (1UL << xPSR_N_Pos)                            /*!< xPSR
 387:Drivers/CMSIS/Include/core_cm4.h **** 
 388:Drivers/CMSIS/Include/core_cm4.h **** #define xPSR_Z_Pos                         30U                                            /*!< xPSR
 389:Drivers/CMSIS/Include/core_cm4.h **** #define xPSR_Z_Msk                         (1UL << xPSR_Z_Pos)                            /*!< xPSR
 390:Drivers/CMSIS/Include/core_cm4.h **** 
 391:Drivers/CMSIS/Include/core_cm4.h **** #define xPSR_C_Pos                         29U                                            /*!< xPSR
 392:Drivers/CMSIS/Include/core_cm4.h **** #define xPSR_C_Msk                         (1UL << xPSR_C_Pos)                            /*!< xPSR
 393:Drivers/CMSIS/Include/core_cm4.h **** 
 394:Drivers/CMSIS/Include/core_cm4.h **** #define xPSR_V_Pos                         28U                                            /*!< xPSR
 395:Drivers/CMSIS/Include/core_cm4.h **** #define xPSR_V_Msk                         (1UL << xPSR_V_Pos)                            /*!< xPSR
 396:Drivers/CMSIS/Include/core_cm4.h **** 
 397:Drivers/CMSIS/Include/core_cm4.h **** #define xPSR_Q_Pos                         27U                                            /*!< xPSR
 398:Drivers/CMSIS/Include/core_cm4.h **** #define xPSR_Q_Msk                         (1UL << xPSR_Q_Pos)                            /*!< xPSR
 399:Drivers/CMSIS/Include/core_cm4.h **** 
 400:Drivers/CMSIS/Include/core_cm4.h **** #define xPSR_IT_Pos                        25U                                            /*!< xPSR
 401:Drivers/CMSIS/Include/core_cm4.h **** #define xPSR_IT_Msk                        (3UL << xPSR_IT_Pos)                           /*!< xPSR
 402:Drivers/CMSIS/Include/core_cm4.h **** 
 403:Drivers/CMSIS/Include/core_cm4.h **** #define xPSR_T_Pos                         24U                                            /*!< xPSR
 404:Drivers/CMSIS/Include/core_cm4.h **** #define xPSR_T_Msk                         (1UL << xPSR_T_Pos)                            /*!< xPSR
 405:Drivers/CMSIS/Include/core_cm4.h **** 
 406:Drivers/CMSIS/Include/core_cm4.h **** #define xPSR_GE_Pos                        16U                                            /*!< xPSR
 407:Drivers/CMSIS/Include/core_cm4.h **** #define xPSR_GE_Msk                        (0xFUL << xPSR_GE_Pos)                         /*!< xPSR
 408:Drivers/CMSIS/Include/core_cm4.h **** 
 409:Drivers/CMSIS/Include/core_cm4.h **** #define xPSR_ISR_Pos                        0U                                            /*!< xPSR
 410:Drivers/CMSIS/Include/core_cm4.h **** #define xPSR_ISR_Msk                       (0x1FFUL /*<< xPSR_ISR_Pos*/)                  /*!< xPSR
 411:Drivers/CMSIS/Include/core_cm4.h **** 
 412:Drivers/CMSIS/Include/core_cm4.h **** 
 413:Drivers/CMSIS/Include/core_cm4.h **** /**
 414:Drivers/CMSIS/Include/core_cm4.h ****   \brief  Union type to access the Control Registers (CONTROL).
 415:Drivers/CMSIS/Include/core_cm4.h ****  */
 416:Drivers/CMSIS/Include/core_cm4.h **** typedef union
 417:Drivers/CMSIS/Include/core_cm4.h **** {
 418:Drivers/CMSIS/Include/core_cm4.h ****   struct
 419:Drivers/CMSIS/Include/core_cm4.h ****   {
 420:Drivers/CMSIS/Include/core_cm4.h ****     uint32_t nPRIV:1;                    /*!< bit:      0  Execution privilege in Thread mode */
 421:Drivers/CMSIS/Include/core_cm4.h ****     uint32_t SPSEL:1;                    /*!< bit:      1  Stack to be used */
 422:Drivers/CMSIS/Include/core_cm4.h ****     uint32_t FPCA:1;                     /*!< bit:      2  FP extension active flag */
 423:Drivers/CMSIS/Include/core_cm4.h ****     uint32_t _reserved0:29;              /*!< bit:  3..31  Reserved */
 424:Drivers/CMSIS/Include/core_cm4.h ****   } b;                                   /*!< Structure used for bit  access */
 425:Drivers/CMSIS/Include/core_cm4.h ****   uint32_t w;                            /*!< Type      used for word access */
 426:Drivers/CMSIS/Include/core_cm4.h **** } CONTROL_Type;
 427:Drivers/CMSIS/Include/core_cm4.h **** 
 428:Drivers/CMSIS/Include/core_cm4.h **** /* CONTROL Register Definitions */
 429:Drivers/CMSIS/Include/core_cm4.h **** #define CONTROL_FPCA_Pos                    2U                                            /*!< CONT
ARM GAS  /var/folders/_1/sgnj6dm57r56n1x62bwb5w5h0000gn/T//cckoM3Hr.s 			page 37


 430:Drivers/CMSIS/Include/core_cm4.h **** #define CONTROL_FPCA_Msk                   (1UL << CONTROL_FPCA_Pos)                      /*!< CONT
 431:Drivers/CMSIS/Include/core_cm4.h **** 
 432:Drivers/CMSIS/Include/core_cm4.h **** #define CONTROL_SPSEL_Pos                   1U                                            /*!< CONT
 433:Drivers/CMSIS/Include/core_cm4.h **** #define CONTROL_SPSEL_Msk                  (1UL << CONTROL_SPSEL_Pos)                     /*!< CONT
 434:Drivers/CMSIS/Include/core_cm4.h **** 
 435:Drivers/CMSIS/Include/core_cm4.h **** #define CONTROL_nPRIV_Pos                   0U                                            /*!< CONT
 436:Drivers/CMSIS/Include/core_cm4.h **** #define CONTROL_nPRIV_Msk                  (1UL /*<< CONTROL_nPRIV_Pos*/)                 /*!< CONT
 437:Drivers/CMSIS/Include/core_cm4.h **** 
 438:Drivers/CMSIS/Include/core_cm4.h **** /*@} end of group CMSIS_CORE */
 439:Drivers/CMSIS/Include/core_cm4.h **** 
 440:Drivers/CMSIS/Include/core_cm4.h **** 
 441:Drivers/CMSIS/Include/core_cm4.h **** /**
 442:Drivers/CMSIS/Include/core_cm4.h ****   \ingroup    CMSIS_core_register
 443:Drivers/CMSIS/Include/core_cm4.h ****   \defgroup   CMSIS_NVIC  Nested Vectored Interrupt Controller (NVIC)
 444:Drivers/CMSIS/Include/core_cm4.h ****   \brief      Type definitions for the NVIC Registers
 445:Drivers/CMSIS/Include/core_cm4.h ****   @{
 446:Drivers/CMSIS/Include/core_cm4.h ****  */
 447:Drivers/CMSIS/Include/core_cm4.h **** 
 448:Drivers/CMSIS/Include/core_cm4.h **** /**
 449:Drivers/CMSIS/Include/core_cm4.h ****   \brief  Structure type to access the Nested Vectored Interrupt Controller (NVIC).
 450:Drivers/CMSIS/Include/core_cm4.h ****  */
 451:Drivers/CMSIS/Include/core_cm4.h **** typedef struct
 452:Drivers/CMSIS/Include/core_cm4.h **** {
 453:Drivers/CMSIS/Include/core_cm4.h ****   __IOM uint32_t ISER[8U];               /*!< Offset: 0x000 (R/W)  Interrupt Set Enable Register */
 454:Drivers/CMSIS/Include/core_cm4.h ****         uint32_t RESERVED0[24U];
 455:Drivers/CMSIS/Include/core_cm4.h ****   __IOM uint32_t ICER[8U];               /*!< Offset: 0x080 (R/W)  Interrupt Clear Enable Register 
 456:Drivers/CMSIS/Include/core_cm4.h ****         uint32_t RSERVED1[24U];
 457:Drivers/CMSIS/Include/core_cm4.h ****   __IOM uint32_t ISPR[8U];               /*!< Offset: 0x100 (R/W)  Interrupt Set Pending Register *
 458:Drivers/CMSIS/Include/core_cm4.h ****         uint32_t RESERVED2[24U];
 459:Drivers/CMSIS/Include/core_cm4.h ****   __IOM uint32_t ICPR[8U];               /*!< Offset: 0x180 (R/W)  Interrupt Clear Pending Register
 460:Drivers/CMSIS/Include/core_cm4.h ****         uint32_t RESERVED3[24U];
 461:Drivers/CMSIS/Include/core_cm4.h ****   __IOM uint32_t IABR[8U];               /*!< Offset: 0x200 (R/W)  Interrupt Active bit Register */
 462:Drivers/CMSIS/Include/core_cm4.h ****         uint32_t RESERVED4[56U];
 463:Drivers/CMSIS/Include/core_cm4.h ****   __IOM uint8_t  IP[240U];               /*!< Offset: 0x300 (R/W)  Interrupt Priority Register (8Bi
 464:Drivers/CMSIS/Include/core_cm4.h ****         uint32_t RESERVED5[644U];
 465:Drivers/CMSIS/Include/core_cm4.h ****   __OM  uint32_t STIR;                   /*!< Offset: 0xE00 ( /W)  Software Trigger Interrupt Regis
 466:Drivers/CMSIS/Include/core_cm4.h **** }  NVIC_Type;
 467:Drivers/CMSIS/Include/core_cm4.h **** 
 468:Drivers/CMSIS/Include/core_cm4.h **** /* Software Triggered Interrupt Register Definitions */
 469:Drivers/CMSIS/Include/core_cm4.h **** #define NVIC_STIR_INTID_Pos                 0U                                         /*!< STIR: I
 470:Drivers/CMSIS/Include/core_cm4.h **** #define NVIC_STIR_INTID_Msk                (0x1FFUL /*<< NVIC_STIR_INTID_Pos*/)        /*!< STIR: I
 471:Drivers/CMSIS/Include/core_cm4.h **** 
 472:Drivers/CMSIS/Include/core_cm4.h **** /*@} end of group CMSIS_NVIC */
 473:Drivers/CMSIS/Include/core_cm4.h **** 
 474:Drivers/CMSIS/Include/core_cm4.h **** 
 475:Drivers/CMSIS/Include/core_cm4.h **** /**
 476:Drivers/CMSIS/Include/core_cm4.h ****   \ingroup  CMSIS_core_register
 477:Drivers/CMSIS/Include/core_cm4.h ****   \defgroup CMSIS_SCB     System Control Block (SCB)
 478:Drivers/CMSIS/Include/core_cm4.h ****   \brief    Type definitions for the System Control Block Registers
 479:Drivers/CMSIS/Include/core_cm4.h ****   @{
 480:Drivers/CMSIS/Include/core_cm4.h ****  */
 481:Drivers/CMSIS/Include/core_cm4.h **** 
 482:Drivers/CMSIS/Include/core_cm4.h **** /**
 483:Drivers/CMSIS/Include/core_cm4.h ****   \brief  Structure type to access the System Control Block (SCB).
 484:Drivers/CMSIS/Include/core_cm4.h ****  */
 485:Drivers/CMSIS/Include/core_cm4.h **** typedef struct
 486:Drivers/CMSIS/Include/core_cm4.h **** {
ARM GAS  /var/folders/_1/sgnj6dm57r56n1x62bwb5w5h0000gn/T//cckoM3Hr.s 			page 38


 487:Drivers/CMSIS/Include/core_cm4.h ****   __IM  uint32_t CPUID;                  /*!< Offset: 0x000 (R/ )  CPUID Base Register */
 488:Drivers/CMSIS/Include/core_cm4.h ****   __IOM uint32_t ICSR;                   /*!< Offset: 0x004 (R/W)  Interrupt Control and State Regi
 489:Drivers/CMSIS/Include/core_cm4.h ****   __IOM uint32_t VTOR;                   /*!< Offset: 0x008 (R/W)  Vector Table Offset Register */
 490:Drivers/CMSIS/Include/core_cm4.h ****   __IOM uint32_t AIRCR;                  /*!< Offset: 0x00C (R/W)  Application Interrupt and Reset 
 491:Drivers/CMSIS/Include/core_cm4.h ****   __IOM uint32_t SCR;                    /*!< Offset: 0x010 (R/W)  System Control Register */
 492:Drivers/CMSIS/Include/core_cm4.h ****   __IOM uint32_t CCR;                    /*!< Offset: 0x014 (R/W)  Configuration Control Register *
 493:Drivers/CMSIS/Include/core_cm4.h ****   __IOM uint8_t  SHP[12U];               /*!< Offset: 0x018 (R/W)  System Handlers Priority Registe
 494:Drivers/CMSIS/Include/core_cm4.h ****   __IOM uint32_t SHCSR;                  /*!< Offset: 0x024 (R/W)  System Handler Control and State
 495:Drivers/CMSIS/Include/core_cm4.h ****   __IOM uint32_t CFSR;                   /*!< Offset: 0x028 (R/W)  Configurable Fault Status Regist
 496:Drivers/CMSIS/Include/core_cm4.h ****   __IOM uint32_t HFSR;                   /*!< Offset: 0x02C (R/W)  HardFault Status Register */
 497:Drivers/CMSIS/Include/core_cm4.h ****   __IOM uint32_t DFSR;                   /*!< Offset: 0x030 (R/W)  Debug Fault Status Register */
 498:Drivers/CMSIS/Include/core_cm4.h ****   __IOM uint32_t MMFAR;                  /*!< Offset: 0x034 (R/W)  MemManage Fault Address Register
 499:Drivers/CMSIS/Include/core_cm4.h ****   __IOM uint32_t BFAR;                   /*!< Offset: 0x038 (R/W)  BusFault Address Register */
 500:Drivers/CMSIS/Include/core_cm4.h ****   __IOM uint32_t AFSR;                   /*!< Offset: 0x03C (R/W)  Auxiliary Fault Status Register 
 501:Drivers/CMSIS/Include/core_cm4.h ****   __IM  uint32_t PFR[2U];                /*!< Offset: 0x040 (R/ )  Processor Feature Register */
 502:Drivers/CMSIS/Include/core_cm4.h ****   __IM  uint32_t DFR;                    /*!< Offset: 0x048 (R/ )  Debug Feature Register */
 503:Drivers/CMSIS/Include/core_cm4.h ****   __IM  uint32_t ADR;                    /*!< Offset: 0x04C (R/ )  Auxiliary Feature Register */
 504:Drivers/CMSIS/Include/core_cm4.h ****   __IM  uint32_t MMFR[4U];               /*!< Offset: 0x050 (R/ )  Memory Model Feature Register */
 505:Drivers/CMSIS/Include/core_cm4.h ****   __IM  uint32_t ISAR[5U];               /*!< Offset: 0x060 (R/ )  Instruction Set Attributes Regis
 506:Drivers/CMSIS/Include/core_cm4.h ****         uint32_t RESERVED0[5U];
 507:Drivers/CMSIS/Include/core_cm4.h ****   __IOM uint32_t CPACR;                  /*!< Offset: 0x088 (R/W)  Coprocessor Access Control Regis
 508:Drivers/CMSIS/Include/core_cm4.h **** } SCB_Type;
 509:Drivers/CMSIS/Include/core_cm4.h **** 
 510:Drivers/CMSIS/Include/core_cm4.h **** /* SCB CPUID Register Definitions */
 511:Drivers/CMSIS/Include/core_cm4.h **** #define SCB_CPUID_IMPLEMENTER_Pos          24U                                            /*!< SCB 
 512:Drivers/CMSIS/Include/core_cm4.h **** #define SCB_CPUID_IMPLEMENTER_Msk          (0xFFUL << SCB_CPUID_IMPLEMENTER_Pos)          /*!< SCB 
 513:Drivers/CMSIS/Include/core_cm4.h **** 
 514:Drivers/CMSIS/Include/core_cm4.h **** #define SCB_CPUID_VARIANT_Pos              20U                                            /*!< SCB 
 515:Drivers/CMSIS/Include/core_cm4.h **** #define SCB_CPUID_VARIANT_Msk              (0xFUL << SCB_CPUID_VARIANT_Pos)               /*!< SCB 
 516:Drivers/CMSIS/Include/core_cm4.h **** 
 517:Drivers/CMSIS/Include/core_cm4.h **** #define SCB_CPUID_ARCHITECTURE_Pos         16U                                            /*!< SCB 
 518:Drivers/CMSIS/Include/core_cm4.h **** #define SCB_CPUID_ARCHITECTURE_Msk         (0xFUL << SCB_CPUID_ARCHITECTURE_Pos)          /*!< SCB 
 519:Drivers/CMSIS/Include/core_cm4.h **** 
 520:Drivers/CMSIS/Include/core_cm4.h **** #define SCB_CPUID_PARTNO_Pos                4U                                            /*!< SCB 
 521:Drivers/CMSIS/Include/core_cm4.h **** #define SCB_CPUID_PARTNO_Msk               (0xFFFUL << SCB_CPUID_PARTNO_Pos)              /*!< SCB 
 522:Drivers/CMSIS/Include/core_cm4.h **** 
 523:Drivers/CMSIS/Include/core_cm4.h **** #define SCB_CPUID_REVISION_Pos              0U                                            /*!< SCB 
 524:Drivers/CMSIS/Include/core_cm4.h **** #define SCB_CPUID_REVISION_Msk             (0xFUL /*<< SCB_CPUID_REVISION_Pos*/)          /*!< SCB 
 525:Drivers/CMSIS/Include/core_cm4.h **** 
 526:Drivers/CMSIS/Include/core_cm4.h **** /* SCB Interrupt Control State Register Definitions */
 527:Drivers/CMSIS/Include/core_cm4.h **** #define SCB_ICSR_NMIPENDSET_Pos            31U                                            /*!< SCB 
 528:Drivers/CMSIS/Include/core_cm4.h **** #define SCB_ICSR_NMIPENDSET_Msk            (1UL << SCB_ICSR_NMIPENDSET_Pos)               /*!< SCB 
 529:Drivers/CMSIS/Include/core_cm4.h **** 
 530:Drivers/CMSIS/Include/core_cm4.h **** #define SCB_ICSR_PENDSVSET_Pos             28U                                            /*!< SCB 
 531:Drivers/CMSIS/Include/core_cm4.h **** #define SCB_ICSR_PENDSVSET_Msk             (1UL << SCB_ICSR_PENDSVSET_Pos)                /*!< SCB 
 532:Drivers/CMSIS/Include/core_cm4.h **** 
 533:Drivers/CMSIS/Include/core_cm4.h **** #define SCB_ICSR_PENDSVCLR_Pos             27U                                            /*!< SCB 
 534:Drivers/CMSIS/Include/core_cm4.h **** #define SCB_ICSR_PENDSVCLR_Msk             (1UL << SCB_ICSR_PENDSVCLR_Pos)                /*!< SCB 
 535:Drivers/CMSIS/Include/core_cm4.h **** 
 536:Drivers/CMSIS/Include/core_cm4.h **** #define SCB_ICSR_PENDSTSET_Pos             26U                                            /*!< SCB 
 537:Drivers/CMSIS/Include/core_cm4.h **** #define SCB_ICSR_PENDSTSET_Msk             (1UL << SCB_ICSR_PENDSTSET_Pos)                /*!< SCB 
 538:Drivers/CMSIS/Include/core_cm4.h **** 
 539:Drivers/CMSIS/Include/core_cm4.h **** #define SCB_ICSR_PENDSTCLR_Pos             25U                                            /*!< SCB 
 540:Drivers/CMSIS/Include/core_cm4.h **** #define SCB_ICSR_PENDSTCLR_Msk             (1UL << SCB_ICSR_PENDSTCLR_Pos)                /*!< SCB 
 541:Drivers/CMSIS/Include/core_cm4.h **** 
 542:Drivers/CMSIS/Include/core_cm4.h **** #define SCB_ICSR_ISRPREEMPT_Pos            23U                                            /*!< SCB 
 543:Drivers/CMSIS/Include/core_cm4.h **** #define SCB_ICSR_ISRPREEMPT_Msk            (1UL << SCB_ICSR_ISRPREEMPT_Pos)               /*!< SCB 
ARM GAS  /var/folders/_1/sgnj6dm57r56n1x62bwb5w5h0000gn/T//cckoM3Hr.s 			page 39


 544:Drivers/CMSIS/Include/core_cm4.h **** 
 545:Drivers/CMSIS/Include/core_cm4.h **** #define SCB_ICSR_ISRPENDING_Pos            22U                                            /*!< SCB 
 546:Drivers/CMSIS/Include/core_cm4.h **** #define SCB_ICSR_ISRPENDING_Msk            (1UL << SCB_ICSR_ISRPENDING_Pos)               /*!< SCB 
 547:Drivers/CMSIS/Include/core_cm4.h **** 
 548:Drivers/CMSIS/Include/core_cm4.h **** #define SCB_ICSR_VECTPENDING_Pos           12U                                            /*!< SCB 
 549:Drivers/CMSIS/Include/core_cm4.h **** #define SCB_ICSR_VECTPENDING_Msk           (0x1FFUL << SCB_ICSR_VECTPENDING_Pos)          /*!< SCB 
 550:Drivers/CMSIS/Include/core_cm4.h **** 
 551:Drivers/CMSIS/Include/core_cm4.h **** #define SCB_ICSR_RETTOBASE_Pos             11U                                            /*!< SCB 
 552:Drivers/CMSIS/Include/core_cm4.h **** #define SCB_ICSR_RETTOBASE_Msk             (1UL << SCB_ICSR_RETTOBASE_Pos)                /*!< SCB 
 553:Drivers/CMSIS/Include/core_cm4.h **** 
 554:Drivers/CMSIS/Include/core_cm4.h **** #define SCB_ICSR_VECTACTIVE_Pos             0U                                            /*!< SCB 
 555:Drivers/CMSIS/Include/core_cm4.h **** #define SCB_ICSR_VECTACTIVE_Msk            (0x1FFUL /*<< SCB_ICSR_VECTACTIVE_Pos*/)       /*!< SCB 
 556:Drivers/CMSIS/Include/core_cm4.h **** 
 557:Drivers/CMSIS/Include/core_cm4.h **** /* SCB Vector Table Offset Register Definitions */
 558:Drivers/CMSIS/Include/core_cm4.h **** #define SCB_VTOR_TBLOFF_Pos                 7U                                            /*!< SCB 
 559:Drivers/CMSIS/Include/core_cm4.h **** #define SCB_VTOR_TBLOFF_Msk                (0x1FFFFFFUL << SCB_VTOR_TBLOFF_Pos)           /*!< SCB 
 560:Drivers/CMSIS/Include/core_cm4.h **** 
 561:Drivers/CMSIS/Include/core_cm4.h **** /* SCB Application Interrupt and Reset Control Register Definitions */
 562:Drivers/CMSIS/Include/core_cm4.h **** #define SCB_AIRCR_VECTKEY_Pos              16U                                            /*!< SCB 
 563:Drivers/CMSIS/Include/core_cm4.h **** #define SCB_AIRCR_VECTKEY_Msk              (0xFFFFUL << SCB_AIRCR_VECTKEY_Pos)            /*!< SCB 
 564:Drivers/CMSIS/Include/core_cm4.h **** 
 565:Drivers/CMSIS/Include/core_cm4.h **** #define SCB_AIRCR_VECTKEYSTAT_Pos          16U                                            /*!< SCB 
 566:Drivers/CMSIS/Include/core_cm4.h **** #define SCB_AIRCR_VECTKEYSTAT_Msk          (0xFFFFUL << SCB_AIRCR_VECTKEYSTAT_Pos)        /*!< SCB 
 567:Drivers/CMSIS/Include/core_cm4.h **** 
 568:Drivers/CMSIS/Include/core_cm4.h **** #define SCB_AIRCR_ENDIANESS_Pos            15U                                            /*!< SCB 
 569:Drivers/CMSIS/Include/core_cm4.h **** #define SCB_AIRCR_ENDIANESS_Msk            (1UL << SCB_AIRCR_ENDIANESS_Pos)               /*!< SCB 
 570:Drivers/CMSIS/Include/core_cm4.h **** 
 571:Drivers/CMSIS/Include/core_cm4.h **** #define SCB_AIRCR_PRIGROUP_Pos              8U                                            /*!< SCB 
 572:Drivers/CMSIS/Include/core_cm4.h **** #define SCB_AIRCR_PRIGROUP_Msk             (7UL << SCB_AIRCR_PRIGROUP_Pos)                /*!< SCB 
 573:Drivers/CMSIS/Include/core_cm4.h **** 
 574:Drivers/CMSIS/Include/core_cm4.h **** #define SCB_AIRCR_SYSRESETREQ_Pos           2U                                            /*!< SCB 
 575:Drivers/CMSIS/Include/core_cm4.h **** #define SCB_AIRCR_SYSRESETREQ_Msk          (1UL << SCB_AIRCR_SYSRESETREQ_Pos)             /*!< SCB 
 576:Drivers/CMSIS/Include/core_cm4.h **** 
 577:Drivers/CMSIS/Include/core_cm4.h **** #define SCB_AIRCR_VECTCLRACTIVE_Pos         1U                                            /*!< SCB 
 578:Drivers/CMSIS/Include/core_cm4.h **** #define SCB_AIRCR_VECTCLRACTIVE_Msk        (1UL << SCB_AIRCR_VECTCLRACTIVE_Pos)           /*!< SCB 
 579:Drivers/CMSIS/Include/core_cm4.h **** 
 580:Drivers/CMSIS/Include/core_cm4.h **** #define SCB_AIRCR_VECTRESET_Pos             0U                                            /*!< SCB 
 581:Drivers/CMSIS/Include/core_cm4.h **** #define SCB_AIRCR_VECTRESET_Msk            (1UL /*<< SCB_AIRCR_VECTRESET_Pos*/)           /*!< SCB 
 582:Drivers/CMSIS/Include/core_cm4.h **** 
 583:Drivers/CMSIS/Include/core_cm4.h **** /* SCB System Control Register Definitions */
 584:Drivers/CMSIS/Include/core_cm4.h **** #define SCB_SCR_SEVONPEND_Pos               4U                                            /*!< SCB 
 585:Drivers/CMSIS/Include/core_cm4.h **** #define SCB_SCR_SEVONPEND_Msk              (1UL << SCB_SCR_SEVONPEND_Pos)                 /*!< SCB 
 586:Drivers/CMSIS/Include/core_cm4.h **** 
 587:Drivers/CMSIS/Include/core_cm4.h **** #define SCB_SCR_SLEEPDEEP_Pos               2U                                            /*!< SCB 
 588:Drivers/CMSIS/Include/core_cm4.h **** #define SCB_SCR_SLEEPDEEP_Msk              (1UL << SCB_SCR_SLEEPDEEP_Pos)                 /*!< SCB 
 589:Drivers/CMSIS/Include/core_cm4.h **** 
 590:Drivers/CMSIS/Include/core_cm4.h **** #define SCB_SCR_SLEEPONEXIT_Pos             1U                                            /*!< SCB 
 591:Drivers/CMSIS/Include/core_cm4.h **** #define SCB_SCR_SLEEPONEXIT_Msk            (1UL << SCB_SCR_SLEEPONEXIT_Pos)               /*!< SCB 
 592:Drivers/CMSIS/Include/core_cm4.h **** 
 593:Drivers/CMSIS/Include/core_cm4.h **** /* SCB Configuration Control Register Definitions */
 594:Drivers/CMSIS/Include/core_cm4.h **** #define SCB_CCR_STKALIGN_Pos                9U                                            /*!< SCB 
 595:Drivers/CMSIS/Include/core_cm4.h **** #define SCB_CCR_STKALIGN_Msk               (1UL << SCB_CCR_STKALIGN_Pos)                  /*!< SCB 
 596:Drivers/CMSIS/Include/core_cm4.h **** 
 597:Drivers/CMSIS/Include/core_cm4.h **** #define SCB_CCR_BFHFNMIGN_Pos               8U                                            /*!< SCB 
 598:Drivers/CMSIS/Include/core_cm4.h **** #define SCB_CCR_BFHFNMIGN_Msk              (1UL << SCB_CCR_BFHFNMIGN_Pos)                 /*!< SCB 
 599:Drivers/CMSIS/Include/core_cm4.h **** 
 600:Drivers/CMSIS/Include/core_cm4.h **** #define SCB_CCR_DIV_0_TRP_Pos               4U                                            /*!< SCB 
ARM GAS  /var/folders/_1/sgnj6dm57r56n1x62bwb5w5h0000gn/T//cckoM3Hr.s 			page 40


 601:Drivers/CMSIS/Include/core_cm4.h **** #define SCB_CCR_DIV_0_TRP_Msk              (1UL << SCB_CCR_DIV_0_TRP_Pos)                 /*!< SCB 
 602:Drivers/CMSIS/Include/core_cm4.h **** 
 603:Drivers/CMSIS/Include/core_cm4.h **** #define SCB_CCR_UNALIGN_TRP_Pos             3U                                            /*!< SCB 
 604:Drivers/CMSIS/Include/core_cm4.h **** #define SCB_CCR_UNALIGN_TRP_Msk            (1UL << SCB_CCR_UNALIGN_TRP_Pos)               /*!< SCB 
 605:Drivers/CMSIS/Include/core_cm4.h **** 
 606:Drivers/CMSIS/Include/core_cm4.h **** #define SCB_CCR_USERSETMPEND_Pos            1U                                            /*!< SCB 
 607:Drivers/CMSIS/Include/core_cm4.h **** #define SCB_CCR_USERSETMPEND_Msk           (1UL << SCB_CCR_USERSETMPEND_Pos)              /*!< SCB 
 608:Drivers/CMSIS/Include/core_cm4.h **** 
 609:Drivers/CMSIS/Include/core_cm4.h **** #define SCB_CCR_NONBASETHRDENA_Pos          0U                                            /*!< SCB 
 610:Drivers/CMSIS/Include/core_cm4.h **** #define SCB_CCR_NONBASETHRDENA_Msk         (1UL /*<< SCB_CCR_NONBASETHRDENA_Pos*/)        /*!< SCB 
 611:Drivers/CMSIS/Include/core_cm4.h **** 
 612:Drivers/CMSIS/Include/core_cm4.h **** /* SCB System Handler Control and State Register Definitions */
 613:Drivers/CMSIS/Include/core_cm4.h **** #define SCB_SHCSR_USGFAULTENA_Pos          18U                                            /*!< SCB 
 614:Drivers/CMSIS/Include/core_cm4.h **** #define SCB_SHCSR_USGFAULTENA_Msk          (1UL << SCB_SHCSR_USGFAULTENA_Pos)             /*!< SCB 
 615:Drivers/CMSIS/Include/core_cm4.h **** 
 616:Drivers/CMSIS/Include/core_cm4.h **** #define SCB_SHCSR_BUSFAULTENA_Pos          17U                                            /*!< SCB 
 617:Drivers/CMSIS/Include/core_cm4.h **** #define SCB_SHCSR_BUSFAULTENA_Msk          (1UL << SCB_SHCSR_BUSFAULTENA_Pos)             /*!< SCB 
 618:Drivers/CMSIS/Include/core_cm4.h **** 
 619:Drivers/CMSIS/Include/core_cm4.h **** #define SCB_SHCSR_MEMFAULTENA_Pos          16U                                            /*!< SCB 
 620:Drivers/CMSIS/Include/core_cm4.h **** #define SCB_SHCSR_MEMFAULTENA_Msk          (1UL << SCB_SHCSR_MEMFAULTENA_Pos)             /*!< SCB 
 621:Drivers/CMSIS/Include/core_cm4.h **** 
 622:Drivers/CMSIS/Include/core_cm4.h **** #define SCB_SHCSR_SVCALLPENDED_Pos         15U                                            /*!< SCB 
 623:Drivers/CMSIS/Include/core_cm4.h **** #define SCB_SHCSR_SVCALLPENDED_Msk         (1UL << SCB_SHCSR_SVCALLPENDED_Pos)            /*!< SCB 
 624:Drivers/CMSIS/Include/core_cm4.h **** 
 625:Drivers/CMSIS/Include/core_cm4.h **** #define SCB_SHCSR_BUSFAULTPENDED_Pos       14U                                            /*!< SCB 
 626:Drivers/CMSIS/Include/core_cm4.h **** #define SCB_SHCSR_BUSFAULTPENDED_Msk       (1UL << SCB_SHCSR_BUSFAULTPENDED_Pos)          /*!< SCB 
 627:Drivers/CMSIS/Include/core_cm4.h **** 
 628:Drivers/CMSIS/Include/core_cm4.h **** #define SCB_SHCSR_MEMFAULTPENDED_Pos       13U                                            /*!< SCB 
 629:Drivers/CMSIS/Include/core_cm4.h **** #define SCB_SHCSR_MEMFAULTPENDED_Msk       (1UL << SCB_SHCSR_MEMFAULTPENDED_Pos)          /*!< SCB 
 630:Drivers/CMSIS/Include/core_cm4.h **** 
 631:Drivers/CMSIS/Include/core_cm4.h **** #define SCB_SHCSR_USGFAULTPENDED_Pos       12U                                            /*!< SCB 
 632:Drivers/CMSIS/Include/core_cm4.h **** #define SCB_SHCSR_USGFAULTPENDED_Msk       (1UL << SCB_SHCSR_USGFAULTPENDED_Pos)          /*!< SCB 
 633:Drivers/CMSIS/Include/core_cm4.h **** 
 634:Drivers/CMSIS/Include/core_cm4.h **** #define SCB_SHCSR_SYSTICKACT_Pos           11U                                            /*!< SCB 
 635:Drivers/CMSIS/Include/core_cm4.h **** #define SCB_SHCSR_SYSTICKACT_Msk           (1UL << SCB_SHCSR_SYSTICKACT_Pos)              /*!< SCB 
 636:Drivers/CMSIS/Include/core_cm4.h **** 
 637:Drivers/CMSIS/Include/core_cm4.h **** #define SCB_SHCSR_PENDSVACT_Pos            10U                                            /*!< SCB 
 638:Drivers/CMSIS/Include/core_cm4.h **** #define SCB_SHCSR_PENDSVACT_Msk            (1UL << SCB_SHCSR_PENDSVACT_Pos)               /*!< SCB 
 639:Drivers/CMSIS/Include/core_cm4.h **** 
 640:Drivers/CMSIS/Include/core_cm4.h **** #define SCB_SHCSR_MONITORACT_Pos            8U                                            /*!< SCB 
 641:Drivers/CMSIS/Include/core_cm4.h **** #define SCB_SHCSR_MONITORACT_Msk           (1UL << SCB_SHCSR_MONITORACT_Pos)              /*!< SCB 
 642:Drivers/CMSIS/Include/core_cm4.h **** 
 643:Drivers/CMSIS/Include/core_cm4.h **** #define SCB_SHCSR_SVCALLACT_Pos             7U                                            /*!< SCB 
 644:Drivers/CMSIS/Include/core_cm4.h **** #define SCB_SHCSR_SVCALLACT_Msk            (1UL << SCB_SHCSR_SVCALLACT_Pos)               /*!< SCB 
 645:Drivers/CMSIS/Include/core_cm4.h **** 
 646:Drivers/CMSIS/Include/core_cm4.h **** #define SCB_SHCSR_USGFAULTACT_Pos           3U                                            /*!< SCB 
 647:Drivers/CMSIS/Include/core_cm4.h **** #define SCB_SHCSR_USGFAULTACT_Msk          (1UL << SCB_SHCSR_USGFAULTACT_Pos)             /*!< SCB 
 648:Drivers/CMSIS/Include/core_cm4.h **** 
 649:Drivers/CMSIS/Include/core_cm4.h **** #define SCB_SHCSR_BUSFAULTACT_Pos           1U                                            /*!< SCB 
 650:Drivers/CMSIS/Include/core_cm4.h **** #define SCB_SHCSR_BUSFAULTACT_Msk          (1UL << SCB_SHCSR_BUSFAULTACT_Pos)             /*!< SCB 
 651:Drivers/CMSIS/Include/core_cm4.h **** 
 652:Drivers/CMSIS/Include/core_cm4.h **** #define SCB_SHCSR_MEMFAULTACT_Pos           0U                                            /*!< SCB 
 653:Drivers/CMSIS/Include/core_cm4.h **** #define SCB_SHCSR_MEMFAULTACT_Msk          (1UL /*<< SCB_SHCSR_MEMFAULTACT_Pos*/)         /*!< SCB 
 654:Drivers/CMSIS/Include/core_cm4.h **** 
 655:Drivers/CMSIS/Include/core_cm4.h **** /* SCB Configurable Fault Status Register Definitions */
 656:Drivers/CMSIS/Include/core_cm4.h **** #define SCB_CFSR_USGFAULTSR_Pos            16U                                            /*!< SCB 
 657:Drivers/CMSIS/Include/core_cm4.h **** #define SCB_CFSR_USGFAULTSR_Msk            (0xFFFFUL << SCB_CFSR_USGFAULTSR_Pos)          /*!< SCB 
ARM GAS  /var/folders/_1/sgnj6dm57r56n1x62bwb5w5h0000gn/T//cckoM3Hr.s 			page 41


 658:Drivers/CMSIS/Include/core_cm4.h **** 
 659:Drivers/CMSIS/Include/core_cm4.h **** #define SCB_CFSR_BUSFAULTSR_Pos             8U                                            /*!< SCB 
 660:Drivers/CMSIS/Include/core_cm4.h **** #define SCB_CFSR_BUSFAULTSR_Msk            (0xFFUL << SCB_CFSR_BUSFAULTSR_Pos)            /*!< SCB 
 661:Drivers/CMSIS/Include/core_cm4.h **** 
 662:Drivers/CMSIS/Include/core_cm4.h **** #define SCB_CFSR_MEMFAULTSR_Pos             0U                                            /*!< SCB 
 663:Drivers/CMSIS/Include/core_cm4.h **** #define SCB_CFSR_MEMFAULTSR_Msk            (0xFFUL /*<< SCB_CFSR_MEMFAULTSR_Pos*/)        /*!< SCB 
 664:Drivers/CMSIS/Include/core_cm4.h **** 
 665:Drivers/CMSIS/Include/core_cm4.h **** /* SCB Hard Fault Status Register Definitions */
 666:Drivers/CMSIS/Include/core_cm4.h **** #define SCB_HFSR_DEBUGEVT_Pos              31U                                            /*!< SCB 
 667:Drivers/CMSIS/Include/core_cm4.h **** #define SCB_HFSR_DEBUGEVT_Msk              (1UL << SCB_HFSR_DEBUGEVT_Pos)                 /*!< SCB 
 668:Drivers/CMSIS/Include/core_cm4.h **** 
 669:Drivers/CMSIS/Include/core_cm4.h **** #define SCB_HFSR_FORCED_Pos                30U                                            /*!< SCB 
 670:Drivers/CMSIS/Include/core_cm4.h **** #define SCB_HFSR_FORCED_Msk                (1UL << SCB_HFSR_FORCED_Pos)                   /*!< SCB 
 671:Drivers/CMSIS/Include/core_cm4.h **** 
 672:Drivers/CMSIS/Include/core_cm4.h **** #define SCB_HFSR_VECTTBL_Pos                1U                                            /*!< SCB 
 673:Drivers/CMSIS/Include/core_cm4.h **** #define SCB_HFSR_VECTTBL_Msk               (1UL << SCB_HFSR_VECTTBL_Pos)                  /*!< SCB 
 674:Drivers/CMSIS/Include/core_cm4.h **** 
 675:Drivers/CMSIS/Include/core_cm4.h **** /* SCB Debug Fault Status Register Definitions */
 676:Drivers/CMSIS/Include/core_cm4.h **** #define SCB_DFSR_EXTERNAL_Pos               4U                                            /*!< SCB 
 677:Drivers/CMSIS/Include/core_cm4.h **** #define SCB_DFSR_EXTERNAL_Msk              (1UL << SCB_DFSR_EXTERNAL_Pos)                 /*!< SCB 
 678:Drivers/CMSIS/Include/core_cm4.h **** 
 679:Drivers/CMSIS/Include/core_cm4.h **** #define SCB_DFSR_VCATCH_Pos                 3U                                            /*!< SCB 
 680:Drivers/CMSIS/Include/core_cm4.h **** #define SCB_DFSR_VCATCH_Msk                (1UL << SCB_DFSR_VCATCH_Pos)                   /*!< SCB 
 681:Drivers/CMSIS/Include/core_cm4.h **** 
 682:Drivers/CMSIS/Include/core_cm4.h **** #define SCB_DFSR_DWTTRAP_Pos                2U                                            /*!< SCB 
 683:Drivers/CMSIS/Include/core_cm4.h **** #define SCB_DFSR_DWTTRAP_Msk               (1UL << SCB_DFSR_DWTTRAP_Pos)                  /*!< SCB 
 684:Drivers/CMSIS/Include/core_cm4.h **** 
 685:Drivers/CMSIS/Include/core_cm4.h **** #define SCB_DFSR_BKPT_Pos                   1U                                            /*!< SCB 
 686:Drivers/CMSIS/Include/core_cm4.h **** #define SCB_DFSR_BKPT_Msk                  (1UL << SCB_DFSR_BKPT_Pos)                     /*!< SCB 
 687:Drivers/CMSIS/Include/core_cm4.h **** 
 688:Drivers/CMSIS/Include/core_cm4.h **** #define SCB_DFSR_HALTED_Pos                 0U                                            /*!< SCB 
 689:Drivers/CMSIS/Include/core_cm4.h **** #define SCB_DFSR_HALTED_Msk                (1UL /*<< SCB_DFSR_HALTED_Pos*/)               /*!< SCB 
 690:Drivers/CMSIS/Include/core_cm4.h **** 
 691:Drivers/CMSIS/Include/core_cm4.h **** /*@} end of group CMSIS_SCB */
 692:Drivers/CMSIS/Include/core_cm4.h **** 
 693:Drivers/CMSIS/Include/core_cm4.h **** 
 694:Drivers/CMSIS/Include/core_cm4.h **** /**
 695:Drivers/CMSIS/Include/core_cm4.h ****   \ingroup  CMSIS_core_register
 696:Drivers/CMSIS/Include/core_cm4.h ****   \defgroup CMSIS_SCnSCB System Controls not in SCB (SCnSCB)
 697:Drivers/CMSIS/Include/core_cm4.h ****   \brief    Type definitions for the System Control and ID Register not in the SCB
 698:Drivers/CMSIS/Include/core_cm4.h ****   @{
 699:Drivers/CMSIS/Include/core_cm4.h ****  */
 700:Drivers/CMSIS/Include/core_cm4.h **** 
 701:Drivers/CMSIS/Include/core_cm4.h **** /**
 702:Drivers/CMSIS/Include/core_cm4.h ****   \brief  Structure type to access the System Control and ID Register not in the SCB.
 703:Drivers/CMSIS/Include/core_cm4.h ****  */
 704:Drivers/CMSIS/Include/core_cm4.h **** typedef struct
 705:Drivers/CMSIS/Include/core_cm4.h **** {
 706:Drivers/CMSIS/Include/core_cm4.h ****         uint32_t RESERVED0[1U];
 707:Drivers/CMSIS/Include/core_cm4.h ****   __IM  uint32_t ICTR;                   /*!< Offset: 0x004 (R/ )  Interrupt Controller Type Regist
 708:Drivers/CMSIS/Include/core_cm4.h ****   __IOM uint32_t ACTLR;                  /*!< Offset: 0x008 (R/W)  Auxiliary Control Register */
 709:Drivers/CMSIS/Include/core_cm4.h **** } SCnSCB_Type;
 710:Drivers/CMSIS/Include/core_cm4.h **** 
 711:Drivers/CMSIS/Include/core_cm4.h **** /* Interrupt Controller Type Register Definitions */
 712:Drivers/CMSIS/Include/core_cm4.h **** #define SCnSCB_ICTR_INTLINESNUM_Pos         0U                                         /*!< ICTR: I
 713:Drivers/CMSIS/Include/core_cm4.h **** #define SCnSCB_ICTR_INTLINESNUM_Msk        (0xFUL /*<< SCnSCB_ICTR_INTLINESNUM_Pos*/)  /*!< ICTR: I
 714:Drivers/CMSIS/Include/core_cm4.h **** 
ARM GAS  /var/folders/_1/sgnj6dm57r56n1x62bwb5w5h0000gn/T//cckoM3Hr.s 			page 42


 715:Drivers/CMSIS/Include/core_cm4.h **** /* Auxiliary Control Register Definitions */
 716:Drivers/CMSIS/Include/core_cm4.h **** #define SCnSCB_ACTLR_DISOOFP_Pos            9U                                         /*!< ACTLR: 
 717:Drivers/CMSIS/Include/core_cm4.h **** #define SCnSCB_ACTLR_DISOOFP_Msk           (1UL << SCnSCB_ACTLR_DISOOFP_Pos)           /*!< ACTLR: 
 718:Drivers/CMSIS/Include/core_cm4.h **** 
 719:Drivers/CMSIS/Include/core_cm4.h **** #define SCnSCB_ACTLR_DISFPCA_Pos            8U                                         /*!< ACTLR: 
 720:Drivers/CMSIS/Include/core_cm4.h **** #define SCnSCB_ACTLR_DISFPCA_Msk           (1UL << SCnSCB_ACTLR_DISFPCA_Pos)           /*!< ACTLR: 
 721:Drivers/CMSIS/Include/core_cm4.h **** 
 722:Drivers/CMSIS/Include/core_cm4.h **** #define SCnSCB_ACTLR_DISFOLD_Pos            2U                                         /*!< ACTLR: 
 723:Drivers/CMSIS/Include/core_cm4.h **** #define SCnSCB_ACTLR_DISFOLD_Msk           (1UL << SCnSCB_ACTLR_DISFOLD_Pos)           /*!< ACTLR: 
 724:Drivers/CMSIS/Include/core_cm4.h **** 
 725:Drivers/CMSIS/Include/core_cm4.h **** #define SCnSCB_ACTLR_DISDEFWBUF_Pos         1U                                         /*!< ACTLR: 
 726:Drivers/CMSIS/Include/core_cm4.h **** #define SCnSCB_ACTLR_DISDEFWBUF_Msk        (1UL << SCnSCB_ACTLR_DISDEFWBUF_Pos)        /*!< ACTLR: 
 727:Drivers/CMSIS/Include/core_cm4.h **** 
 728:Drivers/CMSIS/Include/core_cm4.h **** #define SCnSCB_ACTLR_DISMCYCINT_Pos         0U                                         /*!< ACTLR: 
 729:Drivers/CMSIS/Include/core_cm4.h **** #define SCnSCB_ACTLR_DISMCYCINT_Msk        (1UL /*<< SCnSCB_ACTLR_DISMCYCINT_Pos*/)    /*!< ACTLR: 
 730:Drivers/CMSIS/Include/core_cm4.h **** 
 731:Drivers/CMSIS/Include/core_cm4.h **** /*@} end of group CMSIS_SCnotSCB */
 732:Drivers/CMSIS/Include/core_cm4.h **** 
 733:Drivers/CMSIS/Include/core_cm4.h **** 
 734:Drivers/CMSIS/Include/core_cm4.h **** /**
 735:Drivers/CMSIS/Include/core_cm4.h ****   \ingroup  CMSIS_core_register
 736:Drivers/CMSIS/Include/core_cm4.h ****   \defgroup CMSIS_SysTick     System Tick Timer (SysTick)
 737:Drivers/CMSIS/Include/core_cm4.h ****   \brief    Type definitions for the System Timer Registers.
 738:Drivers/CMSIS/Include/core_cm4.h ****   @{
 739:Drivers/CMSIS/Include/core_cm4.h ****  */
 740:Drivers/CMSIS/Include/core_cm4.h **** 
 741:Drivers/CMSIS/Include/core_cm4.h **** /**
 742:Drivers/CMSIS/Include/core_cm4.h ****   \brief  Structure type to access the System Timer (SysTick).
 743:Drivers/CMSIS/Include/core_cm4.h ****  */
 744:Drivers/CMSIS/Include/core_cm4.h **** typedef struct
 745:Drivers/CMSIS/Include/core_cm4.h **** {
 746:Drivers/CMSIS/Include/core_cm4.h ****   __IOM uint32_t CTRL;                   /*!< Offset: 0x000 (R/W)  SysTick Control and Status Regis
 747:Drivers/CMSIS/Include/core_cm4.h ****   __IOM uint32_t LOAD;                   /*!< Offset: 0x004 (R/W)  SysTick Reload Value Register */
 748:Drivers/CMSIS/Include/core_cm4.h ****   __IOM uint32_t VAL;                    /*!< Offset: 0x008 (R/W)  SysTick Current Value Register *
 749:Drivers/CMSIS/Include/core_cm4.h ****   __IM  uint32_t CALIB;                  /*!< Offset: 0x00C (R/ )  SysTick Calibration Register */
 750:Drivers/CMSIS/Include/core_cm4.h **** } SysTick_Type;
 751:Drivers/CMSIS/Include/core_cm4.h **** 
 752:Drivers/CMSIS/Include/core_cm4.h **** /* SysTick Control / Status Register Definitions */
 753:Drivers/CMSIS/Include/core_cm4.h **** #define SysTick_CTRL_COUNTFLAG_Pos         16U                                            /*!< SysT
 754:Drivers/CMSIS/Include/core_cm4.h **** #define SysTick_CTRL_COUNTFLAG_Msk         (1UL << SysTick_CTRL_COUNTFLAG_Pos)            /*!< SysT
 755:Drivers/CMSIS/Include/core_cm4.h **** 
 756:Drivers/CMSIS/Include/core_cm4.h **** #define SysTick_CTRL_CLKSOURCE_Pos          2U                                            /*!< SysT
 757:Drivers/CMSIS/Include/core_cm4.h **** #define SysTick_CTRL_CLKSOURCE_Msk         (1UL << SysTick_CTRL_CLKSOURCE_Pos)            /*!< SysT
 758:Drivers/CMSIS/Include/core_cm4.h **** 
 759:Drivers/CMSIS/Include/core_cm4.h **** #define SysTick_CTRL_TICKINT_Pos            1U                                            /*!< SysT
 760:Drivers/CMSIS/Include/core_cm4.h **** #define SysTick_CTRL_TICKINT_Msk           (1UL << SysTick_CTRL_TICKINT_Pos)              /*!< SysT
 761:Drivers/CMSIS/Include/core_cm4.h **** 
 762:Drivers/CMSIS/Include/core_cm4.h **** #define SysTick_CTRL_ENABLE_Pos             0U                                            /*!< SysT
 763:Drivers/CMSIS/Include/core_cm4.h **** #define SysTick_CTRL_ENABLE_Msk            (1UL /*<< SysTick_CTRL_ENABLE_Pos*/)           /*!< SysT
 764:Drivers/CMSIS/Include/core_cm4.h **** 
 765:Drivers/CMSIS/Include/core_cm4.h **** /* SysTick Reload Register Definitions */
 766:Drivers/CMSIS/Include/core_cm4.h **** #define SysTick_LOAD_RELOAD_Pos             0U                                            /*!< SysT
 767:Drivers/CMSIS/Include/core_cm4.h **** #define SysTick_LOAD_RELOAD_Msk            (0xFFFFFFUL /*<< SysTick_LOAD_RELOAD_Pos*/)    /*!< SysT
 768:Drivers/CMSIS/Include/core_cm4.h **** 
 769:Drivers/CMSIS/Include/core_cm4.h **** /* SysTick Current Register Definitions */
 770:Drivers/CMSIS/Include/core_cm4.h **** #define SysTick_VAL_CURRENT_Pos             0U                                            /*!< SysT
 771:Drivers/CMSIS/Include/core_cm4.h **** #define SysTick_VAL_CURRENT_Msk            (0xFFFFFFUL /*<< SysTick_VAL_CURRENT_Pos*/)    /*!< SysT
ARM GAS  /var/folders/_1/sgnj6dm57r56n1x62bwb5w5h0000gn/T//cckoM3Hr.s 			page 43


 772:Drivers/CMSIS/Include/core_cm4.h **** 
 773:Drivers/CMSIS/Include/core_cm4.h **** /* SysTick Calibration Register Definitions */
 774:Drivers/CMSIS/Include/core_cm4.h **** #define SysTick_CALIB_NOREF_Pos            31U                                            /*!< SysT
 775:Drivers/CMSIS/Include/core_cm4.h **** #define SysTick_CALIB_NOREF_Msk            (1UL << SysTick_CALIB_NOREF_Pos)               /*!< SysT
 776:Drivers/CMSIS/Include/core_cm4.h **** 
 777:Drivers/CMSIS/Include/core_cm4.h **** #define SysTick_CALIB_SKEW_Pos             30U                                            /*!< SysT
 778:Drivers/CMSIS/Include/core_cm4.h **** #define SysTick_CALIB_SKEW_Msk             (1UL << SysTick_CALIB_SKEW_Pos)                /*!< SysT
 779:Drivers/CMSIS/Include/core_cm4.h **** 
 780:Drivers/CMSIS/Include/core_cm4.h **** #define SysTick_CALIB_TENMS_Pos             0U                                            /*!< SysT
 781:Drivers/CMSIS/Include/core_cm4.h **** #define SysTick_CALIB_TENMS_Msk            (0xFFFFFFUL /*<< SysTick_CALIB_TENMS_Pos*/)    /*!< SysT
 782:Drivers/CMSIS/Include/core_cm4.h **** 
 783:Drivers/CMSIS/Include/core_cm4.h **** /*@} end of group CMSIS_SysTick */
 784:Drivers/CMSIS/Include/core_cm4.h **** 
 785:Drivers/CMSIS/Include/core_cm4.h **** 
 786:Drivers/CMSIS/Include/core_cm4.h **** /**
 787:Drivers/CMSIS/Include/core_cm4.h ****   \ingroup  CMSIS_core_register
 788:Drivers/CMSIS/Include/core_cm4.h ****   \defgroup CMSIS_ITM     Instrumentation Trace Macrocell (ITM)
 789:Drivers/CMSIS/Include/core_cm4.h ****   \brief    Type definitions for the Instrumentation Trace Macrocell (ITM)
 790:Drivers/CMSIS/Include/core_cm4.h ****   @{
 791:Drivers/CMSIS/Include/core_cm4.h ****  */
 792:Drivers/CMSIS/Include/core_cm4.h **** 
 793:Drivers/CMSIS/Include/core_cm4.h **** /**
 794:Drivers/CMSIS/Include/core_cm4.h ****   \brief  Structure type to access the Instrumentation Trace Macrocell Register (ITM).
 795:Drivers/CMSIS/Include/core_cm4.h ****  */
 796:Drivers/CMSIS/Include/core_cm4.h **** typedef struct
 797:Drivers/CMSIS/Include/core_cm4.h **** {
 798:Drivers/CMSIS/Include/core_cm4.h ****   __OM  union
 799:Drivers/CMSIS/Include/core_cm4.h ****   {
 800:Drivers/CMSIS/Include/core_cm4.h ****     __OM  uint8_t    u8;                 /*!< Offset: 0x000 ( /W)  ITM Stimulus Port 8-bit */
 801:Drivers/CMSIS/Include/core_cm4.h ****     __OM  uint16_t   u16;                /*!< Offset: 0x000 ( /W)  ITM Stimulus Port 16-bit */
 802:Drivers/CMSIS/Include/core_cm4.h ****     __OM  uint32_t   u32;                /*!< Offset: 0x000 ( /W)  ITM Stimulus Port 32-bit */
 803:Drivers/CMSIS/Include/core_cm4.h ****   }  PORT [32U];                         /*!< Offset: 0x000 ( /W)  ITM Stimulus Port Registers */
 804:Drivers/CMSIS/Include/core_cm4.h ****         uint32_t RESERVED0[864U];
 805:Drivers/CMSIS/Include/core_cm4.h ****   __IOM uint32_t TER;                    /*!< Offset: 0xE00 (R/W)  ITM Trace Enable Register */
 806:Drivers/CMSIS/Include/core_cm4.h ****         uint32_t RESERVED1[15U];
 807:Drivers/CMSIS/Include/core_cm4.h ****   __IOM uint32_t TPR;                    /*!< Offset: 0xE40 (R/W)  ITM Trace Privilege Register */
 808:Drivers/CMSIS/Include/core_cm4.h ****         uint32_t RESERVED2[15U];
 809:Drivers/CMSIS/Include/core_cm4.h ****   __IOM uint32_t TCR;                    /*!< Offset: 0xE80 (R/W)  ITM Trace Control Register */
 810:Drivers/CMSIS/Include/core_cm4.h ****         uint32_t RESERVED3[29U];
 811:Drivers/CMSIS/Include/core_cm4.h ****   __OM  uint32_t IWR;                    /*!< Offset: 0xEF8 ( /W)  ITM Integration Write Register *
 812:Drivers/CMSIS/Include/core_cm4.h ****   __IM  uint32_t IRR;                    /*!< Offset: 0xEFC (R/ )  ITM Integration Read Register */
 813:Drivers/CMSIS/Include/core_cm4.h ****   __IOM uint32_t IMCR;                   /*!< Offset: 0xF00 (R/W)  ITM Integration Mode Control Reg
 814:Drivers/CMSIS/Include/core_cm4.h ****         uint32_t RESERVED4[43U];
 815:Drivers/CMSIS/Include/core_cm4.h ****   __OM  uint32_t LAR;                    /*!< Offset: 0xFB0 ( /W)  ITM Lock Access Register */
 816:Drivers/CMSIS/Include/core_cm4.h ****   __IM  uint32_t LSR;                    /*!< Offset: 0xFB4 (R/ )  ITM Lock Status Register */
 817:Drivers/CMSIS/Include/core_cm4.h ****         uint32_t RESERVED5[6U];
 818:Drivers/CMSIS/Include/core_cm4.h ****   __IM  uint32_t PID4;                   /*!< Offset: 0xFD0 (R/ )  ITM Peripheral Identification Re
 819:Drivers/CMSIS/Include/core_cm4.h ****   __IM  uint32_t PID5;                   /*!< Offset: 0xFD4 (R/ )  ITM Peripheral Identification Re
 820:Drivers/CMSIS/Include/core_cm4.h ****   __IM  uint32_t PID6;                   /*!< Offset: 0xFD8 (R/ )  ITM Peripheral Identification Re
 821:Drivers/CMSIS/Include/core_cm4.h ****   __IM  uint32_t PID7;                   /*!< Offset: 0xFDC (R/ )  ITM Peripheral Identification Re
 822:Drivers/CMSIS/Include/core_cm4.h ****   __IM  uint32_t PID0;                   /*!< Offset: 0xFE0 (R/ )  ITM Peripheral Identification Re
 823:Drivers/CMSIS/Include/core_cm4.h ****   __IM  uint32_t PID1;                   /*!< Offset: 0xFE4 (R/ )  ITM Peripheral Identification Re
 824:Drivers/CMSIS/Include/core_cm4.h ****   __IM  uint32_t PID2;                   /*!< Offset: 0xFE8 (R/ )  ITM Peripheral Identification Re
 825:Drivers/CMSIS/Include/core_cm4.h ****   __IM  uint32_t PID3;                   /*!< Offset: 0xFEC (R/ )  ITM Peripheral Identification Re
 826:Drivers/CMSIS/Include/core_cm4.h ****   __IM  uint32_t CID0;                   /*!< Offset: 0xFF0 (R/ )  ITM Component  Identification Re
 827:Drivers/CMSIS/Include/core_cm4.h ****   __IM  uint32_t CID1;                   /*!< Offset: 0xFF4 (R/ )  ITM Component  Identification Re
 828:Drivers/CMSIS/Include/core_cm4.h ****   __IM  uint32_t CID2;                   /*!< Offset: 0xFF8 (R/ )  ITM Component  Identification Re
ARM GAS  /var/folders/_1/sgnj6dm57r56n1x62bwb5w5h0000gn/T//cckoM3Hr.s 			page 44


 829:Drivers/CMSIS/Include/core_cm4.h ****   __IM  uint32_t CID3;                   /*!< Offset: 0xFFC (R/ )  ITM Component  Identification Re
 830:Drivers/CMSIS/Include/core_cm4.h **** } ITM_Type;
 831:Drivers/CMSIS/Include/core_cm4.h **** 
 832:Drivers/CMSIS/Include/core_cm4.h **** /* ITM Trace Privilege Register Definitions */
 833:Drivers/CMSIS/Include/core_cm4.h **** #define ITM_TPR_PRIVMASK_Pos                0U                                            /*!< ITM 
 834:Drivers/CMSIS/Include/core_cm4.h **** #define ITM_TPR_PRIVMASK_Msk               (0xFUL /*<< ITM_TPR_PRIVMASK_Pos*/)            /*!< ITM 
 835:Drivers/CMSIS/Include/core_cm4.h **** 
 836:Drivers/CMSIS/Include/core_cm4.h **** /* ITM Trace Control Register Definitions */
 837:Drivers/CMSIS/Include/core_cm4.h **** #define ITM_TCR_BUSY_Pos                   23U                                            /*!< ITM 
 838:Drivers/CMSIS/Include/core_cm4.h **** #define ITM_TCR_BUSY_Msk                   (1UL << ITM_TCR_BUSY_Pos)                      /*!< ITM 
 839:Drivers/CMSIS/Include/core_cm4.h **** 
 840:Drivers/CMSIS/Include/core_cm4.h **** #define ITM_TCR_TraceBusID_Pos             16U                                            /*!< ITM 
 841:Drivers/CMSIS/Include/core_cm4.h **** #define ITM_TCR_TraceBusID_Msk             (0x7FUL << ITM_TCR_TraceBusID_Pos)             /*!< ITM 
 842:Drivers/CMSIS/Include/core_cm4.h **** 
 843:Drivers/CMSIS/Include/core_cm4.h **** #define ITM_TCR_GTSFREQ_Pos                10U                                            /*!< ITM 
 844:Drivers/CMSIS/Include/core_cm4.h **** #define ITM_TCR_GTSFREQ_Msk                (3UL << ITM_TCR_GTSFREQ_Pos)                   /*!< ITM 
 845:Drivers/CMSIS/Include/core_cm4.h **** 
 846:Drivers/CMSIS/Include/core_cm4.h **** #define ITM_TCR_TSPrescale_Pos              8U                                            /*!< ITM 
 847:Drivers/CMSIS/Include/core_cm4.h **** #define ITM_TCR_TSPrescale_Msk             (3UL << ITM_TCR_TSPrescale_Pos)                /*!< ITM 
 848:Drivers/CMSIS/Include/core_cm4.h **** 
 849:Drivers/CMSIS/Include/core_cm4.h **** #define ITM_TCR_SWOENA_Pos                  4U                                            /*!< ITM 
 850:Drivers/CMSIS/Include/core_cm4.h **** #define ITM_TCR_SWOENA_Msk                 (1UL << ITM_TCR_SWOENA_Pos)                    /*!< ITM 
 851:Drivers/CMSIS/Include/core_cm4.h **** 
 852:Drivers/CMSIS/Include/core_cm4.h **** #define ITM_TCR_DWTENA_Pos                  3U                                            /*!< ITM 
 853:Drivers/CMSIS/Include/core_cm4.h **** #define ITM_TCR_DWTENA_Msk                 (1UL << ITM_TCR_DWTENA_Pos)                    /*!< ITM 
 854:Drivers/CMSIS/Include/core_cm4.h **** 
 855:Drivers/CMSIS/Include/core_cm4.h **** #define ITM_TCR_SYNCENA_Pos                 2U                                            /*!< ITM 
 856:Drivers/CMSIS/Include/core_cm4.h **** #define ITM_TCR_SYNCENA_Msk                (1UL << ITM_TCR_SYNCENA_Pos)                   /*!< ITM 
 857:Drivers/CMSIS/Include/core_cm4.h **** 
 858:Drivers/CMSIS/Include/core_cm4.h **** #define ITM_TCR_TSENA_Pos                   1U                                            /*!< ITM 
 859:Drivers/CMSIS/Include/core_cm4.h **** #define ITM_TCR_TSENA_Msk                  (1UL << ITM_TCR_TSENA_Pos)                     /*!< ITM 
 860:Drivers/CMSIS/Include/core_cm4.h **** 
 861:Drivers/CMSIS/Include/core_cm4.h **** #define ITM_TCR_ITMENA_Pos                  0U                                            /*!< ITM 
 862:Drivers/CMSIS/Include/core_cm4.h **** #define ITM_TCR_ITMENA_Msk                 (1UL /*<< ITM_TCR_ITMENA_Pos*/)                /*!< ITM 
 863:Drivers/CMSIS/Include/core_cm4.h **** 
 864:Drivers/CMSIS/Include/core_cm4.h **** /* ITM Integration Write Register Definitions */
 865:Drivers/CMSIS/Include/core_cm4.h **** #define ITM_IWR_ATVALIDM_Pos                0U                                            /*!< ITM 
 866:Drivers/CMSIS/Include/core_cm4.h **** #define ITM_IWR_ATVALIDM_Msk               (1UL /*<< ITM_IWR_ATVALIDM_Pos*/)              /*!< ITM 
 867:Drivers/CMSIS/Include/core_cm4.h **** 
 868:Drivers/CMSIS/Include/core_cm4.h **** /* ITM Integration Read Register Definitions */
 869:Drivers/CMSIS/Include/core_cm4.h **** #define ITM_IRR_ATREADYM_Pos                0U                                            /*!< ITM 
 870:Drivers/CMSIS/Include/core_cm4.h **** #define ITM_IRR_ATREADYM_Msk               (1UL /*<< ITM_IRR_ATREADYM_Pos*/)              /*!< ITM 
 871:Drivers/CMSIS/Include/core_cm4.h **** 
 872:Drivers/CMSIS/Include/core_cm4.h **** /* ITM Integration Mode Control Register Definitions */
 873:Drivers/CMSIS/Include/core_cm4.h **** #define ITM_IMCR_INTEGRATION_Pos            0U                                            /*!< ITM 
 874:Drivers/CMSIS/Include/core_cm4.h **** #define ITM_IMCR_INTEGRATION_Msk           (1UL /*<< ITM_IMCR_INTEGRATION_Pos*/)          /*!< ITM 
 875:Drivers/CMSIS/Include/core_cm4.h **** 
 876:Drivers/CMSIS/Include/core_cm4.h **** /* ITM Lock Status Register Definitions */
 877:Drivers/CMSIS/Include/core_cm4.h **** #define ITM_LSR_ByteAcc_Pos                 2U                                            /*!< ITM 
 878:Drivers/CMSIS/Include/core_cm4.h **** #define ITM_LSR_ByteAcc_Msk                (1UL << ITM_LSR_ByteAcc_Pos)                   /*!< ITM 
 879:Drivers/CMSIS/Include/core_cm4.h **** 
 880:Drivers/CMSIS/Include/core_cm4.h **** #define ITM_LSR_Access_Pos                  1U                                            /*!< ITM 
 881:Drivers/CMSIS/Include/core_cm4.h **** #define ITM_LSR_Access_Msk                 (1UL << ITM_LSR_Access_Pos)                    /*!< ITM 
 882:Drivers/CMSIS/Include/core_cm4.h **** 
 883:Drivers/CMSIS/Include/core_cm4.h **** #define ITM_LSR_Present_Pos                 0U                                            /*!< ITM 
 884:Drivers/CMSIS/Include/core_cm4.h **** #define ITM_LSR_Present_Msk                (1UL /*<< ITM_LSR_Present_Pos*/)               /*!< ITM 
 885:Drivers/CMSIS/Include/core_cm4.h **** 
ARM GAS  /var/folders/_1/sgnj6dm57r56n1x62bwb5w5h0000gn/T//cckoM3Hr.s 			page 45


 886:Drivers/CMSIS/Include/core_cm4.h **** /*@}*/ /* end of group CMSIS_ITM */
 887:Drivers/CMSIS/Include/core_cm4.h **** 
 888:Drivers/CMSIS/Include/core_cm4.h **** 
 889:Drivers/CMSIS/Include/core_cm4.h **** /**
 890:Drivers/CMSIS/Include/core_cm4.h ****   \ingroup  CMSIS_core_register
 891:Drivers/CMSIS/Include/core_cm4.h ****   \defgroup CMSIS_DWT     Data Watchpoint and Trace (DWT)
 892:Drivers/CMSIS/Include/core_cm4.h ****   \brief    Type definitions for the Data Watchpoint and Trace (DWT)
 893:Drivers/CMSIS/Include/core_cm4.h ****   @{
 894:Drivers/CMSIS/Include/core_cm4.h ****  */
 895:Drivers/CMSIS/Include/core_cm4.h **** 
 896:Drivers/CMSIS/Include/core_cm4.h **** /**
 897:Drivers/CMSIS/Include/core_cm4.h ****   \brief  Structure type to access the Data Watchpoint and Trace Register (DWT).
 898:Drivers/CMSIS/Include/core_cm4.h ****  */
 899:Drivers/CMSIS/Include/core_cm4.h **** typedef struct
 900:Drivers/CMSIS/Include/core_cm4.h **** {
 901:Drivers/CMSIS/Include/core_cm4.h ****   __IOM uint32_t CTRL;                   /*!< Offset: 0x000 (R/W)  Control Register */
 902:Drivers/CMSIS/Include/core_cm4.h ****   __IOM uint32_t CYCCNT;                 /*!< Offset: 0x004 (R/W)  Cycle Count Register */
 903:Drivers/CMSIS/Include/core_cm4.h ****   __IOM uint32_t CPICNT;                 /*!< Offset: 0x008 (R/W)  CPI Count Register */
 904:Drivers/CMSIS/Include/core_cm4.h ****   __IOM uint32_t EXCCNT;                 /*!< Offset: 0x00C (R/W)  Exception Overhead Count Registe
 905:Drivers/CMSIS/Include/core_cm4.h ****   __IOM uint32_t SLEEPCNT;               /*!< Offset: 0x010 (R/W)  Sleep Count Register */
 906:Drivers/CMSIS/Include/core_cm4.h ****   __IOM uint32_t LSUCNT;                 /*!< Offset: 0x014 (R/W)  LSU Count Register */
 907:Drivers/CMSIS/Include/core_cm4.h ****   __IOM uint32_t FOLDCNT;                /*!< Offset: 0x018 (R/W)  Folded-instruction Count Registe
 908:Drivers/CMSIS/Include/core_cm4.h ****   __IM  uint32_t PCSR;                   /*!< Offset: 0x01C (R/ )  Program Counter Sample Register 
 909:Drivers/CMSIS/Include/core_cm4.h ****   __IOM uint32_t COMP0;                  /*!< Offset: 0x020 (R/W)  Comparator Register 0 */
 910:Drivers/CMSIS/Include/core_cm4.h ****   __IOM uint32_t MASK0;                  /*!< Offset: 0x024 (R/W)  Mask Register 0 */
 911:Drivers/CMSIS/Include/core_cm4.h ****   __IOM uint32_t FUNCTION0;              /*!< Offset: 0x028 (R/W)  Function Register 0 */
 912:Drivers/CMSIS/Include/core_cm4.h ****         uint32_t RESERVED0[1U];
 913:Drivers/CMSIS/Include/core_cm4.h ****   __IOM uint32_t COMP1;                  /*!< Offset: 0x030 (R/W)  Comparator Register 1 */
 914:Drivers/CMSIS/Include/core_cm4.h ****   __IOM uint32_t MASK1;                  /*!< Offset: 0x034 (R/W)  Mask Register 1 */
 915:Drivers/CMSIS/Include/core_cm4.h ****   __IOM uint32_t FUNCTION1;              /*!< Offset: 0x038 (R/W)  Function Register 1 */
 916:Drivers/CMSIS/Include/core_cm4.h ****         uint32_t RESERVED1[1U];
 917:Drivers/CMSIS/Include/core_cm4.h ****   __IOM uint32_t COMP2;                  /*!< Offset: 0x040 (R/W)  Comparator Register 2 */
 918:Drivers/CMSIS/Include/core_cm4.h ****   __IOM uint32_t MASK2;                  /*!< Offset: 0x044 (R/W)  Mask Register 2 */
 919:Drivers/CMSIS/Include/core_cm4.h ****   __IOM uint32_t FUNCTION2;              /*!< Offset: 0x048 (R/W)  Function Register 2 */
 920:Drivers/CMSIS/Include/core_cm4.h ****         uint32_t RESERVED2[1U];
 921:Drivers/CMSIS/Include/core_cm4.h ****   __IOM uint32_t COMP3;                  /*!< Offset: 0x050 (R/W)  Comparator Register 3 */
 922:Drivers/CMSIS/Include/core_cm4.h ****   __IOM uint32_t MASK3;                  /*!< Offset: 0x054 (R/W)  Mask Register 3 */
 923:Drivers/CMSIS/Include/core_cm4.h ****   __IOM uint32_t FUNCTION3;              /*!< Offset: 0x058 (R/W)  Function Register 3 */
 924:Drivers/CMSIS/Include/core_cm4.h **** } DWT_Type;
 925:Drivers/CMSIS/Include/core_cm4.h **** 
 926:Drivers/CMSIS/Include/core_cm4.h **** /* DWT Control Register Definitions */
 927:Drivers/CMSIS/Include/core_cm4.h **** #define DWT_CTRL_NUMCOMP_Pos               28U                                         /*!< DWT CTR
 928:Drivers/CMSIS/Include/core_cm4.h **** #define DWT_CTRL_NUMCOMP_Msk               (0xFUL << DWT_CTRL_NUMCOMP_Pos)             /*!< DWT CTR
 929:Drivers/CMSIS/Include/core_cm4.h **** 
 930:Drivers/CMSIS/Include/core_cm4.h **** #define DWT_CTRL_NOTRCPKT_Pos              27U                                         /*!< DWT CTR
 931:Drivers/CMSIS/Include/core_cm4.h **** #define DWT_CTRL_NOTRCPKT_Msk              (0x1UL << DWT_CTRL_NOTRCPKT_Pos)            /*!< DWT CTR
 932:Drivers/CMSIS/Include/core_cm4.h **** 
 933:Drivers/CMSIS/Include/core_cm4.h **** #define DWT_CTRL_NOEXTTRIG_Pos             26U                                         /*!< DWT CTR
 934:Drivers/CMSIS/Include/core_cm4.h **** #define DWT_CTRL_NOEXTTRIG_Msk             (0x1UL << DWT_CTRL_NOEXTTRIG_Pos)           /*!< DWT CTR
 935:Drivers/CMSIS/Include/core_cm4.h **** 
 936:Drivers/CMSIS/Include/core_cm4.h **** #define DWT_CTRL_NOCYCCNT_Pos              25U                                         /*!< DWT CTR
 937:Drivers/CMSIS/Include/core_cm4.h **** #define DWT_CTRL_NOCYCCNT_Msk              (0x1UL << DWT_CTRL_NOCYCCNT_Pos)            /*!< DWT CTR
 938:Drivers/CMSIS/Include/core_cm4.h **** 
 939:Drivers/CMSIS/Include/core_cm4.h **** #define DWT_CTRL_NOPRFCNT_Pos              24U                                         /*!< DWT CTR
 940:Drivers/CMSIS/Include/core_cm4.h **** #define DWT_CTRL_NOPRFCNT_Msk              (0x1UL << DWT_CTRL_NOPRFCNT_Pos)            /*!< DWT CTR
 941:Drivers/CMSIS/Include/core_cm4.h **** 
 942:Drivers/CMSIS/Include/core_cm4.h **** #define DWT_CTRL_CYCEVTENA_Pos             22U                                         /*!< DWT CTR
ARM GAS  /var/folders/_1/sgnj6dm57r56n1x62bwb5w5h0000gn/T//cckoM3Hr.s 			page 46


 943:Drivers/CMSIS/Include/core_cm4.h **** #define DWT_CTRL_CYCEVTENA_Msk             (0x1UL << DWT_CTRL_CYCEVTENA_Pos)           /*!< DWT CTR
 944:Drivers/CMSIS/Include/core_cm4.h **** 
 945:Drivers/CMSIS/Include/core_cm4.h **** #define DWT_CTRL_FOLDEVTENA_Pos            21U                                         /*!< DWT CTR
 946:Drivers/CMSIS/Include/core_cm4.h **** #define DWT_CTRL_FOLDEVTENA_Msk            (0x1UL << DWT_CTRL_FOLDEVTENA_Pos)          /*!< DWT CTR
 947:Drivers/CMSIS/Include/core_cm4.h **** 
 948:Drivers/CMSIS/Include/core_cm4.h **** #define DWT_CTRL_LSUEVTENA_Pos             20U                                         /*!< DWT CTR
 949:Drivers/CMSIS/Include/core_cm4.h **** #define DWT_CTRL_LSUEVTENA_Msk             (0x1UL << DWT_CTRL_LSUEVTENA_Pos)           /*!< DWT CTR
 950:Drivers/CMSIS/Include/core_cm4.h **** 
 951:Drivers/CMSIS/Include/core_cm4.h **** #define DWT_CTRL_SLEEPEVTENA_Pos           19U                                         /*!< DWT CTR
 952:Drivers/CMSIS/Include/core_cm4.h **** #define DWT_CTRL_SLEEPEVTENA_Msk           (0x1UL << DWT_CTRL_SLEEPEVTENA_Pos)         /*!< DWT CTR
 953:Drivers/CMSIS/Include/core_cm4.h **** 
 954:Drivers/CMSIS/Include/core_cm4.h **** #define DWT_CTRL_EXCEVTENA_Pos             18U                                         /*!< DWT CTR
 955:Drivers/CMSIS/Include/core_cm4.h **** #define DWT_CTRL_EXCEVTENA_Msk             (0x1UL << DWT_CTRL_EXCEVTENA_Pos)           /*!< DWT CTR
 956:Drivers/CMSIS/Include/core_cm4.h **** 
 957:Drivers/CMSIS/Include/core_cm4.h **** #define DWT_CTRL_CPIEVTENA_Pos             17U                                         /*!< DWT CTR
 958:Drivers/CMSIS/Include/core_cm4.h **** #define DWT_CTRL_CPIEVTENA_Msk             (0x1UL << DWT_CTRL_CPIEVTENA_Pos)           /*!< DWT CTR
 959:Drivers/CMSIS/Include/core_cm4.h **** 
 960:Drivers/CMSIS/Include/core_cm4.h **** #define DWT_CTRL_EXCTRCENA_Pos             16U                                         /*!< DWT CTR
 961:Drivers/CMSIS/Include/core_cm4.h **** #define DWT_CTRL_EXCTRCENA_Msk             (0x1UL << DWT_CTRL_EXCTRCENA_Pos)           /*!< DWT CTR
 962:Drivers/CMSIS/Include/core_cm4.h **** 
 963:Drivers/CMSIS/Include/core_cm4.h **** #define DWT_CTRL_PCSAMPLENA_Pos            12U                                         /*!< DWT CTR
 964:Drivers/CMSIS/Include/core_cm4.h **** #define DWT_CTRL_PCSAMPLENA_Msk            (0x1UL << DWT_CTRL_PCSAMPLENA_Pos)          /*!< DWT CTR
 965:Drivers/CMSIS/Include/core_cm4.h **** 
 966:Drivers/CMSIS/Include/core_cm4.h **** #define DWT_CTRL_SYNCTAP_Pos               10U                                         /*!< DWT CTR
 967:Drivers/CMSIS/Include/core_cm4.h **** #define DWT_CTRL_SYNCTAP_Msk               (0x3UL << DWT_CTRL_SYNCTAP_Pos)             /*!< DWT CTR
 968:Drivers/CMSIS/Include/core_cm4.h **** 
 969:Drivers/CMSIS/Include/core_cm4.h **** #define DWT_CTRL_CYCTAP_Pos                 9U                                         /*!< DWT CTR
 970:Drivers/CMSIS/Include/core_cm4.h **** #define DWT_CTRL_CYCTAP_Msk                (0x1UL << DWT_CTRL_CYCTAP_Pos)              /*!< DWT CTR
 971:Drivers/CMSIS/Include/core_cm4.h **** 
 972:Drivers/CMSIS/Include/core_cm4.h **** #define DWT_CTRL_POSTINIT_Pos               5U                                         /*!< DWT CTR
 973:Drivers/CMSIS/Include/core_cm4.h **** #define DWT_CTRL_POSTINIT_Msk              (0xFUL << DWT_CTRL_POSTINIT_Pos)            /*!< DWT CTR
 974:Drivers/CMSIS/Include/core_cm4.h **** 
 975:Drivers/CMSIS/Include/core_cm4.h **** #define DWT_CTRL_POSTPRESET_Pos             1U                                         /*!< DWT CTR
 976:Drivers/CMSIS/Include/core_cm4.h **** #define DWT_CTRL_POSTPRESET_Msk            (0xFUL << DWT_CTRL_POSTPRESET_Pos)          /*!< DWT CTR
 977:Drivers/CMSIS/Include/core_cm4.h **** 
 978:Drivers/CMSIS/Include/core_cm4.h **** #define DWT_CTRL_CYCCNTENA_Pos              0U                                         /*!< DWT CTR
 979:Drivers/CMSIS/Include/core_cm4.h **** #define DWT_CTRL_CYCCNTENA_Msk             (0x1UL /*<< DWT_CTRL_CYCCNTENA_Pos*/)       /*!< DWT CTR
 980:Drivers/CMSIS/Include/core_cm4.h **** 
 981:Drivers/CMSIS/Include/core_cm4.h **** /* DWT CPI Count Register Definitions */
 982:Drivers/CMSIS/Include/core_cm4.h **** #define DWT_CPICNT_CPICNT_Pos               0U                                         /*!< DWT CPI
 983:Drivers/CMSIS/Include/core_cm4.h **** #define DWT_CPICNT_CPICNT_Msk              (0xFFUL /*<< DWT_CPICNT_CPICNT_Pos*/)       /*!< DWT CPI
 984:Drivers/CMSIS/Include/core_cm4.h **** 
 985:Drivers/CMSIS/Include/core_cm4.h **** /* DWT Exception Overhead Count Register Definitions */
 986:Drivers/CMSIS/Include/core_cm4.h **** #define DWT_EXCCNT_EXCCNT_Pos               0U                                         /*!< DWT EXC
 987:Drivers/CMSIS/Include/core_cm4.h **** #define DWT_EXCCNT_EXCCNT_Msk              (0xFFUL /*<< DWT_EXCCNT_EXCCNT_Pos*/)       /*!< DWT EXC
 988:Drivers/CMSIS/Include/core_cm4.h **** 
 989:Drivers/CMSIS/Include/core_cm4.h **** /* DWT Sleep Count Register Definitions */
 990:Drivers/CMSIS/Include/core_cm4.h **** #define DWT_SLEEPCNT_SLEEPCNT_Pos           0U                                         /*!< DWT SLE
 991:Drivers/CMSIS/Include/core_cm4.h **** #define DWT_SLEEPCNT_SLEEPCNT_Msk          (0xFFUL /*<< DWT_SLEEPCNT_SLEEPCNT_Pos*/)   /*!< DWT SLE
 992:Drivers/CMSIS/Include/core_cm4.h **** 
 993:Drivers/CMSIS/Include/core_cm4.h **** /* DWT LSU Count Register Definitions */
 994:Drivers/CMSIS/Include/core_cm4.h **** #define DWT_LSUCNT_LSUCNT_Pos               0U                                         /*!< DWT LSU
 995:Drivers/CMSIS/Include/core_cm4.h **** #define DWT_LSUCNT_LSUCNT_Msk              (0xFFUL /*<< DWT_LSUCNT_LSUCNT_Pos*/)       /*!< DWT LSU
 996:Drivers/CMSIS/Include/core_cm4.h **** 
 997:Drivers/CMSIS/Include/core_cm4.h **** /* DWT Folded-instruction Count Register Definitions */
 998:Drivers/CMSIS/Include/core_cm4.h **** #define DWT_FOLDCNT_FOLDCNT_Pos             0U                                         /*!< DWT FOL
 999:Drivers/CMSIS/Include/core_cm4.h **** #define DWT_FOLDCNT_FOLDCNT_Msk            (0xFFUL /*<< DWT_FOLDCNT_FOLDCNT_Pos*/)     /*!< DWT FOL
ARM GAS  /var/folders/_1/sgnj6dm57r56n1x62bwb5w5h0000gn/T//cckoM3Hr.s 			page 47


1000:Drivers/CMSIS/Include/core_cm4.h **** 
1001:Drivers/CMSIS/Include/core_cm4.h **** /* DWT Comparator Mask Register Definitions */
1002:Drivers/CMSIS/Include/core_cm4.h **** #define DWT_MASK_MASK_Pos                   0U                                         /*!< DWT MAS
1003:Drivers/CMSIS/Include/core_cm4.h **** #define DWT_MASK_MASK_Msk                  (0x1FUL /*<< DWT_MASK_MASK_Pos*/)           /*!< DWT MAS
1004:Drivers/CMSIS/Include/core_cm4.h **** 
1005:Drivers/CMSIS/Include/core_cm4.h **** /* DWT Comparator Function Register Definitions */
1006:Drivers/CMSIS/Include/core_cm4.h **** #define DWT_FUNCTION_MATCHED_Pos           24U                                         /*!< DWT FUN
1007:Drivers/CMSIS/Include/core_cm4.h **** #define DWT_FUNCTION_MATCHED_Msk           (0x1UL << DWT_FUNCTION_MATCHED_Pos)         /*!< DWT FUN
1008:Drivers/CMSIS/Include/core_cm4.h **** 
1009:Drivers/CMSIS/Include/core_cm4.h **** #define DWT_FUNCTION_DATAVADDR1_Pos        16U                                         /*!< DWT FUN
1010:Drivers/CMSIS/Include/core_cm4.h **** #define DWT_FUNCTION_DATAVADDR1_Msk        (0xFUL << DWT_FUNCTION_DATAVADDR1_Pos)      /*!< DWT FUN
1011:Drivers/CMSIS/Include/core_cm4.h **** 
1012:Drivers/CMSIS/Include/core_cm4.h **** #define DWT_FUNCTION_DATAVADDR0_Pos        12U                                         /*!< DWT FUN
1013:Drivers/CMSIS/Include/core_cm4.h **** #define DWT_FUNCTION_DATAVADDR0_Msk        (0xFUL << DWT_FUNCTION_DATAVADDR0_Pos)      /*!< DWT FUN
1014:Drivers/CMSIS/Include/core_cm4.h **** 
1015:Drivers/CMSIS/Include/core_cm4.h **** #define DWT_FUNCTION_DATAVSIZE_Pos         10U                                         /*!< DWT FUN
1016:Drivers/CMSIS/Include/core_cm4.h **** #define DWT_FUNCTION_DATAVSIZE_Msk         (0x3UL << DWT_FUNCTION_DATAVSIZE_Pos)       /*!< DWT FUN
1017:Drivers/CMSIS/Include/core_cm4.h **** 
1018:Drivers/CMSIS/Include/core_cm4.h **** #define DWT_FUNCTION_LNK1ENA_Pos            9U                                         /*!< DWT FUN
1019:Drivers/CMSIS/Include/core_cm4.h **** #define DWT_FUNCTION_LNK1ENA_Msk           (0x1UL << DWT_FUNCTION_LNK1ENA_Pos)         /*!< DWT FUN
1020:Drivers/CMSIS/Include/core_cm4.h **** 
1021:Drivers/CMSIS/Include/core_cm4.h **** #define DWT_FUNCTION_DATAVMATCH_Pos         8U                                         /*!< DWT FUN
1022:Drivers/CMSIS/Include/core_cm4.h **** #define DWT_FUNCTION_DATAVMATCH_Msk        (0x1UL << DWT_FUNCTION_DATAVMATCH_Pos)      /*!< DWT FUN
1023:Drivers/CMSIS/Include/core_cm4.h **** 
1024:Drivers/CMSIS/Include/core_cm4.h **** #define DWT_FUNCTION_CYCMATCH_Pos           7U                                         /*!< DWT FUN
1025:Drivers/CMSIS/Include/core_cm4.h **** #define DWT_FUNCTION_CYCMATCH_Msk          (0x1UL << DWT_FUNCTION_CYCMATCH_Pos)        /*!< DWT FUN
1026:Drivers/CMSIS/Include/core_cm4.h **** 
1027:Drivers/CMSIS/Include/core_cm4.h **** #define DWT_FUNCTION_EMITRANGE_Pos          5U                                         /*!< DWT FUN
1028:Drivers/CMSIS/Include/core_cm4.h **** #define DWT_FUNCTION_EMITRANGE_Msk         (0x1UL << DWT_FUNCTION_EMITRANGE_Pos)       /*!< DWT FUN
1029:Drivers/CMSIS/Include/core_cm4.h **** 
1030:Drivers/CMSIS/Include/core_cm4.h **** #define DWT_FUNCTION_FUNCTION_Pos           0U                                         /*!< DWT FUN
1031:Drivers/CMSIS/Include/core_cm4.h **** #define DWT_FUNCTION_FUNCTION_Msk          (0xFUL /*<< DWT_FUNCTION_FUNCTION_Pos*/)    /*!< DWT FUN
1032:Drivers/CMSIS/Include/core_cm4.h **** 
1033:Drivers/CMSIS/Include/core_cm4.h **** /*@}*/ /* end of group CMSIS_DWT */
1034:Drivers/CMSIS/Include/core_cm4.h **** 
1035:Drivers/CMSIS/Include/core_cm4.h **** 
1036:Drivers/CMSIS/Include/core_cm4.h **** /**
1037:Drivers/CMSIS/Include/core_cm4.h ****   \ingroup  CMSIS_core_register
1038:Drivers/CMSIS/Include/core_cm4.h ****   \defgroup CMSIS_TPI     Trace Port Interface (TPI)
1039:Drivers/CMSIS/Include/core_cm4.h ****   \brief    Type definitions for the Trace Port Interface (TPI)
1040:Drivers/CMSIS/Include/core_cm4.h ****   @{
1041:Drivers/CMSIS/Include/core_cm4.h ****  */
1042:Drivers/CMSIS/Include/core_cm4.h **** 
1043:Drivers/CMSIS/Include/core_cm4.h **** /**
1044:Drivers/CMSIS/Include/core_cm4.h ****   \brief  Structure type to access the Trace Port Interface Register (TPI).
1045:Drivers/CMSIS/Include/core_cm4.h ****  */
1046:Drivers/CMSIS/Include/core_cm4.h **** typedef struct
1047:Drivers/CMSIS/Include/core_cm4.h **** {
1048:Drivers/CMSIS/Include/core_cm4.h ****   __IOM uint32_t SSPSR;                  /*!< Offset: 0x000 (R/ )  Supported Parallel Port Size Reg
1049:Drivers/CMSIS/Include/core_cm4.h ****   __IOM uint32_t CSPSR;                  /*!< Offset: 0x004 (R/W)  Current Parallel Port Size Regis
1050:Drivers/CMSIS/Include/core_cm4.h ****         uint32_t RESERVED0[2U];
1051:Drivers/CMSIS/Include/core_cm4.h ****   __IOM uint32_t ACPR;                   /*!< Offset: 0x010 (R/W)  Asynchronous Clock Prescaler Reg
1052:Drivers/CMSIS/Include/core_cm4.h ****         uint32_t RESERVED1[55U];
1053:Drivers/CMSIS/Include/core_cm4.h ****   __IOM uint32_t SPPR;                   /*!< Offset: 0x0F0 (R/W)  Selected Pin Protocol Register *
1054:Drivers/CMSIS/Include/core_cm4.h ****         uint32_t RESERVED2[131U];
1055:Drivers/CMSIS/Include/core_cm4.h ****   __IM  uint32_t FFSR;                   /*!< Offset: 0x300 (R/ )  Formatter and Flush Status Regis
1056:Drivers/CMSIS/Include/core_cm4.h ****   __IOM uint32_t FFCR;                   /*!< Offset: 0x304 (R/W)  Formatter and Flush Control Regi
ARM GAS  /var/folders/_1/sgnj6dm57r56n1x62bwb5w5h0000gn/T//cckoM3Hr.s 			page 48


1057:Drivers/CMSIS/Include/core_cm4.h ****   __IM  uint32_t FSCR;                   /*!< Offset: 0x308 (R/ )  Formatter Synchronization Counte
1058:Drivers/CMSIS/Include/core_cm4.h ****         uint32_t RESERVED3[759U];
1059:Drivers/CMSIS/Include/core_cm4.h ****   __IM  uint32_t TRIGGER;                /*!< Offset: 0xEE8 (R/ )  TRIGGER */
1060:Drivers/CMSIS/Include/core_cm4.h ****   __IM  uint32_t FIFO0;                  /*!< Offset: 0xEEC (R/ )  Integration ETM Data */
1061:Drivers/CMSIS/Include/core_cm4.h ****   __IM  uint32_t ITATBCTR2;              /*!< Offset: 0xEF0 (R/ )  ITATBCTR2 */
1062:Drivers/CMSIS/Include/core_cm4.h ****         uint32_t RESERVED4[1U];
1063:Drivers/CMSIS/Include/core_cm4.h ****   __IM  uint32_t ITATBCTR0;              /*!< Offset: 0xEF8 (R/ )  ITATBCTR0 */
1064:Drivers/CMSIS/Include/core_cm4.h ****   __IM  uint32_t FIFO1;                  /*!< Offset: 0xEFC (R/ )  Integration ITM Data */
1065:Drivers/CMSIS/Include/core_cm4.h ****   __IOM uint32_t ITCTRL;                 /*!< Offset: 0xF00 (R/W)  Integration Mode Control */
1066:Drivers/CMSIS/Include/core_cm4.h ****         uint32_t RESERVED5[39U];
1067:Drivers/CMSIS/Include/core_cm4.h ****   __IOM uint32_t CLAIMSET;               /*!< Offset: 0xFA0 (R/W)  Claim tag set */
1068:Drivers/CMSIS/Include/core_cm4.h ****   __IOM uint32_t CLAIMCLR;               /*!< Offset: 0xFA4 (R/W)  Claim tag clear */
1069:Drivers/CMSIS/Include/core_cm4.h ****         uint32_t RESERVED7[8U];
1070:Drivers/CMSIS/Include/core_cm4.h ****   __IM  uint32_t DEVID;                  /*!< Offset: 0xFC8 (R/ )  TPIU_DEVID */
1071:Drivers/CMSIS/Include/core_cm4.h ****   __IM  uint32_t DEVTYPE;                /*!< Offset: 0xFCC (R/ )  TPIU_DEVTYPE */
1072:Drivers/CMSIS/Include/core_cm4.h **** } TPI_Type;
1073:Drivers/CMSIS/Include/core_cm4.h **** 
1074:Drivers/CMSIS/Include/core_cm4.h **** /* TPI Asynchronous Clock Prescaler Register Definitions */
1075:Drivers/CMSIS/Include/core_cm4.h **** #define TPI_ACPR_PRESCALER_Pos              0U                                         /*!< TPI ACP
1076:Drivers/CMSIS/Include/core_cm4.h **** #define TPI_ACPR_PRESCALER_Msk             (0x1FFFUL /*<< TPI_ACPR_PRESCALER_Pos*/)    /*!< TPI ACP
1077:Drivers/CMSIS/Include/core_cm4.h **** 
1078:Drivers/CMSIS/Include/core_cm4.h **** /* TPI Selected Pin Protocol Register Definitions */
1079:Drivers/CMSIS/Include/core_cm4.h **** #define TPI_SPPR_TXMODE_Pos                 0U                                         /*!< TPI SPP
1080:Drivers/CMSIS/Include/core_cm4.h **** #define TPI_SPPR_TXMODE_Msk                (0x3UL /*<< TPI_SPPR_TXMODE_Pos*/)          /*!< TPI SPP
1081:Drivers/CMSIS/Include/core_cm4.h **** 
1082:Drivers/CMSIS/Include/core_cm4.h **** /* TPI Formatter and Flush Status Register Definitions */
1083:Drivers/CMSIS/Include/core_cm4.h **** #define TPI_FFSR_FtNonStop_Pos              3U                                         /*!< TPI FFS
1084:Drivers/CMSIS/Include/core_cm4.h **** #define TPI_FFSR_FtNonStop_Msk             (0x1UL << TPI_FFSR_FtNonStop_Pos)           /*!< TPI FFS
1085:Drivers/CMSIS/Include/core_cm4.h **** 
1086:Drivers/CMSIS/Include/core_cm4.h **** #define TPI_FFSR_TCPresent_Pos              2U                                         /*!< TPI FFS
1087:Drivers/CMSIS/Include/core_cm4.h **** #define TPI_FFSR_TCPresent_Msk             (0x1UL << TPI_FFSR_TCPresent_Pos)           /*!< TPI FFS
1088:Drivers/CMSIS/Include/core_cm4.h **** 
1089:Drivers/CMSIS/Include/core_cm4.h **** #define TPI_FFSR_FtStopped_Pos              1U                                         /*!< TPI FFS
1090:Drivers/CMSIS/Include/core_cm4.h **** #define TPI_FFSR_FtStopped_Msk             (0x1UL << TPI_FFSR_FtStopped_Pos)           /*!< TPI FFS
1091:Drivers/CMSIS/Include/core_cm4.h **** 
1092:Drivers/CMSIS/Include/core_cm4.h **** #define TPI_FFSR_FlInProg_Pos               0U                                         /*!< TPI FFS
1093:Drivers/CMSIS/Include/core_cm4.h **** #define TPI_FFSR_FlInProg_Msk              (0x1UL /*<< TPI_FFSR_FlInProg_Pos*/)        /*!< TPI FFS
1094:Drivers/CMSIS/Include/core_cm4.h **** 
1095:Drivers/CMSIS/Include/core_cm4.h **** /* TPI Formatter and Flush Control Register Definitions */
1096:Drivers/CMSIS/Include/core_cm4.h **** #define TPI_FFCR_TrigIn_Pos                 8U                                         /*!< TPI FFC
1097:Drivers/CMSIS/Include/core_cm4.h **** #define TPI_FFCR_TrigIn_Msk                (0x1UL << TPI_FFCR_TrigIn_Pos)              /*!< TPI FFC
1098:Drivers/CMSIS/Include/core_cm4.h **** 
1099:Drivers/CMSIS/Include/core_cm4.h **** #define TPI_FFCR_EnFCont_Pos                1U                                         /*!< TPI FFC
1100:Drivers/CMSIS/Include/core_cm4.h **** #define TPI_FFCR_EnFCont_Msk               (0x1UL << TPI_FFCR_EnFCont_Pos)             /*!< TPI FFC
1101:Drivers/CMSIS/Include/core_cm4.h **** 
1102:Drivers/CMSIS/Include/core_cm4.h **** /* TPI TRIGGER Register Definitions */
1103:Drivers/CMSIS/Include/core_cm4.h **** #define TPI_TRIGGER_TRIGGER_Pos             0U                                         /*!< TPI TRI
1104:Drivers/CMSIS/Include/core_cm4.h **** #define TPI_TRIGGER_TRIGGER_Msk            (0x1UL /*<< TPI_TRIGGER_TRIGGER_Pos*/)      /*!< TPI TRI
1105:Drivers/CMSIS/Include/core_cm4.h **** 
1106:Drivers/CMSIS/Include/core_cm4.h **** /* TPI Integration ETM Data Register Definitions (FIFO0) */
1107:Drivers/CMSIS/Include/core_cm4.h **** #define TPI_FIFO0_ITM_ATVALID_Pos          29U                                         /*!< TPI FIF
1108:Drivers/CMSIS/Include/core_cm4.h **** #define TPI_FIFO0_ITM_ATVALID_Msk          (0x3UL << TPI_FIFO0_ITM_ATVALID_Pos)        /*!< TPI FIF
1109:Drivers/CMSIS/Include/core_cm4.h **** 
1110:Drivers/CMSIS/Include/core_cm4.h **** #define TPI_FIFO0_ITM_bytecount_Pos        27U                                         /*!< TPI FIF
1111:Drivers/CMSIS/Include/core_cm4.h **** #define TPI_FIFO0_ITM_bytecount_Msk        (0x3UL << TPI_FIFO0_ITM_bytecount_Pos)      /*!< TPI FIF
1112:Drivers/CMSIS/Include/core_cm4.h **** 
1113:Drivers/CMSIS/Include/core_cm4.h **** #define TPI_FIFO0_ETM_ATVALID_Pos          26U                                         /*!< TPI FIF
ARM GAS  /var/folders/_1/sgnj6dm57r56n1x62bwb5w5h0000gn/T//cckoM3Hr.s 			page 49


1114:Drivers/CMSIS/Include/core_cm4.h **** #define TPI_FIFO0_ETM_ATVALID_Msk          (0x3UL << TPI_FIFO0_ETM_ATVALID_Pos)        /*!< TPI FIF
1115:Drivers/CMSIS/Include/core_cm4.h **** 
1116:Drivers/CMSIS/Include/core_cm4.h **** #define TPI_FIFO0_ETM_bytecount_Pos        24U                                         /*!< TPI FIF
1117:Drivers/CMSIS/Include/core_cm4.h **** #define TPI_FIFO0_ETM_bytecount_Msk        (0x3UL << TPI_FIFO0_ETM_bytecount_Pos)      /*!< TPI FIF
1118:Drivers/CMSIS/Include/core_cm4.h **** 
1119:Drivers/CMSIS/Include/core_cm4.h **** #define TPI_FIFO0_ETM2_Pos                 16U                                         /*!< TPI FIF
1120:Drivers/CMSIS/Include/core_cm4.h **** #define TPI_FIFO0_ETM2_Msk                 (0xFFUL << TPI_FIFO0_ETM2_Pos)              /*!< TPI FIF
1121:Drivers/CMSIS/Include/core_cm4.h **** 
1122:Drivers/CMSIS/Include/core_cm4.h **** #define TPI_FIFO0_ETM1_Pos                  8U                                         /*!< TPI FIF
1123:Drivers/CMSIS/Include/core_cm4.h **** #define TPI_FIFO0_ETM1_Msk                 (0xFFUL << TPI_FIFO0_ETM1_Pos)              /*!< TPI FIF
1124:Drivers/CMSIS/Include/core_cm4.h **** 
1125:Drivers/CMSIS/Include/core_cm4.h **** #define TPI_FIFO0_ETM0_Pos                  0U                                         /*!< TPI FIF
1126:Drivers/CMSIS/Include/core_cm4.h **** #define TPI_FIFO0_ETM0_Msk                 (0xFFUL /*<< TPI_FIFO0_ETM0_Pos*/)          /*!< TPI FIF
1127:Drivers/CMSIS/Include/core_cm4.h **** 
1128:Drivers/CMSIS/Include/core_cm4.h **** /* TPI ITATBCTR2 Register Definitions */
1129:Drivers/CMSIS/Include/core_cm4.h **** #define TPI_ITATBCTR2_ATREADY_Pos           0U                                         /*!< TPI ITA
1130:Drivers/CMSIS/Include/core_cm4.h **** #define TPI_ITATBCTR2_ATREADY_Msk          (0x1UL /*<< TPI_ITATBCTR2_ATREADY_Pos*/)    /*!< TPI ITA
1131:Drivers/CMSIS/Include/core_cm4.h **** 
1132:Drivers/CMSIS/Include/core_cm4.h **** /* TPI Integration ITM Data Register Definitions (FIFO1) */
1133:Drivers/CMSIS/Include/core_cm4.h **** #define TPI_FIFO1_ITM_ATVALID_Pos          29U                                         /*!< TPI FIF
1134:Drivers/CMSIS/Include/core_cm4.h **** #define TPI_FIFO1_ITM_ATVALID_Msk          (0x3UL << TPI_FIFO1_ITM_ATVALID_Pos)        /*!< TPI FIF
1135:Drivers/CMSIS/Include/core_cm4.h **** 
1136:Drivers/CMSIS/Include/core_cm4.h **** #define TPI_FIFO1_ITM_bytecount_Pos        27U                                         /*!< TPI FIF
