ARM GAS  /var/folders/_1/sgnj6dm57r56n1x62bwb5w5h0000gn/T//ccJumQMK.s 			page 1


   1              		.cpu cortex-m4
   2              		.eabi_attribute 27, 1
   3              		.eabi_attribute 28, 1
   4              		.eabi_attribute 20, 1
   5              		.eabi_attribute 21, 1
   6              		.eabi_attribute 23, 3
   7              		.eabi_attribute 24, 1
   8              		.eabi_attribute 25, 1
   9              		.eabi_attribute 26, 1
  10              		.eabi_attribute 30, 1
  11              		.eabi_attribute 34, 1
  12              		.eabi_attribute 18, 4
  13              		.file	"usbd_desc.c"
  14              		.text
  15              	.Ltext0:
  16              		.cfi_sections	.debug_frame
  17              		.section	.text.USBD_FS_DeviceDescriptor,"ax",%progbits
  18              		.align	1
  19              		.global	USBD_FS_DeviceDescriptor
  20              		.arch armv7e-m
  21              		.syntax unified
  22              		.thumb
  23              		.thumb_func
  24              		.fpu fpv4-sp-d16
  26              	USBD_FS_DeviceDescriptor:
  27              	.LVL0:
  28              	.LFB126:
  29              		.file 1 "Src/usbd_desc.c"
   1:Src/usbd_desc.c **** /* USER CODE BEGIN Header */
   2:Src/usbd_desc.c **** /**
   3:Src/usbd_desc.c ****   ******************************************************************************
   4:Src/usbd_desc.c ****   * @file           : usbd_desc.c
   5:Src/usbd_desc.c ****   * @version        : v2.0_Cube
   6:Src/usbd_desc.c ****   * @brief          : This file implements the USB device descriptors.
   7:Src/usbd_desc.c ****   ******************************************************************************
   8:Src/usbd_desc.c ****   * @attention
   9:Src/usbd_desc.c ****   *
  10:Src/usbd_desc.c ****   * <h2><center>&copy; Copyright (c) 2019 STMicroelectronics.
  11:Src/usbd_desc.c ****   * All rights reserved.</center></h2>
  12:Src/usbd_desc.c ****   *
  13:Src/usbd_desc.c ****   * This software component is licensed by ST under Ultimate Liberty license
  14:Src/usbd_desc.c ****   * SLA0044, the "License"; You may not use this file except in compliance with
  15:Src/usbd_desc.c ****   * the License. You may obtain a copy of the License at:
  16:Src/usbd_desc.c ****   *                             www.st.com/SLA0044
  17:Src/usbd_desc.c ****   *
  18:Src/usbd_desc.c ****   ******************************************************************************
  19:Src/usbd_desc.c ****   */
  20:Src/usbd_desc.c **** /* USER CODE END Header */
  21:Src/usbd_desc.c **** 
  22:Src/usbd_desc.c **** /* Includes ------------------------------------------------------------------*/
  23:Src/usbd_desc.c **** #include "usbd_core.h"
  24:Src/usbd_desc.c **** #include "usbd_desc.h"
  25:Src/usbd_desc.c **** #include "usbd_conf.h"
  26:Src/usbd_desc.c **** 
  27:Src/usbd_desc.c **** /* USER CODE BEGIN INCLUDE */
  28:Src/usbd_desc.c **** 
  29:Src/usbd_desc.c **** /* USER CODE END INCLUDE */
ARM GAS  /var/folders/_1/sgnj6dm57r56n1x62bwb5w5h0000gn/T//ccJumQMK.s 			page 2


  30:Src/usbd_desc.c **** 
  31:Src/usbd_desc.c **** /* Private typedef -----------------------------------------------------------*/
  32:Src/usbd_desc.c **** /* Private define ------------------------------------------------------------*/
  33:Src/usbd_desc.c **** /* Private macro -------------------------------------------------------------*/
  34:Src/usbd_desc.c **** 
  35:Src/usbd_desc.c **** /* USER CODE BEGIN PV */
  36:Src/usbd_desc.c **** /* Private variables ---------------------------------------------------------*/
  37:Src/usbd_desc.c **** 
  38:Src/usbd_desc.c **** /* USER CODE END PV */
  39:Src/usbd_desc.c **** 
  40:Src/usbd_desc.c **** /** @addtogroup STM32_USB_OTG_DEVICE_LIBRARY
  41:Src/usbd_desc.c ****   * @{
  42:Src/usbd_desc.c ****   */
  43:Src/usbd_desc.c **** 
  44:Src/usbd_desc.c **** /** @addtogroup USBD_DESC
  45:Src/usbd_desc.c ****   * @{
  46:Src/usbd_desc.c ****   */
  47:Src/usbd_desc.c **** 
  48:Src/usbd_desc.c **** /** @defgroup USBD_DESC_Private_TypesDefinitions USBD_DESC_Private_TypesDefinitions
  49:Src/usbd_desc.c ****   * @brief Private types.
  50:Src/usbd_desc.c ****   * @{
  51:Src/usbd_desc.c ****   */
  52:Src/usbd_desc.c **** 
  53:Src/usbd_desc.c **** /* USER CODE BEGIN PRIVATE_TYPES */
  54:Src/usbd_desc.c **** 
  55:Src/usbd_desc.c **** /* USER CODE END PRIVATE_TYPES */
  56:Src/usbd_desc.c **** 
  57:Src/usbd_desc.c **** /**
  58:Src/usbd_desc.c ****   * @}
  59:Src/usbd_desc.c ****   */
  60:Src/usbd_desc.c **** 
  61:Src/usbd_desc.c **** /** @defgroup USBD_DESC_Private_Defines USBD_DESC_Private_Defines
  62:Src/usbd_desc.c ****   * @brief Private defines.
  63:Src/usbd_desc.c ****   * @{
  64:Src/usbd_desc.c ****   */
  65:Src/usbd_desc.c **** 
  66:Src/usbd_desc.c **** #define USBD_VID     1155
  67:Src/usbd_desc.c **** #define USBD_LANGID_STRING     1033
  68:Src/usbd_desc.c **** #define USBD_MANUFACTURER_STRING     "STMicroelectronics"
  69:Src/usbd_desc.c **** #define USBD_PID_FS     57105
  70:Src/usbd_desc.c **** #define USBD_PRODUCT_STRING_FS     "STM32 DownLoad Firmware Update"
  71:Src/usbd_desc.c **** #define USBD_CONFIGURATION_STRING_FS     "DFU Config"
  72:Src/usbd_desc.c **** #define USBD_INTERFACE_STRING_FS     "DFU Interface"
  73:Src/usbd_desc.c **** 
  74:Src/usbd_desc.c **** /* USER CODE BEGIN PRIVATE_DEFINES */
  75:Src/usbd_desc.c **** 
  76:Src/usbd_desc.c **** /* USER CODE END PRIVATE_DEFINES */
  77:Src/usbd_desc.c **** 
  78:Src/usbd_desc.c **** /**
  79:Src/usbd_desc.c ****   * @}
  80:Src/usbd_desc.c ****   */
  81:Src/usbd_desc.c **** 
  82:Src/usbd_desc.c **** /* USER CODE BEGIN 0 */
  83:Src/usbd_desc.c **** 
  84:Src/usbd_desc.c **** /* USER CODE END 0 */
  85:Src/usbd_desc.c **** 
  86:Src/usbd_desc.c **** /** @defgroup USBD_DESC_Private_Macros USBD_DESC_Private_Macros
ARM GAS  /var/folders/_1/sgnj6dm57r56n1x62bwb5w5h0000gn/T//ccJumQMK.s 			page 3


  87:Src/usbd_desc.c ****   * @brief Private macros.
  88:Src/usbd_desc.c ****   * @{
  89:Src/usbd_desc.c ****   */
  90:Src/usbd_desc.c **** 
  91:Src/usbd_desc.c **** /* USER CODE BEGIN PRIVATE_MACRO */
  92:Src/usbd_desc.c **** 
  93:Src/usbd_desc.c **** /* USER CODE END PRIVATE_MACRO */
  94:Src/usbd_desc.c **** 
  95:Src/usbd_desc.c **** /**
  96:Src/usbd_desc.c ****   * @}
  97:Src/usbd_desc.c ****   */
  98:Src/usbd_desc.c ****   
  99:Src/usbd_desc.c **** /** @defgroup USBD_DESC_Private_FunctionPrototypes USBD_DESC_Private_FunctionPrototypes
 100:Src/usbd_desc.c ****   * @brief Private functions declaration.
 101:Src/usbd_desc.c ****   * @{
 102:Src/usbd_desc.c ****   */
 103:Src/usbd_desc.c ****   
 104:Src/usbd_desc.c **** static void Get_SerialNum(void);
 105:Src/usbd_desc.c **** static void IntToUnicode(uint32_t value, uint8_t * pbuf, uint8_t len);
 106:Src/usbd_desc.c ****   
 107:Src/usbd_desc.c **** /**
 108:Src/usbd_desc.c ****   * @}
 109:Src/usbd_desc.c ****   */  
 110:Src/usbd_desc.c ****   
 111:Src/usbd_desc.c **** 
 112:Src/usbd_desc.c **** /** @defgroup USBD_DESC_Private_FunctionPrototypes USBD_DESC_Private_FunctionPrototypes
 113:Src/usbd_desc.c ****   * @brief Private functions declaration for FS.
 114:Src/usbd_desc.c ****   * @{
 115:Src/usbd_desc.c ****   */
 116:Src/usbd_desc.c **** 
 117:Src/usbd_desc.c **** uint8_t * USBD_FS_DeviceDescriptor(USBD_SpeedTypeDef speed, uint16_t *length);
 118:Src/usbd_desc.c **** uint8_t * USBD_FS_LangIDStrDescriptor(USBD_SpeedTypeDef speed, uint16_t *length);
 119:Src/usbd_desc.c **** uint8_t * USBD_FS_ManufacturerStrDescriptor(USBD_SpeedTypeDef speed, uint16_t *length);
 120:Src/usbd_desc.c **** uint8_t * USBD_FS_ProductStrDescriptor(USBD_SpeedTypeDef speed, uint16_t *length);
 121:Src/usbd_desc.c **** uint8_t * USBD_FS_SerialStrDescriptor(USBD_SpeedTypeDef speed, uint16_t *length);
 122:Src/usbd_desc.c **** uint8_t * USBD_FS_ConfigStrDescriptor(USBD_SpeedTypeDef speed, uint16_t *length);
 123:Src/usbd_desc.c **** uint8_t * USBD_FS_InterfaceStrDescriptor(USBD_SpeedTypeDef speed, uint16_t *length);
 124:Src/usbd_desc.c **** 
 125:Src/usbd_desc.c **** #ifdef USBD_SUPPORT_USER_STRING_DESC
 126:Src/usbd_desc.c **** uint8_t * USBD_FS_USRStringDesc(USBD_SpeedTypeDef speed, uint8_t idx, uint16_t *length);
 127:Src/usbd_desc.c **** #endif /* USBD_SUPPORT_USER_STRING_DESC */
 128:Src/usbd_desc.c **** 
 129:Src/usbd_desc.c **** /**
 130:Src/usbd_desc.c ****   * @}
 131:Src/usbd_desc.c ****   */
 132:Src/usbd_desc.c **** 
 133:Src/usbd_desc.c **** /** @defgroup USBD_DESC_Private_Variables USBD_DESC_Private_Variables
 134:Src/usbd_desc.c ****   * @brief Private variables.
 135:Src/usbd_desc.c ****   * @{
 136:Src/usbd_desc.c ****   */
 137:Src/usbd_desc.c **** 
 138:Src/usbd_desc.c **** USBD_DescriptorsTypeDef FS_Desc =
 139:Src/usbd_desc.c **** {
 140:Src/usbd_desc.c ****   USBD_FS_DeviceDescriptor
 141:Src/usbd_desc.c **** , USBD_FS_LangIDStrDescriptor
 142:Src/usbd_desc.c **** , USBD_FS_ManufacturerStrDescriptor
 143:Src/usbd_desc.c **** , USBD_FS_ProductStrDescriptor
ARM GAS  /var/folders/_1/sgnj6dm57r56n1x62bwb5w5h0000gn/T//ccJumQMK.s 			page 4


 144:Src/usbd_desc.c **** , USBD_FS_SerialStrDescriptor
 145:Src/usbd_desc.c **** , USBD_FS_ConfigStrDescriptor
 146:Src/usbd_desc.c **** , USBD_FS_InterfaceStrDescriptor
 147:Src/usbd_desc.c **** };
 148:Src/usbd_desc.c **** 
 149:Src/usbd_desc.c **** #if defined ( __ICCARM__ ) /* IAR Compiler */
 150:Src/usbd_desc.c ****   #pragma data_alignment=4
 151:Src/usbd_desc.c **** #endif /* defined ( __ICCARM__ ) */
 152:Src/usbd_desc.c **** /** USB standard device descriptor. */
 153:Src/usbd_desc.c **** __ALIGN_BEGIN uint8_t USBD_FS_DeviceDesc[USB_LEN_DEV_DESC] __ALIGN_END =
 154:Src/usbd_desc.c **** {
 155:Src/usbd_desc.c ****   0x12,                       /*bLength */
 156:Src/usbd_desc.c ****   USB_DESC_TYPE_DEVICE,       /*bDescriptorType*/
 157:Src/usbd_desc.c ****   0x00,                       /*bcdUSB */
 158:Src/usbd_desc.c ****   0x02,
 159:Src/usbd_desc.c ****   0x00,                       /*bDeviceClass*/
 160:Src/usbd_desc.c ****   0x00,                       /*bDeviceSubClass*/
 161:Src/usbd_desc.c ****   0x00,                       /*bDeviceProtocol*/
 162:Src/usbd_desc.c ****   USB_MAX_EP0_SIZE,           /*bMaxPacketSize*/
 163:Src/usbd_desc.c ****   LOBYTE(USBD_VID),           /*idVendor*/
 164:Src/usbd_desc.c ****   HIBYTE(USBD_VID),           /*idVendor*/
 165:Src/usbd_desc.c ****   LOBYTE(USBD_PID_FS),        /*idProduct*/
 166:Src/usbd_desc.c ****   HIBYTE(USBD_PID_FS),        /*idProduct*/
 167:Src/usbd_desc.c ****   0x00,                       /*bcdDevice rel. 2.00*/
 168:Src/usbd_desc.c ****   0x02,
 169:Src/usbd_desc.c ****   USBD_IDX_MFC_STR,           /*Index of manufacturer  string*/
 170:Src/usbd_desc.c ****   USBD_IDX_PRODUCT_STR,       /*Index of product string*/
 171:Src/usbd_desc.c ****   USBD_IDX_SERIAL_STR,        /*Index of serial number string*/
 172:Src/usbd_desc.c ****   USBD_MAX_NUM_CONFIGURATION  /*bNumConfigurations*/
 173:Src/usbd_desc.c **** };
 174:Src/usbd_desc.c **** 
 175:Src/usbd_desc.c **** /* USB_DeviceDescriptor */
 176:Src/usbd_desc.c **** 
 177:Src/usbd_desc.c **** /**
 178:Src/usbd_desc.c ****   * @}
 179:Src/usbd_desc.c ****   */
 180:Src/usbd_desc.c **** 
 181:Src/usbd_desc.c **** /** @defgroup USBD_DESC_Private_Variables USBD_DESC_Private_Variables
 182:Src/usbd_desc.c ****   * @brief Private variables.
 183:Src/usbd_desc.c ****   * @{
 184:Src/usbd_desc.c ****   */
 185:Src/usbd_desc.c **** 
 186:Src/usbd_desc.c **** #if defined ( __ICCARM__ ) /* IAR Compiler */
 187:Src/usbd_desc.c ****   #pragma data_alignment=4
 188:Src/usbd_desc.c **** #endif /* defined ( __ICCARM__ ) */
 189:Src/usbd_desc.c **** 
 190:Src/usbd_desc.c **** /** USB lang indentifier descriptor. */
 191:Src/usbd_desc.c **** __ALIGN_BEGIN uint8_t USBD_LangIDDesc[USB_LEN_LANGID_STR_DESC] __ALIGN_END =
 192:Src/usbd_desc.c **** {
 193:Src/usbd_desc.c ****      USB_LEN_LANGID_STR_DESC,
 194:Src/usbd_desc.c ****      USB_DESC_TYPE_STRING,
 195:Src/usbd_desc.c ****      LOBYTE(USBD_LANGID_STRING),
 196:Src/usbd_desc.c ****      HIBYTE(USBD_LANGID_STRING)
 197:Src/usbd_desc.c **** };
 198:Src/usbd_desc.c **** 
 199:Src/usbd_desc.c **** #if defined ( __ICCARM__ ) /* IAR Compiler */
 200:Src/usbd_desc.c ****   #pragma data_alignment=4
ARM GAS  /var/folders/_1/sgnj6dm57r56n1x62bwb5w5h0000gn/T//ccJumQMK.s 			page 5


 201:Src/usbd_desc.c **** #endif /* defined ( __ICCARM__ ) */
 202:Src/usbd_desc.c **** /* Internal string descriptor. */
 203:Src/usbd_desc.c **** __ALIGN_BEGIN uint8_t USBD_StrDesc[USBD_MAX_STR_DESC_SIZ] __ALIGN_END;
 204:Src/usbd_desc.c **** 
 205:Src/usbd_desc.c **** #if defined ( __ICCARM__ ) /*!< IAR Compiler */
 206:Src/usbd_desc.c ****   #pragma data_alignment=4   
 207:Src/usbd_desc.c **** #endif
 208:Src/usbd_desc.c **** __ALIGN_BEGIN uint8_t USBD_StringSerial[USB_SIZ_STRING_SERIAL] __ALIGN_END = {
 209:Src/usbd_desc.c ****   USB_SIZ_STRING_SERIAL,
 210:Src/usbd_desc.c ****   USB_DESC_TYPE_STRING,
 211:Src/usbd_desc.c **** };
 212:Src/usbd_desc.c **** 
 213:Src/usbd_desc.c **** /**
 214:Src/usbd_desc.c ****   * @}
 215:Src/usbd_desc.c ****   */
 216:Src/usbd_desc.c **** 
 217:Src/usbd_desc.c **** /** @defgroup USBD_DESC_Private_Functions USBD_DESC_Private_Functions
 218:Src/usbd_desc.c ****   * @brief Private functions.
 219:Src/usbd_desc.c ****   * @{
 220:Src/usbd_desc.c ****   */
 221:Src/usbd_desc.c **** 
 222:Src/usbd_desc.c **** /**
 223:Src/usbd_desc.c ****   * @brief  Return the device descriptor
 224:Src/usbd_desc.c ****   * @param  speed : Current device speed
 225:Src/usbd_desc.c ****   * @param  length : Pointer to data length variable
 226:Src/usbd_desc.c ****   * @retval Pointer to descriptor buffer
 227:Src/usbd_desc.c ****   */
 228:Src/usbd_desc.c **** uint8_t * USBD_FS_DeviceDescriptor(USBD_SpeedTypeDef speed, uint16_t *length)
 229:Src/usbd_desc.c **** {
  30              		.loc 1 229 1 view -0
  31              		.cfi_startproc
  32              		@ args = 0, pretend = 0, frame = 0
  33              		@ frame_needed = 0, uses_anonymous_args = 0
  34              		@ link register save eliminated.
 230:Src/usbd_desc.c ****   UNUSED(speed);
  35              		.loc 1 230 3 view .LVU1
 231:Src/usbd_desc.c ****   *length = sizeof(USBD_FS_DeviceDesc);
  36              		.loc 1 231 3 view .LVU2
  37              		.loc 1 231 11 is_stmt 0 view .LVU3
  38 0000 1223     		movs	r3, #18
  39 0002 0B80     		strh	r3, [r1]	@ movhi
 232:Src/usbd_desc.c ****   return USBD_FS_DeviceDesc;
  40              		.loc 1 232 3 is_stmt 1 view .LVU4
 233:Src/usbd_desc.c **** }
  41              		.loc 1 233 1 is_stmt 0 view .LVU5
  42 0004 0048     		ldr	r0, .L2
  43              	.LVL1:
  44              		.loc 1 233 1 view .LVU6
  45 0006 7047     		bx	lr
  46              	.L3:
  47              		.align	2
  48              	.L2:
  49 0008 00000000 		.word	.LANCHOR0
  50              		.cfi_endproc
  51              	.LFE126:
  53              		.section	.text.USBD_FS_LangIDStrDescriptor,"ax",%progbits
  54              		.align	1
ARM GAS  /var/folders/_1/sgnj6dm57r56n1x62bwb5w5h0000gn/T//ccJumQMK.s 			page 6


  55              		.global	USBD_FS_LangIDStrDescriptor
  56              		.syntax unified
  57              		.thumb
  58              		.thumb_func
  59              		.fpu fpv4-sp-d16
  61              	USBD_FS_LangIDStrDescriptor:
  62              	.LVL2:
  63              	.LFB127:
 234:Src/usbd_desc.c **** 
 235:Src/usbd_desc.c **** /**
 236:Src/usbd_desc.c ****   * @brief  Return the LangID string descriptor
 237:Src/usbd_desc.c ****   * @param  speed : Current device speed
 238:Src/usbd_desc.c ****   * @param  length : Pointer to data length variable
 239:Src/usbd_desc.c ****   * @retval Pointer to descriptor buffer
 240:Src/usbd_desc.c ****   */
 241:Src/usbd_desc.c **** uint8_t * USBD_FS_LangIDStrDescriptor(USBD_SpeedTypeDef speed, uint16_t *length)
 242:Src/usbd_desc.c **** {
  64              		.loc 1 242 1 is_stmt 1 view -0
  65              		.cfi_startproc
  66              		@ args = 0, pretend = 0, frame = 0
  67              		@ frame_needed = 0, uses_anonymous_args = 0
  68              		@ link register save eliminated.
 243:Src/usbd_desc.c ****   UNUSED(speed);
  69              		.loc 1 243 3 view .LVU8
 244:Src/usbd_desc.c ****   *length = sizeof(USBD_LangIDDesc);
  70              		.loc 1 244 3 view .LVU9
  71              		.loc 1 244 11 is_stmt 0 view .LVU10
  72 0000 0423     		movs	r3, #4
  73 0002 0B80     		strh	r3, [r1]	@ movhi
 245:Src/usbd_desc.c ****   return USBD_LangIDDesc;
  74              		.loc 1 245 3 is_stmt 1 view .LVU11
 246:Src/usbd_desc.c **** }
  75              		.loc 1 246 1 is_stmt 0 view .LVU12
  76 0004 0048     		ldr	r0, .L5
  77              	.LVL3:
  78              		.loc 1 246 1 view .LVU13
  79 0006 7047     		bx	lr
  80              	.L6:
  81              		.align	2
  82              	.L5:
  83 0008 00000000 		.word	.LANCHOR1
  84              		.cfi_endproc
  85              	.LFE127:
  87              		.section	.text.IntToUnicode,"ax",%progbits
  88              		.align	1
  89              		.syntax unified
  90              		.thumb
  91              		.thumb_func
  92              		.fpu fpv4-sp-d16
  94              	IntToUnicode:
  95              	.LVL4:
  96              	.LFB134:
 247:Src/usbd_desc.c **** 
 248:Src/usbd_desc.c **** /**
 249:Src/usbd_desc.c ****   * @brief  Return the product string descriptor
 250:Src/usbd_desc.c ****   * @param  speed : Current device speed
 251:Src/usbd_desc.c ****   * @param  length : Pointer to data length variable
ARM GAS  /var/folders/_1/sgnj6dm57r56n1x62bwb5w5h0000gn/T//ccJumQMK.s 			page 7


 252:Src/usbd_desc.c ****   * @retval Pointer to descriptor buffer
 253:Src/usbd_desc.c ****   */
 254:Src/usbd_desc.c **** uint8_t * USBD_FS_ProductStrDescriptor(USBD_SpeedTypeDef speed, uint16_t *length)
 255:Src/usbd_desc.c **** {
 256:Src/usbd_desc.c ****   if(speed == 0)
 257:Src/usbd_desc.c ****   {
 258:Src/usbd_desc.c ****     USBD_GetString((uint8_t *)USBD_PRODUCT_STRING_FS, USBD_StrDesc, length);
 259:Src/usbd_desc.c ****   }
 260:Src/usbd_desc.c ****   else
 261:Src/usbd_desc.c ****   {
 262:Src/usbd_desc.c ****     USBD_GetString((uint8_t *)USBD_PRODUCT_STRING_FS, USBD_StrDesc, length);
 263:Src/usbd_desc.c ****   }
 264:Src/usbd_desc.c ****   return USBD_StrDesc;
 265:Src/usbd_desc.c **** }
 266:Src/usbd_desc.c **** 
 267:Src/usbd_desc.c **** /**
 268:Src/usbd_desc.c ****   * @brief  Return the manufacturer string descriptor
 269:Src/usbd_desc.c ****   * @param  speed : Current device speed
 270:Src/usbd_desc.c ****   * @param  length : Pointer to data length variable
 271:Src/usbd_desc.c ****   * @retval Pointer to descriptor buffer
 272:Src/usbd_desc.c ****   */
 273:Src/usbd_desc.c **** uint8_t * USBD_FS_ManufacturerStrDescriptor(USBD_SpeedTypeDef speed, uint16_t *length)
 274:Src/usbd_desc.c **** {
 275:Src/usbd_desc.c ****   UNUSED(speed);
 276:Src/usbd_desc.c ****   USBD_GetString((uint8_t *)USBD_MANUFACTURER_STRING, USBD_StrDesc, length);
 277:Src/usbd_desc.c ****   return USBD_StrDesc;
 278:Src/usbd_desc.c **** }
 279:Src/usbd_desc.c **** 
 280:Src/usbd_desc.c **** /**
 281:Src/usbd_desc.c ****   * @brief  Return the serial number string descriptor
 282:Src/usbd_desc.c ****   * @param  speed : Current device speed
 283:Src/usbd_desc.c ****   * @param  length : Pointer to data length variable
 284:Src/usbd_desc.c ****   * @retval Pointer to descriptor buffer
 285:Src/usbd_desc.c ****   */
 286:Src/usbd_desc.c **** uint8_t * USBD_FS_SerialStrDescriptor(USBD_SpeedTypeDef speed, uint16_t *length)
 287:Src/usbd_desc.c **** {
 288:Src/usbd_desc.c ****   UNUSED(speed);
 289:Src/usbd_desc.c ****   *length = USB_SIZ_STRING_SERIAL;
 290:Src/usbd_desc.c **** 
 291:Src/usbd_desc.c ****   /* Update the serial number string descriptor with the data from the unique
 292:Src/usbd_desc.c ****    * ID */
 293:Src/usbd_desc.c ****   Get_SerialNum();
 294:Src/usbd_desc.c **** 
 295:Src/usbd_desc.c ****   return (uint8_t *) USBD_StringSerial;
 296:Src/usbd_desc.c **** }
 297:Src/usbd_desc.c **** 
 298:Src/usbd_desc.c **** /**
 299:Src/usbd_desc.c ****   * @brief  Return the configuration string descriptor
 300:Src/usbd_desc.c ****   * @param  speed : Current device speed
 301:Src/usbd_desc.c ****   * @param  length : Pointer to data length variable
 302:Src/usbd_desc.c ****   * @retval Pointer to descriptor buffer
 303:Src/usbd_desc.c ****   */
 304:Src/usbd_desc.c **** uint8_t * USBD_FS_ConfigStrDescriptor(USBD_SpeedTypeDef speed, uint16_t *length)
 305:Src/usbd_desc.c **** {
 306:Src/usbd_desc.c ****   if(speed == USBD_SPEED_HIGH)
 307:Src/usbd_desc.c ****   {
 308:Src/usbd_desc.c ****     USBD_GetString((uint8_t *)USBD_CONFIGURATION_STRING_FS, USBD_StrDesc, length);
ARM GAS  /var/folders/_1/sgnj6dm57r56n1x62bwb5w5h0000gn/T//ccJumQMK.s 			page 8


 309:Src/usbd_desc.c ****   }
 310:Src/usbd_desc.c ****   else
 311:Src/usbd_desc.c ****   {
 312:Src/usbd_desc.c ****     USBD_GetString((uint8_t *)USBD_CONFIGURATION_STRING_FS, USBD_StrDesc, length);
 313:Src/usbd_desc.c ****   }
 314:Src/usbd_desc.c ****   return USBD_StrDesc;
 315:Src/usbd_desc.c **** }
 316:Src/usbd_desc.c **** 
 317:Src/usbd_desc.c **** /**
 318:Src/usbd_desc.c ****   * @brief  Return the interface string descriptor
 319:Src/usbd_desc.c ****   * @param  speed : Current device speed
 320:Src/usbd_desc.c ****   * @param  length : Pointer to data length variable
 321:Src/usbd_desc.c ****   * @retval Pointer to descriptor buffer
 322:Src/usbd_desc.c ****   */
 323:Src/usbd_desc.c **** uint8_t * USBD_FS_InterfaceStrDescriptor(USBD_SpeedTypeDef speed, uint16_t *length)
 324:Src/usbd_desc.c **** {
 325:Src/usbd_desc.c ****   if(speed == 0)
 326:Src/usbd_desc.c ****   {
 327:Src/usbd_desc.c ****     USBD_GetString((uint8_t *)USBD_INTERFACE_STRING_FS, USBD_StrDesc, length);
 328:Src/usbd_desc.c ****   }
 329:Src/usbd_desc.c ****   else
 330:Src/usbd_desc.c ****   {
 331:Src/usbd_desc.c ****     USBD_GetString((uint8_t *)USBD_INTERFACE_STRING_FS, USBD_StrDesc, length);
 332:Src/usbd_desc.c ****   }
 333:Src/usbd_desc.c ****   return USBD_StrDesc;
 334:Src/usbd_desc.c **** }
 335:Src/usbd_desc.c **** 
 336:Src/usbd_desc.c **** /**
 337:Src/usbd_desc.c ****   * @brief  Create the serial number string descriptor 
 338:Src/usbd_desc.c ****   * @param  None 
 339:Src/usbd_desc.c ****   * @retval None
 340:Src/usbd_desc.c ****   */
 341:Src/usbd_desc.c **** static void Get_SerialNum(void)
 342:Src/usbd_desc.c **** {
 343:Src/usbd_desc.c ****   uint32_t deviceserial0, deviceserial1, deviceserial2;
 344:Src/usbd_desc.c **** 
 345:Src/usbd_desc.c ****   deviceserial0 = *(uint32_t *) DEVICE_ID1;
 346:Src/usbd_desc.c ****   deviceserial1 = *(uint32_t *) DEVICE_ID2;
 347:Src/usbd_desc.c ****   deviceserial2 = *(uint32_t *) DEVICE_ID3;
 348:Src/usbd_desc.c **** 
 349:Src/usbd_desc.c ****   deviceserial0 += deviceserial2;
 350:Src/usbd_desc.c **** 
 351:Src/usbd_desc.c ****   if (deviceserial0 != 0)
 352:Src/usbd_desc.c ****   {
 353:Src/usbd_desc.c ****     IntToUnicode(deviceserial0, &USBD_StringSerial[2], 8);
 354:Src/usbd_desc.c ****     IntToUnicode(deviceserial1, &USBD_StringSerial[18], 4);
 355:Src/usbd_desc.c ****   }
 356:Src/usbd_desc.c **** }
 357:Src/usbd_desc.c **** 
 358:Src/usbd_desc.c **** /**
 359:Src/usbd_desc.c ****   * @brief  Convert Hex 32Bits value into char 
 360:Src/usbd_desc.c ****   * @param  value: value to convert
 361:Src/usbd_desc.c ****   * @param  pbuf: pointer to the buffer 
 362:Src/usbd_desc.c ****   * @param  len: buffer length
 363:Src/usbd_desc.c ****   * @retval None
 364:Src/usbd_desc.c ****   */
 365:Src/usbd_desc.c **** static void IntToUnicode(uint32_t value, uint8_t * pbuf, uint8_t len)
ARM GAS  /var/folders/_1/sgnj6dm57r56n1x62bwb5w5h0000gn/T//ccJumQMK.s 			page 9


 366:Src/usbd_desc.c **** {
  97              		.loc 1 366 1 is_stmt 1 view -0
  98              		.cfi_startproc
  99              		@ args = 0, pretend = 0, frame = 0
 100              		@ frame_needed = 0, uses_anonymous_args = 0
 101              		@ link register save eliminated.
 367:Src/usbd_desc.c ****   uint8_t idx = 0;
 102              		.loc 1 367 3 view .LVU15
 368:Src/usbd_desc.c **** 
 369:Src/usbd_desc.c ****   for (idx = 0; idx < len; idx++)
 103              		.loc 1 369 3 view .LVU16
 104              		.loc 1 369 12 is_stmt 0 view .LVU17
 105 0000 0023     		movs	r3, #0
 106              	.LVL5:
 107              		.loc 1 369 3 view .LVU18
 108 0002 9342     		cmp	r3, r2
 109 0004 16D2     		bcs	.L15
 366:Src/usbd_desc.c ****   uint8_t idx = 0;
 110              		.loc 1 366 1 view .LVU19
 111 0006 30B4     		push	{r4, r5}
 112              	.LCFI0:
 113              		.cfi_def_cfa_offset 8
 114              		.cfi_offset 4, -8
 115              		.cfi_offset 5, -4
 116 0008 0BE0     		b	.L11
 117              	.L9:
 370:Src/usbd_desc.c ****   {
 371:Src/usbd_desc.c ****     if (((value >> 28)) < 0xA)
 372:Src/usbd_desc.c ****     {
 373:Src/usbd_desc.c ****       pbuf[2 * idx] = (value >> 28) + '0';
 374:Src/usbd_desc.c ****     }
 375:Src/usbd_desc.c ****     else
 376:Src/usbd_desc.c ****     {
 377:Src/usbd_desc.c ****       pbuf[2 * idx] = (value >> 28) + 'A' - 10;
 118              		.loc 1 377 7 is_stmt 1 view .LVU20
 119              		.loc 1 377 43 is_stmt 0 view .LVU21
 120 000a 3734     		adds	r4, r4, #55
 121              		.loc 1 377 21 view .LVU22
 122 000c 01F81340 		strb	r4, [r1, r3, lsl #1]
 123              	.L10:
 378:Src/usbd_desc.c ****     }
 379:Src/usbd_desc.c **** 
 380:Src/usbd_desc.c ****     value = value << 4;
 124              		.loc 1 380 5 is_stmt 1 discriminator 2 view .LVU23
 125              		.loc 1 380 11 is_stmt 0 discriminator 2 view .LVU24
 126 0010 0001     		lsls	r0, r0, #4
 127              	.LVL6:
 381:Src/usbd_desc.c **** 
 382:Src/usbd_desc.c ****     pbuf[2 * idx + 1] = 0;
 128              		.loc 1 382 5 is_stmt 1 discriminator 2 view .LVU25
 129              		.loc 1 382 12 is_stmt 0 discriminator 2 view .LVU26
 130 0012 5C00     		lsls	r4, r3, #1
 131              		.loc 1 382 9 discriminator 2 view .LVU27
 132 0014 0134     		adds	r4, r4, #1
 133              		.loc 1 382 23 discriminator 2 view .LVU28
 134 0016 0025     		movs	r5, #0
 135 0018 0D55     		strb	r5, [r1, r4]
ARM GAS  /var/folders/_1/sgnj6dm57r56n1x62bwb5w5h0000gn/T//ccJumQMK.s 			page 10


 369:Src/usbd_desc.c ****   {
 136              		.loc 1 369 31 discriminator 2 view .LVU29
 137 001a 0133     		adds	r3, r3, #1
 138              	.LVL7:
 369:Src/usbd_desc.c ****   {
 139              		.loc 1 369 31 discriminator 2 view .LVU30
 140 001c DBB2     		uxtb	r3, r3
 141              	.LVL8:
 369:Src/usbd_desc.c ****   {
 142              		.loc 1 369 3 discriminator 2 view .LVU31
 143 001e 9342     		cmp	r3, r2
 144 0020 06D2     		bcs	.L16
 145              	.L11:
 371:Src/usbd_desc.c ****     {
 146              		.loc 1 371 5 is_stmt 1 view .LVU32
 371:Src/usbd_desc.c ****     {
 147              		.loc 1 371 17 is_stmt 0 view .LVU33
 148 0022 040F     		lsrs	r4, r0, #28
 371:Src/usbd_desc.c ****     {
 149              		.loc 1 371 8 view .LVU34
 150 0024 092C     		cmp	r4, #9
 151 0026 F0D8     		bhi	.L9
 373:Src/usbd_desc.c ****     }
 152              		.loc 1 373 7 is_stmt 1 view .LVU35
 373:Src/usbd_desc.c ****     }
 153              		.loc 1 373 37 is_stmt 0 view .LVU36
 154 0028 3034     		adds	r4, r4, #48
 373:Src/usbd_desc.c ****     }
 155              		.loc 1 373 21 view .LVU37
 156 002a 01F81340 		strb	r4, [r1, r3, lsl #1]
 157 002e EFE7     		b	.L10
 158              	.L16:
 383:Src/usbd_desc.c ****   }
 384:Src/usbd_desc.c **** }
 159              		.loc 1 384 1 view .LVU38
 160 0030 30BC     		pop	{r4, r5}
 161              	.LCFI1:
 162              		.cfi_restore 5
 163              		.cfi_restore 4
 164              		.cfi_def_cfa_offset 0
 165 0032 7047     		bx	lr
 166              	.L15:
 167              		.loc 1 384 1 view .LVU39
 168 0034 7047     		bx	lr
 169              		.cfi_endproc
 170              	.LFE134:
 172              		.section	.text.Get_SerialNum,"ax",%progbits
 173              		.align	1
 174              		.syntax unified
 175              		.thumb
 176              		.thumb_func
 177              		.fpu fpv4-sp-d16
 179              	Get_SerialNum:
 180              	.LFB133:
 342:Src/usbd_desc.c ****   uint32_t deviceserial0, deviceserial1, deviceserial2;
 181              		.loc 1 342 1 is_stmt 1 view -0
 182              		.cfi_startproc
ARM GAS  /var/folders/_1/sgnj6dm57r56n1x62bwb5w5h0000gn/T//ccJumQMK.s 			page 11


 183              		@ args = 0, pretend = 0, frame = 0
 184              		@ frame_needed = 0, uses_anonymous_args = 0
 185 0000 38B5     		push	{r3, r4, r5, lr}
 186              	.LCFI2:
 187              		.cfi_def_cfa_offset 16
 188              		.cfi_offset 3, -16
 189              		.cfi_offset 4, -12
 190              		.cfi_offset 5, -8
 191              		.cfi_offset 14, -4
 343:Src/usbd_desc.c **** 
 192              		.loc 1 343 3 view .LVU41
 345:Src/usbd_desc.c ****   deviceserial1 = *(uint32_t *) DEVICE_ID2;
 193              		.loc 1 345 3 view .LVU42
 345:Src/usbd_desc.c ****   deviceserial1 = *(uint32_t *) DEVICE_ID2;
 194              		.loc 1 345 17 is_stmt 0 view .LVU43
 195 0002 0A4B     		ldr	r3, .L21
 196 0004 1868     		ldr	r0, [r3]
 197              	.LVL9:
 346:Src/usbd_desc.c ****   deviceserial2 = *(uint32_t *) DEVICE_ID3;
 198              		.loc 1 346 3 is_stmt 1 view .LVU44
 346:Src/usbd_desc.c ****   deviceserial2 = *(uint32_t *) DEVICE_ID3;
 199              		.loc 1 346 17 is_stmt 0 view .LVU45
 200 0006 0433     		adds	r3, r3, #4
 201 0008 1C68     		ldr	r4, [r3]
 202              	.LVL10:
 347:Src/usbd_desc.c **** 
 203              		.loc 1 347 3 is_stmt 1 view .LVU46
 347:Src/usbd_desc.c **** 
 204              		.loc 1 347 17 is_stmt 0 view .LVU47
 205 000a 0433     		adds	r3, r3, #4
 206 000c 1B68     		ldr	r3, [r3]
 207              	.LVL11:
 349:Src/usbd_desc.c **** 
 208              		.loc 1 349 3 is_stmt 1 view .LVU48
 351:Src/usbd_desc.c ****   {
 209              		.loc 1 351 3 view .LVU49
 351:Src/usbd_desc.c ****   {
 210              		.loc 1 351 6 is_stmt 0 view .LVU50
 211 000e C018     		adds	r0, r0, r3
 212              	.LVL12:
 351:Src/usbd_desc.c ****   {
 213              		.loc 1 351 6 view .LVU51
 214 0010 00D1     		bne	.L20
 215              	.LVL13:
 216              	.L17:
 356:Src/usbd_desc.c **** 
 217              		.loc 1 356 1 view .LVU52
 218 0012 38BD     		pop	{r3, r4, r5, pc}
 219              	.LVL14:
 220              	.L20:
 353:Src/usbd_desc.c ****     IntToUnicode(deviceserial1, &USBD_StringSerial[18], 4);
 221              		.loc 1 353 5 is_stmt 1 view .LVU53
 222 0014 064D     		ldr	r5, .L21+4
 223 0016 0822     		movs	r2, #8
 224 0018 A91C     		adds	r1, r5, #2
 225 001a FFF7FEFF 		bl	IntToUnicode
 226              	.LVL15:
ARM GAS  /var/folders/_1/sgnj6dm57r56n1x62bwb5w5h0000gn/T//ccJumQMK.s 			page 12


 354:Src/usbd_desc.c ****   }
 227              		.loc 1 354 5 view .LVU54
 228 001e 0422     		movs	r2, #4
 229 0020 05F11201 		add	r1, r5, #18
 230 0024 2046     		mov	r0, r4
 231 0026 FFF7FEFF 		bl	IntToUnicode
 232              	.LVL16:
 356:Src/usbd_desc.c **** 
 233              		.loc 1 356 1 is_stmt 0 view .LVU55
 234 002a F2E7     		b	.L17
 235              	.L22:
 236              		.align	2
 237              	.L21:
 238 002c ACF7FF1F 		.word	536868780
 239 0030 00000000 		.word	.LANCHOR2
 240              		.cfi_endproc
 241              	.LFE133:
 243              		.section	.text.USBD_FS_SerialStrDescriptor,"ax",%progbits
 244              		.align	1
 245              		.global	USBD_FS_SerialStrDescriptor
 246              		.syntax unified
 247              		.thumb
 248              		.thumb_func
 249              		.fpu fpv4-sp-d16
 251              	USBD_FS_SerialStrDescriptor:
 252              	.LVL17:
 253              	.LFB130:
 287:Src/usbd_desc.c ****   UNUSED(speed);
 254              		.loc 1 287 1 is_stmt 1 view -0
 255              		.cfi_startproc
 256              		@ args = 0, pretend = 0, frame = 0
 257              		@ frame_needed = 0, uses_anonymous_args = 0
 287:Src/usbd_desc.c ****   UNUSED(speed);
 258              		.loc 1 287 1 is_stmt 0 view .LVU57
 259 0000 08B5     		push	{r3, lr}
 260              	.LCFI3:
 261              		.cfi_def_cfa_offset 8
 262              		.cfi_offset 3, -8
 263              		.cfi_offset 14, -4
 288:Src/usbd_desc.c ****   *length = USB_SIZ_STRING_SERIAL;
 264              		.loc 1 288 3 is_stmt 1 view .LVU58
 289:Src/usbd_desc.c **** 
 265              		.loc 1 289 3 view .LVU59
 289:Src/usbd_desc.c **** 
 266              		.loc 1 289 11 is_stmt 0 view .LVU60
 267 0002 1A23     		movs	r3, #26
 268 0004 0B80     		strh	r3, [r1]	@ movhi
 293:Src/usbd_desc.c **** 
 269              		.loc 1 293 3 is_stmt 1 view .LVU61
 270 0006 FFF7FEFF 		bl	Get_SerialNum
 271              	.LVL18:
 295:Src/usbd_desc.c **** }
 272              		.loc 1 295 3 view .LVU62
 296:Src/usbd_desc.c **** 
 273              		.loc 1 296 1 is_stmt 0 view .LVU63
 274 000a 0148     		ldr	r0, .L25
 275 000c 08BD     		pop	{r3, pc}
ARM GAS  /var/folders/_1/sgnj6dm57r56n1x62bwb5w5h0000gn/T//ccJumQMK.s 			page 13


 276              	.L26:
 277 000e 00BF     		.align	2
 278              	.L25:
 279 0010 00000000 		.word	.LANCHOR2
 280              		.cfi_endproc
 281              	.LFE130:
 283              		.section	.text.USBD_FS_ProductStrDescriptor,"ax",%progbits
 284              		.align	1
 285              		.global	USBD_FS_ProductStrDescriptor
 286              		.syntax unified
 287              		.thumb
 288              		.thumb_func
 289              		.fpu fpv4-sp-d16
 291              	USBD_FS_ProductStrDescriptor:
 292              	.LVL19:
 293              	.LFB128:
 255:Src/usbd_desc.c ****   if(speed == 0)
 294              		.loc 1 255 1 is_stmt 1 view -0
 295              		.cfi_startproc
 296              		@ args = 0, pretend = 0, frame = 0
 297              		@ frame_needed = 0, uses_anonymous_args = 0
 255:Src/usbd_desc.c ****   if(speed == 0)
 298              		.loc 1 255 1 is_stmt 0 view .LVU65
 299 0000 08B5     		push	{r3, lr}
 300              	.LCFI4:
 301              		.cfi_def_cfa_offset 8
 302              		.cfi_offset 3, -8
 303              		.cfi_offset 14, -4
 304 0002 0A46     		mov	r2, r1
 256:Src/usbd_desc.c ****   {
 305              		.loc 1 256 3 is_stmt 1 view .LVU66
 256:Src/usbd_desc.c ****   {
 306              		.loc 1 256 5 is_stmt 0 view .LVU67
 307 0004 28B9     		cbnz	r0, .L28
 258:Src/usbd_desc.c ****   }
 308              		.loc 1 258 5 is_stmt 1 view .LVU68
 309 0006 0549     		ldr	r1, .L31
 310              	.LVL20:
 258:Src/usbd_desc.c ****   }
 311              		.loc 1 258 5 is_stmt 0 view .LVU69
 312 0008 0548     		ldr	r0, .L31+4
 313              	.LVL21:
 258:Src/usbd_desc.c ****   }
 314              		.loc 1 258 5 view .LVU70
 315 000a FFF7FEFF 		bl	USBD_GetString
 316              	.LVL22:
 317              	.L29:
 264:Src/usbd_desc.c **** }
 318              		.loc 1 264 3 is_stmt 1 view .LVU71
 265:Src/usbd_desc.c **** 
 319              		.loc 1 265 1 is_stmt 0 view .LVU72
 320 000e 0348     		ldr	r0, .L31
 321 0010 08BD     		pop	{r3, pc}
 322              	.LVL23:
 323              	.L28:
 262:Src/usbd_desc.c ****   }
 324              		.loc 1 262 5 is_stmt 1 view .LVU73
ARM GAS  /var/folders/_1/sgnj6dm57r56n1x62bwb5w5h0000gn/T//ccJumQMK.s 			page 14


 325 0012 0249     		ldr	r1, .L31
 326              	.LVL24:
 262:Src/usbd_desc.c ****   }
 327              		.loc 1 262 5 is_stmt 0 view .LVU74
 328 0014 0248     		ldr	r0, .L31+4
 329              	.LVL25:
 262:Src/usbd_desc.c ****   }
 330              		.loc 1 262 5 view .LVU75
 331 0016 FFF7FEFF 		bl	USBD_GetString
 332              	.LVL26:
 262:Src/usbd_desc.c ****   }
 333              		.loc 1 262 5 view .LVU76
 334 001a F8E7     		b	.L29
 335              	.L32:
 336              		.align	2
 337              	.L31:
 338 001c 00000000 		.word	USBD_StrDesc
 339 0020 00000000 		.word	.LC0
 340              		.cfi_endproc
 341              	.LFE128:
 343              		.section	.text.USBD_FS_ManufacturerStrDescriptor,"ax",%progbits
 344              		.align	1
 345              		.global	USBD_FS_ManufacturerStrDescriptor
 346              		.syntax unified
 347              		.thumb
 348              		.thumb_func
 349              		.fpu fpv4-sp-d16
 351              	USBD_FS_ManufacturerStrDescriptor:
 352              	.LVL27:
 353              	.LFB129:
 274:Src/usbd_desc.c ****   UNUSED(speed);
 354              		.loc 1 274 1 is_stmt 1 view -0
 355              		.cfi_startproc
 356              		@ args = 0, pretend = 0, frame = 0
 357              		@ frame_needed = 0, uses_anonymous_args = 0
 274:Src/usbd_desc.c ****   UNUSED(speed);
 358              		.loc 1 274 1 is_stmt 0 view .LVU78
 359 0000 10B5     		push	{r4, lr}
 360              	.LCFI5:
 361              		.cfi_def_cfa_offset 8
 362              		.cfi_offset 4, -8
 363              		.cfi_offset 14, -4
 275:Src/usbd_desc.c ****   USBD_GetString((uint8_t *)USBD_MANUFACTURER_STRING, USBD_StrDesc, length);
 364              		.loc 1 275 3 is_stmt 1 view .LVU79
 276:Src/usbd_desc.c ****   return USBD_StrDesc;
 365              		.loc 1 276 3 view .LVU80
 366 0002 044C     		ldr	r4, .L35
 367 0004 0A46     		mov	r2, r1
 368 0006 2146     		mov	r1, r4
 369              	.LVL28:
 276:Src/usbd_desc.c ****   return USBD_StrDesc;
 370              		.loc 1 276 3 is_stmt 0 view .LVU81
 371 0008 0348     		ldr	r0, .L35+4
 372              	.LVL29:
 276:Src/usbd_desc.c ****   return USBD_StrDesc;
 373              		.loc 1 276 3 view .LVU82
 374 000a FFF7FEFF 		bl	USBD_GetString
ARM GAS  /var/folders/_1/sgnj6dm57r56n1x62bwb5w5h0000gn/T//ccJumQMK.s 			page 15


 375              	.LVL30:
 277:Src/usbd_desc.c **** }
 376              		.loc 1 277 3 is_stmt 1 view .LVU83
 278:Src/usbd_desc.c **** 
 377              		.loc 1 278 1 is_stmt 0 view .LVU84
 378 000e 2046     		mov	r0, r4
 379 0010 10BD     		pop	{r4, pc}
 380              	.L36:
 381 0012 00BF     		.align	2
 382              	.L35:
 383 0014 00000000 		.word	USBD_StrDesc
 384 0018 00000000 		.word	.LC1
 385              		.cfi_endproc
 386              	.LFE129:
 388              		.section	.text.USBD_FS_ConfigStrDescriptor,"ax",%progbits
 389              		.align	1
 390              		.global	USBD_FS_ConfigStrDescriptor
 391              		.syntax unified
 392              		.thumb
 393              		.thumb_func
 394              		.fpu fpv4-sp-d16
 396              	USBD_FS_ConfigStrDescriptor:
 397              	.LVL31:
 398              	.LFB131:
 305:Src/usbd_desc.c ****   if(speed == USBD_SPEED_HIGH)
 399              		.loc 1 305 1 is_stmt 1 view -0
 400              		.cfi_startproc
 401              		@ args = 0, pretend = 0, frame = 0
 402              		@ frame_needed = 0, uses_anonymous_args = 0
 305:Src/usbd_desc.c ****   if(speed == USBD_SPEED_HIGH)
 403              		.loc 1 305 1 is_stmt 0 view .LVU86
 404 0000 08B5     		push	{r3, lr}
 405              	.LCFI6:
 406              		.cfi_def_cfa_offset 8
 407              		.cfi_offset 3, -8
 408              		.cfi_offset 14, -4
 409 0002 0A46     		mov	r2, r1
 306:Src/usbd_desc.c ****   {
 410              		.loc 1 306 3 is_stmt 1 view .LVU87
 306:Src/usbd_desc.c ****   {
 411              		.loc 1 306 5 is_stmt 0 view .LVU88
 412 0004 28B9     		cbnz	r0, .L38
 308:Src/usbd_desc.c ****   }
 413              		.loc 1 308 5 is_stmt 1 view .LVU89
 414 0006 0549     		ldr	r1, .L41
 415              	.LVL32:
 308:Src/usbd_desc.c ****   }
 416              		.loc 1 308 5 is_stmt 0 view .LVU90
 417 0008 0548     		ldr	r0, .L41+4
 418              	.LVL33:
 308:Src/usbd_desc.c ****   }
 419              		.loc 1 308 5 view .LVU91
 420 000a FFF7FEFF 		bl	USBD_GetString
 421              	.LVL34:
 422              	.L39:
 314:Src/usbd_desc.c **** }
 423              		.loc 1 314 3 is_stmt 1 view .LVU92
ARM GAS  /var/folders/_1/sgnj6dm57r56n1x62bwb5w5h0000gn/T//ccJumQMK.s 			page 16


 315:Src/usbd_desc.c **** 
 424              		.loc 1 315 1 is_stmt 0 view .LVU93
 425 000e 0348     		ldr	r0, .L41
 426 0010 08BD     		pop	{r3, pc}
 427              	.LVL35:
 428              	.L38:
 312:Src/usbd_desc.c ****   }
 429              		.loc 1 312 5 is_stmt 1 view .LVU94
 430 0012 0249     		ldr	r1, .L41
 431              	.LVL36:
 312:Src/usbd_desc.c ****   }
 432              		.loc 1 312 5 is_stmt 0 view .LVU95
 433 0014 0248     		ldr	r0, .L41+4
 434              	.LVL37:
 312:Src/usbd_desc.c ****   }
 435              		.loc 1 312 5 view .LVU96
 436 0016 FFF7FEFF 		bl	USBD_GetString
 437              	.LVL38:
 312:Src/usbd_desc.c ****   }
 438              		.loc 1 312 5 view .LVU97
 439 001a F8E7     		b	.L39
 440              	.L42:
 441              		.align	2
 442              	.L41:
 443 001c 00000000 		.word	USBD_StrDesc
 444 0020 00000000 		.word	.LC2
 445              		.cfi_endproc
 446              	.LFE131:
 448              		.section	.text.USBD_FS_InterfaceStrDescriptor,"ax",%progbits
 449              		.align	1
 450              		.global	USBD_FS_InterfaceStrDescriptor
 451              		.syntax unified
 452              		.thumb
 453              		.thumb_func
 454              		.fpu fpv4-sp-d16
 456              	USBD_FS_InterfaceStrDescriptor:
 457              	.LVL39:
 458              	.LFB132:
 324:Src/usbd_desc.c ****   if(speed == 0)
 459              		.loc 1 324 1 is_stmt 1 view -0
 460              		.cfi_startproc
 461              		@ args = 0, pretend = 0, frame = 0
 462              		@ frame_needed = 0, uses_anonymous_args = 0
 324:Src/usbd_desc.c ****   if(speed == 0)
 463              		.loc 1 324 1 is_stmt 0 view .LVU99
 464 0000 08B5     		push	{r3, lr}
 465              	.LCFI7:
 466              		.cfi_def_cfa_offset 8
 467              		.cfi_offset 3, -8
 468              		.cfi_offset 14, -4
 469 0002 0A46     		mov	r2, r1
 325:Src/usbd_desc.c ****   {
 470              		.loc 1 325 3 is_stmt 1 view .LVU100
 325:Src/usbd_desc.c ****   {
 471              		.loc 1 325 5 is_stmt 0 view .LVU101
 472 0004 28B9     		cbnz	r0, .L44
 327:Src/usbd_desc.c ****   }
ARM GAS  /var/folders/_1/sgnj6dm57r56n1x62bwb5w5h0000gn/T//ccJumQMK.s 			page 17


 473              		.loc 1 327 5 is_stmt 1 view .LVU102
 474 0006 0549     		ldr	r1, .L47
 475              	.LVL40:
 327:Src/usbd_desc.c ****   }
 476              		.loc 1 327 5 is_stmt 0 view .LVU103
 477 0008 0548     		ldr	r0, .L47+4
 478              	.LVL41:
 327:Src/usbd_desc.c ****   }
 479              		.loc 1 327 5 view .LVU104
 480 000a FFF7FEFF 		bl	USBD_GetString
 481              	.LVL42:
 482              	.L45:
 333:Src/usbd_desc.c **** }
 483              		.loc 1 333 3 is_stmt 1 view .LVU105
 334:Src/usbd_desc.c **** 
 484              		.loc 1 334 1 is_stmt 0 view .LVU106
 485 000e 0348     		ldr	r0, .L47
 486 0010 08BD     		pop	{r3, pc}
 487              	.LVL43:
 488              	.L44:
 331:Src/usbd_desc.c ****   }
 489              		.loc 1 331 5 is_stmt 1 view .LVU107
 490 0012 0249     		ldr	r1, .L47
 491              	.LVL44:
 331:Src/usbd_desc.c ****   }
 492              		.loc 1 331 5 is_stmt 0 view .LVU108
 493 0014 0248     		ldr	r0, .L47+4
 494              	.LVL45:
 331:Src/usbd_desc.c ****   }
 495              		.loc 1 331 5 view .LVU109
 496 0016 FFF7FEFF 		bl	USBD_GetString
 497              	.LVL46:
 331:Src/usbd_desc.c ****   }
 498              		.loc 1 331 5 view .LVU110
 499 001a F8E7     		b	.L45
 500              	.L48:
 501              		.align	2
 502              	.L47:
 503 001c 00000000 		.word	USBD_StrDesc
 504 0020 00000000 		.word	.LC3
 505              		.cfi_endproc
 506              	.LFE132:
 508              		.global	USBD_StringSerial
 509              		.comm	USBD_StrDesc,512,4
 510              		.global	USBD_LangIDDesc
 511              		.global	USBD_FS_DeviceDesc
 512              		.global	FS_Desc
 513              		.section	.data.FS_Desc,"aw"
 514              		.align	2
 517              	FS_Desc:
 518 0000 00000000 		.word	USBD_FS_DeviceDescriptor
 519 0004 00000000 		.word	USBD_FS_LangIDStrDescriptor
 520 0008 00000000 		.word	USBD_FS_ManufacturerStrDescriptor
 521 000c 00000000 		.word	USBD_FS_ProductStrDescriptor
 522 0010 00000000 		.word	USBD_FS_SerialStrDescriptor
 523 0014 00000000 		.word	USBD_FS_ConfigStrDescriptor
 524 0018 00000000 		.word	USBD_FS_InterfaceStrDescriptor
ARM GAS  /var/folders/_1/sgnj6dm57r56n1x62bwb5w5h0000gn/T//ccJumQMK.s 			page 18


 525              		.section	.data.USBD_FS_DeviceDesc,"aw"
 526              		.align	2
 527              		.set	.LANCHOR0,. + 0
 530              	USBD_FS_DeviceDesc:
 531 0000 12       		.byte	18
 532 0001 01       		.byte	1
 533 0002 00       		.byte	0
 534 0003 02       		.byte	2
 535 0004 00       		.byte	0
 536 0005 00       		.byte	0
 537 0006 00       		.byte	0
 538 0007 40       		.byte	64
 539 0008 83       		.byte	-125
 540 0009 04       		.byte	4
 541 000a 11       		.byte	17
 542 000b DF       		.byte	-33
 543 000c 00       		.byte	0
 544 000d 02       		.byte	2
 545 000e 01       		.byte	1
 546 000f 02       		.byte	2
 547 0010 03       		.byte	3
 548 0011 01       		.byte	1
 549              		.section	.data.USBD_LangIDDesc,"aw"
 550              		.align	2
 551              		.set	.LANCHOR1,. + 0
 554              	USBD_LangIDDesc:
 555 0000 04       		.byte	4
 556 0001 03       		.byte	3
 557 0002 09       		.byte	9
 558 0003 04       		.byte	4
 559              		.section	.data.USBD_StringSerial,"aw"
 560              		.align	2
 561              		.set	.LANCHOR2,. + 0
 564              	USBD_StringSerial:
 565 0000 1A       		.byte	26
 566 0001 03       		.byte	3
 567 0002 00000000 		.space	24
 567      00000000 
 567      00000000 
 567      00000000 
 567      00000000 
 568              		.section	.rodata.USBD_FS_ConfigStrDescriptor.str1.4,"aMS",%progbits,1
 569              		.align	2
 570              	.LC2:
 571 0000 44465520 		.ascii	"DFU Config\000"
 571      436F6E66 
 571      696700
 572              		.section	.rodata.USBD_FS_InterfaceStrDescriptor.str1.4,"aMS",%progbits,1
 573              		.align	2
 574              	.LC3:
 575 0000 44465520 		.ascii	"DFU Interface\000"
 575      496E7465 
 575      72666163 
 575      6500
 576              		.section	.rodata.USBD_FS_ManufacturerStrDescriptor.str1.4,"aMS",%progbits,1
 577              		.align	2
 578              	.LC1:
ARM GAS  /var/folders/_1/sgnj6dm57r56n1x62bwb5w5h0000gn/T//ccJumQMK.s 			page 19


 579 0000 53544D69 		.ascii	"STMicroelectronics\000"
 579      63726F65 
 579      6C656374 
 579      726F6E69 
 579      637300
 580              		.section	.rodata.USBD_FS_ProductStrDescriptor.str1.4,"aMS",%progbits,1
 581              		.align	2
 582              	.LC0:
 583 0000 53544D33 		.ascii	"STM32 DownLoad Firmware Update\000"
 583      3220446F 
 583      776E4C6F 
 583      61642046 
 583      69726D77 
 584              		.text
 585              	.Letext0:
 586              		.file 2 "/usr/local/opt/gcc-arm-none-eabi-8-2019-q3-update/arm-none-eabi/include/machine/_default_
 587              		.file 3 "/usr/local/opt/gcc-arm-none-eabi-8-2019-q3-update/lib/gcc/arm-none-eabi/8.3.1/include/std
 588              		.file 4 "/usr/local/opt/gcc-arm-none-eabi-8-2019-q3-update/arm-none-eabi/include/sys/_types.h"
 589              		.file 5 "/usr/local/opt/gcc-arm-none-eabi-8-2019-q3-update/arm-none-eabi/include/sys/reent.h"
 590              		.file 6 "/usr/local/opt/gcc-arm-none-eabi-8-2019-q3-update/arm-none-eabi/include/sys/lock.h"
 591              		.file 7 "/usr/local/opt/gcc-arm-none-eabi-8-2019-q3-update/arm-none-eabi/include/sys/_stdint.h"
 592              		.file 8 "/usr/local/opt/gcc-arm-none-eabi-8-2019-q3-update/arm-none-eabi/include/stdlib.h"
 593              		.file 9 "Drivers/CMSIS/Include/core_cm4.h"
 594              		.file 10 "Drivers/CMSIS/Device/ST/STM32F3xx/Include/system_stm32f3xx.h"
 595              		.file 11 "Drivers/STM32F3xx_HAL_Driver/Inc/stm32f3xx_hal.h"
 596              		.file 12 "Middlewares/ST/STM32_USB_Device_Library/Core/Inc/usbd_def.h"
 597              		.file 13 "Inc/usbd_desc.h"
 598              		.file 14 "Middlewares/ST/STM32_USB_Device_Library/Core/Inc/usbd_ctlreq.h"
ARM GAS  /var/folders/_1/sgnj6dm57r56n1x62bwb5w5h0000gn/T//ccJumQMK.s 			page 20

