ARM GAS  /var/folders/md/lgcc8l7571l9vt9sx0g0zflw0000gn/T//ccpAt1EU.s 			page 1


   1              		.cpu cortex-m4
   2              		.eabi_attribute 27, 1
   3              		.eabi_attribute 28, 1
   4              		.eabi_attribute 20, 1
   5              		.eabi_attribute 21, 1
   6              		.eabi_attribute 23, 3
   7              		.eabi_attribute 24, 1
   8              		.eabi_attribute 25, 1
   9              		.eabi_attribute 26, 1
  10              		.eabi_attribute 30, 1
  11              		.eabi_attribute 34, 1
  12              		.eabi_attribute 18, 4
  13              		.file	"usbd_conf.c"
  14              		.text
  15              	.Ltext0:
  16              		.cfi_sections	.debug_frame
  17              		.section	.text.USBD_Get_USB_Status,"ax",%progbits
  18              		.align	1
  19              		.arch armv7e-m
  20              		.syntax unified
  21              		.thumb
  22              		.thumb_func
  23              		.fpu fpv4-sp-d16
  25              	USBD_Get_USB_Status:
  26              	.LVL0:
  27              	.LFB157:
  28              		.file 1 "Src/usbd_conf.c"
   1:Src/usbd_conf.c **** /* USER CODE BEGIN Header */
   2:Src/usbd_conf.c **** /**
   3:Src/usbd_conf.c ****   ******************************************************************************
   4:Src/usbd_conf.c ****   * @file           : usbd_conf.c
   5:Src/usbd_conf.c ****   * @version        : v2.0_Cube
   6:Src/usbd_conf.c ****   * @brief          : This file implements the board support package for the USB device library
   7:Src/usbd_conf.c ****   ******************************************************************************
   8:Src/usbd_conf.c ****   * @attention
   9:Src/usbd_conf.c ****   *
  10:Src/usbd_conf.c ****   * <h2><center>&copy; Copyright (c) 2019 STMicroelectronics.
  11:Src/usbd_conf.c ****   * All rights reserved.</center></h2>
  12:Src/usbd_conf.c ****   *
  13:Src/usbd_conf.c ****   * This software component is licensed by ST under Ultimate Liberty license
  14:Src/usbd_conf.c ****   * SLA0044, the "License"; You may not use this file except in compliance with
  15:Src/usbd_conf.c ****   * the License. You may obtain a copy of the License at:
  16:Src/usbd_conf.c ****   *                             www.st.com/SLA0044
  17:Src/usbd_conf.c ****   *
  18:Src/usbd_conf.c ****   ******************************************************************************
  19:Src/usbd_conf.c ****   */
  20:Src/usbd_conf.c **** /* USER CODE END Header */
  21:Src/usbd_conf.c **** 
  22:Src/usbd_conf.c **** /* Includes ------------------------------------------------------------------*/
  23:Src/usbd_conf.c **** #include "stm32f3xx.h"
  24:Src/usbd_conf.c **** #include "stm32f3xx_hal.h"
  25:Src/usbd_conf.c **** #include "usbd_def.h"
  26:Src/usbd_conf.c **** #include "usbd_core.h"
  27:Src/usbd_conf.c **** #include "usbd_dfu.h"
  28:Src/usbd_conf.c **** 
  29:Src/usbd_conf.c **** /* USER CODE BEGIN Includes */
  30:Src/usbd_conf.c **** 
ARM GAS  /var/folders/md/lgcc8l7571l9vt9sx0g0zflw0000gn/T//ccpAt1EU.s 			page 2


  31:Src/usbd_conf.c **** /* USER CODE END Includes */
  32:Src/usbd_conf.c **** 
  33:Src/usbd_conf.c **** /* Private typedef -----------------------------------------------------------*/
  34:Src/usbd_conf.c **** /* Private define ------------------------------------------------------------*/
  35:Src/usbd_conf.c **** /* Private macro -------------------------------------------------------------*/
  36:Src/usbd_conf.c **** 
  37:Src/usbd_conf.c **** /* USER CODE BEGIN PV */
  38:Src/usbd_conf.c **** /* Private variables ---------------------------------------------------------*/
  39:Src/usbd_conf.c **** 
  40:Src/usbd_conf.c **** /* USER CODE END PV */
  41:Src/usbd_conf.c **** 
  42:Src/usbd_conf.c **** PCD_HandleTypeDef hpcd_USB_FS;
  43:Src/usbd_conf.c **** void Error_Handler(void);
  44:Src/usbd_conf.c **** 
  45:Src/usbd_conf.c **** /* USER CODE BEGIN 0 */
  46:Src/usbd_conf.c **** 
  47:Src/usbd_conf.c **** /* USER CODE END 0 */
  48:Src/usbd_conf.c **** 
  49:Src/usbd_conf.c **** /* USER CODE BEGIN PFP */
  50:Src/usbd_conf.c **** /* Private function prototypes -----------------------------------------------*/
  51:Src/usbd_conf.c **** 
  52:Src/usbd_conf.c **** /* USER CODE END PFP */
  53:Src/usbd_conf.c **** 
  54:Src/usbd_conf.c **** /* Private functions ---------------------------------------------------------*/
  55:Src/usbd_conf.c **** static USBD_StatusTypeDef USBD_Get_USB_Status(HAL_StatusTypeDef hal_status);
  56:Src/usbd_conf.c **** /* USER CODE BEGIN 1 */
  57:Src/usbd_conf.c **** 
  58:Src/usbd_conf.c **** /* USER CODE END 1 */
  59:Src/usbd_conf.c **** #if (USE_HAL_PCD_REGISTER_CALLBACKS == 1U)
  60:Src/usbd_conf.c **** static void PCDEx_SetConnectionState(PCD_HandleTypeDef *hpcd, uint8_t state);
  61:Src/usbd_conf.c **** else
  62:Src/usbd_conf.c **** void HAL_PCDEx_SetConnectionState(PCD_HandleTypeDef *hpcd, uint8_t state);
  63:Src/usbd_conf.c **** #endif /* USE_HAL_PCD_REGISTER_CALLBACKS */
  64:Src/usbd_conf.c **** 
  65:Src/usbd_conf.c **** /*******************************************************************************
  66:Src/usbd_conf.c ****                        LL Driver Callbacks (PCD -> USB Device Library)
  67:Src/usbd_conf.c **** *******************************************************************************/
  68:Src/usbd_conf.c **** /* MSP Init */
  69:Src/usbd_conf.c **** 
  70:Src/usbd_conf.c **** void HAL_PCD_MspInit(PCD_HandleTypeDef* pcdHandle)
  71:Src/usbd_conf.c **** {
  72:Src/usbd_conf.c ****   GPIO_InitTypeDef GPIO_InitStruct = {0};
  73:Src/usbd_conf.c ****   if(pcdHandle->Instance==USB)
  74:Src/usbd_conf.c ****   {
  75:Src/usbd_conf.c ****   /* USER CODE BEGIN USB_MspInit 0 */
  76:Src/usbd_conf.c **** 
  77:Src/usbd_conf.c ****   /* USER CODE END USB_MspInit 0 */
  78:Src/usbd_conf.c ****   
  79:Src/usbd_conf.c ****     __HAL_RCC_GPIOA_CLK_ENABLE();
  80:Src/usbd_conf.c ****     /**USB GPIO Configuration    
  81:Src/usbd_conf.c ****     PA11     ------> USB_DM
  82:Src/usbd_conf.c ****     PA12     ------> USB_DP 
  83:Src/usbd_conf.c ****     */
  84:Src/usbd_conf.c ****     GPIO_InitStruct.Pin = GPIO_PIN_11;
  85:Src/usbd_conf.c ****     GPIO_InitStruct.Mode = GPIO_MODE_AF_PP;
  86:Src/usbd_conf.c ****     GPIO_InitStruct.Pull = GPIO_NOPULL;
  87:Src/usbd_conf.c ****     GPIO_InitStruct.Speed = GPIO_SPEED_FREQ_HIGH;
ARM GAS  /var/folders/md/lgcc8l7571l9vt9sx0g0zflw0000gn/T//ccpAt1EU.s 			page 3


  88:Src/usbd_conf.c ****     GPIO_InitStruct.Alternate = GPIO_AF14_USB;
  89:Src/usbd_conf.c ****     HAL_GPIO_Init(GPIOA, &GPIO_InitStruct);
  90:Src/usbd_conf.c **** 
  91:Src/usbd_conf.c ****     GPIO_InitStruct.Pin = GPIO_PIN_12;
  92:Src/usbd_conf.c ****     GPIO_InitStruct.Mode = GPIO_MODE_AF_PP;
  93:Src/usbd_conf.c ****     GPIO_InitStruct.Pull = GPIO_PULLUP;
  94:Src/usbd_conf.c ****     GPIO_InitStruct.Speed = GPIO_SPEED_FREQ_HIGH;
  95:Src/usbd_conf.c ****     GPIO_InitStruct.Alternate = GPIO_AF14_USB;
  96:Src/usbd_conf.c ****     HAL_GPIO_Init(GPIOA, &GPIO_InitStruct);
  97:Src/usbd_conf.c **** 
  98:Src/usbd_conf.c ****     /* Peripheral clock enable */
  99:Src/usbd_conf.c ****     __HAL_RCC_USB_CLK_ENABLE();
 100:Src/usbd_conf.c **** 
 101:Src/usbd_conf.c ****     /* Peripheral interrupt init */
 102:Src/usbd_conf.c ****     HAL_NVIC_SetPriority(USB_LP_CAN_RX0_IRQn, 0, 0);
 103:Src/usbd_conf.c ****     HAL_NVIC_EnableIRQ(USB_LP_CAN_RX0_IRQn);
 104:Src/usbd_conf.c ****   /* USER CODE BEGIN USB_MspInit 1 */
 105:Src/usbd_conf.c **** 
 106:Src/usbd_conf.c ****   /* USER CODE END USB_MspInit 1 */
 107:Src/usbd_conf.c ****   }
 108:Src/usbd_conf.c **** }
 109:Src/usbd_conf.c **** 
 110:Src/usbd_conf.c **** void HAL_PCD_MspDeInit(PCD_HandleTypeDef* pcdHandle)
 111:Src/usbd_conf.c **** {
 112:Src/usbd_conf.c ****   if(pcdHandle->Instance==USB)
 113:Src/usbd_conf.c ****   {
 114:Src/usbd_conf.c ****   /* USER CODE BEGIN USB_MspDeInit 0 */
 115:Src/usbd_conf.c **** 
 116:Src/usbd_conf.c ****   /* USER CODE END USB_MspDeInit 0 */
 117:Src/usbd_conf.c ****     /* Peripheral clock disable */
 118:Src/usbd_conf.c ****     __HAL_RCC_USB_CLK_DISABLE();
 119:Src/usbd_conf.c ****   
 120:Src/usbd_conf.c ****     /**USB GPIO Configuration    
 121:Src/usbd_conf.c ****     PA11     ------> USB_DM
 122:Src/usbd_conf.c ****     PA12     ------> USB_DP 
 123:Src/usbd_conf.c ****     */
 124:Src/usbd_conf.c ****     HAL_GPIO_DeInit(GPIOA, GPIO_PIN_11|GPIO_PIN_12);
 125:Src/usbd_conf.c **** 
 126:Src/usbd_conf.c ****     /* Peripheral interrupt Deinit*/
 127:Src/usbd_conf.c ****     HAL_NVIC_DisableIRQ(USB_LP_CAN_RX0_IRQn);
 128:Src/usbd_conf.c **** 
 129:Src/usbd_conf.c ****   /* USER CODE BEGIN USB_MspDeInit 1 */
 130:Src/usbd_conf.c **** 
 131:Src/usbd_conf.c ****   /* USER CODE END USB_MspDeInit 1 */
 132:Src/usbd_conf.c ****   }
 133:Src/usbd_conf.c **** }
 134:Src/usbd_conf.c **** 
 135:Src/usbd_conf.c **** /**
 136:Src/usbd_conf.c ****   * @brief  Setup stage callback
 137:Src/usbd_conf.c ****   * @param  hpcd: PCD handle
 138:Src/usbd_conf.c ****   * @retval None
 139:Src/usbd_conf.c ****   */
 140:Src/usbd_conf.c **** #if (USE_HAL_PCD_REGISTER_CALLBACKS == 1U)
 141:Src/usbd_conf.c **** static void PCD_SetupStageCallback(PCD_HandleTypeDef *hpcd)
 142:Src/usbd_conf.c **** #else
 143:Src/usbd_conf.c **** void HAL_PCD_SetupStageCallback(PCD_HandleTypeDef *hpcd)
 144:Src/usbd_conf.c **** #endif /* USE_HAL_PCD_REGISTER_CALLBACKS */
ARM GAS  /var/folders/md/lgcc8l7571l9vt9sx0g0zflw0000gn/T//ccpAt1EU.s 			page 4


 145:Src/usbd_conf.c **** {
 146:Src/usbd_conf.c ****   USBD_LL_SetupStage((USBD_HandleTypeDef*)hpcd->pData, (uint8_t *)hpcd->Setup);
 147:Src/usbd_conf.c **** }
 148:Src/usbd_conf.c **** 
 149:Src/usbd_conf.c **** /**
 150:Src/usbd_conf.c ****   * @brief  Data Out stage callback.
 151:Src/usbd_conf.c ****   * @param  hpcd: PCD handle
 152:Src/usbd_conf.c ****   * @param  epnum: Endpoint number
 153:Src/usbd_conf.c ****   * @retval None
 154:Src/usbd_conf.c ****   */
 155:Src/usbd_conf.c **** #if (USE_HAL_PCD_REGISTER_CALLBACKS == 1U)
 156:Src/usbd_conf.c **** static void PCD_DataOutStageCallback(PCD_HandleTypeDef *hpcd, uint8_t epnum)
 157:Src/usbd_conf.c **** #else
 158:Src/usbd_conf.c **** void HAL_PCD_DataOutStageCallback(PCD_HandleTypeDef *hpcd, uint8_t epnum)
 159:Src/usbd_conf.c **** #endif /* USE_HAL_PCD_REGISTER_CALLBACKS */
 160:Src/usbd_conf.c **** {
 161:Src/usbd_conf.c ****   USBD_LL_DataOutStage((USBD_HandleTypeDef*)hpcd->pData, epnum, hpcd->OUT_ep[epnum].xfer_buff);
 162:Src/usbd_conf.c **** }
 163:Src/usbd_conf.c **** 
 164:Src/usbd_conf.c **** /**
 165:Src/usbd_conf.c ****   * @brief  Data In stage callback.
 166:Src/usbd_conf.c ****   * @param  hpcd: PCD handle
 167:Src/usbd_conf.c ****   * @param  epnum: Endpoint number
 168:Src/usbd_conf.c ****   * @retval None
 169:Src/usbd_conf.c ****   */
 170:Src/usbd_conf.c **** #if (USE_HAL_PCD_REGISTER_CALLBACKS == 1U)
 171:Src/usbd_conf.c **** static void PCD_DataInStageCallback(PCD_HandleTypeDef *hpcd, uint8_t epnum)
 172:Src/usbd_conf.c **** #else
 173:Src/usbd_conf.c **** void HAL_PCD_DataInStageCallback(PCD_HandleTypeDef *hpcd, uint8_t epnum)
 174:Src/usbd_conf.c **** #endif /* USE_HAL_PCD_REGISTER_CALLBACKS */
 175:Src/usbd_conf.c **** {
 176:Src/usbd_conf.c ****   USBD_LL_DataInStage((USBD_HandleTypeDef*)hpcd->pData, epnum, hpcd->IN_ep[epnum].xfer_buff);
 177:Src/usbd_conf.c **** }
 178:Src/usbd_conf.c **** 
 179:Src/usbd_conf.c **** /**
 180:Src/usbd_conf.c ****   * @brief  SOF callback.
 181:Src/usbd_conf.c ****   * @param  hpcd: PCD handle
 182:Src/usbd_conf.c ****   * @retval None
 183:Src/usbd_conf.c ****   */
 184:Src/usbd_conf.c **** #if (USE_HAL_PCD_REGISTER_CALLBACKS == 1U)
 185:Src/usbd_conf.c **** static void PCD_SOFCallback(PCD_HandleTypeDef *hpcd)
 186:Src/usbd_conf.c **** #else
 187:Src/usbd_conf.c **** void HAL_PCD_SOFCallback(PCD_HandleTypeDef *hpcd)
 188:Src/usbd_conf.c **** #endif /* USE_HAL_PCD_REGISTER_CALLBACKS */
 189:Src/usbd_conf.c **** {
 190:Src/usbd_conf.c ****   USBD_LL_SOF((USBD_HandleTypeDef*)hpcd->pData);
 191:Src/usbd_conf.c **** }
 192:Src/usbd_conf.c **** 
 193:Src/usbd_conf.c **** /**
 194:Src/usbd_conf.c ****   * @brief  Reset callback.
 195:Src/usbd_conf.c ****   * @param  hpcd: PCD handle
 196:Src/usbd_conf.c ****   * @retval None
 197:Src/usbd_conf.c ****   */
 198:Src/usbd_conf.c **** #if (USE_HAL_PCD_REGISTER_CALLBACKS == 1U)
 199:Src/usbd_conf.c **** static void PCD_ResetCallback(PCD_HandleTypeDef *hpcd)
 200:Src/usbd_conf.c **** #else
 201:Src/usbd_conf.c **** void HAL_PCD_ResetCallback(PCD_HandleTypeDef *hpcd)
ARM GAS  /var/folders/md/lgcc8l7571l9vt9sx0g0zflw0000gn/T//ccpAt1EU.s 			page 5


 202:Src/usbd_conf.c **** #endif /* USE_HAL_PCD_REGISTER_CALLBACKS */
 203:Src/usbd_conf.c **** { 
 204:Src/usbd_conf.c ****   USBD_SpeedTypeDef speed = USBD_SPEED_FULL;
 205:Src/usbd_conf.c **** 
 206:Src/usbd_conf.c ****   if ( hpcd->Init.speed != PCD_SPEED_FULL)
 207:Src/usbd_conf.c ****   {
 208:Src/usbd_conf.c ****     Error_Handler();
 209:Src/usbd_conf.c ****   }
 210:Src/usbd_conf.c ****     /* Set Speed. */
 211:Src/usbd_conf.c ****   USBD_LL_SetSpeed((USBD_HandleTypeDef*)hpcd->pData, speed);
 212:Src/usbd_conf.c **** 
 213:Src/usbd_conf.c ****   /* Reset Device. */
 214:Src/usbd_conf.c ****   USBD_LL_Reset((USBD_HandleTypeDef*)hpcd->pData);
 215:Src/usbd_conf.c **** }
 216:Src/usbd_conf.c **** 
 217:Src/usbd_conf.c **** /**
 218:Src/usbd_conf.c ****   * @brief  Suspend callback.
 219:Src/usbd_conf.c ****   * When Low power mode is enabled the debug cannot be used (IAR, Keil doesn't support it)
 220:Src/usbd_conf.c ****   * @param  hpcd: PCD handle
 221:Src/usbd_conf.c ****   * @retval None
 222:Src/usbd_conf.c ****   */
 223:Src/usbd_conf.c **** #if (USE_HAL_PCD_REGISTER_CALLBACKS == 1U)
 224:Src/usbd_conf.c **** static void PCD_SuspendCallback(PCD_HandleTypeDef *hpcd)
 225:Src/usbd_conf.c **** #else
 226:Src/usbd_conf.c **** void HAL_PCD_SuspendCallback(PCD_HandleTypeDef *hpcd)
 227:Src/usbd_conf.c **** #endif /* USE_HAL_PCD_REGISTER_CALLBACKS */
 228:Src/usbd_conf.c **** {
 229:Src/usbd_conf.c ****   /* Inform USB library that core enters in suspend Mode. */
 230:Src/usbd_conf.c ****   USBD_LL_Suspend((USBD_HandleTypeDef*)hpcd->pData);
 231:Src/usbd_conf.c ****   /* Enter in STOP mode. */
 232:Src/usbd_conf.c ****   /* USER CODE BEGIN 2 */
 233:Src/usbd_conf.c ****   if (hpcd->Init.low_power_enable)
 234:Src/usbd_conf.c ****   {
 235:Src/usbd_conf.c ****     /* Set SLEEPDEEP bit and SleepOnExit of Cortex System Control Register. */
 236:Src/usbd_conf.c ****     SCB->SCR |= (uint32_t)((uint32_t)(SCB_SCR_SLEEPDEEP_Msk | SCB_SCR_SLEEPONEXIT_Msk));
 237:Src/usbd_conf.c ****   }
 238:Src/usbd_conf.c ****   /* USER CODE END 2 */
 239:Src/usbd_conf.c **** }
 240:Src/usbd_conf.c **** 
 241:Src/usbd_conf.c **** /**
 242:Src/usbd_conf.c ****   * @brief  Resume callback.
 243:Src/usbd_conf.c ****   * When Low power mode is enabled the debug cannot be used (IAR, Keil doesn't support it)
 244:Src/usbd_conf.c ****   * @param  hpcd: PCD handle
 245:Src/usbd_conf.c ****   * @retval None
 246:Src/usbd_conf.c ****   */
 247:Src/usbd_conf.c **** #if (USE_HAL_PCD_REGISTER_CALLBACKS == 1U)
 248:Src/usbd_conf.c **** static void PCD_ResumeCallback(PCD_HandleTypeDef *hpcd)
 249:Src/usbd_conf.c **** #else
 250:Src/usbd_conf.c **** void HAL_PCD_ResumeCallback(PCD_HandleTypeDef *hpcd)
 251:Src/usbd_conf.c **** #endif /* USE_HAL_PCD_REGISTER_CALLBACKS */
 252:Src/usbd_conf.c **** {
 253:Src/usbd_conf.c ****   /* USER CODE BEGIN 3 */
 254:Src/usbd_conf.c **** 
 255:Src/usbd_conf.c ****   /* USER CODE END 3 */
 256:Src/usbd_conf.c ****   USBD_LL_Resume((USBD_HandleTypeDef*)hpcd->pData);
 257:Src/usbd_conf.c **** }
 258:Src/usbd_conf.c **** 
ARM GAS  /var/folders/md/lgcc8l7571l9vt9sx0g0zflw0000gn/T//ccpAt1EU.s 			page 6


 259:Src/usbd_conf.c **** /**
 260:Src/usbd_conf.c ****   * @brief  ISOOUTIncomplete callback.
 261:Src/usbd_conf.c ****   * @param  hpcd: PCD handle
 262:Src/usbd_conf.c ****   * @param  epnum: Endpoint number
 263:Src/usbd_conf.c ****   * @retval None
 264:Src/usbd_conf.c ****   */
 265:Src/usbd_conf.c **** #if (USE_HAL_PCD_REGISTER_CALLBACKS == 1U)
 266:Src/usbd_conf.c **** static void PCD_ISOOUTIncompleteCallback(PCD_HandleTypeDef *hpcd, uint8_t epnum)
 267:Src/usbd_conf.c **** #else
 268:Src/usbd_conf.c **** void HAL_PCD_ISOOUTIncompleteCallback(PCD_HandleTypeDef *hpcd, uint8_t epnum)
 269:Src/usbd_conf.c **** #endif /* USE_HAL_PCD_REGISTER_CALLBACKS */
 270:Src/usbd_conf.c **** {
 271:Src/usbd_conf.c ****   USBD_LL_IsoOUTIncomplete((USBD_HandleTypeDef*)hpcd->pData, epnum);
 272:Src/usbd_conf.c **** }
 273:Src/usbd_conf.c **** 
 274:Src/usbd_conf.c **** /**
 275:Src/usbd_conf.c ****   * @brief  ISOINIncomplete callback.
 276:Src/usbd_conf.c ****   * @param  hpcd: PCD handle
 277:Src/usbd_conf.c ****   * @param  epnum: Endpoint number
 278:Src/usbd_conf.c ****   * @retval None
 279:Src/usbd_conf.c ****   */
 280:Src/usbd_conf.c **** #if (USE_HAL_PCD_REGISTER_CALLBACKS == 1U)
 281:Src/usbd_conf.c **** static void PCD_ISOINIncompleteCallback(PCD_HandleTypeDef *hpcd, uint8_t epnum)
 282:Src/usbd_conf.c **** #else
 283:Src/usbd_conf.c **** void HAL_PCD_ISOINIncompleteCallback(PCD_HandleTypeDef *hpcd, uint8_t epnum)
 284:Src/usbd_conf.c **** #endif /* USE_HAL_PCD_REGISTER_CALLBACKS */
 285:Src/usbd_conf.c **** {
 286:Src/usbd_conf.c ****   USBD_LL_IsoINIncomplete((USBD_HandleTypeDef*)hpcd->pData, epnum);
 287:Src/usbd_conf.c **** }
 288:Src/usbd_conf.c **** 
 289:Src/usbd_conf.c **** /**
 290:Src/usbd_conf.c ****   * @brief  Connect callback.
 291:Src/usbd_conf.c ****   * @param  hpcd: PCD handle
 292:Src/usbd_conf.c ****   * @retval None
 293:Src/usbd_conf.c ****   */
 294:Src/usbd_conf.c **** #if (USE_HAL_PCD_REGISTER_CALLBACKS == 1U)
 295:Src/usbd_conf.c **** static void PCD_ConnectCallback(PCD_HandleTypeDef *hpcd)
 296:Src/usbd_conf.c **** #else
 297:Src/usbd_conf.c **** void HAL_PCD_ConnectCallback(PCD_HandleTypeDef *hpcd)
 298:Src/usbd_conf.c **** #endif /* USE_HAL_PCD_REGISTER_CALLBACKS */
 299:Src/usbd_conf.c **** {
 300:Src/usbd_conf.c ****   USBD_LL_DevConnected((USBD_HandleTypeDef*)hpcd->pData);
 301:Src/usbd_conf.c **** }
 302:Src/usbd_conf.c **** 
 303:Src/usbd_conf.c **** /**
 304:Src/usbd_conf.c ****   * @brief  Disconnect callback.
 305:Src/usbd_conf.c ****   * @param  hpcd: PCD handle
 306:Src/usbd_conf.c ****   * @retval None
 307:Src/usbd_conf.c ****   */
 308:Src/usbd_conf.c **** #if (USE_HAL_PCD_REGISTER_CALLBACKS == 1U)
 309:Src/usbd_conf.c **** static void PCD_DisconnectCallback(PCD_HandleTypeDef *hpcd)
 310:Src/usbd_conf.c **** #else
 311:Src/usbd_conf.c **** void HAL_PCD_DisconnectCallback(PCD_HandleTypeDef *hpcd)
 312:Src/usbd_conf.c **** #endif /* USE_HAL_PCD_REGISTER_CALLBACKS */
 313:Src/usbd_conf.c **** {
 314:Src/usbd_conf.c ****   USBD_LL_DevDisconnected((USBD_HandleTypeDef*)hpcd->pData);
 315:Src/usbd_conf.c **** }
ARM GAS  /var/folders/md/lgcc8l7571l9vt9sx0g0zflw0000gn/T//ccpAt1EU.s 			page 7


 316:Src/usbd_conf.c **** 
 317:Src/usbd_conf.c **** /*******************************************************************************
 318:Src/usbd_conf.c ****                        LL Driver Interface (USB Device Library --> PCD)
 319:Src/usbd_conf.c **** *******************************************************************************/
 320:Src/usbd_conf.c **** 
 321:Src/usbd_conf.c **** /**
 322:Src/usbd_conf.c ****   * @brief  Initializes the low level portion of the device driver.
 323:Src/usbd_conf.c ****   * @param  pdev: Device handle
 324:Src/usbd_conf.c ****   * @retval USBD status
 325:Src/usbd_conf.c ****   */
 326:Src/usbd_conf.c **** USBD_StatusTypeDef USBD_LL_Init(USBD_HandleTypeDef *pdev)
 327:Src/usbd_conf.c **** {
 328:Src/usbd_conf.c ****   /* Init USB Ip. */
 329:Src/usbd_conf.c ****   /* Link the driver to the stack. */
 330:Src/usbd_conf.c ****   hpcd_USB_FS.pData = pdev;
 331:Src/usbd_conf.c ****   pdev->pData = &hpcd_USB_FS;
 332:Src/usbd_conf.c **** 
 333:Src/usbd_conf.c ****   hpcd_USB_FS.Instance = USB;
 334:Src/usbd_conf.c ****   hpcd_USB_FS.Init.dev_endpoints = 8;
 335:Src/usbd_conf.c ****   hpcd_USB_FS.Init.speed = PCD_SPEED_FULL;
 336:Src/usbd_conf.c ****   hpcd_USB_FS.Init.phy_itface = PCD_PHY_EMBEDDED;
 337:Src/usbd_conf.c ****   hpcd_USB_FS.Init.low_power_enable = DISABLE;
 338:Src/usbd_conf.c ****   hpcd_USB_FS.Init.battery_charging_enable = DISABLE;
 339:Src/usbd_conf.c ****   if (HAL_PCD_Init(&hpcd_USB_FS) != HAL_OK)
 340:Src/usbd_conf.c ****   {
 341:Src/usbd_conf.c ****     Error_Handler( );
 342:Src/usbd_conf.c ****   }
 343:Src/usbd_conf.c **** 
 344:Src/usbd_conf.c **** #if (USE_HAL_PCD_REGISTER_CALLBACKS == 1U)
 345:Src/usbd_conf.c ****   /* Register USB PCD CallBacks */
 346:Src/usbd_conf.c ****   HAL_PCD_RegisterCallback(&hpcd_USB_FS, HAL_PCD_SOF_CB_ID, PCD_SOFCallback);
 347:Src/usbd_conf.c ****   HAL_PCD_RegisterCallback(&hpcd_USB_FS, HAL_PCD_SETUPSTAGE_CB_ID, PCD_SetupStageCallback);
 348:Src/usbd_conf.c ****   HAL_PCD_RegisterCallback(&hpcd_USB_FS, HAL_PCD_RESET_CB_ID, PCD_ResetCallback);
 349:Src/usbd_conf.c ****   HAL_PCD_RegisterCallback(&hpcd_USB_FS, HAL_PCD_SUSPEND_CB_ID, PCD_SuspendCallback);
 350:Src/usbd_conf.c ****   HAL_PCD_RegisterCallback(&hpcd_USB_FS, HAL_PCD_RESUME_CB_ID, PCD_ResumeCallback);
 351:Src/usbd_conf.c ****   HAL_PCD_RegisterCallback(&hpcd_USB_FS, HAL_PCD_CONNECT_CB_ID, PCD_ConnectCallback);
 352:Src/usbd_conf.c ****   HAL_PCD_RegisterCallback(&hpcd_USB_FS, HAL_PCD_DISCONNECT_CB_ID, PCD_DisconnectCallback);
 353:Src/usbd_conf.c **** 
 354:Src/usbd_conf.c ****   HAL_PCD_RegisterDataOutStageCallback(&hpcd_USB_FS, PCD_DataOutStageCallback);
 355:Src/usbd_conf.c ****   HAL_PCD_RegisterDataInStageCallback(&hpcd_USB_FS, PCD_DataInStageCallback);
 356:Src/usbd_conf.c ****   HAL_PCD_RegisterIsoOutIncpltCallback(&hpcd_USB_FS, PCD_ISOOUTIncompleteCallback);
 357:Src/usbd_conf.c ****   HAL_PCD_RegisterIsoInIncpltCallback(&hpcd_USB_FS, PCD_ISOINIncompleteCallback);
 358:Src/usbd_conf.c **** #endif /* USE_HAL_PCD_REGISTER_CALLBACKS */
 359:Src/usbd_conf.c ****   /* USER CODE BEGIN EndPoint_Configuration */
 360:Src/usbd_conf.c ****   HAL_PCDEx_PMAConfig((PCD_HandleTypeDef*)pdev->pData , 0x00 , PCD_SNG_BUF, 0x18);
 361:Src/usbd_conf.c ****   HAL_PCDEx_PMAConfig((PCD_HandleTypeDef*)pdev->pData , 0x80 , PCD_SNG_BUF, 0x58);
 362:Src/usbd_conf.c ****   /* USER CODE END EndPoint_Configuration */
 363:Src/usbd_conf.c ****   return USBD_OK;
 364:Src/usbd_conf.c **** }
 365:Src/usbd_conf.c **** 
 366:Src/usbd_conf.c **** /**
 367:Src/usbd_conf.c ****   * @brief  De-Initializes the low level portion of the device driver.
 368:Src/usbd_conf.c ****   * @param  pdev: Device handle
 369:Src/usbd_conf.c ****   * @retval USBD status
 370:Src/usbd_conf.c ****   */
 371:Src/usbd_conf.c **** USBD_StatusTypeDef USBD_LL_DeInit(USBD_HandleTypeDef *pdev)
 372:Src/usbd_conf.c **** {
ARM GAS  /var/folders/md/lgcc8l7571l9vt9sx0g0zflw0000gn/T//ccpAt1EU.s 			page 8


 373:Src/usbd_conf.c ****   HAL_StatusTypeDef hal_status = HAL_OK;
 374:Src/usbd_conf.c ****   USBD_StatusTypeDef usb_status = USBD_OK;
 375:Src/usbd_conf.c **** 
 376:Src/usbd_conf.c ****   hal_status = HAL_PCD_DeInit(pdev->pData);
 377:Src/usbd_conf.c **** 
 378:Src/usbd_conf.c ****   usb_status =  USBD_Get_USB_Status(hal_status);
 379:Src/usbd_conf.c ****  
 380:Src/usbd_conf.c ****   return usb_status; 
 381:Src/usbd_conf.c **** }
 382:Src/usbd_conf.c **** 
 383:Src/usbd_conf.c **** /**
 384:Src/usbd_conf.c ****   * @brief  Starts the low level portion of the device driver.
 385:Src/usbd_conf.c ****   * @param  pdev: Device handle
 386:Src/usbd_conf.c ****   * @retval USBD status
 387:Src/usbd_conf.c ****   */
 388:Src/usbd_conf.c **** USBD_StatusTypeDef USBD_LL_Start(USBD_HandleTypeDef *pdev)
 389:Src/usbd_conf.c **** {
 390:Src/usbd_conf.c ****   HAL_StatusTypeDef hal_status = HAL_OK;
 391:Src/usbd_conf.c ****   USBD_StatusTypeDef usb_status = USBD_OK;
 392:Src/usbd_conf.c ****  
 393:Src/usbd_conf.c ****   hal_status = HAL_PCD_Start(pdev->pData);
 394:Src/usbd_conf.c ****   
 395:Src/usbd_conf.c ****   usb_status =  USBD_Get_USB_Status(hal_status);  
 396:Src/usbd_conf.c ****   
 397:Src/usbd_conf.c ****   return usb_status;
 398:Src/usbd_conf.c **** }
 399:Src/usbd_conf.c **** 
 400:Src/usbd_conf.c **** /**
 401:Src/usbd_conf.c ****   * @brief  Stops the low level portion of the device driver.
 402:Src/usbd_conf.c ****   * @param  pdev: Device handle
 403:Src/usbd_conf.c ****   * @retval USBD status
 404:Src/usbd_conf.c ****   */
 405:Src/usbd_conf.c **** USBD_StatusTypeDef USBD_LL_Stop(USBD_HandleTypeDef *pdev)
 406:Src/usbd_conf.c **** {
 407:Src/usbd_conf.c ****   HAL_StatusTypeDef hal_status = HAL_OK;
 408:Src/usbd_conf.c ****   USBD_StatusTypeDef usb_status = USBD_OK;
 409:Src/usbd_conf.c **** 
 410:Src/usbd_conf.c ****   hal_status = HAL_PCD_Stop(pdev->pData);
 411:Src/usbd_conf.c **** 
 412:Src/usbd_conf.c ****   usb_status =  USBD_Get_USB_Status(hal_status);
 413:Src/usbd_conf.c ****   
 414:Src/usbd_conf.c ****   return usb_status;
 415:Src/usbd_conf.c **** }
 416:Src/usbd_conf.c **** 
 417:Src/usbd_conf.c **** /**
 418:Src/usbd_conf.c ****   * @brief  Opens an endpoint of the low level driver.
 419:Src/usbd_conf.c ****   * @param  pdev: Device handle
 420:Src/usbd_conf.c ****   * @param  ep_addr: Endpoint number
 421:Src/usbd_conf.c ****   * @param  ep_type: Endpoint type
 422:Src/usbd_conf.c ****   * @param  ep_mps: Endpoint max packet size
 423:Src/usbd_conf.c ****   * @retval USBD status
 424:Src/usbd_conf.c ****   */
 425:Src/usbd_conf.c **** USBD_StatusTypeDef USBD_LL_OpenEP(USBD_HandleTypeDef *pdev, uint8_t ep_addr, uint8_t ep_type, uint1
 426:Src/usbd_conf.c **** {
 427:Src/usbd_conf.c ****   HAL_StatusTypeDef hal_status = HAL_OK;
 428:Src/usbd_conf.c ****   USBD_StatusTypeDef usb_status = USBD_OK;
 429:Src/usbd_conf.c **** 
ARM GAS  /var/folders/md/lgcc8l7571l9vt9sx0g0zflw0000gn/T//ccpAt1EU.s 			page 9


 430:Src/usbd_conf.c ****   hal_status = HAL_PCD_EP_Open(pdev->pData, ep_addr, ep_mps, ep_type);
 431:Src/usbd_conf.c **** 
 432:Src/usbd_conf.c ****   usb_status =  USBD_Get_USB_Status(hal_status);
 433:Src/usbd_conf.c ****  
 434:Src/usbd_conf.c ****   return usb_status;
 435:Src/usbd_conf.c **** }
 436:Src/usbd_conf.c **** 
 437:Src/usbd_conf.c **** /**
 438:Src/usbd_conf.c ****   * @brief  Closes an endpoint of the low level driver.
 439:Src/usbd_conf.c ****   * @param  pdev: Device handle
 440:Src/usbd_conf.c ****   * @param  ep_addr: Endpoint number
 441:Src/usbd_conf.c ****   * @retval USBD status
 442:Src/usbd_conf.c ****   */
 443:Src/usbd_conf.c **** USBD_StatusTypeDef USBD_LL_CloseEP(USBD_HandleTypeDef *pdev, uint8_t ep_addr)
 444:Src/usbd_conf.c **** {
 445:Src/usbd_conf.c ****   HAL_StatusTypeDef hal_status = HAL_OK;
 446:Src/usbd_conf.c ****   USBD_StatusTypeDef usb_status = USBD_OK;
 447:Src/usbd_conf.c ****   
 448:Src/usbd_conf.c ****   hal_status = HAL_PCD_EP_Close(pdev->pData, ep_addr);
 449:Src/usbd_conf.c ****       
 450:Src/usbd_conf.c ****   usb_status =  USBD_Get_USB_Status(hal_status);
 451:Src/usbd_conf.c **** 
 452:Src/usbd_conf.c ****   return usb_status;  
 453:Src/usbd_conf.c **** }
 454:Src/usbd_conf.c **** 
 455:Src/usbd_conf.c **** /**
 456:Src/usbd_conf.c ****   * @brief  Flushes an endpoint of the Low Level Driver.
 457:Src/usbd_conf.c ****   * @param  pdev: Device handle
 458:Src/usbd_conf.c ****   * @param  ep_addr: Endpoint number
 459:Src/usbd_conf.c ****   * @retval USBD status
 460:Src/usbd_conf.c ****   */
 461:Src/usbd_conf.c **** USBD_StatusTypeDef USBD_LL_FlushEP(USBD_HandleTypeDef *pdev, uint8_t ep_addr)
 462:Src/usbd_conf.c **** {
 463:Src/usbd_conf.c ****   HAL_StatusTypeDef hal_status = HAL_OK;
 464:Src/usbd_conf.c ****   USBD_StatusTypeDef usb_status = USBD_OK;
 465:Src/usbd_conf.c ****   
 466:Src/usbd_conf.c ****   hal_status = HAL_PCD_EP_Flush(pdev->pData, ep_addr);
 467:Src/usbd_conf.c ****       
 468:Src/usbd_conf.c ****   usb_status =  USBD_Get_USB_Status(hal_status);
 469:Src/usbd_conf.c ****   
 470:Src/usbd_conf.c ****   return usb_status;  
 471:Src/usbd_conf.c **** }
 472:Src/usbd_conf.c **** 
 473:Src/usbd_conf.c **** /**
 474:Src/usbd_conf.c ****   * @brief  Sets a Stall condition on an endpoint of the Low Level Driver.
 475:Src/usbd_conf.c ****   * @param  pdev: Device handle
 476:Src/usbd_conf.c ****   * @param  ep_addr: Endpoint number
 477:Src/usbd_conf.c ****   * @retval USBD status
 478:Src/usbd_conf.c ****   */
 479:Src/usbd_conf.c **** USBD_StatusTypeDef USBD_LL_StallEP(USBD_HandleTypeDef *pdev, uint8_t ep_addr)
 480:Src/usbd_conf.c **** {
 481:Src/usbd_conf.c ****   HAL_StatusTypeDef hal_status = HAL_OK;
 482:Src/usbd_conf.c ****   USBD_StatusTypeDef usb_status = USBD_OK;
 483:Src/usbd_conf.c ****   
 484:Src/usbd_conf.c ****   hal_status = HAL_PCD_EP_SetStall(pdev->pData, ep_addr);
 485:Src/usbd_conf.c **** 
 486:Src/usbd_conf.c ****   usb_status =  USBD_Get_USB_Status(hal_status);
ARM GAS  /var/folders/md/lgcc8l7571l9vt9sx0g0zflw0000gn/T//ccpAt1EU.s 			page 10


 487:Src/usbd_conf.c ****  
 488:Src/usbd_conf.c ****   return usb_status;  
 489:Src/usbd_conf.c **** }
 490:Src/usbd_conf.c **** 
 491:Src/usbd_conf.c **** /**
 492:Src/usbd_conf.c ****   * @brief  Clears a Stall condition on an endpoint of the Low Level Driver.
 493:Src/usbd_conf.c ****   * @param  pdev: Device handle
 494:Src/usbd_conf.c ****   * @param  ep_addr: Endpoint number
 495:Src/usbd_conf.c ****   * @retval USBD status
 496:Src/usbd_conf.c ****   */
 497:Src/usbd_conf.c **** USBD_StatusTypeDef USBD_LL_ClearStallEP(USBD_HandleTypeDef *pdev, uint8_t ep_addr)
 498:Src/usbd_conf.c **** {
 499:Src/usbd_conf.c ****   HAL_StatusTypeDef hal_status = HAL_OK;
 500:Src/usbd_conf.c ****   USBD_StatusTypeDef usb_status = USBD_OK;
 501:Src/usbd_conf.c ****   
 502:Src/usbd_conf.c ****   hal_status = HAL_PCD_EP_ClrStall(pdev->pData, ep_addr);  
 503:Src/usbd_conf.c ****      
 504:Src/usbd_conf.c ****   usb_status =  USBD_Get_USB_Status(hal_status);
 505:Src/usbd_conf.c **** 
 506:Src/usbd_conf.c ****   return usb_status; 
 507:Src/usbd_conf.c **** }
 508:Src/usbd_conf.c **** 
 509:Src/usbd_conf.c **** /**
 510:Src/usbd_conf.c ****   * @brief  Returns Stall condition.
 511:Src/usbd_conf.c ****   * @param  pdev: Device handle
 512:Src/usbd_conf.c ****   * @param  ep_addr: Endpoint number
 513:Src/usbd_conf.c ****   * @retval Stall (1: Yes, 0: No)
 514:Src/usbd_conf.c ****   */
 515:Src/usbd_conf.c **** uint8_t USBD_LL_IsStallEP(USBD_HandleTypeDef *pdev, uint8_t ep_addr)
 516:Src/usbd_conf.c **** {
 517:Src/usbd_conf.c ****   PCD_HandleTypeDef *hpcd = (PCD_HandleTypeDef*) pdev->pData;
 518:Src/usbd_conf.c ****   
 519:Src/usbd_conf.c ****   if((ep_addr & 0x80) == 0x80)
 520:Src/usbd_conf.c ****   {
 521:Src/usbd_conf.c ****     return hpcd->IN_ep[ep_addr & 0x7F].is_stall; 
 522:Src/usbd_conf.c ****   }
 523:Src/usbd_conf.c ****   else
 524:Src/usbd_conf.c ****   {
 525:Src/usbd_conf.c ****     return hpcd->OUT_ep[ep_addr & 0x7F].is_stall; 
 526:Src/usbd_conf.c ****   }
 527:Src/usbd_conf.c **** }
 528:Src/usbd_conf.c **** 
 529:Src/usbd_conf.c **** /**
 530:Src/usbd_conf.c ****   * @brief  Assigns a USB address to the device.
 531:Src/usbd_conf.c ****   * @param  pdev: Device handle
 532:Src/usbd_conf.c ****   * @param  dev_addr: Device address
 533:Src/usbd_conf.c ****   * @retval USBD status
 534:Src/usbd_conf.c ****   */
 535:Src/usbd_conf.c **** USBD_StatusTypeDef USBD_LL_SetUSBAddress(USBD_HandleTypeDef *pdev, uint8_t dev_addr)
 536:Src/usbd_conf.c **** {
 537:Src/usbd_conf.c ****   HAL_StatusTypeDef hal_status = HAL_OK;
 538:Src/usbd_conf.c ****   USBD_StatusTypeDef usb_status = USBD_OK;
 539:Src/usbd_conf.c ****   
 540:Src/usbd_conf.c ****   hal_status = HAL_PCD_SetAddress(pdev->pData, dev_addr);
 541:Src/usbd_conf.c ****      
 542:Src/usbd_conf.c ****   usb_status =  USBD_Get_USB_Status(hal_status);
 543:Src/usbd_conf.c ****  
ARM GAS  /var/folders/md/lgcc8l7571l9vt9sx0g0zflw0000gn/T//ccpAt1EU.s 			page 11


 544:Src/usbd_conf.c ****   return usb_status;  
 545:Src/usbd_conf.c **** }
 546:Src/usbd_conf.c **** 
 547:Src/usbd_conf.c **** /**
 548:Src/usbd_conf.c ****   * @brief  Transmits data over an endpoint.
 549:Src/usbd_conf.c ****   * @param  pdev: Device handle
 550:Src/usbd_conf.c ****   * @param  ep_addr: Endpoint number
 551:Src/usbd_conf.c ****   * @param  pbuf: Pointer to data to be sent
 552:Src/usbd_conf.c ****   * @param  size: Data size    
 553:Src/usbd_conf.c ****   * @retval USBD status
 554:Src/usbd_conf.c ****   */
 555:Src/usbd_conf.c **** USBD_StatusTypeDef USBD_LL_Transmit(USBD_HandleTypeDef *pdev, uint8_t ep_addr, uint8_t *pbuf, uint1
 556:Src/usbd_conf.c **** {
 557:Src/usbd_conf.c ****   HAL_StatusTypeDef hal_status = HAL_OK;
 558:Src/usbd_conf.c ****   USBD_StatusTypeDef usb_status = USBD_OK;
 559:Src/usbd_conf.c **** 
 560:Src/usbd_conf.c ****   hal_status = HAL_PCD_EP_Transmit(pdev->pData, ep_addr, pbuf, size);
 561:Src/usbd_conf.c ****      
 562:Src/usbd_conf.c ****   usb_status =  USBD_Get_USB_Status(hal_status);
 563:Src/usbd_conf.c ****   
 564:Src/usbd_conf.c ****   return usb_status;    
 565:Src/usbd_conf.c **** }
 566:Src/usbd_conf.c **** 
 567:Src/usbd_conf.c **** /**
 568:Src/usbd_conf.c ****   * @brief  Prepares an endpoint for reception.
 569:Src/usbd_conf.c ****   * @param  pdev: Device handle
 570:Src/usbd_conf.c ****   * @param  ep_addr: Endpoint number
 571:Src/usbd_conf.c ****   * @param  pbuf: Pointer to data to be received
 572:Src/usbd_conf.c ****   * @param  size: Data size
 573:Src/usbd_conf.c ****   * @retval USBD status
 574:Src/usbd_conf.c ****   */
 575:Src/usbd_conf.c **** USBD_StatusTypeDef USBD_LL_PrepareReceive(USBD_HandleTypeDef *pdev, uint8_t ep_addr, uint8_t *pbuf,
 576:Src/usbd_conf.c **** {
 577:Src/usbd_conf.c ****   HAL_StatusTypeDef hal_status = HAL_OK;
 578:Src/usbd_conf.c ****   USBD_StatusTypeDef usb_status = USBD_OK;
 579:Src/usbd_conf.c **** 
 580:Src/usbd_conf.c ****   hal_status = HAL_PCD_EP_Receive(pdev->pData, ep_addr, pbuf, size);
 581:Src/usbd_conf.c ****      
 582:Src/usbd_conf.c ****   usb_status =  USBD_Get_USB_Status(hal_status);
 583:Src/usbd_conf.c ****   	
 584:Src/usbd_conf.c ****   return usb_status; 
 585:Src/usbd_conf.c **** }
 586:Src/usbd_conf.c **** 
 587:Src/usbd_conf.c **** /**
 588:Src/usbd_conf.c ****   * @brief  Returns the last transfered packet size.
 589:Src/usbd_conf.c ****   * @param  pdev: Device handle
 590:Src/usbd_conf.c ****   * @param  ep_addr: Endpoint number
 591:Src/usbd_conf.c ****   * @retval Recived Data Size
 592:Src/usbd_conf.c ****   */
 593:Src/usbd_conf.c **** uint32_t USBD_LL_GetRxDataSize(USBD_HandleTypeDef *pdev, uint8_t ep_addr)
 594:Src/usbd_conf.c **** {
 595:Src/usbd_conf.c ****   return HAL_PCD_EP_GetRxCount((PCD_HandleTypeDef*) pdev->pData, ep_addr);
 596:Src/usbd_conf.c **** }
 597:Src/usbd_conf.c **** 
 598:Src/usbd_conf.c **** /**
 599:Src/usbd_conf.c ****   * @brief  Delays routine for the USB device library.
 600:Src/usbd_conf.c ****   * @param  Delay: Delay in ms
ARM GAS  /var/folders/md/lgcc8l7571l9vt9sx0g0zflw0000gn/T//ccpAt1EU.s 			page 12


 601:Src/usbd_conf.c ****   * @retval None
 602:Src/usbd_conf.c ****   */
 603:Src/usbd_conf.c **** void USBD_LL_Delay(uint32_t Delay)
 604:Src/usbd_conf.c **** {
 605:Src/usbd_conf.c ****   HAL_Delay(Delay);
 606:Src/usbd_conf.c **** }
 607:Src/usbd_conf.c **** 
 608:Src/usbd_conf.c **** /**
 609:Src/usbd_conf.c ****   * @brief  Static single allocation.
 610:Src/usbd_conf.c ****   * @param  size: Size of allocated memory
 611:Src/usbd_conf.c ****   * @retval None
 612:Src/usbd_conf.c ****   */
 613:Src/usbd_conf.c **** void *USBD_static_malloc(uint32_t size)
 614:Src/usbd_conf.c **** {
 615:Src/usbd_conf.c ****   static uint32_t mem[(sizeof(USBD_DFU_HandleTypeDef)/4)+1];/* On 32-bit boundary */
 616:Src/usbd_conf.c ****   return mem;
 617:Src/usbd_conf.c **** }
 618:Src/usbd_conf.c **** 
 619:Src/usbd_conf.c **** /**
 620:Src/usbd_conf.c ****   * @brief  Dummy memory free
 621:Src/usbd_conf.c ****   * @param  p: Pointer to allocated  memory address
 622:Src/usbd_conf.c ****   * @retval None
 623:Src/usbd_conf.c ****   */
 624:Src/usbd_conf.c **** void USBD_static_free(void *p)
 625:Src/usbd_conf.c **** {
 626:Src/usbd_conf.c **** 
 627:Src/usbd_conf.c **** }
 628:Src/usbd_conf.c **** 
 629:Src/usbd_conf.c **** /**
 630:Src/usbd_conf.c ****   * @brief Software device connection
 631:Src/usbd_conf.c ****   * @param hpcd: PCD handle
 632:Src/usbd_conf.c ****   * @param state: Connection state (0: disconnected / 1: connected)
 633:Src/usbd_conf.c ****   * @retval None
 634:Src/usbd_conf.c ****   */
 635:Src/usbd_conf.c **** #if (USE_HAL_PCD_REGISTER_CALLBACKS == 1U)
 636:Src/usbd_conf.c **** void PCDEx_SetConnectionState(PCD_HandleTypeDef *hpcd, uint8_t state)
 637:Src/usbd_conf.c **** #else
 638:Src/usbd_conf.c **** void HAL_PCDEx_SetConnectionState(PCD_HandleTypeDef *hpcd, uint8_t state)
 639:Src/usbd_conf.c **** #endif /* USE_HAL_PCD_REGISTER_CALLBACKS */
 640:Src/usbd_conf.c **** {
 641:Src/usbd_conf.c ****   /* USER CODE BEGIN 6 */
 642:Src/usbd_conf.c ****   if (state == 1)
 643:Src/usbd_conf.c ****   {
 644:Src/usbd_conf.c ****     /* Configure Low connection state. */
 645:Src/usbd_conf.c **** 
 646:Src/usbd_conf.c ****   }
 647:Src/usbd_conf.c ****   else
 648:Src/usbd_conf.c ****   {
 649:Src/usbd_conf.c ****     /* Configure High connection state. */
 650:Src/usbd_conf.c **** 
 651:Src/usbd_conf.c ****   }
 652:Src/usbd_conf.c ****   /* USER CODE END 6 */
 653:Src/usbd_conf.c **** }
 654:Src/usbd_conf.c **** 
 655:Src/usbd_conf.c **** /**
 656:Src/usbd_conf.c ****   * @brief  Retuns the USB status depending on the HAL status:
 657:Src/usbd_conf.c ****   * @param  hal_status: HAL status
ARM GAS  /var/folders/md/lgcc8l7571l9vt9sx0g0zflw0000gn/T//ccpAt1EU.s 			page 13


 658:Src/usbd_conf.c ****   * @retval USB status
 659:Src/usbd_conf.c ****   */
 660:Src/usbd_conf.c **** USBD_StatusTypeDef USBD_Get_USB_Status(HAL_StatusTypeDef hal_status)
 661:Src/usbd_conf.c **** {
  29              		.loc 1 661 1 view -0
  30              		.cfi_startproc
  31              		@ args = 0, pretend = 0, frame = 0
  32              		@ frame_needed = 0, uses_anonymous_args = 0
  33              		@ link register save eliminated.
 662:Src/usbd_conf.c ****   USBD_StatusTypeDef usb_status = USBD_OK;
  34              		.loc 1 662 3 view .LVU1
 663:Src/usbd_conf.c **** 
 664:Src/usbd_conf.c ****   switch (hal_status)
  35              		.loc 1 664 3 view .LVU2
  36 0000 0228     		cmp	r0, #2
  37 0002 05D8     		bhi	.L6
  38 0004 DFE800F0 		tbb	[pc, r0]
  39              	.L4:
  40 0008 05       		.byte	(.L2-.L4)/2
  41 0009 04       		.byte	(.L6-.L4)/2
  42 000a 02       		.byte	(.L3-.L4)/2
  43 000b 00       		.p2align 1
  44              	.L3:
 665:Src/usbd_conf.c ****   {
 666:Src/usbd_conf.c ****     case HAL_OK :
 667:Src/usbd_conf.c ****       usb_status = USBD_OK;
 668:Src/usbd_conf.c ****     break;
 669:Src/usbd_conf.c ****     case HAL_ERROR :
 670:Src/usbd_conf.c ****       usb_status = USBD_FAIL;
 671:Src/usbd_conf.c ****     break;
 672:Src/usbd_conf.c ****     case HAL_BUSY :
 673:Src/usbd_conf.c ****       usb_status = USBD_BUSY;
  45              		.loc 1 673 7 view .LVU3
  46              	.LVL1:
 674:Src/usbd_conf.c ****     break;
  47              		.loc 1 674 5 view .LVU4
 673:Src/usbd_conf.c ****     break;
  48              		.loc 1 673 18 is_stmt 0 view .LVU5
  49 000c 0120     		movs	r0, #1
  50              	.LVL2:
  51              		.loc 1 674 5 view .LVU6
  52 000e 7047     		bx	lr
  53              	.LVL3:
  54              	.L6:
 670:Src/usbd_conf.c ****     break;
  55              		.loc 1 670 18 view .LVU7
  56 0010 0220     		movs	r0, #2
  57              	.LVL4:
  58              	.L2:
 675:Src/usbd_conf.c ****     case HAL_TIMEOUT :
 676:Src/usbd_conf.c ****       usb_status = USBD_FAIL;
 677:Src/usbd_conf.c ****     break;
 678:Src/usbd_conf.c ****     default :
 679:Src/usbd_conf.c ****       usb_status = USBD_FAIL;
 680:Src/usbd_conf.c ****     break;
 681:Src/usbd_conf.c ****   }
 682:Src/usbd_conf.c ****   return usb_status;
ARM GAS  /var/folders/md/lgcc8l7571l9vt9sx0g0zflw0000gn/T//ccpAt1EU.s 			page 14


  59              		.loc 1 682 3 is_stmt 1 view .LVU8
 683:Src/usbd_conf.c **** }
  60              		.loc 1 683 1 is_stmt 0 view .LVU9
  61 0012 7047     		bx	lr
  62              		.cfi_endproc
  63              	.LFE157:
  65              		.section	.text.HAL_PCD_MspInit,"ax",%progbits
  66              		.align	1
  67              		.global	HAL_PCD_MspInit
  68              		.syntax unified
  69              		.thumb
  70              		.thumb_func
  71              		.fpu fpv4-sp-d16
  73              	HAL_PCD_MspInit:
  74              	.LVL5:
  75              	.LFB126:
  71:Src/usbd_conf.c ****   GPIO_InitTypeDef GPIO_InitStruct = {0};
  76              		.loc 1 71 1 is_stmt 1 view -0
  77              		.cfi_startproc
  78              		@ args = 0, pretend = 0, frame = 32
  79              		@ frame_needed = 0, uses_anonymous_args = 0
  71:Src/usbd_conf.c ****   GPIO_InitTypeDef GPIO_InitStruct = {0};
  80              		.loc 1 71 1 is_stmt 0 view .LVU11
  81 0000 F0B5     		push	{r4, r5, r6, r7, lr}
  82              	.LCFI0:
  83              		.cfi_def_cfa_offset 20
  84              		.cfi_offset 4, -20
  85              		.cfi_offset 5, -16
  86              		.cfi_offset 6, -12
  87              		.cfi_offset 7, -8
  88              		.cfi_offset 14, -4
  89 0002 89B0     		sub	sp, sp, #36
  90              	.LCFI1:
  91              		.cfi_def_cfa_offset 56
  72:Src/usbd_conf.c ****   if(pcdHandle->Instance==USB)
  92              		.loc 1 72 3 is_stmt 1 view .LVU12
  72:Src/usbd_conf.c ****   if(pcdHandle->Instance==USB)
  93              		.loc 1 72 20 is_stmt 0 view .LVU13
  94 0004 0023     		movs	r3, #0
  95 0006 0393     		str	r3, [sp, #12]
  96 0008 0493     		str	r3, [sp, #16]
  97 000a 0593     		str	r3, [sp, #20]
  98 000c 0693     		str	r3, [sp, #24]
  99 000e 0793     		str	r3, [sp, #28]
  73:Src/usbd_conf.c ****   {
 100              		.loc 1 73 3 is_stmt 1 view .LVU14
  73:Src/usbd_conf.c ****   {
 101              		.loc 1 73 15 is_stmt 0 view .LVU15
 102 0010 0268     		ldr	r2, [r0]
  73:Src/usbd_conf.c ****   {
 103              		.loc 1 73 5 view .LVU16
 104 0012 1E4B     		ldr	r3, .L11
 105 0014 9A42     		cmp	r2, r3
 106 0016 01D0     		beq	.L10
 107              	.LVL6:
 108              	.L7:
 108:Src/usbd_conf.c **** 
ARM GAS  /var/folders/md/lgcc8l7571l9vt9sx0g0zflw0000gn/T//ccpAt1EU.s 			page 15


 109              		.loc 1 108 1 view .LVU17
 110 0018 09B0     		add	sp, sp, #36
 111              	.LCFI2:
 112              		.cfi_remember_state
 113              		.cfi_def_cfa_offset 20
 114              		@ sp needed
 115 001a F0BD     		pop	{r4, r5, r6, r7, pc}
 116              	.LVL7:
 117              	.L10:
 118              	.LCFI3:
 119              		.cfi_restore_state
  79:Src/usbd_conf.c ****     /**USB GPIO Configuration    
 120              		.loc 1 79 5 is_stmt 1 view .LVU18
 121              	.LBB2:
  79:Src/usbd_conf.c ****     /**USB GPIO Configuration    
 122              		.loc 1 79 5 view .LVU19
  79:Src/usbd_conf.c ****     /**USB GPIO Configuration    
 123              		.loc 1 79 5 view .LVU20
 124 001c 1C4C     		ldr	r4, .L11+4
 125 001e 6369     		ldr	r3, [r4, #20]
 126 0020 43F40033 		orr	r3, r3, #131072
 127 0024 6361     		str	r3, [r4, #20]
  79:Src/usbd_conf.c ****     /**USB GPIO Configuration    
 128              		.loc 1 79 5 view .LVU21
 129 0026 6369     		ldr	r3, [r4, #20]
 130 0028 03F40033 		and	r3, r3, #131072
 131 002c 0193     		str	r3, [sp, #4]
  79:Src/usbd_conf.c ****     /**USB GPIO Configuration    
 132              		.loc 1 79 5 view .LVU22
 133 002e 019B     		ldr	r3, [sp, #4]
 134              	.LBE2:
  84:Src/usbd_conf.c ****     GPIO_InitStruct.Mode = GPIO_MODE_AF_PP;
 135              		.loc 1 84 5 view .LVU23
  84:Src/usbd_conf.c ****     GPIO_InitStruct.Mode = GPIO_MODE_AF_PP;
 136              		.loc 1 84 25 is_stmt 0 view .LVU24
 137 0030 4FF40063 		mov	r3, #2048
 138 0034 0393     		str	r3, [sp, #12]
  85:Src/usbd_conf.c ****     GPIO_InitStruct.Pull = GPIO_NOPULL;
 139              		.loc 1 85 5 is_stmt 1 view .LVU25
  85:Src/usbd_conf.c ****     GPIO_InitStruct.Pull = GPIO_NOPULL;
 140              		.loc 1 85 26 is_stmt 0 view .LVU26
 141 0036 0227     		movs	r7, #2
 142 0038 0497     		str	r7, [sp, #16]
  86:Src/usbd_conf.c ****     GPIO_InitStruct.Speed = GPIO_SPEED_FREQ_HIGH;
 143              		.loc 1 86 5 is_stmt 1 view .LVU27
  87:Src/usbd_conf.c ****     GPIO_InitStruct.Alternate = GPIO_AF14_USB;
 144              		.loc 1 87 5 view .LVU28
  87:Src/usbd_conf.c ****     GPIO_InitStruct.Alternate = GPIO_AF14_USB;
 145              		.loc 1 87 27 is_stmt 0 view .LVU29
 146 003a 0326     		movs	r6, #3
 147 003c 0696     		str	r6, [sp, #24]
  88:Src/usbd_conf.c ****     HAL_GPIO_Init(GPIOA, &GPIO_InitStruct);
 148              		.loc 1 88 5 is_stmt 1 view .LVU30
  88:Src/usbd_conf.c ****     HAL_GPIO_Init(GPIOA, &GPIO_InitStruct);
 149              		.loc 1 88 31 is_stmt 0 view .LVU31
 150 003e 0E25     		movs	r5, #14
 151 0040 0795     		str	r5, [sp, #28]
ARM GAS  /var/folders/md/lgcc8l7571l9vt9sx0g0zflw0000gn/T//ccpAt1EU.s 			page 16


  89:Src/usbd_conf.c **** 
 152              		.loc 1 89 5 is_stmt 1 view .LVU32
 153 0042 03A9     		add	r1, sp, #12
 154 0044 4FF09040 		mov	r0, #1207959552
 155              	.LVL8:
  89:Src/usbd_conf.c **** 
 156              		.loc 1 89 5 is_stmt 0 view .LVU33
 157 0048 FFF7FEFF 		bl	HAL_GPIO_Init
 158              	.LVL9:
  91:Src/usbd_conf.c ****     GPIO_InitStruct.Mode = GPIO_MODE_AF_PP;
 159              		.loc 1 91 5 is_stmt 1 view .LVU34
  91:Src/usbd_conf.c ****     GPIO_InitStruct.Mode = GPIO_MODE_AF_PP;
 160              		.loc 1 91 25 is_stmt 0 view .LVU35
 161 004c 4FF48053 		mov	r3, #4096
 162 0050 0393     		str	r3, [sp, #12]
  92:Src/usbd_conf.c ****     GPIO_InitStruct.Pull = GPIO_PULLUP;
 163              		.loc 1 92 5 is_stmt 1 view .LVU36
  92:Src/usbd_conf.c ****     GPIO_InitStruct.Pull = GPIO_PULLUP;
 164              		.loc 1 92 26 is_stmt 0 view .LVU37
 165 0052 0497     		str	r7, [sp, #16]
  93:Src/usbd_conf.c ****     GPIO_InitStruct.Speed = GPIO_SPEED_FREQ_HIGH;
 166              		.loc 1 93 5 is_stmt 1 view .LVU38
  93:Src/usbd_conf.c ****     GPIO_InitStruct.Speed = GPIO_SPEED_FREQ_HIGH;
 167              		.loc 1 93 26 is_stmt 0 view .LVU39
 168 0054 0123     		movs	r3, #1
 169 0056 0593     		str	r3, [sp, #20]
  94:Src/usbd_conf.c ****     GPIO_InitStruct.Alternate = GPIO_AF14_USB;
 170              		.loc 1 94 5 is_stmt 1 view .LVU40
  94:Src/usbd_conf.c ****     GPIO_InitStruct.Alternate = GPIO_AF14_USB;
 171              		.loc 1 94 27 is_stmt 0 view .LVU41
 172 0058 0696     		str	r6, [sp, #24]
  95:Src/usbd_conf.c ****     HAL_GPIO_Init(GPIOA, &GPIO_InitStruct);
 173              		.loc 1 95 5 is_stmt 1 view .LVU42
  95:Src/usbd_conf.c ****     HAL_GPIO_Init(GPIOA, &GPIO_InitStruct);
 174              		.loc 1 95 31 is_stmt 0 view .LVU43
 175 005a 0795     		str	r5, [sp, #28]
  96:Src/usbd_conf.c **** 
 176              		.loc 1 96 5 is_stmt 1 view .LVU44
 177 005c 03A9     		add	r1, sp, #12
 178 005e 4FF09040 		mov	r0, #1207959552
 179 0062 FFF7FEFF 		bl	HAL_GPIO_Init
 180              	.LVL10:
  99:Src/usbd_conf.c **** 
 181              		.loc 1 99 5 view .LVU45
 182              	.LBB3:
  99:Src/usbd_conf.c **** 
 183              		.loc 1 99 5 view .LVU46
  99:Src/usbd_conf.c **** 
 184              		.loc 1 99 5 view .LVU47
 185 0066 E369     		ldr	r3, [r4, #28]
 186 0068 43F40003 		orr	r3, r3, #8388608
 187 006c E361     		str	r3, [r4, #28]
  99:Src/usbd_conf.c **** 
 188              		.loc 1 99 5 view .LVU48
 189 006e E369     		ldr	r3, [r4, #28]
 190 0070 03F40003 		and	r3, r3, #8388608
 191 0074 0293     		str	r3, [sp, #8]
ARM GAS  /var/folders/md/lgcc8l7571l9vt9sx0g0zflw0000gn/T//ccpAt1EU.s 			page 17


  99:Src/usbd_conf.c **** 
 192              		.loc 1 99 5 view .LVU49
 193 0076 029B     		ldr	r3, [sp, #8]
 194              	.LBE3:
 102:Src/usbd_conf.c ****     HAL_NVIC_EnableIRQ(USB_LP_CAN_RX0_IRQn);
 195              		.loc 1 102 5 view .LVU50
 196 0078 0022     		movs	r2, #0
 197 007a 1146     		mov	r1, r2
 198 007c 1420     		movs	r0, #20
 199 007e FFF7FEFF 		bl	HAL_NVIC_SetPriority
 200              	.LVL11:
 103:Src/usbd_conf.c ****   /* USER CODE BEGIN USB_MspInit 1 */
 201              		.loc 1 103 5 view .LVU51
 202 0082 1420     		movs	r0, #20
 203 0084 FFF7FEFF 		bl	HAL_NVIC_EnableIRQ
 204              	.LVL12:
 108:Src/usbd_conf.c **** 
 205              		.loc 1 108 1 is_stmt 0 view .LVU52
 206 0088 C6E7     		b	.L7
 207              	.L12:
 208 008a 00BF     		.align	2
 209              	.L11:
 210 008c 005C0040 		.word	1073765376
 211 0090 00100240 		.word	1073876992
 212              		.cfi_endproc
 213              	.LFE126:
 215              		.section	.text.HAL_PCD_MspDeInit,"ax",%progbits
 216              		.align	1
 217              		.global	HAL_PCD_MspDeInit
 218              		.syntax unified
 219              		.thumb
 220              		.thumb_func
 221              		.fpu fpv4-sp-d16
 223              	HAL_PCD_MspDeInit:
 224              	.LVL13:
 225              	.LFB127:
 111:Src/usbd_conf.c ****   if(pcdHandle->Instance==USB)
 226              		.loc 1 111 1 is_stmt 1 view -0
 227              		.cfi_startproc
 228              		@ args = 0, pretend = 0, frame = 0
 229              		@ frame_needed = 0, uses_anonymous_args = 0
 111:Src/usbd_conf.c ****   if(pcdHandle->Instance==USB)
 230              		.loc 1 111 1 is_stmt 0 view .LVU54
 231 0000 08B5     		push	{r3, lr}
 232              	.LCFI4:
 233              		.cfi_def_cfa_offset 8
 234              		.cfi_offset 3, -8
 235              		.cfi_offset 14, -4
 112:Src/usbd_conf.c ****   {
 236              		.loc 1 112 3 is_stmt 1 view .LVU55
 112:Src/usbd_conf.c ****   {
 237              		.loc 1 112 15 is_stmt 0 view .LVU56
 238 0002 0268     		ldr	r2, [r0]
 112:Src/usbd_conf.c ****   {
 239              		.loc 1 112 5 view .LVU57
 240 0004 094B     		ldr	r3, .L17
 241 0006 9A42     		cmp	r2, r3
ARM GAS  /var/folders/md/lgcc8l7571l9vt9sx0g0zflw0000gn/T//ccpAt1EU.s 			page 18


 242 0008 00D0     		beq	.L16
 243              	.LVL14:
 244              	.L13:
 133:Src/usbd_conf.c **** 
 245              		.loc 1 133 1 view .LVU58
 246 000a 08BD     		pop	{r3, pc}
 247              	.LVL15:
 248              	.L16:
 118:Src/usbd_conf.c ****   
 249              		.loc 1 118 5 is_stmt 1 view .LVU59
 250 000c 084A     		ldr	r2, .L17+4
 251 000e D369     		ldr	r3, [r2, #28]
 252 0010 23F40003 		bic	r3, r3, #8388608
 253 0014 D361     		str	r3, [r2, #28]
 124:Src/usbd_conf.c **** 
 254              		.loc 1 124 5 view .LVU60
 255 0016 4FF4C051 		mov	r1, #6144
 256 001a 4FF09040 		mov	r0, #1207959552
 257              	.LVL16:
 124:Src/usbd_conf.c **** 
 258              		.loc 1 124 5 is_stmt 0 view .LVU61
 259 001e FFF7FEFF 		bl	HAL_GPIO_DeInit
 260              	.LVL17:
 127:Src/usbd_conf.c **** 
 261              		.loc 1 127 5 is_stmt 1 view .LVU62
 262 0022 1420     		movs	r0, #20
 263 0024 FFF7FEFF 		bl	HAL_NVIC_DisableIRQ
 264              	.LVL18:
 133:Src/usbd_conf.c **** 
 265              		.loc 1 133 1 is_stmt 0 view .LVU63
 266 0028 EFE7     		b	.L13
 267              	.L18:
 268 002a 00BF     		.align	2
 269              	.L17:
 270 002c 005C0040 		.word	1073765376
 271 0030 00100240 		.word	1073876992
 272              		.cfi_endproc
 273              	.LFE127:
 275              		.section	.text.HAL_PCD_SetupStageCallback,"ax",%progbits
 276              		.align	1
 277              		.global	HAL_PCD_SetupStageCallback
 278              		.syntax unified
 279              		.thumb
 280              		.thumb_func
 281              		.fpu fpv4-sp-d16
 283              	HAL_PCD_SetupStageCallback:
 284              	.LVL19:
 285              	.LFB128:
 145:Src/usbd_conf.c ****   USBD_LL_SetupStage((USBD_HandleTypeDef*)hpcd->pData, (uint8_t *)hpcd->Setup);
 286              		.loc 1 145 1 is_stmt 1 view -0
 287              		.cfi_startproc
 288              		@ args = 0, pretend = 0, frame = 0
 289              		@ frame_needed = 0, uses_anonymous_args = 0
 145:Src/usbd_conf.c ****   USBD_LL_SetupStage((USBD_HandleTypeDef*)hpcd->pData, (uint8_t *)hpcd->Setup);
 290              		.loc 1 145 1 is_stmt 0 view .LVU65
 291 0000 08B5     		push	{r3, lr}
 292              	.LCFI5:
ARM GAS  /var/folders/md/lgcc8l7571l9vt9sx0g0zflw0000gn/T//ccpAt1EU.s 			page 19


 293              		.cfi_def_cfa_offset 8
 294              		.cfi_offset 3, -8
 295              		.cfi_offset 14, -4
 146:Src/usbd_conf.c **** }
 296              		.loc 1 146 3 is_stmt 1 view .LVU66
 297 0002 00F55D71 		add	r1, r0, #884
 298 0006 D0F8A403 		ldr	r0, [r0, #932]
 299              	.LVL20:
 146:Src/usbd_conf.c **** }
 300              		.loc 1 146 3 is_stmt 0 view .LVU67
 301 000a FFF7FEFF 		bl	USBD_LL_SetupStage
 302              	.LVL21:
 147:Src/usbd_conf.c **** 
 303              		.loc 1 147 1 view .LVU68
 304 000e 08BD     		pop	{r3, pc}
 305              		.cfi_endproc
 306              	.LFE128:
 308              		.section	.text.HAL_PCD_DataOutStageCallback,"ax",%progbits
 309              		.align	1
 310              		.global	HAL_PCD_DataOutStageCallback
 311              		.syntax unified
 312              		.thumb
 313              		.thumb_func
 314              		.fpu fpv4-sp-d16
 316              	HAL_PCD_DataOutStageCallback:
 317              	.LVL22:
 318              	.LFB129:
 160:Src/usbd_conf.c ****   USBD_LL_DataOutStage((USBD_HandleTypeDef*)hpcd->pData, epnum, hpcd->OUT_ep[epnum].xfer_buff);
 319              		.loc 1 160 1 is_stmt 1 view -0
 320              		.cfi_startproc
 321              		@ args = 0, pretend = 0, frame = 0
 322              		@ frame_needed = 0, uses_anonymous_args = 0
 160:Src/usbd_conf.c ****   USBD_LL_DataOutStage((USBD_HandleTypeDef*)hpcd->pData, epnum, hpcd->OUT_ep[epnum].xfer_buff);
 323              		.loc 1 160 1 is_stmt 0 view .LVU70
 324 0000 08B5     		push	{r3, lr}
 325              	.LCFI6:
 326              		.cfi_def_cfa_offset 8
 327              		.cfi_offset 3, -8
 328              		.cfi_offset 14, -4
 161:Src/usbd_conf.c **** }
 329              		.loc 1 161 3 is_stmt 1 view .LVU71
 330 0002 C1EBC102 		rsb	r2, r1, r1, lsl #3
 331 0006 9300     		lsls	r3, r2, #2
 332 0008 0344     		add	r3, r3, r0
 333 000a D3F8DC21 		ldr	r2, [r3, #476]
 334 000e D0F8A403 		ldr	r0, [r0, #932]
 335              	.LVL23:
 161:Src/usbd_conf.c **** }
 336              		.loc 1 161 3 is_stmt 0 view .LVU72
 337 0012 FFF7FEFF 		bl	USBD_LL_DataOutStage
 338              	.LVL24:
 162:Src/usbd_conf.c **** 
 339              		.loc 1 162 1 view .LVU73
 340 0016 08BD     		pop	{r3, pc}
 341              		.cfi_endproc
 342              	.LFE129:
 344              		.section	.text.HAL_PCD_DataInStageCallback,"ax",%progbits
ARM GAS  /var/folders/md/lgcc8l7571l9vt9sx0g0zflw0000gn/T//ccpAt1EU.s 			page 20


 345              		.align	1
 346              		.global	HAL_PCD_DataInStageCallback
 347              		.syntax unified
 348              		.thumb
 349              		.thumb_func
 350              		.fpu fpv4-sp-d16
 352              	HAL_PCD_DataInStageCallback:
 353              	.LVL25:
 354              	.LFB130:
 175:Src/usbd_conf.c ****   USBD_LL_DataInStage((USBD_HandleTypeDef*)hpcd->pData, epnum, hpcd->IN_ep[epnum].xfer_buff);
 355              		.loc 1 175 1 is_stmt 1 view -0
 356              		.cfi_startproc
 357              		@ args = 0, pretend = 0, frame = 0
 358              		@ frame_needed = 0, uses_anonymous_args = 0
 175:Src/usbd_conf.c ****   USBD_LL_DataInStage((USBD_HandleTypeDef*)hpcd->pData, epnum, hpcd->IN_ep[epnum].xfer_buff);
 359              		.loc 1 175 1 is_stmt 0 view .LVU75
 360 0000 08B5     		push	{r3, lr}
 361              	.LCFI7:
 362              		.cfi_def_cfa_offset 8
 363              		.cfi_offset 3, -8
 364              		.cfi_offset 14, -4
 176:Src/usbd_conf.c **** }
 365              		.loc 1 176 3 is_stmt 1 view .LVU76
 366 0002 C1EBC102 		rsb	r2, r1, r1, lsl #3
 367 0006 9300     		lsls	r3, r2, #2
 368 0008 0344     		add	r3, r3, r0
 369 000a 9A6B     		ldr	r2, [r3, #56]
 370 000c D0F8A403 		ldr	r0, [r0, #932]
 371              	.LVL26:
 176:Src/usbd_conf.c **** }
 372              		.loc 1 176 3 is_stmt 0 view .LVU77
 373 0010 FFF7FEFF 		bl	USBD_LL_DataInStage
 374              	.LVL27:
 177:Src/usbd_conf.c **** 
 375              		.loc 1 177 1 view .LVU78
 376 0014 08BD     		pop	{r3, pc}
 377              		.cfi_endproc
 378              	.LFE130:
 380              		.section	.text.HAL_PCD_SOFCallback,"ax",%progbits
 381              		.align	1
 382              		.global	HAL_PCD_SOFCallback
 383              		.syntax unified
 384              		.thumb
 385              		.thumb_func
 386              		.fpu fpv4-sp-d16
 388              	HAL_PCD_SOFCallback:
 389              	.LVL28:
 390              	.LFB131:
 189:Src/usbd_conf.c ****   USBD_LL_SOF((USBD_HandleTypeDef*)hpcd->pData);
 391              		.loc 1 189 1 is_stmt 1 view -0
 392              		.cfi_startproc
 393              		@ args = 0, pretend = 0, frame = 0
 394              		@ frame_needed = 0, uses_anonymous_args = 0
 189:Src/usbd_conf.c ****   USBD_LL_SOF((USBD_HandleTypeDef*)hpcd->pData);
 395              		.loc 1 189 1 is_stmt 0 view .LVU80
 396 0000 08B5     		push	{r3, lr}
 397              	.LCFI8:
ARM GAS  /var/folders/md/lgcc8l7571l9vt9sx0g0zflw0000gn/T//ccpAt1EU.s 			page 21


 398              		.cfi_def_cfa_offset 8
 399              		.cfi_offset 3, -8
 400              		.cfi_offset 14, -4
 190:Src/usbd_conf.c **** }
 401              		.loc 1 190 3 is_stmt 1 view .LVU81
 402 0002 D0F8A403 		ldr	r0, [r0, #932]
 403              	.LVL29:
 190:Src/usbd_conf.c **** }
 404              		.loc 1 190 3 is_stmt 0 view .LVU82
 405 0006 FFF7FEFF 		bl	USBD_LL_SOF
 406              	.LVL30:
 191:Src/usbd_conf.c **** 
 407              		.loc 1 191 1 view .LVU83
 408 000a 08BD     		pop	{r3, pc}
 409              		.cfi_endproc
 410              	.LFE131:
 412              		.section	.text.HAL_PCD_ResetCallback,"ax",%progbits
 413              		.align	1
 414              		.global	HAL_PCD_ResetCallback
 415              		.syntax unified
 416              		.thumb
 417              		.thumb_func
 418              		.fpu fpv4-sp-d16
 420              	HAL_PCD_ResetCallback:
 421              	.LVL31:
 422              	.LFB132:
 203:Src/usbd_conf.c ****   USBD_SpeedTypeDef speed = USBD_SPEED_FULL;
 423              		.loc 1 203 1 is_stmt 1 view -0
 424              		.cfi_startproc
 425              		@ args = 0, pretend = 0, frame = 0
 426              		@ frame_needed = 0, uses_anonymous_args = 0
 203:Src/usbd_conf.c ****   USBD_SpeedTypeDef speed = USBD_SPEED_FULL;
 427              		.loc 1 203 1 is_stmt 0 view .LVU85
 428 0000 10B5     		push	{r4, lr}
 429              	.LCFI9:
 430              		.cfi_def_cfa_offset 8
 431              		.cfi_offset 4, -8
 432              		.cfi_offset 14, -4
 433 0002 0446     		mov	r4, r0
 204:Src/usbd_conf.c **** 
 434              		.loc 1 204 3 is_stmt 1 view .LVU86
 435              	.LVL32:
 206:Src/usbd_conf.c ****   {
 436              		.loc 1 206 3 view .LVU87
 206:Src/usbd_conf.c ****   {
 437              		.loc 1 206 18 is_stmt 0 view .LVU88
 438 0004 8368     		ldr	r3, [r0, #8]
 206:Src/usbd_conf.c ****   {
 439              		.loc 1 206 6 view .LVU89
 440 0006 022B     		cmp	r3, #2
 441 0008 09D1     		bne	.L30
 442              	.LVL33:
 443              	.L28:
 211:Src/usbd_conf.c **** 
 444              		.loc 1 211 3 is_stmt 1 view .LVU90
 445 000a 0121     		movs	r1, #1
 446 000c D4F8A403 		ldr	r0, [r4, #932]
ARM GAS  /var/folders/md/lgcc8l7571l9vt9sx0g0zflw0000gn/T//ccpAt1EU.s 			page 22


 447 0010 FFF7FEFF 		bl	USBD_LL_SetSpeed
 448              	.LVL34:
 214:Src/usbd_conf.c **** }
 449              		.loc 1 214 3 view .LVU91
 450 0014 D4F8A403 		ldr	r0, [r4, #932]
 451 0018 FFF7FEFF 		bl	USBD_LL_Reset
 452              	.LVL35:
 215:Src/usbd_conf.c **** 
 453              		.loc 1 215 1 is_stmt 0 view .LVU92
 454 001c 10BD     		pop	{r4, pc}
 455              	.LVL36:
 456              	.L30:
 208:Src/usbd_conf.c ****   }
 457              		.loc 1 208 5 is_stmt 1 view .LVU93
 458 001e FFF7FEFF 		bl	Error_Handler
 459              	.LVL37:
 208:Src/usbd_conf.c ****   }
 460              		.loc 1 208 5 is_stmt 0 view .LVU94
 461 0022 F2E7     		b	.L28
 462              		.cfi_endproc
 463              	.LFE132:
 465              		.section	.text.HAL_PCD_SuspendCallback,"ax",%progbits
 466              		.align	1
 467              		.global	HAL_PCD_SuspendCallback
 468              		.syntax unified
 469              		.thumb
 470              		.thumb_func
 471              		.fpu fpv4-sp-d16
 473              	HAL_PCD_SuspendCallback:
 474              	.LVL38:
 475              	.LFB133:
 228:Src/usbd_conf.c ****   /* Inform USB library that core enters in suspend Mode. */
 476              		.loc 1 228 1 is_stmt 1 view -0
 477              		.cfi_startproc
 478              		@ args = 0, pretend = 0, frame = 0
 479              		@ frame_needed = 0, uses_anonymous_args = 0
 228:Src/usbd_conf.c ****   /* Inform USB library that core enters in suspend Mode. */
 480              		.loc 1 228 1 is_stmt 0 view .LVU96
 481 0000 10B5     		push	{r4, lr}
 482              	.LCFI10:
 483              		.cfi_def_cfa_offset 8
 484              		.cfi_offset 4, -8
 485              		.cfi_offset 14, -4
 486 0002 0446     		mov	r4, r0
 230:Src/usbd_conf.c ****   /* Enter in STOP mode. */
 487              		.loc 1 230 3 is_stmt 1 view .LVU97
 488 0004 D0F8A403 		ldr	r0, [r0, #932]
 489              	.LVL39:
 230:Src/usbd_conf.c ****   /* Enter in STOP mode. */
 490              		.loc 1 230 3 is_stmt 0 view .LVU98
 491 0008 FFF7FEFF 		bl	USBD_LL_Suspend
 492              	.LVL40:
 233:Src/usbd_conf.c ****   {
 493              		.loc 1 233 3 is_stmt 1 view .LVU99
 233:Src/usbd_conf.c ****   {
 494              		.loc 1 233 17 is_stmt 0 view .LVU100
 495 000c A369     		ldr	r3, [r4, #24]
ARM GAS  /var/folders/md/lgcc8l7571l9vt9sx0g0zflw0000gn/T//ccpAt1EU.s 			page 23


 233:Src/usbd_conf.c ****   {
 496              		.loc 1 233 6 view .LVU101
 497 000e 23B1     		cbz	r3, .L31
 236:Src/usbd_conf.c ****   }
 498              		.loc 1 236 5 is_stmt 1 view .LVU102
 236:Src/usbd_conf.c ****   }
 499              		.loc 1 236 14 is_stmt 0 view .LVU103
 500 0010 024A     		ldr	r2, .L34
 501 0012 1369     		ldr	r3, [r2, #16]
 502 0014 43F00603 		orr	r3, r3, #6
 503 0018 1361     		str	r3, [r2, #16]
 504              	.L31:
 239:Src/usbd_conf.c **** 
 505              		.loc 1 239 1 view .LVU104
 506 001a 10BD     		pop	{r4, pc}
 507              	.LVL41:
 508              	.L35:
 239:Src/usbd_conf.c **** 
 509              		.loc 1 239 1 view .LVU105
 510              		.align	2
 511              	.L34:
 512 001c 00ED00E0 		.word	-536810240
 513              		.cfi_endproc
 514              	.LFE133:
 516              		.section	.text.HAL_PCD_ResumeCallback,"ax",%progbits
 517              		.align	1
 518              		.global	HAL_PCD_ResumeCallback
 519              		.syntax unified
 520              		.thumb
 521              		.thumb_func
 522              		.fpu fpv4-sp-d16
 524              	HAL_PCD_ResumeCallback:
 525              	.LVL42:
 526              	.LFB134:
 252:Src/usbd_conf.c ****   /* USER CODE BEGIN 3 */
 527              		.loc 1 252 1 is_stmt 1 view -0
 528              		.cfi_startproc
 529              		@ args = 0, pretend = 0, frame = 0
 530              		@ frame_needed = 0, uses_anonymous_args = 0
 252:Src/usbd_conf.c ****   /* USER CODE BEGIN 3 */
 531              		.loc 1 252 1 is_stmt 0 view .LVU107
 532 0000 08B5     		push	{r3, lr}
 533              	.LCFI11:
 534              		.cfi_def_cfa_offset 8
 535              		.cfi_offset 3, -8
 536              		.cfi_offset 14, -4
 256:Src/usbd_conf.c **** }
 537              		.loc 1 256 3 is_stmt 1 view .LVU108
 538 0002 D0F8A403 		ldr	r0, [r0, #932]
 539              	.LVL43:
 256:Src/usbd_conf.c **** }
 540              		.loc 1 256 3 is_stmt 0 view .LVU109
 541 0006 FFF7FEFF 		bl	USBD_LL_Resume
 542              	.LVL44:
 257:Src/usbd_conf.c **** 
 543              		.loc 1 257 1 view .LVU110
 544 000a 08BD     		pop	{r3, pc}
ARM GAS  /var/folders/md/lgcc8l7571l9vt9sx0g0zflw0000gn/T//ccpAt1EU.s 			page 24


 545              		.cfi_endproc
 546              	.LFE134:
 548              		.section	.text.HAL_PCD_ISOOUTIncompleteCallback,"ax",%progbits
 549              		.align	1
 550              		.global	HAL_PCD_ISOOUTIncompleteCallback
 551              		.syntax unified
 552              		.thumb
 553              		.thumb_func
 554              		.fpu fpv4-sp-d16
 556              	HAL_PCD_ISOOUTIncompleteCallback:
 557              	.LVL45:
 558              	.LFB135:
 270:Src/usbd_conf.c ****   USBD_LL_IsoOUTIncomplete((USBD_HandleTypeDef*)hpcd->pData, epnum);
 559              		.loc 1 270 1 is_stmt 1 view -0
 560              		.cfi_startproc
 561              		@ args = 0, pretend = 0, frame = 0
 562              		@ frame_needed = 0, uses_anonymous_args = 0
 270:Src/usbd_conf.c ****   USBD_LL_IsoOUTIncomplete((USBD_HandleTypeDef*)hpcd->pData, epnum);
 563              		.loc 1 270 1 is_stmt 0 view .LVU112
 564 0000 08B5     		push	{r3, lr}
 565              	.LCFI12:
 566              		.cfi_def_cfa_offset 8
 567              		.cfi_offset 3, -8
 568              		.cfi_offset 14, -4
 271:Src/usbd_conf.c **** }
 569              		.loc 1 271 3 is_stmt 1 view .LVU113
 570 0002 D0F8A403 		ldr	r0, [r0, #932]
 571              	.LVL46:
 271:Src/usbd_conf.c **** }
 572              		.loc 1 271 3 is_stmt 0 view .LVU114
 573 0006 FFF7FEFF 		bl	USBD_LL_IsoOUTIncomplete
 574              	.LVL47:
 272:Src/usbd_conf.c **** 
 575              		.loc 1 272 1 view .LVU115
 576 000a 08BD     		pop	{r3, pc}
 577              		.cfi_endproc
 578              	.LFE135:
 580              		.section	.text.HAL_PCD_ISOINIncompleteCallback,"ax",%progbits
 581              		.align	1
 582              		.global	HAL_PCD_ISOINIncompleteCallback
 583              		.syntax unified
 584              		.thumb
 585              		.thumb_func
 586              		.fpu fpv4-sp-d16
 588              	HAL_PCD_ISOINIncompleteCallback:
 589              	.LVL48:
 590              	.LFB136:
 285:Src/usbd_conf.c ****   USBD_LL_IsoINIncomplete((USBD_HandleTypeDef*)hpcd->pData, epnum);
 591              		.loc 1 285 1 is_stmt 1 view -0
 592              		.cfi_startproc
 593              		@ args = 0, pretend = 0, frame = 0
 594              		@ frame_needed = 0, uses_anonymous_args = 0
 285:Src/usbd_conf.c ****   USBD_LL_IsoINIncomplete((USBD_HandleTypeDef*)hpcd->pData, epnum);
 595              		.loc 1 285 1 is_stmt 0 view .LVU117
 596 0000 08B5     		push	{r3, lr}
 597              	.LCFI13:
 598              		.cfi_def_cfa_offset 8
ARM GAS  /var/folders/md/lgcc8l7571l9vt9sx0g0zflw0000gn/T//ccpAt1EU.s 			page 25


 599              		.cfi_offset 3, -8
 600              		.cfi_offset 14, -4
 286:Src/usbd_conf.c **** }
 601              		.loc 1 286 3 is_stmt 1 view .LVU118
 602 0002 D0F8A403 		ldr	r0, [r0, #932]
 603              	.LVL49:
 286:Src/usbd_conf.c **** }
 604              		.loc 1 286 3 is_stmt 0 view .LVU119
 605 0006 FFF7FEFF 		bl	USBD_LL_IsoINIncomplete
 606              	.LVL50:
 287:Src/usbd_conf.c **** 
 607              		.loc 1 287 1 view .LVU120
 608 000a 08BD     		pop	{r3, pc}
 609              		.cfi_endproc
 610              	.LFE136:
 612              		.section	.text.HAL_PCD_ConnectCallback,"ax",%progbits
 613              		.align	1
 614              		.global	HAL_PCD_ConnectCallback
 615              		.syntax unified
 616              		.thumb
 617              		.thumb_func
 618              		.fpu fpv4-sp-d16
 620              	HAL_PCD_ConnectCallback:
 621              	.LVL51:
 622              	.LFB137:
 299:Src/usbd_conf.c ****   USBD_LL_DevConnected((USBD_HandleTypeDef*)hpcd->pData);
 623              		.loc 1 299 1 is_stmt 1 view -0
 624              		.cfi_startproc
 625              		@ args = 0, pretend = 0, frame = 0
 626              		@ frame_needed = 0, uses_anonymous_args = 0
 299:Src/usbd_conf.c ****   USBD_LL_DevConnected((USBD_HandleTypeDef*)hpcd->pData);
 627              		.loc 1 299 1 is_stmt 0 view .LVU122
 628 0000 08B5     		push	{r3, lr}
 629              	.LCFI14:
 630              		.cfi_def_cfa_offset 8
 631              		.cfi_offset 3, -8
 632              		.cfi_offset 14, -4
 300:Src/usbd_conf.c **** }
 633              		.loc 1 300 3 is_stmt 1 view .LVU123
 634 0002 D0F8A403 		ldr	r0, [r0, #932]
 635              	.LVL52:
 300:Src/usbd_conf.c **** }
 636              		.loc 1 300 3 is_stmt 0 view .LVU124
 637 0006 FFF7FEFF 		bl	USBD_LL_DevConnected
 638              	.LVL53:
 301:Src/usbd_conf.c **** 
 639              		.loc 1 301 1 view .LVU125
 640 000a 08BD     		pop	{r3, pc}
 641              		.cfi_endproc
 642              	.LFE137:
 644              		.section	.text.HAL_PCD_DisconnectCallback,"ax",%progbits
 645              		.align	1
 646              		.global	HAL_PCD_DisconnectCallback
 647              		.syntax unified
 648              		.thumb
 649              		.thumb_func
 650              		.fpu fpv4-sp-d16
ARM GAS  /var/folders/md/lgcc8l7571l9vt9sx0g0zflw0000gn/T//ccpAt1EU.s 			page 26


 652              	HAL_PCD_DisconnectCallback:
 653              	.LVL54:
 654              	.LFB138:
 313:Src/usbd_conf.c ****   USBD_LL_DevDisconnected((USBD_HandleTypeDef*)hpcd->pData);
 655              		.loc 1 313 1 is_stmt 1 view -0
 656              		.cfi_startproc
 657              		@ args = 0, pretend = 0, frame = 0
 658              		@ frame_needed = 0, uses_anonymous_args = 0
 313:Src/usbd_conf.c ****   USBD_LL_DevDisconnected((USBD_HandleTypeDef*)hpcd->pData);
 659              		.loc 1 313 1 is_stmt 0 view .LVU127
 660 0000 08B5     		push	{r3, lr}
 661              	.LCFI15:
 662              		.cfi_def_cfa_offset 8
 663              		.cfi_offset 3, -8
 664              		.cfi_offset 14, -4
 314:Src/usbd_conf.c **** }
 665              		.loc 1 314 3 is_stmt 1 view .LVU128
 666 0002 D0F8A403 		ldr	r0, [r0, #932]
 667              	.LVL55:
 314:Src/usbd_conf.c **** }
 668              		.loc 1 314 3 is_stmt 0 view .LVU129
 669 0006 FFF7FEFF 		bl	USBD_LL_DevDisconnected
 670              	.LVL56:
 315:Src/usbd_conf.c **** 
 671              		.loc 1 315 1 view .LVU130
 672 000a 08BD     		pop	{r3, pc}
 673              		.cfi_endproc
 674              	.LFE138:
 676              		.section	.text.USBD_LL_Init,"ax",%progbits
 677              		.align	1
 678              		.global	USBD_LL_Init
 679              		.syntax unified
 680              		.thumb
 681              		.thumb_func
 682              		.fpu fpv4-sp-d16
 684              	USBD_LL_Init:
 685              	.LVL57:
 686              	.LFB139:
 327:Src/usbd_conf.c ****   /* Init USB Ip. */
 687              		.loc 1 327 1 is_stmt 1 view -0
 688              		.cfi_startproc
 689              		@ args = 0, pretend = 0, frame = 0
 690              		@ frame_needed = 0, uses_anonymous_args = 0
 327:Src/usbd_conf.c ****   /* Init USB Ip. */
 691              		.loc 1 327 1 is_stmt 0 view .LVU132
 692 0000 10B5     		push	{r4, lr}
 693              	.LCFI16:
 694              		.cfi_def_cfa_offset 8
 695              		.cfi_offset 4, -8
 696              		.cfi_offset 14, -4
 697 0002 0446     		mov	r4, r0
 330:Src/usbd_conf.c ****   pdev->pData = &hpcd_USB_FS;
 698              		.loc 1 330 3 is_stmt 1 view .LVU133
 330:Src/usbd_conf.c ****   pdev->pData = &hpcd_USB_FS;
 699              		.loc 1 330 21 is_stmt 0 view .LVU134
 700 0004 1248     		ldr	r0, .L50
 701              	.LVL58:
ARM GAS  /var/folders/md/lgcc8l7571l9vt9sx0g0zflw0000gn/T//ccpAt1EU.s 			page 27


 330:Src/usbd_conf.c ****   pdev->pData = &hpcd_USB_FS;
 702              		.loc 1 330 21 view .LVU135
 703 0006 C0F8A443 		str	r4, [r0, #932]
 331:Src/usbd_conf.c **** 
 704              		.loc 1 331 3 is_stmt 1 view .LVU136
 331:Src/usbd_conf.c **** 
 705              		.loc 1 331 15 is_stmt 0 view .LVU137
 706 000a C4F82002 		str	r0, [r4, #544]
 333:Src/usbd_conf.c ****   hpcd_USB_FS.Init.dev_endpoints = 8;
 707              		.loc 1 333 3 is_stmt 1 view .LVU138
 333:Src/usbd_conf.c ****   hpcd_USB_FS.Init.dev_endpoints = 8;
 708              		.loc 1 333 24 is_stmt 0 view .LVU139
 709 000e 114B     		ldr	r3, .L50+4
 710 0010 0360     		str	r3, [r0]
 334:Src/usbd_conf.c ****   hpcd_USB_FS.Init.speed = PCD_SPEED_FULL;
 711              		.loc 1 334 3 is_stmt 1 view .LVU140
 334:Src/usbd_conf.c ****   hpcd_USB_FS.Init.speed = PCD_SPEED_FULL;
 712              		.loc 1 334 34 is_stmt 0 view .LVU141
 713 0012 0823     		movs	r3, #8
 714 0014 4360     		str	r3, [r0, #4]
 335:Src/usbd_conf.c ****   hpcd_USB_FS.Init.phy_itface = PCD_PHY_EMBEDDED;
 715              		.loc 1 335 3 is_stmt 1 view .LVU142
 335:Src/usbd_conf.c ****   hpcd_USB_FS.Init.phy_itface = PCD_PHY_EMBEDDED;
 716              		.loc 1 335 26 is_stmt 0 view .LVU143
 717 0016 0223     		movs	r3, #2
 718 0018 8360     		str	r3, [r0, #8]
 336:Src/usbd_conf.c ****   hpcd_USB_FS.Init.low_power_enable = DISABLE;
 719              		.loc 1 336 3 is_stmt 1 view .LVU144
 336:Src/usbd_conf.c ****   hpcd_USB_FS.Init.low_power_enable = DISABLE;
 720              		.loc 1 336 31 is_stmt 0 view .LVU145
 721 001a 0361     		str	r3, [r0, #16]
 337:Src/usbd_conf.c ****   hpcd_USB_FS.Init.battery_charging_enable = DISABLE;
 722              		.loc 1 337 3 is_stmt 1 view .LVU146
 337:Src/usbd_conf.c ****   hpcd_USB_FS.Init.battery_charging_enable = DISABLE;
 723              		.loc 1 337 37 is_stmt 0 view .LVU147
 724 001c 0023     		movs	r3, #0
 725 001e 8361     		str	r3, [r0, #24]
 338:Src/usbd_conf.c ****   if (HAL_PCD_Init(&hpcd_USB_FS) != HAL_OK)
 726              		.loc 1 338 3 is_stmt 1 view .LVU148
 338:Src/usbd_conf.c ****   if (HAL_PCD_Init(&hpcd_USB_FS) != HAL_OK)
 727              		.loc 1 338 44 is_stmt 0 view .LVU149
 728 0020 0362     		str	r3, [r0, #32]
 339:Src/usbd_conf.c ****   {
 729              		.loc 1 339 3 is_stmt 1 view .LVU150
 339:Src/usbd_conf.c ****   {
 730              		.loc 1 339 7 is_stmt 0 view .LVU151
 731 0022 FFF7FEFF 		bl	HAL_PCD_Init
 732              	.LVL59:
 339:Src/usbd_conf.c ****   {
 733              		.loc 1 339 6 view .LVU152
 734 0026 78B9     		cbnz	r0, .L49
 735              	.L47:
 360:Src/usbd_conf.c ****   HAL_PCDEx_PMAConfig((PCD_HandleTypeDef*)pdev->pData , 0x80 , PCD_SNG_BUF, 0x58);
 736              		.loc 1 360 3 is_stmt 1 view .LVU153
 737 0028 1823     		movs	r3, #24
 738 002a 0022     		movs	r2, #0
 739 002c 1146     		mov	r1, r2
ARM GAS  /var/folders/md/lgcc8l7571l9vt9sx0g0zflw0000gn/T//ccpAt1EU.s 			page 28


 740 002e D4F82002 		ldr	r0, [r4, #544]
 741 0032 FFF7FEFF 		bl	HAL_PCDEx_PMAConfig
 742              	.LVL60:
 361:Src/usbd_conf.c ****   /* USER CODE END EndPoint_Configuration */
 743              		.loc 1 361 3 view .LVU154
 744 0036 5823     		movs	r3, #88
 745 0038 0022     		movs	r2, #0
 746 003a 8021     		movs	r1, #128
 747 003c D4F82002 		ldr	r0, [r4, #544]
 748 0040 FFF7FEFF 		bl	HAL_PCDEx_PMAConfig
 749              	.LVL61:
 363:Src/usbd_conf.c **** }
 750              		.loc 1 363 3 view .LVU155
 364:Src/usbd_conf.c **** 
 751              		.loc 1 364 1 is_stmt 0 view .LVU156
 752 0044 0020     		movs	r0, #0
 753 0046 10BD     		pop	{r4, pc}
 754              	.LVL62:
 755              	.L49:
 341:Src/usbd_conf.c ****   }
 756              		.loc 1 341 5 is_stmt 1 view .LVU157
 757 0048 FFF7FEFF 		bl	Error_Handler
 758              	.LVL63:
 759 004c ECE7     		b	.L47
 760              	.L51:
 761 004e 00BF     		.align	2
 762              	.L50:
 763 0050 00000000 		.word	hpcd_USB_FS
 764 0054 005C0040 		.word	1073765376
 765              		.cfi_endproc
 766              	.LFE139:
 768              		.section	.text.USBD_LL_DeInit,"ax",%progbits
 769              		.align	1
 770              		.global	USBD_LL_DeInit
 771              		.syntax unified
 772              		.thumb
 773              		.thumb_func
 774              		.fpu fpv4-sp-d16
 776              	USBD_LL_DeInit:
 777              	.LVL64:
 778              	.LFB140:
 372:Src/usbd_conf.c ****   HAL_StatusTypeDef hal_status = HAL_OK;
 779              		.loc 1 372 1 view -0
 780              		.cfi_startproc
 781              		@ args = 0, pretend = 0, frame = 0
 782              		@ frame_needed = 0, uses_anonymous_args = 0
 372:Src/usbd_conf.c ****   HAL_StatusTypeDef hal_status = HAL_OK;
 783              		.loc 1 372 1 is_stmt 0 view .LVU159
 784 0000 08B5     		push	{r3, lr}
 785              	.LCFI17:
 786              		.cfi_def_cfa_offset 8
 787              		.cfi_offset 3, -8
 788              		.cfi_offset 14, -4
 373:Src/usbd_conf.c ****   USBD_StatusTypeDef usb_status = USBD_OK;
 789              		.loc 1 373 3 is_stmt 1 view .LVU160
 790              	.LVL65:
 374:Src/usbd_conf.c **** 
ARM GAS  /var/folders/md/lgcc8l7571l9vt9sx0g0zflw0000gn/T//ccpAt1EU.s 			page 29


 791              		.loc 1 374 3 view .LVU161
 376:Src/usbd_conf.c **** 
 792              		.loc 1 376 3 view .LVU162
 376:Src/usbd_conf.c **** 
 793              		.loc 1 376 16 is_stmt 0 view .LVU163
 794 0002 D0F82002 		ldr	r0, [r0, #544]
 795              	.LVL66:
 376:Src/usbd_conf.c **** 
 796              		.loc 1 376 16 view .LVU164
 797 0006 FFF7FEFF 		bl	HAL_PCD_DeInit
 798              	.LVL67:
 378:Src/usbd_conf.c ****  
 799              		.loc 1 378 3 is_stmt 1 view .LVU165
 378:Src/usbd_conf.c ****  
 800              		.loc 1 378 17 is_stmt 0 view .LVU166
 801 000a FFF7FEFF 		bl	USBD_Get_USB_Status
 802              	.LVL68:
 380:Src/usbd_conf.c **** }
 803              		.loc 1 380 3 is_stmt 1 view .LVU167
 381:Src/usbd_conf.c **** 
 804              		.loc 1 381 1 is_stmt 0 view .LVU168
 805 000e 08BD     		pop	{r3, pc}
 806              		.cfi_endproc
 807              	.LFE140:
 809              		.section	.text.USBD_LL_Start,"ax",%progbits
 810              		.align	1
 811              		.global	USBD_LL_Start
 812              		.syntax unified
 813              		.thumb
 814              		.thumb_func
 815              		.fpu fpv4-sp-d16
 817              	USBD_LL_Start:
 818              	.LVL69:
 819              	.LFB141:
 389:Src/usbd_conf.c ****   HAL_StatusTypeDef hal_status = HAL_OK;
 820              		.loc 1 389 1 is_stmt 1 view -0
 821              		.cfi_startproc
 822              		@ args = 0, pretend = 0, frame = 0
 823              		@ frame_needed = 0, uses_anonymous_args = 0
 389:Src/usbd_conf.c ****   HAL_StatusTypeDef hal_status = HAL_OK;
 824              		.loc 1 389 1 is_stmt 0 view .LVU170
 825 0000 08B5     		push	{r3, lr}
 826              	.LCFI18:
 827              		.cfi_def_cfa_offset 8
 828              		.cfi_offset 3, -8
 829              		.cfi_offset 14, -4
 390:Src/usbd_conf.c ****   USBD_StatusTypeDef usb_status = USBD_OK;
 830              		.loc 1 390 3 is_stmt 1 view .LVU171
 831              	.LVL70:
 391:Src/usbd_conf.c ****  
 832              		.loc 1 391 3 view .LVU172
 393:Src/usbd_conf.c ****   
 833              		.loc 1 393 3 view .LVU173
 393:Src/usbd_conf.c ****   
 834              		.loc 1 393 16 is_stmt 0 view .LVU174
 835 0002 D0F82002 		ldr	r0, [r0, #544]
 836              	.LVL71:
ARM GAS  /var/folders/md/lgcc8l7571l9vt9sx0g0zflw0000gn/T//ccpAt1EU.s 			page 30


 393:Src/usbd_conf.c ****   
 837              		.loc 1 393 16 view .LVU175
 838 0006 FFF7FEFF 		bl	HAL_PCD_Start
 839              	.LVL72:
 395:Src/usbd_conf.c ****   
 840              		.loc 1 395 3 is_stmt 1 view .LVU176
 395:Src/usbd_conf.c ****   
 841              		.loc 1 395 17 is_stmt 0 view .LVU177
 842 000a FFF7FEFF 		bl	USBD_Get_USB_Status
 843              	.LVL73:
 397:Src/usbd_conf.c **** }
 844              		.loc 1 397 3 is_stmt 1 view .LVU178
 398:Src/usbd_conf.c **** 
 845              		.loc 1 398 1 is_stmt 0 view .LVU179
 846 000e 08BD     		pop	{r3, pc}
 847              		.cfi_endproc
 848              	.LFE141:
 850              		.section	.text.USBD_LL_Stop,"ax",%progbits
 851              		.align	1
 852              		.global	USBD_LL_Stop
 853              		.syntax unified
 854              		.thumb
 855              		.thumb_func
 856              		.fpu fpv4-sp-d16
 858              	USBD_LL_Stop:
 859              	.LVL74:
 860              	.LFB142:
 406:Src/usbd_conf.c ****   HAL_StatusTypeDef hal_status = HAL_OK;
 861              		.loc 1 406 1 is_stmt 1 view -0
 862              		.cfi_startproc
 863              		@ args = 0, pretend = 0, frame = 0
 864              		@ frame_needed = 0, uses_anonymous_args = 0
 406:Src/usbd_conf.c ****   HAL_StatusTypeDef hal_status = HAL_OK;
 865              		.loc 1 406 1 is_stmt 0 view .LVU181
 866 0000 08B5     		push	{r3, lr}
 867              	.LCFI19:
 868              		.cfi_def_cfa_offset 8
 869              		.cfi_offset 3, -8
 870              		.cfi_offset 14, -4
 407:Src/usbd_conf.c ****   USBD_StatusTypeDef usb_status = USBD_OK;
 871              		.loc 1 407 3 is_stmt 1 view .LVU182
 872              	.LVL75:
 408:Src/usbd_conf.c **** 
 873              		.loc 1 408 3 view .LVU183
 410:Src/usbd_conf.c **** 
 874              		.loc 1 410 3 view .LVU184
 410:Src/usbd_conf.c **** 
 875              		.loc 1 410 16 is_stmt 0 view .LVU185
 876 0002 D0F82002 		ldr	r0, [r0, #544]
 877              	.LVL76:
 410:Src/usbd_conf.c **** 
 878              		.loc 1 410 16 view .LVU186
 879 0006 FFF7FEFF 		bl	HAL_PCD_Stop
 880              	.LVL77:
 412:Src/usbd_conf.c ****   
 881              		.loc 1 412 3 is_stmt 1 view .LVU187
 412:Src/usbd_conf.c ****   
ARM GAS  /var/folders/md/lgcc8l7571l9vt9sx0g0zflw0000gn/T//ccpAt1EU.s 			page 31


 882              		.loc 1 412 17 is_stmt 0 view .LVU188
 883 000a FFF7FEFF 		bl	USBD_Get_USB_Status
 884              	.LVL78:
 414:Src/usbd_conf.c **** }
 885              		.loc 1 414 3 is_stmt 1 view .LVU189
 415:Src/usbd_conf.c **** 
 886              		.loc 1 415 1 is_stmt 0 view .LVU190
 887 000e 08BD     		pop	{r3, pc}
 888              		.cfi_endproc
 889              	.LFE142:
 891              		.section	.text.USBD_LL_OpenEP,"ax",%progbits
 892              		.align	1
 893              		.global	USBD_LL_OpenEP
 894              		.syntax unified
 895              		.thumb
 896              		.thumb_func
 897              		.fpu fpv4-sp-d16
 899              	USBD_LL_OpenEP:
 900              	.LVL79:
 901              	.LFB143:
 426:Src/usbd_conf.c ****   HAL_StatusTypeDef hal_status = HAL_OK;
 902              		.loc 1 426 1 is_stmt 1 view -0
 903              		.cfi_startproc
 904              		@ args = 0, pretend = 0, frame = 0
 905              		@ frame_needed = 0, uses_anonymous_args = 0
 426:Src/usbd_conf.c ****   HAL_StatusTypeDef hal_status = HAL_OK;
 906              		.loc 1 426 1 is_stmt 0 view .LVU192
 907 0000 10B5     		push	{r4, lr}
 908              	.LCFI20:
 909              		.cfi_def_cfa_offset 8
 910              		.cfi_offset 4, -8
 911              		.cfi_offset 14, -4
 912 0002 1C46     		mov	r4, r3
 427:Src/usbd_conf.c ****   USBD_StatusTypeDef usb_status = USBD_OK;
 913              		.loc 1 427 3 is_stmt 1 view .LVU193
 914              	.LVL80:
 428:Src/usbd_conf.c **** 
 915              		.loc 1 428 3 view .LVU194
 430:Src/usbd_conf.c **** 
 916              		.loc 1 430 3 view .LVU195
 430:Src/usbd_conf.c **** 
 917              		.loc 1 430 16 is_stmt 0 view .LVU196
 918 0004 1346     		mov	r3, r2
 919              	.LVL81:
 430:Src/usbd_conf.c **** 
 920              		.loc 1 430 16 view .LVU197
 921 0006 2246     		mov	r2, r4
 922              	.LVL82:
 430:Src/usbd_conf.c **** 
 923              		.loc 1 430 16 view .LVU198
 924 0008 D0F82002 		ldr	r0, [r0, #544]
 925              	.LVL83:
 430:Src/usbd_conf.c **** 
 926              		.loc 1 430 16 view .LVU199
 927 000c FFF7FEFF 		bl	HAL_PCD_EP_Open
 928              	.LVL84:
 432:Src/usbd_conf.c ****  
ARM GAS  /var/folders/md/lgcc8l7571l9vt9sx0g0zflw0000gn/T//ccpAt1EU.s 			page 32


 929              		.loc 1 432 3 is_stmt 1 view .LVU200
 432:Src/usbd_conf.c ****  
 930              		.loc 1 432 17 is_stmt 0 view .LVU201
 931 0010 FFF7FEFF 		bl	USBD_Get_USB_Status
 932              	.LVL85:
 434:Src/usbd_conf.c **** }
 933              		.loc 1 434 3 is_stmt 1 view .LVU202
 435:Src/usbd_conf.c **** 
 934              		.loc 1 435 1 is_stmt 0 view .LVU203
 935 0014 10BD     		pop	{r4, pc}
 936              		.cfi_endproc
 937              	.LFE143:
 939              		.section	.text.USBD_LL_CloseEP,"ax",%progbits
 940              		.align	1
 941              		.global	USBD_LL_CloseEP
 942              		.syntax unified
 943              		.thumb
 944              		.thumb_func
 945              		.fpu fpv4-sp-d16
 947              	USBD_LL_CloseEP:
 948              	.LVL86:
 949              	.LFB144:
 444:Src/usbd_conf.c ****   HAL_StatusTypeDef hal_status = HAL_OK;
 950              		.loc 1 444 1 is_stmt 1 view -0
 951              		.cfi_startproc
 952              		@ args = 0, pretend = 0, frame = 0
 953              		@ frame_needed = 0, uses_anonymous_args = 0
 444:Src/usbd_conf.c ****   HAL_StatusTypeDef hal_status = HAL_OK;
 954              		.loc 1 444 1 is_stmt 0 view .LVU205
 955 0000 08B5     		push	{r3, lr}
 956              	.LCFI21:
 957              		.cfi_def_cfa_offset 8
 958              		.cfi_offset 3, -8
 959              		.cfi_offset 14, -4
 445:Src/usbd_conf.c ****   USBD_StatusTypeDef usb_status = USBD_OK;
 960              		.loc 1 445 3 is_stmt 1 view .LVU206
 961              	.LVL87:
 446:Src/usbd_conf.c ****   
 962              		.loc 1 446 3 view .LVU207
 448:Src/usbd_conf.c ****       
 963              		.loc 1 448 3 view .LVU208
 448:Src/usbd_conf.c ****       
 964              		.loc 1 448 16 is_stmt 0 view .LVU209
 965 0002 D0F82002 		ldr	r0, [r0, #544]
 966              	.LVL88:
 448:Src/usbd_conf.c ****       
 967              		.loc 1 448 16 view .LVU210
 968 0006 FFF7FEFF 		bl	HAL_PCD_EP_Close
 969              	.LVL89:
 450:Src/usbd_conf.c **** 
 970              		.loc 1 450 3 is_stmt 1 view .LVU211
 450:Src/usbd_conf.c **** 
 971              		.loc 1 450 17 is_stmt 0 view .LVU212
 972 000a FFF7FEFF 		bl	USBD_Get_USB_Status
 973              	.LVL90:
 452:Src/usbd_conf.c **** }
 974              		.loc 1 452 3 is_stmt 1 view .LVU213
ARM GAS  /var/folders/md/lgcc8l7571l9vt9sx0g0zflw0000gn/T//ccpAt1EU.s 			page 33


 453:Src/usbd_conf.c **** 
 975              		.loc 1 453 1 is_stmt 0 view .LVU214
 976 000e 08BD     		pop	{r3, pc}
 977              		.cfi_endproc
 978              	.LFE144:
 980              		.section	.text.USBD_LL_FlushEP,"ax",%progbits
 981              		.align	1
 982              		.global	USBD_LL_FlushEP
 983              		.syntax unified
 984              		.thumb
 985              		.thumb_func
 986              		.fpu fpv4-sp-d16
 988              	USBD_LL_FlushEP:
 989              	.LVL91:
 990              	.LFB145:
 462:Src/usbd_conf.c ****   HAL_StatusTypeDef hal_status = HAL_OK;
 991              		.loc 1 462 1 is_stmt 1 view -0
 992              		.cfi_startproc
 993              		@ args = 0, pretend = 0, frame = 0
 994              		@ frame_needed = 0, uses_anonymous_args = 0
 462:Src/usbd_conf.c ****   HAL_StatusTypeDef hal_status = HAL_OK;
 995              		.loc 1 462 1 is_stmt 0 view .LVU216
 996 0000 08B5     		push	{r3, lr}
 997              	.LCFI22:
 998              		.cfi_def_cfa_offset 8
 999              		.cfi_offset 3, -8
 1000              		.cfi_offset 14, -4
 463:Src/usbd_conf.c ****   USBD_StatusTypeDef usb_status = USBD_OK;
 1001              		.loc 1 463 3 is_stmt 1 view .LVU217
 1002              	.LVL92:
 464:Src/usbd_conf.c ****   
 1003              		.loc 1 464 3 view .LVU218
 466:Src/usbd_conf.c ****       
 1004              		.loc 1 466 3 view .LVU219
 466:Src/usbd_conf.c ****       
 1005              		.loc 1 466 16 is_stmt 0 view .LVU220
 1006 0002 D0F82002 		ldr	r0, [r0, #544]
 1007              	.LVL93:
 466:Src/usbd_conf.c ****       
 1008              		.loc 1 466 16 view .LVU221
 1009 0006 FFF7FEFF 		bl	HAL_PCD_EP_Flush
 1010              	.LVL94:
 468:Src/usbd_conf.c ****   
 1011              		.loc 1 468 3 is_stmt 1 view .LVU222
 468:Src/usbd_conf.c ****   
 1012              		.loc 1 468 17 is_stmt 0 view .LVU223
 1013 000a FFF7FEFF 		bl	USBD_Get_USB_Status
 1014              	.LVL95:
 470:Src/usbd_conf.c **** }
 1015              		.loc 1 470 3 is_stmt 1 view .LVU224
 471:Src/usbd_conf.c **** 
 1016              		.loc 1 471 1 is_stmt 0 view .LVU225
 1017 000e 08BD     		pop	{r3, pc}
 1018              		.cfi_endproc
 1019              	.LFE145:
 1021              		.section	.text.USBD_LL_StallEP,"ax",%progbits
 1022              		.align	1
ARM GAS  /var/folders/md/lgcc8l7571l9vt9sx0g0zflw0000gn/T//ccpAt1EU.s 			page 34


 1023              		.global	USBD_LL_StallEP
 1024              		.syntax unified
 1025              		.thumb
 1026              		.thumb_func
 1027              		.fpu fpv4-sp-d16
 1029              	USBD_LL_StallEP:
 1030              	.LVL96:
 1031              	.LFB146:
 480:Src/usbd_conf.c ****   HAL_StatusTypeDef hal_status = HAL_OK;
 1032              		.loc 1 480 1 is_stmt 1 view -0
 1033              		.cfi_startproc
 1034              		@ args = 0, pretend = 0, frame = 0
 1035              		@ frame_needed = 0, uses_anonymous_args = 0
 480:Src/usbd_conf.c ****   HAL_StatusTypeDef hal_status = HAL_OK;
 1036              		.loc 1 480 1 is_stmt 0 view .LVU227
 1037 0000 08B5     		push	{r3, lr}
 1038              	.LCFI23:
 1039              		.cfi_def_cfa_offset 8
 1040              		.cfi_offset 3, -8
 1041              		.cfi_offset 14, -4
 481:Src/usbd_conf.c ****   USBD_StatusTypeDef usb_status = USBD_OK;
 1042              		.loc 1 481 3 is_stmt 1 view .LVU228
 1043              	.LVL97:
 482:Src/usbd_conf.c ****   
 1044              		.loc 1 482 3 view .LVU229
 484:Src/usbd_conf.c **** 
 1045              		.loc 1 484 3 view .LVU230
 484:Src/usbd_conf.c **** 
 1046              		.loc 1 484 16 is_stmt 0 view .LVU231
 1047 0002 D0F82002 		ldr	r0, [r0, #544]
 1048              	.LVL98:
 484:Src/usbd_conf.c **** 
 1049              		.loc 1 484 16 view .LVU232
 1050 0006 FFF7FEFF 		bl	HAL_PCD_EP_SetStall
 1051              	.LVL99:
 486:Src/usbd_conf.c ****  
 1052              		.loc 1 486 3 is_stmt 1 view .LVU233
 486:Src/usbd_conf.c ****  
 1053              		.loc 1 486 17 is_stmt 0 view .LVU234
 1054 000a FFF7FEFF 		bl	USBD_Get_USB_Status
 1055              	.LVL100:
 488:Src/usbd_conf.c **** }
 1056              		.loc 1 488 3 is_stmt 1 view .LVU235
 489:Src/usbd_conf.c **** 
 1057              		.loc 1 489 1 is_stmt 0 view .LVU236
 1058 000e 08BD     		pop	{r3, pc}
 1059              		.cfi_endproc
 1060              	.LFE146:
 1062              		.section	.text.USBD_LL_ClearStallEP,"ax",%progbits
 1063              		.align	1
 1064              		.global	USBD_LL_ClearStallEP
 1065              		.syntax unified
 1066              		.thumb
 1067              		.thumb_func
 1068              		.fpu fpv4-sp-d16
 1070              	USBD_LL_ClearStallEP:
 1071              	.LVL101:
ARM GAS  /var/folders/md/lgcc8l7571l9vt9sx0g0zflw0000gn/T//ccpAt1EU.s 			page 35


 1072              	.LFB147:
 498:Src/usbd_conf.c ****   HAL_StatusTypeDef hal_status = HAL_OK;
 1073              		.loc 1 498 1 is_stmt 1 view -0
 1074              		.cfi_startproc
 1075              		@ args = 0, pretend = 0, frame = 0
 1076              		@ frame_needed = 0, uses_anonymous_args = 0
 498:Src/usbd_conf.c ****   HAL_StatusTypeDef hal_status = HAL_OK;
 1077              		.loc 1 498 1 is_stmt 0 view .LVU238
 1078 0000 08B5     		push	{r3, lr}
 1079              	.LCFI24:
 1080              		.cfi_def_cfa_offset 8
 1081              		.cfi_offset 3, -8
 1082              		.cfi_offset 14, -4
 499:Src/usbd_conf.c ****   USBD_StatusTypeDef usb_status = USBD_OK;
 1083              		.loc 1 499 3 is_stmt 1 view .LVU239
 1084              	.LVL102:
 500:Src/usbd_conf.c ****   
 1085              		.loc 1 500 3 view .LVU240
 502:Src/usbd_conf.c ****      
 1086              		.loc 1 502 3 view .LVU241
 502:Src/usbd_conf.c ****      
 1087              		.loc 1 502 16 is_stmt 0 view .LVU242
 1088 0002 D0F82002 		ldr	r0, [r0, #544]
 1089              	.LVL103:
 502:Src/usbd_conf.c ****      
 1090              		.loc 1 502 16 view .LVU243
 1091 0006 FFF7FEFF 		bl	HAL_PCD_EP_ClrStall
 1092              	.LVL104:
 504:Src/usbd_conf.c **** 
 1093              		.loc 1 504 3 is_stmt 1 view .LVU244
 504:Src/usbd_conf.c **** 
 1094              		.loc 1 504 17 is_stmt 0 view .LVU245
 1095 000a FFF7FEFF 		bl	USBD_Get_USB_Status
 1096              	.LVL105:
 506:Src/usbd_conf.c **** }
 1097              		.loc 1 506 3 is_stmt 1 view .LVU246
 507:Src/usbd_conf.c **** 
 1098              		.loc 1 507 1 is_stmt 0 view .LVU247
 1099 000e 08BD     		pop	{r3, pc}
 1100              		.cfi_endproc
 1101              	.LFE147:
 1103              		.section	.text.USBD_LL_IsStallEP,"ax",%progbits
 1104              		.align	1
 1105              		.global	USBD_LL_IsStallEP
 1106              		.syntax unified
 1107              		.thumb
 1108              		.thumb_func
 1109              		.fpu fpv4-sp-d16
 1111              	USBD_LL_IsStallEP:
 1112              	.LVL106:
 1113              	.LFB148:
 516:Src/usbd_conf.c ****   PCD_HandleTypeDef *hpcd = (PCD_HandleTypeDef*) pdev->pData;
 1114              		.loc 1 516 1 is_stmt 1 view -0
 1115              		.cfi_startproc
 1116              		@ args = 0, pretend = 0, frame = 0
 1117              		@ frame_needed = 0, uses_anonymous_args = 0
 1118              		@ link register save eliminated.
ARM GAS  /var/folders/md/lgcc8l7571l9vt9sx0g0zflw0000gn/T//ccpAt1EU.s 			page 36


 517:Src/usbd_conf.c ****   
 1119              		.loc 1 517 3 view .LVU249
 517:Src/usbd_conf.c ****   
 1120              		.loc 1 517 22 is_stmt 0 view .LVU250
 1121 0000 D0F82032 		ldr	r3, [r0, #544]
 1122              	.LVL107:
 519:Src/usbd_conf.c ****   {
 1123              		.loc 1 519 3 is_stmt 1 view .LVU251
 519:Src/usbd_conf.c ****   {
 1124              		.loc 1 519 5 is_stmt 0 view .LVU252
 1125 0004 11F0800F 		tst	r1, #128
 1126 0008 08D1     		bne	.L71
 525:Src/usbd_conf.c ****   }
 1127              		.loc 1 525 5 is_stmt 1 view .LVU253
 525:Src/usbd_conf.c ****   }
 1128              		.loc 1 525 33 is_stmt 0 view .LVU254
 1129 000a 01F07F01 		and	r1, r1, #127
 1130              	.LVL108:
 525:Src/usbd_conf.c ****   }
 1131              		.loc 1 525 40 view .LVU255
 1132 000e C1EBC101 		rsb	r1, r1, r1, lsl #3
 1133 0012 8A00     		lsls	r2, r1, #2
 1134 0014 1344     		add	r3, r3, r2
 1135              	.LVL109:
 525:Src/usbd_conf.c ****   }
 1136              		.loc 1 525 40 view .LVU256
 1137 0016 93F8CE01 		ldrb	r0, [r3, #462]	@ zero_extendqisi2
 1138              	.LVL110:
 527:Src/usbd_conf.c **** 
 1139              		.loc 1 527 1 view .LVU257
 1140 001a 7047     		bx	lr
 1141              	.LVL111:
 1142              	.L71:
 521:Src/usbd_conf.c ****   }
 1143              		.loc 1 521 5 is_stmt 1 view .LVU258
 521:Src/usbd_conf.c ****   }
 1144              		.loc 1 521 32 is_stmt 0 view .LVU259
 1145 001c 01F07F01 		and	r1, r1, #127
 1146              	.LVL112:
 521:Src/usbd_conf.c ****   }
 1147              		.loc 1 521 39 view .LVU260
 1148 0020 C1EBC101 		rsb	r1, r1, r1, lsl #3
 1149 0024 8A00     		lsls	r2, r1, #2
 1150 0026 1344     		add	r3, r3, r2
 1151              	.LVL113:
 521:Src/usbd_conf.c ****   }
 1152              		.loc 1 521 39 view .LVU261
 1153 0028 93F82A00 		ldrb	r0, [r3, #42]	@ zero_extendqisi2
 1154              	.LVL114:
 521:Src/usbd_conf.c ****   }
 1155              		.loc 1 521 39 view .LVU262
 1156 002c 7047     		bx	lr
 1157              		.cfi_endproc
 1158              	.LFE148:
 1160              		.section	.text.USBD_LL_SetUSBAddress,"ax",%progbits
 1161              		.align	1
 1162              		.global	USBD_LL_SetUSBAddress
ARM GAS  /var/folders/md/lgcc8l7571l9vt9sx0g0zflw0000gn/T//ccpAt1EU.s 			page 37


 1163              		.syntax unified
 1164              		.thumb
 1165              		.thumb_func
 1166              		.fpu fpv4-sp-d16
 1168              	USBD_LL_SetUSBAddress:
 1169              	.LVL115:
 1170              	.LFB149:
 536:Src/usbd_conf.c ****   HAL_StatusTypeDef hal_status = HAL_OK;
 1171              		.loc 1 536 1 is_stmt 1 view -0
 1172              		.cfi_startproc
 1173              		@ args = 0, pretend = 0, frame = 0
 1174              		@ frame_needed = 0, uses_anonymous_args = 0
 536:Src/usbd_conf.c ****   HAL_StatusTypeDef hal_status = HAL_OK;
 1175              		.loc 1 536 1 is_stmt 0 view .LVU264
 1176 0000 08B5     		push	{r3, lr}
 1177              	.LCFI25:
 1178              		.cfi_def_cfa_offset 8
 1179              		.cfi_offset 3, -8
 1180              		.cfi_offset 14, -4
 537:Src/usbd_conf.c ****   USBD_StatusTypeDef usb_status = USBD_OK;
 1181              		.loc 1 537 3 is_stmt 1 view .LVU265
 1182              	.LVL116:
 538:Src/usbd_conf.c ****   
 1183              		.loc 1 538 3 view .LVU266
 540:Src/usbd_conf.c ****      
 1184              		.loc 1 540 3 view .LVU267
 540:Src/usbd_conf.c ****      
 1185              		.loc 1 540 16 is_stmt 0 view .LVU268
 1186 0002 D0F82002 		ldr	r0, [r0, #544]
 1187              	.LVL117:
 540:Src/usbd_conf.c ****      
 1188              		.loc 1 540 16 view .LVU269
 1189 0006 FFF7FEFF 		bl	HAL_PCD_SetAddress
 1190              	.LVL118:
 542:Src/usbd_conf.c ****  
 1191              		.loc 1 542 3 is_stmt 1 view .LVU270
 542:Src/usbd_conf.c ****  
 1192              		.loc 1 542 17 is_stmt 0 view .LVU271
 1193 000a FFF7FEFF 		bl	USBD_Get_USB_Status
 1194              	.LVL119:
 544:Src/usbd_conf.c **** }
 1195              		.loc 1 544 3 is_stmt 1 view .LVU272
 545:Src/usbd_conf.c **** 
 1196              		.loc 1 545 1 is_stmt 0 view .LVU273
 1197 000e 08BD     		pop	{r3, pc}
 1198              		.cfi_endproc
 1199              	.LFE149:
 1201              		.section	.text.USBD_LL_Transmit,"ax",%progbits
 1202              		.align	1
 1203              		.global	USBD_LL_Transmit
 1204              		.syntax unified
 1205              		.thumb
 1206              		.thumb_func
 1207              		.fpu fpv4-sp-d16
 1209              	USBD_LL_Transmit:
 1210              	.LVL120:
 1211              	.LFB150:
ARM GAS  /var/folders/md/lgcc8l7571l9vt9sx0g0zflw0000gn/T//ccpAt1EU.s 			page 38


 556:Src/usbd_conf.c ****   HAL_StatusTypeDef hal_status = HAL_OK;
 1212              		.loc 1 556 1 is_stmt 1 view -0
 1213              		.cfi_startproc
 1214              		@ args = 0, pretend = 0, frame = 0
 1215              		@ frame_needed = 0, uses_anonymous_args = 0
 556:Src/usbd_conf.c ****   HAL_StatusTypeDef hal_status = HAL_OK;
 1216              		.loc 1 556 1 is_stmt 0 view .LVU275
 1217 0000 08B5     		push	{r3, lr}
 1218              	.LCFI26:
 1219              		.cfi_def_cfa_offset 8
 1220              		.cfi_offset 3, -8
 1221              		.cfi_offset 14, -4
 557:Src/usbd_conf.c ****   USBD_StatusTypeDef usb_status = USBD_OK;
 1222              		.loc 1 557 3 is_stmt 1 view .LVU276
 1223              	.LVL121:
 558:Src/usbd_conf.c **** 
 1224              		.loc 1 558 3 view .LVU277
 560:Src/usbd_conf.c ****      
 1225              		.loc 1 560 3 view .LVU278
 560:Src/usbd_conf.c ****      
 1226              		.loc 1 560 16 is_stmt 0 view .LVU279
 1227 0002 D0F82002 		ldr	r0, [r0, #544]
 1228              	.LVL122:
 560:Src/usbd_conf.c ****      
 1229              		.loc 1 560 16 view .LVU280
 1230 0006 FFF7FEFF 		bl	HAL_PCD_EP_Transmit
 1231              	.LVL123:
 562:Src/usbd_conf.c ****   
 1232              		.loc 1 562 3 is_stmt 1 view .LVU281
 562:Src/usbd_conf.c ****   
 1233              		.loc 1 562 17 is_stmt 0 view .LVU282
 1234 000a FFF7FEFF 		bl	USBD_Get_USB_Status
 1235              	.LVL124:
 564:Src/usbd_conf.c **** }
 1236              		.loc 1 564 3 is_stmt 1 view .LVU283
 565:Src/usbd_conf.c **** 
 1237              		.loc 1 565 1 is_stmt 0 view .LVU284
 1238 000e 08BD     		pop	{r3, pc}
 1239              		.cfi_endproc
 1240              	.LFE150:
 1242              		.section	.text.USBD_LL_PrepareReceive,"ax",%progbits
 1243              		.align	1
 1244              		.global	USBD_LL_PrepareReceive
 1245              		.syntax unified
 1246              		.thumb
 1247              		.thumb_func
 1248              		.fpu fpv4-sp-d16
 1250              	USBD_LL_PrepareReceive:
 1251              	.LVL125:
 1252              	.LFB151:
 576:Src/usbd_conf.c ****   HAL_StatusTypeDef hal_status = HAL_OK;
 1253              		.loc 1 576 1 is_stmt 1 view -0
 1254              		.cfi_startproc
 1255              		@ args = 0, pretend = 0, frame = 0
 1256              		@ frame_needed = 0, uses_anonymous_args = 0
 576:Src/usbd_conf.c ****   HAL_StatusTypeDef hal_status = HAL_OK;
 1257              		.loc 1 576 1 is_stmt 0 view .LVU286
ARM GAS  /var/folders/md/lgcc8l7571l9vt9sx0g0zflw0000gn/T//ccpAt1EU.s 			page 39


 1258 0000 08B5     		push	{r3, lr}
 1259              	.LCFI27:
 1260              		.cfi_def_cfa_offset 8
 1261              		.cfi_offset 3, -8
 1262              		.cfi_offset 14, -4
 577:Src/usbd_conf.c ****   USBD_StatusTypeDef usb_status = USBD_OK;
 1263              		.loc 1 577 3 is_stmt 1 view .LVU287
 1264              	.LVL126:
 578:Src/usbd_conf.c **** 
 1265              		.loc 1 578 3 view .LVU288
 580:Src/usbd_conf.c ****      
 1266              		.loc 1 580 3 view .LVU289
 580:Src/usbd_conf.c ****      
 1267              		.loc 1 580 16 is_stmt 0 view .LVU290
 1268 0002 D0F82002 		ldr	r0, [r0, #544]
 1269              	.LVL127:
 580:Src/usbd_conf.c ****      
 1270              		.loc 1 580 16 view .LVU291
 1271 0006 FFF7FEFF 		bl	HAL_PCD_EP_Receive
 1272              	.LVL128:
 582:Src/usbd_conf.c ****   	
 1273              		.loc 1 582 3 is_stmt 1 view .LVU292
 582:Src/usbd_conf.c ****   	
 1274              		.loc 1 582 17 is_stmt 0 view .LVU293
 1275 000a FFF7FEFF 		bl	USBD_Get_USB_Status
 1276              	.LVL129:
 584:Src/usbd_conf.c **** }
 1277              		.loc 1 584 3 is_stmt 1 view .LVU294
 585:Src/usbd_conf.c **** 
 1278              		.loc 1 585 1 is_stmt 0 view .LVU295
 1279 000e 08BD     		pop	{r3, pc}
 1280              		.cfi_endproc
 1281              	.LFE151:
 1283              		.section	.text.USBD_LL_GetRxDataSize,"ax",%progbits
 1284              		.align	1
 1285              		.global	USBD_LL_GetRxDataSize
 1286              		.syntax unified
 1287              		.thumb
 1288              		.thumb_func
 1289              		.fpu fpv4-sp-d16
 1291              	USBD_LL_GetRxDataSize:
 1292              	.LVL130:
 1293              	.LFB152:
 594:Src/usbd_conf.c ****   return HAL_PCD_EP_GetRxCount((PCD_HandleTypeDef*) pdev->pData, ep_addr);
 1294              		.loc 1 594 1 is_stmt 1 view -0
 1295              		.cfi_startproc
 1296              		@ args = 0, pretend = 0, frame = 0
 1297              		@ frame_needed = 0, uses_anonymous_args = 0
 594:Src/usbd_conf.c ****   return HAL_PCD_EP_GetRxCount((PCD_HandleTypeDef*) pdev->pData, ep_addr);
 1298              		.loc 1 594 1 is_stmt 0 view .LVU297
 1299 0000 08B5     		push	{r3, lr}
 1300              	.LCFI28:
 1301              		.cfi_def_cfa_offset 8
 1302              		.cfi_offset 3, -8
 1303              		.cfi_offset 14, -4
 595:Src/usbd_conf.c **** }
 1304              		.loc 1 595 3 is_stmt 1 view .LVU298
ARM GAS  /var/folders/md/lgcc8l7571l9vt9sx0g0zflw0000gn/T//ccpAt1EU.s 			page 40


 595:Src/usbd_conf.c **** }
 1305              		.loc 1 595 10 is_stmt 0 view .LVU299
 1306 0002 D0F82002 		ldr	r0, [r0, #544]
 1307              	.LVL131:
 595:Src/usbd_conf.c **** }
 1308              		.loc 1 595 10 view .LVU300
 1309 0006 FFF7FEFF 		bl	HAL_PCD_EP_GetRxCount
 1310              	.LVL132:
 596:Src/usbd_conf.c **** 
 1311              		.loc 1 596 1 view .LVU301
 1312 000a 08BD     		pop	{r3, pc}
 1313              		.cfi_endproc
 1314              	.LFE152:
 1316              		.section	.text.USBD_LL_Delay,"ax",%progbits
 1317              		.align	1
 1318              		.global	USBD_LL_Delay
 1319              		.syntax unified
 1320              		.thumb
 1321              		.thumb_func
 1322              		.fpu fpv4-sp-d16
 1324              	USBD_LL_Delay:
 1325              	.LVL133:
 1326              	.LFB153:
 604:Src/usbd_conf.c ****   HAL_Delay(Delay);
 1327              		.loc 1 604 1 is_stmt 1 view -0
 1328              		.cfi_startproc
 1329              		@ args = 0, pretend = 0, frame = 0
 1330              		@ frame_needed = 0, uses_anonymous_args = 0
 604:Src/usbd_conf.c ****   HAL_Delay(Delay);
 1331              		.loc 1 604 1 is_stmt 0 view .LVU303
 1332 0000 08B5     		push	{r3, lr}
 1333              	.LCFI29:
 1334              		.cfi_def_cfa_offset 8
 1335              		.cfi_offset 3, -8
 1336              		.cfi_offset 14, -4
 605:Src/usbd_conf.c **** }
 1337              		.loc 1 605 3 is_stmt 1 view .LVU304
 1338 0002 FFF7FEFF 		bl	HAL_Delay
 1339              	.LVL134:
 606:Src/usbd_conf.c **** 
 1340              		.loc 1 606 1 is_stmt 0 view .LVU305
 1341 0006 08BD     		pop	{r3, pc}
 1342              		.cfi_endproc
 1343              	.LFE153:
 1345              		.section	.text.USBD_static_malloc,"ax",%progbits
 1346              		.align	1
 1347              		.global	USBD_static_malloc
 1348              		.syntax unified
 1349              		.thumb
 1350              		.thumb_func
 1351              		.fpu fpv4-sp-d16
 1353              	USBD_static_malloc:
 1354              	.LVL135:
 1355              	.LFB154:
 614:Src/usbd_conf.c ****   static uint32_t mem[(sizeof(USBD_DFU_HandleTypeDef)/4)+1];/* On 32-bit boundary */
 1356              		.loc 1 614 1 is_stmt 1 view -0
 1357              		.cfi_startproc
ARM GAS  /var/folders/md/lgcc8l7571l9vt9sx0g0zflw0000gn/T//ccpAt1EU.s 			page 41


 1358              		@ args = 0, pretend = 0, frame = 0
 1359              		@ frame_needed = 0, uses_anonymous_args = 0
 1360              		@ link register save eliminated.
 615:Src/usbd_conf.c ****   return mem;
 1361              		.loc 1 615 3 view .LVU307
 616:Src/usbd_conf.c **** }
 1362              		.loc 1 616 3 view .LVU308
 617:Src/usbd_conf.c **** 
 1363              		.loc 1 617 1 is_stmt 0 view .LVU309
 1364 0000 0048     		ldr	r0, .L83
 1365              	.LVL136:
 617:Src/usbd_conf.c **** 
 1366              		.loc 1 617 1 view .LVU310
 1367 0002 7047     		bx	lr
 1368              	.L84:
 1369              		.align	2
 1370              	.L83:
 1371 0004 00000000 		.word	.LANCHOR0
 1372              		.cfi_endproc
 1373              	.LFE154:
 1375              		.section	.text.USBD_static_free,"ax",%progbits
 1376              		.align	1
 1377              		.global	USBD_static_free
 1378              		.syntax unified
 1379              		.thumb
 1380              		.thumb_func
 1381              		.fpu fpv4-sp-d16
 1383              	USBD_static_free:
 1384              	.LVL137:
 1385              	.LFB155:
 625:Src/usbd_conf.c **** 
 1386              		.loc 1 625 1 is_stmt 1 view -0
 1387              		.cfi_startproc
 1388              		@ args = 0, pretend = 0, frame = 0
 1389              		@ frame_needed = 0, uses_anonymous_args = 0
 1390              		@ link register save eliminated.
 627:Src/usbd_conf.c **** 
 1391              		.loc 1 627 1 view .LVU312
 1392 0000 7047     		bx	lr
 1393              		.cfi_endproc
 1394              	.LFE155:
 1396              		.section	.text.HAL_PCDEx_SetConnectionState,"ax",%progbits
 1397              		.align	1
 1398              		.global	HAL_PCDEx_SetConnectionState
 1399              		.syntax unified
 1400              		.thumb
 1401              		.thumb_func
 1402              		.fpu fpv4-sp-d16
 1404              	HAL_PCDEx_SetConnectionState:
 1405              	.LVL138:
 1406              	.LFB156:
 640:Src/usbd_conf.c ****   /* USER CODE BEGIN 6 */
 1407              		.loc 1 640 1 view -0
 1408              		.cfi_startproc
 1409              		@ args = 0, pretend = 0, frame = 0
 1410              		@ frame_needed = 0, uses_anonymous_args = 0
 1411              		@ link register save eliminated.
ARM GAS  /var/folders/md/lgcc8l7571l9vt9sx0g0zflw0000gn/T//ccpAt1EU.s 			page 42


 642:Src/usbd_conf.c ****   {
 1412              		.loc 1 642 3 view .LVU314
 651:Src/usbd_conf.c ****   /* USER CODE END 6 */
 1413              		.loc 1 651 3 view .LVU315
 653:Src/usbd_conf.c **** 
 1414              		.loc 1 653 1 is_stmt 0 view .LVU316
 1415 0000 7047     		bx	lr
 1416              		.cfi_endproc
 1417              	.LFE156:
 1419              		.comm	hpcd_USB_FS,936,4
 1420              		.section	.bss.mem.10295,"aw",%nobits
 1421              		.align	2
 1422              		.set	.LANCHOR0,. + 0
 1425              	mem.10295:
 1426 0000 00000000 		.space	1052
 1426      00000000 
 1426      00000000 
 1426      00000000 
 1426      00000000 
 1427              		.text
 1428              	.Letext0:
 1429              		.file 2 "/usr/local/gcc-arm-none-eabi-8-2019-q3-update/arm-none-eabi/include/machine/_default_type
 1430              		.file 3 "/usr/local/gcc-arm-none-eabi-8-2019-q3-update/arm-none-eabi/include/sys/_stdint.h"
 1431              		.file 4 "Drivers/CMSIS/Include/core_cm4.h"
 1432              		.file 5 "Drivers/CMSIS/Device/ST/STM32F3xx/Include/system_stm32f3xx.h"
 1433              		.file 6 "Drivers/CMSIS/Device/ST/STM32F3xx/Include/stm32f303xc.h"
 1434              		.file 7 "Drivers/CMSIS/Device/ST/STM32F3xx/Include/stm32f3xx.h"
 1435              		.file 8 "/usr/local/gcc-arm-none-eabi-8-2019-q3-update/lib/gcc/arm-none-eabi/8.3.1/include/stddef.
 1436              		.file 9 "/usr/local/gcc-arm-none-eabi-8-2019-q3-update/arm-none-eabi/include/sys/_types.h"
 1437              		.file 10 "/usr/local/gcc-arm-none-eabi-8-2019-q3-update/arm-none-eabi/include/sys/reent.h"
 1438              		.file 11 "/usr/local/gcc-arm-none-eabi-8-2019-q3-update/arm-none-eabi/include/sys/lock.h"
 1439              		.file 12 "Drivers/STM32F3xx_HAL_Driver/Inc/stm32f3xx_hal_def.h"
 1440              		.file 13 "Drivers/STM32F3xx_HAL_Driver/Inc/stm32f3xx_hal_gpio.h"
 1441              		.file 14 "Drivers/STM32F3xx_HAL_Driver/Inc/stm32f3xx_hal_pcd.h"
 1442              		.file 15 "Drivers/STM32F3xx_HAL_Driver/Inc/stm32f3xx_hal.h"
 1443              		.file 16 "/usr/local/gcc-arm-none-eabi-8-2019-q3-update/arm-none-eabi/include/stdlib.h"
 1444              		.file 17 "Middlewares/ST/STM32_USB_Device_Library/Core/Inc/usbd_def.h"
 1445              		.file 18 "Middlewares/ST/STM32_USB_Device_Library/Class/DFU/Inc/usbd_dfu.h"
 1446              		.file 19 "Drivers/STM32F3xx_HAL_Driver/Inc/stm32f3xx_hal_pcd_ex.h"
 1447              		.file 20 "Middlewares/ST/STM32_USB_Device_Library/Core/Inc/usbd_core.h"
 1448              		.file 21 "Drivers/STM32F3xx_HAL_Driver/Inc/stm32f3xx_hal_cortex.h"
ARM GAS  /var/folders/md/lgcc8l7571l9vt9sx0g0zflw0000gn/T//ccpAt1EU.s 			page 43


DEFINED SYMBOLS
                            *ABS*:0000000000000000 usbd_conf.c
/var/folders/md/lgcc8l7571l9vt9sx0g0zflw0000gn/T//ccpAt1EU.s:18     .text.USBD_Get_USB_Status:0000000000000000 $t
/var/folders/md/lgcc8l7571l9vt9sx0g0zflw0000gn/T//ccpAt1EU.s:25     .text.USBD_Get_USB_Status:0000000000000000 USBD_Get_USB_Status
/var/folders/md/lgcc8l7571l9vt9sx0g0zflw0000gn/T//ccpAt1EU.s:40     .text.USBD_Get_USB_Status:0000000000000008 $d
/var/folders/md/lgcc8l7571l9vt9sx0g0zflw0000gn/T//ccpAt1EU.s:66     .text.HAL_PCD_MspInit:0000000000000000 $t
/var/folders/md/lgcc8l7571l9vt9sx0g0zflw0000gn/T//ccpAt1EU.s:73     .text.HAL_PCD_MspInit:0000000000000000 HAL_PCD_MspInit
/var/folders/md/lgcc8l7571l9vt9sx0g0zflw0000gn/T//ccpAt1EU.s:210    .text.HAL_PCD_MspInit:000000000000008c $d
/var/folders/md/lgcc8l7571l9vt9sx0g0zflw0000gn/T//ccpAt1EU.s:216    .text.HAL_PCD_MspDeInit:0000000000000000 $t
/var/folders/md/lgcc8l7571l9vt9sx0g0zflw0000gn/T//ccpAt1EU.s:223    .text.HAL_PCD_MspDeInit:0000000000000000 HAL_PCD_MspDeInit
/var/folders/md/lgcc8l7571l9vt9sx0g0zflw0000gn/T//ccpAt1EU.s:270    .text.HAL_PCD_MspDeInit:000000000000002c $d
/var/folders/md/lgcc8l7571l9vt9sx0g0zflw0000gn/T//ccpAt1EU.s:276    .text.HAL_PCD_SetupStageCallback:0000000000000000 $t
/var/folders/md/lgcc8l7571l9vt9sx0g0zflw0000gn/T//ccpAt1EU.s:283    .text.HAL_PCD_SetupStageCallback:0000000000000000 HAL_PCD_SetupStageCallback
/var/folders/md/lgcc8l7571l9vt9sx0g0zflw0000gn/T//ccpAt1EU.s:309    .text.HAL_PCD_DataOutStageCallback:0000000000000000 $t
/var/folders/md/lgcc8l7571l9vt9sx0g0zflw0000gn/T//ccpAt1EU.s:316    .text.HAL_PCD_DataOutStageCallback:0000000000000000 HAL_PCD_DataOutStageCallback
/var/folders/md/lgcc8l7571l9vt9sx0g0zflw0000gn/T//ccpAt1EU.s:345    .text.HAL_PCD_DataInStageCallback:0000000000000000 $t
/var/folders/md/lgcc8l7571l9vt9sx0g0zflw0000gn/T//ccpAt1EU.s:352    .text.HAL_PCD_DataInStageCallback:0000000000000000 HAL_PCD_DataInStageCallback
/var/folders/md/lgcc8l7571l9vt9sx0g0zflw0000gn/T//ccpAt1EU.s:381    .text.HAL_PCD_SOFCallback:0000000000000000 $t
/var/folders/md/lgcc8l7571l9vt9sx0g0zflw0000gn/T//ccpAt1EU.s:388    .text.HAL_PCD_SOFCallback:0000000000000000 HAL_PCD_SOFCallback
/var/folders/md/lgcc8l7571l9vt9sx0g0zflw0000gn/T//ccpAt1EU.s:413    .text.HAL_PCD_ResetCallback:0000000000000000 $t
/var/folders/md/lgcc8l7571l9vt9sx0g0zflw0000gn/T//ccpAt1EU.s:420    .text.HAL_PCD_ResetCallback:0000000000000000 HAL_PCD_ResetCallback
/var/folders/md/lgcc8l7571l9vt9sx0g0zflw0000gn/T//ccpAt1EU.s:466    .text.HAL_PCD_SuspendCallback:0000000000000000 $t
/var/folders/md/lgcc8l7571l9vt9sx0g0zflw0000gn/T//ccpAt1EU.s:473    .text.HAL_PCD_SuspendCallback:0000000000000000 HAL_PCD_SuspendCallback
/var/folders/md/lgcc8l7571l9vt9sx0g0zflw0000gn/T//ccpAt1EU.s:512    .text.HAL_PCD_SuspendCallback:000000000000001c $d
/var/folders/md/lgcc8l7571l9vt9sx0g0zflw0000gn/T//ccpAt1EU.s:517    .text.HAL_PCD_ResumeCallback:0000000000000000 $t
/var/folders/md/lgcc8l7571l9vt9sx0g0zflw0000gn/T//ccpAt1EU.s:524    .text.HAL_PCD_ResumeCallback:0000000000000000 HAL_PCD_ResumeCallback
/var/folders/md/lgcc8l7571l9vt9sx0g0zflw0000gn/T//ccpAt1EU.s:549    .text.HAL_PCD_ISOOUTIncompleteCallback:0000000000000000 $t
/var/folders/md/lgcc8l7571l9vt9sx0g0zflw0000gn/T//ccpAt1EU.s:556    .text.HAL_PCD_ISOOUTIncompleteCallback:0000000000000000 HAL_PCD_ISOOUTIncompleteCallback
/var/folders/md/lgcc8l7571l9vt9sx0g0zflw0000gn/T//ccpAt1EU.s:581    .text.HAL_PCD_ISOINIncompleteCallback:0000000000000000 $t
/var/folders/md/lgcc8l7571l9vt9sx0g0zflw0000gn/T//ccpAt1EU.s:588    .text.HAL_PCD_ISOINIncompleteCallback:0000000000000000 HAL_PCD_ISOINIncompleteCallback
/var/folders/md/lgcc8l7571l9vt9sx0g0zflw0000gn/T//ccpAt1EU.s:613    .text.HAL_PCD_ConnectCallback:0000000000000000 $t
/var/folders/md/lgcc8l7571l9vt9sx0g0zflw0000gn/T//ccpAt1EU.s:620    .text.HAL_PCD_ConnectCallback:0000000000000000 HAL_PCD_ConnectCallback
/var/folders/md/lgcc8l7571l9vt9sx0g0zflw0000gn/T//ccpAt1EU.s:645    .text.HAL_PCD_DisconnectCallback:0000000000000000 $t
/var/folders/md/lgcc8l7571l9vt9sx0g0zflw0000gn/T//ccpAt1EU.s:652    .text.HAL_PCD_DisconnectCallback:0000000000000000 HAL_PCD_DisconnectCallback
/var/folders/md/lgcc8l7571l9vt9sx0g0zflw0000gn/T//ccpAt1EU.s:677    .text.USBD_LL_Init:0000000000000000 $t
/var/folders/md/lgcc8l7571l9vt9sx0g0zflw0000gn/T//ccpAt1EU.s:684    .text.USBD_LL_Init:0000000000000000 USBD_LL_Init
/var/folders/md/lgcc8l7571l9vt9sx0g0zflw0000gn/T//ccpAt1EU.s:763    .text.USBD_LL_Init:0000000000000050 $d
                            *COM*:00000000000003a8 hpcd_USB_FS
/var/folders/md/lgcc8l7571l9vt9sx0g0zflw0000gn/T//ccpAt1EU.s:769    .text.USBD_LL_DeInit:0000000000000000 $t
/var/folders/md/lgcc8l7571l9vt9sx0g0zflw0000gn/T//ccpAt1EU.s:776    .text.USBD_LL_DeInit:0000000000000000 USBD_LL_DeInit
/var/folders/md/lgcc8l7571l9vt9sx0g0zflw0000gn/T//ccpAt1EU.s:810    .text.USBD_LL_Start:0000000000000000 $t
/var/folders/md/lgcc8l7571l9vt9sx0g0zflw0000gn/T//ccpAt1EU.s:817    .text.USBD_LL_Start:0000000000000000 USBD_LL_Start
/var/folders/md/lgcc8l7571l9vt9sx0g0zflw0000gn/T//ccpAt1EU.s:851    .text.USBD_LL_Stop:0000000000000000 $t
/var/folders/md/lgcc8l7571l9vt9sx0g0zflw0000gn/T//ccpAt1EU.s:858    .text.USBD_LL_Stop:0000000000000000 USBD_LL_Stop
/var/folders/md/lgcc8l7571l9vt9sx0g0zflw0000gn/T//ccpAt1EU.s:892    .text.USBD_LL_OpenEP:0000000000000000 $t
/var/folders/md/lgcc8l7571l9vt9sx0g0zflw0000gn/T//ccpAt1EU.s:899    .text.USBD_LL_OpenEP:0000000000000000 USBD_LL_OpenEP
/var/folders/md/lgcc8l7571l9vt9sx0g0zflw0000gn/T//ccpAt1EU.s:940    .text.USBD_LL_CloseEP:0000000000000000 $t
/var/folders/md/lgcc8l7571l9vt9sx0g0zflw0000gn/T//ccpAt1EU.s:947    .text.USBD_LL_CloseEP:0000000000000000 USBD_LL_CloseEP
/var/folders/md/lgcc8l7571l9vt9sx0g0zflw0000gn/T//ccpAt1EU.s:981    .text.USBD_LL_FlushEP:0000000000000000 $t
/var/folders/md/lgcc8l7571l9vt9sx0g0zflw0000gn/T//ccpAt1EU.s:988    .text.USBD_LL_FlushEP:0000000000000000 USBD_LL_FlushEP
/var/folders/md/lgcc8l7571l9vt9sx0g0zflw0000gn/T//ccpAt1EU.s:1022   .text.USBD_LL_StallEP:0000000000000000 $t
/var/folders/md/lgcc8l7571l9vt9sx0g0zflw0000gn/T//ccpAt1EU.s:1029   .text.USBD_LL_StallEP:0000000000000000 USBD_LL_StallEP
/var/folders/md/lgcc8l7571l9vt9sx0g0zflw0000gn/T//ccpAt1EU.s:1063   .text.USBD_LL_ClearStallEP:0000000000000000 $t
/var/folders/md/lgcc8l7571l9vt9sx0g0zflw0000gn/T//ccpAt1EU.s:1070   .text.USBD_LL_ClearStallEP:0000000000000000 USBD_LL_ClearStallEP
/var/folders/md/lgcc8l7571l9vt9sx0g0zflw0000gn/T//ccpAt1EU.s:1104   .text.USBD_LL_IsStallEP:0000000000000000 $t
/var/folders/md/lgcc8l7571l9vt9sx0g0zflw0000gn/T//ccpAt1EU.s:1111   .text.USBD_LL_IsStallEP:0000000000000000 USBD_LL_IsStallEP
/var/folders/md/lgcc8l7571l9vt9sx0g0zflw0000gn/T//ccpAt1EU.s:1161   .text.USBD_LL_SetUSBAddress:0000000000000000 $t
ARM GAS  /var/folders/md/lgcc8l7571l9vt9sx0g0zflw0000gn/T//ccpAt1EU.s 			page 44


/var/folders/md/lgcc8l7571l9vt9sx0g0zflw0000gn/T//ccpAt1EU.s:1168   .text.USBD_LL_SetUSBAddress:0000000000000000 USBD_LL_SetUSBAddress
/var/folders/md/lgcc8l7571l9vt9sx0g0zflw0000gn/T//ccpAt1EU.s:1202   .text.USBD_LL_Transmit:0000000000000000 $t
/var/folders/md/lgcc8l7571l9vt9sx0g0zflw0000gn/T//ccpAt1EU.s:1209   .text.USBD_LL_Transmit:0000000000000000 USBD_LL_Transmit
/var/folders/md/lgcc8l7571l9vt9sx0g0zflw0000gn/T//ccpAt1EU.s:1243   .text.USBD_LL_PrepareReceive:0000000000000000 $t
/var/folders/md/lgcc8l7571l9vt9sx0g0zflw0000gn/T//ccpAt1EU.s:1250   .text.USBD_LL_PrepareReceive:0000000000000000 USBD_LL_PrepareReceive
/var/folders/md/lgcc8l7571l9vt9sx0g0zflw0000gn/T//ccpAt1EU.s:1284   .text.USBD_LL_GetRxDataSize:0000000000000000 $t
/var/folders/md/lgcc8l7571l9vt9sx0g0zflw0000gn/T//ccpAt1EU.s:1291   .text.USBD_LL_GetRxDataSize:0000000000000000 USBD_LL_GetRxDataSize
/var/folders/md/lgcc8l7571l9vt9sx0g0zflw0000gn/T//ccpAt1EU.s:1317   .text.USBD_LL_Delay:0000000000000000 $t
/var/folders/md/lgcc8l7571l9vt9sx0g0zflw0000gn/T//ccpAt1EU.s:1324   .text.USBD_LL_Delay:0000000000000000 USBD_LL_Delay
/var/folders/md/lgcc8l7571l9vt9sx0g0zflw0000gn/T//ccpAt1EU.s:1346   .text.USBD_static_malloc:0000000000000000 $t
/var/folders/md/lgcc8l7571l9vt9sx0g0zflw0000gn/T//ccpAt1EU.s:1353   .text.USBD_static_malloc:0000000000000000 USBD_static_malloc
/var/folders/md/lgcc8l7571l9vt9sx0g0zflw0000gn/T//ccpAt1EU.s:1371   .text.USBD_static_malloc:0000000000000004 $d
/var/folders/md/lgcc8l7571l9vt9sx0g0zflw0000gn/T//ccpAt1EU.s:1376   .text.USBD_static_free:0000000000000000 $t
/var/folders/md/lgcc8l7571l9vt9sx0g0zflw0000gn/T//ccpAt1EU.s:1383   .text.USBD_static_free:0000000000000000 USBD_static_free
/var/folders/md/lgcc8l7571l9vt9sx0g0zflw0000gn/T//ccpAt1EU.s:1397   .text.HAL_PCDEx_SetConnectionState:0000000000000000 $t
/var/folders/md/lgcc8l7571l9vt9sx0g0zflw0000gn/T//ccpAt1EU.s:1404   .text.HAL_PCDEx_SetConnectionState:0000000000000000 HAL_PCDEx_SetConnectionState
/var/folders/md/lgcc8l7571l9vt9sx0g0zflw0000gn/T//ccpAt1EU.s:1421   .bss.mem.10295:0000000000000000 $d
/var/folders/md/lgcc8l7571l9vt9sx0g0zflw0000gn/T//ccpAt1EU.s:1425   .bss.mem.10295:0000000000000000 mem.10295
/var/folders/md/lgcc8l7571l9vt9sx0g0zflw0000gn/T//ccpAt1EU.s:43     .text.USBD_Get_USB_Status:000000000000000b $d
/var/folders/md/lgcc8l7571l9vt9sx0g0zflw0000gn/T//ccpAt1EU.s:43     .text.USBD_Get_USB_Status:000000000000000c $t

UNDEFINED SYMBOLS
HAL_GPIO_Init
HAL_NVIC_SetPriority
HAL_NVIC_EnableIRQ
HAL_GPIO_DeInit
HAL_NVIC_DisableIRQ
USBD_LL_SetupStage
USBD_LL_DataOutStage
USBD_LL_DataInStage
USBD_LL_SOF
USBD_LL_SetSpeed
USBD_LL_Reset
Error_Handler
USBD_LL_Suspend
USBD_LL_Resume
USBD_LL_IsoOUTIncomplete
USBD_LL_IsoINIncomplete
USBD_LL_DevConnected
USBD_LL_DevDisconnected
HAL_PCD_Init
HAL_PCDEx_PMAConfig
HAL_PCD_DeInit
HAL_PCD_Start
HAL_PCD_Stop
HAL_PCD_EP_Open
HAL_PCD_EP_Close
HAL_PCD_EP_Flush
HAL_PCD_EP_SetStall
HAL_PCD_EP_ClrStall
HAL_PCD_SetAddress
HAL_PCD_EP_Transmit
HAL_PCD_EP_Receive
HAL_PCD_EP_GetRxCount
HAL_Delay
