ARM GAS  /var/folders/md/lgcc8l7571l9vt9sx0g0zflw0000gn/T//ccFwbLZs.s 			page 1


   1              		.cpu cortex-m4
   2              		.eabi_attribute 27, 1
   3              		.eabi_attribute 28, 1
   4              		.eabi_attribute 20, 1
   5              		.eabi_attribute 21, 1
   6              		.eabi_attribute 23, 3
   7              		.eabi_attribute 24, 1
   8              		.eabi_attribute 25, 1
   9              		.eabi_attribute 26, 1
  10              		.eabi_attribute 30, 1
  11              		.eabi_attribute 34, 1
  12              		.eabi_attribute 18, 4
  13              		.file	"gpio.c"
  14              		.text
  15              	.Ltext0:
  16              		.cfi_sections	.debug_frame
  17              		.section	.text.MX_GPIO_Init,"ax",%progbits
  18              		.align	1
  19              		.global	MX_GPIO_Init
  20              		.arch armv7e-m
  21              		.syntax unified
  22              		.thumb
  23              		.thumb_func
  24              		.fpu fpv4-sp-d16
  26              	MX_GPIO_Init:
  27              	.LFB126:
  28              		.file 1 "Src/gpio.c"
   1:Src/gpio.c    **** /**
   2:Src/gpio.c    ****   ******************************************************************************
   3:Src/gpio.c    ****   * File Name          : gpio.c
   4:Src/gpio.c    ****   * Description        : This file provides code for the configuration
   5:Src/gpio.c    ****   *                      of all used GPIO pins.
   6:Src/gpio.c    ****   ******************************************************************************
   7:Src/gpio.c    ****   ** This notice applies to any and all portions of this file
   8:Src/gpio.c    ****   * that are not between comment pairs USER CODE BEGIN and
   9:Src/gpio.c    ****   * USER CODE END. Other portions of this file, whether 
  10:Src/gpio.c    ****   * inserted by the user or by software development tools
  11:Src/gpio.c    ****   * are owned by their respective copyright owners.
  12:Src/gpio.c    ****   *
  13:Src/gpio.c    ****   * COPYRIGHT(c) 2020 STMicroelectronics
  14:Src/gpio.c    ****   *
  15:Src/gpio.c    ****   * Redistribution and use in source and binary forms, with or without modification,
  16:Src/gpio.c    ****   * are permitted provided that the following conditions are met:
  17:Src/gpio.c    ****   *   1. Redistributions of source code must retain the above copyright notice,
  18:Src/gpio.c    ****   *      this list of conditions and the following disclaimer.
  19:Src/gpio.c    ****   *   2. Redistributions in binary form must reproduce the above copyright notice,
  20:Src/gpio.c    ****   *      this list of conditions and the following disclaimer in the documentation
  21:Src/gpio.c    ****   *      and/or other materials provided with the distribution.
  22:Src/gpio.c    ****   *   3. Neither the name of STMicroelectronics nor the names of its contributors
  23:Src/gpio.c    ****   *      may be used to endorse or promote products derived from this software
  24:Src/gpio.c    ****   *      without specific prior written permission.
  25:Src/gpio.c    ****   *
  26:Src/gpio.c    ****   * THIS SOFTWARE IS PROVIDED BY THE COPYRIGHT HOLDERS AND CONTRIBUTORS "AS IS"
  27:Src/gpio.c    ****   * AND ANY EXPRESS OR IMPLIED WARRANTIES, INCLUDING, BUT NOT LIMITED TO, THE
  28:Src/gpio.c    ****   * IMPLIED WARRANTIES OF MERCHANTABILITY AND FITNESS FOR A PARTICULAR PURPOSE ARE
  29:Src/gpio.c    ****   * DISCLAIMED. IN NO EVENT SHALL THE COPYRIGHT HOLDER OR CONTRIBUTORS BE LIABLE
  30:Src/gpio.c    ****   * FOR ANY DIRECT, INDIRECT, INCIDENTAL, SPECIAL, EXEMPLARY, OR CONSEQUENTIAL
ARM GAS  /var/folders/md/lgcc8l7571l9vt9sx0g0zflw0000gn/T//ccFwbLZs.s 			page 2


  31:Src/gpio.c    ****   * DAMAGES (INCLUDING, BUT NOT LIMITED TO, PROCUREMENT OF SUBSTITUTE GOODS OR
  32:Src/gpio.c    ****   * SERVICES; LOSS OF USE, DATA, OR PROFITS; OR BUSINESS INTERRUPTION) HOWEVER
  33:Src/gpio.c    ****   * CAUSED AND ON ANY THEORY OF LIABILITY, WHETHER IN CONTRACT, STRICT LIABILITY,
  34:Src/gpio.c    ****   * OR TORT (INCLUDING NEGLIGENCE OR OTHERWISE) ARISING IN ANY WAY OUT OF THE USE
  35:Src/gpio.c    ****   * OF THIS SOFTWARE, EVEN IF ADVISED OF THE POSSIBILITY OF SUCH DAMAGE.
  36:Src/gpio.c    ****   *
  37:Src/gpio.c    ****   ******************************************************************************
  38:Src/gpio.c    ****   */
  39:Src/gpio.c    **** 
  40:Src/gpio.c    **** /* Includes ------------------------------------------------------------------*/
  41:Src/gpio.c    **** #include "gpio.h"
  42:Src/gpio.c    **** /* USER CODE BEGIN 0 */
  43:Src/gpio.c    **** 
  44:Src/gpio.c    **** /* USER CODE END 0 */
  45:Src/gpio.c    **** 
  46:Src/gpio.c    **** /*----------------------------------------------------------------------------*/
  47:Src/gpio.c    **** /* Configure GPIO                                                             */
  48:Src/gpio.c    **** /*----------------------------------------------------------------------------*/
  49:Src/gpio.c    **** /* USER CODE BEGIN 1 */
  50:Src/gpio.c    **** 
  51:Src/gpio.c    **** /* USER CODE END 1 */
  52:Src/gpio.c    **** 
  53:Src/gpio.c    **** /** Configure pins as 
  54:Src/gpio.c    ****         * Analog 
  55:Src/gpio.c    ****         * Input 
  56:Src/gpio.c    ****         * Output
  57:Src/gpio.c    ****         * EVENT_OUT
  58:Src/gpio.c    ****         * EXTI
  59:Src/gpio.c    ****         * Free pins are configured automatically as Analog (this feature is enabled through 
  60:Src/gpio.c    ****         * the Code Generation settings)
  61:Src/gpio.c    ****      PA15   ------> SPI1_NSS
  62:Src/gpio.c    ****      PC10   ------> UART4_TX
  63:Src/gpio.c    ****      PC11   ------> UART4_RX
  64:Src/gpio.c    ****      PB4   ------> SPI1_MISO
  65:Src/gpio.c    ****      PB5   ------> SPI1_MOSI
  66:Src/gpio.c    ****      PB8   ------> USART3_RX
  67:Src/gpio.c    ****      PB9   ------> USART3_TX
  68:Src/gpio.c    **** */
  69:Src/gpio.c    **** void MX_GPIO_Init(void)
  70:Src/gpio.c    **** {
  29              		.loc 1 70 1 view -0
  30              		.cfi_startproc
  31              		@ args = 0, pretend = 0, frame = 48
  32              		@ frame_needed = 0, uses_anonymous_args = 0
  33 0000 2DE9F04F 		push	{r4, r5, r6, r7, r8, r9, r10, fp, lr}
  34              	.LCFI0:
  35              		.cfi_def_cfa_offset 36
  36              		.cfi_offset 4, -36
  37              		.cfi_offset 5, -32
  38              		.cfi_offset 6, -28
  39              		.cfi_offset 7, -24
  40              		.cfi_offset 8, -20
  41              		.cfi_offset 9, -16
  42              		.cfi_offset 10, -12
  43              		.cfi_offset 11, -8
  44              		.cfi_offset 14, -4
  45 0004 8DB0     		sub	sp, sp, #52
ARM GAS  /var/folders/md/lgcc8l7571l9vt9sx0g0zflw0000gn/T//ccFwbLZs.s 			page 3


  46              	.LCFI1:
  47              		.cfi_def_cfa_offset 88
  71:Src/gpio.c    **** 
  72:Src/gpio.c    ****   GPIO_InitTypeDef GPIO_InitStruct;
  48              		.loc 1 72 3 view .LVU1
  73:Src/gpio.c    **** 
  74:Src/gpio.c    ****   /* GPIO Ports Clock Enable */
  75:Src/gpio.c    ****   __HAL_RCC_GPIOE_CLK_ENABLE();
  49              		.loc 1 75 3 view .LVU2
  50              	.LBB2:
  51              		.loc 1 75 3 view .LVU3
  52              		.loc 1 75 3 view .LVU4
  53 0006 814B     		ldr	r3, .L3
  54 0008 5A69     		ldr	r2, [r3, #20]
  55 000a 42F40012 		orr	r2, r2, #2097152
  56 000e 5A61     		str	r2, [r3, #20]
  57              		.loc 1 75 3 view .LVU5
  58 0010 5A69     		ldr	r2, [r3, #20]
  59 0012 02F40012 		and	r2, r2, #2097152
  60 0016 0192     		str	r2, [sp, #4]
  61              		.loc 1 75 3 view .LVU6
  62 0018 019A     		ldr	r2, [sp, #4]
  63              	.LBE2:
  76:Src/gpio.c    ****   __HAL_RCC_GPIOC_CLK_ENABLE();
  64              		.loc 1 76 3 view .LVU7
  65              	.LBB3:
  66              		.loc 1 76 3 view .LVU8
  67              		.loc 1 76 3 view .LVU9
  68 001a 5A69     		ldr	r2, [r3, #20]
  69 001c 42F40022 		orr	r2, r2, #524288
  70 0020 5A61     		str	r2, [r3, #20]
  71              		.loc 1 76 3 view .LVU10
  72 0022 5A69     		ldr	r2, [r3, #20]
  73 0024 02F40022 		and	r2, r2, #524288
  74 0028 0292     		str	r2, [sp, #8]
  75              		.loc 1 76 3 view .LVU11
  76 002a 029A     		ldr	r2, [sp, #8]
  77              	.LBE3:
  77:Src/gpio.c    ****   __HAL_RCC_GPIOF_CLK_ENABLE();
  78              		.loc 1 77 3 view .LVU12
  79              	.LBB4:
  80              		.loc 1 77 3 view .LVU13
  81              		.loc 1 77 3 view .LVU14
  82 002c 5A69     		ldr	r2, [r3, #20]
  83 002e 42F48002 		orr	r2, r2, #4194304
  84 0032 5A61     		str	r2, [r3, #20]
  85              		.loc 1 77 3 view .LVU15
  86 0034 5A69     		ldr	r2, [r3, #20]
  87 0036 02F48002 		and	r2, r2, #4194304
  88 003a 0392     		str	r2, [sp, #12]
  89              		.loc 1 77 3 view .LVU16
  90 003c 039A     		ldr	r2, [sp, #12]
  91              	.LBE4:
  78:Src/gpio.c    ****   __HAL_RCC_GPIOA_CLK_ENABLE();
  92              		.loc 1 78 3 view .LVU17
  93              	.LBB5:
  94              		.loc 1 78 3 view .LVU18
ARM GAS  /var/folders/md/lgcc8l7571l9vt9sx0g0zflw0000gn/T//ccFwbLZs.s 			page 4


  95              		.loc 1 78 3 view .LVU19
  96 003e 5A69     		ldr	r2, [r3, #20]
  97 0040 42F40032 		orr	r2, r2, #131072
  98 0044 5A61     		str	r2, [r3, #20]
  99              		.loc 1 78 3 view .LVU20
 100 0046 5A69     		ldr	r2, [r3, #20]
 101 0048 02F40032 		and	r2, r2, #131072
 102 004c 0492     		str	r2, [sp, #16]
 103              		.loc 1 78 3 view .LVU21
 104 004e 049A     		ldr	r2, [sp, #16]
 105              	.LBE5:
  79:Src/gpio.c    ****   __HAL_RCC_GPIOB_CLK_ENABLE();
 106              		.loc 1 79 3 view .LVU22
 107              	.LBB6:
 108              		.loc 1 79 3 view .LVU23
 109              		.loc 1 79 3 view .LVU24
 110 0050 5A69     		ldr	r2, [r3, #20]
 111 0052 42F48022 		orr	r2, r2, #262144
 112 0056 5A61     		str	r2, [r3, #20]
 113              		.loc 1 79 3 view .LVU25
 114 0058 5A69     		ldr	r2, [r3, #20]
 115 005a 02F48022 		and	r2, r2, #262144
 116 005e 0592     		str	r2, [sp, #20]
 117              		.loc 1 79 3 view .LVU26
 118 0060 059A     		ldr	r2, [sp, #20]
 119              	.LBE6:
  80:Src/gpio.c    ****   __HAL_RCC_GPIOD_CLK_ENABLE();
 120              		.loc 1 80 3 view .LVU27
 121              	.LBB7:
 122              		.loc 1 80 3 view .LVU28
 123              		.loc 1 80 3 view .LVU29
 124 0062 5A69     		ldr	r2, [r3, #20]
 125 0064 42F48012 		orr	r2, r2, #1048576
 126 0068 5A61     		str	r2, [r3, #20]
 127              		.loc 1 80 3 view .LVU30
 128 006a 5B69     		ldr	r3, [r3, #20]
 129 006c 03F48013 		and	r3, r3, #1048576
 130 0070 0693     		str	r3, [sp, #24]
 131              		.loc 1 80 3 view .LVU31
 132 0072 069B     		ldr	r3, [sp, #24]
 133              	.LBE7:
  81:Src/gpio.c    **** 
  82:Src/gpio.c    ****   /*Configure GPIO pin Output Level */
  83:Src/gpio.c    ****   HAL_GPIO_WritePin(GPIOD, GPIO_PIN_8|GPIO_PIN_9|GPIO_PIN_10, GPIO_PIN_RESET);
 134              		.loc 1 83 3 view .LVU32
 135 0074 DFF8A481 		ldr	r8, .L3+16
 136 0078 0022     		movs	r2, #0
 137 007a 4FF4E061 		mov	r1, #1792
 138 007e 4046     		mov	r0, r8
 139 0080 FFF7FEFF 		bl	HAL_GPIO_WritePin
 140              	.LVL0:
  84:Src/gpio.c    **** 
  85:Src/gpio.c    ****   /*Configure GPIO pin Output Level */
  86:Src/gpio.c    ****   HAL_GPIO_WritePin(DS18B20_RJ1_GPIO_Port, DS18B20_RJ1_Pin, GPIO_PIN_RESET);
 141              		.loc 1 86 3 view .LVU33
 142 0084 624E     		ldr	r6, .L3+4
 143 0086 0022     		movs	r2, #0
ARM GAS  /var/folders/md/lgcc8l7571l9vt9sx0g0zflw0000gn/T//ccFwbLZs.s 			page 5


 144 0088 4FF40071 		mov	r1, #512
 145 008c 3046     		mov	r0, r6
 146 008e FFF7FEFF 		bl	HAL_GPIO_WritePin
 147              	.LVL1:
  87:Src/gpio.c    **** 
  88:Src/gpio.c    ****   /*Configure GPIO pins : PE2 PE3 PE4 PE5 
  89:Src/gpio.c    ****                            PE6 PE14 PE15 PE1 */
  90:Src/gpio.c    ****   GPIO_InitStruct.Pin = GPIO_PIN_2|GPIO_PIN_3|GPIO_PIN_4|GPIO_PIN_5 
 148              		.loc 1 90 3 view .LVU34
 149              		.loc 1 90 23 is_stmt 0 view .LVU35
 150 0092 4CF27E0B 		movw	fp, #49278
 151 0096 CDF81CB0 		str	fp, [sp, #28]
  91:Src/gpio.c    ****                           |GPIO_PIN_6|GPIO_PIN_14|GPIO_PIN_15|GPIO_PIN_1;
  92:Src/gpio.c    ****   GPIO_InitStruct.Mode = GPIO_MODE_ANALOG;
 152              		.loc 1 92 3 is_stmt 1 view .LVU36
 153              		.loc 1 92 24 is_stmt 0 view .LVU37
 154 009a 0325     		movs	r5, #3
 155 009c 0895     		str	r5, [sp, #32]
  93:Src/gpio.c    ****   GPIO_InitStruct.Pull = GPIO_NOPULL;
 156              		.loc 1 93 3 is_stmt 1 view .LVU38
 157              		.loc 1 93 24 is_stmt 0 view .LVU39
 158 009e 0024     		movs	r4, #0
 159 00a0 0994     		str	r4, [sp, #36]
  94:Src/gpio.c    ****   HAL_GPIO_Init(GPIOE, &GPIO_InitStruct);
 160              		.loc 1 94 3 is_stmt 1 view .LVU40
 161 00a2 DFF87CA1 		ldr	r10, .L3+20
 162 00a6 07A9     		add	r1, sp, #28
 163 00a8 5046     		mov	r0, r10
 164 00aa FFF7FEFF 		bl	HAL_GPIO_Init
 165              	.LVL2:
  95:Src/gpio.c    **** 
  96:Src/gpio.c    ****   /*Configure GPIO pins : PC13 PC0 PC1 PC2 
  97:Src/gpio.c    ****                            PC3 PC4 PC5 PC12 */
  98:Src/gpio.c    ****   GPIO_InitStruct.Pin = GPIO_PIN_13|GPIO_PIN_0|GPIO_PIN_1|GPIO_PIN_2 
 166              		.loc 1 98 3 view .LVU41
 167              		.loc 1 98 23 is_stmt 0 view .LVU42
 168 00ae 43F23F03 		movw	r3, #12351
 169 00b2 0793     		str	r3, [sp, #28]
  99:Src/gpio.c    ****                           |GPIO_PIN_3|GPIO_PIN_4|GPIO_PIN_5|GPIO_PIN_12;
 100:Src/gpio.c    ****   GPIO_InitStruct.Mode = GPIO_MODE_ANALOG;
 170              		.loc 1 100 3 is_stmt 1 view .LVU43
 171              		.loc 1 100 24 is_stmt 0 view .LVU44
 172 00b4 0895     		str	r5, [sp, #32]
 101:Src/gpio.c    ****   GPIO_InitStruct.Pull = GPIO_NOPULL;
 173              		.loc 1 101 3 is_stmt 1 view .LVU45
 174              		.loc 1 101 24 is_stmt 0 view .LVU46
 175 00b6 0994     		str	r4, [sp, #36]
 102:Src/gpio.c    ****   HAL_GPIO_Init(GPIOC, &GPIO_InitStruct);
 176              		.loc 1 102 3 is_stmt 1 view .LVU47
 177 00b8 07A9     		add	r1, sp, #28
 178 00ba 3046     		mov	r0, r6
 179 00bc FFF7FEFF 		bl	HAL_GPIO_Init
 180              	.LVL3:
 103:Src/gpio.c    **** 
 104:Src/gpio.c    ****   /*Configure GPIO pins : PF9 PF10 PF2 PF6 */
 105:Src/gpio.c    ****   GPIO_InitStruct.Pin = GPIO_PIN_9|GPIO_PIN_10|GPIO_PIN_2|GPIO_PIN_6;
 181              		.loc 1 105 3 view .LVU48
ARM GAS  /var/folders/md/lgcc8l7571l9vt9sx0g0zflw0000gn/T//ccFwbLZs.s 			page 6


 182              		.loc 1 105 23 is_stmt 0 view .LVU49
 183 00c0 40F24463 		movw	r3, #1604
 184 00c4 0793     		str	r3, [sp, #28]
 106:Src/gpio.c    ****   GPIO_InitStruct.Mode = GPIO_MODE_ANALOG;
 185              		.loc 1 106 3 is_stmt 1 view .LVU50
 186              		.loc 1 106 24 is_stmt 0 view .LVU51
 187 00c6 0895     		str	r5, [sp, #32]
 107:Src/gpio.c    ****   GPIO_InitStruct.Pull = GPIO_NOPULL;
 188              		.loc 1 107 3 is_stmt 1 view .LVU52
 189              		.loc 1 107 24 is_stmt 0 view .LVU53
 190 00c8 0994     		str	r4, [sp, #36]
 108:Src/gpio.c    ****   HAL_GPIO_Init(GPIOF, &GPIO_InitStruct);
 191              		.loc 1 108 3 is_stmt 1 view .LVU54
 192 00ca 07A9     		add	r1, sp, #28
 193 00cc 5148     		ldr	r0, .L3+8
 194 00ce FFF7FEFF 		bl	HAL_GPIO_Init
 195              	.LVL4:
 109:Src/gpio.c    **** 
 110:Src/gpio.c    ****   /*Configure GPIO pins : PA1 PA4 PA5 PA6 
 111:Src/gpio.c    ****                            PA7 PA11 PA12 PA13 */
 112:Src/gpio.c    ****   GPIO_InitStruct.Pin = GPIO_PIN_1|GPIO_PIN_4|GPIO_PIN_5|GPIO_PIN_6 
 196              		.loc 1 112 3 view .LVU55
 197              		.loc 1 112 23 is_stmt 0 view .LVU56
 198 00d2 43F6F203 		movw	r3, #14578
 199 00d6 0793     		str	r3, [sp, #28]
 113:Src/gpio.c    ****                           |GPIO_PIN_7|GPIO_PIN_11|GPIO_PIN_12|GPIO_PIN_13;
 114:Src/gpio.c    ****   GPIO_InitStruct.Mode = GPIO_MODE_ANALOG;
 200              		.loc 1 114 3 is_stmt 1 view .LVU57
 201              		.loc 1 114 24 is_stmt 0 view .LVU58
 202 00d8 0895     		str	r5, [sp, #32]
 115:Src/gpio.c    ****   GPIO_InitStruct.Pull = GPIO_NOPULL;
 203              		.loc 1 115 3 is_stmt 1 view .LVU59
 204              		.loc 1 115 24 is_stmt 0 view .LVU60
 205 00da 0994     		str	r4, [sp, #36]
 116:Src/gpio.c    ****   HAL_GPIO_Init(GPIOA, &GPIO_InitStruct);
 206              		.loc 1 116 3 is_stmt 1 view .LVU61
 207 00dc 07A9     		add	r1, sp, #28
 208 00de 4FF09040 		mov	r0, #1207959552
 209 00e2 FFF7FEFF 		bl	HAL_GPIO_Init
 210              	.LVL5:
 117:Src/gpio.c    **** 
 118:Src/gpio.c    ****   /*Configure GPIO pins : PB2 PB10 PB11 PB13 
 119:Src/gpio.c    ****                            PB15 */
 120:Src/gpio.c    ****   GPIO_InitStruct.Pin = GPIO_PIN_2|GPIO_PIN_10|GPIO_PIN_11|GPIO_PIN_13 
 211              		.loc 1 120 3 view .LVU62
 212              		.loc 1 120 23 is_stmt 0 view .LVU63
 213 00e6 4AF60443 		movw	r3, #44036
 214 00ea 0793     		str	r3, [sp, #28]
 121:Src/gpio.c    ****                           |GPIO_PIN_15;
 122:Src/gpio.c    ****   GPIO_InitStruct.Mode = GPIO_MODE_ANALOG;
 215              		.loc 1 122 3 is_stmt 1 view .LVU64
 216              		.loc 1 122 24 is_stmt 0 view .LVU65
 217 00ec 0895     		str	r5, [sp, #32]
 123:Src/gpio.c    ****   GPIO_InitStruct.Pull = GPIO_NOPULL;
 218              		.loc 1 123 3 is_stmt 1 view .LVU66
 219              		.loc 1 123 24 is_stmt 0 view .LVU67
 220 00ee 0994     		str	r4, [sp, #36]
ARM GAS  /var/folders/md/lgcc8l7571l9vt9sx0g0zflw0000gn/T//ccFwbLZs.s 			page 7


 124:Src/gpio.c    ****   HAL_GPIO_Init(GPIOB, &GPIO_InitStruct);
 221              		.loc 1 124 3 is_stmt 1 view .LVU68
 222 00f0 494F     		ldr	r7, .L3+12
 223 00f2 07A9     		add	r1, sp, #28
 224 00f4 3846     		mov	r0, r7
 225 00f6 FFF7FEFF 		bl	HAL_GPIO_Init
 226              	.LVL6:
 125:Src/gpio.c    **** 
 126:Src/gpio.c    ****   /*Configure GPIO pins : PBPin PB3 PB6 PB7 */
 127:Src/gpio.c    ****   GPIO_InitStruct.Pin = BUTTON1_Pin|GPIO_PIN_3|GPIO_PIN_6|GPIO_PIN_7;
 227              		.loc 1 127 3 view .LVU69
 228              		.loc 1 127 23 is_stmt 0 view .LVU70
 229 00fa 44F2C803 		movw	r3, #16584
 230 00fe 0793     		str	r3, [sp, #28]
 128:Src/gpio.c    ****   GPIO_InitStruct.Mode = GPIO_MODE_INPUT;
 231              		.loc 1 128 3 is_stmt 1 view .LVU71
 232              		.loc 1 128 24 is_stmt 0 view .LVU72
 233 0100 0894     		str	r4, [sp, #32]
 129:Src/gpio.c    ****   GPIO_InitStruct.Pull = GPIO_NOPULL;
 234              		.loc 1 129 3 is_stmt 1 view .LVU73
 235              		.loc 1 129 24 is_stmt 0 view .LVU74
 236 0102 0994     		str	r4, [sp, #36]
 130:Src/gpio.c    ****   HAL_GPIO_Init(GPIOB, &GPIO_InitStruct);
 237              		.loc 1 130 3 is_stmt 1 view .LVU75
 238 0104 07A9     		add	r1, sp, #28
 239 0106 3846     		mov	r0, r7
 240 0108 FFF7FEFF 		bl	HAL_GPIO_Init
 241              	.LVL7:
 131:Src/gpio.c    **** 
 132:Src/gpio.c    ****   /*Configure GPIO pins : PD8 PD9 PD10 */
 133:Src/gpio.c    ****   GPIO_InitStruct.Pin = GPIO_PIN_8|GPIO_PIN_9|GPIO_PIN_10;
 242              		.loc 1 133 3 view .LVU76
 243              		.loc 1 133 23 is_stmt 0 view .LVU77
 244 010c 4FF4E063 		mov	r3, #1792
 245 0110 0793     		str	r3, [sp, #28]
 134:Src/gpio.c    ****   GPIO_InitStruct.Mode = GPIO_MODE_OUTPUT_PP;
 246              		.loc 1 134 3 is_stmt 1 view .LVU78
 247              		.loc 1 134 24 is_stmt 0 view .LVU79
 248 0112 4FF00109 		mov	r9, #1
 249 0116 CDF82090 		str	r9, [sp, #32]
 135:Src/gpio.c    ****   GPIO_InitStruct.Pull = GPIO_NOPULL;
 250              		.loc 1 135 3 is_stmt 1 view .LVU80
 251              		.loc 1 135 24 is_stmt 0 view .LVU81
 252 011a 0994     		str	r4, [sp, #36]
 136:Src/gpio.c    ****   GPIO_InitStruct.Speed = GPIO_SPEED_FREQ_LOW;
 253              		.loc 1 136 3 is_stmt 1 view .LVU82
 254              		.loc 1 136 25 is_stmt 0 view .LVU83
 255 011c 0A94     		str	r4, [sp, #40]
 137:Src/gpio.c    ****   HAL_GPIO_Init(GPIOD, &GPIO_InitStruct);
 256              		.loc 1 137 3 is_stmt 1 view .LVU84
 257 011e 07A9     		add	r1, sp, #28
 258 0120 4046     		mov	r0, r8
 259 0122 FFF7FEFF 		bl	HAL_GPIO_Init
 260              	.LVL8:
 138:Src/gpio.c    **** 
 139:Src/gpio.c    ****   /*Configure GPIO pins : PDPin PDPin PDPin PDPin */
 140:Src/gpio.c    ****   GPIO_InitStruct.Pin = RPI_GPIO16_Pin|RPI_GPIO20_Pin|DS18B20_RJ2_Pin|DIO0_RFM_Pin;
ARM GAS  /var/folders/md/lgcc8l7571l9vt9sx0g0zflw0000gn/T//ccFwbLZs.s 			page 8


 261              		.loc 1 140 3 view .LVU85
 262              		.loc 1 140 23 is_stmt 0 view .LVU86
 263 0126 43F28103 		movw	r3, #12417
 264 012a 0793     		str	r3, [sp, #28]
 141:Src/gpio.c    ****   GPIO_InitStruct.Mode = GPIO_MODE_INPUT;
 265              		.loc 1 141 3 is_stmt 1 view .LVU87
 266              		.loc 1 141 24 is_stmt 0 view .LVU88
 267 012c 0894     		str	r4, [sp, #32]
 142:Src/gpio.c    ****   GPIO_InitStruct.Pull = GPIO_NOPULL;
 268              		.loc 1 142 3 is_stmt 1 view .LVU89
 269              		.loc 1 142 24 is_stmt 0 view .LVU90
 270 012e 0994     		str	r4, [sp, #36]
 143:Src/gpio.c    ****   HAL_GPIO_Init(GPIOD, &GPIO_InitStruct);
 271              		.loc 1 143 3 is_stmt 1 view .LVU91
 272 0130 07A9     		add	r1, sp, #28
 273 0132 4046     		mov	r0, r8
 274 0134 FFF7FEFF 		bl	HAL_GPIO_Init
 275              	.LVL9:
 144:Src/gpio.c    **** 
 145:Src/gpio.c    ****   /*Configure GPIO pins : PD14 PD15 PD1 PD2 
 146:Src/gpio.c    ****                            PD3 PD4 PD5 PD6 */
 147:Src/gpio.c    ****   GPIO_InitStruct.Pin = GPIO_PIN_14|GPIO_PIN_15|GPIO_PIN_1|GPIO_PIN_2 
 276              		.loc 1 147 3 view .LVU92
 277              		.loc 1 147 23 is_stmt 0 view .LVU93
 278 0138 CDF81CB0 		str	fp, [sp, #28]
 148:Src/gpio.c    ****                           |GPIO_PIN_3|GPIO_PIN_4|GPIO_PIN_5|GPIO_PIN_6;
 149:Src/gpio.c    ****   GPIO_InitStruct.Mode = GPIO_MODE_ANALOG;
 279              		.loc 1 149 3 is_stmt 1 view .LVU94
 280              		.loc 1 149 24 is_stmt 0 view .LVU95
 281 013c 0895     		str	r5, [sp, #32]
 150:Src/gpio.c    ****   GPIO_InitStruct.Pull = GPIO_NOPULL;
 282              		.loc 1 150 3 is_stmt 1 view .LVU96
 283              		.loc 1 150 24 is_stmt 0 view .LVU97
 284 013e 0994     		str	r4, [sp, #36]
 151:Src/gpio.c    ****   HAL_GPIO_Init(GPIOD, &GPIO_InitStruct);
 285              		.loc 1 151 3 is_stmt 1 view .LVU98
 286 0140 07A9     		add	r1, sp, #28
 287 0142 4046     		mov	r0, r8
 288 0144 FFF7FEFF 		bl	HAL_GPIO_Init
 289              	.LVL10:
 152:Src/gpio.c    **** 
 153:Src/gpio.c    ****   /*Configure GPIO pins : PCPin PCPin PCPin */
 154:Src/gpio.c    ****   GPIO_InitStruct.Pin = PUSHIN_1_Pin|PUSHIN_2_Pin|PUSHIN_3_Pin;
 290              		.loc 1 154 3 view .LVU99
 291              		.loc 1 154 23 is_stmt 0 view .LVU100
 292 0148 4FF4E073 		mov	r3, #448
 293 014c 0793     		str	r3, [sp, #28]
 155:Src/gpio.c    ****   GPIO_InitStruct.Mode = GPIO_MODE_INPUT;
 294              		.loc 1 155 3 is_stmt 1 view .LVU101
 295              		.loc 1 155 24 is_stmt 0 view .LVU102
 296 014e 0894     		str	r4, [sp, #32]
 156:Src/gpio.c    ****   GPIO_InitStruct.Pull = GPIO_NOPULL;
 297              		.loc 1 156 3 is_stmt 1 view .LVU103
 298              		.loc 1 156 24 is_stmt 0 view .LVU104
 299 0150 0994     		str	r4, [sp, #36]
 157:Src/gpio.c    ****   HAL_GPIO_Init(GPIOC, &GPIO_InitStruct);
 300              		.loc 1 157 3 is_stmt 1 view .LVU105
ARM GAS  /var/folders/md/lgcc8l7571l9vt9sx0g0zflw0000gn/T//ccFwbLZs.s 			page 9


 301 0152 07A9     		add	r1, sp, #28
 302 0154 3046     		mov	r0, r6
 303 0156 FFF7FEFF 		bl	HAL_GPIO_Init
 304              	.LVL11:
 158:Src/gpio.c    **** 
 159:Src/gpio.c    ****   /*Configure GPIO pin : PtPin */
 160:Src/gpio.c    ****   GPIO_InitStruct.Pin = DS18B20_RJ1_Pin;
 305              		.loc 1 160 3 view .LVU106
 306              		.loc 1 160 23 is_stmt 0 view .LVU107
 307 015a 4FF40073 		mov	r3, #512
 308 015e 0793     		str	r3, [sp, #28]
 161:Src/gpio.c    ****   GPIO_InitStruct.Mode = GPIO_MODE_OUTPUT_PP;
 309              		.loc 1 161 3 is_stmt 1 view .LVU108
 310              		.loc 1 161 24 is_stmt 0 view .LVU109
 311 0160 CDF82090 		str	r9, [sp, #32]
 162:Src/gpio.c    ****   GPIO_InitStruct.Pull = GPIO_NOPULL;
 312              		.loc 1 162 3 is_stmt 1 view .LVU110
 313              		.loc 1 162 24 is_stmt 0 view .LVU111
 314 0164 0994     		str	r4, [sp, #36]
 163:Src/gpio.c    ****   GPIO_InitStruct.Speed = GPIO_SPEED_FREQ_LOW;
 315              		.loc 1 163 3 is_stmt 1 view .LVU112
 316              		.loc 1 163 25 is_stmt 0 view .LVU113
 317 0166 0A94     		str	r4, [sp, #40]
 164:Src/gpio.c    ****   HAL_GPIO_Init(DS18B20_RJ1_GPIO_Port, &GPIO_InitStruct);
 318              		.loc 1 164 3 is_stmt 1 view .LVU114
 319 0168 07A9     		add	r1, sp, #28
 320 016a 3046     		mov	r0, r6
 321 016c FFF7FEFF 		bl	HAL_GPIO_Init
 322              	.LVL12:
 165:Src/gpio.c    **** 
 166:Src/gpio.c    ****   /*Configure GPIO pin : PtPin */
 167:Src/gpio.c    ****   GPIO_InitStruct.Pin = PULSE_RJ1_Pin;
 323              		.loc 1 167 3 view .LVU115
 324              		.loc 1 167 23 is_stmt 0 view .LVU116
 325 0170 4FF48073 		mov	r3, #256
 326 0174 0793     		str	r3, [sp, #28]
 168:Src/gpio.c    ****   GPIO_InitStruct.Mode = GPIO_MODE_INPUT;
 327              		.loc 1 168 3 is_stmt 1 view .LVU117
 328              		.loc 1 168 24 is_stmt 0 view .LVU118
 329 0176 0894     		str	r4, [sp, #32]
 169:Src/gpio.c    ****   GPIO_InitStruct.Pull = GPIO_NOPULL;
 330              		.loc 1 169 3 is_stmt 1 view .LVU119
 331              		.loc 1 169 24 is_stmt 0 view .LVU120
 332 0178 0994     		str	r4, [sp, #36]
 170:Src/gpio.c    ****   HAL_GPIO_Init(PULSE_RJ1_GPIO_Port, &GPIO_InitStruct);
 333              		.loc 1 170 3 is_stmt 1 view .LVU121
 334 017a 07A9     		add	r1, sp, #28
 335 017c 4FF09040 		mov	r0, #1207959552
 336 0180 FFF7FEFF 		bl	HAL_GPIO_Init
 337              	.LVL13:
 171:Src/gpio.c    **** 
 172:Src/gpio.c    ****   /*Configure GPIO pin : PA15 */
 173:Src/gpio.c    ****   GPIO_InitStruct.Pin = GPIO_PIN_15;
 338              		.loc 1 173 3 view .LVU122
 339              		.loc 1 173 23 is_stmt 0 view .LVU123
 340 0184 4FF40043 		mov	r3, #32768
 341 0188 0793     		str	r3, [sp, #28]
ARM GAS  /var/folders/md/lgcc8l7571l9vt9sx0g0zflw0000gn/T//ccFwbLZs.s 			page 10


 174:Src/gpio.c    ****   GPIO_InitStruct.Mode = GPIO_MODE_AF_PP;
 342              		.loc 1 174 3 is_stmt 1 view .LVU124
 343              		.loc 1 174 24 is_stmt 0 view .LVU125
 344 018a 4FF00208 		mov	r8, #2
 345 018e CDF82080 		str	r8, [sp, #32]
 175:Src/gpio.c    ****   GPIO_InitStruct.Pull = GPIO_NOPULL;
 346              		.loc 1 175 3 is_stmt 1 view .LVU126
 347              		.loc 1 175 24 is_stmt 0 view .LVU127
 348 0192 0994     		str	r4, [sp, #36]
 176:Src/gpio.c    ****   GPIO_InitStruct.Speed = GPIO_SPEED_FREQ_HIGH;
 349              		.loc 1 176 3 is_stmt 1 view .LVU128
 350              		.loc 1 176 25 is_stmt 0 view .LVU129
 351 0194 0A95     		str	r5, [sp, #40]
 177:Src/gpio.c    ****   GPIO_InitStruct.Alternate = GPIO_AF5_SPI1;
 352              		.loc 1 177 3 is_stmt 1 view .LVU130
 353              		.loc 1 177 29 is_stmt 0 view .LVU131
 354 0196 4FF0050B 		mov	fp, #5
 355 019a CDF82CB0 		str	fp, [sp, #44]
 178:Src/gpio.c    ****   HAL_GPIO_Init(GPIOA, &GPIO_InitStruct);
 356              		.loc 1 178 3 is_stmt 1 view .LVU132
 357 019e 07A9     		add	r1, sp, #28
 358 01a0 4FF09040 		mov	r0, #1207959552
 359 01a4 FFF7FEFF 		bl	HAL_GPIO_Init
 360              	.LVL14:
 179:Src/gpio.c    **** 
 180:Src/gpio.c    ****   /*Configure GPIO pins : PC10 PC11 */
 181:Src/gpio.c    ****   GPIO_InitStruct.Pin = GPIO_PIN_10|GPIO_PIN_11;
 361              		.loc 1 181 3 view .LVU133
 362              		.loc 1 181 23 is_stmt 0 view .LVU134
 363 01a8 4FF44063 		mov	r3, #3072
 364 01ac 0793     		str	r3, [sp, #28]
 182:Src/gpio.c    ****   GPIO_InitStruct.Mode = GPIO_MODE_AF_PP;
 365              		.loc 1 182 3 is_stmt 1 view .LVU135
 366              		.loc 1 182 24 is_stmt 0 view .LVU136
 367 01ae CDF82080 		str	r8, [sp, #32]
 183:Src/gpio.c    ****   GPIO_InitStruct.Pull = GPIO_NOPULL;
 368              		.loc 1 183 3 is_stmt 1 view .LVU137
 369              		.loc 1 183 24 is_stmt 0 view .LVU138
 370 01b2 0994     		str	r4, [sp, #36]
 184:Src/gpio.c    ****   GPIO_InitStruct.Speed = GPIO_SPEED_FREQ_HIGH;
 371              		.loc 1 184 3 is_stmt 1 view .LVU139
 372              		.loc 1 184 25 is_stmt 0 view .LVU140
 373 01b4 0A95     		str	r5, [sp, #40]
 185:Src/gpio.c    ****   GPIO_InitStruct.Alternate = GPIO_AF5_UART4;
 374              		.loc 1 185 3 is_stmt 1 view .LVU141
 375              		.loc 1 185 29 is_stmt 0 view .LVU142
 376 01b6 CDF82CB0 		str	fp, [sp, #44]
 186:Src/gpio.c    ****   HAL_GPIO_Init(GPIOC, &GPIO_InitStruct);
 377              		.loc 1 186 3 is_stmt 1 view .LVU143
 378 01ba 07A9     		add	r1, sp, #28
 379 01bc 3046     		mov	r0, r6
 380 01be FFF7FEFF 		bl	HAL_GPIO_Init
 381              	.LVL15:
 187:Src/gpio.c    **** 
 188:Src/gpio.c    ****   /*Configure GPIO pins : PB4 PB5 */
 189:Src/gpio.c    ****   GPIO_InitStruct.Pin = GPIO_PIN_4|GPIO_PIN_5;
 382              		.loc 1 189 3 view .LVU144
ARM GAS  /var/folders/md/lgcc8l7571l9vt9sx0g0zflw0000gn/T//ccFwbLZs.s 			page 11


 383              		.loc 1 189 23 is_stmt 0 view .LVU145
 384 01c2 3023     		movs	r3, #48
 385 01c4 0793     		str	r3, [sp, #28]
 190:Src/gpio.c    ****   GPIO_InitStruct.Mode = GPIO_MODE_AF_PP;
 386              		.loc 1 190 3 is_stmt 1 view .LVU146
 387              		.loc 1 190 24 is_stmt 0 view .LVU147
 388 01c6 CDF82080 		str	r8, [sp, #32]
 191:Src/gpio.c    ****   GPIO_InitStruct.Pull = GPIO_NOPULL;
 389              		.loc 1 191 3 is_stmt 1 view .LVU148
 390              		.loc 1 191 24 is_stmt 0 view .LVU149
 391 01ca 0994     		str	r4, [sp, #36]
 192:Src/gpio.c    ****   GPIO_InitStruct.Speed = GPIO_SPEED_FREQ_HIGH;
 392              		.loc 1 192 3 is_stmt 1 view .LVU150
 393              		.loc 1 192 25 is_stmt 0 view .LVU151
 394 01cc 0A95     		str	r5, [sp, #40]
 193:Src/gpio.c    ****   GPIO_InitStruct.Alternate = GPIO_AF5_SPI1;
 395              		.loc 1 193 3 is_stmt 1 view .LVU152
 396              		.loc 1 193 29 is_stmt 0 view .LVU153
 397 01ce CDF82CB0 		str	fp, [sp, #44]
 194:Src/gpio.c    ****   HAL_GPIO_Init(GPIOB, &GPIO_InitStruct);
 398              		.loc 1 194 3 is_stmt 1 view .LVU154
 399 01d2 07A9     		add	r1, sp, #28
 400 01d4 3846     		mov	r0, r7
 401 01d6 FFF7FEFF 		bl	HAL_GPIO_Init
 402              	.LVL16:
 195:Src/gpio.c    **** 
 196:Src/gpio.c    ****   /*Configure GPIO pins : PB8 PB9 */
 197:Src/gpio.c    ****   GPIO_InitStruct.Pin = GPIO_PIN_8|GPIO_PIN_9;
 403              		.loc 1 197 3 view .LVU155
 404              		.loc 1 197 23 is_stmt 0 view .LVU156
 405 01da 4FF44073 		mov	r3, #768
 406 01de 0793     		str	r3, [sp, #28]
 198:Src/gpio.c    ****   GPIO_InitStruct.Mode = GPIO_MODE_AF_PP;
 407              		.loc 1 198 3 is_stmt 1 view .LVU157
 408              		.loc 1 198 24 is_stmt 0 view .LVU158
 409 01e0 CDF82080 		str	r8, [sp, #32]
 199:Src/gpio.c    ****   GPIO_InitStruct.Pull = GPIO_NOPULL;
 410              		.loc 1 199 3 is_stmt 1 view .LVU159
 411              		.loc 1 199 24 is_stmt 0 view .LVU160
 412 01e4 0994     		str	r4, [sp, #36]
 200:Src/gpio.c    ****   GPIO_InitStruct.Speed = GPIO_SPEED_FREQ_HIGH;
 413              		.loc 1 200 3 is_stmt 1 view .LVU161
 414              		.loc 1 200 25 is_stmt 0 view .LVU162
 415 01e6 0A95     		str	r5, [sp, #40]
 201:Src/gpio.c    ****   GPIO_InitStruct.Alternate = GPIO_AF7_USART3;
 416              		.loc 1 201 3 is_stmt 1 view .LVU163
 417              		.loc 1 201 29 is_stmt 0 view .LVU164
 418 01e8 0723     		movs	r3, #7
 419 01ea 0B93     		str	r3, [sp, #44]
 202:Src/gpio.c    ****   HAL_GPIO_Init(GPIOB, &GPIO_InitStruct);
 420              		.loc 1 202 3 is_stmt 1 view .LVU165
 421 01ec 07A9     		add	r1, sp, #28
 422 01ee 3846     		mov	r0, r7
 423 01f0 FFF7FEFF 		bl	HAL_GPIO_Init
 424              	.LVL17:
 203:Src/gpio.c    **** 
 204:Src/gpio.c    ****   /*Configure GPIO pin : PtPin */
ARM GAS  /var/folders/md/lgcc8l7571l9vt9sx0g0zflw0000gn/T//ccFwbLZs.s 			page 12


 205:Src/gpio.c    ****   GPIO_InitStruct.Pin = pushin_byant_Pin;
 425              		.loc 1 205 3 view .LVU166
 426              		.loc 1 205 23 is_stmt 0 view .LVU167
 427 01f4 CDF81C90 		str	r9, [sp, #28]
 206:Src/gpio.c    ****   GPIO_InitStruct.Mode = GPIO_MODE_INPUT;
 428              		.loc 1 206 3 is_stmt 1 view .LVU168
 429              		.loc 1 206 24 is_stmt 0 view .LVU169
 430 01f8 0894     		str	r4, [sp, #32]
 207:Src/gpio.c    ****   GPIO_InitStruct.Pull = GPIO_NOPULL;
 431              		.loc 1 207 3 is_stmt 1 view .LVU170
 432              		.loc 1 207 24 is_stmt 0 view .LVU171
 433 01fa 0994     		str	r4, [sp, #36]
 208:Src/gpio.c    ****   HAL_GPIO_Init(pushin_byant_GPIO_Port, &GPIO_InitStruct);
 434              		.loc 1 208 3 is_stmt 1 view .LVU172
 435 01fc 07A9     		add	r1, sp, #28
 436 01fe 5046     		mov	r0, r10
 437 0200 FFF7FEFF 		bl	HAL_GPIO_Init
 438              	.LVL18:
 209:Src/gpio.c    **** 
 210:Src/gpio.c    **** }
 439              		.loc 1 210 1 is_stmt 0 view .LVU173
 440 0204 0DB0     		add	sp, sp, #52
 441              	.LCFI2:
 442              		.cfi_def_cfa_offset 36
 443              		@ sp needed
 444 0206 BDE8F08F 		pop	{r4, r5, r6, r7, r8, r9, r10, fp, pc}
 445              	.L4:
 446 020a 00BF     		.align	2
 447              	.L3:
 448 020c 00100240 		.word	1073876992
 449 0210 00080048 		.word	1207961600
 450 0214 00140048 		.word	1207964672
 451 0218 00040048 		.word	1207960576
 452 021c 000C0048 		.word	1207962624
 453 0220 00100048 		.word	1207963648
 454              		.cfi_endproc
 455              	.LFE126:
 457              		.text
 458              	.Letext0:
 459              		.file 2 "/usr/local/gcc-arm-none-eabi-8-2019-q3-update/arm-none-eabi/include/machine/_default_type
 460              		.file 3 "/usr/local/gcc-arm-none-eabi-8-2019-q3-update/arm-none-eabi/include/sys/_stdint.h"
 461              		.file 4 "Drivers/CMSIS/Include/core_cm4.h"
 462              		.file 5 "Drivers/CMSIS/Device/ST/STM32F3xx/Include/system_stm32f3xx.h"
 463              		.file 6 "Drivers/CMSIS/Device/ST/STM32F3xx/Include/stm32f303xe.h"
 464              		.file 7 "/usr/local/gcc-arm-none-eabi-8-2019-q3-update/lib/gcc/arm-none-eabi/8.3.1/include/stddef.
 465              		.file 8 "/usr/local/gcc-arm-none-eabi-8-2019-q3-update/arm-none-eabi/include/sys/_types.h"
 466              		.file 9 "/usr/local/gcc-arm-none-eabi-8-2019-q3-update/arm-none-eabi/include/sys/reent.h"
 467              		.file 10 "/usr/local/gcc-arm-none-eabi-8-2019-q3-update/arm-none-eabi/include/sys/lock.h"
 468              		.file 11 "Drivers/STM32F3xx_HAL_Driver/Inc/stm32f3xx_hal_gpio.h"
 469              		.file 12 "Drivers/STM32F3xx_HAL_Driver/Inc/stm32f3xx_hal.h"
ARM GAS  /var/folders/md/lgcc8l7571l9vt9sx0g0zflw0000gn/T//ccFwbLZs.s 			page 13

