ARM GAS  /var/folders/md/lgcc8l7571l9vt9sx0g0zflw0000gn/T//ccmnh1CJ.s 			page 1


   1              		.cpu cortex-m4
   2              		.eabi_attribute 27, 1
   3              		.eabi_attribute 28, 1
   4              		.eabi_attribute 20, 1
   5              		.eabi_attribute 21, 1
   6              		.eabi_attribute 23, 3
   7              		.eabi_attribute 24, 1
   8              		.eabi_attribute 25, 1
   9              		.eabi_attribute 26, 1
  10              		.eabi_attribute 30, 1
  11              		.eabi_attribute 34, 1
  12              		.eabi_attribute 18, 4
  13              		.file	"stm32f3xx_hal_opamp.c"
  14              		.text
  15              	.Ltext0:
  16              		.cfi_sections	.debug_frame
  17              		.section	.text.HAL_OPAMP_MspInit,"ax",%progbits
  18              		.align	1
  19              		.weak	HAL_OPAMP_MspInit
  20              		.arch armv7e-m
  21              		.syntax unified
  22              		.thumb
  23              		.thumb_func
  24              		.fpu fpv4-sp-d16
  26              	HAL_OPAMP_MspInit:
  27              	.LVL0:
  28              	.LFB128:
  29              		.file 1 "Drivers/STM32F3xx_HAL_Driver/Src/stm32f3xx_hal_opamp.c"
   1:Drivers/STM32F3xx_HAL_Driver/Src/stm32f3xx_hal_opamp.c **** /**
   2:Drivers/STM32F3xx_HAL_Driver/Src/stm32f3xx_hal_opamp.c ****   ******************************************************************************
   3:Drivers/STM32F3xx_HAL_Driver/Src/stm32f3xx_hal_opamp.c ****   * @file    stm32f3xx_hal_opamp.c
   4:Drivers/STM32F3xx_HAL_Driver/Src/stm32f3xx_hal_opamp.c ****   * @author  MCD Application Team
   5:Drivers/STM32F3xx_HAL_Driver/Src/stm32f3xx_hal_opamp.c ****   * @brief   OPAMP HAL module driver.
   6:Drivers/STM32F3xx_HAL_Driver/Src/stm32f3xx_hal_opamp.c ****   *          This file provides firmware functions to manage the following 
   7:Drivers/STM32F3xx_HAL_Driver/Src/stm32f3xx_hal_opamp.c ****   *          functionalities of the operational amplifiers (OPAMP1,...OPAMP4) 
   8:Drivers/STM32F3xx_HAL_Driver/Src/stm32f3xx_hal_opamp.c ****   *          peripheral: 
   9:Drivers/STM32F3xx_HAL_Driver/Src/stm32f3xx_hal_opamp.c ****   *           + OPAMP Configuration
  10:Drivers/STM32F3xx_HAL_Driver/Src/stm32f3xx_hal_opamp.c ****   *           + OPAMP calibration
  11:Drivers/STM32F3xx_HAL_Driver/Src/stm32f3xx_hal_opamp.c ****   *          Thanks to
  12:Drivers/STM32F3xx_HAL_Driver/Src/stm32f3xx_hal_opamp.c ****   *           + Initialization/de-initialization functions
  13:Drivers/STM32F3xx_HAL_Driver/Src/stm32f3xx_hal_opamp.c ****   *           + I/O operation functions
  14:Drivers/STM32F3xx_HAL_Driver/Src/stm32f3xx_hal_opamp.c ****   *           + Peripheral Control functions
  15:Drivers/STM32F3xx_HAL_Driver/Src/stm32f3xx_hal_opamp.c ****   *           + Peripheral State functions
  16:Drivers/STM32F3xx_HAL_Driver/Src/stm32f3xx_hal_opamp.c ****   *         
  17:Drivers/STM32F3xx_HAL_Driver/Src/stm32f3xx_hal_opamp.c ****   @verbatim
  18:Drivers/STM32F3xx_HAL_Driver/Src/stm32f3xx_hal_opamp.c **** ================================================================================
  19:Drivers/STM32F3xx_HAL_Driver/Src/stm32f3xx_hal_opamp.c ****           ##### OPAMP Peripheral Features #####
  20:Drivers/STM32F3xx_HAL_Driver/Src/stm32f3xx_hal_opamp.c **** ================================================================================
  21:Drivers/STM32F3xx_HAL_Driver/Src/stm32f3xx_hal_opamp.c ****            
  22:Drivers/STM32F3xx_HAL_Driver/Src/stm32f3xx_hal_opamp.c ****   [..] The device integrates up to 4 operational amplifiers OPAMP1, OPAMP2,
  23:Drivers/STM32F3xx_HAL_Driver/Src/stm32f3xx_hal_opamp.c ****        OPAMP3 and OPAMP4:
  24:Drivers/STM32F3xx_HAL_Driver/Src/stm32f3xx_hal_opamp.c ****        
  25:Drivers/STM32F3xx_HAL_Driver/Src/stm32f3xx_hal_opamp.c ****        (#) The OPAMP(s) provides several exclusive running modes.
  26:Drivers/STM32F3xx_HAL_Driver/Src/stm32f3xx_hal_opamp.c ****        (++) Standalone mode
  27:Drivers/STM32F3xx_HAL_Driver/Src/stm32f3xx_hal_opamp.c ****        (++) Programmable Gain Amplifier (PGA) mode (Resistor feedback output)
  28:Drivers/STM32F3xx_HAL_Driver/Src/stm32f3xx_hal_opamp.c ****        (++) Follower mode
  29:Drivers/STM32F3xx_HAL_Driver/Src/stm32f3xx_hal_opamp.c **** 
ARM GAS  /var/folders/md/lgcc8l7571l9vt9sx0g0zflw0000gn/T//ccmnh1CJ.s 			page 2


  30:Drivers/STM32F3xx_HAL_Driver/Src/stm32f3xx_hal_opamp.c ****        (#) The OPAMP(s) provide(s) calibration capabilities.  
  31:Drivers/STM32F3xx_HAL_Driver/Src/stm32f3xx_hal_opamp.c ****        (++) Calibration aims at correcting some offset for running mode.
  32:Drivers/STM32F3xx_HAL_Driver/Src/stm32f3xx_hal_opamp.c ****        (++) The OPAMP uses either factory calibration settings OR user defined 
  33:Drivers/STM32F3xx_HAL_Driver/Src/stm32f3xx_hal_opamp.c ****            calibration (trimming) settings (i.e. trimming mode).
  34:Drivers/STM32F3xx_HAL_Driver/Src/stm32f3xx_hal_opamp.c ****        (++) The user defined settings can be figured out using self calibration 
  35:Drivers/STM32F3xx_HAL_Driver/Src/stm32f3xx_hal_opamp.c ****            handled by HAL_OPAMP_SelfCalibrate, HAL_OPAMPEx_SelfCalibrateAll
  36:Drivers/STM32F3xx_HAL_Driver/Src/stm32f3xx_hal_opamp.c ****        (++) HAL_OPAMP_SelfCalibrate:
  37:Drivers/STM32F3xx_HAL_Driver/Src/stm32f3xx_hal_opamp.c ****        (++) Runs automatically the calibration in 2 steps. 
  38:Drivers/STM32F3xx_HAL_Driver/Src/stm32f3xx_hal_opamp.c ****             (90U% of VDDA for NMOS transistors, 10U% of VDDA for PMOS transistors).
  39:Drivers/STM32F3xx_HAL_Driver/Src/stm32f3xx_hal_opamp.c ****             (As OPAMP is Rail-to-rail input/output, these 2 steps calibration is 
  40:Drivers/STM32F3xx_HAL_Driver/Src/stm32f3xx_hal_opamp.c ****             appropriate and enough in most cases).
  41:Drivers/STM32F3xx_HAL_Driver/Src/stm32f3xx_hal_opamp.c ****        (++) Enables the user trimming mode
  42:Drivers/STM32F3xx_HAL_Driver/Src/stm32f3xx_hal_opamp.c ****        (++) Updates the init structure with trimming values with fresh calibration 
  43:Drivers/STM32F3xx_HAL_Driver/Src/stm32f3xx_hal_opamp.c ****             results. 
  44:Drivers/STM32F3xx_HAL_Driver/Src/stm32f3xx_hal_opamp.c ****             The user may store the calibration results for larger 
  45:Drivers/STM32F3xx_HAL_Driver/Src/stm32f3xx_hal_opamp.c ****             (ex monitoring the trimming as a function of temperature 
  46:Drivers/STM32F3xx_HAL_Driver/Src/stm32f3xx_hal_opamp.c ****             for instance)
  47:Drivers/STM32F3xx_HAL_Driver/Src/stm32f3xx_hal_opamp.c ****        (++) for STM32F3 devices having 2 or 4 OPAMPs
  48:Drivers/STM32F3xx_HAL_Driver/Src/stm32f3xx_hal_opamp.c ****             HAL_OPAMPEx_SelfCalibrateAll
  49:Drivers/STM32F3xx_HAL_Driver/Src/stm32f3xx_hal_opamp.c ****             runs calibration of 2 or 4 OPAMPs in parallel. 
  50:Drivers/STM32F3xx_HAL_Driver/Src/stm32f3xx_hal_opamp.c ****        
  51:Drivers/STM32F3xx_HAL_Driver/Src/stm32f3xx_hal_opamp.c ****        (#) For any running mode, an additional Timer-controlled Mux (multiplexer) 
  52:Drivers/STM32F3xx_HAL_Driver/Src/stm32f3xx_hal_opamp.c ****            mode can be set on top.
  53:Drivers/STM32F3xx_HAL_Driver/Src/stm32f3xx_hal_opamp.c ****        (++) Timer-controlled Mux mode allows Automatic switching between inverting
  54:Drivers/STM32F3xx_HAL_Driver/Src/stm32f3xx_hal_opamp.c ****            and non-inverting input. 
  55:Drivers/STM32F3xx_HAL_Driver/Src/stm32f3xx_hal_opamp.c ****        (++) Hence on top of defaults (primary) inverting and non-inverting inputs,
  56:Drivers/STM32F3xx_HAL_Driver/Src/stm32f3xx_hal_opamp.c ****            the user shall select secondary inverting and non inverting inputs.
  57:Drivers/STM32F3xx_HAL_Driver/Src/stm32f3xx_hal_opamp.c ****        (++) TIM1 CC6 provides the alternate switching tempo between defaults 
  58:Drivers/STM32F3xx_HAL_Driver/Src/stm32f3xx_hal_opamp.c ****            (primary) and secondary inputs. 
  59:Drivers/STM32F3xx_HAL_Driver/Src/stm32f3xx_hal_opamp.c ****              
  60:Drivers/STM32F3xx_HAL_Driver/Src/stm32f3xx_hal_opamp.c ****        (#) Running mode: Standalone mode 
  61:Drivers/STM32F3xx_HAL_Driver/Src/stm32f3xx_hal_opamp.c ****        (++) Gain is set externally (gain depends on external loads).
  62:Drivers/STM32F3xx_HAL_Driver/Src/stm32f3xx_hal_opamp.c ****        (++) Follower mode also possible externally by connecting the inverting input to
  63:Drivers/STM32F3xx_HAL_Driver/Src/stm32f3xx_hal_opamp.c ****            the output.
  64:Drivers/STM32F3xx_HAL_Driver/Src/stm32f3xx_hal_opamp.c ****        
  65:Drivers/STM32F3xx_HAL_Driver/Src/stm32f3xx_hal_opamp.c ****        (#) Running mode: Follower mode
  66:Drivers/STM32F3xx_HAL_Driver/Src/stm32f3xx_hal_opamp.c ****        (++) No Inverting Input is connected.
  67:Drivers/STM32F3xx_HAL_Driver/Src/stm32f3xx_hal_opamp.c ****        
  68:Drivers/STM32F3xx_HAL_Driver/Src/stm32f3xx_hal_opamp.c ****        (#) Running mode: Programmable Gain Amplifier (PGA) mode 
  69:Drivers/STM32F3xx_HAL_Driver/Src/stm32f3xx_hal_opamp.c ****            (Resistor feedback output)
  70:Drivers/STM32F3xx_HAL_Driver/Src/stm32f3xx_hal_opamp.c ****        (++) The OPAMP(s) output(s) can be internally connected to resistor feedback
  71:Drivers/STM32F3xx_HAL_Driver/Src/stm32f3xx_hal_opamp.c ****            output.
  72:Drivers/STM32F3xx_HAL_Driver/Src/stm32f3xx_hal_opamp.c ****        (++) OPAMP gain is either 2U, 4U, 8 or 16.
  73:Drivers/STM32F3xx_HAL_Driver/Src/stm32f3xx_hal_opamp.c ****         
  74:Drivers/STM32F3xx_HAL_Driver/Src/stm32f3xx_hal_opamp.c ****       
  75:Drivers/STM32F3xx_HAL_Driver/Src/stm32f3xx_hal_opamp.c ****             ##### How to use this driver #####
  76:Drivers/STM32F3xx_HAL_Driver/Src/stm32f3xx_hal_opamp.c **** ================================================================================
  77:Drivers/STM32F3xx_HAL_Driver/Src/stm32f3xx_hal_opamp.c ****   [..] 
  78:Drivers/STM32F3xx_HAL_Driver/Src/stm32f3xx_hal_opamp.c ****     *** Calibration ***
  79:Drivers/STM32F3xx_HAL_Driver/Src/stm32f3xx_hal_opamp.c ****     ============================================
  80:Drivers/STM32F3xx_HAL_Driver/Src/stm32f3xx_hal_opamp.c ****     [..]
  81:Drivers/STM32F3xx_HAL_Driver/Src/stm32f3xx_hal_opamp.c ****   To run the opamp calibration self calibration:
  82:Drivers/STM32F3xx_HAL_Driver/Src/stm32f3xx_hal_opamp.c **** 
  83:Drivers/STM32F3xx_HAL_Driver/Src/stm32f3xx_hal_opamp.c ****       (#) Start calibration using HAL_OPAMP_SelfCalibrate. 
  84:Drivers/STM32F3xx_HAL_Driver/Src/stm32f3xx_hal_opamp.c ****            Store the calibration results.
  85:Drivers/STM32F3xx_HAL_Driver/Src/stm32f3xx_hal_opamp.c **** 
  86:Drivers/STM32F3xx_HAL_Driver/Src/stm32f3xx_hal_opamp.c ****     *** Running mode ***
ARM GAS  /var/folders/md/lgcc8l7571l9vt9sx0g0zflw0000gn/T//ccmnh1CJ.s 			page 3


  87:Drivers/STM32F3xx_HAL_Driver/Src/stm32f3xx_hal_opamp.c ****     ============================================
  88:Drivers/STM32F3xx_HAL_Driver/Src/stm32f3xx_hal_opamp.c ****     [..]
  89:Drivers/STM32F3xx_HAL_Driver/Src/stm32f3xx_hal_opamp.c ****   To use the opamp, perform the following steps:
  90:Drivers/STM32F3xx_HAL_Driver/Src/stm32f3xx_hal_opamp.c ****             
  91:Drivers/STM32F3xx_HAL_Driver/Src/stm32f3xx_hal_opamp.c ****       (#) Fill in the HAL_OPAMP_MspInit() to
  92:Drivers/STM32F3xx_HAL_Driver/Src/stm32f3xx_hal_opamp.c ****       (++) Configure the opamp input AND output in analog mode using 
  93:Drivers/STM32F3xx_HAL_Driver/Src/stm32f3xx_hal_opamp.c ****           HAL_GPIO_Init() to map the opamp output to the GPIO pin.
  94:Drivers/STM32F3xx_HAL_Driver/Src/stm32f3xx_hal_opamp.c ****   
  95:Drivers/STM32F3xx_HAL_Driver/Src/stm32f3xx_hal_opamp.c ****       (#) Configure the opamp using HAL_OPAMP_Init() function:
  96:Drivers/STM32F3xx_HAL_Driver/Src/stm32f3xx_hal_opamp.c ****       (++) Select the mode
  97:Drivers/STM32F3xx_HAL_Driver/Src/stm32f3xx_hal_opamp.c ****       (++) Select the inverting input
  98:Drivers/STM32F3xx_HAL_Driver/Src/stm32f3xx_hal_opamp.c ****       (++) Select the non-inverting input 
  99:Drivers/STM32F3xx_HAL_Driver/Src/stm32f3xx_hal_opamp.c ****       (++) Select if the Timer controlled Mux mode is enabled/disabled
 100:Drivers/STM32F3xx_HAL_Driver/Src/stm32f3xx_hal_opamp.c ****       (++) If the Timer controlled Mux mode is enabled, select the secondary inverting input
 101:Drivers/STM32F3xx_HAL_Driver/Src/stm32f3xx_hal_opamp.c ****       (++) If the Timer controlled Mux mode is enabled, Select the secondary non-inverting input 
 102:Drivers/STM32F3xx_HAL_Driver/Src/stm32f3xx_hal_opamp.c ****       (++) If PGA mode is enabled, Select if inverting input is connected.
 103:Drivers/STM32F3xx_HAL_Driver/Src/stm32f3xx_hal_opamp.c ****       (++) Select either factory or user defined trimming mode.
 104:Drivers/STM32F3xx_HAL_Driver/Src/stm32f3xx_hal_opamp.c ****       (++) If the user defined trimming mode is enabled, select PMOS & NMOS trimming values
 105:Drivers/STM32F3xx_HAL_Driver/Src/stm32f3xx_hal_opamp.c ****           (typ. settings returned by HAL_OPAMP_SelfCalibrate function).
 106:Drivers/STM32F3xx_HAL_Driver/Src/stm32f3xx_hal_opamp.c ****       
 107:Drivers/STM32F3xx_HAL_Driver/Src/stm32f3xx_hal_opamp.c ****       (#) Enable the opamp using HAL_OPAMP_Start() function.
 108:Drivers/STM32F3xx_HAL_Driver/Src/stm32f3xx_hal_opamp.c ****            
 109:Drivers/STM32F3xx_HAL_Driver/Src/stm32f3xx_hal_opamp.c ****       (#) Disable the opamp using HAL_OPAMP_Stop() function.
 110:Drivers/STM32F3xx_HAL_Driver/Src/stm32f3xx_hal_opamp.c ****       
 111:Drivers/STM32F3xx_HAL_Driver/Src/stm32f3xx_hal_opamp.c ****       (#) Lock the opamp in running mode using HAL_OPAMP_Lock() function. From then The configurati
 112:Drivers/STM32F3xx_HAL_Driver/Src/stm32f3xx_hal_opamp.c ****           can  be modified 
 113:Drivers/STM32F3xx_HAL_Driver/Src/stm32f3xx_hal_opamp.c ****       (++) After HW reset 
 114:Drivers/STM32F3xx_HAL_Driver/Src/stm32f3xx_hal_opamp.c ****       (++) OR thanks to HAL_OPAMP_MspDeInit called (user defined) from HAL_OPAMP_DeInit.
 115:Drivers/STM32F3xx_HAL_Driver/Src/stm32f3xx_hal_opamp.c **** 
 116:Drivers/STM32F3xx_HAL_Driver/Src/stm32f3xx_hal_opamp.c ****     *** Running mode: change of configuration while OPAMP ON  ***
 117:Drivers/STM32F3xx_HAL_Driver/Src/stm32f3xx_hal_opamp.c ****     ============================================
 118:Drivers/STM32F3xx_HAL_Driver/Src/stm32f3xx_hal_opamp.c ****     [..]
 119:Drivers/STM32F3xx_HAL_Driver/Src/stm32f3xx_hal_opamp.c ****     To Re-configure OPAMP when OPAMP is ON (change on the fly)
 120:Drivers/STM32F3xx_HAL_Driver/Src/stm32f3xx_hal_opamp.c ****       (#) If needed, Fill in the HAL_OPAMP_MspInit()
 121:Drivers/STM32F3xx_HAL_Driver/Src/stm32f3xx_hal_opamp.c ****       (++) This is the case for instance if you wish to use new OPAMP I/O
 122:Drivers/STM32F3xx_HAL_Driver/Src/stm32f3xx_hal_opamp.c **** 
 123:Drivers/STM32F3xx_HAL_Driver/Src/stm32f3xx_hal_opamp.c ****       (#) Configure the opamp using HAL_OPAMP_Init() function:
 124:Drivers/STM32F3xx_HAL_Driver/Src/stm32f3xx_hal_opamp.c ****       (++) As in configure case, selects first the parameters you wish to modify.
 125:Drivers/STM32F3xx_HAL_Driver/Src/stm32f3xx_hal_opamp.c ****       
 126:Drivers/STM32F3xx_HAL_Driver/Src/stm32f3xx_hal_opamp.c ****   @endverbatim
 127:Drivers/STM32F3xx_HAL_Driver/Src/stm32f3xx_hal_opamp.c ****   ******************************************************************************
 128:Drivers/STM32F3xx_HAL_Driver/Src/stm32f3xx_hal_opamp.c ****   * @attention
 129:Drivers/STM32F3xx_HAL_Driver/Src/stm32f3xx_hal_opamp.c ****   *
 130:Drivers/STM32F3xx_HAL_Driver/Src/stm32f3xx_hal_opamp.c ****   * <h2><center>&copy; COPYRIGHT(c) 2016 STMicroelectronics</center></h2>
 131:Drivers/STM32F3xx_HAL_Driver/Src/stm32f3xx_hal_opamp.c ****   *
 132:Drivers/STM32F3xx_HAL_Driver/Src/stm32f3xx_hal_opamp.c ****   * Redistribution and use in source and binary forms, with or without modification,
 133:Drivers/STM32F3xx_HAL_Driver/Src/stm32f3xx_hal_opamp.c ****   * are permitted provided that the following conditions are met:
 134:Drivers/STM32F3xx_HAL_Driver/Src/stm32f3xx_hal_opamp.c ****   *   1. Redistributions of source code must retain the above copyright notice,
 135:Drivers/STM32F3xx_HAL_Driver/Src/stm32f3xx_hal_opamp.c ****   *      this list of conditions and the following disclaimer.
 136:Drivers/STM32F3xx_HAL_Driver/Src/stm32f3xx_hal_opamp.c ****   *   2. Redistributions in binary form must reproduce the above copyright notice,
 137:Drivers/STM32F3xx_HAL_Driver/Src/stm32f3xx_hal_opamp.c ****   *      this list of conditions and the following disclaimer in the documentation
 138:Drivers/STM32F3xx_HAL_Driver/Src/stm32f3xx_hal_opamp.c ****   *      and/or other materials provided with the distribution.
 139:Drivers/STM32F3xx_HAL_Driver/Src/stm32f3xx_hal_opamp.c ****   *   3. Neither the name of STMicroelectronics nor the names of its contributors
 140:Drivers/STM32F3xx_HAL_Driver/Src/stm32f3xx_hal_opamp.c ****   *      may be used to endorse or promote products derived from this software
 141:Drivers/STM32F3xx_HAL_Driver/Src/stm32f3xx_hal_opamp.c ****   *      without specific prior written permission.
 142:Drivers/STM32F3xx_HAL_Driver/Src/stm32f3xx_hal_opamp.c ****   *
 143:Drivers/STM32F3xx_HAL_Driver/Src/stm32f3xx_hal_opamp.c ****   * THIS SOFTWARE IS PROVIDED BY THE COPYRIGHT HOLDERS AND CONTRIBUTORS "AS IS"
ARM GAS  /var/folders/md/lgcc8l7571l9vt9sx0g0zflw0000gn/T//ccmnh1CJ.s 			page 4


 144:Drivers/STM32F3xx_HAL_Driver/Src/stm32f3xx_hal_opamp.c ****   * AND ANY EXPRESS OR IMPLIED WARRANTIES, INCLUDING, BUT NOT LIMITED TO, THE
 145:Drivers/STM32F3xx_HAL_Driver/Src/stm32f3xx_hal_opamp.c ****   * IMPLIED WARRANTIES OF MERCHANTABILITY AND FITNESS FOR A PARTICULAR PURPOSE ARE
 146:Drivers/STM32F3xx_HAL_Driver/Src/stm32f3xx_hal_opamp.c ****   * DISCLAIMED. IN NO EVENT SHALL THE COPYRIGHT HOLDER OR CONTRIBUTORS BE LIABLE
 147:Drivers/STM32F3xx_HAL_Driver/Src/stm32f3xx_hal_opamp.c ****   * FOR ANY DIRECT, INDIRECT, INCIDENTAL, SPECIAL, EXEMPLARY, OR CONSEQUENTIAL
 148:Drivers/STM32F3xx_HAL_Driver/Src/stm32f3xx_hal_opamp.c ****   * DAMAGES (INCLUDING, BUT NOT LIMITED TO, PROCUREMENT OF SUBSTITUTE GOODS OR
 149:Drivers/STM32F3xx_HAL_Driver/Src/stm32f3xx_hal_opamp.c ****   * SERVICES; LOSS OF USE, DATA, OR PROFITS; OR BUSINESS INTERRUPTION) HOWEVER
 150:Drivers/STM32F3xx_HAL_Driver/Src/stm32f3xx_hal_opamp.c ****   * CAUSED AND ON ANY THEORY OF LIABILITY, WHETHER IN CONTRACT, STRICT LIABILITY,
 151:Drivers/STM32F3xx_HAL_Driver/Src/stm32f3xx_hal_opamp.c ****   * OR TORT (INCLUDING NEGLIGENCE OR OTHERWISE) ARISING IN ANY WAY OUT OF THE USE
 152:Drivers/STM32F3xx_HAL_Driver/Src/stm32f3xx_hal_opamp.c ****   * OF THIS SOFTWARE, EVEN IF ADVISED OF THE POSSIBILITY OF SUCH DAMAGE.
 153:Drivers/STM32F3xx_HAL_Driver/Src/stm32f3xx_hal_opamp.c ****   *
 154:Drivers/STM32F3xx_HAL_Driver/Src/stm32f3xx_hal_opamp.c ****   ******************************************************************************  
 155:Drivers/STM32F3xx_HAL_Driver/Src/stm32f3xx_hal_opamp.c ****   */
 156:Drivers/STM32F3xx_HAL_Driver/Src/stm32f3xx_hal_opamp.c **** 
 157:Drivers/STM32F3xx_HAL_Driver/Src/stm32f3xx_hal_opamp.c **** /*
 158:Drivers/STM32F3xx_HAL_Driver/Src/stm32f3xx_hal_opamp.c ****   Additional Tables:
 159:Drivers/STM32F3xx_HAL_Driver/Src/stm32f3xx_hal_opamp.c ****     The OPAMPs non inverting input (both default and secondary) can be 
 160:Drivers/STM32F3xx_HAL_Driver/Src/stm32f3xx_hal_opamp.c ****     selected among the list shown by table below.
 161:Drivers/STM32F3xx_HAL_Driver/Src/stm32f3xx_hal_opamp.c ****        
 162:Drivers/STM32F3xx_HAL_Driver/Src/stm32f3xx_hal_opamp.c ****     The OPAMPs non inverting input (both default and secondary) can be 
 163:Drivers/STM32F3xx_HAL_Driver/Src/stm32f3xx_hal_opamp.c ****     selected among the list shown by table below.
 164:Drivers/STM32F3xx_HAL_Driver/Src/stm32f3xx_hal_opamp.c ****        
 165:Drivers/STM32F3xx_HAL_Driver/Src/stm32f3xx_hal_opamp.c ****     Table 1.  OPAMPs inverting/non-inverting inputs for the STM32F3 devices:
 166:Drivers/STM32F3xx_HAL_Driver/Src/stm32f3xx_hal_opamp.c ****     +--------------------------------------------------------------+     
 167:Drivers/STM32F3xx_HAL_Driver/Src/stm32f3xx_hal_opamp.c ****     |                 |        | OPAMP1 | OPAMP2 | OPAMP3 | OPAMP4 |
 168:Drivers/STM32F3xx_HAL_Driver/Src/stm32f3xx_hal_opamp.c ****     |-----------------|--------|--------|--------|--------|--------|
 169:Drivers/STM32F3xx_HAL_Driver/Src/stm32f3xx_hal_opamp.c ****     |                 | No conn|   X    |   X    |   X    |   X    |
 170:Drivers/STM32F3xx_HAL_Driver/Src/stm32f3xx_hal_opamp.c ****     | Inverting Input | VM0    |  PC5   |  PC5   |  PB10  |  PB10  |
 171:Drivers/STM32F3xx_HAL_Driver/Src/stm32f3xx_hal_opamp.c ****     | (1)             | VM1    |  PA3   |  PA5   |  PB2   |  PD8   |
 172:Drivers/STM32F3xx_HAL_Driver/Src/stm32f3xx_hal_opamp.c ****     |-----------------|--------|--------|--------|--------|--------|
 173:Drivers/STM32F3xx_HAL_Driver/Src/stm32f3xx_hal_opamp.c ****     |                 | VP0    |  PA1   |  PA7   |  PB0   |  PB13  |
 174:Drivers/STM32F3xx_HAL_Driver/Src/stm32f3xx_hal_opamp.c ****     |  Non Inverting  | VP1    |  PA7   |  PD14  |  PB13  |  PD11  |
 175:Drivers/STM32F3xx_HAL_Driver/Src/stm32f3xx_hal_opamp.c ****     |    Input        | VP2    |  PA3   |  PB0   |  PA1   |  PA4   |
 176:Drivers/STM32F3xx_HAL_Driver/Src/stm32f3xx_hal_opamp.c ****     |                 | VP3    |  PA5   |  PB14  |  PA5   |  PB11  |
 177:Drivers/STM32F3xx_HAL_Driver/Src/stm32f3xx_hal_opamp.c ****     +--------------------------------------------------------------+  
 178:Drivers/STM32F3xx_HAL_Driver/Src/stm32f3xx_hal_opamp.c ****     (1): NA in follower mode.
 179:Drivers/STM32F3xx_HAL_Driver/Src/stm32f3xx_hal_opamp.c ****            
 180:Drivers/STM32F3xx_HAL_Driver/Src/stm32f3xx_hal_opamp.c ****     Table 2.  OPAMPs outputs for the STM32F3 devices:
 181:Drivers/STM32F3xx_HAL_Driver/Src/stm32f3xx_hal_opamp.c ****     +--------------------------------------------------------------+     
 182:Drivers/STM32F3xx_HAL_Driver/Src/stm32f3xx_hal_opamp.c ****     |                 |        | OPAMP1 | OPAMP2 | OPAMP3 | OPAMP4 |
 183:Drivers/STM32F3xx_HAL_Driver/Src/stm32f3xx_hal_opamp.c ****     |-----------------|--------|--------|--------|--------|--------|
 184:Drivers/STM32F3xx_HAL_Driver/Src/stm32f3xx_hal_opamp.c ****     | Output          |        |  PA2   |  PA6   |  PB1   |  PB12  |
 185:Drivers/STM32F3xx_HAL_Driver/Src/stm32f3xx_hal_opamp.c ****     |-----------------|--------|--------|--------|--------|--------|
 186:Drivers/STM32F3xx_HAL_Driver/Src/stm32f3xx_hal_opamp.c **** 
 187:Drivers/STM32F3xx_HAL_Driver/Src/stm32f3xx_hal_opamp.c **** */
 188:Drivers/STM32F3xx_HAL_Driver/Src/stm32f3xx_hal_opamp.c **** 
 189:Drivers/STM32F3xx_HAL_Driver/Src/stm32f3xx_hal_opamp.c **** /* Includes ------------------------------------------------------------------*/
 190:Drivers/STM32F3xx_HAL_Driver/Src/stm32f3xx_hal_opamp.c **** #include "stm32f3xx_hal.h"
 191:Drivers/STM32F3xx_HAL_Driver/Src/stm32f3xx_hal_opamp.c ****     
 192:Drivers/STM32F3xx_HAL_Driver/Src/stm32f3xx_hal_opamp.c **** /** @addtogroup STM32F3xx_HAL_Driver
 193:Drivers/STM32F3xx_HAL_Driver/Src/stm32f3xx_hal_opamp.c ****   * @{
 194:Drivers/STM32F3xx_HAL_Driver/Src/stm32f3xx_hal_opamp.c ****   */
 195:Drivers/STM32F3xx_HAL_Driver/Src/stm32f3xx_hal_opamp.c **** 
 196:Drivers/STM32F3xx_HAL_Driver/Src/stm32f3xx_hal_opamp.c **** #ifdef HAL_OPAMP_MODULE_ENABLED
 197:Drivers/STM32F3xx_HAL_Driver/Src/stm32f3xx_hal_opamp.c **** 
 198:Drivers/STM32F3xx_HAL_Driver/Src/stm32f3xx_hal_opamp.c **** #if defined(STM32F302xE) || defined(STM32F303xE) || defined(STM32F398xx) || \
 199:Drivers/STM32F3xx_HAL_Driver/Src/stm32f3xx_hal_opamp.c ****     defined(STM32F302xC) || defined(STM32F303xC) || defined(STM32F358xx) || \
 200:Drivers/STM32F3xx_HAL_Driver/Src/stm32f3xx_hal_opamp.c ****     defined(STM32F303x8) || defined(STM32F334x8) || defined(STM32F328xx) || \
ARM GAS  /var/folders/md/lgcc8l7571l9vt9sx0g0zflw0000gn/T//ccmnh1CJ.s 			page 5


 201:Drivers/STM32F3xx_HAL_Driver/Src/stm32f3xx_hal_opamp.c ****     defined(STM32F301x8) || defined(STM32F302x8) || defined(STM32F318xx)
 202:Drivers/STM32F3xx_HAL_Driver/Src/stm32f3xx_hal_opamp.c **** 
 203:Drivers/STM32F3xx_HAL_Driver/Src/stm32f3xx_hal_opamp.c **** /** @defgroup OPAMP OPAMP
 204:Drivers/STM32F3xx_HAL_Driver/Src/stm32f3xx_hal_opamp.c ****   * @brief OPAMP HAL module driver
 205:Drivers/STM32F3xx_HAL_Driver/Src/stm32f3xx_hal_opamp.c ****   * @{
 206:Drivers/STM32F3xx_HAL_Driver/Src/stm32f3xx_hal_opamp.c ****   */
 207:Drivers/STM32F3xx_HAL_Driver/Src/stm32f3xx_hal_opamp.c **** 
 208:Drivers/STM32F3xx_HAL_Driver/Src/stm32f3xx_hal_opamp.c **** /* Private typedef -----------------------------------------------------------*/
 209:Drivers/STM32F3xx_HAL_Driver/Src/stm32f3xx_hal_opamp.c **** /* Private define ------------------------------------------------------------*/
 210:Drivers/STM32F3xx_HAL_Driver/Src/stm32f3xx_hal_opamp.c **** /** @defgroup OPAMP_Private_Define OPAMP Private Define
 211:Drivers/STM32F3xx_HAL_Driver/Src/stm32f3xx_hal_opamp.c ****  * @{
 212:Drivers/STM32F3xx_HAL_Driver/Src/stm32f3xx_hal_opamp.c ****  */
 213:Drivers/STM32F3xx_HAL_Driver/Src/stm32f3xx_hal_opamp.c **** /* CSR register reset value */ 
 214:Drivers/STM32F3xx_HAL_Driver/Src/stm32f3xx_hal_opamp.c **** #define OPAMP_CSR_RESET_VALUE             (0x00000000U)
 215:Drivers/STM32F3xx_HAL_Driver/Src/stm32f3xx_hal_opamp.c **** /**
 216:Drivers/STM32F3xx_HAL_Driver/Src/stm32f3xx_hal_opamp.c ****   * @}
 217:Drivers/STM32F3xx_HAL_Driver/Src/stm32f3xx_hal_opamp.c ****   */
 218:Drivers/STM32F3xx_HAL_Driver/Src/stm32f3xx_hal_opamp.c **** 
 219:Drivers/STM32F3xx_HAL_Driver/Src/stm32f3xx_hal_opamp.c **** /* Private macro -------------------------------------------------------------*/
 220:Drivers/STM32F3xx_HAL_Driver/Src/stm32f3xx_hal_opamp.c **** /* Private variables ---------------------------------------------------------*/
 221:Drivers/STM32F3xx_HAL_Driver/Src/stm32f3xx_hal_opamp.c **** /* Private function prototypes -----------------------------------------------*/
 222:Drivers/STM32F3xx_HAL_Driver/Src/stm32f3xx_hal_opamp.c **** /* Exported functions ---------------------------------------------------------*/
 223:Drivers/STM32F3xx_HAL_Driver/Src/stm32f3xx_hal_opamp.c **** 
 224:Drivers/STM32F3xx_HAL_Driver/Src/stm32f3xx_hal_opamp.c **** /** @defgroup OPAMP_Exported_Functions OPAMP Exported Functions
 225:Drivers/STM32F3xx_HAL_Driver/Src/stm32f3xx_hal_opamp.c ****   * @{
 226:Drivers/STM32F3xx_HAL_Driver/Src/stm32f3xx_hal_opamp.c ****   */
 227:Drivers/STM32F3xx_HAL_Driver/Src/stm32f3xx_hal_opamp.c **** 
 228:Drivers/STM32F3xx_HAL_Driver/Src/stm32f3xx_hal_opamp.c **** /** @defgroup OPAMP_Exported_Functions_Group1 Initialization and de-initialization functions
 229:Drivers/STM32F3xx_HAL_Driver/Src/stm32f3xx_hal_opamp.c ****  *  @brief    Initialization and Configuration functions 
 230:Drivers/STM32F3xx_HAL_Driver/Src/stm32f3xx_hal_opamp.c ****  *
 231:Drivers/STM32F3xx_HAL_Driver/Src/stm32f3xx_hal_opamp.c **** @verbatim    
 232:Drivers/STM32F3xx_HAL_Driver/Src/stm32f3xx_hal_opamp.c ****  ===============================================================================
 233:Drivers/STM32F3xx_HAL_Driver/Src/stm32f3xx_hal_opamp.c ****               ##### Initialization and de-initialization  functions #####
 234:Drivers/STM32F3xx_HAL_Driver/Src/stm32f3xx_hal_opamp.c ****  ===============================================================================
 235:Drivers/STM32F3xx_HAL_Driver/Src/stm32f3xx_hal_opamp.c ****     [..]  This section provides functions allowing to:
 236:Drivers/STM32F3xx_HAL_Driver/Src/stm32f3xx_hal_opamp.c ****  
 237:Drivers/STM32F3xx_HAL_Driver/Src/stm32f3xx_hal_opamp.c **** @endverbatim
 238:Drivers/STM32F3xx_HAL_Driver/Src/stm32f3xx_hal_opamp.c ****   * @{
 239:Drivers/STM32F3xx_HAL_Driver/Src/stm32f3xx_hal_opamp.c ****   */
 240:Drivers/STM32F3xx_HAL_Driver/Src/stm32f3xx_hal_opamp.c **** 
 241:Drivers/STM32F3xx_HAL_Driver/Src/stm32f3xx_hal_opamp.c **** /**
 242:Drivers/STM32F3xx_HAL_Driver/Src/stm32f3xx_hal_opamp.c ****   * @brief  Initializes the OPAMP according to the specified
 243:Drivers/STM32F3xx_HAL_Driver/Src/stm32f3xx_hal_opamp.c ****   *         parameters in the OPAMP_InitTypeDef and create the associated handle.
 244:Drivers/STM32F3xx_HAL_Driver/Src/stm32f3xx_hal_opamp.c ****   * @note   If the selected opamp is locked, initialization can't be performed.
 245:Drivers/STM32F3xx_HAL_Driver/Src/stm32f3xx_hal_opamp.c ****   *         To unlock the configuration, perform a system reset.
 246:Drivers/STM32F3xx_HAL_Driver/Src/stm32f3xx_hal_opamp.c ****   * @param  hopamp OPAMP handle
 247:Drivers/STM32F3xx_HAL_Driver/Src/stm32f3xx_hal_opamp.c ****   * @retval HAL status
 248:Drivers/STM32F3xx_HAL_Driver/Src/stm32f3xx_hal_opamp.c ****   */
 249:Drivers/STM32F3xx_HAL_Driver/Src/stm32f3xx_hal_opamp.c **** HAL_StatusTypeDef HAL_OPAMP_Init(OPAMP_HandleTypeDef *hopamp)
 250:Drivers/STM32F3xx_HAL_Driver/Src/stm32f3xx_hal_opamp.c **** 
 251:Drivers/STM32F3xx_HAL_Driver/Src/stm32f3xx_hal_opamp.c **** { 
 252:Drivers/STM32F3xx_HAL_Driver/Src/stm32f3xx_hal_opamp.c ****   HAL_StatusTypeDef status = HAL_OK;
 253:Drivers/STM32F3xx_HAL_Driver/Src/stm32f3xx_hal_opamp.c **** 
 254:Drivers/STM32F3xx_HAL_Driver/Src/stm32f3xx_hal_opamp.c ****   /* Check the OPAMP handle allocation and lock status */
 255:Drivers/STM32F3xx_HAL_Driver/Src/stm32f3xx_hal_opamp.c ****   /* Init not allowed if calibration is ongoing */
 256:Drivers/STM32F3xx_HAL_Driver/Src/stm32f3xx_hal_opamp.c ****   if((hopamp == NULL) || (hopamp->State == HAL_OPAMP_STATE_BUSYLOCKED) \
 257:Drivers/STM32F3xx_HAL_Driver/Src/stm32f3xx_hal_opamp.c ****                       || (hopamp->State == HAL_OPAMP_STATE_CALIBBUSY))
ARM GAS  /var/folders/md/lgcc8l7571l9vt9sx0g0zflw0000gn/T//ccmnh1CJ.s 			page 6


 258:Drivers/STM32F3xx_HAL_Driver/Src/stm32f3xx_hal_opamp.c ****   {
 259:Drivers/STM32F3xx_HAL_Driver/Src/stm32f3xx_hal_opamp.c ****     return HAL_ERROR;
 260:Drivers/STM32F3xx_HAL_Driver/Src/stm32f3xx_hal_opamp.c ****   }
 261:Drivers/STM32F3xx_HAL_Driver/Src/stm32f3xx_hal_opamp.c ****   else
 262:Drivers/STM32F3xx_HAL_Driver/Src/stm32f3xx_hal_opamp.c ****   {
 263:Drivers/STM32F3xx_HAL_Driver/Src/stm32f3xx_hal_opamp.c ****       
 264:Drivers/STM32F3xx_HAL_Driver/Src/stm32f3xx_hal_opamp.c ****     /* Check the parameter */
 265:Drivers/STM32F3xx_HAL_Driver/Src/stm32f3xx_hal_opamp.c ****     assert_param(IS_OPAMP_ALL_INSTANCE(hopamp->Instance));
 266:Drivers/STM32F3xx_HAL_Driver/Src/stm32f3xx_hal_opamp.c ****        
 267:Drivers/STM32F3xx_HAL_Driver/Src/stm32f3xx_hal_opamp.c ****     /* Set OPAMP parameters */
 268:Drivers/STM32F3xx_HAL_Driver/Src/stm32f3xx_hal_opamp.c ****     assert_param(IS_OPAMP_FUNCTIONAL_NORMALMODE(hopamp->Init.Mode));
 269:Drivers/STM32F3xx_HAL_Driver/Src/stm32f3xx_hal_opamp.c ****     assert_param(IS_OPAMP_NONINVERTING_INPUT(hopamp->Init.NonInvertingInput));
 270:Drivers/STM32F3xx_HAL_Driver/Src/stm32f3xx_hal_opamp.c ****     if ((hopamp->Init.Mode) == OPAMP_STANDALONE_MODE)
 271:Drivers/STM32F3xx_HAL_Driver/Src/stm32f3xx_hal_opamp.c ****     {
 272:Drivers/STM32F3xx_HAL_Driver/Src/stm32f3xx_hal_opamp.c ****       assert_param(IS_OPAMP_INVERTING_INPUT(hopamp->Init.InvertingInput));
 273:Drivers/STM32F3xx_HAL_Driver/Src/stm32f3xx_hal_opamp.c ****     }
 274:Drivers/STM32F3xx_HAL_Driver/Src/stm32f3xx_hal_opamp.c ****   
 275:Drivers/STM32F3xx_HAL_Driver/Src/stm32f3xx_hal_opamp.c ****     assert_param(IS_OPAMP_TIMERCONTROLLED_MUXMODE(hopamp->Init.TimerControlledMuxmode));
 276:Drivers/STM32F3xx_HAL_Driver/Src/stm32f3xx_hal_opamp.c **** 
 277:Drivers/STM32F3xx_HAL_Driver/Src/stm32f3xx_hal_opamp.c ****     if ((hopamp->Init.TimerControlledMuxmode) == OPAMP_TIMERCONTROLLEDMUXMODE_ENABLE)
 278:Drivers/STM32F3xx_HAL_Driver/Src/stm32f3xx_hal_opamp.c ****     {
 279:Drivers/STM32F3xx_HAL_Driver/Src/stm32f3xx_hal_opamp.c ****       assert_param(IS_OPAMP_SEC_NONINVERTINGINPUT(hopamp->Init.NonInvertingInputSecondary));
 280:Drivers/STM32F3xx_HAL_Driver/Src/stm32f3xx_hal_opamp.c ****       if ((hopamp->Init.Mode) == OPAMP_STANDALONE_MODE)
 281:Drivers/STM32F3xx_HAL_Driver/Src/stm32f3xx_hal_opamp.c ****       {
 282:Drivers/STM32F3xx_HAL_Driver/Src/stm32f3xx_hal_opamp.c ****         assert_param(IS_OPAMP_SEC_INVERTINGINPUT(hopamp->Init.InvertingInputSecondary));
 283:Drivers/STM32F3xx_HAL_Driver/Src/stm32f3xx_hal_opamp.c ****       }
 284:Drivers/STM32F3xx_HAL_Driver/Src/stm32f3xx_hal_opamp.c ****     }
 285:Drivers/STM32F3xx_HAL_Driver/Src/stm32f3xx_hal_opamp.c ****     
 286:Drivers/STM32F3xx_HAL_Driver/Src/stm32f3xx_hal_opamp.c ****     if ((hopamp->Init.Mode) == OPAMP_PGA_MODE)
 287:Drivers/STM32F3xx_HAL_Driver/Src/stm32f3xx_hal_opamp.c ****     {
 288:Drivers/STM32F3xx_HAL_Driver/Src/stm32f3xx_hal_opamp.c ****       assert_param(IS_OPAMP_PGACONNECT(hopamp->Init.PgaConnect));
 289:Drivers/STM32F3xx_HAL_Driver/Src/stm32f3xx_hal_opamp.c ****       assert_param(IS_OPAMP_PGA_GAIN(hopamp->Init.PgaGain));
 290:Drivers/STM32F3xx_HAL_Driver/Src/stm32f3xx_hal_opamp.c ****     }
 291:Drivers/STM32F3xx_HAL_Driver/Src/stm32f3xx_hal_opamp.c ****     
 292:Drivers/STM32F3xx_HAL_Driver/Src/stm32f3xx_hal_opamp.c ****     assert_param(IS_OPAMP_TRIMMING(hopamp->Init.UserTrimming)); 
 293:Drivers/STM32F3xx_HAL_Driver/Src/stm32f3xx_hal_opamp.c ****     if ((hopamp->Init.UserTrimming) == OPAMP_TRIMMING_USER)
 294:Drivers/STM32F3xx_HAL_Driver/Src/stm32f3xx_hal_opamp.c ****     {
 295:Drivers/STM32F3xx_HAL_Driver/Src/stm32f3xx_hal_opamp.c ****       assert_param(IS_OPAMP_TRIMMINGVALUE(hopamp->Init.TrimmingValueP));
 296:Drivers/STM32F3xx_HAL_Driver/Src/stm32f3xx_hal_opamp.c ****       assert_param(IS_OPAMP_TRIMMINGVALUE(hopamp->Init.TrimmingValueN));
 297:Drivers/STM32F3xx_HAL_Driver/Src/stm32f3xx_hal_opamp.c ****     }
 298:Drivers/STM32F3xx_HAL_Driver/Src/stm32f3xx_hal_opamp.c ****  
 299:Drivers/STM32F3xx_HAL_Driver/Src/stm32f3xx_hal_opamp.c ****     /* Init SYSCFG and the low level hardware to access opamp */
 300:Drivers/STM32F3xx_HAL_Driver/Src/stm32f3xx_hal_opamp.c ****     __HAL_RCC_SYSCFG_CLK_ENABLE();
 301:Drivers/STM32F3xx_HAL_Driver/Src/stm32f3xx_hal_opamp.c ****     
 302:Drivers/STM32F3xx_HAL_Driver/Src/stm32f3xx_hal_opamp.c ****     if(hopamp->State == HAL_OPAMP_STATE_RESET)
 303:Drivers/STM32F3xx_HAL_Driver/Src/stm32f3xx_hal_opamp.c ****     {
 304:Drivers/STM32F3xx_HAL_Driver/Src/stm32f3xx_hal_opamp.c ****       /* Allocate lock resource and initialize it */
 305:Drivers/STM32F3xx_HAL_Driver/Src/stm32f3xx_hal_opamp.c ****       hopamp->Lock = HAL_UNLOCKED;
 306:Drivers/STM32F3xx_HAL_Driver/Src/stm32f3xx_hal_opamp.c ****     }
 307:Drivers/STM32F3xx_HAL_Driver/Src/stm32f3xx_hal_opamp.c **** 
 308:Drivers/STM32F3xx_HAL_Driver/Src/stm32f3xx_hal_opamp.c ****     /* Call MSP init function */
 309:Drivers/STM32F3xx_HAL_Driver/Src/stm32f3xx_hal_opamp.c ****     HAL_OPAMP_MspInit(hopamp);
 310:Drivers/STM32F3xx_HAL_Driver/Src/stm32f3xx_hal_opamp.c ****                                           
 311:Drivers/STM32F3xx_HAL_Driver/Src/stm32f3xx_hal_opamp.c ****     /* Set OPAMP parameters */
 312:Drivers/STM32F3xx_HAL_Driver/Src/stm32f3xx_hal_opamp.c ****     /*     Set  bits according to hopamp->hopamp->Init.Mode value                                 *
 313:Drivers/STM32F3xx_HAL_Driver/Src/stm32f3xx_hal_opamp.c ****     /*     Set  bits according to hopamp->hopamp->Init.InvertingInput value                       *
 314:Drivers/STM32F3xx_HAL_Driver/Src/stm32f3xx_hal_opamp.c ****     /*     Set  bits according to hopamp->hopamp->Init.NonInvertingInput value                    *
ARM GAS  /var/folders/md/lgcc8l7571l9vt9sx0g0zflw0000gn/T//ccmnh1CJ.s 			page 7


 315:Drivers/STM32F3xx_HAL_Driver/Src/stm32f3xx_hal_opamp.c ****     /*     Set  bits according to hopamp->hopamp->Init.TimerControlledMuxmode value               *
 316:Drivers/STM32F3xx_HAL_Driver/Src/stm32f3xx_hal_opamp.c ****     /*     Set  bits according to hopamp->hopamp->Init.InvertingInputSecondary  value             *
 317:Drivers/STM32F3xx_HAL_Driver/Src/stm32f3xx_hal_opamp.c ****     /*     Set  bits according to hopamp->hopamp->Init.NonInvertingInputSecondary value           *
 318:Drivers/STM32F3xx_HAL_Driver/Src/stm32f3xx_hal_opamp.c ****     /*     Set  bits according to hopamp->hopamp->Init.PgaConnect value                           *
 319:Drivers/STM32F3xx_HAL_Driver/Src/stm32f3xx_hal_opamp.c ****     /*     Set  bits according to hopamp->hopamp->Init.PgaGain value                              *
 320:Drivers/STM32F3xx_HAL_Driver/Src/stm32f3xx_hal_opamp.c ****     /*     Set  bits according to hopamp->hopamp->Init.UserTrimming value                         *
 321:Drivers/STM32F3xx_HAL_Driver/Src/stm32f3xx_hal_opamp.c ****     /*     Set  bits according to hopamp->hopamp->Init.TrimmingValueP value                       *
 322:Drivers/STM32F3xx_HAL_Driver/Src/stm32f3xx_hal_opamp.c ****     /*     Set  bits according to hopamp->hopamp->Init.TrimmingValueN value                       *
 323:Drivers/STM32F3xx_HAL_Driver/Src/stm32f3xx_hal_opamp.c ****     
 324:Drivers/STM32F3xx_HAL_Driver/Src/stm32f3xx_hal_opamp.c ****     
 325:Drivers/STM32F3xx_HAL_Driver/Src/stm32f3xx_hal_opamp.c ****     /* check if OPAMP_PGA_MODE & in Follower mode */
 326:Drivers/STM32F3xx_HAL_Driver/Src/stm32f3xx_hal_opamp.c ****     /*   - InvertingInput                         */
 327:Drivers/STM32F3xx_HAL_Driver/Src/stm32f3xx_hal_opamp.c ****     /*   - InvertingInputSecondary                */
 328:Drivers/STM32F3xx_HAL_Driver/Src/stm32f3xx_hal_opamp.c ****     /* are Not Applicable                         */
 329:Drivers/STM32F3xx_HAL_Driver/Src/stm32f3xx_hal_opamp.c ****     
 330:Drivers/STM32F3xx_HAL_Driver/Src/stm32f3xx_hal_opamp.c ****     if ((hopamp->Init.Mode == OPAMP_PGA_MODE) || (hopamp->Init.Mode == OPAMP_FOLLOWER_MODE))
 331:Drivers/STM32F3xx_HAL_Driver/Src/stm32f3xx_hal_opamp.c ****     {
 332:Drivers/STM32F3xx_HAL_Driver/Src/stm32f3xx_hal_opamp.c ****       MODIFY_REG(hopamp->Instance->CSR, OPAMP_CSR_UPDATE_PARAMETERS_INIT_MASK, \
 333:Drivers/STM32F3xx_HAL_Driver/Src/stm32f3xx_hal_opamp.c ****                                         hopamp->Init.Mode | \
 334:Drivers/STM32F3xx_HAL_Driver/Src/stm32f3xx_hal_opamp.c ****                                         hopamp->Init.NonInvertingInput | \
 335:Drivers/STM32F3xx_HAL_Driver/Src/stm32f3xx_hal_opamp.c ****                                         hopamp->Init.TimerControlledMuxmode | \
 336:Drivers/STM32F3xx_HAL_Driver/Src/stm32f3xx_hal_opamp.c ****                                         hopamp->Init.NonInvertingInputSecondary  | \
 337:Drivers/STM32F3xx_HAL_Driver/Src/stm32f3xx_hal_opamp.c ****                                         hopamp->Init.PgaConnect | \
 338:Drivers/STM32F3xx_HAL_Driver/Src/stm32f3xx_hal_opamp.c ****                                         hopamp->Init.PgaGain | \
 339:Drivers/STM32F3xx_HAL_Driver/Src/stm32f3xx_hal_opamp.c ****                                         hopamp->Init.UserTrimming | \
 340:Drivers/STM32F3xx_HAL_Driver/Src/stm32f3xx_hal_opamp.c ****                                         (hopamp->Init.TrimmingValueP << OPAMP_INPUT_NONINVERTING) |
 341:Drivers/STM32F3xx_HAL_Driver/Src/stm32f3xx_hal_opamp.c ****                                         (hopamp->Init.TrimmingValueN << OPAMP_INPUT_INVERTING));  
 342:Drivers/STM32F3xx_HAL_Driver/Src/stm32f3xx_hal_opamp.c **** 
 343:Drivers/STM32F3xx_HAL_Driver/Src/stm32f3xx_hal_opamp.c ****     }    
 344:Drivers/STM32F3xx_HAL_Driver/Src/stm32f3xx_hal_opamp.c ****     else /* OPAMP_STANDALONE_MODE */
 345:Drivers/STM32F3xx_HAL_Driver/Src/stm32f3xx_hal_opamp.c ****     {
 346:Drivers/STM32F3xx_HAL_Driver/Src/stm32f3xx_hal_opamp.c ****       MODIFY_REG(hopamp->Instance->CSR, OPAMP_CSR_UPDATE_PARAMETERS_INIT_MASK, \
 347:Drivers/STM32F3xx_HAL_Driver/Src/stm32f3xx_hal_opamp.c ****                                         hopamp->Init.Mode | \
 348:Drivers/STM32F3xx_HAL_Driver/Src/stm32f3xx_hal_opamp.c ****                                         hopamp->Init.InvertingInput    | \
 349:Drivers/STM32F3xx_HAL_Driver/Src/stm32f3xx_hal_opamp.c ****                                         hopamp->Init.NonInvertingInput | \
 350:Drivers/STM32F3xx_HAL_Driver/Src/stm32f3xx_hal_opamp.c ****                                         hopamp->Init.TimerControlledMuxmode | \
 351:Drivers/STM32F3xx_HAL_Driver/Src/stm32f3xx_hal_opamp.c ****                                         hopamp->Init.InvertingInputSecondary  | \
 352:Drivers/STM32F3xx_HAL_Driver/Src/stm32f3xx_hal_opamp.c ****                                         hopamp->Init.NonInvertingInputSecondary  | \
 353:Drivers/STM32F3xx_HAL_Driver/Src/stm32f3xx_hal_opamp.c ****                                         hopamp->Init.PgaConnect | \
 354:Drivers/STM32F3xx_HAL_Driver/Src/stm32f3xx_hal_opamp.c ****                                         hopamp->Init.PgaGain | \
 355:Drivers/STM32F3xx_HAL_Driver/Src/stm32f3xx_hal_opamp.c ****                                         hopamp->Init.UserTrimming | \
 356:Drivers/STM32F3xx_HAL_Driver/Src/stm32f3xx_hal_opamp.c ****                                         (hopamp->Init.TrimmingValueP << OPAMP_INPUT_NONINVERTING) |
 357:Drivers/STM32F3xx_HAL_Driver/Src/stm32f3xx_hal_opamp.c ****                                         (hopamp->Init.TrimmingValueN << OPAMP_INPUT_INVERTING));   
 358:Drivers/STM32F3xx_HAL_Driver/Src/stm32f3xx_hal_opamp.c ****     } 
 359:Drivers/STM32F3xx_HAL_Driver/Src/stm32f3xx_hal_opamp.c ****     
 360:Drivers/STM32F3xx_HAL_Driver/Src/stm32f3xx_hal_opamp.c ****     /* Update the OPAMP state*/
 361:Drivers/STM32F3xx_HAL_Driver/Src/stm32f3xx_hal_opamp.c ****     if (hopamp->State == HAL_OPAMP_STATE_RESET)
 362:Drivers/STM32F3xx_HAL_Driver/Src/stm32f3xx_hal_opamp.c ****     {
 363:Drivers/STM32F3xx_HAL_Driver/Src/stm32f3xx_hal_opamp.c ****       /* From RESET state to READY State */
 364:Drivers/STM32F3xx_HAL_Driver/Src/stm32f3xx_hal_opamp.c ****     hopamp->State = HAL_OPAMP_STATE_READY;
 365:Drivers/STM32F3xx_HAL_Driver/Src/stm32f3xx_hal_opamp.c ****     }
 366:Drivers/STM32F3xx_HAL_Driver/Src/stm32f3xx_hal_opamp.c ****     /* else: remain in READY or BUSY state (no update) */
 367:Drivers/STM32F3xx_HAL_Driver/Src/stm32f3xx_hal_opamp.c ****   
 368:Drivers/STM32F3xx_HAL_Driver/Src/stm32f3xx_hal_opamp.c ****     return status;
 369:Drivers/STM32F3xx_HAL_Driver/Src/stm32f3xx_hal_opamp.c ****     }
 370:Drivers/STM32F3xx_HAL_Driver/Src/stm32f3xx_hal_opamp.c **** }
 371:Drivers/STM32F3xx_HAL_Driver/Src/stm32f3xx_hal_opamp.c **** 
ARM GAS  /var/folders/md/lgcc8l7571l9vt9sx0g0zflw0000gn/T//ccmnh1CJ.s 			page 8


 372:Drivers/STM32F3xx_HAL_Driver/Src/stm32f3xx_hal_opamp.c **** 
 373:Drivers/STM32F3xx_HAL_Driver/Src/stm32f3xx_hal_opamp.c **** /**
 374:Drivers/STM32F3xx_HAL_Driver/Src/stm32f3xx_hal_opamp.c ****   * @brief  DeInitializes the OPAMP peripheral 
 375:Drivers/STM32F3xx_HAL_Driver/Src/stm32f3xx_hal_opamp.c ****   * @note   Deinitialization can't be performed if the OPAMP configuration is locked.
 376:Drivers/STM32F3xx_HAL_Driver/Src/stm32f3xx_hal_opamp.c ****   *         To unlock the configuration, perform a system reset.
 377:Drivers/STM32F3xx_HAL_Driver/Src/stm32f3xx_hal_opamp.c ****   * @param  hopamp OPAMP handle
 378:Drivers/STM32F3xx_HAL_Driver/Src/stm32f3xx_hal_opamp.c ****   * @retval HAL status
 379:Drivers/STM32F3xx_HAL_Driver/Src/stm32f3xx_hal_opamp.c ****   */
 380:Drivers/STM32F3xx_HAL_Driver/Src/stm32f3xx_hal_opamp.c **** HAL_StatusTypeDef HAL_OPAMP_DeInit(OPAMP_HandleTypeDef *hopamp)
 381:Drivers/STM32F3xx_HAL_Driver/Src/stm32f3xx_hal_opamp.c **** {
 382:Drivers/STM32F3xx_HAL_Driver/Src/stm32f3xx_hal_opamp.c ****   HAL_StatusTypeDef status = HAL_OK;
 383:Drivers/STM32F3xx_HAL_Driver/Src/stm32f3xx_hal_opamp.c **** 
 384:Drivers/STM32F3xx_HAL_Driver/Src/stm32f3xx_hal_opamp.c ****   /* Check the OPAMP handle allocation */
 385:Drivers/STM32F3xx_HAL_Driver/Src/stm32f3xx_hal_opamp.c ****   /* DeInit not allowed if calibration is ongoing */
 386:Drivers/STM32F3xx_HAL_Driver/Src/stm32f3xx_hal_opamp.c ****   if((hopamp == NULL) || (hopamp->State == HAL_OPAMP_STATE_CALIBBUSY))
 387:Drivers/STM32F3xx_HAL_Driver/Src/stm32f3xx_hal_opamp.c ****   {
 388:Drivers/STM32F3xx_HAL_Driver/Src/stm32f3xx_hal_opamp.c ****     status = HAL_ERROR;
 389:Drivers/STM32F3xx_HAL_Driver/Src/stm32f3xx_hal_opamp.c ****   }
 390:Drivers/STM32F3xx_HAL_Driver/Src/stm32f3xx_hal_opamp.c ****   else
 391:Drivers/STM32F3xx_HAL_Driver/Src/stm32f3xx_hal_opamp.c ****   {
 392:Drivers/STM32F3xx_HAL_Driver/Src/stm32f3xx_hal_opamp.c ****     /* Check the parameter */
 393:Drivers/STM32F3xx_HAL_Driver/Src/stm32f3xx_hal_opamp.c ****     assert_param(IS_OPAMP_ALL_INSTANCE(hopamp->Instance));
 394:Drivers/STM32F3xx_HAL_Driver/Src/stm32f3xx_hal_opamp.c **** 
 395:Drivers/STM32F3xx_HAL_Driver/Src/stm32f3xx_hal_opamp.c ****     /* Set OPAMP_CSR register to reset value */
 396:Drivers/STM32F3xx_HAL_Driver/Src/stm32f3xx_hal_opamp.c ****     WRITE_REG(hopamp->Instance->CSR, OPAMP_CSR_RESET_VALUE);
 397:Drivers/STM32F3xx_HAL_Driver/Src/stm32f3xx_hal_opamp.c **** 
 398:Drivers/STM32F3xx_HAL_Driver/Src/stm32f3xx_hal_opamp.c ****     /* DeInit the low level hardware: GPIO, CLOCK and NVIC */
 399:Drivers/STM32F3xx_HAL_Driver/Src/stm32f3xx_hal_opamp.c ****     /* When OPAMP is locked, unlocking can be achieved thanks to */ 
 400:Drivers/STM32F3xx_HAL_Driver/Src/stm32f3xx_hal_opamp.c ****     /* __HAL_RCC_SYSCFG_CLK_DISABLE() call within HAL_OPAMP_MspDeInit */
 401:Drivers/STM32F3xx_HAL_Driver/Src/stm32f3xx_hal_opamp.c ****     /* Note that __HAL_RCC_SYSCFG_CLK_DISABLE() also disables comparator */
 402:Drivers/STM32F3xx_HAL_Driver/Src/stm32f3xx_hal_opamp.c ****     HAL_OPAMP_MspDeInit(hopamp);
 403:Drivers/STM32F3xx_HAL_Driver/Src/stm32f3xx_hal_opamp.c **** 
 404:Drivers/STM32F3xx_HAL_Driver/Src/stm32f3xx_hal_opamp.c ****     if (OPAMP_CSR_RESET_VALUE == hopamp->Instance->CSR)
 405:Drivers/STM32F3xx_HAL_Driver/Src/stm32f3xx_hal_opamp.c ****     {
 406:Drivers/STM32F3xx_HAL_Driver/Src/stm32f3xx_hal_opamp.c ****       /* Update the OPAMP state */
 407:Drivers/STM32F3xx_HAL_Driver/Src/stm32f3xx_hal_opamp.c ****       hopamp->State = HAL_OPAMP_STATE_RESET;
 408:Drivers/STM32F3xx_HAL_Driver/Src/stm32f3xx_hal_opamp.c ****     }
 409:Drivers/STM32F3xx_HAL_Driver/Src/stm32f3xx_hal_opamp.c ****     else /* RESET STATE */ 
 410:Drivers/STM32F3xx_HAL_Driver/Src/stm32f3xx_hal_opamp.c ****     {
 411:Drivers/STM32F3xx_HAL_Driver/Src/stm32f3xx_hal_opamp.c ****       /* DeInit not complete */ 
 412:Drivers/STM32F3xx_HAL_Driver/Src/stm32f3xx_hal_opamp.c ****       /* It can be the case if OPAMP was formerly locked */ 
 413:Drivers/STM32F3xx_HAL_Driver/Src/stm32f3xx_hal_opamp.c ****       status = HAL_ERROR;
 414:Drivers/STM32F3xx_HAL_Driver/Src/stm32f3xx_hal_opamp.c **** 
 415:Drivers/STM32F3xx_HAL_Driver/Src/stm32f3xx_hal_opamp.c ****       /* The OPAMP state is NOT updated */      
 416:Drivers/STM32F3xx_HAL_Driver/Src/stm32f3xx_hal_opamp.c ****     }
 417:Drivers/STM32F3xx_HAL_Driver/Src/stm32f3xx_hal_opamp.c **** 
 418:Drivers/STM32F3xx_HAL_Driver/Src/stm32f3xx_hal_opamp.c ****     /* Process unlocked */
 419:Drivers/STM32F3xx_HAL_Driver/Src/stm32f3xx_hal_opamp.c ****     __HAL_UNLOCK(hopamp);
 420:Drivers/STM32F3xx_HAL_Driver/Src/stm32f3xx_hal_opamp.c ****   }
 421:Drivers/STM32F3xx_HAL_Driver/Src/stm32f3xx_hal_opamp.c ****   
 422:Drivers/STM32F3xx_HAL_Driver/Src/stm32f3xx_hal_opamp.c ****   return status;
 423:Drivers/STM32F3xx_HAL_Driver/Src/stm32f3xx_hal_opamp.c **** }
 424:Drivers/STM32F3xx_HAL_Driver/Src/stm32f3xx_hal_opamp.c **** 
 425:Drivers/STM32F3xx_HAL_Driver/Src/stm32f3xx_hal_opamp.c **** /**
 426:Drivers/STM32F3xx_HAL_Driver/Src/stm32f3xx_hal_opamp.c ****   * @brief  Initializes the OPAMP MSP.
 427:Drivers/STM32F3xx_HAL_Driver/Src/stm32f3xx_hal_opamp.c ****   * @param  hopamp OPAMP handle
 428:Drivers/STM32F3xx_HAL_Driver/Src/stm32f3xx_hal_opamp.c ****   * @retval None
ARM GAS  /var/folders/md/lgcc8l7571l9vt9sx0g0zflw0000gn/T//ccmnh1CJ.s 			page 9


 429:Drivers/STM32F3xx_HAL_Driver/Src/stm32f3xx_hal_opamp.c ****   */
 430:Drivers/STM32F3xx_HAL_Driver/Src/stm32f3xx_hal_opamp.c **** __weak void HAL_OPAMP_MspInit(OPAMP_HandleTypeDef *hopamp)
 431:Drivers/STM32F3xx_HAL_Driver/Src/stm32f3xx_hal_opamp.c **** {
  30              		.loc 1 431 1 view -0
  31              		.cfi_startproc
  32              		@ args = 0, pretend = 0, frame = 0
  33              		@ frame_needed = 0, uses_anonymous_args = 0
  34              		@ link register save eliminated.
 432:Drivers/STM32F3xx_HAL_Driver/Src/stm32f3xx_hal_opamp.c ****   /* Prevent unused argument(s) compilation warning */
 433:Drivers/STM32F3xx_HAL_Driver/Src/stm32f3xx_hal_opamp.c ****   UNUSED(hopamp);
  35              		.loc 1 433 3 view .LVU1
 434:Drivers/STM32F3xx_HAL_Driver/Src/stm32f3xx_hal_opamp.c **** 
 435:Drivers/STM32F3xx_HAL_Driver/Src/stm32f3xx_hal_opamp.c ****   /* NOTE : This function should not be modified, when the callback is needed,
 436:Drivers/STM32F3xx_HAL_Driver/Src/stm32f3xx_hal_opamp.c ****             the HAL_OPAMP_MspInit could be implemented in the user file
 437:Drivers/STM32F3xx_HAL_Driver/Src/stm32f3xx_hal_opamp.c ****    */
 438:Drivers/STM32F3xx_HAL_Driver/Src/stm32f3xx_hal_opamp.c **** 
 439:Drivers/STM32F3xx_HAL_Driver/Src/stm32f3xx_hal_opamp.c ****    /* Example */ 
 440:Drivers/STM32F3xx_HAL_Driver/Src/stm32f3xx_hal_opamp.c **** }
  36              		.loc 1 440 1 is_stmt 0 view .LVU2
  37 0000 7047     		bx	lr
  38              		.cfi_endproc
  39              	.LFE128:
  41              		.section	.text.HAL_OPAMP_Init,"ax",%progbits
  42              		.align	1
  43              		.global	HAL_OPAMP_Init
  44              		.syntax unified
  45              		.thumb
  46              		.thumb_func
  47              		.fpu fpv4-sp-d16
  49              	HAL_OPAMP_Init:
  50              	.LVL1:
  51              	.LFB126:
 251:Drivers/STM32F3xx_HAL_Driver/Src/stm32f3xx_hal_opamp.c ****   HAL_StatusTypeDef status = HAL_OK;
  52              		.loc 1 251 1 is_stmt 1 view -0
  53              		.cfi_startproc
  54              		@ args = 0, pretend = 0, frame = 8
  55              		@ frame_needed = 0, uses_anonymous_args = 0
 252:Drivers/STM32F3xx_HAL_Driver/Src/stm32f3xx_hal_opamp.c **** 
  56              		.loc 1 252 3 view .LVU4
 256:Drivers/STM32F3xx_HAL_Driver/Src/stm32f3xx_hal_opamp.c ****                       || (hopamp->State == HAL_OPAMP_STATE_CALIBBUSY))
  57              		.loc 1 256 3 view .LVU5
 256:Drivers/STM32F3xx_HAL_Driver/Src/stm32f3xx_hal_opamp.c ****                       || (hopamp->State == HAL_OPAMP_STATE_CALIBBUSY))
  58              		.loc 1 256 5 is_stmt 0 view .LVU6
  59 0000 0028     		cmp	r0, #0
  60 0002 61D0     		beq	.L9
 251:Drivers/STM32F3xx_HAL_Driver/Src/stm32f3xx_hal_opamp.c ****   HAL_StatusTypeDef status = HAL_OK;
  61              		.loc 1 251 1 discriminator 1 view .LVU7
  62 0004 10B5     		push	{r4, lr}
  63              	.LCFI0:
  64              		.cfi_def_cfa_offset 8
  65              		.cfi_offset 4, -8
  66              		.cfi_offset 14, -4
  67 0006 82B0     		sub	sp, sp, #8
  68              	.LCFI1:
  69              		.cfi_def_cfa_offset 16
  70 0008 0446     		mov	r4, r0
 256:Drivers/STM32F3xx_HAL_Driver/Src/stm32f3xx_hal_opamp.c ****                       || (hopamp->State == HAL_OPAMP_STATE_CALIBBUSY))
ARM GAS  /var/folders/md/lgcc8l7571l9vt9sx0g0zflw0000gn/T//ccmnh1CJ.s 			page 10


  71              		.loc 1 256 33 discriminator 1 view .LVU8
  72 000a 90F83230 		ldrb	r3, [r0, #50]	@ zero_extendqisi2
  73 000e DBB2     		uxtb	r3, r3
 256:Drivers/STM32F3xx_HAL_Driver/Src/stm32f3xx_hal_opamp.c ****                       || (hopamp->State == HAL_OPAMP_STATE_CALIBBUSY))
  74              		.loc 1 256 23 discriminator 1 view .LVU9
  75 0010 052B     		cmp	r3, #5
  76 0012 5BD0     		beq	.L10
 257:Drivers/STM32F3xx_HAL_Driver/Src/stm32f3xx_hal_opamp.c ****   {
  77              		.loc 1 257 33 view .LVU10
  78 0014 90F83230 		ldrb	r3, [r0, #50]	@ zero_extendqisi2
  79 0018 DBB2     		uxtb	r3, r3
 257:Drivers/STM32F3xx_HAL_Driver/Src/stm32f3xx_hal_opamp.c ****   {
  80              		.loc 1 257 23 view .LVU11
  81 001a 022B     		cmp	r3, #2
  82 001c 58D0     		beq	.L11
 265:Drivers/STM32F3xx_HAL_Driver/Src/stm32f3xx_hal_opamp.c ****        
  83              		.loc 1 265 5 is_stmt 1 view .LVU12
 268:Drivers/STM32F3xx_HAL_Driver/Src/stm32f3xx_hal_opamp.c ****     assert_param(IS_OPAMP_NONINVERTING_INPUT(hopamp->Init.NonInvertingInput));
  84              		.loc 1 268 5 view .LVU13
 269:Drivers/STM32F3xx_HAL_Driver/Src/stm32f3xx_hal_opamp.c ****     if ((hopamp->Init.Mode) == OPAMP_STANDALONE_MODE)
  85              		.loc 1 269 5 view .LVU14
 270:Drivers/STM32F3xx_HAL_Driver/Src/stm32f3xx_hal_opamp.c ****     {
  86              		.loc 1 270 5 view .LVU15
 272:Drivers/STM32F3xx_HAL_Driver/Src/stm32f3xx_hal_opamp.c ****     }
  87              		.loc 1 272 7 view .LVU16
 275:Drivers/STM32F3xx_HAL_Driver/Src/stm32f3xx_hal_opamp.c **** 
  88              		.loc 1 275 5 view .LVU17
 277:Drivers/STM32F3xx_HAL_Driver/Src/stm32f3xx_hal_opamp.c ****     {
  89              		.loc 1 277 5 view .LVU18
 282:Drivers/STM32F3xx_HAL_Driver/Src/stm32f3xx_hal_opamp.c ****       }
  90              		.loc 1 282 9 view .LVU19
 286:Drivers/STM32F3xx_HAL_Driver/Src/stm32f3xx_hal_opamp.c ****     {
  91              		.loc 1 286 5 view .LVU20
 288:Drivers/STM32F3xx_HAL_Driver/Src/stm32f3xx_hal_opamp.c ****       assert_param(IS_OPAMP_PGA_GAIN(hopamp->Init.PgaGain));
  92              		.loc 1 288 7 view .LVU21
 289:Drivers/STM32F3xx_HAL_Driver/Src/stm32f3xx_hal_opamp.c ****     }
  93              		.loc 1 289 7 view .LVU22
 292:Drivers/STM32F3xx_HAL_Driver/Src/stm32f3xx_hal_opamp.c ****     if ((hopamp->Init.UserTrimming) == OPAMP_TRIMMING_USER)
  94              		.loc 1 292 5 view .LVU23
 293:Drivers/STM32F3xx_HAL_Driver/Src/stm32f3xx_hal_opamp.c ****     {
  95              		.loc 1 293 5 view .LVU24
 295:Drivers/STM32F3xx_HAL_Driver/Src/stm32f3xx_hal_opamp.c ****       assert_param(IS_OPAMP_TRIMMINGVALUE(hopamp->Init.TrimmingValueN));
  96              		.loc 1 295 7 view .LVU25
 296:Drivers/STM32F3xx_HAL_Driver/Src/stm32f3xx_hal_opamp.c ****     }
  97              		.loc 1 296 7 view .LVU26
 300:Drivers/STM32F3xx_HAL_Driver/Src/stm32f3xx_hal_opamp.c ****     
  98              		.loc 1 300 5 view .LVU27
  99              	.LBB2:
 300:Drivers/STM32F3xx_HAL_Driver/Src/stm32f3xx_hal_opamp.c ****     
 100              		.loc 1 300 5 view .LVU28
 300:Drivers/STM32F3xx_HAL_Driver/Src/stm32f3xx_hal_opamp.c ****     
 101              		.loc 1 300 5 view .LVU29
 102 001e 2D4B     		ldr	r3, .L16
 103 0020 9A69     		ldr	r2, [r3, #24]
 104 0022 42F00102 		orr	r2, r2, #1
 105 0026 9A61     		str	r2, [r3, #24]
 300:Drivers/STM32F3xx_HAL_Driver/Src/stm32f3xx_hal_opamp.c ****     
ARM GAS  /var/folders/md/lgcc8l7571l9vt9sx0g0zflw0000gn/T//ccmnh1CJ.s 			page 11


 106              		.loc 1 300 5 view .LVU30
 107 0028 9B69     		ldr	r3, [r3, #24]
 108 002a 03F00103 		and	r3, r3, #1
 109 002e 0193     		str	r3, [sp, #4]
 300:Drivers/STM32F3xx_HAL_Driver/Src/stm32f3xx_hal_opamp.c ****     
 110              		.loc 1 300 5 view .LVU31
 111 0030 019B     		ldr	r3, [sp, #4]
 112              	.LBE2:
 302:Drivers/STM32F3xx_HAL_Driver/Src/stm32f3xx_hal_opamp.c ****     {
 113              		.loc 1 302 5 view .LVU32
 302:Drivers/STM32F3xx_HAL_Driver/Src/stm32f3xx_hal_opamp.c ****     {
 114              		.loc 1 302 14 is_stmt 0 view .LVU33
 115 0032 90F83230 		ldrb	r3, [r0, #50]	@ zero_extendqisi2
 302:Drivers/STM32F3xx_HAL_Driver/Src/stm32f3xx_hal_opamp.c ****     {
 116              		.loc 1 302 7 view .LVU34
 117 0036 0BB9     		cbnz	r3, .L4
 305:Drivers/STM32F3xx_HAL_Driver/Src/stm32f3xx_hal_opamp.c ****     }
 118              		.loc 1 305 7 is_stmt 1 view .LVU35
 305:Drivers/STM32F3xx_HAL_Driver/Src/stm32f3xx_hal_opamp.c ****     }
 119              		.loc 1 305 20 is_stmt 0 view .LVU36
 120 0038 80F83130 		strb	r3, [r0, #49]
 121              	.L4:
 309:Drivers/STM32F3xx_HAL_Driver/Src/stm32f3xx_hal_opamp.c ****                                           
 122              		.loc 1 309 5 is_stmt 1 view .LVU37
 123 003c 2046     		mov	r0, r4
 124              	.LVL2:
 309:Drivers/STM32F3xx_HAL_Driver/Src/stm32f3xx_hal_opamp.c ****                                           
 125              		.loc 1 309 5 is_stmt 0 view .LVU38
 126 003e FFF7FEFF 		bl	HAL_OPAMP_MspInit
 127              	.LVL3:
 330:Drivers/STM32F3xx_HAL_Driver/Src/stm32f3xx_hal_opamp.c ****     {
 128              		.loc 1 330 5 is_stmt 1 view .LVU39
 330:Drivers/STM32F3xx_HAL_Driver/Src/stm32f3xx_hal_opamp.c ****     {
 129              		.loc 1 330 22 is_stmt 0 view .LVU40
 130 0042 6368     		ldr	r3, [r4, #4]
 330:Drivers/STM32F3xx_HAL_Driver/Src/stm32f3xx_hal_opamp.c ****     {
 131              		.loc 1 330 8 view .LVU41
 132 0044 402B     		cmp	r3, #64
 133 0046 1ED0     		beq	.L5
 330:Drivers/STM32F3xx_HAL_Driver/Src/stm32f3xx_hal_opamp.c ****     {
 134              		.loc 1 330 47 discriminator 1 view .LVU42
 135 0048 602B     		cmp	r3, #96
 136 004a 1CD0     		beq	.L5
 346:Drivers/STM32F3xx_HAL_Driver/Src/stm32f3xx_hal_opamp.c ****                                         hopamp->Init.Mode | \
 137              		.loc 1 346 7 is_stmt 1 view .LVU43
 138 004c 2168     		ldr	r1, [r4]
 139 004e 0868     		ldr	r0, [r1]
 140 0050 214A     		ldr	r2, .L16+4
 141 0052 0240     		ands	r2, r2, r0
 142 0054 A068     		ldr	r0, [r4, #8]
 143 0056 0343     		orrs	r3, r3, r0
 144 0058 E068     		ldr	r0, [r4, #12]
 145 005a 0343     		orrs	r3, r3, r0
 146 005c 2069     		ldr	r0, [r4, #16]
 147 005e 0343     		orrs	r3, r3, r0
 148 0060 6069     		ldr	r0, [r4, #20]
 149 0062 0343     		orrs	r3, r3, r0
ARM GAS  /var/folders/md/lgcc8l7571l9vt9sx0g0zflw0000gn/T//ccmnh1CJ.s 			page 12


 150 0064 A069     		ldr	r0, [r4, #24]
 151 0066 0343     		orrs	r3, r3, r0
 152 0068 E069     		ldr	r0, [r4, #28]
 153 006a 0343     		orrs	r3, r3, r0
 154 006c 206A     		ldr	r0, [r4, #32]
 155 006e 0343     		orrs	r3, r3, r0
 156 0070 606A     		ldr	r0, [r4, #36]
 157 0072 0343     		orrs	r3, r3, r0
 158 0074 A06A     		ldr	r0, [r4, #40]
 159 0076 43EAC043 		orr	r3, r3, r0, lsl #19
 160 007a E06A     		ldr	r0, [r4, #44]
 161 007c 43EA0063 		orr	r3, r3, r0, lsl #24
 162 0080 1343     		orrs	r3, r3, r2
 163 0082 0B60     		str	r3, [r1]
 164 0084 17E0     		b	.L7
 165              	.L5:
 332:Drivers/STM32F3xx_HAL_Driver/Src/stm32f3xx_hal_opamp.c ****                                         hopamp->Init.Mode | \
 166              		.loc 1 332 7 view .LVU44
 167 0086 2168     		ldr	r1, [r4]
 168 0088 0868     		ldr	r0, [r1]
 169 008a 134A     		ldr	r2, .L16+4
 170 008c 0240     		ands	r2, r2, r0
 171 008e E068     		ldr	r0, [r4, #12]
 172 0090 0343     		orrs	r3, r3, r0
 173 0092 2069     		ldr	r0, [r4, #16]
 174 0094 0343     		orrs	r3, r3, r0
 175 0096 A069     		ldr	r0, [r4, #24]
 176 0098 0343     		orrs	r3, r3, r0
 177 009a E069     		ldr	r0, [r4, #28]
 178 009c 0343     		orrs	r3, r3, r0
 179 009e 206A     		ldr	r0, [r4, #32]
 180 00a0 0343     		orrs	r3, r3, r0
 181 00a2 606A     		ldr	r0, [r4, #36]
 182 00a4 0343     		orrs	r3, r3, r0
 183 00a6 A06A     		ldr	r0, [r4, #40]
 184 00a8 43EAC043 		orr	r3, r3, r0, lsl #19
 185 00ac E06A     		ldr	r0, [r4, #44]
 186 00ae 43EA0063 		orr	r3, r3, r0, lsl #24
 187 00b2 1343     		orrs	r3, r3, r2
 188 00b4 0B60     		str	r3, [r1]
 189              	.L7:
 361:Drivers/STM32F3xx_HAL_Driver/Src/stm32f3xx_hal_opamp.c ****     {
 190              		.loc 1 361 5 view .LVU45
 361:Drivers/STM32F3xx_HAL_Driver/Src/stm32f3xx_hal_opamp.c ****     {
 191              		.loc 1 361 15 is_stmt 0 view .LVU46
 192 00b6 94F83230 		ldrb	r3, [r4, #50]	@ zero_extendqisi2
 361:Drivers/STM32F3xx_HAL_Driver/Src/stm32f3xx_hal_opamp.c ****     {
 193              		.loc 1 361 8 view .LVU47
 194 00ba 13B9     		cbnz	r3, .L8
 364:Drivers/STM32F3xx_HAL_Driver/Src/stm32f3xx_hal_opamp.c ****     }
 195              		.loc 1 364 5 is_stmt 1 view .LVU48
 364:Drivers/STM32F3xx_HAL_Driver/Src/stm32f3xx_hal_opamp.c ****     }
 196              		.loc 1 364 19 is_stmt 0 view .LVU49
 197 00bc 0123     		movs	r3, #1
 198 00be 84F83230 		strb	r3, [r4, #50]
 199              	.L8:
 368:Drivers/STM32F3xx_HAL_Driver/Src/stm32f3xx_hal_opamp.c ****     }
ARM GAS  /var/folders/md/lgcc8l7571l9vt9sx0g0zflw0000gn/T//ccmnh1CJ.s 			page 13


 200              		.loc 1 368 5 is_stmt 1 view .LVU50
 368:Drivers/STM32F3xx_HAL_Driver/Src/stm32f3xx_hal_opamp.c ****     }
 201              		.loc 1 368 12 is_stmt 0 view .LVU51
 202 00c2 0020     		movs	r0, #0
 203              	.L3:
 370:Drivers/STM32F3xx_HAL_Driver/Src/stm32f3xx_hal_opamp.c **** 
 204              		.loc 1 370 1 view .LVU52
 205 00c4 02B0     		add	sp, sp, #8
 206              	.LCFI2:
 207              		.cfi_def_cfa_offset 8
 208              		@ sp needed
 209 00c6 10BD     		pop	{r4, pc}
 210              	.LVL4:
 211              	.L9:
 212              	.LCFI3:
 213              		.cfi_def_cfa_offset 0
 214              		.cfi_restore 4
 215              		.cfi_restore 14
 259:Drivers/STM32F3xx_HAL_Driver/Src/stm32f3xx_hal_opamp.c ****   }
 216              		.loc 1 259 12 view .LVU53
 217 00c8 0120     		movs	r0, #1
 218              	.LVL5:
 370:Drivers/STM32F3xx_HAL_Driver/Src/stm32f3xx_hal_opamp.c **** 
 219              		.loc 1 370 1 view .LVU54
 220 00ca 7047     		bx	lr
 221              	.LVL6:
 222              	.L10:
 223              	.LCFI4:
 224              		.cfi_def_cfa_offset 16
 225              		.cfi_offset 4, -8
 226              		.cfi_offset 14, -4
 259:Drivers/STM32F3xx_HAL_Driver/Src/stm32f3xx_hal_opamp.c ****   }
 227              		.loc 1 259 12 view .LVU55
 228 00cc 0120     		movs	r0, #1
 229              	.LVL7:
 259:Drivers/STM32F3xx_HAL_Driver/Src/stm32f3xx_hal_opamp.c ****   }
 230              		.loc 1 259 12 view .LVU56
 231 00ce F9E7     		b	.L3
 232              	.LVL8:
 233              	.L11:
 259:Drivers/STM32F3xx_HAL_Driver/Src/stm32f3xx_hal_opamp.c ****   }
 234              		.loc 1 259 12 view .LVU57
 235 00d0 0120     		movs	r0, #1
 236              	.LVL9:
 259:Drivers/STM32F3xx_HAL_Driver/Src/stm32f3xx_hal_opamp.c ****   }
 237              		.loc 1 259 12 view .LVU58
 238 00d2 F7E7     		b	.L3
 239              	.L17:
 240              		.align	2
 241              	.L16:
 242 00d4 00100240 		.word	1073876992
 243 00d8 113800E0 		.word	-536856559
 244              		.cfi_endproc
 245              	.LFE126:
 247              		.section	.text.HAL_OPAMP_MspDeInit,"ax",%progbits
 248              		.align	1
 249              		.weak	HAL_OPAMP_MspDeInit
ARM GAS  /var/folders/md/lgcc8l7571l9vt9sx0g0zflw0000gn/T//ccmnh1CJ.s 			page 14


 250              		.syntax unified
 251              		.thumb
 252              		.thumb_func
 253              		.fpu fpv4-sp-d16
 255              	HAL_OPAMP_MspDeInit:
 256              	.LVL10:
 257              	.LFB129:
 441:Drivers/STM32F3xx_HAL_Driver/Src/stm32f3xx_hal_opamp.c **** 
 442:Drivers/STM32F3xx_HAL_Driver/Src/stm32f3xx_hal_opamp.c **** /**
 443:Drivers/STM32F3xx_HAL_Driver/Src/stm32f3xx_hal_opamp.c ****   * @brief  DeInitializes OPAMP MSP.
 444:Drivers/STM32F3xx_HAL_Driver/Src/stm32f3xx_hal_opamp.c ****   * @param  hopamp OPAMP handle
 445:Drivers/STM32F3xx_HAL_Driver/Src/stm32f3xx_hal_opamp.c ****   * @retval None
 446:Drivers/STM32F3xx_HAL_Driver/Src/stm32f3xx_hal_opamp.c ****   */
 447:Drivers/STM32F3xx_HAL_Driver/Src/stm32f3xx_hal_opamp.c **** __weak void HAL_OPAMP_MspDeInit(OPAMP_HandleTypeDef *hopamp)
 448:Drivers/STM32F3xx_HAL_Driver/Src/stm32f3xx_hal_opamp.c **** {
 258              		.loc 1 448 1 is_stmt 1 view -0
 259              		.cfi_startproc
 260              		@ args = 0, pretend = 0, frame = 0
 261              		@ frame_needed = 0, uses_anonymous_args = 0
 262              		@ link register save eliminated.
 449:Drivers/STM32F3xx_HAL_Driver/Src/stm32f3xx_hal_opamp.c ****   /* Prevent unused argument(s) compilation warning */
 450:Drivers/STM32F3xx_HAL_Driver/Src/stm32f3xx_hal_opamp.c ****   UNUSED(hopamp);
 263              		.loc 1 450 3 view .LVU60
 451:Drivers/STM32F3xx_HAL_Driver/Src/stm32f3xx_hal_opamp.c **** 
 452:Drivers/STM32F3xx_HAL_Driver/Src/stm32f3xx_hal_opamp.c ****   /* NOTE : This function should not be modified, when the callback is needed,
 453:Drivers/STM32F3xx_HAL_Driver/Src/stm32f3xx_hal_opamp.c ****             the HAL_OPAMP_MspDeInit could be implemented in the user file
 454:Drivers/STM32F3xx_HAL_Driver/Src/stm32f3xx_hal_opamp.c ****    */
 455:Drivers/STM32F3xx_HAL_Driver/Src/stm32f3xx_hal_opamp.c **** 
 456:Drivers/STM32F3xx_HAL_Driver/Src/stm32f3xx_hal_opamp.c **** }
 264              		.loc 1 456 1 is_stmt 0 view .LVU61
 265 0000 7047     		bx	lr
 266              		.cfi_endproc
 267              	.LFE129:
 269              		.section	.text.HAL_OPAMP_DeInit,"ax",%progbits
 270              		.align	1
 271              		.global	HAL_OPAMP_DeInit
 272              		.syntax unified
 273              		.thumb
 274              		.thumb_func
 275              		.fpu fpv4-sp-d16
 277              	HAL_OPAMP_DeInit:
 278              	.LVL11:
 279              	.LFB127:
 381:Drivers/STM32F3xx_HAL_Driver/Src/stm32f3xx_hal_opamp.c ****   HAL_StatusTypeDef status = HAL_OK;
 280              		.loc 1 381 1 is_stmt 1 view -0
 281              		.cfi_startproc
 282              		@ args = 0, pretend = 0, frame = 0
 283              		@ frame_needed = 0, uses_anonymous_args = 0
 382:Drivers/STM32F3xx_HAL_Driver/Src/stm32f3xx_hal_opamp.c **** 
 284              		.loc 1 382 3 view .LVU63
 386:Drivers/STM32F3xx_HAL_Driver/Src/stm32f3xx_hal_opamp.c ****   {
 285              		.loc 1 386 3 view .LVU64
 386:Drivers/STM32F3xx_HAL_Driver/Src/stm32f3xx_hal_opamp.c ****   {
 286              		.loc 1 386 5 is_stmt 0 view .LVU65
 287 0000 C8B1     		cbz	r0, .L22
 381:Drivers/STM32F3xx_HAL_Driver/Src/stm32f3xx_hal_opamp.c ****   HAL_StatusTypeDef status = HAL_OK;
 288              		.loc 1 381 1 discriminator 1 view .LVU66
ARM GAS  /var/folders/md/lgcc8l7571l9vt9sx0g0zflw0000gn/T//ccmnh1CJ.s 			page 15


 289 0002 10B5     		push	{r4, lr}
 290              	.LCFI5:
 291              		.cfi_def_cfa_offset 8
 292              		.cfi_offset 4, -8
 293              		.cfi_offset 14, -4
 294 0004 0446     		mov	r4, r0
 386:Drivers/STM32F3xx_HAL_Driver/Src/stm32f3xx_hal_opamp.c ****   {
 295              		.loc 1 386 33 discriminator 1 view .LVU67
 296 0006 90F83220 		ldrb	r2, [r0, #50]	@ zero_extendqisi2
 297 000a D2B2     		uxtb	r2, r2
 386:Drivers/STM32F3xx_HAL_Driver/Src/stm32f3xx_hal_opamp.c ****   {
 298              		.loc 1 386 23 discriminator 1 view .LVU68
 299 000c 022A     		cmp	r2, #2
 300 000e 01D1     		bne	.L29
 388:Drivers/STM32F3xx_HAL_Driver/Src/stm32f3xx_hal_opamp.c ****   }
 301              		.loc 1 388 12 view .LVU69
 302 0010 0120     		movs	r0, #1
 303              	.LVL12:
 304              	.L20:
 422:Drivers/STM32F3xx_HAL_Driver/Src/stm32f3xx_hal_opamp.c **** }
 305              		.loc 1 422 3 is_stmt 1 view .LVU70
 423:Drivers/STM32F3xx_HAL_Driver/Src/stm32f3xx_hal_opamp.c **** 
 306              		.loc 1 423 1 is_stmt 0 view .LVU71
 307 0012 10BD     		pop	{r4, pc}
 308              	.LVL13:
 309              	.L29:
 393:Drivers/STM32F3xx_HAL_Driver/Src/stm32f3xx_hal_opamp.c **** 
 310              		.loc 1 393 5 is_stmt 1 view .LVU72
 396:Drivers/STM32F3xx_HAL_Driver/Src/stm32f3xx_hal_opamp.c **** 
 311              		.loc 1 396 5 view .LVU73
 312 0014 0368     		ldr	r3, [r0]
 313 0016 0022     		movs	r2, #0
 314 0018 1A60     		str	r2, [r3]
 402:Drivers/STM32F3xx_HAL_Driver/Src/stm32f3xx_hal_opamp.c **** 
 315              		.loc 1 402 5 view .LVU74
 316 001a FFF7FEFF 		bl	HAL_OPAMP_MspDeInit
 317              	.LVL14:
 404:Drivers/STM32F3xx_HAL_Driver/Src/stm32f3xx_hal_opamp.c ****     {
 318              		.loc 1 404 5 view .LVU75
 404:Drivers/STM32F3xx_HAL_Driver/Src/stm32f3xx_hal_opamp.c ****     {
 319              		.loc 1 404 40 is_stmt 0 view .LVU76
 320 001e 2368     		ldr	r3, [r4]
 404:Drivers/STM32F3xx_HAL_Driver/Src/stm32f3xx_hal_opamp.c ****     {
 321              		.loc 1 404 50 view .LVU77
 322 0020 1B68     		ldr	r3, [r3]
 404:Drivers/STM32F3xx_HAL_Driver/Src/stm32f3xx_hal_opamp.c ****     {
 323              		.loc 1 404 8 view .LVU78
 324 0022 33B9     		cbnz	r3, .L24
 407:Drivers/STM32F3xx_HAL_Driver/Src/stm32f3xx_hal_opamp.c ****     }
 325              		.loc 1 407 7 is_stmt 1 view .LVU79
 407:Drivers/STM32F3xx_HAL_Driver/Src/stm32f3xx_hal_opamp.c ****     }
 326              		.loc 1 407 21 is_stmt 0 view .LVU80
 327 0024 0020     		movs	r0, #0
 328 0026 84F83200 		strb	r0, [r4, #50]
 329              	.L21:
 330              	.LVL15:
 419:Drivers/STM32F3xx_HAL_Driver/Src/stm32f3xx_hal_opamp.c ****   }
ARM GAS  /var/folders/md/lgcc8l7571l9vt9sx0g0zflw0000gn/T//ccmnh1CJ.s 			page 16


 331              		.loc 1 419 5 is_stmt 1 view .LVU81
 419:Drivers/STM32F3xx_HAL_Driver/Src/stm32f3xx_hal_opamp.c ****   }
 332              		.loc 1 419 5 view .LVU82
 333 002a 0023     		movs	r3, #0
 334 002c 84F83130 		strb	r3, [r4, #49]
 335 0030 EFE7     		b	.L20
 336              	.LVL16:
 337              	.L24:
 413:Drivers/STM32F3xx_HAL_Driver/Src/stm32f3xx_hal_opamp.c **** 
 338              		.loc 1 413 14 is_stmt 0 view .LVU83
 339 0032 0120     		movs	r0, #1
 340 0034 F9E7     		b	.L21
 341              	.LVL17:
 342              	.L22:
 343              	.LCFI6:
 344              		.cfi_def_cfa_offset 0
 345              		.cfi_restore 4
 346              		.cfi_restore 14
 388:Drivers/STM32F3xx_HAL_Driver/Src/stm32f3xx_hal_opamp.c ****   }
 347              		.loc 1 388 12 view .LVU84
 348 0036 0120     		movs	r0, #1
 349              	.LVL18:
 422:Drivers/STM32F3xx_HAL_Driver/Src/stm32f3xx_hal_opamp.c **** }
 350              		.loc 1 422 3 is_stmt 1 view .LVU85
 423:Drivers/STM32F3xx_HAL_Driver/Src/stm32f3xx_hal_opamp.c **** 
 351              		.loc 1 423 1 is_stmt 0 view .LVU86
 352 0038 7047     		bx	lr
 353              		.cfi_endproc
 354              	.LFE127:
 356              		.section	.text.HAL_OPAMP_Start,"ax",%progbits
 357              		.align	1
 358              		.global	HAL_OPAMP_Start
 359              		.syntax unified
 360              		.thumb
 361              		.thumb_func
 362              		.fpu fpv4-sp-d16
 364              	HAL_OPAMP_Start:
 365              	.LVL19:
 366              	.LFB130:
 457:Drivers/STM32F3xx_HAL_Driver/Src/stm32f3xx_hal_opamp.c **** 
 458:Drivers/STM32F3xx_HAL_Driver/Src/stm32f3xx_hal_opamp.c **** /**
 459:Drivers/STM32F3xx_HAL_Driver/Src/stm32f3xx_hal_opamp.c ****   * @}
 460:Drivers/STM32F3xx_HAL_Driver/Src/stm32f3xx_hal_opamp.c ****   */
 461:Drivers/STM32F3xx_HAL_Driver/Src/stm32f3xx_hal_opamp.c **** 
 462:Drivers/STM32F3xx_HAL_Driver/Src/stm32f3xx_hal_opamp.c **** 
 463:Drivers/STM32F3xx_HAL_Driver/Src/stm32f3xx_hal_opamp.c **** /** @defgroup OPAMP_Exported_Functions_Group2 Input and Output operation functions 
 464:Drivers/STM32F3xx_HAL_Driver/Src/stm32f3xx_hal_opamp.c ****  *  @brief   Data transfers functions 
 465:Drivers/STM32F3xx_HAL_Driver/Src/stm32f3xx_hal_opamp.c ****  *
 466:Drivers/STM32F3xx_HAL_Driver/Src/stm32f3xx_hal_opamp.c **** @verbatim   
 467:Drivers/STM32F3xx_HAL_Driver/Src/stm32f3xx_hal_opamp.c ****  ===============================================================================
 468:Drivers/STM32F3xx_HAL_Driver/Src/stm32f3xx_hal_opamp.c ****                       ##### IO operation functions #####
 469:Drivers/STM32F3xx_HAL_Driver/Src/stm32f3xx_hal_opamp.c ****  ===============================================================================  
 470:Drivers/STM32F3xx_HAL_Driver/Src/stm32f3xx_hal_opamp.c ****     [..]
 471:Drivers/STM32F3xx_HAL_Driver/Src/stm32f3xx_hal_opamp.c ****     This subsection provides a set of functions allowing to manage the OPAMP data 
 472:Drivers/STM32F3xx_HAL_Driver/Src/stm32f3xx_hal_opamp.c ****     transfers.
 473:Drivers/STM32F3xx_HAL_Driver/Src/stm32f3xx_hal_opamp.c **** 
 474:Drivers/STM32F3xx_HAL_Driver/Src/stm32f3xx_hal_opamp.c **** @endverbatim
ARM GAS  /var/folders/md/lgcc8l7571l9vt9sx0g0zflw0000gn/T//ccmnh1CJ.s 			page 17


 475:Drivers/STM32F3xx_HAL_Driver/Src/stm32f3xx_hal_opamp.c ****   * @{
 476:Drivers/STM32F3xx_HAL_Driver/Src/stm32f3xx_hal_opamp.c ****   */
 477:Drivers/STM32F3xx_HAL_Driver/Src/stm32f3xx_hal_opamp.c **** 
 478:Drivers/STM32F3xx_HAL_Driver/Src/stm32f3xx_hal_opamp.c **** /**
 479:Drivers/STM32F3xx_HAL_Driver/Src/stm32f3xx_hal_opamp.c ****   * @brief  Start the opamp
 480:Drivers/STM32F3xx_HAL_Driver/Src/stm32f3xx_hal_opamp.c ****   * @param  hopamp OPAMP handle
 481:Drivers/STM32F3xx_HAL_Driver/Src/stm32f3xx_hal_opamp.c ****   * @retval HAL status
 482:Drivers/STM32F3xx_HAL_Driver/Src/stm32f3xx_hal_opamp.c ****   */
 483:Drivers/STM32F3xx_HAL_Driver/Src/stm32f3xx_hal_opamp.c **** 
 484:Drivers/STM32F3xx_HAL_Driver/Src/stm32f3xx_hal_opamp.c **** HAL_StatusTypeDef HAL_OPAMP_Start(OPAMP_HandleTypeDef *hopamp)
 485:Drivers/STM32F3xx_HAL_Driver/Src/stm32f3xx_hal_opamp.c **** { 
 367              		.loc 1 485 1 is_stmt 1 view -0
 368              		.cfi_startproc
 369              		@ args = 0, pretend = 0, frame = 0
 370              		@ frame_needed = 0, uses_anonymous_args = 0
 371              		@ link register save eliminated.
 486:Drivers/STM32F3xx_HAL_Driver/Src/stm32f3xx_hal_opamp.c ****   HAL_StatusTypeDef status = HAL_OK;
 372              		.loc 1 486 3 view .LVU88
 487:Drivers/STM32F3xx_HAL_Driver/Src/stm32f3xx_hal_opamp.c ****   
 488:Drivers/STM32F3xx_HAL_Driver/Src/stm32f3xx_hal_opamp.c ****   /* Check the OPAMP handle allocation */
 489:Drivers/STM32F3xx_HAL_Driver/Src/stm32f3xx_hal_opamp.c ****   /* Check if OPAMP locked */
 490:Drivers/STM32F3xx_HAL_Driver/Src/stm32f3xx_hal_opamp.c ****   if((hopamp == NULL) || (hopamp->State == HAL_OPAMP_STATE_BUSYLOCKED))
 373              		.loc 1 490 3 view .LVU89
 374              		.loc 1 490 5 is_stmt 0 view .LVU90
 375 0000 A8B1     		cbz	r0, .L32
 376              		.loc 1 490 33 discriminator 1 view .LVU91
 377 0002 90F83230 		ldrb	r3, [r0, #50]	@ zero_extendqisi2
 378 0006 DBB2     		uxtb	r3, r3
 379              		.loc 1 490 23 discriminator 1 view .LVU92
 380 0008 052B     		cmp	r3, #5
 381 000a 12D0     		beq	.L33
 491:Drivers/STM32F3xx_HAL_Driver/Src/stm32f3xx_hal_opamp.c ****                       
 492:Drivers/STM32F3xx_HAL_Driver/Src/stm32f3xx_hal_opamp.c ****   {
 493:Drivers/STM32F3xx_HAL_Driver/Src/stm32f3xx_hal_opamp.c ****     status = HAL_ERROR;
 494:Drivers/STM32F3xx_HAL_Driver/Src/stm32f3xx_hal_opamp.c ****   }
 495:Drivers/STM32F3xx_HAL_Driver/Src/stm32f3xx_hal_opamp.c ****   else
 496:Drivers/STM32F3xx_HAL_Driver/Src/stm32f3xx_hal_opamp.c ****   {
 497:Drivers/STM32F3xx_HAL_Driver/Src/stm32f3xx_hal_opamp.c ****     /* Check the parameter */
 498:Drivers/STM32F3xx_HAL_Driver/Src/stm32f3xx_hal_opamp.c ****     assert_param(IS_OPAMP_ALL_INSTANCE(hopamp->Instance));
 382              		.loc 1 498 5 is_stmt 1 view .LVU93
 499:Drivers/STM32F3xx_HAL_Driver/Src/stm32f3xx_hal_opamp.c ****     
 500:Drivers/STM32F3xx_HAL_Driver/Src/stm32f3xx_hal_opamp.c ****     if(hopamp->State == HAL_OPAMP_STATE_READY)
 383              		.loc 1 500 5 view .LVU94
 384              		.loc 1 500 14 is_stmt 0 view .LVU95
 385 000c 90F83230 		ldrb	r3, [r0, #50]	@ zero_extendqisi2
 386 0010 DBB2     		uxtb	r3, r3
 387              		.loc 1 500 7 view .LVU96
 388 0012 012B     		cmp	r3, #1
 389 0014 01D0     		beq	.L35
 501:Drivers/STM32F3xx_HAL_Driver/Src/stm32f3xx_hal_opamp.c ****     {
 502:Drivers/STM32F3xx_HAL_Driver/Src/stm32f3xx_hal_opamp.c ****       /* Enable the selected opamp */
 503:Drivers/STM32F3xx_HAL_Driver/Src/stm32f3xx_hal_opamp.c ****       SET_BIT (hopamp->Instance->CSR, OPAMP_CSR_OPAMPxEN);
 504:Drivers/STM32F3xx_HAL_Driver/Src/stm32f3xx_hal_opamp.c **** 
 505:Drivers/STM32F3xx_HAL_Driver/Src/stm32f3xx_hal_opamp.c ****       /* Update the OPAMP state*/     
 506:Drivers/STM32F3xx_HAL_Driver/Src/stm32f3xx_hal_opamp.c ****       /* From HAL_OPAMP_STATE_READY to HAL_OPAMP_STATE_BUSY */
 507:Drivers/STM32F3xx_HAL_Driver/Src/stm32f3xx_hal_opamp.c ****       hopamp->State = HAL_OPAMP_STATE_BUSY;   
 508:Drivers/STM32F3xx_HAL_Driver/Src/stm32f3xx_hal_opamp.c ****     }
ARM GAS  /var/folders/md/lgcc8l7571l9vt9sx0g0zflw0000gn/T//ccmnh1CJ.s 			page 18


 509:Drivers/STM32F3xx_HAL_Driver/Src/stm32f3xx_hal_opamp.c ****     else
 510:Drivers/STM32F3xx_HAL_Driver/Src/stm32f3xx_hal_opamp.c ****     {
 511:Drivers/STM32F3xx_HAL_Driver/Src/stm32f3xx_hal_opamp.c ****       status = HAL_ERROR;
 390              		.loc 1 511 14 view .LVU97
 391 0016 0120     		movs	r0, #1
 392              	.LVL20:
 512:Drivers/STM32F3xx_HAL_Driver/Src/stm32f3xx_hal_opamp.c ****     }
 513:Drivers/STM32F3xx_HAL_Driver/Src/stm32f3xx_hal_opamp.c ****     
 514:Drivers/STM32F3xx_HAL_Driver/Src/stm32f3xx_hal_opamp.c ****     
 515:Drivers/STM32F3xx_HAL_Driver/Src/stm32f3xx_hal_opamp.c ****    }
 516:Drivers/STM32F3xx_HAL_Driver/Src/stm32f3xx_hal_opamp.c ****   return status;
 393              		.loc 1 516 3 is_stmt 1 view .LVU98
 517:Drivers/STM32F3xx_HAL_Driver/Src/stm32f3xx_hal_opamp.c **** }
 394              		.loc 1 517 1 is_stmt 0 view .LVU99
 395 0018 7047     		bx	lr
 396              	.LVL21:
 397              	.L35:
 503:Drivers/STM32F3xx_HAL_Driver/Src/stm32f3xx_hal_opamp.c **** 
 398              		.loc 1 503 7 is_stmt 1 view .LVU100
 399 001a 0168     		ldr	r1, [r0]
 400 001c 0B68     		ldr	r3, [r1]
 401 001e 43F00103 		orr	r3, r3, #1
 402 0022 0B60     		str	r3, [r1]
 507:Drivers/STM32F3xx_HAL_Driver/Src/stm32f3xx_hal_opamp.c ****     }
 403              		.loc 1 507 7 view .LVU101
 507:Drivers/STM32F3xx_HAL_Driver/Src/stm32f3xx_hal_opamp.c ****     }
 404              		.loc 1 507 21 is_stmt 0 view .LVU102
 405 0024 0423     		movs	r3, #4
 406 0026 80F83230 		strb	r3, [r0, #50]
 486:Drivers/STM32F3xx_HAL_Driver/Src/stm32f3xx_hal_opamp.c ****   
 407              		.loc 1 486 21 view .LVU103
 408 002a 0020     		movs	r0, #0
 409              	.LVL22:
 486:Drivers/STM32F3xx_HAL_Driver/Src/stm32f3xx_hal_opamp.c ****   
 410              		.loc 1 486 21 view .LVU104
 411 002c 7047     		bx	lr
 412              	.LVL23:
 413              	.L32:
 493:Drivers/STM32F3xx_HAL_Driver/Src/stm32f3xx_hal_opamp.c ****   }
 414              		.loc 1 493 12 view .LVU105
 415 002e 0120     		movs	r0, #1
 416              	.LVL24:
 493:Drivers/STM32F3xx_HAL_Driver/Src/stm32f3xx_hal_opamp.c ****   }
 417              		.loc 1 493 12 view .LVU106
 418 0030 7047     		bx	lr
 419              	.LVL25:
 420              	.L33:
 493:Drivers/STM32F3xx_HAL_Driver/Src/stm32f3xx_hal_opamp.c ****   }
 421              		.loc 1 493 12 view .LVU107
 422 0032 0120     		movs	r0, #1
 423              	.LVL26:
 493:Drivers/STM32F3xx_HAL_Driver/Src/stm32f3xx_hal_opamp.c ****   }
 424              		.loc 1 493 12 view .LVU108
 425 0034 7047     		bx	lr
 426              		.cfi_endproc
 427              	.LFE130:
 429              		.section	.text.HAL_OPAMP_Stop,"ax",%progbits
ARM GAS  /var/folders/md/lgcc8l7571l9vt9sx0g0zflw0000gn/T//ccmnh1CJ.s 			page 19


 430              		.align	1
 431              		.global	HAL_OPAMP_Stop
 432              		.syntax unified
 433              		.thumb
 434              		.thumb_func
 435              		.fpu fpv4-sp-d16
 437              	HAL_OPAMP_Stop:
 438              	.LVL27:
 439              	.LFB131:
 518:Drivers/STM32F3xx_HAL_Driver/Src/stm32f3xx_hal_opamp.c **** 
 519:Drivers/STM32F3xx_HAL_Driver/Src/stm32f3xx_hal_opamp.c **** /**
 520:Drivers/STM32F3xx_HAL_Driver/Src/stm32f3xx_hal_opamp.c ****   * @brief  Stop the opamp 
 521:Drivers/STM32F3xx_HAL_Driver/Src/stm32f3xx_hal_opamp.c ****   * @param  hopamp OPAMP handle
 522:Drivers/STM32F3xx_HAL_Driver/Src/stm32f3xx_hal_opamp.c ****   * @retval HAL status
 523:Drivers/STM32F3xx_HAL_Driver/Src/stm32f3xx_hal_opamp.c ****   */
 524:Drivers/STM32F3xx_HAL_Driver/Src/stm32f3xx_hal_opamp.c **** HAL_StatusTypeDef HAL_OPAMP_Stop(OPAMP_HandleTypeDef *hopamp)
 525:Drivers/STM32F3xx_HAL_Driver/Src/stm32f3xx_hal_opamp.c **** { 
 440              		.loc 1 525 1 is_stmt 1 view -0
 441              		.cfi_startproc
 442              		@ args = 0, pretend = 0, frame = 0
 443              		@ frame_needed = 0, uses_anonymous_args = 0
 444              		@ link register save eliminated.
 526:Drivers/STM32F3xx_HAL_Driver/Src/stm32f3xx_hal_opamp.c ****   HAL_StatusTypeDef status = HAL_OK;
 445              		.loc 1 526 3 view .LVU110
 527:Drivers/STM32F3xx_HAL_Driver/Src/stm32f3xx_hal_opamp.c ****     
 528:Drivers/STM32F3xx_HAL_Driver/Src/stm32f3xx_hal_opamp.c ****   /* Check the OPAMP handle allocation */
 529:Drivers/STM32F3xx_HAL_Driver/Src/stm32f3xx_hal_opamp.c ****   /* Check if OPAMP locked */
 530:Drivers/STM32F3xx_HAL_Driver/Src/stm32f3xx_hal_opamp.c ****   /* Check if OPAMP calibration ongoing */
 531:Drivers/STM32F3xx_HAL_Driver/Src/stm32f3xx_hal_opamp.c ****   if((hopamp == NULL) || (hopamp->State == HAL_OPAMP_STATE_BUSYLOCKED) \
 446              		.loc 1 531 3 view .LVU111
 447              		.loc 1 531 5 is_stmt 0 view .LVU112
 448 0000 D0B1     		cbz	r0, .L38
 449              		.loc 1 531 33 discriminator 1 view .LVU113
 450 0002 90F83230 		ldrb	r3, [r0, #50]	@ zero_extendqisi2
 451 0006 DBB2     		uxtb	r3, r3
 452              		.loc 1 531 23 discriminator 1 view .LVU114
 453 0008 052B     		cmp	r3, #5
 454 000a 17D0     		beq	.L39
 532:Drivers/STM32F3xx_HAL_Driver/Src/stm32f3xx_hal_opamp.c ****                       || (hopamp->State == HAL_OPAMP_STATE_CALIBBUSY))  
 455              		.loc 1 532 33 view .LVU115
 456 000c 90F83230 		ldrb	r3, [r0, #50]	@ zero_extendqisi2
 457 0010 DBB2     		uxtb	r3, r3
 458              		.loc 1 532 23 view .LVU116
 459 0012 022B     		cmp	r3, #2
 460 0014 14D0     		beq	.L40
 533:Drivers/STM32F3xx_HAL_Driver/Src/stm32f3xx_hal_opamp.c ****   {
 534:Drivers/STM32F3xx_HAL_Driver/Src/stm32f3xx_hal_opamp.c ****     status = HAL_ERROR;
 535:Drivers/STM32F3xx_HAL_Driver/Src/stm32f3xx_hal_opamp.c ****   }
 536:Drivers/STM32F3xx_HAL_Driver/Src/stm32f3xx_hal_opamp.c ****   else
 537:Drivers/STM32F3xx_HAL_Driver/Src/stm32f3xx_hal_opamp.c ****   {
 538:Drivers/STM32F3xx_HAL_Driver/Src/stm32f3xx_hal_opamp.c ****     /* Check the parameter */
 539:Drivers/STM32F3xx_HAL_Driver/Src/stm32f3xx_hal_opamp.c ****     assert_param(IS_OPAMP_ALL_INSTANCE(hopamp->Instance));
 461              		.loc 1 539 5 is_stmt 1 view .LVU117
 540:Drivers/STM32F3xx_HAL_Driver/Src/stm32f3xx_hal_opamp.c **** 
 541:Drivers/STM32F3xx_HAL_Driver/Src/stm32f3xx_hal_opamp.c ****     if(hopamp->State == HAL_OPAMP_STATE_BUSY)
 462              		.loc 1 541 5 view .LVU118
 463              		.loc 1 541 14 is_stmt 0 view .LVU119
ARM GAS  /var/folders/md/lgcc8l7571l9vt9sx0g0zflw0000gn/T//ccmnh1CJ.s 			page 20


 464 0016 90F83230 		ldrb	r3, [r0, #50]	@ zero_extendqisi2
 465 001a DBB2     		uxtb	r3, r3
 466              		.loc 1 541 7 view .LVU120
 467 001c 042B     		cmp	r3, #4
 468 001e 01D0     		beq	.L42
 542:Drivers/STM32F3xx_HAL_Driver/Src/stm32f3xx_hal_opamp.c ****     {
 543:Drivers/STM32F3xx_HAL_Driver/Src/stm32f3xx_hal_opamp.c ****       /* Disable the selected opamp */
 544:Drivers/STM32F3xx_HAL_Driver/Src/stm32f3xx_hal_opamp.c ****       CLEAR_BIT (hopamp->Instance->CSR, OPAMP_CSR_OPAMPxEN); 
 545:Drivers/STM32F3xx_HAL_Driver/Src/stm32f3xx_hal_opamp.c ****     
 546:Drivers/STM32F3xx_HAL_Driver/Src/stm32f3xx_hal_opamp.c ****       /* Update the OPAMP state*/     
 547:Drivers/STM32F3xx_HAL_Driver/Src/stm32f3xx_hal_opamp.c ****       /* From  HAL_OPAMP_STATE_BUSY to HAL_OPAMP_STATE_READY*/
 548:Drivers/STM32F3xx_HAL_Driver/Src/stm32f3xx_hal_opamp.c ****       hopamp->State = HAL_OPAMP_STATE_READY;
 549:Drivers/STM32F3xx_HAL_Driver/Src/stm32f3xx_hal_opamp.c ****     }
 550:Drivers/STM32F3xx_HAL_Driver/Src/stm32f3xx_hal_opamp.c ****     else
 551:Drivers/STM32F3xx_HAL_Driver/Src/stm32f3xx_hal_opamp.c ****     {
 552:Drivers/STM32F3xx_HAL_Driver/Src/stm32f3xx_hal_opamp.c ****       status = HAL_ERROR;
 469              		.loc 1 552 14 view .LVU121
 470 0020 0120     		movs	r0, #1
 471              	.LVL28:
 553:Drivers/STM32F3xx_HAL_Driver/Src/stm32f3xx_hal_opamp.c ****     }
 554:Drivers/STM32F3xx_HAL_Driver/Src/stm32f3xx_hal_opamp.c ****   }
 555:Drivers/STM32F3xx_HAL_Driver/Src/stm32f3xx_hal_opamp.c ****   return status;
 472              		.loc 1 555 3 is_stmt 1 view .LVU122
 556:Drivers/STM32F3xx_HAL_Driver/Src/stm32f3xx_hal_opamp.c **** }
 473              		.loc 1 556 1 is_stmt 0 view .LVU123
 474 0022 7047     		bx	lr
 475              	.LVL29:
 476              	.L42:
 544:Drivers/STM32F3xx_HAL_Driver/Src/stm32f3xx_hal_opamp.c ****     
 477              		.loc 1 544 7 is_stmt 1 view .LVU124
 478 0024 0168     		ldr	r1, [r0]
 479 0026 0B68     		ldr	r3, [r1]
 480 0028 23F00103 		bic	r3, r3, #1
 481 002c 0B60     		str	r3, [r1]
 548:Drivers/STM32F3xx_HAL_Driver/Src/stm32f3xx_hal_opamp.c ****     }
 482              		.loc 1 548 7 view .LVU125
 548:Drivers/STM32F3xx_HAL_Driver/Src/stm32f3xx_hal_opamp.c ****     }
 483              		.loc 1 548 21 is_stmt 0 view .LVU126
 484 002e 0123     		movs	r3, #1
 485 0030 80F83230 		strb	r3, [r0, #50]
 526:Drivers/STM32F3xx_HAL_Driver/Src/stm32f3xx_hal_opamp.c ****     
 486              		.loc 1 526 21 view .LVU127
 487 0034 0020     		movs	r0, #0
 488              	.LVL30:
 526:Drivers/STM32F3xx_HAL_Driver/Src/stm32f3xx_hal_opamp.c ****     
 489              		.loc 1 526 21 view .LVU128
 490 0036 7047     		bx	lr
 491              	.LVL31:
 492              	.L38:
 534:Drivers/STM32F3xx_HAL_Driver/Src/stm32f3xx_hal_opamp.c ****   }
 493              		.loc 1 534 12 view .LVU129
 494 0038 0120     		movs	r0, #1
 495              	.LVL32:
 534:Drivers/STM32F3xx_HAL_Driver/Src/stm32f3xx_hal_opamp.c ****   }
 496              		.loc 1 534 12 view .LVU130
 497 003a 7047     		bx	lr
 498              	.LVL33:
ARM GAS  /var/folders/md/lgcc8l7571l9vt9sx0g0zflw0000gn/T//ccmnh1CJ.s 			page 21


 499              	.L39:
 534:Drivers/STM32F3xx_HAL_Driver/Src/stm32f3xx_hal_opamp.c ****   }
 500              		.loc 1 534 12 view .LVU131
 501 003c 0120     		movs	r0, #1
 502              	.LVL34:
 534:Drivers/STM32F3xx_HAL_Driver/Src/stm32f3xx_hal_opamp.c ****   }
 503              		.loc 1 534 12 view .LVU132
 504 003e 7047     		bx	lr
 505              	.LVL35:
 506              	.L40:
 534:Drivers/STM32F3xx_HAL_Driver/Src/stm32f3xx_hal_opamp.c ****   }
 507              		.loc 1 534 12 view .LVU133
 508 0040 0120     		movs	r0, #1
 509              	.LVL36:
 534:Drivers/STM32F3xx_HAL_Driver/Src/stm32f3xx_hal_opamp.c ****   }
 510              		.loc 1 534 12 view .LVU134
 511 0042 7047     		bx	lr
 512              		.cfi_endproc
 513              	.LFE131:
 515              		.section	.text.HAL_OPAMP_SelfCalibrate,"ax",%progbits
 516              		.align	1
 517              		.global	HAL_OPAMP_SelfCalibrate
 518              		.syntax unified
 519              		.thumb
 520              		.thumb_func
 521              		.fpu fpv4-sp-d16
 523              	HAL_OPAMP_SelfCalibrate:
 524              	.LVL37:
 525              	.LFB132:
 557:Drivers/STM32F3xx_HAL_Driver/Src/stm32f3xx_hal_opamp.c **** 
 558:Drivers/STM32F3xx_HAL_Driver/Src/stm32f3xx_hal_opamp.c **** /**
 559:Drivers/STM32F3xx_HAL_Driver/Src/stm32f3xx_hal_opamp.c ****   * @brief  Run the self calibration of one OPAMP
 560:Drivers/STM32F3xx_HAL_Driver/Src/stm32f3xx_hal_opamp.c ****   * @param  hopamp handle
 561:Drivers/STM32F3xx_HAL_Driver/Src/stm32f3xx_hal_opamp.c ****   * @retval Updated offset trimming values (PMOS & NMOS), user trimming is enabled
 562:Drivers/STM32F3xx_HAL_Driver/Src/stm32f3xx_hal_opamp.c ****   * @retval HAL status
 563:Drivers/STM32F3xx_HAL_Driver/Src/stm32f3xx_hal_opamp.c ****   * @note   Calibration runs about 25 ms.
 564:Drivers/STM32F3xx_HAL_Driver/Src/stm32f3xx_hal_opamp.c ****   */
 565:Drivers/STM32F3xx_HAL_Driver/Src/stm32f3xx_hal_opamp.c **** 
 566:Drivers/STM32F3xx_HAL_Driver/Src/stm32f3xx_hal_opamp.c **** HAL_StatusTypeDef HAL_OPAMP_SelfCalibrate(OPAMP_HandleTypeDef *hopamp)
 567:Drivers/STM32F3xx_HAL_Driver/Src/stm32f3xx_hal_opamp.c **** { 
 526              		.loc 1 567 1 is_stmt 1 view -0
 527              		.cfi_startproc
 528              		@ args = 0, pretend = 0, frame = 0
 529              		@ frame_needed = 0, uses_anonymous_args = 0
 568:Drivers/STM32F3xx_HAL_Driver/Src/stm32f3xx_hal_opamp.c **** 
 569:Drivers/STM32F3xx_HAL_Driver/Src/stm32f3xx_hal_opamp.c ****   HAL_StatusTypeDef status = HAL_OK;
 530              		.loc 1 569 3 view .LVU136
 570:Drivers/STM32F3xx_HAL_Driver/Src/stm32f3xx_hal_opamp.c ****   
 571:Drivers/STM32F3xx_HAL_Driver/Src/stm32f3xx_hal_opamp.c ****   uint32_t trimmingvaluen = 0U;
 531              		.loc 1 571 3 view .LVU137
 572:Drivers/STM32F3xx_HAL_Driver/Src/stm32f3xx_hal_opamp.c ****   uint32_t trimmingvaluep = 0U;
 532              		.loc 1 572 3 view .LVU138
 573:Drivers/STM32F3xx_HAL_Driver/Src/stm32f3xx_hal_opamp.c ****   uint32_t delta;
 533              		.loc 1 573 3 view .LVU139
 574:Drivers/STM32F3xx_HAL_Driver/Src/stm32f3xx_hal_opamp.c ****   
 575:Drivers/STM32F3xx_HAL_Driver/Src/stm32f3xx_hal_opamp.c ****   /* Check the OPAMP handle allocation */
 576:Drivers/STM32F3xx_HAL_Driver/Src/stm32f3xx_hal_opamp.c ****   /* Check if OPAMP locked */
ARM GAS  /var/folders/md/lgcc8l7571l9vt9sx0g0zflw0000gn/T//ccmnh1CJ.s 			page 22


 577:Drivers/STM32F3xx_HAL_Driver/Src/stm32f3xx_hal_opamp.c ****   if((hopamp == NULL) || (hopamp->State == HAL_OPAMP_STATE_BUSYLOCKED))
 534              		.loc 1 577 3 view .LVU140
 535              		.loc 1 577 5 is_stmt 0 view .LVU141
 536 0000 0028     		cmp	r0, #0
 537 0002 00F0AD80 		beq	.L55
 567:Drivers/STM32F3xx_HAL_Driver/Src/stm32f3xx_hal_opamp.c **** 
 538              		.loc 1 567 1 discriminator 1 view .LVU142
 539 0006 F8B5     		push	{r3, r4, r5, r6, r7, lr}
 540              	.LCFI7:
 541              		.cfi_def_cfa_offset 24
 542              		.cfi_offset 3, -24
 543              		.cfi_offset 4, -20
 544              		.cfi_offset 5, -16
 545              		.cfi_offset 6, -12
 546              		.cfi_offset 7, -8
 547              		.cfi_offset 14, -4
 548 0008 0446     		mov	r4, r0
 549              		.loc 1 577 33 discriminator 1 view .LVU143
 550 000a 90F83230 		ldrb	r3, [r0, #50]	@ zero_extendqisi2
 551 000e DBB2     		uxtb	r3, r3
 552              		.loc 1 577 23 discriminator 1 view .LVU144
 553 0010 052B     		cmp	r3, #5
 554 0012 00F0A780 		beq	.L56
 578:Drivers/STM32F3xx_HAL_Driver/Src/stm32f3xx_hal_opamp.c ****   {
 579:Drivers/STM32F3xx_HAL_Driver/Src/stm32f3xx_hal_opamp.c ****     status = HAL_ERROR;
 580:Drivers/STM32F3xx_HAL_Driver/Src/stm32f3xx_hal_opamp.c ****   }
 581:Drivers/STM32F3xx_HAL_Driver/Src/stm32f3xx_hal_opamp.c ****   else
 582:Drivers/STM32F3xx_HAL_Driver/Src/stm32f3xx_hal_opamp.c ****   {
 583:Drivers/STM32F3xx_HAL_Driver/Src/stm32f3xx_hal_opamp.c ****   
 584:Drivers/STM32F3xx_HAL_Driver/Src/stm32f3xx_hal_opamp.c ****     /* Check if OPAMP in calibration mode and calibration not yet enable */
 585:Drivers/STM32F3xx_HAL_Driver/Src/stm32f3xx_hal_opamp.c ****     if(hopamp->State ==  HAL_OPAMP_STATE_READY)
 555              		.loc 1 585 5 is_stmt 1 view .LVU145
 556              		.loc 1 585 14 is_stmt 0 view .LVU146
 557 0016 90F83230 		ldrb	r3, [r0, #50]	@ zero_extendqisi2
 558 001a DBB2     		uxtb	r3, r3
 559              		.loc 1 585 7 view .LVU147
 560 001c 012B     		cmp	r3, #1
 561 001e 01D0     		beq	.L62
 586:Drivers/STM32F3xx_HAL_Driver/Src/stm32f3xx_hal_opamp.c ****     {
 587:Drivers/STM32F3xx_HAL_Driver/Src/stm32f3xx_hal_opamp.c ****       /* Check the parameter */
 588:Drivers/STM32F3xx_HAL_Driver/Src/stm32f3xx_hal_opamp.c ****       assert_param(IS_OPAMP_ALL_INSTANCE(hopamp->Instance));
 589:Drivers/STM32F3xx_HAL_Driver/Src/stm32f3xx_hal_opamp.c **** 
 590:Drivers/STM32F3xx_HAL_Driver/Src/stm32f3xx_hal_opamp.c ****       /* Set Calibration mode */
 591:Drivers/STM32F3xx_HAL_Driver/Src/stm32f3xx_hal_opamp.c ****       /* Non-inverting input connected to calibration reference voltage. */
 592:Drivers/STM32F3xx_HAL_Driver/Src/stm32f3xx_hal_opamp.c ****       SET_BIT(hopamp->Instance->CSR, OPAMP_CSR_FORCEVP);
 593:Drivers/STM32F3xx_HAL_Driver/Src/stm32f3xx_hal_opamp.c **** 
 594:Drivers/STM32F3xx_HAL_Driver/Src/stm32f3xx_hal_opamp.c ****       /*  user trimming values are used for offset calibration */
 595:Drivers/STM32F3xx_HAL_Driver/Src/stm32f3xx_hal_opamp.c ****       SET_BIT(hopamp->Instance->CSR, OPAMP_CSR_USERTRIM);
 596:Drivers/STM32F3xx_HAL_Driver/Src/stm32f3xx_hal_opamp.c ****       
 597:Drivers/STM32F3xx_HAL_Driver/Src/stm32f3xx_hal_opamp.c ****       /* Enable calibration */
 598:Drivers/STM32F3xx_HAL_Driver/Src/stm32f3xx_hal_opamp.c ****       SET_BIT (hopamp->Instance->CSR, OPAMP_CSR_CALON);
 599:Drivers/STM32F3xx_HAL_Driver/Src/stm32f3xx_hal_opamp.c ****   
 600:Drivers/STM32F3xx_HAL_Driver/Src/stm32f3xx_hal_opamp.c ****       /* 1st calibration - N */
 601:Drivers/STM32F3xx_HAL_Driver/Src/stm32f3xx_hal_opamp.c ****       /* Select 90U% VREF */
 602:Drivers/STM32F3xx_HAL_Driver/Src/stm32f3xx_hal_opamp.c ****       MODIFY_REG(hopamp->Instance->CSR, OPAMP_CSR_CALSEL, OPAMP_VREF_90VDDA);
 603:Drivers/STM32F3xx_HAL_Driver/Src/stm32f3xx_hal_opamp.c ****       
 604:Drivers/STM32F3xx_HAL_Driver/Src/stm32f3xx_hal_opamp.c ****       /* Enable the selected opamp */
ARM GAS  /var/folders/md/lgcc8l7571l9vt9sx0g0zflw0000gn/T//ccmnh1CJ.s 			page 23


 605:Drivers/STM32F3xx_HAL_Driver/Src/stm32f3xx_hal_opamp.c ****       SET_BIT (hopamp->Instance->CSR, OPAMP_CSR_OPAMPxEN);
 606:Drivers/STM32F3xx_HAL_Driver/Src/stm32f3xx_hal_opamp.c ****       
 607:Drivers/STM32F3xx_HAL_Driver/Src/stm32f3xx_hal_opamp.c ****       /* Init trimming counter */    
 608:Drivers/STM32F3xx_HAL_Driver/Src/stm32f3xx_hal_opamp.c ****       /* Medium value */
 609:Drivers/STM32F3xx_HAL_Driver/Src/stm32f3xx_hal_opamp.c ****       trimmingvaluen = 16U; 
 610:Drivers/STM32F3xx_HAL_Driver/Src/stm32f3xx_hal_opamp.c ****       delta = 8U;
 611:Drivers/STM32F3xx_HAL_Driver/Src/stm32f3xx_hal_opamp.c ****       
 612:Drivers/STM32F3xx_HAL_Driver/Src/stm32f3xx_hal_opamp.c ****       while (delta != 0U)
 613:Drivers/STM32F3xx_HAL_Driver/Src/stm32f3xx_hal_opamp.c ****       {
 614:Drivers/STM32F3xx_HAL_Driver/Src/stm32f3xx_hal_opamp.c ****         /* Set candidate trimming */
 615:Drivers/STM32F3xx_HAL_Driver/Src/stm32f3xx_hal_opamp.c ****         MODIFY_REG(hopamp->Instance->CSR, OPAMP_CSR_TRIMOFFSETN, trimmingvaluen<<OPAMP_INPUT_INVERT
 616:Drivers/STM32F3xx_HAL_Driver/Src/stm32f3xx_hal_opamp.c ****               
 617:Drivers/STM32F3xx_HAL_Driver/Src/stm32f3xx_hal_opamp.c ****         /* OFFTRIMmax delay 2 ms as per datasheet (electrical characteristics */ 
 618:Drivers/STM32F3xx_HAL_Driver/Src/stm32f3xx_hal_opamp.c ****         /* Offset trim time: during calibration, minimum time needed between */
 619:Drivers/STM32F3xx_HAL_Driver/Src/stm32f3xx_hal_opamp.c ****         /* two steps to have 1 mV accuracy */
 620:Drivers/STM32F3xx_HAL_Driver/Src/stm32f3xx_hal_opamp.c ****         HAL_Delay(2U);
 621:Drivers/STM32F3xx_HAL_Driver/Src/stm32f3xx_hal_opamp.c **** 
 622:Drivers/STM32F3xx_HAL_Driver/Src/stm32f3xx_hal_opamp.c ****         if ((hopamp->Instance->CSR & OPAMP_CSR_OUTCAL) != RESET)
 623:Drivers/STM32F3xx_HAL_Driver/Src/stm32f3xx_hal_opamp.c ****         { 
 624:Drivers/STM32F3xx_HAL_Driver/Src/stm32f3xx_hal_opamp.c ****           /* OPAMP_CSR_OUTCAL is HIGH try higher trimming */
 625:Drivers/STM32F3xx_HAL_Driver/Src/stm32f3xx_hal_opamp.c ****           trimmingvaluen += delta;
 626:Drivers/STM32F3xx_HAL_Driver/Src/stm32f3xx_hal_opamp.c ****         }
 627:Drivers/STM32F3xx_HAL_Driver/Src/stm32f3xx_hal_opamp.c ****         else
 628:Drivers/STM32F3xx_HAL_Driver/Src/stm32f3xx_hal_opamp.c ****         {
 629:Drivers/STM32F3xx_HAL_Driver/Src/stm32f3xx_hal_opamp.c ****           /* OPAMP_CSR_OUTCAL is LOW try lower trimming */
 630:Drivers/STM32F3xx_HAL_Driver/Src/stm32f3xx_hal_opamp.c ****           trimmingvaluen -= delta;
 631:Drivers/STM32F3xx_HAL_Driver/Src/stm32f3xx_hal_opamp.c ****         }
 632:Drivers/STM32F3xx_HAL_Driver/Src/stm32f3xx_hal_opamp.c ****                       
 633:Drivers/STM32F3xx_HAL_Driver/Src/stm32f3xx_hal_opamp.c ****         delta >>= 1U;
 634:Drivers/STM32F3xx_HAL_Driver/Src/stm32f3xx_hal_opamp.c ****       }
 635:Drivers/STM32F3xx_HAL_Driver/Src/stm32f3xx_hal_opamp.c **** 
 636:Drivers/STM32F3xx_HAL_Driver/Src/stm32f3xx_hal_opamp.c ****       /* Still need to check if righ calibration is current value or un step below */
 637:Drivers/STM32F3xx_HAL_Driver/Src/stm32f3xx_hal_opamp.c ****       /* Indeed the first value that causes the OUTCAL bit to change from 1 to 0  */
 638:Drivers/STM32F3xx_HAL_Driver/Src/stm32f3xx_hal_opamp.c ****       MODIFY_REG(hopamp->Instance->CSR, OPAMP_CSR_TRIMOFFSETN, trimmingvaluen<<OPAMP_INPUT_INVERTIN
 639:Drivers/STM32F3xx_HAL_Driver/Src/stm32f3xx_hal_opamp.c ****       
 640:Drivers/STM32F3xx_HAL_Driver/Src/stm32f3xx_hal_opamp.c ****        /* OFFTRIMmax delay 2 ms as per datasheet (electrical characteristics */ 
 641:Drivers/STM32F3xx_HAL_Driver/Src/stm32f3xx_hal_opamp.c ****        /* Offset trim time: during calibration, minimum time needed between */
 642:Drivers/STM32F3xx_HAL_Driver/Src/stm32f3xx_hal_opamp.c ****        /* two steps to have 1 mV accuracy */
 643:Drivers/STM32F3xx_HAL_Driver/Src/stm32f3xx_hal_opamp.c ****        HAL_Delay(2U);
 644:Drivers/STM32F3xx_HAL_Driver/Src/stm32f3xx_hal_opamp.c ****       
 645:Drivers/STM32F3xx_HAL_Driver/Src/stm32f3xx_hal_opamp.c ****       if ((hopamp->Instance->CSR & OPAMP_CSR_OUTCAL) != RESET) 
 646:Drivers/STM32F3xx_HAL_Driver/Src/stm32f3xx_hal_opamp.c ****       { 
 647:Drivers/STM32F3xx_HAL_Driver/Src/stm32f3xx_hal_opamp.c ****         /* OPAMP_CSR_OUTCAL is actually one value more */
 648:Drivers/STM32F3xx_HAL_Driver/Src/stm32f3xx_hal_opamp.c ****         trimmingvaluen++;
 649:Drivers/STM32F3xx_HAL_Driver/Src/stm32f3xx_hal_opamp.c ****         /* Set right trimming */
 650:Drivers/STM32F3xx_HAL_Driver/Src/stm32f3xx_hal_opamp.c ****         MODIFY_REG(hopamp->Instance->CSR, OPAMP_CSR_TRIMOFFSETN, trimmingvaluen<<OPAMP_INPUT_INVERT
 651:Drivers/STM32F3xx_HAL_Driver/Src/stm32f3xx_hal_opamp.c ****       }
 652:Drivers/STM32F3xx_HAL_Driver/Src/stm32f3xx_hal_opamp.c ****        
 653:Drivers/STM32F3xx_HAL_Driver/Src/stm32f3xx_hal_opamp.c ****       /* 2nd calibration - P */
 654:Drivers/STM32F3xx_HAL_Driver/Src/stm32f3xx_hal_opamp.c ****       /* Select 10U% VREF */
 655:Drivers/STM32F3xx_HAL_Driver/Src/stm32f3xx_hal_opamp.c ****       MODIFY_REG(hopamp->Instance->CSR, OPAMP_CSR_CALSEL, OPAMP_VREF_10VDDA);
 656:Drivers/STM32F3xx_HAL_Driver/Src/stm32f3xx_hal_opamp.c ****       
 657:Drivers/STM32F3xx_HAL_Driver/Src/stm32f3xx_hal_opamp.c ****       /* Init trimming counter */    
 658:Drivers/STM32F3xx_HAL_Driver/Src/stm32f3xx_hal_opamp.c ****       /* Medium value */
 659:Drivers/STM32F3xx_HAL_Driver/Src/stm32f3xx_hal_opamp.c ****       trimmingvaluep = 16U; 
 660:Drivers/STM32F3xx_HAL_Driver/Src/stm32f3xx_hal_opamp.c ****       delta = 8U;
 661:Drivers/STM32F3xx_HAL_Driver/Src/stm32f3xx_hal_opamp.c ****       
ARM GAS  /var/folders/md/lgcc8l7571l9vt9sx0g0zflw0000gn/T//ccmnh1CJ.s 			page 24


 662:Drivers/STM32F3xx_HAL_Driver/Src/stm32f3xx_hal_opamp.c ****       while (delta != 0U)
 663:Drivers/STM32F3xx_HAL_Driver/Src/stm32f3xx_hal_opamp.c ****       {
 664:Drivers/STM32F3xx_HAL_Driver/Src/stm32f3xx_hal_opamp.c ****         /* Set candidate trimming */
 665:Drivers/STM32F3xx_HAL_Driver/Src/stm32f3xx_hal_opamp.c ****         MODIFY_REG(hopamp->Instance->CSR, OPAMP_CSR_TRIMOFFSETP, trimmingvaluep<<OPAMP_INPUT_NONINV
 666:Drivers/STM32F3xx_HAL_Driver/Src/stm32f3xx_hal_opamp.c ****                
 667:Drivers/STM32F3xx_HAL_Driver/Src/stm32f3xx_hal_opamp.c ****         /* OFFTRIMmax delay 2 ms as per datasheet (electrical characteristics */ 
 668:Drivers/STM32F3xx_HAL_Driver/Src/stm32f3xx_hal_opamp.c ****         /* Offset trim time: during calibration, minimum time needed between */
 669:Drivers/STM32F3xx_HAL_Driver/Src/stm32f3xx_hal_opamp.c ****         /* two steps to have 1 mV accuracy */
 670:Drivers/STM32F3xx_HAL_Driver/Src/stm32f3xx_hal_opamp.c ****         HAL_Delay(2U);
 671:Drivers/STM32F3xx_HAL_Driver/Src/stm32f3xx_hal_opamp.c **** 
 672:Drivers/STM32F3xx_HAL_Driver/Src/stm32f3xx_hal_opamp.c ****         if ((hopamp->Instance->CSR & OPAMP_CSR_OUTCAL) != RESET) 
 673:Drivers/STM32F3xx_HAL_Driver/Src/stm32f3xx_hal_opamp.c ****         { 
 674:Drivers/STM32F3xx_HAL_Driver/Src/stm32f3xx_hal_opamp.c ****           /* OPAMP_CSR_OUTCAL is HIGH try higher trimming */
 675:Drivers/STM32F3xx_HAL_Driver/Src/stm32f3xx_hal_opamp.c ****           trimmingvaluep += delta;
 676:Drivers/STM32F3xx_HAL_Driver/Src/stm32f3xx_hal_opamp.c ****         }
 677:Drivers/STM32F3xx_HAL_Driver/Src/stm32f3xx_hal_opamp.c ****         else
 678:Drivers/STM32F3xx_HAL_Driver/Src/stm32f3xx_hal_opamp.c ****         {
 679:Drivers/STM32F3xx_HAL_Driver/Src/stm32f3xx_hal_opamp.c ****           trimmingvaluep -= delta;
 680:Drivers/STM32F3xx_HAL_Driver/Src/stm32f3xx_hal_opamp.c ****         }
 681:Drivers/STM32F3xx_HAL_Driver/Src/stm32f3xx_hal_opamp.c ****                       
 682:Drivers/STM32F3xx_HAL_Driver/Src/stm32f3xx_hal_opamp.c ****         delta >>= 1U;
 683:Drivers/STM32F3xx_HAL_Driver/Src/stm32f3xx_hal_opamp.c ****       }
 684:Drivers/STM32F3xx_HAL_Driver/Src/stm32f3xx_hal_opamp.c ****       
 685:Drivers/STM32F3xx_HAL_Driver/Src/stm32f3xx_hal_opamp.c ****       /* Still need to check if righ calibration is current value or un step below */
 686:Drivers/STM32F3xx_HAL_Driver/Src/stm32f3xx_hal_opamp.c ****       /* Indeed the first value that causes the OUTCAL bit to change from 1 to 0U */
 687:Drivers/STM32F3xx_HAL_Driver/Src/stm32f3xx_hal_opamp.c ****       /* Set candidate trimming */
 688:Drivers/STM32F3xx_HAL_Driver/Src/stm32f3xx_hal_opamp.c ****       MODIFY_REG(hopamp->Instance->CSR, OPAMP_CSR_TRIMOFFSETP, trimmingvaluep<<OPAMP_INPUT_NONINVER
 689:Drivers/STM32F3xx_HAL_Driver/Src/stm32f3xx_hal_opamp.c **** 
 690:Drivers/STM32F3xx_HAL_Driver/Src/stm32f3xx_hal_opamp.c ****        /* OFFTRIMmax delay 2 ms as per datasheet (electrical characteristics */ 
 691:Drivers/STM32F3xx_HAL_Driver/Src/stm32f3xx_hal_opamp.c ****        /* Offset trim time: during calibration, minimum time needed between */
 692:Drivers/STM32F3xx_HAL_Driver/Src/stm32f3xx_hal_opamp.c ****        /* two steps to have 1 mV accuracy */
 693:Drivers/STM32F3xx_HAL_Driver/Src/stm32f3xx_hal_opamp.c ****        HAL_Delay(2U);
 694:Drivers/STM32F3xx_HAL_Driver/Src/stm32f3xx_hal_opamp.c ****       
 695:Drivers/STM32F3xx_HAL_Driver/Src/stm32f3xx_hal_opamp.c ****       if ((hopamp->Instance->CSR & OPAMP_CSR_OUTCAL) != RESET)
 696:Drivers/STM32F3xx_HAL_Driver/Src/stm32f3xx_hal_opamp.c ****       { 
 697:Drivers/STM32F3xx_HAL_Driver/Src/stm32f3xx_hal_opamp.c ****         /* OPAMP_CSR_OUTCAL is actually one value more */
 698:Drivers/STM32F3xx_HAL_Driver/Src/stm32f3xx_hal_opamp.c ****         trimmingvaluep++;
 699:Drivers/STM32F3xx_HAL_Driver/Src/stm32f3xx_hal_opamp.c ****         /* Set right trimming */
 700:Drivers/STM32F3xx_HAL_Driver/Src/stm32f3xx_hal_opamp.c ****         MODIFY_REG(hopamp->Instance->CSR, OPAMP_CSR_TRIMOFFSETP, trimmingvaluep<<OPAMP_INPUT_NONINV
 701:Drivers/STM32F3xx_HAL_Driver/Src/stm32f3xx_hal_opamp.c ****       }
 702:Drivers/STM32F3xx_HAL_Driver/Src/stm32f3xx_hal_opamp.c ****            
 703:Drivers/STM32F3xx_HAL_Driver/Src/stm32f3xx_hal_opamp.c ****       /* Disable calibration */
 704:Drivers/STM32F3xx_HAL_Driver/Src/stm32f3xx_hal_opamp.c ****       CLEAR_BIT (hopamp->Instance->CSR, OPAMP_CSR_CALON);
 705:Drivers/STM32F3xx_HAL_Driver/Src/stm32f3xx_hal_opamp.c **** 
 706:Drivers/STM32F3xx_HAL_Driver/Src/stm32f3xx_hal_opamp.c ****       /* Disable the OPAMP */
 707:Drivers/STM32F3xx_HAL_Driver/Src/stm32f3xx_hal_opamp.c ****       CLEAR_BIT (hopamp->Instance->CSR, OPAMP_CSR_OPAMPxEN);
 708:Drivers/STM32F3xx_HAL_Driver/Src/stm32f3xx_hal_opamp.c ****       
 709:Drivers/STM32F3xx_HAL_Driver/Src/stm32f3xx_hal_opamp.c ****       /* Set operating mode  */
 710:Drivers/STM32F3xx_HAL_Driver/Src/stm32f3xx_hal_opamp.c ****       /* Non-inverting input connected to calibration reference voltage. */
 711:Drivers/STM32F3xx_HAL_Driver/Src/stm32f3xx_hal_opamp.c ****       CLEAR_BIT(hopamp->Instance->CSR, OPAMP_CSR_FORCEVP);
 712:Drivers/STM32F3xx_HAL_Driver/Src/stm32f3xx_hal_opamp.c ****             
 713:Drivers/STM32F3xx_HAL_Driver/Src/stm32f3xx_hal_opamp.c ****       /* Self calibration is successful  */
 714:Drivers/STM32F3xx_HAL_Driver/Src/stm32f3xx_hal_opamp.c ****       /* Store calibration(user timming) results in init structure. */
 715:Drivers/STM32F3xx_HAL_Driver/Src/stm32f3xx_hal_opamp.c **** 
 716:Drivers/STM32F3xx_HAL_Driver/Src/stm32f3xx_hal_opamp.c ****       /* Write calibration result N */
 717:Drivers/STM32F3xx_HAL_Driver/Src/stm32f3xx_hal_opamp.c ****       hopamp->Init.TrimmingValueN = trimmingvaluen;
 718:Drivers/STM32F3xx_HAL_Driver/Src/stm32f3xx_hal_opamp.c ****      
ARM GAS  /var/folders/md/lgcc8l7571l9vt9sx0g0zflw0000gn/T//ccmnh1CJ.s 			page 25


 719:Drivers/STM32F3xx_HAL_Driver/Src/stm32f3xx_hal_opamp.c ****       /* Write calibration result P */
 720:Drivers/STM32F3xx_HAL_Driver/Src/stm32f3xx_hal_opamp.c ****       hopamp->Init.TrimmingValueP = trimmingvaluep;
 721:Drivers/STM32F3xx_HAL_Driver/Src/stm32f3xx_hal_opamp.c **** 
 722:Drivers/STM32F3xx_HAL_Driver/Src/stm32f3xx_hal_opamp.c ****       /* Select user timming mode */      
 723:Drivers/STM32F3xx_HAL_Driver/Src/stm32f3xx_hal_opamp.c ****       /* And updated with calibrated settings */
 724:Drivers/STM32F3xx_HAL_Driver/Src/stm32f3xx_hal_opamp.c ****       hopamp->Init.UserTrimming = OPAMP_TRIMMING_USER;
 725:Drivers/STM32F3xx_HAL_Driver/Src/stm32f3xx_hal_opamp.c ****       MODIFY_REG(hopamp->Instance->CSR, OPAMP_CSR_TRIMOFFSETP, trimmingvaluep<<OPAMP_INPUT_NONINVER
 726:Drivers/STM32F3xx_HAL_Driver/Src/stm32f3xx_hal_opamp.c ****       MODIFY_REG(hopamp->Instance->CSR, OPAMP_CSR_TRIMOFFSETN, trimmingvaluen<<OPAMP_INPUT_INVERTIN
 727:Drivers/STM32F3xx_HAL_Driver/Src/stm32f3xx_hal_opamp.c ****     }
 728:Drivers/STM32F3xx_HAL_Driver/Src/stm32f3xx_hal_opamp.c **** 
 729:Drivers/STM32F3xx_HAL_Driver/Src/stm32f3xx_hal_opamp.c ****     else
 730:Drivers/STM32F3xx_HAL_Driver/Src/stm32f3xx_hal_opamp.c ****     {
 731:Drivers/STM32F3xx_HAL_Driver/Src/stm32f3xx_hal_opamp.c ****       /* OPAMP can not be calibrated from this mode */ 
 732:Drivers/STM32F3xx_HAL_Driver/Src/stm32f3xx_hal_opamp.c ****       status = HAL_ERROR;
 562              		.loc 1 732 14 view .LVU148
 563 0020 0120     		movs	r0, #1
 564              	.LVL38:
 565              	.L44:
 733:Drivers/STM32F3xx_HAL_Driver/Src/stm32f3xx_hal_opamp.c ****     }   
 734:Drivers/STM32F3xx_HAL_Driver/Src/stm32f3xx_hal_opamp.c ****   }
 735:Drivers/STM32F3xx_HAL_Driver/Src/stm32f3xx_hal_opamp.c ****   return status;
 566              		.loc 1 735 3 is_stmt 1 view .LVU149
 736:Drivers/STM32F3xx_HAL_Driver/Src/stm32f3xx_hal_opamp.c **** }
 567              		.loc 1 736 1 is_stmt 0 view .LVU150
 568 0022 F8BD     		pop	{r3, r4, r5, r6, r7, pc}
 569              	.LVL39:
 570              	.L62:
 588:Drivers/STM32F3xx_HAL_Driver/Src/stm32f3xx_hal_opamp.c **** 
 571              		.loc 1 588 7 is_stmt 1 view .LVU151
 592:Drivers/STM32F3xx_HAL_Driver/Src/stm32f3xx_hal_opamp.c **** 
 572              		.loc 1 592 7 view .LVU152
 573 0024 0268     		ldr	r2, [r0]
 574 0026 1368     		ldr	r3, [r2]
 575 0028 43F00203 		orr	r3, r3, #2
 576 002c 1360     		str	r3, [r2]
 595:Drivers/STM32F3xx_HAL_Driver/Src/stm32f3xx_hal_opamp.c ****       
 577              		.loc 1 595 7 view .LVU153
 578 002e 0268     		ldr	r2, [r0]
 579 0030 1368     		ldr	r3, [r2]
 580 0032 43F48023 		orr	r3, r3, #262144
 581 0036 1360     		str	r3, [r2]
 598:Drivers/STM32F3xx_HAL_Driver/Src/stm32f3xx_hal_opamp.c ****   
 582              		.loc 1 598 7 view .LVU154
 583 0038 0268     		ldr	r2, [r0]
 584 003a 1368     		ldr	r3, [r2]
 585 003c 43F40063 		orr	r3, r3, #2048
 586 0040 1360     		str	r3, [r2]
 602:Drivers/STM32F3xx_HAL_Driver/Src/stm32f3xx_hal_opamp.c ****       
 587              		.loc 1 602 7 view .LVU155
 588 0042 0268     		ldr	r2, [r0]
 589 0044 1368     		ldr	r3, [r2]
 590 0046 43F44053 		orr	r3, r3, #12288
 591 004a 1360     		str	r3, [r2]
 605:Drivers/STM32F3xx_HAL_Driver/Src/stm32f3xx_hal_opamp.c ****       
 592              		.loc 1 605 7 view .LVU156
 593 004c 0268     		ldr	r2, [r0]
 594 004e 1368     		ldr	r3, [r2]
ARM GAS  /var/folders/md/lgcc8l7571l9vt9sx0g0zflw0000gn/T//ccmnh1CJ.s 			page 26


 595 0050 43F00103 		orr	r3, r3, #1
 596 0054 1360     		str	r3, [r2]
 609:Drivers/STM32F3xx_HAL_Driver/Src/stm32f3xx_hal_opamp.c ****       delta = 8U;
 597              		.loc 1 609 7 view .LVU157
 598              	.LVL40:
 610:Drivers/STM32F3xx_HAL_Driver/Src/stm32f3xx_hal_opamp.c ****       
 599              		.loc 1 610 7 view .LVU158
 612:Drivers/STM32F3xx_HAL_Driver/Src/stm32f3xx_hal_opamp.c ****       {
 600              		.loc 1 612 7 view .LVU159
 610:Drivers/STM32F3xx_HAL_Driver/Src/stm32f3xx_hal_opamp.c ****       
 601              		.loc 1 610 13 is_stmt 0 view .LVU160
 602 0056 0826     		movs	r6, #8
 609:Drivers/STM32F3xx_HAL_Driver/Src/stm32f3xx_hal_opamp.c ****       delta = 8U;
 603              		.loc 1 609 22 view .LVU161
 604 0058 1025     		movs	r5, #16
 612:Drivers/STM32F3xx_HAL_Driver/Src/stm32f3xx_hal_opamp.c ****       {
 605              		.loc 1 612 13 view .LVU162
 606 005a 01E0     		b	.L45
 607              	.LVL41:
 608              	.L46:
 630:Drivers/STM32F3xx_HAL_Driver/Src/stm32f3xx_hal_opamp.c ****         }
 609              		.loc 1 630 11 is_stmt 1 view .LVU163
 630:Drivers/STM32F3xx_HAL_Driver/Src/stm32f3xx_hal_opamp.c ****         }
 610              		.loc 1 630 26 is_stmt 0 view .LVU164
 611 005c AD1B     		subs	r5, r5, r6
 612              	.LVL42:
 613              	.L47:
 633:Drivers/STM32F3xx_HAL_Driver/Src/stm32f3xx_hal_opamp.c ****       }
 614              		.loc 1 633 9 is_stmt 1 view .LVU165
 633:Drivers/STM32F3xx_HAL_Driver/Src/stm32f3xx_hal_opamp.c ****       }
 615              		.loc 1 633 15 is_stmt 0 view .LVU166
 616 005e 7608     		lsrs	r6, r6, #1
 617              	.LVL43:
 618              	.L45:
 612:Drivers/STM32F3xx_HAL_Driver/Src/stm32f3xx_hal_opamp.c ****       {
 619              		.loc 1 612 13 view .LVU167
 620 0060 86B1     		cbz	r6, .L63
 615:Drivers/STM32F3xx_HAL_Driver/Src/stm32f3xx_hal_opamp.c ****               
 621              		.loc 1 615 9 is_stmt 1 view .LVU168
 622 0062 2268     		ldr	r2, [r4]
 623 0064 1368     		ldr	r3, [r2]
 624 0066 23F0F853 		bic	r3, r3, #520093696
 625 006a 43EA0563 		orr	r3, r3, r5, lsl #24
 626 006e 1360     		str	r3, [r2]
 620:Drivers/STM32F3xx_HAL_Driver/Src/stm32f3xx_hal_opamp.c **** 
 627              		.loc 1 620 9 view .LVU169
 628 0070 0220     		movs	r0, #2
 629 0072 FFF7FEFF 		bl	HAL_Delay
 630              	.LVL44:
 622:Drivers/STM32F3xx_HAL_Driver/Src/stm32f3xx_hal_opamp.c ****         { 
 631              		.loc 1 622 9 view .LVU170
 622:Drivers/STM32F3xx_HAL_Driver/Src/stm32f3xx_hal_opamp.c ****         { 
 632              		.loc 1 622 20 is_stmt 0 view .LVU171
 633 0076 2368     		ldr	r3, [r4]
 622:Drivers/STM32F3xx_HAL_Driver/Src/stm32f3xx_hal_opamp.c ****         { 
 634              		.loc 1 622 30 view .LVU172
 635 0078 1B68     		ldr	r3, [r3]
ARM GAS  /var/folders/md/lgcc8l7571l9vt9sx0g0zflw0000gn/T//ccmnh1CJ.s 			page 27


 622:Drivers/STM32F3xx_HAL_Driver/Src/stm32f3xx_hal_opamp.c ****         { 
 636              		.loc 1 622 12 view .LVU173
 637 007a 13F0804F 		tst	r3, #1073741824
 638 007e EDD0     		beq	.L46
 625:Drivers/STM32F3xx_HAL_Driver/Src/stm32f3xx_hal_opamp.c ****         }
 639              		.loc 1 625 11 is_stmt 1 view .LVU174
 625:Drivers/STM32F3xx_HAL_Driver/Src/stm32f3xx_hal_opamp.c ****         }
 640              		.loc 1 625 26 is_stmt 0 view .LVU175
 641 0080 3544     		add	r5, r5, r6
 642              	.LVL45:
 625:Drivers/STM32F3xx_HAL_Driver/Src/stm32f3xx_hal_opamp.c ****         }
 643              		.loc 1 625 26 view .LVU176
 644 0082 ECE7     		b	.L47
 645              	.L63:
 638:Drivers/STM32F3xx_HAL_Driver/Src/stm32f3xx_hal_opamp.c ****       
 646              		.loc 1 638 7 is_stmt 1 view .LVU177
 647 0084 2268     		ldr	r2, [r4]
 648 0086 1368     		ldr	r3, [r2]
 649 0088 23F0F853 		bic	r3, r3, #520093696
 650 008c 43EA0563 		orr	r3, r3, r5, lsl #24
 651 0090 1360     		str	r3, [r2]
 643:Drivers/STM32F3xx_HAL_Driver/Src/stm32f3xx_hal_opamp.c ****       
 652              		.loc 1 643 8 view .LVU178
 653 0092 0220     		movs	r0, #2
 654 0094 FFF7FEFF 		bl	HAL_Delay
 655              	.LVL46:
 645:Drivers/STM32F3xx_HAL_Driver/Src/stm32f3xx_hal_opamp.c ****       { 
 656              		.loc 1 645 7 view .LVU179
 645:Drivers/STM32F3xx_HAL_Driver/Src/stm32f3xx_hal_opamp.c ****       { 
 657              		.loc 1 645 18 is_stmt 0 view .LVU180
 658 0098 2368     		ldr	r3, [r4]
 645:Drivers/STM32F3xx_HAL_Driver/Src/stm32f3xx_hal_opamp.c ****       { 
 659              		.loc 1 645 28 view .LVU181
 660 009a 1A68     		ldr	r2, [r3]
 645:Drivers/STM32F3xx_HAL_Driver/Src/stm32f3xx_hal_opamp.c ****       { 
 661              		.loc 1 645 10 view .LVU182
 662 009c 12F0804F 		tst	r2, #1073741824
 663 00a0 06D0     		beq	.L49
 648:Drivers/STM32F3xx_HAL_Driver/Src/stm32f3xx_hal_opamp.c ****         /* Set right trimming */
 664              		.loc 1 648 9 is_stmt 1 view .LVU183
 648:Drivers/STM32F3xx_HAL_Driver/Src/stm32f3xx_hal_opamp.c ****         /* Set right trimming */
 665              		.loc 1 648 23 is_stmt 0 view .LVU184
 666 00a2 0135     		adds	r5, r5, #1
 667              	.LVL47:
 650:Drivers/STM32F3xx_HAL_Driver/Src/stm32f3xx_hal_opamp.c ****       }
 668              		.loc 1 650 9 is_stmt 1 view .LVU185
 669 00a4 1A68     		ldr	r2, [r3]
 670 00a6 22F0F852 		bic	r2, r2, #520093696
 671 00aa 42EA0562 		orr	r2, r2, r5, lsl #24
 672 00ae 1A60     		str	r2, [r3]
 673              	.L49:
 655:Drivers/STM32F3xx_HAL_Driver/Src/stm32f3xx_hal_opamp.c ****       
 674              		.loc 1 655 7 view .LVU186
 675 00b0 2268     		ldr	r2, [r4]
 676 00b2 1368     		ldr	r3, [r2]
 677 00b4 23F44053 		bic	r3, r3, #12288
 678 00b8 43F48053 		orr	r3, r3, #4096
ARM GAS  /var/folders/md/lgcc8l7571l9vt9sx0g0zflw0000gn/T//ccmnh1CJ.s 			page 28


 679 00bc 1360     		str	r3, [r2]
 659:Drivers/STM32F3xx_HAL_Driver/Src/stm32f3xx_hal_opamp.c ****       delta = 8U;
 680              		.loc 1 659 7 view .LVU187
 681              	.LVL48:
 660:Drivers/STM32F3xx_HAL_Driver/Src/stm32f3xx_hal_opamp.c ****       
 682              		.loc 1 660 7 view .LVU188
 662:Drivers/STM32F3xx_HAL_Driver/Src/stm32f3xx_hal_opamp.c ****       {
 683              		.loc 1 662 7 view .LVU189
 660:Drivers/STM32F3xx_HAL_Driver/Src/stm32f3xx_hal_opamp.c ****       
 684              		.loc 1 660 13 is_stmt 0 view .LVU190
 685 00be 0826     		movs	r6, #8
 659:Drivers/STM32F3xx_HAL_Driver/Src/stm32f3xx_hal_opamp.c ****       delta = 8U;
 686              		.loc 1 659 22 view .LVU191
 687 00c0 1027     		movs	r7, #16
 662:Drivers/STM32F3xx_HAL_Driver/Src/stm32f3xx_hal_opamp.c ****       {
 688              		.loc 1 662 13 view .LVU192
 689 00c2 01E0     		b	.L50
 690              	.LVL49:
 691              	.L51:
 679:Drivers/STM32F3xx_HAL_Driver/Src/stm32f3xx_hal_opamp.c ****         }
 692              		.loc 1 679 11 is_stmt 1 view .LVU193
 679:Drivers/STM32F3xx_HAL_Driver/Src/stm32f3xx_hal_opamp.c ****         }
 693              		.loc 1 679 26 is_stmt 0 view .LVU194
 694 00c4 BF1B     		subs	r7, r7, r6
 695              	.LVL50:
 696              	.L52:
 682:Drivers/STM32F3xx_HAL_Driver/Src/stm32f3xx_hal_opamp.c ****       }
 697              		.loc 1 682 9 is_stmt 1 view .LVU195
 682:Drivers/STM32F3xx_HAL_Driver/Src/stm32f3xx_hal_opamp.c ****       }
 698              		.loc 1 682 15 is_stmt 0 view .LVU196
 699 00c6 7608     		lsrs	r6, r6, #1
 700              	.LVL51:
 701              	.L50:
 662:Drivers/STM32F3xx_HAL_Driver/Src/stm32f3xx_hal_opamp.c ****       {
 702              		.loc 1 662 13 view .LVU197
 703 00c8 86B1     		cbz	r6, .L64
 665:Drivers/STM32F3xx_HAL_Driver/Src/stm32f3xx_hal_opamp.c ****                
 704              		.loc 1 665 9 is_stmt 1 view .LVU198
 705 00ca 2268     		ldr	r2, [r4]
 706 00cc 1368     		ldr	r3, [r2]
 707 00ce 23F47803 		bic	r3, r3, #16252928
 708 00d2 43EAC743 		orr	r3, r3, r7, lsl #19
 709 00d6 1360     		str	r3, [r2]
 670:Drivers/STM32F3xx_HAL_Driver/Src/stm32f3xx_hal_opamp.c **** 
 710              		.loc 1 670 9 view .LVU199
 711 00d8 0220     		movs	r0, #2
 712 00da FFF7FEFF 		bl	HAL_Delay
 713              	.LVL52:
 672:Drivers/STM32F3xx_HAL_Driver/Src/stm32f3xx_hal_opamp.c ****         { 
 714              		.loc 1 672 9 view .LVU200
 672:Drivers/STM32F3xx_HAL_Driver/Src/stm32f3xx_hal_opamp.c ****         { 
 715              		.loc 1 672 20 is_stmt 0 view .LVU201
 716 00de 2368     		ldr	r3, [r4]
 672:Drivers/STM32F3xx_HAL_Driver/Src/stm32f3xx_hal_opamp.c ****         { 
 717              		.loc 1 672 30 view .LVU202
 718 00e0 1B68     		ldr	r3, [r3]
 672:Drivers/STM32F3xx_HAL_Driver/Src/stm32f3xx_hal_opamp.c ****         { 
ARM GAS  /var/folders/md/lgcc8l7571l9vt9sx0g0zflw0000gn/T//ccmnh1CJ.s 			page 29


 719              		.loc 1 672 12 view .LVU203
 720 00e2 13F0804F 		tst	r3, #1073741824
 721 00e6 EDD0     		beq	.L51
 675:Drivers/STM32F3xx_HAL_Driver/Src/stm32f3xx_hal_opamp.c ****         }
 722              		.loc 1 675 11 is_stmt 1 view .LVU204
 675:Drivers/STM32F3xx_HAL_Driver/Src/stm32f3xx_hal_opamp.c ****         }
 723              		.loc 1 675 26 is_stmt 0 view .LVU205
 724 00e8 3744     		add	r7, r7, r6
 725              	.LVL53:
 675:Drivers/STM32F3xx_HAL_Driver/Src/stm32f3xx_hal_opamp.c ****         }
 726              		.loc 1 675 26 view .LVU206
 727 00ea ECE7     		b	.L52
 728              	.L64:
 688:Drivers/STM32F3xx_HAL_Driver/Src/stm32f3xx_hal_opamp.c **** 
 729              		.loc 1 688 7 is_stmt 1 view .LVU207
 730 00ec 2268     		ldr	r2, [r4]
 731 00ee 1368     		ldr	r3, [r2]
 732 00f0 23F47803 		bic	r3, r3, #16252928
 733 00f4 43EAC743 		orr	r3, r3, r7, lsl #19
 734 00f8 1360     		str	r3, [r2]
 693:Drivers/STM32F3xx_HAL_Driver/Src/stm32f3xx_hal_opamp.c ****       
 735              		.loc 1 693 8 view .LVU208
 736 00fa 0220     		movs	r0, #2
 737 00fc FFF7FEFF 		bl	HAL_Delay
 738              	.LVL54:
 695:Drivers/STM32F3xx_HAL_Driver/Src/stm32f3xx_hal_opamp.c ****       { 
 739              		.loc 1 695 7 view .LVU209
 695:Drivers/STM32F3xx_HAL_Driver/Src/stm32f3xx_hal_opamp.c ****       { 
 740              		.loc 1 695 18 is_stmt 0 view .LVU210
 741 0100 2368     		ldr	r3, [r4]
 695:Drivers/STM32F3xx_HAL_Driver/Src/stm32f3xx_hal_opamp.c ****       { 
 742              		.loc 1 695 28 view .LVU211
 743 0102 1A68     		ldr	r2, [r3]
 695:Drivers/STM32F3xx_HAL_Driver/Src/stm32f3xx_hal_opamp.c ****       { 
 744              		.loc 1 695 10 view .LVU212
 745 0104 12F0804F 		tst	r2, #1073741824
 746 0108 06D0     		beq	.L54
 698:Drivers/STM32F3xx_HAL_Driver/Src/stm32f3xx_hal_opamp.c ****         /* Set right trimming */
 747              		.loc 1 698 9 is_stmt 1 view .LVU213
 698:Drivers/STM32F3xx_HAL_Driver/Src/stm32f3xx_hal_opamp.c ****         /* Set right trimming */
 748              		.loc 1 698 23 is_stmt 0 view .LVU214
 749 010a 0137     		adds	r7, r7, #1
 750              	.LVL55:
 700:Drivers/STM32F3xx_HAL_Driver/Src/stm32f3xx_hal_opamp.c ****       }
 751              		.loc 1 700 9 is_stmt 1 view .LVU215
 752 010c 1A68     		ldr	r2, [r3]
 753 010e 22F47802 		bic	r2, r2, #16252928
 754 0112 42EAC742 		orr	r2, r2, r7, lsl #19
 755 0116 1A60     		str	r2, [r3]
 756              	.L54:
 704:Drivers/STM32F3xx_HAL_Driver/Src/stm32f3xx_hal_opamp.c **** 
 757              		.loc 1 704 7 view .LVU216
 758 0118 2268     		ldr	r2, [r4]
 759 011a 1368     		ldr	r3, [r2]
 760 011c 23F40063 		bic	r3, r3, #2048
 761 0120 1360     		str	r3, [r2]
 707:Drivers/STM32F3xx_HAL_Driver/Src/stm32f3xx_hal_opamp.c ****       
ARM GAS  /var/folders/md/lgcc8l7571l9vt9sx0g0zflw0000gn/T//ccmnh1CJ.s 			page 30


 762              		.loc 1 707 7 view .LVU217
 763 0122 2268     		ldr	r2, [r4]
 764 0124 1368     		ldr	r3, [r2]
 765 0126 23F00103 		bic	r3, r3, #1
 766 012a 1360     		str	r3, [r2]
 711:Drivers/STM32F3xx_HAL_Driver/Src/stm32f3xx_hal_opamp.c ****             
 767              		.loc 1 711 7 view .LVU218
 768 012c 2268     		ldr	r2, [r4]
 769 012e 1368     		ldr	r3, [r2]
 770 0130 23F00203 		bic	r3, r3, #2
 771 0134 1360     		str	r3, [r2]
 717:Drivers/STM32F3xx_HAL_Driver/Src/stm32f3xx_hal_opamp.c ****      
 772              		.loc 1 717 7 view .LVU219
 717:Drivers/STM32F3xx_HAL_Driver/Src/stm32f3xx_hal_opamp.c ****      
 773              		.loc 1 717 35 is_stmt 0 view .LVU220
 774 0136 E562     		str	r5, [r4, #44]
 720:Drivers/STM32F3xx_HAL_Driver/Src/stm32f3xx_hal_opamp.c **** 
 775              		.loc 1 720 7 is_stmt 1 view .LVU221
 720:Drivers/STM32F3xx_HAL_Driver/Src/stm32f3xx_hal_opamp.c **** 
 776              		.loc 1 720 35 is_stmt 0 view .LVU222
 777 0138 A762     		str	r7, [r4, #40]
 724:Drivers/STM32F3xx_HAL_Driver/Src/stm32f3xx_hal_opamp.c ****       MODIFY_REG(hopamp->Instance->CSR, OPAMP_CSR_TRIMOFFSETP, trimmingvaluep<<OPAMP_INPUT_NONINVER
 778              		.loc 1 724 7 is_stmt 1 view .LVU223
 724:Drivers/STM32F3xx_HAL_Driver/Src/stm32f3xx_hal_opamp.c ****       MODIFY_REG(hopamp->Instance->CSR, OPAMP_CSR_TRIMOFFSETP, trimmingvaluep<<OPAMP_INPUT_NONINVER
 779              		.loc 1 724 33 is_stmt 0 view .LVU224
 780 013a 4FF48023 		mov	r3, #262144
 781 013e 6362     		str	r3, [r4, #36]
 725:Drivers/STM32F3xx_HAL_Driver/Src/stm32f3xx_hal_opamp.c ****       MODIFY_REG(hopamp->Instance->CSR, OPAMP_CSR_TRIMOFFSETN, trimmingvaluen<<OPAMP_INPUT_INVERTIN
 782              		.loc 1 725 7 is_stmt 1 view .LVU225
 783 0140 2268     		ldr	r2, [r4]
 784 0142 1368     		ldr	r3, [r2]
 785 0144 23F47803 		bic	r3, r3, #16252928
 786 0148 43EAC747 		orr	r7, r3, r7, lsl #19
 787              	.LVL56:
 725:Drivers/STM32F3xx_HAL_Driver/Src/stm32f3xx_hal_opamp.c ****       MODIFY_REG(hopamp->Instance->CSR, OPAMP_CSR_TRIMOFFSETN, trimmingvaluen<<OPAMP_INPUT_INVERTIN
 788              		.loc 1 725 7 is_stmt 0 view .LVU226
 789 014c 1760     		str	r7, [r2]
 790              	.LVL57:
 726:Drivers/STM32F3xx_HAL_Driver/Src/stm32f3xx_hal_opamp.c ****     }
 791              		.loc 1 726 7 is_stmt 1 view .LVU227
 792 014e 2268     		ldr	r2, [r4]
 793 0150 1368     		ldr	r3, [r2]
 794 0152 23F0F853 		bic	r3, r3, #520093696
 795 0156 43EA0565 		orr	r5, r3, r5, lsl #24
 796              	.LVL58:
 726:Drivers/STM32F3xx_HAL_Driver/Src/stm32f3xx_hal_opamp.c ****     }
 797              		.loc 1 726 7 is_stmt 0 view .LVU228
 798 015a 1560     		str	r5, [r2]
 569:Drivers/STM32F3xx_HAL_Driver/Src/stm32f3xx_hal_opamp.c ****   
 799              		.loc 1 569 21 view .LVU229
 800 015c 0020     		movs	r0, #0
 801 015e 60E7     		b	.L44
 802              	.LVL59:
 803              	.L55:
 804              	.LCFI8:
 805              		.cfi_def_cfa_offset 0
 806              		.cfi_restore 3
ARM GAS  /var/folders/md/lgcc8l7571l9vt9sx0g0zflw0000gn/T//ccmnh1CJ.s 			page 31


 807              		.cfi_restore 4
 808              		.cfi_restore 5
 809              		.cfi_restore 6
 810              		.cfi_restore 7
 811              		.cfi_restore 14
 579:Drivers/STM32F3xx_HAL_Driver/Src/stm32f3xx_hal_opamp.c ****   }
 812              		.loc 1 579 12 view .LVU230
 813 0160 0120     		movs	r0, #1
 814              	.LVL60:
 735:Drivers/STM32F3xx_HAL_Driver/Src/stm32f3xx_hal_opamp.c **** }
 815              		.loc 1 735 3 is_stmt 1 view .LVU231
 816              		.loc 1 736 1 is_stmt 0 view .LVU232
 817 0162 7047     		bx	lr
 818              	.LVL61:
 819              	.L56:
 820              	.LCFI9:
 821              		.cfi_def_cfa_offset 24
 822              		.cfi_offset 3, -24
 823              		.cfi_offset 4, -20
 824              		.cfi_offset 5, -16
 825              		.cfi_offset 6, -12
 826              		.cfi_offset 7, -8
 827              		.cfi_offset 14, -4
 579:Drivers/STM32F3xx_HAL_Driver/Src/stm32f3xx_hal_opamp.c ****   }
 828              		.loc 1 579 12 view .LVU233
 829 0164 0120     		movs	r0, #1
 830              	.LVL62:
 579:Drivers/STM32F3xx_HAL_Driver/Src/stm32f3xx_hal_opamp.c ****   }
 831              		.loc 1 579 12 view .LVU234
 832 0166 5CE7     		b	.L44
 833              		.cfi_endproc
 834              	.LFE132:
 836              		.section	.text.HAL_OPAMP_Lock,"ax",%progbits
 837              		.align	1
 838              		.global	HAL_OPAMP_Lock
 839              		.syntax unified
 840              		.thumb
 841              		.thumb_func
 842              		.fpu fpv4-sp-d16
 844              	HAL_OPAMP_Lock:
 845              	.LVL63:
 846              	.LFB133:
 737:Drivers/STM32F3xx_HAL_Driver/Src/stm32f3xx_hal_opamp.c **** 
 738:Drivers/STM32F3xx_HAL_Driver/Src/stm32f3xx_hal_opamp.c **** /**
 739:Drivers/STM32F3xx_HAL_Driver/Src/stm32f3xx_hal_opamp.c ****   * @}
 740:Drivers/STM32F3xx_HAL_Driver/Src/stm32f3xx_hal_opamp.c ****   */
 741:Drivers/STM32F3xx_HAL_Driver/Src/stm32f3xx_hal_opamp.c **** 
 742:Drivers/STM32F3xx_HAL_Driver/Src/stm32f3xx_hal_opamp.c **** /** @defgroup OPAMP_Exported_Functions_Group3 Peripheral Control functions 
 743:Drivers/STM32F3xx_HAL_Driver/Src/stm32f3xx_hal_opamp.c ****  *  @brief   management functions 
 744:Drivers/STM32F3xx_HAL_Driver/Src/stm32f3xx_hal_opamp.c ****  *
 745:Drivers/STM32F3xx_HAL_Driver/Src/stm32f3xx_hal_opamp.c **** @verbatim   
 746:Drivers/STM32F3xx_HAL_Driver/Src/stm32f3xx_hal_opamp.c ****  ===============================================================================
 747:Drivers/STM32F3xx_HAL_Driver/Src/stm32f3xx_hal_opamp.c ****                       ##### Peripheral Control functions #####
 748:Drivers/STM32F3xx_HAL_Driver/Src/stm32f3xx_hal_opamp.c ****  ===============================================================================  
 749:Drivers/STM32F3xx_HAL_Driver/Src/stm32f3xx_hal_opamp.c ****     [..]
 750:Drivers/STM32F3xx_HAL_Driver/Src/stm32f3xx_hal_opamp.c ****     This subsection provides a set of functions allowing to control the OPAMP data 
 751:Drivers/STM32F3xx_HAL_Driver/Src/stm32f3xx_hal_opamp.c ****     transfers.
ARM GAS  /var/folders/md/lgcc8l7571l9vt9sx0g0zflw0000gn/T//ccmnh1CJ.s 			page 32


 752:Drivers/STM32F3xx_HAL_Driver/Src/stm32f3xx_hal_opamp.c **** 
 753:Drivers/STM32F3xx_HAL_Driver/Src/stm32f3xx_hal_opamp.c **** 
 754:Drivers/STM32F3xx_HAL_Driver/Src/stm32f3xx_hal_opamp.c **** 
 755:Drivers/STM32F3xx_HAL_Driver/Src/stm32f3xx_hal_opamp.c **** @endverbatim
 756:Drivers/STM32F3xx_HAL_Driver/Src/stm32f3xx_hal_opamp.c ****   * @{
 757:Drivers/STM32F3xx_HAL_Driver/Src/stm32f3xx_hal_opamp.c ****   */
 758:Drivers/STM32F3xx_HAL_Driver/Src/stm32f3xx_hal_opamp.c **** 
 759:Drivers/STM32F3xx_HAL_Driver/Src/stm32f3xx_hal_opamp.c **** /**
 760:Drivers/STM32F3xx_HAL_Driver/Src/stm32f3xx_hal_opamp.c ****   * @brief  Lock the selected opamp configuration. 
 761:Drivers/STM32F3xx_HAL_Driver/Src/stm32f3xx_hal_opamp.c ****   * @param  hopamp OPAMP handle
 762:Drivers/STM32F3xx_HAL_Driver/Src/stm32f3xx_hal_opamp.c ****   * @retval HAL status
 763:Drivers/STM32F3xx_HAL_Driver/Src/stm32f3xx_hal_opamp.c ****   */
 764:Drivers/STM32F3xx_HAL_Driver/Src/stm32f3xx_hal_opamp.c **** HAL_StatusTypeDef HAL_OPAMP_Lock(OPAMP_HandleTypeDef *hopamp)
 765:Drivers/STM32F3xx_HAL_Driver/Src/stm32f3xx_hal_opamp.c **** {
 847              		.loc 1 765 1 is_stmt 1 view -0
 848              		.cfi_startproc
 849              		@ args = 0, pretend = 0, frame = 0
 850              		@ frame_needed = 0, uses_anonymous_args = 0
 851              		@ link register save eliminated.
 766:Drivers/STM32F3xx_HAL_Driver/Src/stm32f3xx_hal_opamp.c ****   HAL_StatusTypeDef status = HAL_OK;
 852              		.loc 1 766 3 view .LVU236
 767:Drivers/STM32F3xx_HAL_Driver/Src/stm32f3xx_hal_opamp.c **** 
 768:Drivers/STM32F3xx_HAL_Driver/Src/stm32f3xx_hal_opamp.c ****   /* Check the OPAMP handle allocation */
 769:Drivers/STM32F3xx_HAL_Driver/Src/stm32f3xx_hal_opamp.c ****   /* Check if OPAMP locked */
 770:Drivers/STM32F3xx_HAL_Driver/Src/stm32f3xx_hal_opamp.c ****   /* OPAMP can be locked when enabled and running in normal mode */ 
 771:Drivers/STM32F3xx_HAL_Driver/Src/stm32f3xx_hal_opamp.c ****   /*   It is meaningless otherwise */
 772:Drivers/STM32F3xx_HAL_Driver/Src/stm32f3xx_hal_opamp.c ****   if((hopamp == NULL) || (hopamp->State == HAL_OPAMP_STATE_RESET) \
 853              		.loc 1 772 3 view .LVU237
 854              		.loc 1 772 5 is_stmt 0 view .LVU238
 855 0000 0346     		mov	r3, r0
 856 0002 D8B1     		cbz	r0, .L67
 857              		.loc 1 772 33 discriminator 1 view .LVU239
 858 0004 90F83220 		ldrb	r2, [r0, #50]	@ zero_extendqisi2
 859              		.loc 1 772 23 discriminator 1 view .LVU240
 860 0008 D2B1     		cbz	r2, .L68
 773:Drivers/STM32F3xx_HAL_Driver/Src/stm32f3xx_hal_opamp.c ****                       || (hopamp->State == HAL_OPAMP_STATE_READY) \
 861              		.loc 1 773 33 view .LVU241
 862 000a 90F83200 		ldrb	r0, [r0, #50]	@ zero_extendqisi2
 863              	.LVL64:
 864              		.loc 1 773 33 view .LVU242
 865 000e C0B2     		uxtb	r0, r0
 866              		.loc 1 773 23 view .LVU243
 867 0010 0128     		cmp	r0, #1
 868 0012 1AD0     		beq	.L66
 774:Drivers/STM32F3xx_HAL_Driver/Src/stm32f3xx_hal_opamp.c ****                       || (hopamp->State == HAL_OPAMP_STATE_CALIBBUSY)\
 869              		.loc 1 774 33 view .LVU244
 870 0014 93F83220 		ldrb	r2, [r3, #50]	@ zero_extendqisi2
 871 0018 D2B2     		uxtb	r2, r2
 872              		.loc 1 774 23 view .LVU245
 873 001a 022A     		cmp	r2, #2
 874 001c 12D0     		beq	.L69
 775:Drivers/STM32F3xx_HAL_Driver/Src/stm32f3xx_hal_opamp.c ****                       || (hopamp->State == HAL_OPAMP_STATE_BUSYLOCKED))
 875              		.loc 1 775 33 view .LVU246
 876 001e 93F83220 		ldrb	r2, [r3, #50]	@ zero_extendqisi2
 877 0022 D2B2     		uxtb	r2, r2
 878              		.loc 1 775 23 view .LVU247
 879 0024 052A     		cmp	r2, #5
ARM GAS  /var/folders/md/lgcc8l7571l9vt9sx0g0zflw0000gn/T//ccmnh1CJ.s 			page 33


 880 0026 0FD0     		beq	.L70
 776:Drivers/STM32F3xx_HAL_Driver/Src/stm32f3xx_hal_opamp.c ****   
 777:Drivers/STM32F3xx_HAL_Driver/Src/stm32f3xx_hal_opamp.c ****   {
 778:Drivers/STM32F3xx_HAL_Driver/Src/stm32f3xx_hal_opamp.c ****     status = HAL_ERROR;
 779:Drivers/STM32F3xx_HAL_Driver/Src/stm32f3xx_hal_opamp.c ****   }
 780:Drivers/STM32F3xx_HAL_Driver/Src/stm32f3xx_hal_opamp.c ****   
 781:Drivers/STM32F3xx_HAL_Driver/Src/stm32f3xx_hal_opamp.c ****   else
 782:Drivers/STM32F3xx_HAL_Driver/Src/stm32f3xx_hal_opamp.c ****   {
 783:Drivers/STM32F3xx_HAL_Driver/Src/stm32f3xx_hal_opamp.c ****     /* Check the parameter */
 784:Drivers/STM32F3xx_HAL_Driver/Src/stm32f3xx_hal_opamp.c ****     assert_param(IS_OPAMP_ALL_INSTANCE(hopamp->Instance));
 881              		.loc 1 784 5 is_stmt 1 view .LVU248
 785:Drivers/STM32F3xx_HAL_Driver/Src/stm32f3xx_hal_opamp.c ****     
 786:Drivers/STM32F3xx_HAL_Driver/Src/stm32f3xx_hal_opamp.c ****    /* Lock OPAMP */
 787:Drivers/STM32F3xx_HAL_Driver/Src/stm32f3xx_hal_opamp.c ****     SET_BIT (hopamp->Instance->CSR, OPAMP_CSR_LOCK);
 882              		.loc 1 787 5 view .LVU249
 883 0028 1968     		ldr	r1, [r3]
 884 002a 0A68     		ldr	r2, [r1]
 885 002c 42F00042 		orr	r2, r2, #-2147483648
 886 0030 0A60     		str	r2, [r1]
 788:Drivers/STM32F3xx_HAL_Driver/Src/stm32f3xx_hal_opamp.c ****   
 789:Drivers/STM32F3xx_HAL_Driver/Src/stm32f3xx_hal_opamp.c ****    /* OPAMP state changed to locked */
 790:Drivers/STM32F3xx_HAL_Driver/Src/stm32f3xx_hal_opamp.c ****     hopamp->State = HAL_OPAMP_STATE_BUSYLOCKED;
 887              		.loc 1 790 5 view .LVU250
 888              		.loc 1 790 19 is_stmt 0 view .LVU251
 889 0032 0522     		movs	r2, #5
 890 0034 83F83220 		strb	r2, [r3, #50]
 766:Drivers/STM32F3xx_HAL_Driver/Src/stm32f3xx_hal_opamp.c **** 
 891              		.loc 1 766 21 view .LVU252
 892 0038 0020     		movs	r0, #0
 893 003a 7047     		bx	lr
 894              	.LVL65:
 895              	.L67:
 778:Drivers/STM32F3xx_HAL_Driver/Src/stm32f3xx_hal_opamp.c ****   }
 896              		.loc 1 778 12 view .LVU253
 897 003c 0120     		movs	r0, #1
 898              	.LVL66:
 778:Drivers/STM32F3xx_HAL_Driver/Src/stm32f3xx_hal_opamp.c ****   }
 899              		.loc 1 778 12 view .LVU254
 900 003e 7047     		bx	lr
 901              	.LVL67:
 902              	.L68:
 778:Drivers/STM32F3xx_HAL_Driver/Src/stm32f3xx_hal_opamp.c ****   }
 903              		.loc 1 778 12 view .LVU255
 904 0040 0120     		movs	r0, #1
 905              	.LVL68:
 778:Drivers/STM32F3xx_HAL_Driver/Src/stm32f3xx_hal_opamp.c ****   }
 906              		.loc 1 778 12 view .LVU256
 907 0042 7047     		bx	lr
 908              	.L69:
 909 0044 0120     		movs	r0, #1
 910 0046 7047     		bx	lr
 911              	.L70:
 912 0048 0120     		movs	r0, #1
 913              	.L66:
 914              	.LVL69:
 791:Drivers/STM32F3xx_HAL_Driver/Src/stm32f3xx_hal_opamp.c ****   }
 792:Drivers/STM32F3xx_HAL_Driver/Src/stm32f3xx_hal_opamp.c ****   return status; 
ARM GAS  /var/folders/md/lgcc8l7571l9vt9sx0g0zflw0000gn/T//ccmnh1CJ.s 			page 34


 915              		.loc 1 792 3 is_stmt 1 view .LVU257
 793:Drivers/STM32F3xx_HAL_Driver/Src/stm32f3xx_hal_opamp.c **** }
 916              		.loc 1 793 1 is_stmt 0 view .LVU258
 917 004a 7047     		bx	lr
 918              		.cfi_endproc
 919              	.LFE133:
 921              		.section	.text.HAL_OPAMP_GetState,"ax",%progbits
 922              		.align	1
 923              		.global	HAL_OPAMP_GetState
 924              		.syntax unified
 925              		.thumb
 926              		.thumb_func
 927              		.fpu fpv4-sp-d16
 929              	HAL_OPAMP_GetState:
 930              	.LVL70:
 931              	.LFB134:
 794:Drivers/STM32F3xx_HAL_Driver/Src/stm32f3xx_hal_opamp.c **** 
 795:Drivers/STM32F3xx_HAL_Driver/Src/stm32f3xx_hal_opamp.c **** /**
 796:Drivers/STM32F3xx_HAL_Driver/Src/stm32f3xx_hal_opamp.c ****   * @}
 797:Drivers/STM32F3xx_HAL_Driver/Src/stm32f3xx_hal_opamp.c ****   */
 798:Drivers/STM32F3xx_HAL_Driver/Src/stm32f3xx_hal_opamp.c **** 
 799:Drivers/STM32F3xx_HAL_Driver/Src/stm32f3xx_hal_opamp.c **** /** @defgroup OPAMP_Exported_Functions_Group4 Peripheral State functions 
 800:Drivers/STM32F3xx_HAL_Driver/Src/stm32f3xx_hal_opamp.c ****  *  @brief   Peripheral State functions 
 801:Drivers/STM32F3xx_HAL_Driver/Src/stm32f3xx_hal_opamp.c ****  *
 802:Drivers/STM32F3xx_HAL_Driver/Src/stm32f3xx_hal_opamp.c **** @verbatim   
 803:Drivers/STM32F3xx_HAL_Driver/Src/stm32f3xx_hal_opamp.c ****  ===============================================================================
 804:Drivers/STM32F3xx_HAL_Driver/Src/stm32f3xx_hal_opamp.c ****                       ##### Peripheral State functions #####
 805:Drivers/STM32F3xx_HAL_Driver/Src/stm32f3xx_hal_opamp.c ****  ===============================================================================  
 806:Drivers/STM32F3xx_HAL_Driver/Src/stm32f3xx_hal_opamp.c ****     [..]
 807:Drivers/STM32F3xx_HAL_Driver/Src/stm32f3xx_hal_opamp.c ****     This subsection permit to get in run-time the status of the peripheral 
 808:Drivers/STM32F3xx_HAL_Driver/Src/stm32f3xx_hal_opamp.c ****     and the data flow.
 809:Drivers/STM32F3xx_HAL_Driver/Src/stm32f3xx_hal_opamp.c **** 
 810:Drivers/STM32F3xx_HAL_Driver/Src/stm32f3xx_hal_opamp.c **** @endverbatim
 811:Drivers/STM32F3xx_HAL_Driver/Src/stm32f3xx_hal_opamp.c ****   * @{
 812:Drivers/STM32F3xx_HAL_Driver/Src/stm32f3xx_hal_opamp.c ****   */
 813:Drivers/STM32F3xx_HAL_Driver/Src/stm32f3xx_hal_opamp.c **** 
 814:Drivers/STM32F3xx_HAL_Driver/Src/stm32f3xx_hal_opamp.c **** /**
 815:Drivers/STM32F3xx_HAL_Driver/Src/stm32f3xx_hal_opamp.c ****   * @brief  Return the OPAMP state
 816:Drivers/STM32F3xx_HAL_Driver/Src/stm32f3xx_hal_opamp.c ****   * @param  hopamp OPAMP handle
 817:Drivers/STM32F3xx_HAL_Driver/Src/stm32f3xx_hal_opamp.c ****   * @retval HAL state
 818:Drivers/STM32F3xx_HAL_Driver/Src/stm32f3xx_hal_opamp.c ****   */
 819:Drivers/STM32F3xx_HAL_Driver/Src/stm32f3xx_hal_opamp.c **** HAL_OPAMP_StateTypeDef HAL_OPAMP_GetState(OPAMP_HandleTypeDef *hopamp)
 820:Drivers/STM32F3xx_HAL_Driver/Src/stm32f3xx_hal_opamp.c **** {
 932              		.loc 1 820 1 is_stmt 1 view -0
 933              		.cfi_startproc
 934              		@ args = 0, pretend = 0, frame = 0
 935              		@ frame_needed = 0, uses_anonymous_args = 0
 936              		@ link register save eliminated.
 821:Drivers/STM32F3xx_HAL_Driver/Src/stm32f3xx_hal_opamp.c ****   /* Check the OPAMP handle allocation */
 822:Drivers/STM32F3xx_HAL_Driver/Src/stm32f3xx_hal_opamp.c ****   if(hopamp == NULL)
 937              		.loc 1 822 3 view .LVU260
 938              		.loc 1 822 5 is_stmt 0 view .LVU261
 939 0000 18B1     		cbz	r0, .L73
 823:Drivers/STM32F3xx_HAL_Driver/Src/stm32f3xx_hal_opamp.c ****   {
 824:Drivers/STM32F3xx_HAL_Driver/Src/stm32f3xx_hal_opamp.c ****     return HAL_OPAMP_STATE_RESET;
 825:Drivers/STM32F3xx_HAL_Driver/Src/stm32f3xx_hal_opamp.c ****   }
 826:Drivers/STM32F3xx_HAL_Driver/Src/stm32f3xx_hal_opamp.c **** 
ARM GAS  /var/folders/md/lgcc8l7571l9vt9sx0g0zflw0000gn/T//ccmnh1CJ.s 			page 35


 827:Drivers/STM32F3xx_HAL_Driver/Src/stm32f3xx_hal_opamp.c ****   /* Check the parameter */
 828:Drivers/STM32F3xx_HAL_Driver/Src/stm32f3xx_hal_opamp.c ****   assert_param(IS_OPAMP_ALL_INSTANCE(hopamp->Instance));
 940              		.loc 1 828 3 is_stmt 1 view .LVU262
 829:Drivers/STM32F3xx_HAL_Driver/Src/stm32f3xx_hal_opamp.c **** 
 830:Drivers/STM32F3xx_HAL_Driver/Src/stm32f3xx_hal_opamp.c ****   return hopamp->State;
 941              		.loc 1 830 3 view .LVU263
 942              		.loc 1 830 16 is_stmt 0 view .LVU264
 943 0002 90F83200 		ldrb	r0, [r0, #50]	@ zero_extendqisi2
 944              	.LVL71:
 945              		.loc 1 830 16 view .LVU265
 946 0006 C0B2     		uxtb	r0, r0
 947 0008 7047     		bx	lr
 948              	.LVL72:
 949              	.L73:
 824:Drivers/STM32F3xx_HAL_Driver/Src/stm32f3xx_hal_opamp.c ****   }
 950              		.loc 1 824 12 view .LVU266
 951 000a 0020     		movs	r0, #0
 952              	.LVL73:
 831:Drivers/STM32F3xx_HAL_Driver/Src/stm32f3xx_hal_opamp.c **** }
 953              		.loc 1 831 1 view .LVU267
 954 000c 7047     		bx	lr
 955              		.cfi_endproc
 956              	.LFE134:
 958              		.section	.text.HAL_OPAMP_GetTrimOffset,"ax",%progbits
 959              		.align	1
 960              		.global	HAL_OPAMP_GetTrimOffset
 961              		.syntax unified
 962              		.thumb
 963              		.thumb_func
 964              		.fpu fpv4-sp-d16
 966              	HAL_OPAMP_GetTrimOffset:
 967              	.LVL74:
 968              	.LFB135:
 832:Drivers/STM32F3xx_HAL_Driver/Src/stm32f3xx_hal_opamp.c **** 
 833:Drivers/STM32F3xx_HAL_Driver/Src/stm32f3xx_hal_opamp.c **** /**
 834:Drivers/STM32F3xx_HAL_Driver/Src/stm32f3xx_hal_opamp.c ****   * @brief  Return the OPAMP factory trimming value
 835:Drivers/STM32F3xx_HAL_Driver/Src/stm32f3xx_hal_opamp.c ****   * @param  hopamp OPAMP handle
 836:Drivers/STM32F3xx_HAL_Driver/Src/stm32f3xx_hal_opamp.c ****   * @param  trimmingoffset Trimming offset (P or N)
 837:Drivers/STM32F3xx_HAL_Driver/Src/stm32f3xx_hal_opamp.c ****   * @retval Trimming value (P or N): range: 0->31
 838:Drivers/STM32F3xx_HAL_Driver/Src/stm32f3xx_hal_opamp.c ****   *         or OPAMP_FACTORYTRIMMING_DUMMY if trimming value is not available
 839:Drivers/STM32F3xx_HAL_Driver/Src/stm32f3xx_hal_opamp.c ****  */
 840:Drivers/STM32F3xx_HAL_Driver/Src/stm32f3xx_hal_opamp.c **** 
 841:Drivers/STM32F3xx_HAL_Driver/Src/stm32f3xx_hal_opamp.c **** OPAMP_TrimmingValueTypeDef HAL_OPAMP_GetTrimOffset (OPAMP_HandleTypeDef *hopamp, uint32_t trimmingo
 842:Drivers/STM32F3xx_HAL_Driver/Src/stm32f3xx_hal_opamp.c **** {
 969              		.loc 1 842 1 is_stmt 1 view -0
 970              		.cfi_startproc
 971              		@ args = 0, pretend = 0, frame = 0
 972              		@ frame_needed = 0, uses_anonymous_args = 0
 973              		@ link register save eliminated.
 843:Drivers/STM32F3xx_HAL_Driver/Src/stm32f3xx_hal_opamp.c ****   uint32_t oldusertrimming = 0U;
 974              		.loc 1 843 3 view .LVU269
 844:Drivers/STM32F3xx_HAL_Driver/Src/stm32f3xx_hal_opamp.c ****   OPAMP_TrimmingValueTypeDef  oldtrimmingvaluep = 0U, oldtrimmingvaluen = 0U, trimmingvalue = 0U;
 975              		.loc 1 844 3 view .LVU270
 845:Drivers/STM32F3xx_HAL_Driver/Src/stm32f3xx_hal_opamp.c ****   
 846:Drivers/STM32F3xx_HAL_Driver/Src/stm32f3xx_hal_opamp.c ****   /* Check the OPAMP handle allocation */
 847:Drivers/STM32F3xx_HAL_Driver/Src/stm32f3xx_hal_opamp.c ****   /* Value can be retrieved in HAL_OPAMP_STATE_READY state */
 848:Drivers/STM32F3xx_HAL_Driver/Src/stm32f3xx_hal_opamp.c ****   if((hopamp == NULL) || (hopamp->State == HAL_OPAMP_STATE_RESET) \
ARM GAS  /var/folders/md/lgcc8l7571l9vt9sx0g0zflw0000gn/T//ccmnh1CJ.s 			page 36


 976              		.loc 1 848 3 view .LVU271
 977              		.loc 1 848 5 is_stmt 0 view .LVU272
 978 0000 0028     		cmp	r0, #0
 979 0002 4AD0     		beq	.L79
 980 0004 0346     		mov	r3, r0
 981              		.loc 1 848 33 discriminator 1 view .LVU273
 982 0006 90F83220 		ldrb	r2, [r0, #50]	@ zero_extendqisi2
 983              		.loc 1 848 23 discriminator 1 view .LVU274
 984 000a 002A     		cmp	r2, #0
 985 000c 48D0     		beq	.L80
 849:Drivers/STM32F3xx_HAL_Driver/Src/stm32f3xx_hal_opamp.c ****                       || (hopamp->State == HAL_OPAMP_STATE_BUSY) \
 986              		.loc 1 849 33 view .LVU275
 987 000e 90F83220 		ldrb	r2, [r0, #50]	@ zero_extendqisi2
 988 0012 D2B2     		uxtb	r2, r2
 989              		.loc 1 849 23 view .LVU276
 990 0014 042A     		cmp	r2, #4
 991 0016 46D0     		beq	.L81
 850:Drivers/STM32F3xx_HAL_Driver/Src/stm32f3xx_hal_opamp.c ****                       || (hopamp->State == HAL_OPAMP_STATE_CALIBBUSY)\
 992              		.loc 1 850 33 view .LVU277
 993 0018 90F83220 		ldrb	r2, [r0, #50]	@ zero_extendqisi2
 994 001c D2B2     		uxtb	r2, r2
 995              		.loc 1 850 23 view .LVU278
 996 001e 022A     		cmp	r2, #2
 997 0020 44D0     		beq	.L82
 851:Drivers/STM32F3xx_HAL_Driver/Src/stm32f3xx_hal_opamp.c ****                       || (hopamp->State == HAL_OPAMP_STATE_BUSYLOCKED))
 998              		.loc 1 851 33 view .LVU279
 999 0022 90F83220 		ldrb	r2, [r0, #50]	@ zero_extendqisi2
 1000 0026 D2B2     		uxtb	r2, r2
 1001              		.loc 1 851 23 view .LVU280
 1002 0028 052A     		cmp	r2, #5
 1003 002a 42D0     		beq	.L83
 842:Drivers/STM32F3xx_HAL_Driver/Src/stm32f3xx_hal_opamp.c ****   uint32_t oldusertrimming = 0U;
 1004              		.loc 1 842 1 view .LVU281
 1005 002c 70B4     		push	{r4, r5, r6}
 1006              	.LCFI10:
 1007              		.cfi_def_cfa_offset 12
 1008              		.cfi_offset 4, -12
 1009              		.cfi_offset 5, -8
 1010              		.cfi_offset 6, -4
 852:Drivers/STM32F3xx_HAL_Driver/Src/stm32f3xx_hal_opamp.c ****   {
 853:Drivers/STM32F3xx_HAL_Driver/Src/stm32f3xx_hal_opamp.c ****     return OPAMP_FACTORYTRIMMING_DUMMY;
 854:Drivers/STM32F3xx_HAL_Driver/Src/stm32f3xx_hal_opamp.c ****   }
 855:Drivers/STM32F3xx_HAL_Driver/Src/stm32f3xx_hal_opamp.c ****   else
 856:Drivers/STM32F3xx_HAL_Driver/Src/stm32f3xx_hal_opamp.c ****   {
 857:Drivers/STM32F3xx_HAL_Driver/Src/stm32f3xx_hal_opamp.c ****     /* Check the parameter */
 858:Drivers/STM32F3xx_HAL_Driver/Src/stm32f3xx_hal_opamp.c ****     assert_param(IS_OPAMP_ALL_INSTANCE(hopamp->Instance));
 1011              		.loc 1 858 5 is_stmt 1 view .LVU282
 859:Drivers/STM32F3xx_HAL_Driver/Src/stm32f3xx_hal_opamp.c ****     assert_param(IS_OPAMP_FACTORYTRIMMING(trimmingoffset));
 1012              		.loc 1 859 5 view .LVU283
 860:Drivers/STM32F3xx_HAL_Driver/Src/stm32f3xx_hal_opamp.c ****     
 861:Drivers/STM32F3xx_HAL_Driver/Src/stm32f3xx_hal_opamp.c ****     /* Check the trimming mode */
 862:Drivers/STM32F3xx_HAL_Driver/Src/stm32f3xx_hal_opamp.c ****     if ((READ_BIT(hopamp->Instance->CSR,OPAMP_CSR_USERTRIM)) != RESET) 
 1013              		.loc 1 862 5 view .LVU284
 1014              		.loc 1 862 10 is_stmt 0 view .LVU285
 1015 002e 0068     		ldr	r0, [r0]
 1016              	.LVL75:
 1017              		.loc 1 862 10 view .LVU286
ARM GAS  /var/folders/md/lgcc8l7571l9vt9sx0g0zflw0000gn/T//ccmnh1CJ.s 			page 37


 1018 0030 0268     		ldr	r2, [r0]
 1019              		.loc 1 862 8 view .LVU287
 1020 0032 12F48022 		ands	r2, r2, #262144
 1021 0036 08D0     		beq	.L84
 863:Drivers/STM32F3xx_HAL_Driver/Src/stm32f3xx_hal_opamp.c ****     {
 864:Drivers/STM32F3xx_HAL_Driver/Src/stm32f3xx_hal_opamp.c ****       /* User trimming is used */
 865:Drivers/STM32F3xx_HAL_Driver/Src/stm32f3xx_hal_opamp.c ****       oldusertrimming = OPAMP_TRIMMING_USER;
 1022              		.loc 1 865 7 is_stmt 1 view .LVU288
 1023              	.LVL76:
 866:Drivers/STM32F3xx_HAL_Driver/Src/stm32f3xx_hal_opamp.c ****       /* Store the TrimmingValueP & TrimmingValueN */
 867:Drivers/STM32F3xx_HAL_Driver/Src/stm32f3xx_hal_opamp.c ****       oldtrimmingvaluep = (hopamp->Instance->CSR & OPAMP_CSR_TRIMOFFSETP) >> OPAMP_INPUT_NONINVERTI
 1024              		.loc 1 867 7 view .LVU289
 1025              		.loc 1 867 44 is_stmt 0 view .LVU290
 1026 0038 0668     		ldr	r6, [r0]
 1027              		.loc 1 867 25 view .LVU291
 1028 003a C6F3C446 		ubfx	r6, r6, #19, #5
 1029              	.LVL77:
 868:Drivers/STM32F3xx_HAL_Driver/Src/stm32f3xx_hal_opamp.c ****       oldtrimmingvaluen = (hopamp->Instance->CSR & OPAMP_CSR_TRIMOFFSETN) >> OPAMP_INPUT_INVERTING;
 1030              		.loc 1 868 7 is_stmt 1 view .LVU292
 1031              		.loc 1 868 44 is_stmt 0 view .LVU293
 1032 003e 0568     		ldr	r5, [r0]
 1033              		.loc 1 868 25 view .LVU294
 1034 0040 C5F30465 		ubfx	r5, r5, #24, #5
 1035              	.LVL78:
 865:Drivers/STM32F3xx_HAL_Driver/Src/stm32f3xx_hal_opamp.c ****       /* Store the TrimmingValueP & TrimmingValueN */
 1036              		.loc 1 865 23 view .LVU295
 1037 0044 4FF48022 		mov	r2, #262144
 1038 0048 01E0     		b	.L76
 1039              	.LVL79:
 1040              	.L84:
 844:Drivers/STM32F3xx_HAL_Driver/Src/stm32f3xx_hal_opamp.c ****   
 1041              		.loc 1 844 55 view .LVU296
 1042 004a 1546     		mov	r5, r2
 844:Drivers/STM32F3xx_HAL_Driver/Src/stm32f3xx_hal_opamp.c ****   
 1043              		.loc 1 844 31 view .LVU297
 1044 004c 1646     		mov	r6, r2
 1045              	.LVL80:
 1046              	.L76:
 869:Drivers/STM32F3xx_HAL_Driver/Src/stm32f3xx_hal_opamp.c ****     }
 870:Drivers/STM32F3xx_HAL_Driver/Src/stm32f3xx_hal_opamp.c ****     
 871:Drivers/STM32F3xx_HAL_Driver/Src/stm32f3xx_hal_opamp.c ****     /* Set factory timming mode */
 872:Drivers/STM32F3xx_HAL_Driver/Src/stm32f3xx_hal_opamp.c ****     CLEAR_BIT (hopamp->Instance->CSR, OPAMP_CSR_USERTRIM);
 1047              		.loc 1 872 5 is_stmt 1 view .LVU298
 1048 004e 0468     		ldr	r4, [r0]
 1049 0050 24F48024 		bic	r4, r4, #262144
 1050 0054 0460     		str	r4, [r0]
 873:Drivers/STM32F3xx_HAL_Driver/Src/stm32f3xx_hal_opamp.c ****     
 874:Drivers/STM32F3xx_HAL_Driver/Src/stm32f3xx_hal_opamp.c ****     /* Get factory trimming  */
 875:Drivers/STM32F3xx_HAL_Driver/Src/stm32f3xx_hal_opamp.c ****     if (trimmingoffset == OPAMP_FACTORYTRIMMING_P)
 1051              		.loc 1 875 5 view .LVU299
 1052              		.loc 1 875 8 is_stmt 0 view .LVU300
 1053 0056 0129     		cmp	r1, #1
 1054 0058 06D0     		beq	.L89
 876:Drivers/STM32F3xx_HAL_Driver/Src/stm32f3xx_hal_opamp.c ****     {
 877:Drivers/STM32F3xx_HAL_Driver/Src/stm32f3xx_hal_opamp.c ****       /* Return TrimOffsetP */
 878:Drivers/STM32F3xx_HAL_Driver/Src/stm32f3xx_hal_opamp.c ****      trimmingvalue = ((hopamp->Instance->CSR & OPAMP_CSR_TRIMOFFSETP) >> OPAMP_INPUT_NONINVERTING);
 879:Drivers/STM32F3xx_HAL_Driver/Src/stm32f3xx_hal_opamp.c ****     }
ARM GAS  /var/folders/md/lgcc8l7571l9vt9sx0g0zflw0000gn/T//ccmnh1CJ.s 			page 38


 880:Drivers/STM32F3xx_HAL_Driver/Src/stm32f3xx_hal_opamp.c ****     else 
 881:Drivers/STM32F3xx_HAL_Driver/Src/stm32f3xx_hal_opamp.c ****     {
 882:Drivers/STM32F3xx_HAL_Driver/Src/stm32f3xx_hal_opamp.c ****       /* Return TrimOffsetN */
 883:Drivers/STM32F3xx_HAL_Driver/Src/stm32f3xx_hal_opamp.c ****       trimmingvalue = ((hopamp->Instance->CSR & OPAMP_CSR_TRIMOFFSETN) >> OPAMP_INPUT_INVERTING);
 1055              		.loc 1 883 7 is_stmt 1 view .LVU301
 1056              		.loc 1 883 31 is_stmt 0 view .LVU302
 1057 005a 1968     		ldr	r1, [r3]
 1058              	.LVL81:
 1059              		.loc 1 883 41 view .LVU303
 1060 005c 0868     		ldr	r0, [r1]
 1061              		.loc 1 883 21 view .LVU304
 1062 005e C0F30460 		ubfx	r0, r0, #24, #5
 1063              	.LVL82:
 1064              	.L78:
 884:Drivers/STM32F3xx_HAL_Driver/Src/stm32f3xx_hal_opamp.c ****     }
 885:Drivers/STM32F3xx_HAL_Driver/Src/stm32f3xx_hal_opamp.c ****     
 886:Drivers/STM32F3xx_HAL_Driver/Src/stm32f3xx_hal_opamp.c ****     /* Restore user trimming configuration if it was formerly set */
 887:Drivers/STM32F3xx_HAL_Driver/Src/stm32f3xx_hal_opamp.c ****     /* Check if user trimming was used */
 888:Drivers/STM32F3xx_HAL_Driver/Src/stm32f3xx_hal_opamp.c ****     if (oldusertrimming == OPAMP_TRIMMING_USER) 
 1065              		.loc 1 888 5 is_stmt 1 view .LVU305
 1066              		.loc 1 888 8 is_stmt 0 view .LVU306
 1067 0062 32B9     		cbnz	r2, .L90
 1068              	.LVL83:
 1069              	.L74:
 889:Drivers/STM32F3xx_HAL_Driver/Src/stm32f3xx_hal_opamp.c ****     {
 890:Drivers/STM32F3xx_HAL_Driver/Src/stm32f3xx_hal_opamp.c ****       /* Restore user trimming */
 891:Drivers/STM32F3xx_HAL_Driver/Src/stm32f3xx_hal_opamp.c ****       SET_BIT(hopamp->Instance->CSR,OPAMP_CSR_USERTRIM);
 892:Drivers/STM32F3xx_HAL_Driver/Src/stm32f3xx_hal_opamp.c ****       MODIFY_REG(hopamp->Instance->CSR, OPAMP_CSR_TRIMOFFSETP, oldtrimmingvaluep<<OPAMP_INPUT_NONIN
 893:Drivers/STM32F3xx_HAL_Driver/Src/stm32f3xx_hal_opamp.c ****       MODIFY_REG(hopamp->Instance->CSR, OPAMP_CSR_TRIMOFFSETN, oldtrimmingvaluen<<OPAMP_INPUT_INVER
 894:Drivers/STM32F3xx_HAL_Driver/Src/stm32f3xx_hal_opamp.c ****     }
 895:Drivers/STM32F3xx_HAL_Driver/Src/stm32f3xx_hal_opamp.c ****   }  
 896:Drivers/STM32F3xx_HAL_Driver/Src/stm32f3xx_hal_opamp.c ****   return trimmingvalue;
 897:Drivers/STM32F3xx_HAL_Driver/Src/stm32f3xx_hal_opamp.c **** }
 1070              		.loc 1 897 1 view .LVU307
 1071 0064 70BC     		pop	{r4, r5, r6}
 1072              	.LCFI11:
 1073              		.cfi_remember_state
 1074              		.cfi_restore 6
 1075              		.cfi_restore 5
 1076              		.cfi_restore 4
 1077              		.cfi_def_cfa_offset 0
 1078              	.LVL84:
 1079              		.loc 1 897 1 view .LVU308
 1080 0066 7047     		bx	lr
 1081              	.LVL85:
 1082              	.L89:
 1083              	.LCFI12:
 1084              		.cfi_restore_state
 878:Drivers/STM32F3xx_HAL_Driver/Src/stm32f3xx_hal_opamp.c ****     }
 1085              		.loc 1 878 6 is_stmt 1 view .LVU309
 878:Drivers/STM32F3xx_HAL_Driver/Src/stm32f3xx_hal_opamp.c ****     }
 1086              		.loc 1 878 30 is_stmt 0 view .LVU310
 1087 0068 1968     		ldr	r1, [r3]
 1088              	.LVL86:
 878:Drivers/STM32F3xx_HAL_Driver/Src/stm32f3xx_hal_opamp.c ****     }
 1089              		.loc 1 878 40 view .LVU311
 1090 006a 0868     		ldr	r0, [r1]
ARM GAS  /var/folders/md/lgcc8l7571l9vt9sx0g0zflw0000gn/T//ccmnh1CJ.s 			page 39


 878:Drivers/STM32F3xx_HAL_Driver/Src/stm32f3xx_hal_opamp.c ****     }
 1091              		.loc 1 878 20 view .LVU312
 1092 006c C0F3C440 		ubfx	r0, r0, #19, #5
 1093              	.LVL87:
 878:Drivers/STM32F3xx_HAL_Driver/Src/stm32f3xx_hal_opamp.c ****     }
 1094              		.loc 1 878 20 view .LVU313
 1095 0070 F7E7     		b	.L78
 1096              	.L90:
 891:Drivers/STM32F3xx_HAL_Driver/Src/stm32f3xx_hal_opamp.c ****       MODIFY_REG(hopamp->Instance->CSR, OPAMP_CSR_TRIMOFFSETP, oldtrimmingvaluep<<OPAMP_INPUT_NONIN
 1097              		.loc 1 891 7 is_stmt 1 view .LVU314
 1098 0072 1A68     		ldr	r2, [r3]
 1099              	.LVL88:
 891:Drivers/STM32F3xx_HAL_Driver/Src/stm32f3xx_hal_opamp.c ****       MODIFY_REG(hopamp->Instance->CSR, OPAMP_CSR_TRIMOFFSETP, oldtrimmingvaluep<<OPAMP_INPUT_NONIN
 1100              		.loc 1 891 7 is_stmt 0 view .LVU315
 1101 0074 1168     		ldr	r1, [r2]
 1102 0076 41F48021 		orr	r1, r1, #262144
 1103 007a 1160     		str	r1, [r2]
 892:Drivers/STM32F3xx_HAL_Driver/Src/stm32f3xx_hal_opamp.c ****       MODIFY_REG(hopamp->Instance->CSR, OPAMP_CSR_TRIMOFFSETN, oldtrimmingvaluen<<OPAMP_INPUT_INVER
 1104              		.loc 1 892 7 is_stmt 1 view .LVU316
 1105 007c 1968     		ldr	r1, [r3]
 1106 007e 0A68     		ldr	r2, [r1]
 1107 0080 22F47802 		bic	r2, r2, #16252928
 1108 0084 42EAC642 		orr	r2, r2, r6, lsl #19
 1109 0088 0A60     		str	r2, [r1]
 893:Drivers/STM32F3xx_HAL_Driver/Src/stm32f3xx_hal_opamp.c ****     }
 1110              		.loc 1 893 7 view .LVU317
 1111 008a 1A68     		ldr	r2, [r3]
 1112 008c 1368     		ldr	r3, [r2]
 1113              	.LVL89:
 893:Drivers/STM32F3xx_HAL_Driver/Src/stm32f3xx_hal_opamp.c ****     }
 1114              		.loc 1 893 7 is_stmt 0 view .LVU318
 1115 008e 23F0F853 		bic	r3, r3, #520093696
 1116 0092 43EA0565 		orr	r5, r3, r5, lsl #24
 1117              	.LVL90:
 893:Drivers/STM32F3xx_HAL_Driver/Src/stm32f3xx_hal_opamp.c ****     }
 1118              		.loc 1 893 7 view .LVU319
 1119 0096 1560     		str	r5, [r2]
 1120 0098 E4E7     		b	.L74
 1121              	.LVL91:
 1122              	.L79:
 1123              	.LCFI13:
 1124              		.cfi_def_cfa_offset 0
 1125              		.cfi_restore 4
 1126              		.cfi_restore 5
 1127              		.cfi_restore 6
 853:Drivers/STM32F3xx_HAL_Driver/Src/stm32f3xx_hal_opamp.c ****   }
 1128              		.loc 1 853 12 view .LVU320
 1129 009a 4FF0FF30 		mov	r0, #-1
 1130              	.LVL92:
 853:Drivers/STM32F3xx_HAL_Driver/Src/stm32f3xx_hal_opamp.c ****   }
 1131              		.loc 1 853 12 view .LVU321
 1132 009e 7047     		bx	lr
 1133              	.LVL93:
 1134              	.L80:
 853:Drivers/STM32F3xx_HAL_Driver/Src/stm32f3xx_hal_opamp.c ****   }
 1135              		.loc 1 853 12 view .LVU322
 1136 00a0 4FF0FF30 		mov	r0, #-1
ARM GAS  /var/folders/md/lgcc8l7571l9vt9sx0g0zflw0000gn/T//ccmnh1CJ.s 			page 40


 1137              	.LVL94:
 853:Drivers/STM32F3xx_HAL_Driver/Src/stm32f3xx_hal_opamp.c ****   }
 1138              		.loc 1 853 12 view .LVU323
 1139 00a4 7047     		bx	lr
 1140              	.LVL95:
 1141              	.L81:
 853:Drivers/STM32F3xx_HAL_Driver/Src/stm32f3xx_hal_opamp.c ****   }
 1142              		.loc 1 853 12 view .LVU324
 1143 00a6 4FF0FF30 		mov	r0, #-1
 1144              	.LVL96:
 853:Drivers/STM32F3xx_HAL_Driver/Src/stm32f3xx_hal_opamp.c ****   }
 1145              		.loc 1 853 12 view .LVU325
 1146 00aa 7047     		bx	lr
 1147              	.LVL97:
 1148              	.L82:
 853:Drivers/STM32F3xx_HAL_Driver/Src/stm32f3xx_hal_opamp.c ****   }
 1149              		.loc 1 853 12 view .LVU326
 1150 00ac 4FF0FF30 		mov	r0, #-1
 1151              	.LVL98:
 853:Drivers/STM32F3xx_HAL_Driver/Src/stm32f3xx_hal_opamp.c ****   }
 1152              		.loc 1 853 12 view .LVU327
 1153 00b0 7047     		bx	lr
 1154              	.LVL99:
 1155              	.L83:
 853:Drivers/STM32F3xx_HAL_Driver/Src/stm32f3xx_hal_opamp.c ****   }
 1156              		.loc 1 853 12 view .LVU328
 1157 00b2 4FF0FF30 		mov	r0, #-1
 1158              	.LVL100:
 1159              		.loc 1 897 1 view .LVU329
 1160 00b6 7047     		bx	lr
 1161              		.cfi_endproc
 1162              	.LFE135:
 1164              		.text
 1165              	.Letext0:
 1166              		.file 2 "/usr/local/gcc-arm-none-eabi-8-2019-q3-update/arm-none-eabi/include/machine/_default_type
 1167              		.file 3 "/usr/local/gcc-arm-none-eabi-8-2019-q3-update/arm-none-eabi/include/sys/_stdint.h"
 1168              		.file 4 "Drivers/CMSIS/Include/core_cm4.h"
 1169              		.file 5 "Drivers/CMSIS/Device/ST/STM32F3xx/Include/system_stm32f3xx.h"
 1170              		.file 6 "Drivers/CMSIS/Device/ST/STM32F3xx/Include/stm32f303xe.h"
 1171              		.file 7 "/usr/local/gcc-arm-none-eabi-8-2019-q3-update/lib/gcc/arm-none-eabi/8.3.1/include/stddef.
 1172              		.file 8 "/usr/local/gcc-arm-none-eabi-8-2019-q3-update/arm-none-eabi/include/sys/_types.h"
 1173              		.file 9 "/usr/local/gcc-arm-none-eabi-8-2019-q3-update/arm-none-eabi/include/sys/reent.h"
 1174              		.file 10 "/usr/local/gcc-arm-none-eabi-8-2019-q3-update/arm-none-eabi/include/sys/lock.h"
 1175              		.file 11 "Drivers/CMSIS/Device/ST/STM32F3xx/Include/stm32f3xx.h"
 1176              		.file 12 "Drivers/STM32F3xx_HAL_Driver/Inc/stm32f3xx_hal_def.h"
 1177              		.file 13 "Drivers/STM32F3xx_HAL_Driver/Inc/stm32f3xx_hal_opamp.h"
 1178              		.file 14 "Drivers/STM32F3xx_HAL_Driver/Inc/stm32f3xx_hal.h"
ARM GAS  /var/folders/md/lgcc8l7571l9vt9sx0g0zflw0000gn/T//ccmnh1CJ.s 			page 41

