ARM GAS  /var/folders/md/lgcc8l7571l9vt9sx0g0zflw0000gn/T//ccF16Ed7.s 			page 1


   1              		.cpu cortex-m4
   2              		.eabi_attribute 27, 1
   3              		.eabi_attribute 28, 1
   4              		.eabi_attribute 20, 1
   5              		.eabi_attribute 21, 1
   6              		.eabi_attribute 23, 3
   7              		.eabi_attribute 24, 1
   8              		.eabi_attribute 25, 1
   9              		.eabi_attribute 26, 1
  10              		.eabi_attribute 30, 1
  11              		.eabi_attribute 34, 1
  12              		.eabi_attribute 18, 4
  13              		.file	"usart.c"
  14              		.text
  15              	.Ltext0:
  16              		.cfi_sections	.debug_frame
  17              		.section	.text.MX_USART1_UART_Init,"ax",%progbits
  18              		.align	1
  19              		.global	MX_USART1_UART_Init
  20              		.arch armv7e-m
  21              		.syntax unified
  22              		.thumb
  23              		.thumb_func
  24              		.fpu fpv4-sp-d16
  26              	MX_USART1_UART_Init:
  27              	.LFB126:
  28              		.file 1 "Src/usart.c"
   1:Src/usart.c   **** /**
   2:Src/usart.c   ****   ******************************************************************************
   3:Src/usart.c   ****   * File Name          : USART.c
   4:Src/usart.c   ****   * Description        : This file provides code for the configuration
   5:Src/usart.c   ****   *                      of the USART instances.
   6:Src/usart.c   ****   ******************************************************************************
   7:Src/usart.c   ****   ** This notice applies to any and all portions of this file
   8:Src/usart.c   ****   * that are not between comment pairs USER CODE BEGIN and
   9:Src/usart.c   ****   * USER CODE END. Other portions of this file, whether 
  10:Src/usart.c   ****   * inserted by the user or by software development tools
  11:Src/usart.c   ****   * are owned by their respective copyright owners.
  12:Src/usart.c   ****   *
  13:Src/usart.c   ****   * COPYRIGHT(c) 2020 STMicroelectronics
  14:Src/usart.c   ****   *
  15:Src/usart.c   ****   * Redistribution and use in source and binary forms, with or without modification,
  16:Src/usart.c   ****   * are permitted provided that the following conditions are met:
  17:Src/usart.c   ****   *   1. Redistributions of source code must retain the above copyright notice,
  18:Src/usart.c   ****   *      this list of conditions and the following disclaimer.
  19:Src/usart.c   ****   *   2. Redistributions in binary form must reproduce the above copyright notice,
  20:Src/usart.c   ****   *      this list of conditions and the following disclaimer in the documentation
  21:Src/usart.c   ****   *      and/or other materials provided with the distribution.
  22:Src/usart.c   ****   *   3. Neither the name of STMicroelectronics nor the names of its contributors
  23:Src/usart.c   ****   *      may be used to endorse or promote products derived from this software
  24:Src/usart.c   ****   *      without specific prior written permission.
  25:Src/usart.c   ****   *
  26:Src/usart.c   ****   * THIS SOFTWARE IS PROVIDED BY THE COPYRIGHT HOLDERS AND CONTRIBUTORS "AS IS"
  27:Src/usart.c   ****   * AND ANY EXPRESS OR IMPLIED WARRANTIES, INCLUDING, BUT NOT LIMITED TO, THE
  28:Src/usart.c   ****   * IMPLIED WARRANTIES OF MERCHANTABILITY AND FITNESS FOR A PARTICULAR PURPOSE ARE
  29:Src/usart.c   ****   * DISCLAIMED. IN NO EVENT SHALL THE COPYRIGHT HOLDER OR CONTRIBUTORS BE LIABLE
  30:Src/usart.c   ****   * FOR ANY DIRECT, INDIRECT, INCIDENTAL, SPECIAL, EXEMPLARY, OR CONSEQUENTIAL
ARM GAS  /var/folders/md/lgcc8l7571l9vt9sx0g0zflw0000gn/T//ccF16Ed7.s 			page 2


  31:Src/usart.c   ****   * DAMAGES (INCLUDING, BUT NOT LIMITED TO, PROCUREMENT OF SUBSTITUTE GOODS OR
  32:Src/usart.c   ****   * SERVICES; LOSS OF USE, DATA, OR PROFITS; OR BUSINESS INTERRUPTION) HOWEVER
  33:Src/usart.c   ****   * CAUSED AND ON ANY THEORY OF LIABILITY, WHETHER IN CONTRACT, STRICT LIABILITY,
  34:Src/usart.c   ****   * OR TORT (INCLUDING NEGLIGENCE OR OTHERWISE) ARISING IN ANY WAY OUT OF THE USE
  35:Src/usart.c   ****   * OF THIS SOFTWARE, EVEN IF ADVISED OF THE POSSIBILITY OF SUCH DAMAGE.
  36:Src/usart.c   ****   *
  37:Src/usart.c   ****   ******************************************************************************
  38:Src/usart.c   ****   */
  39:Src/usart.c   **** 
  40:Src/usart.c   **** /* Includes ------------------------------------------------------------------*/
  41:Src/usart.c   **** #include "usart.h"
  42:Src/usart.c   **** 
  43:Src/usart.c   **** #include "gpio.h"
  44:Src/usart.c   **** #include "dma.h"
  45:Src/usart.c   **** 
  46:Src/usart.c   **** /* USER CODE BEGIN 0 */
  47:Src/usart.c   **** #include <string.h>
  48:Src/usart.c   **** char log_buffer[150];
  49:Src/usart.c   **** /* USER CODE END 0 */
  50:Src/usart.c   **** 
  51:Src/usart.c   **** UART_HandleTypeDef huart1;
  52:Src/usart.c   **** UART_HandleTypeDef huart2;
  53:Src/usart.c   **** DMA_HandleTypeDef hdma_usart1_rx;
  54:Src/usart.c   **** DMA_HandleTypeDef hdma_usart1_tx;
  55:Src/usart.c   **** 
  56:Src/usart.c   **** /* USART1 init function */
  57:Src/usart.c   **** 
  58:Src/usart.c   **** void MX_USART1_UART_Init(void)
  59:Src/usart.c   **** {
  29              		.loc 1 59 1 view -0
  30              		.cfi_startproc
  31              		@ args = 0, pretend = 0, frame = 0
  32              		@ frame_needed = 0, uses_anonymous_args = 0
  33 0000 08B5     		push	{r3, lr}
  34              	.LCFI0:
  35              		.cfi_def_cfa_offset 8
  36              		.cfi_offset 3, -8
  37              		.cfi_offset 14, -4
  60:Src/usart.c   **** 
  61:Src/usart.c   ****   huart1.Instance = USART1;
  38              		.loc 1 61 3 view .LVU1
  39              		.loc 1 61 19 is_stmt 0 view .LVU2
  40 0002 0E48     		ldr	r0, .L5
  41 0004 0E4B     		ldr	r3, .L5+4
  42 0006 0360     		str	r3, [r0]
  62:Src/usart.c   ****   huart1.Init.BaudRate = 460800;
  43              		.loc 1 62 3 is_stmt 1 view .LVU3
  44              		.loc 1 62 24 is_stmt 0 view .LVU4
  45 0008 4FF4E123 		mov	r3, #460800
  46 000c 4360     		str	r3, [r0, #4]
  63:Src/usart.c   ****   huart1.Init.WordLength = UART_WORDLENGTH_8B;
  47              		.loc 1 63 3 is_stmt 1 view .LVU5
  48              		.loc 1 63 26 is_stmt 0 view .LVU6
  49 000e 0023     		movs	r3, #0
  50 0010 8360     		str	r3, [r0, #8]
  64:Src/usart.c   ****   huart1.Init.StopBits = UART_STOPBITS_1;
  51              		.loc 1 64 3 is_stmt 1 view .LVU7
ARM GAS  /var/folders/md/lgcc8l7571l9vt9sx0g0zflw0000gn/T//ccF16Ed7.s 			page 3


  52              		.loc 1 64 24 is_stmt 0 view .LVU8
  53 0012 C360     		str	r3, [r0, #12]
  65:Src/usart.c   ****   huart1.Init.Parity = UART_PARITY_NONE;
  54              		.loc 1 65 3 is_stmt 1 view .LVU9
  55              		.loc 1 65 22 is_stmt 0 view .LVU10
  56 0014 0361     		str	r3, [r0, #16]
  66:Src/usart.c   ****   huart1.Init.Mode = UART_MODE_TX_RX;
  57              		.loc 1 66 3 is_stmt 1 view .LVU11
  58              		.loc 1 66 20 is_stmt 0 view .LVU12
  59 0016 0C22     		movs	r2, #12
  60 0018 4261     		str	r2, [r0, #20]
  67:Src/usart.c   ****   huart1.Init.HwFlowCtl = UART_HWCONTROL_NONE;
  61              		.loc 1 67 3 is_stmt 1 view .LVU13
  62              		.loc 1 67 25 is_stmt 0 view .LVU14
  63 001a 8361     		str	r3, [r0, #24]
  68:Src/usart.c   ****   huart1.Init.OverSampling = UART_OVERSAMPLING_16;
  64              		.loc 1 68 3 is_stmt 1 view .LVU15
  65              		.loc 1 68 28 is_stmt 0 view .LVU16
  66 001c C361     		str	r3, [r0, #28]
  69:Src/usart.c   ****   huart1.Init.OneBitSampling = UART_ONE_BIT_SAMPLE_DISABLE;
  67              		.loc 1 69 3 is_stmt 1 view .LVU17
  68              		.loc 1 69 30 is_stmt 0 view .LVU18
  69 001e 0362     		str	r3, [r0, #32]
  70:Src/usart.c   ****   huart1.AdvancedInit.AdvFeatureInit = UART_ADVFEATURE_DMADISABLEONERROR_INIT;
  70              		.loc 1 70 3 is_stmt 1 view .LVU19
  71              		.loc 1 70 38 is_stmt 0 view .LVU20
  72 0020 2023     		movs	r3, #32
  73 0022 4362     		str	r3, [r0, #36]
  71:Src/usart.c   ****   huart1.AdvancedInit.DMADisableonRxError = UART_ADVFEATURE_DMA_DISABLEONRXERROR;
  74              		.loc 1 71 3 is_stmt 1 view .LVU21
  75              		.loc 1 71 43 is_stmt 0 view .LVU22
  76 0024 4FF40053 		mov	r3, #8192
  77 0028 C363     		str	r3, [r0, #60]
  72:Src/usart.c   ****   if (HAL_UART_Init(&huart1) != HAL_OK)
  78              		.loc 1 72 3 is_stmt 1 view .LVU23
  79              		.loc 1 72 7 is_stmt 0 view .LVU24
  80 002a FFF7FEFF 		bl	HAL_UART_Init
  81              	.LVL0:
  82              		.loc 1 72 6 view .LVU25
  83 002e 00B9     		cbnz	r0, .L4
  84              	.L1:
  73:Src/usart.c   ****   {
  74:Src/usart.c   ****     _Error_Handler(__FILE__, __LINE__);
  75:Src/usart.c   ****   }
  76:Src/usart.c   **** 
  77:Src/usart.c   **** }
  85              		.loc 1 77 1 view .LVU26
  86 0030 08BD     		pop	{r3, pc}
  87              	.L4:
  74:Src/usart.c   ****   }
  88              		.loc 1 74 5 is_stmt 1 view .LVU27
  89 0032 4A21     		movs	r1, #74
  90 0034 0348     		ldr	r0, .L5+8
  91 0036 FFF7FEFF 		bl	_Error_Handler
  92              	.LVL1:
  93              		.loc 1 77 1 is_stmt 0 view .LVU28
  94 003a F9E7     		b	.L1
ARM GAS  /var/folders/md/lgcc8l7571l9vt9sx0g0zflw0000gn/T//ccF16Ed7.s 			page 4


  95              	.L6:
  96              		.align	2
  97              	.L5:
  98 003c 00000000 		.word	huart1
  99 0040 00380140 		.word	1073821696
 100 0044 00000000 		.word	.LC0
 101              		.cfi_endproc
 102              	.LFE126:
 104              		.section	.text.MX_USART2_UART_Init,"ax",%progbits
 105              		.align	1
 106              		.global	MX_USART2_UART_Init
 107              		.syntax unified
 108              		.thumb
 109              		.thumb_func
 110              		.fpu fpv4-sp-d16
 112              	MX_USART2_UART_Init:
 113              	.LFB127:
  78:Src/usart.c   **** /* USART2 init function */
  79:Src/usart.c   **** 
  80:Src/usart.c   **** void MX_USART2_UART_Init(void)
  81:Src/usart.c   **** {
 114              		.loc 1 81 1 is_stmt 1 view -0
 115              		.cfi_startproc
 116              		@ args = 0, pretend = 0, frame = 0
 117              		@ frame_needed = 0, uses_anonymous_args = 0
 118 0000 08B5     		push	{r3, lr}
 119              	.LCFI1:
 120              		.cfi_def_cfa_offset 8
 121              		.cfi_offset 3, -8
 122              		.cfi_offset 14, -4
  82:Src/usart.c   **** 
  83:Src/usart.c   ****   huart2.Instance = USART2;
 123              		.loc 1 83 3 view .LVU30
 124              		.loc 1 83 19 is_stmt 0 view .LVU31
 125 0002 0E48     		ldr	r0, .L11
 126 0004 0E4B     		ldr	r3, .L11+4
 127 0006 0360     		str	r3, [r0]
  84:Src/usart.c   ****   huart2.Init.BaudRate = 460800;
 128              		.loc 1 84 3 is_stmt 1 view .LVU32
 129              		.loc 1 84 24 is_stmt 0 view .LVU33
 130 0008 4FF4E123 		mov	r3, #460800
 131 000c 4360     		str	r3, [r0, #4]
  85:Src/usart.c   ****   huart2.Init.WordLength = UART_WORDLENGTH_8B;
 132              		.loc 1 85 3 is_stmt 1 view .LVU34
 133              		.loc 1 85 26 is_stmt 0 view .LVU35
 134 000e 0023     		movs	r3, #0
 135 0010 8360     		str	r3, [r0, #8]
  86:Src/usart.c   ****   huart2.Init.StopBits = UART_STOPBITS_1;
 136              		.loc 1 86 3 is_stmt 1 view .LVU36
 137              		.loc 1 86 24 is_stmt 0 view .LVU37
 138 0012 C360     		str	r3, [r0, #12]
  87:Src/usart.c   ****   huart2.Init.Parity = UART_PARITY_NONE;
 139              		.loc 1 87 3 is_stmt 1 view .LVU38
 140              		.loc 1 87 22 is_stmt 0 view .LVU39
 141 0014 0361     		str	r3, [r0, #16]
  88:Src/usart.c   ****   huart2.Init.Mode = UART_MODE_TX_RX;
 142              		.loc 1 88 3 is_stmt 1 view .LVU40
ARM GAS  /var/folders/md/lgcc8l7571l9vt9sx0g0zflw0000gn/T//ccF16Ed7.s 			page 5


 143              		.loc 1 88 20 is_stmt 0 view .LVU41
 144 0016 0C22     		movs	r2, #12
 145 0018 4261     		str	r2, [r0, #20]
  89:Src/usart.c   ****   huart2.Init.HwFlowCtl = UART_HWCONTROL_NONE;
 146              		.loc 1 89 3 is_stmt 1 view .LVU42
 147              		.loc 1 89 25 is_stmt 0 view .LVU43
 148 001a 8361     		str	r3, [r0, #24]
  90:Src/usart.c   ****   huart2.Init.OverSampling = UART_OVERSAMPLING_16;
 149              		.loc 1 90 3 is_stmt 1 view .LVU44
 150              		.loc 1 90 28 is_stmt 0 view .LVU45
 151 001c C361     		str	r3, [r0, #28]
  91:Src/usart.c   ****   huart2.Init.OneBitSampling = UART_ONE_BIT_SAMPLE_DISABLE;
 152              		.loc 1 91 3 is_stmt 1 view .LVU46
 153              		.loc 1 91 30 is_stmt 0 view .LVU47
 154 001e 0362     		str	r3, [r0, #32]
  92:Src/usart.c   ****   huart2.AdvancedInit.AdvFeatureInit = UART_ADVFEATURE_DMADISABLEONERROR_INIT;
 155              		.loc 1 92 3 is_stmt 1 view .LVU48
 156              		.loc 1 92 38 is_stmt 0 view .LVU49
 157 0020 2023     		movs	r3, #32
 158 0022 4362     		str	r3, [r0, #36]
  93:Src/usart.c   ****   huart2.AdvancedInit.DMADisableonRxError = UART_ADVFEATURE_DMA_DISABLEONRXERROR;
 159              		.loc 1 93 3 is_stmt 1 view .LVU50
 160              		.loc 1 93 43 is_stmt 0 view .LVU51
 161 0024 4FF40053 		mov	r3, #8192
 162 0028 C363     		str	r3, [r0, #60]
  94:Src/usart.c   ****   if (HAL_UART_Init(&huart2) != HAL_OK)
 163              		.loc 1 94 3 is_stmt 1 view .LVU52
 164              		.loc 1 94 7 is_stmt 0 view .LVU53
 165 002a FFF7FEFF 		bl	HAL_UART_Init
 166              	.LVL2:
 167              		.loc 1 94 6 view .LVU54
 168 002e 00B9     		cbnz	r0, .L10
 169              	.L7:
  95:Src/usart.c   ****   {
  96:Src/usart.c   ****     _Error_Handler(__FILE__, __LINE__);
  97:Src/usart.c   ****   }
  98:Src/usart.c   **** 
  99:Src/usart.c   **** }
 170              		.loc 1 99 1 view .LVU55
 171 0030 08BD     		pop	{r3, pc}
 172              	.L10:
  96:Src/usart.c   ****   }
 173              		.loc 1 96 5 is_stmt 1 view .LVU56
 174 0032 6021     		movs	r1, #96
 175 0034 0348     		ldr	r0, .L11+8
 176 0036 FFF7FEFF 		bl	_Error_Handler
 177              	.LVL3:
 178              		.loc 1 99 1 is_stmt 0 view .LVU57
 179 003a F9E7     		b	.L7
 180              	.L12:
 181              		.align	2
 182              	.L11:
 183 003c 00000000 		.word	huart2
 184 0040 00440040 		.word	1073759232
 185 0044 00000000 		.word	.LC0
 186              		.cfi_endproc
 187              	.LFE127:
ARM GAS  /var/folders/md/lgcc8l7571l9vt9sx0g0zflw0000gn/T//ccF16Ed7.s 			page 6


 189              		.section	.text.HAL_UART_MspInit,"ax",%progbits
 190              		.align	1
 191              		.global	HAL_UART_MspInit
 192              		.syntax unified
 193              		.thumb
 194              		.thumb_func
 195              		.fpu fpv4-sp-d16
 197              	HAL_UART_MspInit:
 198              	.LVL4:
 199              	.LFB128:
 100:Src/usart.c   **** 
 101:Src/usart.c   **** void HAL_UART_MspInit(UART_HandleTypeDef* uartHandle)
 102:Src/usart.c   **** {
 200              		.loc 1 102 1 is_stmt 1 view -0
 201              		.cfi_startproc
 202              		@ args = 0, pretend = 0, frame = 32
 203              		@ frame_needed = 0, uses_anonymous_args = 0
 204              		.loc 1 102 1 is_stmt 0 view .LVU59
 205 0000 30B5     		push	{r4, r5, lr}
 206              	.LCFI2:
 207              		.cfi_def_cfa_offset 12
 208              		.cfi_offset 4, -12
 209              		.cfi_offset 5, -8
 210              		.cfi_offset 14, -4
 211 0002 89B0     		sub	sp, sp, #36
 212              	.LCFI3:
 213              		.cfi_def_cfa_offset 48
 103:Src/usart.c   **** 
 104:Src/usart.c   ****   GPIO_InitTypeDef GPIO_InitStruct;
 214              		.loc 1 104 3 is_stmt 1 view .LVU60
 105:Src/usart.c   ****   if(uartHandle->Instance==USART1)
 215              		.loc 1 105 3 view .LVU61
 216              		.loc 1 105 16 is_stmt 0 view .LVU62
 217 0004 0368     		ldr	r3, [r0]
 218              		.loc 1 105 5 view .LVU63
 219 0006 3A4A     		ldr	r2, .L23
 220 0008 9342     		cmp	r3, r2
 221 000a 04D0     		beq	.L19
 106:Src/usart.c   ****   {
 107:Src/usart.c   ****   /* USER CODE BEGIN USART1_MspInit 0 */
 108:Src/usart.c   **** 
 109:Src/usart.c   ****   /* USER CODE END USART1_MspInit 0 */
 110:Src/usart.c   ****     /* USART1 clock enable */
 111:Src/usart.c   ****     __HAL_RCC_USART1_CLK_ENABLE();
 112:Src/usart.c   ****   
 113:Src/usart.c   ****     /**USART1 GPIO Configuration    
 114:Src/usart.c   ****     PA9     ------> USART1_TX
 115:Src/usart.c   ****     PA10     ------> USART1_RX 
 116:Src/usart.c   ****     */
 117:Src/usart.c   ****     GPIO_InitStruct.Pin = GPIO_PIN_9|GPIO_PIN_10;
 118:Src/usart.c   ****     GPIO_InitStruct.Mode = GPIO_MODE_AF_PP;
 119:Src/usart.c   ****     GPIO_InitStruct.Pull = GPIO_NOPULL;
 120:Src/usart.c   ****     GPIO_InitStruct.Speed = GPIO_SPEED_FREQ_HIGH;
 121:Src/usart.c   ****     GPIO_InitStruct.Alternate = GPIO_AF7_USART1;
 122:Src/usart.c   ****     HAL_GPIO_Init(GPIOA, &GPIO_InitStruct);
 123:Src/usart.c   **** 
 124:Src/usart.c   ****     /* USART1 DMA Init */
ARM GAS  /var/folders/md/lgcc8l7571l9vt9sx0g0zflw0000gn/T//ccF16Ed7.s 			page 7


 125:Src/usart.c   ****     /* USART1_RX Init */
 126:Src/usart.c   ****     hdma_usart1_rx.Instance = DMA1_Channel5;
 127:Src/usart.c   ****     hdma_usart1_rx.Init.Direction = DMA_PERIPH_TO_MEMORY;
 128:Src/usart.c   ****     hdma_usart1_rx.Init.PeriphInc = DMA_PINC_DISABLE;
 129:Src/usart.c   ****     hdma_usart1_rx.Init.MemInc = DMA_MINC_ENABLE;
 130:Src/usart.c   ****     hdma_usart1_rx.Init.PeriphDataAlignment = DMA_PDATAALIGN_BYTE;
 131:Src/usart.c   ****     hdma_usart1_rx.Init.MemDataAlignment = DMA_MDATAALIGN_BYTE;
 132:Src/usart.c   ****     hdma_usart1_rx.Init.Mode = DMA_NORMAL;
 133:Src/usart.c   ****     hdma_usart1_rx.Init.Priority = DMA_PRIORITY_LOW;
 134:Src/usart.c   ****     if (HAL_DMA_Init(&hdma_usart1_rx) != HAL_OK)
 135:Src/usart.c   ****     {
 136:Src/usart.c   ****       _Error_Handler(__FILE__, __LINE__);
 137:Src/usart.c   ****     }
 138:Src/usart.c   **** 
 139:Src/usart.c   ****     __HAL_LINKDMA(uartHandle,hdmarx,hdma_usart1_rx);
 140:Src/usart.c   **** 
 141:Src/usart.c   ****     /* USART1_TX Init */
 142:Src/usart.c   ****     hdma_usart1_tx.Instance = DMA1_Channel4;
 143:Src/usart.c   ****     hdma_usart1_tx.Init.Direction = DMA_MEMORY_TO_PERIPH;
 144:Src/usart.c   ****     hdma_usart1_tx.Init.PeriphInc = DMA_PINC_DISABLE;
 145:Src/usart.c   ****     hdma_usart1_tx.Init.MemInc = DMA_MINC_ENABLE;
 146:Src/usart.c   ****     hdma_usart1_tx.Init.PeriphDataAlignment = DMA_PDATAALIGN_BYTE;
 147:Src/usart.c   ****     hdma_usart1_tx.Init.MemDataAlignment = DMA_MDATAALIGN_BYTE;
 148:Src/usart.c   ****     hdma_usart1_tx.Init.Mode = DMA_NORMAL;
 149:Src/usart.c   ****     hdma_usart1_tx.Init.Priority = DMA_PRIORITY_LOW;
 150:Src/usart.c   ****     if (HAL_DMA_Init(&hdma_usart1_tx) != HAL_OK)
 151:Src/usart.c   ****     {
 152:Src/usart.c   ****       _Error_Handler(__FILE__, __LINE__);
 153:Src/usart.c   ****     }
 154:Src/usart.c   **** 
 155:Src/usart.c   ****     __HAL_LINKDMA(uartHandle,hdmatx,hdma_usart1_tx);
 156:Src/usart.c   **** 
 157:Src/usart.c   ****     /* USART1 interrupt Init */
 158:Src/usart.c   ****     HAL_NVIC_SetPriority(USART1_IRQn, 0, 0);
 159:Src/usart.c   ****     HAL_NVIC_EnableIRQ(USART1_IRQn);
 160:Src/usart.c   ****   /* USER CODE BEGIN USART1_MspInit 1 */
 161:Src/usart.c   **** 
 162:Src/usart.c   ****   /* USER CODE END USART1_MspInit 1 */
 163:Src/usart.c   ****   }
 164:Src/usart.c   ****   else if(uartHandle->Instance==USART2)
 222              		.loc 1 164 8 is_stmt 1 view .LVU64
 223              		.loc 1 164 10 is_stmt 0 view .LVU65
 224 000c 394A     		ldr	r2, .L23+4
 225 000e 9342     		cmp	r3, r2
 226 0010 53D0     		beq	.L20
 227              	.LVL5:
 228              	.L13:
 165:Src/usart.c   ****   {
 166:Src/usart.c   ****   /* USER CODE BEGIN USART2_MspInit 0 */
 167:Src/usart.c   **** 
 168:Src/usart.c   ****   /* USER CODE END USART2_MspInit 0 */
 169:Src/usart.c   ****     /* USART2 clock enable */
 170:Src/usart.c   ****     __HAL_RCC_USART2_CLK_ENABLE();
 171:Src/usart.c   ****   
 172:Src/usart.c   ****     /**USART2 GPIO Configuration    
 173:Src/usart.c   ****     PA2     ------> USART2_TX
 174:Src/usart.c   ****     PA3     ------> USART2_RX 
ARM GAS  /var/folders/md/lgcc8l7571l9vt9sx0g0zflw0000gn/T//ccF16Ed7.s 			page 8


 175:Src/usart.c   ****     */
 176:Src/usart.c   ****     GPIO_InitStruct.Pin = GPIO_PIN_2|GPIO_PIN_3;
 177:Src/usart.c   ****     GPIO_InitStruct.Mode = GPIO_MODE_AF_PP;
 178:Src/usart.c   ****     GPIO_InitStruct.Pull = GPIO_NOPULL;
 179:Src/usart.c   ****     GPIO_InitStruct.Speed = GPIO_SPEED_FREQ_HIGH;
 180:Src/usart.c   ****     GPIO_InitStruct.Alternate = GPIO_AF7_USART2;
 181:Src/usart.c   ****     HAL_GPIO_Init(GPIOA, &GPIO_InitStruct);
 182:Src/usart.c   **** 
 183:Src/usart.c   ****   /* USER CODE BEGIN USART2_MspInit 1 */
 184:Src/usart.c   **** 
 185:Src/usart.c   ****   /* USER CODE END USART2_MspInit 1 */
 186:Src/usart.c   ****   }
 187:Src/usart.c   **** }
 229              		.loc 1 187 1 view .LVU66
 230 0012 09B0     		add	sp, sp, #36
 231              	.LCFI4:
 232              		.cfi_remember_state
 233              		.cfi_def_cfa_offset 12
 234              		@ sp needed
 235 0014 30BD     		pop	{r4, r5, pc}
 236              	.LVL6:
 237              	.L19:
 238              	.LCFI5:
 239              		.cfi_restore_state
 240              		.loc 1 187 1 view .LVU67
 241 0016 0446     		mov	r4, r0
 111:Src/usart.c   ****   
 242              		.loc 1 111 5 is_stmt 1 view .LVU68
 243              	.LBB2:
 111:Src/usart.c   ****   
 244              		.loc 1 111 5 view .LVU69
 111:Src/usart.c   ****   
 245              		.loc 1 111 5 view .LVU70
 246 0018 374B     		ldr	r3, .L23+8
 247 001a 9A69     		ldr	r2, [r3, #24]
 248 001c 42F48042 		orr	r2, r2, #16384
 249 0020 9A61     		str	r2, [r3, #24]
 111:Src/usart.c   ****   
 250              		.loc 1 111 5 view .LVU71
 251 0022 9B69     		ldr	r3, [r3, #24]
 252 0024 03F48043 		and	r3, r3, #16384
 253 0028 0193     		str	r3, [sp, #4]
 111:Src/usart.c   ****   
 254              		.loc 1 111 5 view .LVU72
 255 002a 019B     		ldr	r3, [sp, #4]
 256              	.LBE2:
 117:Src/usart.c   ****     GPIO_InitStruct.Mode = GPIO_MODE_AF_PP;
 257              		.loc 1 117 5 view .LVU73
 117:Src/usart.c   ****     GPIO_InitStruct.Mode = GPIO_MODE_AF_PP;
 258              		.loc 1 117 25 is_stmt 0 view .LVU74
 259 002c 4FF4C063 		mov	r3, #1536
 260 0030 0393     		str	r3, [sp, #12]
 118:Src/usart.c   ****     GPIO_InitStruct.Pull = GPIO_NOPULL;
 261              		.loc 1 118 5 is_stmt 1 view .LVU75
 118:Src/usart.c   ****     GPIO_InitStruct.Pull = GPIO_NOPULL;
 262              		.loc 1 118 26 is_stmt 0 view .LVU76
 263 0032 0223     		movs	r3, #2
ARM GAS  /var/folders/md/lgcc8l7571l9vt9sx0g0zflw0000gn/T//ccF16Ed7.s 			page 9


 264 0034 0493     		str	r3, [sp, #16]
 119:Src/usart.c   ****     GPIO_InitStruct.Speed = GPIO_SPEED_FREQ_HIGH;
 265              		.loc 1 119 5 is_stmt 1 view .LVU77
 119:Src/usart.c   ****     GPIO_InitStruct.Speed = GPIO_SPEED_FREQ_HIGH;
 266              		.loc 1 119 26 is_stmt 0 view .LVU78
 267 0036 0025     		movs	r5, #0
 268 0038 0595     		str	r5, [sp, #20]
 120:Src/usart.c   ****     GPIO_InitStruct.Alternate = GPIO_AF7_USART1;
 269              		.loc 1 120 5 is_stmt 1 view .LVU79
 120:Src/usart.c   ****     GPIO_InitStruct.Alternate = GPIO_AF7_USART1;
 270              		.loc 1 120 27 is_stmt 0 view .LVU80
 271 003a 0323     		movs	r3, #3
 272 003c 0693     		str	r3, [sp, #24]
 121:Src/usart.c   ****     HAL_GPIO_Init(GPIOA, &GPIO_InitStruct);
 273              		.loc 1 121 5 is_stmt 1 view .LVU81
 121:Src/usart.c   ****     HAL_GPIO_Init(GPIOA, &GPIO_InitStruct);
 274              		.loc 1 121 31 is_stmt 0 view .LVU82
 275 003e 0723     		movs	r3, #7
 276 0040 0793     		str	r3, [sp, #28]
 122:Src/usart.c   **** 
 277              		.loc 1 122 5 is_stmt 1 view .LVU83
 278 0042 03A9     		add	r1, sp, #12
 279 0044 4FF09040 		mov	r0, #1207959552
 280              	.LVL7:
 122:Src/usart.c   **** 
 281              		.loc 1 122 5 is_stmt 0 view .LVU84
 282 0048 FFF7FEFF 		bl	HAL_GPIO_Init
 283              	.LVL8:
 126:Src/usart.c   ****     hdma_usart1_rx.Init.Direction = DMA_PERIPH_TO_MEMORY;
 284              		.loc 1 126 5 is_stmt 1 view .LVU85
 126:Src/usart.c   ****     hdma_usart1_rx.Init.Direction = DMA_PERIPH_TO_MEMORY;
 285              		.loc 1 126 29 is_stmt 0 view .LVU86
 286 004c 2B48     		ldr	r0, .L23+12
 287 004e 2C4B     		ldr	r3, .L23+16
 288 0050 0360     		str	r3, [r0]
 127:Src/usart.c   ****     hdma_usart1_rx.Init.PeriphInc = DMA_PINC_DISABLE;
 289              		.loc 1 127 5 is_stmt 1 view .LVU87
 127:Src/usart.c   ****     hdma_usart1_rx.Init.PeriphInc = DMA_PINC_DISABLE;
 290              		.loc 1 127 35 is_stmt 0 view .LVU88
 291 0052 4560     		str	r5, [r0, #4]
 128:Src/usart.c   ****     hdma_usart1_rx.Init.MemInc = DMA_MINC_ENABLE;
 292              		.loc 1 128 5 is_stmt 1 view .LVU89
 128:Src/usart.c   ****     hdma_usart1_rx.Init.MemInc = DMA_MINC_ENABLE;
 293              		.loc 1 128 35 is_stmt 0 view .LVU90
 294 0054 8560     		str	r5, [r0, #8]
 129:Src/usart.c   ****     hdma_usart1_rx.Init.PeriphDataAlignment = DMA_PDATAALIGN_BYTE;
 295              		.loc 1 129 5 is_stmt 1 view .LVU91
 129:Src/usart.c   ****     hdma_usart1_rx.Init.PeriphDataAlignment = DMA_PDATAALIGN_BYTE;
 296              		.loc 1 129 32 is_stmt 0 view .LVU92
 297 0056 8023     		movs	r3, #128
 298 0058 C360     		str	r3, [r0, #12]
 130:Src/usart.c   ****     hdma_usart1_rx.Init.MemDataAlignment = DMA_MDATAALIGN_BYTE;
 299              		.loc 1 130 5 is_stmt 1 view .LVU93
 130:Src/usart.c   ****     hdma_usart1_rx.Init.MemDataAlignment = DMA_MDATAALIGN_BYTE;
 300              		.loc 1 130 45 is_stmt 0 view .LVU94
 301 005a 0561     		str	r5, [r0, #16]
 131:Src/usart.c   ****     hdma_usart1_rx.Init.Mode = DMA_NORMAL;
ARM GAS  /var/folders/md/lgcc8l7571l9vt9sx0g0zflw0000gn/T//ccF16Ed7.s 			page 10


 302              		.loc 1 131 5 is_stmt 1 view .LVU95
 131:Src/usart.c   ****     hdma_usart1_rx.Init.Mode = DMA_NORMAL;
 303              		.loc 1 131 42 is_stmt 0 view .LVU96
 304 005c 4561     		str	r5, [r0, #20]
 132:Src/usart.c   ****     hdma_usart1_rx.Init.Priority = DMA_PRIORITY_LOW;
 305              		.loc 1 132 5 is_stmt 1 view .LVU97
 132:Src/usart.c   ****     hdma_usart1_rx.Init.Priority = DMA_PRIORITY_LOW;
 306              		.loc 1 132 30 is_stmt 0 view .LVU98
 307 005e 8561     		str	r5, [r0, #24]
 133:Src/usart.c   ****     if (HAL_DMA_Init(&hdma_usart1_rx) != HAL_OK)
 308              		.loc 1 133 5 is_stmt 1 view .LVU99
 133:Src/usart.c   ****     if (HAL_DMA_Init(&hdma_usart1_rx) != HAL_OK)
 309              		.loc 1 133 34 is_stmt 0 view .LVU100
 310 0060 C561     		str	r5, [r0, #28]
 134:Src/usart.c   ****     {
 311              		.loc 1 134 5 is_stmt 1 view .LVU101
 134:Src/usart.c   ****     {
 312              		.loc 1 134 9 is_stmt 0 view .LVU102
 313 0062 FFF7FEFF 		bl	HAL_DMA_Init
 314              	.LVL9:
 134:Src/usart.c   ****     {
 315              		.loc 1 134 8 view .LVU103
 316 0066 F0B9     		cbnz	r0, .L21
 317              	.L15:
 139:Src/usart.c   **** 
 318              		.loc 1 139 5 is_stmt 1 view .LVU104
 139:Src/usart.c   **** 
 319              		.loc 1 139 5 view .LVU105
 320 0068 244B     		ldr	r3, .L23+12
 321 006a 6366     		str	r3, [r4, #100]
 139:Src/usart.c   **** 
 322              		.loc 1 139 5 view .LVU106
 323 006c 5C62     		str	r4, [r3, #36]
 142:Src/usart.c   ****     hdma_usart1_tx.Init.Direction = DMA_MEMORY_TO_PERIPH;
 324              		.loc 1 142 5 view .LVU107
 142:Src/usart.c   ****     hdma_usart1_tx.Init.Direction = DMA_MEMORY_TO_PERIPH;
 325              		.loc 1 142 29 is_stmt 0 view .LVU108
 326 006e 2548     		ldr	r0, .L23+20
 327 0070 254B     		ldr	r3, .L23+24
 328 0072 0360     		str	r3, [r0]
 143:Src/usart.c   ****     hdma_usart1_tx.Init.PeriphInc = DMA_PINC_DISABLE;
 329              		.loc 1 143 5 is_stmt 1 view .LVU109
 143:Src/usart.c   ****     hdma_usart1_tx.Init.PeriphInc = DMA_PINC_DISABLE;
 330              		.loc 1 143 35 is_stmt 0 view .LVU110
 331 0074 1023     		movs	r3, #16
 332 0076 4360     		str	r3, [r0, #4]
 144:Src/usart.c   ****     hdma_usart1_tx.Init.MemInc = DMA_MINC_ENABLE;
 333              		.loc 1 144 5 is_stmt 1 view .LVU111
 144:Src/usart.c   ****     hdma_usart1_tx.Init.MemInc = DMA_MINC_ENABLE;
 334              		.loc 1 144 35 is_stmt 0 view .LVU112
 335 0078 0023     		movs	r3, #0
 336 007a 8360     		str	r3, [r0, #8]
 145:Src/usart.c   ****     hdma_usart1_tx.Init.PeriphDataAlignment = DMA_PDATAALIGN_BYTE;
 337              		.loc 1 145 5 is_stmt 1 view .LVU113
 145:Src/usart.c   ****     hdma_usart1_tx.Init.PeriphDataAlignment = DMA_PDATAALIGN_BYTE;
 338              		.loc 1 145 32 is_stmt 0 view .LVU114
 339 007c 8022     		movs	r2, #128
ARM GAS  /var/folders/md/lgcc8l7571l9vt9sx0g0zflw0000gn/T//ccF16Ed7.s 			page 11


 340 007e C260     		str	r2, [r0, #12]
 146:Src/usart.c   ****     hdma_usart1_tx.Init.MemDataAlignment = DMA_MDATAALIGN_BYTE;
 341              		.loc 1 146 5 is_stmt 1 view .LVU115
 146:Src/usart.c   ****     hdma_usart1_tx.Init.MemDataAlignment = DMA_MDATAALIGN_BYTE;
 342              		.loc 1 146 45 is_stmt 0 view .LVU116
 343 0080 0361     		str	r3, [r0, #16]
 147:Src/usart.c   ****     hdma_usart1_tx.Init.Mode = DMA_NORMAL;
 344              		.loc 1 147 5 is_stmt 1 view .LVU117
 147:Src/usart.c   ****     hdma_usart1_tx.Init.Mode = DMA_NORMAL;
 345              		.loc 1 147 42 is_stmt 0 view .LVU118
 346 0082 4361     		str	r3, [r0, #20]
 148:Src/usart.c   ****     hdma_usart1_tx.Init.Priority = DMA_PRIORITY_LOW;
 347              		.loc 1 148 5 is_stmt 1 view .LVU119
 148:Src/usart.c   ****     hdma_usart1_tx.Init.Priority = DMA_PRIORITY_LOW;
 348              		.loc 1 148 30 is_stmt 0 view .LVU120
 349 0084 8361     		str	r3, [r0, #24]
 149:Src/usart.c   ****     if (HAL_DMA_Init(&hdma_usart1_tx) != HAL_OK)
 350              		.loc 1 149 5 is_stmt 1 view .LVU121
 149:Src/usart.c   ****     if (HAL_DMA_Init(&hdma_usart1_tx) != HAL_OK)
 351              		.loc 1 149 34 is_stmt 0 view .LVU122
 352 0086 C361     		str	r3, [r0, #28]
 150:Src/usart.c   ****     {
 353              		.loc 1 150 5 is_stmt 1 view .LVU123
 150:Src/usart.c   ****     {
 354              		.loc 1 150 9 is_stmt 0 view .LVU124
 355 0088 FFF7FEFF 		bl	HAL_DMA_Init
 356              	.LVL10:
 150:Src/usart.c   ****     {
 357              		.loc 1 150 8 view .LVU125
 358 008c 80B9     		cbnz	r0, .L22
 359              	.L16:
 155:Src/usart.c   **** 
 360              		.loc 1 155 5 is_stmt 1 view .LVU126
 155:Src/usart.c   **** 
 361              		.loc 1 155 5 view .LVU127
 362 008e 1D4B     		ldr	r3, .L23+20
 363 0090 2366     		str	r3, [r4, #96]
 155:Src/usart.c   **** 
 364              		.loc 1 155 5 view .LVU128
 365 0092 5C62     		str	r4, [r3, #36]
 158:Src/usart.c   ****     HAL_NVIC_EnableIRQ(USART1_IRQn);
 366              		.loc 1 158 5 view .LVU129
 367 0094 0022     		movs	r2, #0
 368 0096 1146     		mov	r1, r2
 369 0098 2520     		movs	r0, #37
 370 009a FFF7FEFF 		bl	HAL_NVIC_SetPriority
 371              	.LVL11:
 159:Src/usart.c   ****   /* USER CODE BEGIN USART1_MspInit 1 */
 372              		.loc 1 159 5 view .LVU130
 373 009e 2520     		movs	r0, #37
 374 00a0 FFF7FEFF 		bl	HAL_NVIC_EnableIRQ
 375              	.LVL12:
 376 00a4 B5E7     		b	.L13
 377              	.L21:
 136:Src/usart.c   ****     }
 378              		.loc 1 136 7 view .LVU131
 379 00a6 8821     		movs	r1, #136
ARM GAS  /var/folders/md/lgcc8l7571l9vt9sx0g0zflw0000gn/T//ccF16Ed7.s 			page 12


 380 00a8 1848     		ldr	r0, .L23+28
 381 00aa FFF7FEFF 		bl	_Error_Handler
 382              	.LVL13:
 383 00ae DBE7     		b	.L15
 384              	.L22:
 152:Src/usart.c   ****     }
 385              		.loc 1 152 7 view .LVU132
 386 00b0 9821     		movs	r1, #152
 387 00b2 1648     		ldr	r0, .L23+28
 388 00b4 FFF7FEFF 		bl	_Error_Handler
 389              	.LVL14:
 390 00b8 E9E7     		b	.L16
 391              	.LVL15:
 392              	.L20:
 170:Src/usart.c   ****   
 393              		.loc 1 170 5 view .LVU133
 394              	.LBB3:
 170:Src/usart.c   ****   
 395              		.loc 1 170 5 view .LVU134
 170:Src/usart.c   ****   
 396              		.loc 1 170 5 view .LVU135
 397 00ba 0F4B     		ldr	r3, .L23+8
 398 00bc DA69     		ldr	r2, [r3, #28]
 399 00be 42F40032 		orr	r2, r2, #131072
 400 00c2 DA61     		str	r2, [r3, #28]
 170:Src/usart.c   ****   
 401              		.loc 1 170 5 view .LVU136
 402 00c4 DB69     		ldr	r3, [r3, #28]
 403 00c6 03F40033 		and	r3, r3, #131072
 404 00ca 0293     		str	r3, [sp, #8]
 170:Src/usart.c   ****   
 405              		.loc 1 170 5 view .LVU137
 406 00cc 029B     		ldr	r3, [sp, #8]
 407              	.LBE3:
 176:Src/usart.c   ****     GPIO_InitStruct.Mode = GPIO_MODE_AF_PP;
 408              		.loc 1 176 5 view .LVU138
 176:Src/usart.c   ****     GPIO_InitStruct.Mode = GPIO_MODE_AF_PP;
 409              		.loc 1 176 25 is_stmt 0 view .LVU139
 410 00ce 0C23     		movs	r3, #12
 411 00d0 0393     		str	r3, [sp, #12]
 177:Src/usart.c   ****     GPIO_InitStruct.Pull = GPIO_NOPULL;
 412              		.loc 1 177 5 is_stmt 1 view .LVU140
 177:Src/usart.c   ****     GPIO_InitStruct.Pull = GPIO_NOPULL;
 413              		.loc 1 177 26 is_stmt 0 view .LVU141
 414 00d2 0223     		movs	r3, #2
 415 00d4 0493     		str	r3, [sp, #16]
 178:Src/usart.c   ****     GPIO_InitStruct.Speed = GPIO_SPEED_FREQ_HIGH;
 416              		.loc 1 178 5 is_stmt 1 view .LVU142
 178:Src/usart.c   ****     GPIO_InitStruct.Speed = GPIO_SPEED_FREQ_HIGH;
 417              		.loc 1 178 26 is_stmt 0 view .LVU143
 418 00d6 0023     		movs	r3, #0
 419 00d8 0593     		str	r3, [sp, #20]
 179:Src/usart.c   ****     GPIO_InitStruct.Alternate = GPIO_AF7_USART2;
 420              		.loc 1 179 5 is_stmt 1 view .LVU144
 179:Src/usart.c   ****     GPIO_InitStruct.Alternate = GPIO_AF7_USART2;
 421              		.loc 1 179 27 is_stmt 0 view .LVU145
 422 00da 0323     		movs	r3, #3
ARM GAS  /var/folders/md/lgcc8l7571l9vt9sx0g0zflw0000gn/T//ccF16Ed7.s 			page 13


 423 00dc 0693     		str	r3, [sp, #24]
 180:Src/usart.c   ****     HAL_GPIO_Init(GPIOA, &GPIO_InitStruct);
 424              		.loc 1 180 5 is_stmt 1 view .LVU146
 180:Src/usart.c   ****     HAL_GPIO_Init(GPIOA, &GPIO_InitStruct);
 425              		.loc 1 180 31 is_stmt 0 view .LVU147
 426 00de 0723     		movs	r3, #7
 427 00e0 0793     		str	r3, [sp, #28]
 181:Src/usart.c   **** 
 428              		.loc 1 181 5 is_stmt 1 view .LVU148
 429 00e2 03A9     		add	r1, sp, #12
 430 00e4 4FF09040 		mov	r0, #1207959552
 431              	.LVL16:
 181:Src/usart.c   **** 
 432              		.loc 1 181 5 is_stmt 0 view .LVU149
 433 00e8 FFF7FEFF 		bl	HAL_GPIO_Init
 434              	.LVL17:
 435              		.loc 1 187 1 view .LVU150
 436 00ec 91E7     		b	.L13
 437              	.L24:
 438 00ee 00BF     		.align	2
 439              	.L23:
 440 00f0 00380140 		.word	1073821696
 441 00f4 00440040 		.word	1073759232
 442 00f8 00100240 		.word	1073876992
 443 00fc 00000000 		.word	hdma_usart1_rx
 444 0100 58000240 		.word	1073872984
 445 0104 00000000 		.word	hdma_usart1_tx
 446 0108 44000240 		.word	1073872964
 447 010c 00000000 		.word	.LC0
 448              		.cfi_endproc
 449              	.LFE128:
 451              		.section	.text.HAL_UART_MspDeInit,"ax",%progbits
 452              		.align	1
 453              		.global	HAL_UART_MspDeInit
 454              		.syntax unified
 455              		.thumb
 456              		.thumb_func
 457              		.fpu fpv4-sp-d16
 459              	HAL_UART_MspDeInit:
 460              	.LVL18:
 461              	.LFB129:
 188:Src/usart.c   **** 
 189:Src/usart.c   **** void HAL_UART_MspDeInit(UART_HandleTypeDef* uartHandle)
 190:Src/usart.c   **** {
 462              		.loc 1 190 1 is_stmt 1 view -0
 463              		.cfi_startproc
 464              		@ args = 0, pretend = 0, frame = 0
 465              		@ frame_needed = 0, uses_anonymous_args = 0
 466              		.loc 1 190 1 is_stmt 0 view .LVU152
 467 0000 10B5     		push	{r4, lr}
 468              	.LCFI6:
 469              		.cfi_def_cfa_offset 8
 470              		.cfi_offset 4, -8
 471              		.cfi_offset 14, -4
 191:Src/usart.c   **** 
 192:Src/usart.c   ****   if(uartHandle->Instance==USART1)
 472              		.loc 1 192 3 is_stmt 1 view .LVU153
ARM GAS  /var/folders/md/lgcc8l7571l9vt9sx0g0zflw0000gn/T//ccF16Ed7.s 			page 14


 473              		.loc 1 192 16 is_stmt 0 view .LVU154
 474 0002 0368     		ldr	r3, [r0]
 475              		.loc 1 192 5 view .LVU155
 476 0004 144A     		ldr	r2, .L31
 477 0006 9342     		cmp	r3, r2
 478 0008 03D0     		beq	.L29
 193:Src/usart.c   ****   {
 194:Src/usart.c   ****   /* USER CODE BEGIN USART1_MspDeInit 0 */
 195:Src/usart.c   **** 
 196:Src/usart.c   ****   /* USER CODE END USART1_MspDeInit 0 */
 197:Src/usart.c   ****     /* Peripheral clock disable */
 198:Src/usart.c   ****     __HAL_RCC_USART1_CLK_DISABLE();
 199:Src/usart.c   ****   
 200:Src/usart.c   ****     /**USART1 GPIO Configuration    
 201:Src/usart.c   ****     PA9     ------> USART1_TX
 202:Src/usart.c   ****     PA10     ------> USART1_RX 
 203:Src/usart.c   ****     */
 204:Src/usart.c   ****     HAL_GPIO_DeInit(GPIOA, GPIO_PIN_9|GPIO_PIN_10);
 205:Src/usart.c   **** 
 206:Src/usart.c   ****     /* USART1 DMA DeInit */
 207:Src/usart.c   ****     HAL_DMA_DeInit(uartHandle->hdmarx);
 208:Src/usart.c   ****     HAL_DMA_DeInit(uartHandle->hdmatx);
 209:Src/usart.c   **** 
 210:Src/usart.c   ****     /* USART1 interrupt Deinit */
 211:Src/usart.c   ****     HAL_NVIC_DisableIRQ(USART1_IRQn);
 212:Src/usart.c   ****   /* USER CODE BEGIN USART1_MspDeInit 1 */
 213:Src/usart.c   **** 
 214:Src/usart.c   ****   /* USER CODE END USART1_MspDeInit 1 */
 215:Src/usart.c   ****   }
 216:Src/usart.c   ****   else if(uartHandle->Instance==USART2)
 479              		.loc 1 216 8 is_stmt 1 view .LVU156
 480              		.loc 1 216 10 is_stmt 0 view .LVU157
 481 000a 144A     		ldr	r2, .L31+4
 482 000c 9342     		cmp	r3, r2
 483 000e 17D0     		beq	.L30
 484              	.LVL19:
 485              	.L25:
 217:Src/usart.c   ****   {
 218:Src/usart.c   ****   /* USER CODE BEGIN USART2_MspDeInit 0 */
 219:Src/usart.c   **** 
 220:Src/usart.c   ****   /* USER CODE END USART2_MspDeInit 0 */
 221:Src/usart.c   ****     /* Peripheral clock disable */
 222:Src/usart.c   ****     __HAL_RCC_USART2_CLK_DISABLE();
 223:Src/usart.c   ****   
 224:Src/usart.c   ****     /**USART2 GPIO Configuration    
 225:Src/usart.c   ****     PA2     ------> USART2_TX
 226:Src/usart.c   ****     PA3     ------> USART2_RX 
 227:Src/usart.c   ****     */
 228:Src/usart.c   ****     HAL_GPIO_DeInit(GPIOA, GPIO_PIN_2|GPIO_PIN_3);
 229:Src/usart.c   **** 
 230:Src/usart.c   ****   /* USER CODE BEGIN USART2_MspDeInit 1 */
 231:Src/usart.c   **** 
 232:Src/usart.c   ****   /* USER CODE END USART2_MspDeInit 1 */
 233:Src/usart.c   ****   }
 234:Src/usart.c   **** } 
 486              		.loc 1 234 1 view .LVU158
 487 0010 10BD     		pop	{r4, pc}
ARM GAS  /var/folders/md/lgcc8l7571l9vt9sx0g0zflw0000gn/T//ccF16Ed7.s 			page 15


 488              	.LVL20:
 489              	.L29:
 490              		.loc 1 234 1 view .LVU159
 491 0012 0446     		mov	r4, r0
 198:Src/usart.c   ****   
 492              		.loc 1 198 5 is_stmt 1 view .LVU160
 493 0014 02F55842 		add	r2, r2, #55296
 494 0018 9369     		ldr	r3, [r2, #24]
 495 001a 23F48043 		bic	r3, r3, #16384
 496 001e 9361     		str	r3, [r2, #24]
 204:Src/usart.c   **** 
 497              		.loc 1 204 5 view .LVU161
 498 0020 4FF4C061 		mov	r1, #1536
 499 0024 4FF09040 		mov	r0, #1207959552
 500              	.LVL21:
 204:Src/usart.c   **** 
 501              		.loc 1 204 5 is_stmt 0 view .LVU162
 502 0028 FFF7FEFF 		bl	HAL_GPIO_DeInit
 503              	.LVL22:
 207:Src/usart.c   ****     HAL_DMA_DeInit(uartHandle->hdmatx);
 504              		.loc 1 207 5 is_stmt 1 view .LVU163
 505 002c 606E     		ldr	r0, [r4, #100]
 506 002e FFF7FEFF 		bl	HAL_DMA_DeInit
 507              	.LVL23:
 208:Src/usart.c   **** 
 508              		.loc 1 208 5 view .LVU164
 509 0032 206E     		ldr	r0, [r4, #96]
 510 0034 FFF7FEFF 		bl	HAL_DMA_DeInit
 511              	.LVL24:
 211:Src/usart.c   ****   /* USER CODE BEGIN USART1_MspDeInit 1 */
 512              		.loc 1 211 5 view .LVU165
 513 0038 2520     		movs	r0, #37
 514 003a FFF7FEFF 		bl	HAL_NVIC_DisableIRQ
 515              	.LVL25:
 516 003e E7E7     		b	.L25
 517              	.LVL26:
 518              	.L30:
 222:Src/usart.c   ****   
 519              		.loc 1 222 5 view .LVU166
 520 0040 02F5E632 		add	r2, r2, #117760
 521 0044 D369     		ldr	r3, [r2, #28]
 522 0046 23F40033 		bic	r3, r3, #131072
 523 004a D361     		str	r3, [r2, #28]
 228:Src/usart.c   **** 
 524              		.loc 1 228 5 view .LVU167
 525 004c 0C21     		movs	r1, #12
 526 004e 4FF09040 		mov	r0, #1207959552
 527              	.LVL27:
 228:Src/usart.c   **** 
 528              		.loc 1 228 5 is_stmt 0 view .LVU168
 529 0052 FFF7FEFF 		bl	HAL_GPIO_DeInit
 530              	.LVL28:
 531              		.loc 1 234 1 view .LVU169
 532 0056 DBE7     		b	.L25
 533              	.L32:
 534              		.align	2
 535              	.L31:
ARM GAS  /var/folders/md/lgcc8l7571l9vt9sx0g0zflw0000gn/T//ccF16Ed7.s 			page 16


 536 0058 00380140 		.word	1073821696
 537 005c 00440040 		.word	1073759232
 538              		.cfi_endproc
 539              	.LFE129:
 541              		.section	.text.debug_printf,"ax",%progbits
 542              		.align	1
 543              		.global	debug_printf
 544              		.syntax unified
 545              		.thumb
 546              		.thumb_func
 547              		.fpu fpv4-sp-d16
 549              	debug_printf:
 550              	.LVL29:
 551              	.LFB130:
 235:Src/usart.c   **** 
 236:Src/usart.c   **** /* USER CODE BEGIN 1 */
 237:Src/usart.c   **** void debug_printf (char* p) {
 552              		.loc 1 237 29 is_stmt 1 view -0
 553              		.cfi_startproc
 554              		@ args = 0, pretend = 0, frame = 0
 555              		@ frame_needed = 0, uses_anonymous_args = 0
 556              		.loc 1 237 29 is_stmt 0 view .LVU171
 557 0000 10B5     		push	{r4, lr}
 558              	.LCFI7:
 559              		.cfi_def_cfa_offset 8
 560              		.cfi_offset 4, -8
 561              		.cfi_offset 14, -4
 562 0002 0446     		mov	r4, r0
 238:Src/usart.c   ****   HAL_UART_Transmit(&huart2, (uint8_t*)p, strlen(p), 1000);
 563              		.loc 1 238 3 is_stmt 1 view .LVU172
 564              		.loc 1 238 43 is_stmt 0 view .LVU173
 565 0004 FFF7FEFF 		bl	strlen
 566              	.LVL30:
 567              		.loc 1 238 3 view .LVU174
 568 0008 4FF47A73 		mov	r3, #1000
 569 000c 82B2     		uxth	r2, r0
 570 000e 2146     		mov	r1, r4
 571 0010 0148     		ldr	r0, .L35
 572 0012 FFF7FEFF 		bl	HAL_UART_Transmit
 573              	.LVL31:
 239:Src/usart.c   **** }
 574              		.loc 1 239 1 view .LVU175
 575 0016 10BD     		pop	{r4, pc}
 576              	.LVL32:
 577              	.L36:
 578              		.loc 1 239 1 view .LVU176
 579              		.align	2
 580              	.L35:
 581 0018 00000000 		.word	huart2
 582              		.cfi_endproc
 583              	.LFE130:
 585              		.section	.text.rPi_printf,"ax",%progbits
 586              		.align	1
 587              		.global	rPi_printf
 588              		.syntax unified
 589              		.thumb
 590              		.thumb_func
ARM GAS  /var/folders/md/lgcc8l7571l9vt9sx0g0zflw0000gn/T//ccF16Ed7.s 			page 17


 591              		.fpu fpv4-sp-d16
 593              	rPi_printf:
 594              	.LVL33:
 595              	.LFB131:
 240:Src/usart.c   **** void rPi_printf (char* p) {
 596              		.loc 1 240 27 is_stmt 1 view -0
 597              		.cfi_startproc
 598              		@ args = 0, pretend = 0, frame = 0
 599              		@ frame_needed = 0, uses_anonymous_args = 0
 600              		.loc 1 240 27 is_stmt 0 view .LVU178
 601 0000 10B5     		push	{r4, lr}
 602              	.LCFI8:
 603              		.cfi_def_cfa_offset 8
 604              		.cfi_offset 4, -8
 605              		.cfi_offset 14, -4
 606 0002 0446     		mov	r4, r0
 241:Src/usart.c   ****   HAL_UART_Transmit(&huart1, (uint8_t*)p, strlen(p), 1000);
 607              		.loc 1 241 3 is_stmt 1 view .LVU179
 608              		.loc 1 241 43 is_stmt 0 view .LVU180
 609 0004 FFF7FEFF 		bl	strlen
 610              	.LVL34:
 611              		.loc 1 241 3 view .LVU181
 612 0008 4FF47A73 		mov	r3, #1000
 613 000c 82B2     		uxth	r2, r0
 614 000e 2146     		mov	r1, r4
 615 0010 0148     		ldr	r0, .L39
 616 0012 FFF7FEFF 		bl	HAL_UART_Transmit
 617              	.LVL35:
 242:Src/usart.c   **** }
 618              		.loc 1 242 1 view .LVU182
 619 0016 10BD     		pop	{r4, pc}
 620              	.LVL36:
 621              	.L40:
 622              		.loc 1 242 1 view .LVU183
 623              		.align	2
 624              	.L39:
 625 0018 00000000 		.word	huart1
 626              		.cfi_endproc
 627              	.LFE131:
 629              		.comm	hdma_usart1_tx,68,4
 630              		.comm	hdma_usart1_rx,68,4
 631              		.comm	huart2,112,4
 632              		.comm	huart1,112,4
 633              		.comm	log_buffer,150,4
 634              		.section	.rodata.MX_USART1_UART_Init.str1.4,"aMS",%progbits,1
 635              		.align	2
 636              	.LC0:
 637 0000 5372632F 		.ascii	"Src/usart.c\000"
 637      75736172 
 637      742E6300 
 638              		.text
 639              	.Letext0:
 640              		.file 2 "/usr/local/gcc-arm-none-eabi-8-2019-q3-update/arm-none-eabi/include/machine/_default_type
 641              		.file 3 "/usr/local/gcc-arm-none-eabi-8-2019-q3-update/arm-none-eabi/include/sys/_stdint.h"
 642              		.file 4 "Drivers/CMSIS/Include/core_cm4.h"
 643              		.file 5 "Drivers/CMSIS/Device/ST/STM32F3xx/Include/system_stm32f3xx.h"
 644              		.file 6 "Drivers/CMSIS/Device/ST/STM32F3xx/Include/stm32f303xe.h"
ARM GAS  /var/folders/md/lgcc8l7571l9vt9sx0g0zflw0000gn/T//ccF16Ed7.s 			page 18


 645              		.file 7 "/usr/local/gcc-arm-none-eabi-8-2019-q3-update/lib/gcc/arm-none-eabi/8.3.1/include/stddef.
 646              		.file 8 "/usr/local/gcc-arm-none-eabi-8-2019-q3-update/arm-none-eabi/include/sys/_types.h"
 647              		.file 9 "/usr/local/gcc-arm-none-eabi-8-2019-q3-update/arm-none-eabi/include/sys/reent.h"
 648              		.file 10 "/usr/local/gcc-arm-none-eabi-8-2019-q3-update/arm-none-eabi/include/sys/lock.h"
 649              		.file 11 "Drivers/STM32F3xx_HAL_Driver/Inc/stm32f3xx_hal_def.h"
 650              		.file 12 "Drivers/STM32F3xx_HAL_Driver/Inc/stm32f3xx_hal_gpio.h"
 651              		.file 13 "Drivers/STM32F3xx_HAL_Driver/Inc/stm32f3xx_hal_dma.h"
 652              		.file 14 "Drivers/STM32F3xx_HAL_Driver/Inc/stm32f3xx_hal_uart.h"
 653              		.file 15 "Drivers/STM32F3xx_HAL_Driver/Inc/stm32f3xx_hal.h"
 654              		.file 16 "Inc/usart.h"
 655              		.file 17 "/usr/local/gcc-arm-none-eabi-8-2019-q3-update/arm-none-eabi/include/string.h"
 656              		.file 18 "Drivers/STM32F3xx_HAL_Driver/Inc/stm32f3xx_hal_cortex.h"
 657              		.file 19 "Inc/dma.h"
ARM GAS  /var/folders/md/lgcc8l7571l9vt9sx0g0zflw0000gn/T//ccF16Ed7.s 			page 19

