ARM GAS  /var/folders/8c/gyvcglfx7f97kbqb2h83mm_r0000gn/T//ccjkHz1m.s 			page 1


   1              		.cpu cortex-m4
   2              		.eabi_attribute 27, 1
   3              		.eabi_attribute 28, 1
   4              		.eabi_attribute 20, 1
   5              		.eabi_attribute 21, 1
   6              		.eabi_attribute 23, 3
   7              		.eabi_attribute 24, 1
   8              		.eabi_attribute 25, 1
   9              		.eabi_attribute 26, 1
  10              		.eabi_attribute 30, 1
  11              		.eabi_attribute 34, 1
  12              		.eabi_attribute 18, 4
  13              		.file	"main.c"
  14              		.text
  15              	.Ltext0:
  16              		.cfi_sections	.debug_frame
  17              		.section	.text._Error_Handler,"ax",%progbits
  18              		.align	1
  19              		.global	_Error_Handler
  20              		.arch armv7e-m
  21              		.syntax unified
  22              		.thumb
  23              		.thumb_func
  24              		.fpu fpv4-sp-d16
  26              	_Error_Handler:
  27              	.LFB128:
  28              		.file 1 "Src/main.c"
   1:Src/main.c    **** 
   2:Src/main.c    **** /**
   3:Src/main.c    ****   ******************************************************************************
   4:Src/main.c    ****   * @file           : main.c
   5:Src/main.c    ****   * @brief          : Main program body
   6:Src/main.c    ****   ******************************************************************************
   7:Src/main.c    ****   ** This notice applies to any and all portions of this file
   8:Src/main.c    ****   * that are not between comment pairs USER CODE BEGIN and
   9:Src/main.c    ****   * USER CODE END. Other portions of this file, whether 
  10:Src/main.c    ****   * inserted by the user or by software development tools
  11:Src/main.c    ****   * are owned by their respective copyright owners.
  12:Src/main.c    ****   *
  13:Src/main.c    ****   * COPYRIGHT(c) 2018 STMicroelectronics
  14:Src/main.c    ****   *
  15:Src/main.c    ****   * Redistribution and use in source and binary forms, with or without modification,
  16:Src/main.c    ****   * are permitted provided that the following conditions are met:
  17:Src/main.c    ****   *   1. Redistributions of source code must retain the above copyright notice,
  18:Src/main.c    ****   *      this list of conditions and the following disclaimer.
  19:Src/main.c    ****   *   2. Redistributions in binary form must reproduce the above copyright notice,
  20:Src/main.c    ****   *      this list of conditions and the following disclaimer in the documentation
  21:Src/main.c    ****   *      and/or other materials provided with the distribution.
  22:Src/main.c    ****   *   3. Neither the name of STMicroelectronics nor the names of its contributors
  23:Src/main.c    ****   *      may be used to endorse or promote products derived from this software
  24:Src/main.c    ****   *      without specific prior written permission.
  25:Src/main.c    ****   *
  26:Src/main.c    ****   * THIS SOFTWARE IS PROVIDED BY THE COPYRIGHT HOLDERS AND CONTRIBUTORS "AS IS"
  27:Src/main.c    ****   * AND ANY EXPRESS OR IMPLIED WARRANTIES, INCLUDING, BUT NOT LIMITED TO, THE
  28:Src/main.c    ****   * IMPLIED WARRANTIES OF MERCHANTABILITY AND FITNESS FOR A PARTICULAR PURPOSE ARE
  29:Src/main.c    ****   * DISCLAIMED. IN NO EVENT SHALL THE COPYRIGHT HOLDER OR CONTRIBUTORS BE LIABLE
  30:Src/main.c    ****   * FOR ANY DIRECT, INDIRECT, INCIDENTAL, SPECIAL, EXEMPLARY, OR CONSEQUENTIAL
ARM GAS  /var/folders/8c/gyvcglfx7f97kbqb2h83mm_r0000gn/T//ccjkHz1m.s 			page 2


  31:Src/main.c    ****   * DAMAGES (INCLUDING, BUT NOT LIMITED TO, PROCUREMENT OF SUBSTITUTE GOODS OR
  32:Src/main.c    ****   * SERVICES; LOSS OF USE, DATA, OR PROFITS; OR BUSINESS INTERRUPTION) HOWEVER
  33:Src/main.c    ****   * CAUSED AND ON ANY THEORY OF LIABILITY, WHETHER IN CONTRACT, STRICT LIABILITY,
  34:Src/main.c    ****   * OR TORT (INCLUDING NEGLIGENCE OR OTHERWISE) ARISING IN ANY WAY OUT OF THE USE
  35:Src/main.c    ****   * OF THIS SOFTWARE, EVEN IF ADVISED OF THE POSSIBILITY OF SUCH DAMAGE.
  36:Src/main.c    ****   *
  37:Src/main.c    ****   ******************************************************************************
  38:Src/main.c    ****   */
  39:Src/main.c    **** /* Includes ------------------------------------------------------------------*/
  40:Src/main.c    **** #include "main.h"
  41:Src/main.c    **** #include "stm32f3xx_hal.h"
  42:Src/main.c    **** #include "gpio.h"
  43:Src/main.c    **** 
  44:Src/main.c    **** /* USER CODE BEGIN Includes */
  45:Src/main.c    **** 
  46:Src/main.c    **** /* USER CODE END Includes */
  47:Src/main.c    **** 
  48:Src/main.c    **** /* Private variables ---------------------------------------------------------*/
  49:Src/main.c    **** 
  50:Src/main.c    **** /* USER CODE BEGIN PV */
  51:Src/main.c    **** /* Private variables ---------------------------------------------------------*/
  52:Src/main.c    **** 
  53:Src/main.c    **** /* USER CODE END PV */
  54:Src/main.c    **** 
  55:Src/main.c    **** /* Private function prototypes -----------------------------------------------*/
  56:Src/main.c    **** void SystemClock_Config(void);
  57:Src/main.c    **** 
  58:Src/main.c    **** /* USER CODE BEGIN PFP */
  59:Src/main.c    **** /* Private function prototypes -----------------------------------------------*/
  60:Src/main.c    **** 
  61:Src/main.c    **** /* USER CODE END PFP */
  62:Src/main.c    **** 
  63:Src/main.c    **** /* USER CODE BEGIN 0 */
  64:Src/main.c    **** 
  65:Src/main.c    **** /* USER CODE END 0 */
  66:Src/main.c    **** 
  67:Src/main.c    **** /**
  68:Src/main.c    ****   * @brief  The application entry point.
  69:Src/main.c    ****   *
  70:Src/main.c    ****   * @retval None
  71:Src/main.c    ****   */
  72:Src/main.c    **** int main(void)
  73:Src/main.c    **** {
  74:Src/main.c    ****   /* USER CODE BEGIN 1 */
  75:Src/main.c    **** 
  76:Src/main.c    ****   /* USER CODE END 1 */
  77:Src/main.c    **** 
  78:Src/main.c    ****   /* MCU Configuration----------------------------------------------------------*/
  79:Src/main.c    **** 
  80:Src/main.c    ****   /* Reset of all peripherals, Initializes the Flash interface and the Systick. */
  81:Src/main.c    ****   HAL_Init();
  82:Src/main.c    **** 
  83:Src/main.c    ****   /* USER CODE BEGIN Init */
  84:Src/main.c    **** 
  85:Src/main.c    ****   /* USER CODE END Init */
  86:Src/main.c    **** 
  87:Src/main.c    ****   /* Configure the system clock */
ARM GAS  /var/folders/8c/gyvcglfx7f97kbqb2h83mm_r0000gn/T//ccjkHz1m.s 			page 3


  88:Src/main.c    ****   SystemClock_Config();
  89:Src/main.c    **** 
  90:Src/main.c    ****   /* USER CODE BEGIN SysInit */
  91:Src/main.c    **** 
  92:Src/main.c    ****   /* USER CODE END SysInit */
  93:Src/main.c    **** 
  94:Src/main.c    ****   /* Initialize all configured peripherals */
  95:Src/main.c    ****   MX_GPIO_Init();
  96:Src/main.c    ****   /* USER CODE BEGIN 2 */
  97:Src/main.c    **** 
  98:Src/main.c    ****   /* USER CODE END 2 */
  99:Src/main.c    **** 
 100:Src/main.c    ****   /* Infinite loop */
 101:Src/main.c    ****   /* USER CODE BEGIN WHILE */
 102:Src/main.c    ****   while (1)
 103:Src/main.c    ****   {
 104:Src/main.c    **** 
 105:Src/main.c    ****   /* USER CODE END WHILE */
 106:Src/main.c    ****     HAL_GPIO_TogglePin(GPIOA, GPIO_PIN_5);
 107:Src/main.c    ****     /* Insert delay 100 ms */
 108:Src/main.c    ****     HAL_Delay(100);
 109:Src/main.c    ****   /* USER CODE BEGIN 3 */
 110:Src/main.c    **** 
 111:Src/main.c    ****   }
 112:Src/main.c    ****   /* USER CODE END 3 */
 113:Src/main.c    **** 
 114:Src/main.c    **** }
 115:Src/main.c    **** 
 116:Src/main.c    **** /**
 117:Src/main.c    ****   * @brief System Clock Configuration
 118:Src/main.c    ****   * @retval None
 119:Src/main.c    ****   */
 120:Src/main.c    **** void SystemClock_Config(void)
 121:Src/main.c    **** {
 122:Src/main.c    **** 
 123:Src/main.c    ****   RCC_OscInitTypeDef RCC_OscInitStruct;
 124:Src/main.c    ****   RCC_ClkInitTypeDef RCC_ClkInitStruct;
 125:Src/main.c    **** 
 126:Src/main.c    ****     /**Initializes the CPU, AHB and APB busses clocks 
 127:Src/main.c    ****     */
 128:Src/main.c    ****   RCC_OscInitStruct.OscillatorType = RCC_OSCILLATORTYPE_HSI;
 129:Src/main.c    ****   RCC_OscInitStruct.HSIState = RCC_HSI_ON;
 130:Src/main.c    ****   RCC_OscInitStruct.HSICalibrationValue = 16;
 131:Src/main.c    ****   RCC_OscInitStruct.PLL.PLLState = RCC_PLL_NONE;
 132:Src/main.c    ****   if (HAL_RCC_OscConfig(&RCC_OscInitStruct) != HAL_OK)
 133:Src/main.c    ****   {
 134:Src/main.c    ****     _Error_Handler(__FILE__, __LINE__);
 135:Src/main.c    ****   }
 136:Src/main.c    **** 
 137:Src/main.c    ****     /**Initializes the CPU, AHB and APB busses clocks 
 138:Src/main.c    ****     */
 139:Src/main.c    ****   RCC_ClkInitStruct.ClockType = RCC_CLOCKTYPE_HCLK|RCC_CLOCKTYPE_SYSCLK
 140:Src/main.c    ****                               |RCC_CLOCKTYPE_PCLK1|RCC_CLOCKTYPE_PCLK2;
 141:Src/main.c    ****   RCC_ClkInitStruct.SYSCLKSource = RCC_SYSCLKSOURCE_HSI;
 142:Src/main.c    ****   RCC_ClkInitStruct.AHBCLKDivider = RCC_SYSCLK_DIV1;
 143:Src/main.c    ****   RCC_ClkInitStruct.APB1CLKDivider = RCC_HCLK_DIV1;
 144:Src/main.c    ****   RCC_ClkInitStruct.APB2CLKDivider = RCC_HCLK_DIV1;
ARM GAS  /var/folders/8c/gyvcglfx7f97kbqb2h83mm_r0000gn/T//ccjkHz1m.s 			page 4


 145:Src/main.c    **** 
 146:Src/main.c    ****   if (HAL_RCC_ClockConfig(&RCC_ClkInitStruct, FLASH_LATENCY_0) != HAL_OK)
 147:Src/main.c    ****   {
 148:Src/main.c    ****     _Error_Handler(__FILE__, __LINE__);
 149:Src/main.c    ****   }
 150:Src/main.c    **** 
 151:Src/main.c    ****     /**Configure the Systick interrupt time 
 152:Src/main.c    ****     */
 153:Src/main.c    ****   HAL_SYSTICK_Config(HAL_RCC_GetHCLKFreq()/1000);
 154:Src/main.c    **** 
 155:Src/main.c    ****     /**Configure the Systick 
 156:Src/main.c    ****     */
 157:Src/main.c    ****   HAL_SYSTICK_CLKSourceConfig(SYSTICK_CLKSOURCE_HCLK);
 158:Src/main.c    **** 
 159:Src/main.c    ****   /* SysTick_IRQn interrupt configuration */
 160:Src/main.c    ****   HAL_NVIC_SetPriority(SysTick_IRQn, 0, 0);
 161:Src/main.c    **** }
 162:Src/main.c    **** 
 163:Src/main.c    **** /* USER CODE BEGIN 4 */
 164:Src/main.c    **** 
 165:Src/main.c    **** /* USER CODE END 4 */
 166:Src/main.c    **** 
 167:Src/main.c    **** /**
 168:Src/main.c    ****   * @brief  This function is executed in case of error occurrence.
 169:Src/main.c    ****   * @param  file: The file name as string.
 170:Src/main.c    ****   * @param  line: The line in file as a number.
 171:Src/main.c    ****   * @retval None
 172:Src/main.c    ****   */
 173:Src/main.c    **** void _Error_Handler(char *file, int line)
 174:Src/main.c    **** {
  29              		.loc 1 174 1 view -0
  30              		.cfi_startproc
  31              		@ Volatile: function does not return.
  32              		@ args = 0, pretend = 0, frame = 0
  33              		@ frame_needed = 0, uses_anonymous_args = 0
  34              		@ link register save eliminated.
  35              	.LVL0:
  36              	.L2:
 175:Src/main.c    ****   /* USER CODE BEGIN Error_Handler_Debug */
 176:Src/main.c    ****   /* User can add his own implementation to report the HAL error return state */
 177:Src/main.c    ****   while(1)
  37              		.loc 1 177 3 discriminator 1 view .LVU1
 178:Src/main.c    ****   {
 179:Src/main.c    ****   }
  38              		.loc 1 179 3 discriminator 1 view .LVU2
  39 0000 FEE7     		b	.L2
  40              		.cfi_endproc
  41              	.LFE128:
  43              		.section	.text.SystemClock_Config,"ax",%progbits
  44              		.align	1
  45              		.global	SystemClock_Config
  46              		.syntax unified
  47              		.thumb
  48              		.thumb_func
  49              		.fpu fpv4-sp-d16
  51              	SystemClock_Config:
  52              	.LFB127:
ARM GAS  /var/folders/8c/gyvcglfx7f97kbqb2h83mm_r0000gn/T//ccjkHz1m.s 			page 5


 121:Src/main.c    **** 
  53              		.loc 1 121 1 view -0
  54              		.cfi_startproc
  55              		@ args = 0, pretend = 0, frame = 64
  56              		@ frame_needed = 0, uses_anonymous_args = 0
  57 0000 00B5     		push	{lr}
  58              	.LCFI0:
  59              		.cfi_def_cfa_offset 4
  60              		.cfi_offset 14, -4
  61 0002 91B0     		sub	sp, sp, #68
  62              	.LCFI1:
  63              		.cfi_def_cfa_offset 72
 123:Src/main.c    ****   RCC_ClkInitTypeDef RCC_ClkInitStruct;
  64              		.loc 1 123 3 view .LVU4
 124:Src/main.c    **** 
  65              		.loc 1 124 3 view .LVU5
 128:Src/main.c    ****   RCC_OscInitStruct.HSIState = RCC_HSI_ON;
  66              		.loc 1 128 3 view .LVU6
 128:Src/main.c    ****   RCC_OscInitStruct.HSIState = RCC_HSI_ON;
  67              		.loc 1 128 36 is_stmt 0 view .LVU7
  68 0004 0223     		movs	r3, #2
  69 0006 0693     		str	r3, [sp, #24]
 129:Src/main.c    ****   RCC_OscInitStruct.HSICalibrationValue = 16;
  70              		.loc 1 129 3 is_stmt 1 view .LVU8
 129:Src/main.c    ****   RCC_OscInitStruct.HSICalibrationValue = 16;
  71              		.loc 1 129 30 is_stmt 0 view .LVU9
  72 0008 0123     		movs	r3, #1
  73 000a 0993     		str	r3, [sp, #36]
 130:Src/main.c    ****   RCC_OscInitStruct.PLL.PLLState = RCC_PLL_NONE;
  74              		.loc 1 130 3 is_stmt 1 view .LVU10
 130:Src/main.c    ****   RCC_OscInitStruct.PLL.PLLState = RCC_PLL_NONE;
  75              		.loc 1 130 41 is_stmt 0 view .LVU11
  76 000c 1023     		movs	r3, #16
  77 000e 0A93     		str	r3, [sp, #40]
 131:Src/main.c    ****   if (HAL_RCC_OscConfig(&RCC_OscInitStruct) != HAL_OK)
  78              		.loc 1 131 3 is_stmt 1 view .LVU12
 131:Src/main.c    ****   if (HAL_RCC_OscConfig(&RCC_OscInitStruct) != HAL_OK)
  79              		.loc 1 131 34 is_stmt 0 view .LVU13
  80 0010 0023     		movs	r3, #0
  81 0012 0C93     		str	r3, [sp, #48]
 132:Src/main.c    ****   {
  82              		.loc 1 132 3 is_stmt 1 view .LVU14
 132:Src/main.c    ****   {
  83              		.loc 1 132 7 is_stmt 0 view .LVU15
  84 0014 06A8     		add	r0, sp, #24
  85 0016 FFF7FEFF 		bl	HAL_RCC_OscConfig
  86              	.LVL1:
 132:Src/main.c    ****   {
  87              		.loc 1 132 6 view .LVU16
  88 001a F0B9     		cbnz	r0, .L7
 139:Src/main.c    ****                               |RCC_CLOCKTYPE_PCLK1|RCC_CLOCKTYPE_PCLK2;
  89              		.loc 1 139 3 is_stmt 1 view .LVU17
 139:Src/main.c    ****                               |RCC_CLOCKTYPE_PCLK1|RCC_CLOCKTYPE_PCLK2;
  90              		.loc 1 139 31 is_stmt 0 view .LVU18
  91 001c 0F23     		movs	r3, #15
  92 001e 0193     		str	r3, [sp, #4]
 141:Src/main.c    ****   RCC_ClkInitStruct.AHBCLKDivider = RCC_SYSCLK_DIV1;
ARM GAS  /var/folders/8c/gyvcglfx7f97kbqb2h83mm_r0000gn/T//ccjkHz1m.s 			page 6


  93              		.loc 1 141 3 is_stmt 1 view .LVU19
 141:Src/main.c    ****   RCC_ClkInitStruct.AHBCLKDivider = RCC_SYSCLK_DIV1;
  94              		.loc 1 141 34 is_stmt 0 view .LVU20
  95 0020 0021     		movs	r1, #0
  96 0022 0291     		str	r1, [sp, #8]
 142:Src/main.c    ****   RCC_ClkInitStruct.APB1CLKDivider = RCC_HCLK_DIV1;
  97              		.loc 1 142 3 is_stmt 1 view .LVU21
 142:Src/main.c    ****   RCC_ClkInitStruct.APB1CLKDivider = RCC_HCLK_DIV1;
  98              		.loc 1 142 35 is_stmt 0 view .LVU22
  99 0024 0391     		str	r1, [sp, #12]
 143:Src/main.c    ****   RCC_ClkInitStruct.APB2CLKDivider = RCC_HCLK_DIV1;
 100              		.loc 1 143 3 is_stmt 1 view .LVU23
 143:Src/main.c    ****   RCC_ClkInitStruct.APB2CLKDivider = RCC_HCLK_DIV1;
 101              		.loc 1 143 36 is_stmt 0 view .LVU24
 102 0026 0491     		str	r1, [sp, #16]
 144:Src/main.c    **** 
 103              		.loc 1 144 3 is_stmt 1 view .LVU25
 144:Src/main.c    **** 
 104              		.loc 1 144 36 is_stmt 0 view .LVU26
 105 0028 0591     		str	r1, [sp, #20]
 146:Src/main.c    ****   {
 106              		.loc 1 146 3 is_stmt 1 view .LVU27
 146:Src/main.c    ****   {
 107              		.loc 1 146 7 is_stmt 0 view .LVU28
 108 002a 01A8     		add	r0, sp, #4
 109 002c FFF7FEFF 		bl	HAL_RCC_ClockConfig
 110              	.LVL2:
 146:Src/main.c    ****   {
 111              		.loc 1 146 6 view .LVU29
 112 0030 B8B9     		cbnz	r0, .L8
 153:Src/main.c    **** 
 113              		.loc 1 153 3 is_stmt 1 view .LVU30
 153:Src/main.c    **** 
 114              		.loc 1 153 22 is_stmt 0 view .LVU31
 115 0032 FFF7FEFF 		bl	HAL_RCC_GetHCLKFreq
 116              	.LVL3:
 153:Src/main.c    **** 
 117              		.loc 1 153 3 view .LVU32
 118 0036 0D4B     		ldr	r3, .L9
 119 0038 A3FB0030 		umull	r3, r0, r3, r0
 120 003c 8009     		lsrs	r0, r0, #6
 121 003e FFF7FEFF 		bl	HAL_SYSTICK_Config
 122              	.LVL4:
 157:Src/main.c    **** 
 123              		.loc 1 157 3 is_stmt 1 view .LVU33
 124 0042 0420     		movs	r0, #4
 125 0044 FFF7FEFF 		bl	HAL_SYSTICK_CLKSourceConfig
 126              	.LVL5:
 160:Src/main.c    **** }
 127              		.loc 1 160 3 view .LVU34
 128 0048 0022     		movs	r2, #0
 129 004a 1146     		mov	r1, r2
 130 004c 4FF0FF30 		mov	r0, #-1
 131 0050 FFF7FEFF 		bl	HAL_NVIC_SetPriority
 132              	.LVL6:
 161:Src/main.c    **** 
 133              		.loc 1 161 1 is_stmt 0 view .LVU35
ARM GAS  /var/folders/8c/gyvcglfx7f97kbqb2h83mm_r0000gn/T//ccjkHz1m.s 			page 7


 134 0054 11B0     		add	sp, sp, #68
 135              	.LCFI2:
 136              		.cfi_remember_state
 137              		.cfi_def_cfa_offset 4
 138              		@ sp needed
 139 0056 5DF804FB 		ldr	pc, [sp], #4
 140              	.L7:
 141              	.LCFI3:
 142              		.cfi_restore_state
 134:Src/main.c    ****   }
 143              		.loc 1 134 5 is_stmt 1 view .LVU36
 144 005a 8621     		movs	r1, #134
 145 005c 0448     		ldr	r0, .L9+4
 146 005e FFF7FEFF 		bl	_Error_Handler
 147              	.LVL7:
 148              	.L8:
 148:Src/main.c    ****   }
 149              		.loc 1 148 5 view .LVU37
 150 0062 9421     		movs	r1, #148
 151 0064 0248     		ldr	r0, .L9+4
 152 0066 FFF7FEFF 		bl	_Error_Handler
 153              	.LVL8:
 154              	.L10:
 155 006a 00BF     		.align	2
 156              	.L9:
 157 006c D34D6210 		.word	274877907
 158 0070 00000000 		.word	.LC0
 159              		.cfi_endproc
 160              	.LFE127:
 162              		.section	.text.main,"ax",%progbits
 163              		.align	1
 164              		.global	main
 165              		.syntax unified
 166              		.thumb
 167              		.thumb_func
 168              		.fpu fpv4-sp-d16
 170              	main:
 171              	.LFB126:
  73:Src/main.c    ****   /* USER CODE BEGIN 1 */
 172              		.loc 1 73 1 view -0
 173              		.cfi_startproc
 174              		@ Volatile: function does not return.
 175              		@ args = 0, pretend = 0, frame = 0
 176              		@ frame_needed = 0, uses_anonymous_args = 0
 177 0000 08B5     		push	{r3, lr}
 178              	.LCFI4:
 179              		.cfi_def_cfa_offset 8
 180              		.cfi_offset 3, -8
 181              		.cfi_offset 14, -4
  81:Src/main.c    **** 
 182              		.loc 1 81 3 view .LVU39
 183 0002 FFF7FEFF 		bl	HAL_Init
 184              	.LVL9:
  88:Src/main.c    **** 
 185              		.loc 1 88 3 view .LVU40
 186 0006 FFF7FEFF 		bl	SystemClock_Config
 187              	.LVL10:
ARM GAS  /var/folders/8c/gyvcglfx7f97kbqb2h83mm_r0000gn/T//ccjkHz1m.s 			page 8


  95:Src/main.c    ****   /* USER CODE BEGIN 2 */
 188              		.loc 1 95 3 view .LVU41
 189 000a FFF7FEFF 		bl	MX_GPIO_Init
 190              	.LVL11:
 191              	.L12:
 102:Src/main.c    ****   {
 192              		.loc 1 102 3 discriminator 1 view .LVU42
 106:Src/main.c    ****     /* Insert delay 100 ms */
 193              		.loc 1 106 5 discriminator 1 view .LVU43
 194 000e 2021     		movs	r1, #32
 195 0010 4FF09040 		mov	r0, #1207959552
 196 0014 FFF7FEFF 		bl	HAL_GPIO_TogglePin
 197              	.LVL12:
 108:Src/main.c    ****   /* USER CODE BEGIN 3 */
 198              		.loc 1 108 5 discriminator 1 view .LVU44
 199 0018 6420     		movs	r0, #100
 200 001a FFF7FEFF 		bl	HAL_Delay
 201              	.LVL13:
 202 001e F6E7     		b	.L12
 203              		.cfi_endproc
 204              	.LFE126:
 206              		.section	.rodata.SystemClock_Config.str1.4,"aMS",%progbits,1
 207              		.align	2
 208              	.LC0:
 209 0000 5372632F 		.ascii	"Src/main.c\000"
 209      6D61696E 
 209      2E6300
 210              		.text
 211              	.Letext0:
 212              		.file 2 "/usr/local/gcc-arm-none-eabi-8-2018-q4-major/arm-none-eabi/include/machine/_default_types
 213              		.file 3 "/usr/local/gcc-arm-none-eabi-8-2018-q4-major/arm-none-eabi/include/sys/_stdint.h"
 214              		.file 4 "Drivers/CMSIS/Include/core_cm4.h"
 215              		.file 5 "Drivers/CMSIS/Device/ST/STM32F3xx/Include/system_stm32f3xx.h"
 216              		.file 6 "Drivers/CMSIS/Device/ST/STM32F3xx/Include/stm32f303xe.h"
 217              		.file 7 "/usr/local/gcc-arm-none-eabi-8-2018-q4-major/arm-none-eabi/include/sys/lock.h"
 218              		.file 8 "/usr/local/gcc-arm-none-eabi-8-2018-q4-major/arm-none-eabi/include/sys/_types.h"
 219              		.file 9 "/usr/local/gcc-arm-none-eabi-8-2018-q4-major/lib/gcc/arm-none-eabi/8.2.1/include/stddef.h
 220              		.file 10 "/usr/local/gcc-arm-none-eabi-8-2018-q4-major/arm-none-eabi/include/sys/reent.h"
 221              		.file 11 "Drivers/STM32F3xx_HAL_Driver/Inc/stm32f3xx_hal_def.h"
 222              		.file 12 "Drivers/STM32F3xx_HAL_Driver/Inc/stm32f3xx_hal_rcc.h"
 223              		.file 13 "Drivers/STM32F3xx_HAL_Driver/Inc/stm32f3xx_hal_cortex.h"
 224              		.file 14 "Drivers/STM32F3xx_HAL_Driver/Inc/stm32f3xx_hal.h"
 225              		.file 15 "Inc/gpio.h"
 226              		.file 16 "Drivers/STM32F3xx_HAL_Driver/Inc/stm32f3xx_hal_gpio.h"
ARM GAS  /var/folders/8c/gyvcglfx7f97kbqb2h83mm_r0000gn/T//ccjkHz1m.s 			page 9

