ARM GAS  /var/folders/8c/gyvcglfx7f97kbqb2h83mm_r0000gn/T//cc6V9BzC.s 			page 1


   1              		.cpu cortex-m4
   2              		.eabi_attribute 27, 1
   3              		.eabi_attribute 28, 1
   4              		.eabi_attribute 20, 1
   5              		.eabi_attribute 21, 1
   6              		.eabi_attribute 23, 3
   7              		.eabi_attribute 24, 1
   8              		.eabi_attribute 25, 1
   9              		.eabi_attribute 26, 1
  10              		.eabi_attribute 30, 1
  11              		.eabi_attribute 34, 1
  12              		.eabi_attribute 18, 4
  13              		.file	"stm32f3xx_hal_rcc.c"
  14              		.text
  15              	.Ltext0:
  16              		.cfi_sections	.debug_frame
  17              		.section	.text.HAL_RCC_DeInit,"ax",%progbits
  18              		.align	1
  19              		.global	HAL_RCC_DeInit
  20              		.arch armv7e-m
  21              		.syntax unified
  22              		.thumb
  23              		.thumb_func
  24              		.fpu fpv4-sp-d16
  26              	HAL_RCC_DeInit:
  27              	.LFB126:
  28              		.file 1 "Drivers/STM32F3xx_HAL_Driver/Src/stm32f3xx_hal_rcc.c"
   1:Drivers/STM32F3xx_HAL_Driver/Src/stm32f3xx_hal_rcc.c **** /**
   2:Drivers/STM32F3xx_HAL_Driver/Src/stm32f3xx_hal_rcc.c ****   ******************************************************************************
   3:Drivers/STM32F3xx_HAL_Driver/Src/stm32f3xx_hal_rcc.c ****   * @file    stm32f3xx_hal_rcc.c
   4:Drivers/STM32F3xx_HAL_Driver/Src/stm32f3xx_hal_rcc.c ****   * @author  MCD Application Team
   5:Drivers/STM32F3xx_HAL_Driver/Src/stm32f3xx_hal_rcc.c ****   * @brief   RCC HAL module driver.
   6:Drivers/STM32F3xx_HAL_Driver/Src/stm32f3xx_hal_rcc.c ****   *          This file provides firmware functions to manage the following 
   7:Drivers/STM32F3xx_HAL_Driver/Src/stm32f3xx_hal_rcc.c ****   *          functionalities of the Reset and Clock Control (RCC) peripheral:
   8:Drivers/STM32F3xx_HAL_Driver/Src/stm32f3xx_hal_rcc.c ****   *           + Initialization and de-initialization functions
   9:Drivers/STM32F3xx_HAL_Driver/Src/stm32f3xx_hal_rcc.c ****   *           + Peripheral Control functions
  10:Drivers/STM32F3xx_HAL_Driver/Src/stm32f3xx_hal_rcc.c ****   *       
  11:Drivers/STM32F3xx_HAL_Driver/Src/stm32f3xx_hal_rcc.c ****   @verbatim                
  12:Drivers/STM32F3xx_HAL_Driver/Src/stm32f3xx_hal_rcc.c ****   ==============================================================================
  13:Drivers/STM32F3xx_HAL_Driver/Src/stm32f3xx_hal_rcc.c ****                       ##### RCC specific features #####
  14:Drivers/STM32F3xx_HAL_Driver/Src/stm32f3xx_hal_rcc.c ****   ==============================================================================
  15:Drivers/STM32F3xx_HAL_Driver/Src/stm32f3xx_hal_rcc.c ****     [..]  
  16:Drivers/STM32F3xx_HAL_Driver/Src/stm32f3xx_hal_rcc.c ****       After reset the device is running from Internal High Speed oscillator
  17:Drivers/STM32F3xx_HAL_Driver/Src/stm32f3xx_hal_rcc.c ****       (HSI 8MHz) with Flash 0 wait state, Flash prefetch buffer is enabled, 
  18:Drivers/STM32F3xx_HAL_Driver/Src/stm32f3xx_hal_rcc.c ****       and all peripherals are off except internal SRAM, Flash and JTAG.
  19:Drivers/STM32F3xx_HAL_Driver/Src/stm32f3xx_hal_rcc.c ****       (+) There is no prescaler on High speed (AHB) and Low speed (APB) buses;
  20:Drivers/STM32F3xx_HAL_Driver/Src/stm32f3xx_hal_rcc.c ****           all peripherals mapped on these buses are running at HSI speed.
  21:Drivers/STM32F3xx_HAL_Driver/Src/stm32f3xx_hal_rcc.c ****       (+) The clock for all peripherals is switched off, except the SRAM and FLASH.
  22:Drivers/STM32F3xx_HAL_Driver/Src/stm32f3xx_hal_rcc.c ****       (+) All GPIOs are in input floating state, except the JTAG pins which
  23:Drivers/STM32F3xx_HAL_Driver/Src/stm32f3xx_hal_rcc.c ****           are assigned to be used for debug purpose.
  24:Drivers/STM32F3xx_HAL_Driver/Src/stm32f3xx_hal_rcc.c ****     [..] Once the device started from reset, the user application has to:
  25:Drivers/STM32F3xx_HAL_Driver/Src/stm32f3xx_hal_rcc.c ****       (+) Configure the clock source to be used to drive the System clock
  26:Drivers/STM32F3xx_HAL_Driver/Src/stm32f3xx_hal_rcc.c ****           (if the application needs higher frequency/performance)
  27:Drivers/STM32F3xx_HAL_Driver/Src/stm32f3xx_hal_rcc.c ****       (+) Configure the System clock frequency and Flash settings  
  28:Drivers/STM32F3xx_HAL_Driver/Src/stm32f3xx_hal_rcc.c ****       (+) Configure the AHB and APB buses prescalers
  29:Drivers/STM32F3xx_HAL_Driver/Src/stm32f3xx_hal_rcc.c ****       (+) Enable the clock for the peripheral(s) to be used
  30:Drivers/STM32F3xx_HAL_Driver/Src/stm32f3xx_hal_rcc.c ****       (+) Configure the clock source(s) for peripherals whose clocks are not
ARM GAS  /var/folders/8c/gyvcglfx7f97kbqb2h83mm_r0000gn/T//cc6V9BzC.s 			page 2


  31:Drivers/STM32F3xx_HAL_Driver/Src/stm32f3xx_hal_rcc.c ****           derived from the System clock (RTC, ADC, I2C, I2S, TIM, USB FS)
  32:Drivers/STM32F3xx_HAL_Driver/Src/stm32f3xx_hal_rcc.c **** 
  33:Drivers/STM32F3xx_HAL_Driver/Src/stm32f3xx_hal_rcc.c ****                       ##### RCC Limitations #####
  34:Drivers/STM32F3xx_HAL_Driver/Src/stm32f3xx_hal_rcc.c ****   ==============================================================================
  35:Drivers/STM32F3xx_HAL_Driver/Src/stm32f3xx_hal_rcc.c ****     [..]  
  36:Drivers/STM32F3xx_HAL_Driver/Src/stm32f3xx_hal_rcc.c ****       A delay between an RCC peripheral clock enable and the effective peripheral 
  37:Drivers/STM32F3xx_HAL_Driver/Src/stm32f3xx_hal_rcc.c ****       enabling should be taken into account in order to manage the peripheral read/write 
  38:Drivers/STM32F3xx_HAL_Driver/Src/stm32f3xx_hal_rcc.c ****       from/to registers.
  39:Drivers/STM32F3xx_HAL_Driver/Src/stm32f3xx_hal_rcc.c ****       (+) This delay depends on the peripheral mapping.
  40:Drivers/STM32F3xx_HAL_Driver/Src/stm32f3xx_hal_rcc.c ****         (++) AHB & APB peripherals, 1 dummy read is necessary
  41:Drivers/STM32F3xx_HAL_Driver/Src/stm32f3xx_hal_rcc.c **** 
  42:Drivers/STM32F3xx_HAL_Driver/Src/stm32f3xx_hal_rcc.c ****     [..]  
  43:Drivers/STM32F3xx_HAL_Driver/Src/stm32f3xx_hal_rcc.c ****       Workarounds:
  44:Drivers/STM32F3xx_HAL_Driver/Src/stm32f3xx_hal_rcc.c ****       (#) For AHB & APB peripherals, a dummy read to the peripheral register has been
  45:Drivers/STM32F3xx_HAL_Driver/Src/stm32f3xx_hal_rcc.c ****           inserted in each __HAL_RCC_PPP_CLK_ENABLE() macro.
  46:Drivers/STM32F3xx_HAL_Driver/Src/stm32f3xx_hal_rcc.c **** 
  47:Drivers/STM32F3xx_HAL_Driver/Src/stm32f3xx_hal_rcc.c ****   @endverbatim
  48:Drivers/STM32F3xx_HAL_Driver/Src/stm32f3xx_hal_rcc.c ****   ******************************************************************************
  49:Drivers/STM32F3xx_HAL_Driver/Src/stm32f3xx_hal_rcc.c ****   * @attention
  50:Drivers/STM32F3xx_HAL_Driver/Src/stm32f3xx_hal_rcc.c ****   *
  51:Drivers/STM32F3xx_HAL_Driver/Src/stm32f3xx_hal_rcc.c ****   * <h2><center>&copy; COPYRIGHT(c) 2016 STMicroelectronics</center></h2>
  52:Drivers/STM32F3xx_HAL_Driver/Src/stm32f3xx_hal_rcc.c ****   *
  53:Drivers/STM32F3xx_HAL_Driver/Src/stm32f3xx_hal_rcc.c ****   * Redistribution and use in source and binary forms, with or without modification,
  54:Drivers/STM32F3xx_HAL_Driver/Src/stm32f3xx_hal_rcc.c ****   * are permitted provided that the following conditions are met:
  55:Drivers/STM32F3xx_HAL_Driver/Src/stm32f3xx_hal_rcc.c ****   *   1. Redistributions of source code must retain the above copyright notice,
  56:Drivers/STM32F3xx_HAL_Driver/Src/stm32f3xx_hal_rcc.c ****   *      this list of conditions and the following disclaimer.
  57:Drivers/STM32F3xx_HAL_Driver/Src/stm32f3xx_hal_rcc.c ****   *   2. Redistributions in binary form must reproduce the above copyright notice,
  58:Drivers/STM32F3xx_HAL_Driver/Src/stm32f3xx_hal_rcc.c ****   *      this list of conditions and the following disclaimer in the documentation
  59:Drivers/STM32F3xx_HAL_Driver/Src/stm32f3xx_hal_rcc.c ****   *      and/or other materials provided with the distribution.
  60:Drivers/STM32F3xx_HAL_Driver/Src/stm32f3xx_hal_rcc.c ****   *   3. Neither the name of STMicroelectronics nor the names of its contributors
  61:Drivers/STM32F3xx_HAL_Driver/Src/stm32f3xx_hal_rcc.c ****   *      may be used to endorse or promote products derived from this software
  62:Drivers/STM32F3xx_HAL_Driver/Src/stm32f3xx_hal_rcc.c ****   *      without specific prior written permission.
  63:Drivers/STM32F3xx_HAL_Driver/Src/stm32f3xx_hal_rcc.c ****   *
  64:Drivers/STM32F3xx_HAL_Driver/Src/stm32f3xx_hal_rcc.c ****   * THIS SOFTWARE IS PROVIDED BY THE COPYRIGHT HOLDERS AND CONTRIBUTORS "AS IS"
  65:Drivers/STM32F3xx_HAL_Driver/Src/stm32f3xx_hal_rcc.c ****   * AND ANY EXPRESS OR IMPLIED WARRANTIES, INCLUDING, BUT NOT LIMITED TO, THE
  66:Drivers/STM32F3xx_HAL_Driver/Src/stm32f3xx_hal_rcc.c ****   * IMPLIED WARRANTIES OF MERCHANTABILITY AND FITNESS FOR A PARTICULAR PURPOSE ARE
  67:Drivers/STM32F3xx_HAL_Driver/Src/stm32f3xx_hal_rcc.c ****   * DISCLAIMED. IN NO EVENT SHALL THE COPYRIGHT HOLDER OR CONTRIBUTORS BE LIABLE
  68:Drivers/STM32F3xx_HAL_Driver/Src/stm32f3xx_hal_rcc.c ****   * FOR ANY DIRECT, INDIRECT, INCIDENTAL, SPECIAL, EXEMPLARY, OR CONSEQUENTIAL
  69:Drivers/STM32F3xx_HAL_Driver/Src/stm32f3xx_hal_rcc.c ****   * DAMAGES (INCLUDING, BUT NOT LIMITED TO, PROCUREMENT OF SUBSTITUTE GOODS OR
  70:Drivers/STM32F3xx_HAL_Driver/Src/stm32f3xx_hal_rcc.c ****   * SERVICES; LOSS OF USE, DATA, OR PROFITS; OR BUSINESS INTERRUPTION) HOWEVER
  71:Drivers/STM32F3xx_HAL_Driver/Src/stm32f3xx_hal_rcc.c ****   * CAUSED AND ON ANY THEORY OF LIABILITY, WHETHER IN CONTRACT, STRICT LIABILITY,
  72:Drivers/STM32F3xx_HAL_Driver/Src/stm32f3xx_hal_rcc.c ****   * OR TORT (INCLUDING NEGLIGENCE OR OTHERWISE) ARISING IN ANY WAY OUT OF THE USE
  73:Drivers/STM32F3xx_HAL_Driver/Src/stm32f3xx_hal_rcc.c ****   * OF THIS SOFTWARE, EVEN IF ADVISED OF THE POSSIBILITY OF SUCH DAMAGE.
  74:Drivers/STM32F3xx_HAL_Driver/Src/stm32f3xx_hal_rcc.c ****   *
  75:Drivers/STM32F3xx_HAL_Driver/Src/stm32f3xx_hal_rcc.c ****   ******************************************************************************  
  76:Drivers/STM32F3xx_HAL_Driver/Src/stm32f3xx_hal_rcc.c **** */
  77:Drivers/STM32F3xx_HAL_Driver/Src/stm32f3xx_hal_rcc.c **** 
  78:Drivers/STM32F3xx_HAL_Driver/Src/stm32f3xx_hal_rcc.c **** /* Includes ------------------------------------------------------------------*/
  79:Drivers/STM32F3xx_HAL_Driver/Src/stm32f3xx_hal_rcc.c **** #include "stm32f3xx_hal.h"
  80:Drivers/STM32F3xx_HAL_Driver/Src/stm32f3xx_hal_rcc.c **** 
  81:Drivers/STM32F3xx_HAL_Driver/Src/stm32f3xx_hal_rcc.c **** /** @addtogroup STM32F3xx_HAL_Driver
  82:Drivers/STM32F3xx_HAL_Driver/Src/stm32f3xx_hal_rcc.c ****   * @{
  83:Drivers/STM32F3xx_HAL_Driver/Src/stm32f3xx_hal_rcc.c ****   */
  84:Drivers/STM32F3xx_HAL_Driver/Src/stm32f3xx_hal_rcc.c **** 
  85:Drivers/STM32F3xx_HAL_Driver/Src/stm32f3xx_hal_rcc.c **** /** @defgroup RCC RCC
  86:Drivers/STM32F3xx_HAL_Driver/Src/stm32f3xx_hal_rcc.c **** * @brief RCC HAL module driver
  87:Drivers/STM32F3xx_HAL_Driver/Src/stm32f3xx_hal_rcc.c ****   * @{
ARM GAS  /var/folders/8c/gyvcglfx7f97kbqb2h83mm_r0000gn/T//cc6V9BzC.s 			page 3


  88:Drivers/STM32F3xx_HAL_Driver/Src/stm32f3xx_hal_rcc.c ****   */
  89:Drivers/STM32F3xx_HAL_Driver/Src/stm32f3xx_hal_rcc.c **** 
  90:Drivers/STM32F3xx_HAL_Driver/Src/stm32f3xx_hal_rcc.c **** #ifdef HAL_RCC_MODULE_ENABLED
  91:Drivers/STM32F3xx_HAL_Driver/Src/stm32f3xx_hal_rcc.c **** 
  92:Drivers/STM32F3xx_HAL_Driver/Src/stm32f3xx_hal_rcc.c **** /* Private typedef -----------------------------------------------------------*/
  93:Drivers/STM32F3xx_HAL_Driver/Src/stm32f3xx_hal_rcc.c **** /* Private define ------------------------------------------------------------*/
  94:Drivers/STM32F3xx_HAL_Driver/Src/stm32f3xx_hal_rcc.c **** /** @defgroup RCC_Private_Constants RCC Private Constants
  95:Drivers/STM32F3xx_HAL_Driver/Src/stm32f3xx_hal_rcc.c ****  * @{
  96:Drivers/STM32F3xx_HAL_Driver/Src/stm32f3xx_hal_rcc.c ****  */
  97:Drivers/STM32F3xx_HAL_Driver/Src/stm32f3xx_hal_rcc.c **** /* Bits position in  in the CFGR register */
  98:Drivers/STM32F3xx_HAL_Driver/Src/stm32f3xx_hal_rcc.c **** #define RCC_CFGR_HPRE_BITNUMBER           POSITION_VAL(RCC_CFGR_HPRE)
  99:Drivers/STM32F3xx_HAL_Driver/Src/stm32f3xx_hal_rcc.c **** #define RCC_CFGR_PPRE1_BITNUMBER          POSITION_VAL(RCC_CFGR_PPRE1)
 100:Drivers/STM32F3xx_HAL_Driver/Src/stm32f3xx_hal_rcc.c **** #define RCC_CFGR_PPRE2_BITNUMBER          POSITION_VAL(RCC_CFGR_PPRE2)
 101:Drivers/STM32F3xx_HAL_Driver/Src/stm32f3xx_hal_rcc.c **** /**
 102:Drivers/STM32F3xx_HAL_Driver/Src/stm32f3xx_hal_rcc.c ****   * @}
 103:Drivers/STM32F3xx_HAL_Driver/Src/stm32f3xx_hal_rcc.c ****   */
 104:Drivers/STM32F3xx_HAL_Driver/Src/stm32f3xx_hal_rcc.c **** /* Private macro -------------------------------------------------------------*/
 105:Drivers/STM32F3xx_HAL_Driver/Src/stm32f3xx_hal_rcc.c **** /** @defgroup RCC_Private_Macros RCC Private Macros
 106:Drivers/STM32F3xx_HAL_Driver/Src/stm32f3xx_hal_rcc.c ****   * @{
 107:Drivers/STM32F3xx_HAL_Driver/Src/stm32f3xx_hal_rcc.c ****   */
 108:Drivers/STM32F3xx_HAL_Driver/Src/stm32f3xx_hal_rcc.c **** 
 109:Drivers/STM32F3xx_HAL_Driver/Src/stm32f3xx_hal_rcc.c **** #define MCO1_CLK_ENABLE()     __HAL_RCC_GPIOA_CLK_ENABLE()
 110:Drivers/STM32F3xx_HAL_Driver/Src/stm32f3xx_hal_rcc.c **** #define MCO1_GPIO_PORT        GPIOA
 111:Drivers/STM32F3xx_HAL_Driver/Src/stm32f3xx_hal_rcc.c **** #define MCO1_PIN              GPIO_PIN_8
 112:Drivers/STM32F3xx_HAL_Driver/Src/stm32f3xx_hal_rcc.c **** 
 113:Drivers/STM32F3xx_HAL_Driver/Src/stm32f3xx_hal_rcc.c **** /**
 114:Drivers/STM32F3xx_HAL_Driver/Src/stm32f3xx_hal_rcc.c ****   * @}
 115:Drivers/STM32F3xx_HAL_Driver/Src/stm32f3xx_hal_rcc.c ****   */
 116:Drivers/STM32F3xx_HAL_Driver/Src/stm32f3xx_hal_rcc.c **** 
 117:Drivers/STM32F3xx_HAL_Driver/Src/stm32f3xx_hal_rcc.c **** /* Private variables ---------------------------------------------------------*/
 118:Drivers/STM32F3xx_HAL_Driver/Src/stm32f3xx_hal_rcc.c **** /** @defgroup RCC_Private_Variables RCC Private Variables
 119:Drivers/STM32F3xx_HAL_Driver/Src/stm32f3xx_hal_rcc.c ****   * @{
 120:Drivers/STM32F3xx_HAL_Driver/Src/stm32f3xx_hal_rcc.c ****   */
 121:Drivers/STM32F3xx_HAL_Driver/Src/stm32f3xx_hal_rcc.c **** const uint8_t aPLLMULFactorTable[16] = { 2U,  3U,  4U,  5U,  6U,  7U,  8U,  9U,
 122:Drivers/STM32F3xx_HAL_Driver/Src/stm32f3xx_hal_rcc.c ****                                        10U, 11U, 12U, 13U, 14U, 15U, 16U, 16U};
 123:Drivers/STM32F3xx_HAL_Driver/Src/stm32f3xx_hal_rcc.c **** const uint8_t aPredivFactorTable[16] = { 1U, 2U,  3U,  4U,  5U,  6U,  7U,  8U,
 124:Drivers/STM32F3xx_HAL_Driver/Src/stm32f3xx_hal_rcc.c ****                                          9U,10U, 11U, 12U, 13U, 14U, 15U, 16U};
 125:Drivers/STM32F3xx_HAL_Driver/Src/stm32f3xx_hal_rcc.c **** /**
 126:Drivers/STM32F3xx_HAL_Driver/Src/stm32f3xx_hal_rcc.c ****   * @}
 127:Drivers/STM32F3xx_HAL_Driver/Src/stm32f3xx_hal_rcc.c ****   */
 128:Drivers/STM32F3xx_HAL_Driver/Src/stm32f3xx_hal_rcc.c **** 
 129:Drivers/STM32F3xx_HAL_Driver/Src/stm32f3xx_hal_rcc.c **** /* Private function prototypes -----------------------------------------------*/
 130:Drivers/STM32F3xx_HAL_Driver/Src/stm32f3xx_hal_rcc.c **** /* Exported functions ---------------------------------------------------------*/
 131:Drivers/STM32F3xx_HAL_Driver/Src/stm32f3xx_hal_rcc.c **** 
 132:Drivers/STM32F3xx_HAL_Driver/Src/stm32f3xx_hal_rcc.c **** /** @defgroup RCC_Exported_Functions RCC Exported Functions
 133:Drivers/STM32F3xx_HAL_Driver/Src/stm32f3xx_hal_rcc.c ****   * @{
 134:Drivers/STM32F3xx_HAL_Driver/Src/stm32f3xx_hal_rcc.c ****   */
 135:Drivers/STM32F3xx_HAL_Driver/Src/stm32f3xx_hal_rcc.c **** 
 136:Drivers/STM32F3xx_HAL_Driver/Src/stm32f3xx_hal_rcc.c **** /** @defgroup RCC_Exported_Functions_Group1 Initialization and de-initialization functions 
 137:Drivers/STM32F3xx_HAL_Driver/Src/stm32f3xx_hal_rcc.c ****   *  @brief    Initialization and Configuration functions 
 138:Drivers/STM32F3xx_HAL_Driver/Src/stm32f3xx_hal_rcc.c ****   *
 139:Drivers/STM32F3xx_HAL_Driver/Src/stm32f3xx_hal_rcc.c ****   @verbatim    
 140:Drivers/STM32F3xx_HAL_Driver/Src/stm32f3xx_hal_rcc.c ****   ===============================================================================
 141:Drivers/STM32F3xx_HAL_Driver/Src/stm32f3xx_hal_rcc.c ****            ##### Initialization and de-initialization functions #####
 142:Drivers/STM32F3xx_HAL_Driver/Src/stm32f3xx_hal_rcc.c ****   ===============================================================================
 143:Drivers/STM32F3xx_HAL_Driver/Src/stm32f3xx_hal_rcc.c ****     [..]
 144:Drivers/STM32F3xx_HAL_Driver/Src/stm32f3xx_hal_rcc.c ****       This section provides functions allowing to configure the internal/external oscillators
ARM GAS  /var/folders/8c/gyvcglfx7f97kbqb2h83mm_r0000gn/T//cc6V9BzC.s 			page 4


 145:Drivers/STM32F3xx_HAL_Driver/Src/stm32f3xx_hal_rcc.c ****       (HSE, HSI, LSE, LSI, PLL, CSS and MCO) and the System buses clocks (SYSCLK, AHB, APB1
 146:Drivers/STM32F3xx_HAL_Driver/Src/stm32f3xx_hal_rcc.c ****       and APB2).
 147:Drivers/STM32F3xx_HAL_Driver/Src/stm32f3xx_hal_rcc.c **** 
 148:Drivers/STM32F3xx_HAL_Driver/Src/stm32f3xx_hal_rcc.c ****     [..] Internal/external clock and PLL configuration
 149:Drivers/STM32F3xx_HAL_Driver/Src/stm32f3xx_hal_rcc.c ****       (#) HSI (high-speed internal), 8 MHz factory-trimmed RC used directly or through
 150:Drivers/STM32F3xx_HAL_Driver/Src/stm32f3xx_hal_rcc.c ****           the PLL as System clock source.
 151:Drivers/STM32F3xx_HAL_Driver/Src/stm32f3xx_hal_rcc.c ****           The HSI clock can be used also to clock the USART and I2C peripherals.
 152:Drivers/STM32F3xx_HAL_Driver/Src/stm32f3xx_hal_rcc.c **** 
 153:Drivers/STM32F3xx_HAL_Driver/Src/stm32f3xx_hal_rcc.c ****       (#) LSI (low-speed internal), ~40 KHz low consumption RC used as IWDG and/or RTC
 154:Drivers/STM32F3xx_HAL_Driver/Src/stm32f3xx_hal_rcc.c ****           clock source.
 155:Drivers/STM32F3xx_HAL_Driver/Src/stm32f3xx_hal_rcc.c **** 
 156:Drivers/STM32F3xx_HAL_Driver/Src/stm32f3xx_hal_rcc.c ****       (#) HSE (high-speed external), 4 to 32 MHz crystal oscillator used directly or
 157:Drivers/STM32F3xx_HAL_Driver/Src/stm32f3xx_hal_rcc.c ****           through the PLL as System clock source. Can be used also as RTC clock source.
 158:Drivers/STM32F3xx_HAL_Driver/Src/stm32f3xx_hal_rcc.c **** 
 159:Drivers/STM32F3xx_HAL_Driver/Src/stm32f3xx_hal_rcc.c ****       (#) LSE (low-speed external), 32 KHz oscillator used as RTC clock source.   
 160:Drivers/STM32F3xx_HAL_Driver/Src/stm32f3xx_hal_rcc.c **** 
 161:Drivers/STM32F3xx_HAL_Driver/Src/stm32f3xx_hal_rcc.c ****       (#) PLL (clocked by HSI or HSE), featuring different output clocks:
 162:Drivers/STM32F3xx_HAL_Driver/Src/stm32f3xx_hal_rcc.c ****         (++) The first output is used to generate the high speed system clock (up to 72 MHz)
 163:Drivers/STM32F3xx_HAL_Driver/Src/stm32f3xx_hal_rcc.c ****         (++) The second output is used to generate the clock for the USB FS (48 MHz)
 164:Drivers/STM32F3xx_HAL_Driver/Src/stm32f3xx_hal_rcc.c ****         (++) The third output may be used to generate the clock for the ADC peripherals (up to 72 M
 165:Drivers/STM32F3xx_HAL_Driver/Src/stm32f3xx_hal_rcc.c ****         (++) The fourth output may be used to generate the clock for the TIM peripherals (144 MHz)
 166:Drivers/STM32F3xx_HAL_Driver/Src/stm32f3xx_hal_rcc.c **** 
 167:Drivers/STM32F3xx_HAL_Driver/Src/stm32f3xx_hal_rcc.c ****       (#) CSS (Clock security system), once enable using the macro __HAL_RCC_CSS_ENABLE()
 168:Drivers/STM32F3xx_HAL_Driver/Src/stm32f3xx_hal_rcc.c ****           and if a HSE clock failure occurs(HSE used directly or through PLL as System 
 169:Drivers/STM32F3xx_HAL_Driver/Src/stm32f3xx_hal_rcc.c ****           clock source), the System clocks automatically switched to HSI and an interrupt
 170:Drivers/STM32F3xx_HAL_Driver/Src/stm32f3xx_hal_rcc.c ****           is generated if enabled. The interrupt is linked to the Cortex-M4 NMI 
 171:Drivers/STM32F3xx_HAL_Driver/Src/stm32f3xx_hal_rcc.c ****           (Non-Maskable Interrupt) exception vector.   
 172:Drivers/STM32F3xx_HAL_Driver/Src/stm32f3xx_hal_rcc.c **** 
 173:Drivers/STM32F3xx_HAL_Driver/Src/stm32f3xx_hal_rcc.c ****       (#) MCO (microcontroller clock output), used to output SYSCLK, HSI, HSE, LSI, LSE or PLL
 174:Drivers/STM32F3xx_HAL_Driver/Src/stm32f3xx_hal_rcc.c ****           clock (divided by 2) output on pin (such as PA8 pin).
 175:Drivers/STM32F3xx_HAL_Driver/Src/stm32f3xx_hal_rcc.c **** 
 176:Drivers/STM32F3xx_HAL_Driver/Src/stm32f3xx_hal_rcc.c ****     [..] System, AHB and APB buses clocks configuration
 177:Drivers/STM32F3xx_HAL_Driver/Src/stm32f3xx_hal_rcc.c ****       (#) Several clock sources can be used to drive the System clock (SYSCLK): HSI,
 178:Drivers/STM32F3xx_HAL_Driver/Src/stm32f3xx_hal_rcc.c ****           HSE and PLL.
 179:Drivers/STM32F3xx_HAL_Driver/Src/stm32f3xx_hal_rcc.c ****           The AHB clock (HCLK) is derived from System clock through configurable
 180:Drivers/STM32F3xx_HAL_Driver/Src/stm32f3xx_hal_rcc.c ****           prescaler and used to clock the CPU, memory and peripherals mapped
 181:Drivers/STM32F3xx_HAL_Driver/Src/stm32f3xx_hal_rcc.c ****           on AHB bus (DMA, GPIO...). APB1 (PCLK1) and APB2 (PCLK2) clocks are derived
 182:Drivers/STM32F3xx_HAL_Driver/Src/stm32f3xx_hal_rcc.c ****           from AHB clock through configurable prescalers and used to clock
 183:Drivers/STM32F3xx_HAL_Driver/Src/stm32f3xx_hal_rcc.c ****           the peripherals mapped on these buses. You can use
 184:Drivers/STM32F3xx_HAL_Driver/Src/stm32f3xx_hal_rcc.c ****           "@ref HAL_RCC_GetSysClockFreq()" function to retrieve the frequencies of these clocks.
 185:Drivers/STM32F3xx_HAL_Driver/Src/stm32f3xx_hal_rcc.c **** 
 186:Drivers/STM32F3xx_HAL_Driver/Src/stm32f3xx_hal_rcc.c ****       (#) All the peripheral clocks are derived from the System clock (SYSCLK) except:
 187:Drivers/STM32F3xx_HAL_Driver/Src/stm32f3xx_hal_rcc.c ****         (++) The FLASH program/erase clock  which is always HSI 8MHz clock.
 188:Drivers/STM32F3xx_HAL_Driver/Src/stm32f3xx_hal_rcc.c ****         (++) The USB 48 MHz clock which is derived from the PLL VCO clock.
 189:Drivers/STM32F3xx_HAL_Driver/Src/stm32f3xx_hal_rcc.c ****         (++) The USART clock which can be derived as well from HSI 8MHz, LSI or LSE.
 190:Drivers/STM32F3xx_HAL_Driver/Src/stm32f3xx_hal_rcc.c ****         (++) The I2C clock which can be derived as well from HSI 8MHz clock.
 191:Drivers/STM32F3xx_HAL_Driver/Src/stm32f3xx_hal_rcc.c ****         (++) The ADC clock which is derived from PLL output.
 192:Drivers/STM32F3xx_HAL_Driver/Src/stm32f3xx_hal_rcc.c ****         (++) The RTC clock which is derived from the LSE, LSI or 1 MHz HSE_RTC
 193:Drivers/STM32F3xx_HAL_Driver/Src/stm32f3xx_hal_rcc.c ****              (HSE divided by a programmable prescaler). The System clock (SYSCLK)
 194:Drivers/STM32F3xx_HAL_Driver/Src/stm32f3xx_hal_rcc.c ****              frequency must be higher or equal to the RTC clock frequency.
 195:Drivers/STM32F3xx_HAL_Driver/Src/stm32f3xx_hal_rcc.c ****         (++) IWDG clock which is always the LSI clock.
 196:Drivers/STM32F3xx_HAL_Driver/Src/stm32f3xx_hal_rcc.c **** 
 197:Drivers/STM32F3xx_HAL_Driver/Src/stm32f3xx_hal_rcc.c ****          (#) For the STM32F3xx devices, the maximum frequency of the SYSCLK, HCLK, PCLK1 and PCLK2 
 198:Drivers/STM32F3xx_HAL_Driver/Src/stm32f3xx_hal_rcc.c ****              Depending on the SYSCLK frequency, the flash latency should be adapted accordingly.
 199:Drivers/STM32F3xx_HAL_Driver/Src/stm32f3xx_hal_rcc.c **** 
 200:Drivers/STM32F3xx_HAL_Driver/Src/stm32f3xx_hal_rcc.c ****          (#) After reset, the System clock source is the HSI (8 MHz) with 0 WS and
 201:Drivers/STM32F3xx_HAL_Driver/Src/stm32f3xx_hal_rcc.c ****              prefetch is disabled.
ARM GAS  /var/folders/8c/gyvcglfx7f97kbqb2h83mm_r0000gn/T//cc6V9BzC.s 			page 5


 202:Drivers/STM32F3xx_HAL_Driver/Src/stm32f3xx_hal_rcc.c ****   @endverbatim
 203:Drivers/STM32F3xx_HAL_Driver/Src/stm32f3xx_hal_rcc.c ****   * @{
 204:Drivers/STM32F3xx_HAL_Driver/Src/stm32f3xx_hal_rcc.c ****   */
 205:Drivers/STM32F3xx_HAL_Driver/Src/stm32f3xx_hal_rcc.c ****   
 206:Drivers/STM32F3xx_HAL_Driver/Src/stm32f3xx_hal_rcc.c **** /*
 207:Drivers/STM32F3xx_HAL_Driver/Src/stm32f3xx_hal_rcc.c ****   Additional consideration on the SYSCLK based on Latency settings:
 208:Drivers/STM32F3xx_HAL_Driver/Src/stm32f3xx_hal_rcc.c ****         +-----------------------------------------------+
 209:Drivers/STM32F3xx_HAL_Driver/Src/stm32f3xx_hal_rcc.c ****         | Latency       | SYSCLK clock frequency (MHz)  |
 210:Drivers/STM32F3xx_HAL_Driver/Src/stm32f3xx_hal_rcc.c ****         |---------------|-------------------------------|
 211:Drivers/STM32F3xx_HAL_Driver/Src/stm32f3xx_hal_rcc.c ****         |0WS(1CPU cycle)|       0 < SYSCLK <= 24        |
 212:Drivers/STM32F3xx_HAL_Driver/Src/stm32f3xx_hal_rcc.c ****         |---------------|-------------------------------|
 213:Drivers/STM32F3xx_HAL_Driver/Src/stm32f3xx_hal_rcc.c ****         |1WS(2CPU cycle)|      24 < SYSCLK <= 48        |
 214:Drivers/STM32F3xx_HAL_Driver/Src/stm32f3xx_hal_rcc.c ****         |---------------|-------------------------------|
 215:Drivers/STM32F3xx_HAL_Driver/Src/stm32f3xx_hal_rcc.c ****         |2WS(3CPU cycle)|      48 < SYSCLK <= 72        |
 216:Drivers/STM32F3xx_HAL_Driver/Src/stm32f3xx_hal_rcc.c ****         +-----------------------------------------------+
 217:Drivers/STM32F3xx_HAL_Driver/Src/stm32f3xx_hal_rcc.c ****   */
 218:Drivers/STM32F3xx_HAL_Driver/Src/stm32f3xx_hal_rcc.c **** 
 219:Drivers/STM32F3xx_HAL_Driver/Src/stm32f3xx_hal_rcc.c **** /**
 220:Drivers/STM32F3xx_HAL_Driver/Src/stm32f3xx_hal_rcc.c ****   * @brief  Resets the RCC clock configuration to the default reset state.
 221:Drivers/STM32F3xx_HAL_Driver/Src/stm32f3xx_hal_rcc.c ****   * @note   The default reset state of the clock configuration is given below:
 222:Drivers/STM32F3xx_HAL_Driver/Src/stm32f3xx_hal_rcc.c ****   *            - HSI ON and used as system clock source
 223:Drivers/STM32F3xx_HAL_Driver/Src/stm32f3xx_hal_rcc.c ****   *            - HSE and PLL OFF
 224:Drivers/STM32F3xx_HAL_Driver/Src/stm32f3xx_hal_rcc.c ****   *            - AHB, APB1 and APB2 prescaler set to 1.
 225:Drivers/STM32F3xx_HAL_Driver/Src/stm32f3xx_hal_rcc.c ****   *            - CSS and MCO1 OFF
 226:Drivers/STM32F3xx_HAL_Driver/Src/stm32f3xx_hal_rcc.c ****   *            - All interrupts disabled
 227:Drivers/STM32F3xx_HAL_Driver/Src/stm32f3xx_hal_rcc.c ****   * @note   This function does not modify the configuration of the
 228:Drivers/STM32F3xx_HAL_Driver/Src/stm32f3xx_hal_rcc.c ****   *            - Peripheral clocks
 229:Drivers/STM32F3xx_HAL_Driver/Src/stm32f3xx_hal_rcc.c ****   *            - LSI, LSE and RTC clocks
 230:Drivers/STM32F3xx_HAL_Driver/Src/stm32f3xx_hal_rcc.c ****   * @retval None
 231:Drivers/STM32F3xx_HAL_Driver/Src/stm32f3xx_hal_rcc.c ****   */
 232:Drivers/STM32F3xx_HAL_Driver/Src/stm32f3xx_hal_rcc.c **** void HAL_RCC_DeInit(void)
 233:Drivers/STM32F3xx_HAL_Driver/Src/stm32f3xx_hal_rcc.c **** {
  29              		.loc 1 233 1 view -0
  30              		.cfi_startproc
  31              		@ args = 0, pretend = 0, frame = 0
  32              		@ frame_needed = 0, uses_anonymous_args = 0
  33              		@ link register save eliminated.
 234:Drivers/STM32F3xx_HAL_Driver/Src/stm32f3xx_hal_rcc.c ****   /* Set HSION bit, HSITRIM[4:0] bits to the reset value*/
 235:Drivers/STM32F3xx_HAL_Driver/Src/stm32f3xx_hal_rcc.c ****   SET_BIT(RCC->CR, RCC_CR_HSION | RCC_CR_HSITRIM_4); 
  34              		.loc 1 235 3 view .LVU1
  35 0000 0D4B     		ldr	r3, .L2
  36 0002 1A68     		ldr	r2, [r3]
  37 0004 42F08102 		orr	r2, r2, #129
  38 0008 1A60     		str	r2, [r3]
 236:Drivers/STM32F3xx_HAL_Driver/Src/stm32f3xx_hal_rcc.c **** 
 237:Drivers/STM32F3xx_HAL_Driver/Src/stm32f3xx_hal_rcc.c ****   /* Reset SW[1:0], HPRE[3:0], PPRE1[2:0], PPRE2[2:0] and MCOSEL[2:0] bits */
 238:Drivers/STM32F3xx_HAL_Driver/Src/stm32f3xx_hal_rcc.c ****   CLEAR_BIT(RCC->CFGR, RCC_CFGR_SW | RCC_CFGR_HPRE | RCC_CFGR_PPRE1 | RCC_CFGR_PPRE2 | RCC_CFGR_MCO
  39              		.loc 1 238 3 view .LVU2
  40 000a 5968     		ldr	r1, [r3, #4]
  41 000c 0B4A     		ldr	r2, .L2+4
  42 000e 0A40     		ands	r2, r2, r1
  43 0010 5A60     		str	r2, [r3, #4]
 239:Drivers/STM32F3xx_HAL_Driver/Src/stm32f3xx_hal_rcc.c **** 
 240:Drivers/STM32F3xx_HAL_Driver/Src/stm32f3xx_hal_rcc.c ****   /* Reset HSEON, CSSON, PLLON bits */
 241:Drivers/STM32F3xx_HAL_Driver/Src/stm32f3xx_hal_rcc.c ****   CLEAR_BIT(RCC->CR, RCC_CR_PLLON | RCC_CR_CSSON | RCC_CR_HSEON);
  44              		.loc 1 241 3 view .LVU3
  45 0012 1A68     		ldr	r2, [r3]
ARM GAS  /var/folders/8c/gyvcglfx7f97kbqb2h83mm_r0000gn/T//cc6V9BzC.s 			page 6


  46 0014 22F08472 		bic	r2, r2, #17301504
  47 0018 22F48032 		bic	r2, r2, #65536
  48 001c 1A60     		str	r2, [r3]
 242:Drivers/STM32F3xx_HAL_Driver/Src/stm32f3xx_hal_rcc.c ****   
 243:Drivers/STM32F3xx_HAL_Driver/Src/stm32f3xx_hal_rcc.c ****   /* Reset HSEBYP bit */
 244:Drivers/STM32F3xx_HAL_Driver/Src/stm32f3xx_hal_rcc.c ****   CLEAR_BIT(RCC->CR, RCC_CR_HSEBYP);
  49              		.loc 1 244 3 view .LVU4
  50 001e 1A68     		ldr	r2, [r3]
  51 0020 22F48022 		bic	r2, r2, #262144
  52 0024 1A60     		str	r2, [r3]
 245:Drivers/STM32F3xx_HAL_Driver/Src/stm32f3xx_hal_rcc.c **** 
 246:Drivers/STM32F3xx_HAL_Driver/Src/stm32f3xx_hal_rcc.c ****   /* Reset CFGR register */
 247:Drivers/STM32F3xx_HAL_Driver/Src/stm32f3xx_hal_rcc.c ****   CLEAR_REG(RCC->CFGR);
  53              		.loc 1 247 3 view .LVU5
  54 0026 0022     		movs	r2, #0
  55 0028 5A60     		str	r2, [r3, #4]
 248:Drivers/STM32F3xx_HAL_Driver/Src/stm32f3xx_hal_rcc.c ****   
 249:Drivers/STM32F3xx_HAL_Driver/Src/stm32f3xx_hal_rcc.c ****   /* Reset CFGR2 register */
 250:Drivers/STM32F3xx_HAL_Driver/Src/stm32f3xx_hal_rcc.c ****   CLEAR_REG(RCC->CFGR2);
  56              		.loc 1 250 3 view .LVU6
  57 002a DA62     		str	r2, [r3, #44]
 251:Drivers/STM32F3xx_HAL_Driver/Src/stm32f3xx_hal_rcc.c ****   
 252:Drivers/STM32F3xx_HAL_Driver/Src/stm32f3xx_hal_rcc.c ****   /* Reset CFGR3 register */
 253:Drivers/STM32F3xx_HAL_Driver/Src/stm32f3xx_hal_rcc.c ****   CLEAR_REG(RCC->CFGR3);
  58              		.loc 1 253 3 view .LVU7
  59 002c 1A63     		str	r2, [r3, #48]
 254:Drivers/STM32F3xx_HAL_Driver/Src/stm32f3xx_hal_rcc.c ****   
 255:Drivers/STM32F3xx_HAL_Driver/Src/stm32f3xx_hal_rcc.c ****   /* Disable all interrupts */
 256:Drivers/STM32F3xx_HAL_Driver/Src/stm32f3xx_hal_rcc.c ****   CLEAR_REG(RCC->CIR);
  60              		.loc 1 256 3 view .LVU8
  61 002e 9A60     		str	r2, [r3, #8]
 257:Drivers/STM32F3xx_HAL_Driver/Src/stm32f3xx_hal_rcc.c **** 
 258:Drivers/STM32F3xx_HAL_Driver/Src/stm32f3xx_hal_rcc.c ****   /* Update the SystemCoreClock global variable */
 259:Drivers/STM32F3xx_HAL_Driver/Src/stm32f3xx_hal_rcc.c ****   SystemCoreClock = HSI_VALUE;
  62              		.loc 1 259 3 view .LVU9
  63              		.loc 1 259 19 is_stmt 0 view .LVU10
  64 0030 034B     		ldr	r3, .L2+8
  65 0032 044A     		ldr	r2, .L2+12
  66 0034 1A60     		str	r2, [r3]
 260:Drivers/STM32F3xx_HAL_Driver/Src/stm32f3xx_hal_rcc.c **** }
  67              		.loc 1 260 1 view .LVU11
  68 0036 7047     		bx	lr
  69              	.L3:
  70              		.align	2
  71              	.L2:
  72 0038 00100240 		.word	1073876992
  73 003c 0CC0FFF8 		.word	-117456884
  74 0040 00000000 		.word	SystemCoreClock
  75 0044 00127A00 		.word	8000000
  76              		.cfi_endproc
  77              	.LFE126:
  79              		.section	.text.HAL_RCC_OscConfig,"ax",%progbits
  80              		.align	1
  81              		.global	HAL_RCC_OscConfig
  82              		.syntax unified
  83              		.thumb
  84              		.thumb_func
ARM GAS  /var/folders/8c/gyvcglfx7f97kbqb2h83mm_r0000gn/T//cc6V9BzC.s 			page 7


  85              		.fpu fpv4-sp-d16
  87              	HAL_RCC_OscConfig:
  88              	.LVL0:
  89              	.LFB127:
 261:Drivers/STM32F3xx_HAL_Driver/Src/stm32f3xx_hal_rcc.c **** 
 262:Drivers/STM32F3xx_HAL_Driver/Src/stm32f3xx_hal_rcc.c **** /**
 263:Drivers/STM32F3xx_HAL_Driver/Src/stm32f3xx_hal_rcc.c ****   * @brief  Initializes the RCC Oscillators according to the specified parameters in the
 264:Drivers/STM32F3xx_HAL_Driver/Src/stm32f3xx_hal_rcc.c ****   *         RCC_OscInitTypeDef.
 265:Drivers/STM32F3xx_HAL_Driver/Src/stm32f3xx_hal_rcc.c ****   * @param  RCC_OscInitStruct pointer to an RCC_OscInitTypeDef structure that
 266:Drivers/STM32F3xx_HAL_Driver/Src/stm32f3xx_hal_rcc.c ****   *         contains the configuration information for the RCC Oscillators.
 267:Drivers/STM32F3xx_HAL_Driver/Src/stm32f3xx_hal_rcc.c ****   * @note   The PLL is not disabled when used as system clock.
 268:Drivers/STM32F3xx_HAL_Driver/Src/stm32f3xx_hal_rcc.c ****   * @note   Transitions LSE Bypass to LSE On and LSE On to LSE Bypass are not
 269:Drivers/STM32F3xx_HAL_Driver/Src/stm32f3xx_hal_rcc.c ****   *         supported by this macro. User should request a transition to LSE Off
 270:Drivers/STM32F3xx_HAL_Driver/Src/stm32f3xx_hal_rcc.c ****   *         first and then LSE On or LSE Bypass.
 271:Drivers/STM32F3xx_HAL_Driver/Src/stm32f3xx_hal_rcc.c ****   * @note   Transition HSE Bypass to HSE On and HSE On to HSE Bypass are not
 272:Drivers/STM32F3xx_HAL_Driver/Src/stm32f3xx_hal_rcc.c ****   *         supported by this macro. User should request a transition to HSE Off
 273:Drivers/STM32F3xx_HAL_Driver/Src/stm32f3xx_hal_rcc.c ****   *         first and then HSE On or HSE Bypass.
 274:Drivers/STM32F3xx_HAL_Driver/Src/stm32f3xx_hal_rcc.c ****   * @retval HAL status
 275:Drivers/STM32F3xx_HAL_Driver/Src/stm32f3xx_hal_rcc.c ****   */
 276:Drivers/STM32F3xx_HAL_Driver/Src/stm32f3xx_hal_rcc.c **** HAL_StatusTypeDef HAL_RCC_OscConfig(RCC_OscInitTypeDef  *RCC_OscInitStruct)
 277:Drivers/STM32F3xx_HAL_Driver/Src/stm32f3xx_hal_rcc.c **** {
  90              		.loc 1 277 1 is_stmt 1 view -0
  91              		.cfi_startproc
  92              		@ args = 0, pretend = 0, frame = 8
  93              		@ frame_needed = 0, uses_anonymous_args = 0
  94              		.loc 1 277 1 is_stmt 0 view .LVU13
  95 0000 70B5     		push	{r4, r5, r6, lr}
  96              	.LCFI0:
  97              		.cfi_def_cfa_offset 16
  98              		.cfi_offset 4, -16
  99              		.cfi_offset 5, -12
 100              		.cfi_offset 6, -8
 101              		.cfi_offset 14, -4
 102 0002 82B0     		sub	sp, sp, #8
 103              	.LCFI1:
 104              		.cfi_def_cfa_offset 24
 105 0004 0446     		mov	r4, r0
 278:Drivers/STM32F3xx_HAL_Driver/Src/stm32f3xx_hal_rcc.c ****    uint32_t tickstart = 0U;
 106              		.loc 1 278 4 is_stmt 1 view .LVU14
 107              	.LVL1:
 279:Drivers/STM32F3xx_HAL_Driver/Src/stm32f3xx_hal_rcc.c ****   
 280:Drivers/STM32F3xx_HAL_Driver/Src/stm32f3xx_hal_rcc.c ****   /* Check the parameters */
 281:Drivers/STM32F3xx_HAL_Driver/Src/stm32f3xx_hal_rcc.c ****   assert_param(RCC_OscInitStruct != NULL);
 108              		.loc 1 281 3 view .LVU15
 282:Drivers/STM32F3xx_HAL_Driver/Src/stm32f3xx_hal_rcc.c ****   assert_param(IS_RCC_OSCILLATORTYPE(RCC_OscInitStruct->OscillatorType));
 109              		.loc 1 282 3 view .LVU16
 283:Drivers/STM32F3xx_HAL_Driver/Src/stm32f3xx_hal_rcc.c **** 
 284:Drivers/STM32F3xx_HAL_Driver/Src/stm32f3xx_hal_rcc.c ****   /*------------------------------- HSE Configuration ------------------------*/ 
 285:Drivers/STM32F3xx_HAL_Driver/Src/stm32f3xx_hal_rcc.c ****   if(((RCC_OscInitStruct->OscillatorType) & RCC_OSCILLATORTYPE_HSE) == RCC_OSCILLATORTYPE_HSE)
 110              		.loc 1 285 3 view .LVU17
 111              		.loc 1 285 25 is_stmt 0 view .LVU18
 112 0006 0368     		ldr	r3, [r0]
 113              		.loc 1 285 5 view .LVU19
 114 0008 13F0010F 		tst	r3, #1
 115 000c 3DD0     		beq	.L5
 286:Drivers/STM32F3xx_HAL_Driver/Src/stm32f3xx_hal_rcc.c ****   {
 287:Drivers/STM32F3xx_HAL_Driver/Src/stm32f3xx_hal_rcc.c ****     /* Check the parameters */
ARM GAS  /var/folders/8c/gyvcglfx7f97kbqb2h83mm_r0000gn/T//cc6V9BzC.s 			page 8


 288:Drivers/STM32F3xx_HAL_Driver/Src/stm32f3xx_hal_rcc.c ****     assert_param(IS_RCC_HSE(RCC_OscInitStruct->HSEState));
 116              		.loc 1 288 5 is_stmt 1 view .LVU20
 289:Drivers/STM32F3xx_HAL_Driver/Src/stm32f3xx_hal_rcc.c **** 
 290:Drivers/STM32F3xx_HAL_Driver/Src/stm32f3xx_hal_rcc.c ****     /* When the HSE is used as system clock or clock source for PLL in these cases it is not allowe
 291:Drivers/STM32F3xx_HAL_Driver/Src/stm32f3xx_hal_rcc.c ****     if((__HAL_RCC_GET_SYSCLK_SOURCE() == RCC_SYSCLKSOURCE_STATUS_HSE) 
 117              		.loc 1 291 5 view .LVU21
 118              		.loc 1 291 9 is_stmt 0 view .LVU22
 119 000e C84B     		ldr	r3, .L109
 120 0010 5B68     		ldr	r3, [r3, #4]
 121 0012 03F00C03 		and	r3, r3, #12
 122              		.loc 1 291 7 view .LVU23
 123 0016 042B     		cmp	r3, #4
 124 0018 20D0     		beq	.L6
 292:Drivers/STM32F3xx_HAL_Driver/Src/stm32f3xx_hal_rcc.c ****        || ((__HAL_RCC_GET_SYSCLK_SOURCE() == RCC_SYSCLKSOURCE_STATUS_PLLCLK) && (__HAL_RCC_GET_PLL_
 125              		.loc 1 292 13 view .LVU24
 126 001a C54B     		ldr	r3, .L109
 127 001c 5B68     		ldr	r3, [r3, #4]
 128 001e 03F00C03 		and	r3, r3, #12
 129              		.loc 1 292 8 view .LVU25
 130 0022 082B     		cmp	r3, #8
 131 0024 13D0     		beq	.L95
 132              	.L7:
 293:Drivers/STM32F3xx_HAL_Driver/Src/stm32f3xx_hal_rcc.c ****     {
 294:Drivers/STM32F3xx_HAL_Driver/Src/stm32f3xx_hal_rcc.c ****       if((__HAL_RCC_GET_FLAG(RCC_FLAG_HSERDY) != RESET) && (RCC_OscInitStruct->HSEState == RCC_HSE_
 295:Drivers/STM32F3xx_HAL_Driver/Src/stm32f3xx_hal_rcc.c ****       {
 296:Drivers/STM32F3xx_HAL_Driver/Src/stm32f3xx_hal_rcc.c ****         return HAL_ERROR;
 297:Drivers/STM32F3xx_HAL_Driver/Src/stm32f3xx_hal_rcc.c ****       }
 298:Drivers/STM32F3xx_HAL_Driver/Src/stm32f3xx_hal_rcc.c ****     }
 299:Drivers/STM32F3xx_HAL_Driver/Src/stm32f3xx_hal_rcc.c ****     else
 300:Drivers/STM32F3xx_HAL_Driver/Src/stm32f3xx_hal_rcc.c ****     {
 301:Drivers/STM32F3xx_HAL_Driver/Src/stm32f3xx_hal_rcc.c ****       /* Set the new HSE configuration ---------------------------------------*/
 302:Drivers/STM32F3xx_HAL_Driver/Src/stm32f3xx_hal_rcc.c ****       __HAL_RCC_HSE_CONFIG(RCC_OscInitStruct->HSEState);
 133              		.loc 1 302 7 is_stmt 1 view .LVU26
 134              		.loc 1 302 7 view .LVU27
 135 0026 6368     		ldr	r3, [r4, #4]
 136 0028 B3F5803F 		cmp	r3, #65536
 137 002c 6AD0     		beq	.L96
 138              		.loc 1 302 7 discriminator 2 view .LVU28
 139 002e 002B     		cmp	r3, #0
 140 0030 40F08D80 		bne	.L13
 141              		.loc 1 302 7 discriminator 3 view .LVU29
 142 0034 03F18043 		add	r3, r3, #1073741824
 143 0038 03F50433 		add	r3, r3, #135168
 144 003c 1A68     		ldr	r2, [r3]
 145 003e 22F48032 		bic	r2, r2, #65536
 146 0042 1A60     		str	r2, [r3]
 147              		.loc 1 302 7 discriminator 3 view .LVU30
 148 0044 1A68     		ldr	r2, [r3]
 149 0046 22F48022 		bic	r2, r2, #262144
 150 004a 1A60     		str	r2, [r3]
 151 004c 5FE0     		b	.L12
 152              	.L95:
 292:Drivers/STM32F3xx_HAL_Driver/Src/stm32f3xx_hal_rcc.c ****        || ((__HAL_RCC_GET_SYSCLK_SOURCE() == RCC_SYSCLKSOURCE_STATUS_PLLCLK) && (__HAL_RCC_GET_PLL_
 153              		.loc 1 292 82 is_stmt 0 discriminator 1 view .LVU31
 154 004e B84B     		ldr	r3, .L109
 155 0050 5B68     		ldr	r3, [r3, #4]
 156 0052 03F4C033 		and	r3, r3, #98304
ARM GAS  /var/folders/8c/gyvcglfx7f97kbqb2h83mm_r0000gn/T//cc6V9BzC.s 			page 9


 292:Drivers/STM32F3xx_HAL_Driver/Src/stm32f3xx_hal_rcc.c ****        || ((__HAL_RCC_GET_SYSCLK_SOURCE() == RCC_SYSCLKSOURCE_STATUS_PLLCLK) && (__HAL_RCC_GET_PLL_
 157              		.loc 1 292 78 discriminator 1 view .LVU32
 158 0056 B3F5803F 		cmp	r3, #65536
 159 005a E4D1     		bne	.L7
 160              	.L6:
 294:Drivers/STM32F3xx_HAL_Driver/Src/stm32f3xx_hal_rcc.c ****       {
 161              		.loc 1 294 7 is_stmt 1 view .LVU33
 162              	.LVL2:
 163              	.LBB166:
 164              	.LBI166:
 165              		.file 2 "Drivers/CMSIS/Include/cmsis_gcc.h"
   1:Drivers/CMSIS/Include/cmsis_gcc.h **** /**************************************************************************//**
   2:Drivers/CMSIS/Include/cmsis_gcc.h ****  * @file     cmsis_gcc.h
   3:Drivers/CMSIS/Include/cmsis_gcc.h ****  * @brief    CMSIS Cortex-M Core Function/Instruction Header File
   4:Drivers/CMSIS/Include/cmsis_gcc.h ****  * @version  V4.30
   5:Drivers/CMSIS/Include/cmsis_gcc.h ****  * @date     20. October 2015
   6:Drivers/CMSIS/Include/cmsis_gcc.h ****  ******************************************************************************/
   7:Drivers/CMSIS/Include/cmsis_gcc.h **** /* Copyright (c) 2009 - 2015 ARM LIMITED
   8:Drivers/CMSIS/Include/cmsis_gcc.h **** 
   9:Drivers/CMSIS/Include/cmsis_gcc.h ****    All rights reserved.
  10:Drivers/CMSIS/Include/cmsis_gcc.h ****    Redistribution and use in source and binary forms, with or without
  11:Drivers/CMSIS/Include/cmsis_gcc.h ****    modification, are permitted provided that the following conditions are met:
  12:Drivers/CMSIS/Include/cmsis_gcc.h ****    - Redistributions of source code must retain the above copyright
  13:Drivers/CMSIS/Include/cmsis_gcc.h ****      notice, this list of conditions and the following disclaimer.
  14:Drivers/CMSIS/Include/cmsis_gcc.h ****    - Redistributions in binary form must reproduce the above copyright
  15:Drivers/CMSIS/Include/cmsis_gcc.h ****      notice, this list of conditions and the following disclaimer in the
  16:Drivers/CMSIS/Include/cmsis_gcc.h ****      documentation and/or other materials provided with the distribution.
  17:Drivers/CMSIS/Include/cmsis_gcc.h ****    - Neither the name of ARM nor the names of its contributors may be used
  18:Drivers/CMSIS/Include/cmsis_gcc.h ****      to endorse or promote products derived from this software without
  19:Drivers/CMSIS/Include/cmsis_gcc.h ****      specific prior written permission.
  20:Drivers/CMSIS/Include/cmsis_gcc.h ****    *
  21:Drivers/CMSIS/Include/cmsis_gcc.h ****    THIS SOFTWARE IS PROVIDED BY THE COPYRIGHT HOLDERS AND CONTRIBUTORS "AS IS"
  22:Drivers/CMSIS/Include/cmsis_gcc.h ****    AND ANY EXPRESS OR IMPLIED WARRANTIES, INCLUDING, BUT NOT LIMITED TO, THE
  23:Drivers/CMSIS/Include/cmsis_gcc.h ****    IMPLIED WARRANTIES OF MERCHANTABILITY AND FITNESS FOR A PARTICULAR PURPOSE
  24:Drivers/CMSIS/Include/cmsis_gcc.h ****    ARE DISCLAIMED. IN NO EVENT SHALL COPYRIGHT HOLDERS AND CONTRIBUTORS BE
  25:Drivers/CMSIS/Include/cmsis_gcc.h ****    LIABLE FOR ANY DIRECT, INDIRECT, INCIDENTAL, SPECIAL, EXEMPLARY, OR
  26:Drivers/CMSIS/Include/cmsis_gcc.h ****    CONSEQUENTIAL DAMAGES (INCLUDING, BUT NOT LIMITED TO, PROCUREMENT OF
  27:Drivers/CMSIS/Include/cmsis_gcc.h ****    SUBSTITUTE GOODS OR SERVICES; LOSS OF USE, DATA, OR PROFITS; OR BUSINESS
  28:Drivers/CMSIS/Include/cmsis_gcc.h ****    INTERRUPTION) HOWEVER CAUSED AND ON ANY THEORY OF LIABILITY, WHETHER IN
  29:Drivers/CMSIS/Include/cmsis_gcc.h ****    CONTRACT, STRICT LIABILITY, OR TORT (INCLUDING NEGLIGENCE OR OTHERWISE)
  30:Drivers/CMSIS/Include/cmsis_gcc.h ****    ARISING IN ANY WAY OUT OF THE USE OF THIS SOFTWARE, EVEN IF ADVISED OF THE
  31:Drivers/CMSIS/Include/cmsis_gcc.h ****    POSSIBILITY OF SUCH DAMAGE.
  32:Drivers/CMSIS/Include/cmsis_gcc.h ****    ---------------------------------------------------------------------------*/
  33:Drivers/CMSIS/Include/cmsis_gcc.h **** 
  34:Drivers/CMSIS/Include/cmsis_gcc.h **** 
  35:Drivers/CMSIS/Include/cmsis_gcc.h **** #ifndef __CMSIS_GCC_H
  36:Drivers/CMSIS/Include/cmsis_gcc.h **** #define __CMSIS_GCC_H
  37:Drivers/CMSIS/Include/cmsis_gcc.h **** 
  38:Drivers/CMSIS/Include/cmsis_gcc.h **** /* ignore some GCC warnings */
  39:Drivers/CMSIS/Include/cmsis_gcc.h **** #if defined ( __GNUC__ )
  40:Drivers/CMSIS/Include/cmsis_gcc.h **** #pragma GCC diagnostic push
  41:Drivers/CMSIS/Include/cmsis_gcc.h **** #pragma GCC diagnostic ignored "-Wsign-conversion"
  42:Drivers/CMSIS/Include/cmsis_gcc.h **** #pragma GCC diagnostic ignored "-Wconversion"
  43:Drivers/CMSIS/Include/cmsis_gcc.h **** #pragma GCC diagnostic ignored "-Wunused-parameter"
  44:Drivers/CMSIS/Include/cmsis_gcc.h **** #endif
  45:Drivers/CMSIS/Include/cmsis_gcc.h **** 
  46:Drivers/CMSIS/Include/cmsis_gcc.h **** 
ARM GAS  /var/folders/8c/gyvcglfx7f97kbqb2h83mm_r0000gn/T//cc6V9BzC.s 			page 10


  47:Drivers/CMSIS/Include/cmsis_gcc.h **** /* ###########################  Core Function Access  ########################### */
  48:Drivers/CMSIS/Include/cmsis_gcc.h **** /** \ingroup  CMSIS_Core_FunctionInterface
  49:Drivers/CMSIS/Include/cmsis_gcc.h ****     \defgroup CMSIS_Core_RegAccFunctions CMSIS Core Register Access Functions
  50:Drivers/CMSIS/Include/cmsis_gcc.h ****   @{
  51:Drivers/CMSIS/Include/cmsis_gcc.h ****  */
  52:Drivers/CMSIS/Include/cmsis_gcc.h **** 
  53:Drivers/CMSIS/Include/cmsis_gcc.h **** /**
  54:Drivers/CMSIS/Include/cmsis_gcc.h ****   \brief   Enable IRQ Interrupts
  55:Drivers/CMSIS/Include/cmsis_gcc.h ****   \details Enables IRQ interrupts by clearing the I-bit in the CPSR.
  56:Drivers/CMSIS/Include/cmsis_gcc.h ****            Can only be executed in Privileged modes.
  57:Drivers/CMSIS/Include/cmsis_gcc.h ****  */
  58:Drivers/CMSIS/Include/cmsis_gcc.h **** __attribute__( ( always_inline ) ) __STATIC_INLINE void __enable_irq(void)
  59:Drivers/CMSIS/Include/cmsis_gcc.h **** {
  60:Drivers/CMSIS/Include/cmsis_gcc.h ****   __ASM volatile ("cpsie i" : : : "memory");
  61:Drivers/CMSIS/Include/cmsis_gcc.h **** }
  62:Drivers/CMSIS/Include/cmsis_gcc.h **** 
  63:Drivers/CMSIS/Include/cmsis_gcc.h **** 
  64:Drivers/CMSIS/Include/cmsis_gcc.h **** /**
  65:Drivers/CMSIS/Include/cmsis_gcc.h ****   \brief   Disable IRQ Interrupts
  66:Drivers/CMSIS/Include/cmsis_gcc.h ****   \details Disables IRQ interrupts by setting the I-bit in the CPSR.
  67:Drivers/CMSIS/Include/cmsis_gcc.h ****   Can only be executed in Privileged modes.
  68:Drivers/CMSIS/Include/cmsis_gcc.h ****  */
  69:Drivers/CMSIS/Include/cmsis_gcc.h **** __attribute__( ( always_inline ) ) __STATIC_INLINE void __disable_irq(void)
  70:Drivers/CMSIS/Include/cmsis_gcc.h **** {
  71:Drivers/CMSIS/Include/cmsis_gcc.h ****   __ASM volatile ("cpsid i" : : : "memory");
  72:Drivers/CMSIS/Include/cmsis_gcc.h **** }
  73:Drivers/CMSIS/Include/cmsis_gcc.h **** 
  74:Drivers/CMSIS/Include/cmsis_gcc.h **** 
  75:Drivers/CMSIS/Include/cmsis_gcc.h **** /**
  76:Drivers/CMSIS/Include/cmsis_gcc.h ****   \brief   Get Control Register
  77:Drivers/CMSIS/Include/cmsis_gcc.h ****   \details Returns the content of the Control Register.
  78:Drivers/CMSIS/Include/cmsis_gcc.h ****   \return               Control Register value
  79:Drivers/CMSIS/Include/cmsis_gcc.h ****  */
  80:Drivers/CMSIS/Include/cmsis_gcc.h **** __attribute__( ( always_inline ) ) __STATIC_INLINE uint32_t __get_CONTROL(void)
  81:Drivers/CMSIS/Include/cmsis_gcc.h **** {
  82:Drivers/CMSIS/Include/cmsis_gcc.h ****   uint32_t result;
  83:Drivers/CMSIS/Include/cmsis_gcc.h **** 
  84:Drivers/CMSIS/Include/cmsis_gcc.h ****   __ASM volatile ("MRS %0, control" : "=r" (result) );
  85:Drivers/CMSIS/Include/cmsis_gcc.h ****   return(result);
  86:Drivers/CMSIS/Include/cmsis_gcc.h **** }
  87:Drivers/CMSIS/Include/cmsis_gcc.h **** 
  88:Drivers/CMSIS/Include/cmsis_gcc.h **** 
  89:Drivers/CMSIS/Include/cmsis_gcc.h **** /**
  90:Drivers/CMSIS/Include/cmsis_gcc.h ****   \brief   Set Control Register
  91:Drivers/CMSIS/Include/cmsis_gcc.h ****   \details Writes the given value to the Control Register.
  92:Drivers/CMSIS/Include/cmsis_gcc.h ****   \param [in]    control  Control Register value to set
  93:Drivers/CMSIS/Include/cmsis_gcc.h ****  */
  94:Drivers/CMSIS/Include/cmsis_gcc.h **** __attribute__( ( always_inline ) ) __STATIC_INLINE void __set_CONTROL(uint32_t control)
  95:Drivers/CMSIS/Include/cmsis_gcc.h **** {
  96:Drivers/CMSIS/Include/cmsis_gcc.h ****   __ASM volatile ("MSR control, %0" : : "r" (control) : "memory");
  97:Drivers/CMSIS/Include/cmsis_gcc.h **** }
  98:Drivers/CMSIS/Include/cmsis_gcc.h **** 
  99:Drivers/CMSIS/Include/cmsis_gcc.h **** 
 100:Drivers/CMSIS/Include/cmsis_gcc.h **** /**
 101:Drivers/CMSIS/Include/cmsis_gcc.h ****   \brief   Get IPSR Register
 102:Drivers/CMSIS/Include/cmsis_gcc.h ****   \details Returns the content of the IPSR Register.
 103:Drivers/CMSIS/Include/cmsis_gcc.h ****   \return               IPSR Register value
ARM GAS  /var/folders/8c/gyvcglfx7f97kbqb2h83mm_r0000gn/T//cc6V9BzC.s 			page 11


 104:Drivers/CMSIS/Include/cmsis_gcc.h ****  */
 105:Drivers/CMSIS/Include/cmsis_gcc.h **** __attribute__( ( always_inline ) ) __STATIC_INLINE uint32_t __get_IPSR(void)
 106:Drivers/CMSIS/Include/cmsis_gcc.h **** {
 107:Drivers/CMSIS/Include/cmsis_gcc.h ****   uint32_t result;
 108:Drivers/CMSIS/Include/cmsis_gcc.h **** 
 109:Drivers/CMSIS/Include/cmsis_gcc.h ****   __ASM volatile ("MRS %0, ipsr" : "=r" (result) );
 110:Drivers/CMSIS/Include/cmsis_gcc.h ****   return(result);
 111:Drivers/CMSIS/Include/cmsis_gcc.h **** }
 112:Drivers/CMSIS/Include/cmsis_gcc.h **** 
 113:Drivers/CMSIS/Include/cmsis_gcc.h **** 
 114:Drivers/CMSIS/Include/cmsis_gcc.h **** /**
 115:Drivers/CMSIS/Include/cmsis_gcc.h ****   \brief   Get APSR Register
 116:Drivers/CMSIS/Include/cmsis_gcc.h ****   \details Returns the content of the APSR Register.
 117:Drivers/CMSIS/Include/cmsis_gcc.h ****   \return               APSR Register value
 118:Drivers/CMSIS/Include/cmsis_gcc.h ****  */
 119:Drivers/CMSIS/Include/cmsis_gcc.h **** __attribute__( ( always_inline ) ) __STATIC_INLINE uint32_t __get_APSR(void)
 120:Drivers/CMSIS/Include/cmsis_gcc.h **** {
 121:Drivers/CMSIS/Include/cmsis_gcc.h ****   uint32_t result;
 122:Drivers/CMSIS/Include/cmsis_gcc.h **** 
 123:Drivers/CMSIS/Include/cmsis_gcc.h ****   __ASM volatile ("MRS %0, apsr" : "=r" (result) );
 124:Drivers/CMSIS/Include/cmsis_gcc.h ****   return(result);
 125:Drivers/CMSIS/Include/cmsis_gcc.h **** }
 126:Drivers/CMSIS/Include/cmsis_gcc.h **** 
 127:Drivers/CMSIS/Include/cmsis_gcc.h **** 
 128:Drivers/CMSIS/Include/cmsis_gcc.h **** /**
 129:Drivers/CMSIS/Include/cmsis_gcc.h ****   \brief   Get xPSR Register
 130:Drivers/CMSIS/Include/cmsis_gcc.h ****   \details Returns the content of the xPSR Register.
 131:Drivers/CMSIS/Include/cmsis_gcc.h **** 
 132:Drivers/CMSIS/Include/cmsis_gcc.h ****     \return               xPSR Register value
 133:Drivers/CMSIS/Include/cmsis_gcc.h ****  */
 134:Drivers/CMSIS/Include/cmsis_gcc.h **** __attribute__( ( always_inline ) ) __STATIC_INLINE uint32_t __get_xPSR(void)
 135:Drivers/CMSIS/Include/cmsis_gcc.h **** {
 136:Drivers/CMSIS/Include/cmsis_gcc.h ****   uint32_t result;
 137:Drivers/CMSIS/Include/cmsis_gcc.h **** 
 138:Drivers/CMSIS/Include/cmsis_gcc.h ****   __ASM volatile ("MRS %0, xpsr" : "=r" (result) );
 139:Drivers/CMSIS/Include/cmsis_gcc.h ****   return(result);
 140:Drivers/CMSIS/Include/cmsis_gcc.h **** }
 141:Drivers/CMSIS/Include/cmsis_gcc.h **** 
 142:Drivers/CMSIS/Include/cmsis_gcc.h **** 
 143:Drivers/CMSIS/Include/cmsis_gcc.h **** /**
 144:Drivers/CMSIS/Include/cmsis_gcc.h ****   \brief   Get Process Stack Pointer
 145:Drivers/CMSIS/Include/cmsis_gcc.h ****   \details Returns the current value of the Process Stack Pointer (PSP).
 146:Drivers/CMSIS/Include/cmsis_gcc.h ****   \return               PSP Register value
 147:Drivers/CMSIS/Include/cmsis_gcc.h ****  */
 148:Drivers/CMSIS/Include/cmsis_gcc.h **** __attribute__( ( always_inline ) ) __STATIC_INLINE uint32_t __get_PSP(void)
 149:Drivers/CMSIS/Include/cmsis_gcc.h **** {
 150:Drivers/CMSIS/Include/cmsis_gcc.h ****   register uint32_t result;
 151:Drivers/CMSIS/Include/cmsis_gcc.h **** 
 152:Drivers/CMSIS/Include/cmsis_gcc.h ****   __ASM volatile ("MRS %0, psp\n"  : "=r" (result) );
 153:Drivers/CMSIS/Include/cmsis_gcc.h ****   return(result);
 154:Drivers/CMSIS/Include/cmsis_gcc.h **** }
 155:Drivers/CMSIS/Include/cmsis_gcc.h **** 
 156:Drivers/CMSIS/Include/cmsis_gcc.h **** 
 157:Drivers/CMSIS/Include/cmsis_gcc.h **** /**
 158:Drivers/CMSIS/Include/cmsis_gcc.h ****   \brief   Set Process Stack Pointer
 159:Drivers/CMSIS/Include/cmsis_gcc.h ****   \details Assigns the given value to the Process Stack Pointer (PSP).
 160:Drivers/CMSIS/Include/cmsis_gcc.h ****   \param [in]    topOfProcStack  Process Stack Pointer value to set
ARM GAS  /var/folders/8c/gyvcglfx7f97kbqb2h83mm_r0000gn/T//cc6V9BzC.s 			page 12


 161:Drivers/CMSIS/Include/cmsis_gcc.h ****  */
 162:Drivers/CMSIS/Include/cmsis_gcc.h **** __attribute__( ( always_inline ) ) __STATIC_INLINE void __set_PSP(uint32_t topOfProcStack)
 163:Drivers/CMSIS/Include/cmsis_gcc.h **** {
 164:Drivers/CMSIS/Include/cmsis_gcc.h ****   __ASM volatile ("MSR psp, %0\n" : : "r" (topOfProcStack) : "sp");
 165:Drivers/CMSIS/Include/cmsis_gcc.h **** }
 166:Drivers/CMSIS/Include/cmsis_gcc.h **** 
 167:Drivers/CMSIS/Include/cmsis_gcc.h **** 
 168:Drivers/CMSIS/Include/cmsis_gcc.h **** /**
 169:Drivers/CMSIS/Include/cmsis_gcc.h ****   \brief   Get Main Stack Pointer
 170:Drivers/CMSIS/Include/cmsis_gcc.h ****   \details Returns the current value of the Main Stack Pointer (MSP).
 171:Drivers/CMSIS/Include/cmsis_gcc.h ****   \return               MSP Register value
 172:Drivers/CMSIS/Include/cmsis_gcc.h ****  */
 173:Drivers/CMSIS/Include/cmsis_gcc.h **** __attribute__( ( always_inline ) ) __STATIC_INLINE uint32_t __get_MSP(void)
 174:Drivers/CMSIS/Include/cmsis_gcc.h **** {
 175:Drivers/CMSIS/Include/cmsis_gcc.h ****   register uint32_t result;
 176:Drivers/CMSIS/Include/cmsis_gcc.h **** 
 177:Drivers/CMSIS/Include/cmsis_gcc.h ****   __ASM volatile ("MRS %0, msp\n" : "=r" (result) );
 178:Drivers/CMSIS/Include/cmsis_gcc.h ****   return(result);
 179:Drivers/CMSIS/Include/cmsis_gcc.h **** }
 180:Drivers/CMSIS/Include/cmsis_gcc.h **** 
 181:Drivers/CMSIS/Include/cmsis_gcc.h **** 
 182:Drivers/CMSIS/Include/cmsis_gcc.h **** /**
 183:Drivers/CMSIS/Include/cmsis_gcc.h ****   \brief   Set Main Stack Pointer
 184:Drivers/CMSIS/Include/cmsis_gcc.h ****   \details Assigns the given value to the Main Stack Pointer (MSP).
 185:Drivers/CMSIS/Include/cmsis_gcc.h **** 
 186:Drivers/CMSIS/Include/cmsis_gcc.h ****     \param [in]    topOfMainStack  Main Stack Pointer value to set
 187:Drivers/CMSIS/Include/cmsis_gcc.h ****  */
 188:Drivers/CMSIS/Include/cmsis_gcc.h **** __attribute__( ( always_inline ) ) __STATIC_INLINE void __set_MSP(uint32_t topOfMainStack)
 189:Drivers/CMSIS/Include/cmsis_gcc.h **** {
 190:Drivers/CMSIS/Include/cmsis_gcc.h ****   __ASM volatile ("MSR msp, %0\n" : : "r" (topOfMainStack) : "sp");
 191:Drivers/CMSIS/Include/cmsis_gcc.h **** }
 192:Drivers/CMSIS/Include/cmsis_gcc.h **** 
 193:Drivers/CMSIS/Include/cmsis_gcc.h **** 
 194:Drivers/CMSIS/Include/cmsis_gcc.h **** /**
 195:Drivers/CMSIS/Include/cmsis_gcc.h ****   \brief   Get Priority Mask
 196:Drivers/CMSIS/Include/cmsis_gcc.h ****   \details Returns the current state of the priority mask bit from the Priority Mask Register.
 197:Drivers/CMSIS/Include/cmsis_gcc.h ****   \return               Priority Mask value
 198:Drivers/CMSIS/Include/cmsis_gcc.h ****  */
 199:Drivers/CMSIS/Include/cmsis_gcc.h **** __attribute__( ( always_inline ) ) __STATIC_INLINE uint32_t __get_PRIMASK(void)
 200:Drivers/CMSIS/Include/cmsis_gcc.h **** {
 201:Drivers/CMSIS/Include/cmsis_gcc.h ****   uint32_t result;
 202:Drivers/CMSIS/Include/cmsis_gcc.h **** 
 203:Drivers/CMSIS/Include/cmsis_gcc.h ****   __ASM volatile ("MRS %0, primask" : "=r" (result) );
 204:Drivers/CMSIS/Include/cmsis_gcc.h ****   return(result);
 205:Drivers/CMSIS/Include/cmsis_gcc.h **** }
 206:Drivers/CMSIS/Include/cmsis_gcc.h **** 
 207:Drivers/CMSIS/Include/cmsis_gcc.h **** 
 208:Drivers/CMSIS/Include/cmsis_gcc.h **** /**
 209:Drivers/CMSIS/Include/cmsis_gcc.h ****   \brief   Set Priority Mask
 210:Drivers/CMSIS/Include/cmsis_gcc.h ****   \details Assigns the given value to the Priority Mask Register.
 211:Drivers/CMSIS/Include/cmsis_gcc.h ****   \param [in]    priMask  Priority Mask
 212:Drivers/CMSIS/Include/cmsis_gcc.h ****  */
 213:Drivers/CMSIS/Include/cmsis_gcc.h **** __attribute__( ( always_inline ) ) __STATIC_INLINE void __set_PRIMASK(uint32_t priMask)
 214:Drivers/CMSIS/Include/cmsis_gcc.h **** {
 215:Drivers/CMSIS/Include/cmsis_gcc.h ****   __ASM volatile ("MSR primask, %0" : : "r" (priMask) : "memory");
 216:Drivers/CMSIS/Include/cmsis_gcc.h **** }
 217:Drivers/CMSIS/Include/cmsis_gcc.h **** 
ARM GAS  /var/folders/8c/gyvcglfx7f97kbqb2h83mm_r0000gn/T//cc6V9BzC.s 			page 13


 218:Drivers/CMSIS/Include/cmsis_gcc.h **** 
 219:Drivers/CMSIS/Include/cmsis_gcc.h **** #if       (__CORTEX_M >= 0x03U)
 220:Drivers/CMSIS/Include/cmsis_gcc.h **** 
 221:Drivers/CMSIS/Include/cmsis_gcc.h **** /**
 222:Drivers/CMSIS/Include/cmsis_gcc.h ****   \brief   Enable FIQ
 223:Drivers/CMSIS/Include/cmsis_gcc.h ****   \details Enables FIQ interrupts by clearing the F-bit in the CPSR.
 224:Drivers/CMSIS/Include/cmsis_gcc.h ****            Can only be executed in Privileged modes.
 225:Drivers/CMSIS/Include/cmsis_gcc.h ****  */
 226:Drivers/CMSIS/Include/cmsis_gcc.h **** __attribute__( ( always_inline ) ) __STATIC_INLINE void __enable_fault_irq(void)
 227:Drivers/CMSIS/Include/cmsis_gcc.h **** {
 228:Drivers/CMSIS/Include/cmsis_gcc.h ****   __ASM volatile ("cpsie f" : : : "memory");
 229:Drivers/CMSIS/Include/cmsis_gcc.h **** }
 230:Drivers/CMSIS/Include/cmsis_gcc.h **** 
 231:Drivers/CMSIS/Include/cmsis_gcc.h **** 
 232:Drivers/CMSIS/Include/cmsis_gcc.h **** /**
 233:Drivers/CMSIS/Include/cmsis_gcc.h ****   \brief   Disable FIQ
 234:Drivers/CMSIS/Include/cmsis_gcc.h ****   \details Disables FIQ interrupts by setting the F-bit in the CPSR.
 235:Drivers/CMSIS/Include/cmsis_gcc.h ****            Can only be executed in Privileged modes.
 236:Drivers/CMSIS/Include/cmsis_gcc.h ****  */
 237:Drivers/CMSIS/Include/cmsis_gcc.h **** __attribute__( ( always_inline ) ) __STATIC_INLINE void __disable_fault_irq(void)
 238:Drivers/CMSIS/Include/cmsis_gcc.h **** {
 239:Drivers/CMSIS/Include/cmsis_gcc.h ****   __ASM volatile ("cpsid f" : : : "memory");
 240:Drivers/CMSIS/Include/cmsis_gcc.h **** }
 241:Drivers/CMSIS/Include/cmsis_gcc.h **** 
 242:Drivers/CMSIS/Include/cmsis_gcc.h **** 
 243:Drivers/CMSIS/Include/cmsis_gcc.h **** /**
 244:Drivers/CMSIS/Include/cmsis_gcc.h ****   \brief   Get Base Priority
 245:Drivers/CMSIS/Include/cmsis_gcc.h ****   \details Returns the current value of the Base Priority register.
 246:Drivers/CMSIS/Include/cmsis_gcc.h ****   \return               Base Priority register value
 247:Drivers/CMSIS/Include/cmsis_gcc.h ****  */
 248:Drivers/CMSIS/Include/cmsis_gcc.h **** __attribute__( ( always_inline ) ) __STATIC_INLINE uint32_t __get_BASEPRI(void)
 249:Drivers/CMSIS/Include/cmsis_gcc.h **** {
 250:Drivers/CMSIS/Include/cmsis_gcc.h ****   uint32_t result;
 251:Drivers/CMSIS/Include/cmsis_gcc.h **** 
 252:Drivers/CMSIS/Include/cmsis_gcc.h ****   __ASM volatile ("MRS %0, basepri" : "=r" (result) );
 253:Drivers/CMSIS/Include/cmsis_gcc.h ****   return(result);
 254:Drivers/CMSIS/Include/cmsis_gcc.h **** }
 255:Drivers/CMSIS/Include/cmsis_gcc.h **** 
 256:Drivers/CMSIS/Include/cmsis_gcc.h **** 
 257:Drivers/CMSIS/Include/cmsis_gcc.h **** /**
 258:Drivers/CMSIS/Include/cmsis_gcc.h ****   \brief   Set Base Priority
 259:Drivers/CMSIS/Include/cmsis_gcc.h ****   \details Assigns the given value to the Base Priority register.
 260:Drivers/CMSIS/Include/cmsis_gcc.h ****   \param [in]    basePri  Base Priority value to set
 261:Drivers/CMSIS/Include/cmsis_gcc.h ****  */
 262:Drivers/CMSIS/Include/cmsis_gcc.h **** __attribute__( ( always_inline ) ) __STATIC_INLINE void __set_BASEPRI(uint32_t value)
 263:Drivers/CMSIS/Include/cmsis_gcc.h **** {
 264:Drivers/CMSIS/Include/cmsis_gcc.h ****   __ASM volatile ("MSR basepri, %0" : : "r" (value) : "memory");
 265:Drivers/CMSIS/Include/cmsis_gcc.h **** }
 266:Drivers/CMSIS/Include/cmsis_gcc.h **** 
 267:Drivers/CMSIS/Include/cmsis_gcc.h **** 
 268:Drivers/CMSIS/Include/cmsis_gcc.h **** /**
 269:Drivers/CMSIS/Include/cmsis_gcc.h ****   \brief   Set Base Priority with condition
 270:Drivers/CMSIS/Include/cmsis_gcc.h ****   \details Assigns the given value to the Base Priority register only if BASEPRI masking is disable
 271:Drivers/CMSIS/Include/cmsis_gcc.h ****            or the new value increases the BASEPRI priority level.
 272:Drivers/CMSIS/Include/cmsis_gcc.h ****   \param [in]    basePri  Base Priority value to set
 273:Drivers/CMSIS/Include/cmsis_gcc.h ****  */
 274:Drivers/CMSIS/Include/cmsis_gcc.h **** __attribute__( ( always_inline ) ) __STATIC_INLINE void __set_BASEPRI_MAX(uint32_t value)
ARM GAS  /var/folders/8c/gyvcglfx7f97kbqb2h83mm_r0000gn/T//cc6V9BzC.s 			page 14


 275:Drivers/CMSIS/Include/cmsis_gcc.h **** {
 276:Drivers/CMSIS/Include/cmsis_gcc.h ****   __ASM volatile ("MSR basepri_max, %0" : : "r" (value) : "memory");
 277:Drivers/CMSIS/Include/cmsis_gcc.h **** }
 278:Drivers/CMSIS/Include/cmsis_gcc.h **** 
 279:Drivers/CMSIS/Include/cmsis_gcc.h **** 
 280:Drivers/CMSIS/Include/cmsis_gcc.h **** /**
 281:Drivers/CMSIS/Include/cmsis_gcc.h ****   \brief   Get Fault Mask
 282:Drivers/CMSIS/Include/cmsis_gcc.h ****   \details Returns the current value of the Fault Mask register.
 283:Drivers/CMSIS/Include/cmsis_gcc.h ****   \return               Fault Mask register value
 284:Drivers/CMSIS/Include/cmsis_gcc.h ****  */
 285:Drivers/CMSIS/Include/cmsis_gcc.h **** __attribute__( ( always_inline ) ) __STATIC_INLINE uint32_t __get_FAULTMASK(void)
 286:Drivers/CMSIS/Include/cmsis_gcc.h **** {
 287:Drivers/CMSIS/Include/cmsis_gcc.h ****   uint32_t result;
 288:Drivers/CMSIS/Include/cmsis_gcc.h **** 
 289:Drivers/CMSIS/Include/cmsis_gcc.h ****   __ASM volatile ("MRS %0, faultmask" : "=r" (result) );
 290:Drivers/CMSIS/Include/cmsis_gcc.h ****   return(result);
 291:Drivers/CMSIS/Include/cmsis_gcc.h **** }
 292:Drivers/CMSIS/Include/cmsis_gcc.h **** 
 293:Drivers/CMSIS/Include/cmsis_gcc.h **** 
 294:Drivers/CMSIS/Include/cmsis_gcc.h **** /**
 295:Drivers/CMSIS/Include/cmsis_gcc.h ****   \brief   Set Fault Mask
 296:Drivers/CMSIS/Include/cmsis_gcc.h ****   \details Assigns the given value to the Fault Mask register.
 297:Drivers/CMSIS/Include/cmsis_gcc.h ****   \param [in]    faultMask  Fault Mask value to set
 298:Drivers/CMSIS/Include/cmsis_gcc.h ****  */
 299:Drivers/CMSIS/Include/cmsis_gcc.h **** __attribute__( ( always_inline ) ) __STATIC_INLINE void __set_FAULTMASK(uint32_t faultMask)
 300:Drivers/CMSIS/Include/cmsis_gcc.h **** {
 301:Drivers/CMSIS/Include/cmsis_gcc.h ****   __ASM volatile ("MSR faultmask, %0" : : "r" (faultMask) : "memory");
 302:Drivers/CMSIS/Include/cmsis_gcc.h **** }
 303:Drivers/CMSIS/Include/cmsis_gcc.h **** 
 304:Drivers/CMSIS/Include/cmsis_gcc.h **** #endif /* (__CORTEX_M >= 0x03U) */
 305:Drivers/CMSIS/Include/cmsis_gcc.h **** 
 306:Drivers/CMSIS/Include/cmsis_gcc.h **** 
 307:Drivers/CMSIS/Include/cmsis_gcc.h **** #if       (__CORTEX_M == 0x04U) || (__CORTEX_M == 0x07U)
 308:Drivers/CMSIS/Include/cmsis_gcc.h **** 
 309:Drivers/CMSIS/Include/cmsis_gcc.h **** /**
 310:Drivers/CMSIS/Include/cmsis_gcc.h ****   \brief   Get FPSCR
 311:Drivers/CMSIS/Include/cmsis_gcc.h ****   \details Returns the current value of the Floating Point Status/Control register.
 312:Drivers/CMSIS/Include/cmsis_gcc.h ****   \return               Floating Point Status/Control register value
 313:Drivers/CMSIS/Include/cmsis_gcc.h ****  */
 314:Drivers/CMSIS/Include/cmsis_gcc.h **** __attribute__( ( always_inline ) ) __STATIC_INLINE uint32_t __get_FPSCR(void)
 315:Drivers/CMSIS/Include/cmsis_gcc.h **** {
 316:Drivers/CMSIS/Include/cmsis_gcc.h **** #if (__FPU_PRESENT == 1U) && (__FPU_USED == 1U)
 317:Drivers/CMSIS/Include/cmsis_gcc.h ****   uint32_t result;
 318:Drivers/CMSIS/Include/cmsis_gcc.h **** 
 319:Drivers/CMSIS/Include/cmsis_gcc.h ****   /* Empty asm statement works as a scheduling barrier */
 320:Drivers/CMSIS/Include/cmsis_gcc.h ****   __ASM volatile ("");
 321:Drivers/CMSIS/Include/cmsis_gcc.h ****   __ASM volatile ("VMRS %0, fpscr" : "=r" (result) );
 322:Drivers/CMSIS/Include/cmsis_gcc.h ****   __ASM volatile ("");
 323:Drivers/CMSIS/Include/cmsis_gcc.h ****   return(result);
 324:Drivers/CMSIS/Include/cmsis_gcc.h **** #else
 325:Drivers/CMSIS/Include/cmsis_gcc.h ****    return(0);
 326:Drivers/CMSIS/Include/cmsis_gcc.h **** #endif
 327:Drivers/CMSIS/Include/cmsis_gcc.h **** }
 328:Drivers/CMSIS/Include/cmsis_gcc.h **** 
 329:Drivers/CMSIS/Include/cmsis_gcc.h **** 
 330:Drivers/CMSIS/Include/cmsis_gcc.h **** /**
 331:Drivers/CMSIS/Include/cmsis_gcc.h ****   \brief   Set FPSCR
ARM GAS  /var/folders/8c/gyvcglfx7f97kbqb2h83mm_r0000gn/T//cc6V9BzC.s 			page 15


 332:Drivers/CMSIS/Include/cmsis_gcc.h ****   \details Assigns the given value to the Floating Point Status/Control register.
 333:Drivers/CMSIS/Include/cmsis_gcc.h ****   \param [in]    fpscr  Floating Point Status/Control value to set
 334:Drivers/CMSIS/Include/cmsis_gcc.h ****  */
 335:Drivers/CMSIS/Include/cmsis_gcc.h **** __attribute__( ( always_inline ) ) __STATIC_INLINE void __set_FPSCR(uint32_t fpscr)
 336:Drivers/CMSIS/Include/cmsis_gcc.h **** {
 337:Drivers/CMSIS/Include/cmsis_gcc.h **** #if (__FPU_PRESENT == 1U) && (__FPU_USED == 1U)
 338:Drivers/CMSIS/Include/cmsis_gcc.h ****   /* Empty asm statement works as a scheduling barrier */
 339:Drivers/CMSIS/Include/cmsis_gcc.h ****   __ASM volatile ("");
 340:Drivers/CMSIS/Include/cmsis_gcc.h ****   __ASM volatile ("VMSR fpscr, %0" : : "r" (fpscr) : "vfpcc");
 341:Drivers/CMSIS/Include/cmsis_gcc.h ****   __ASM volatile ("");
 342:Drivers/CMSIS/Include/cmsis_gcc.h **** #endif
 343:Drivers/CMSIS/Include/cmsis_gcc.h **** }
 344:Drivers/CMSIS/Include/cmsis_gcc.h **** 
 345:Drivers/CMSIS/Include/cmsis_gcc.h **** #endif /* (__CORTEX_M == 0x04U) || (__CORTEX_M == 0x07U) */
 346:Drivers/CMSIS/Include/cmsis_gcc.h **** 
 347:Drivers/CMSIS/Include/cmsis_gcc.h **** 
 348:Drivers/CMSIS/Include/cmsis_gcc.h **** 
 349:Drivers/CMSIS/Include/cmsis_gcc.h **** /*@} end of CMSIS_Core_RegAccFunctions */
 350:Drivers/CMSIS/Include/cmsis_gcc.h **** 
 351:Drivers/CMSIS/Include/cmsis_gcc.h **** 
 352:Drivers/CMSIS/Include/cmsis_gcc.h **** /* ##########################  Core Instruction Access  ######################### */
 353:Drivers/CMSIS/Include/cmsis_gcc.h **** /** \defgroup CMSIS_Core_InstructionInterface CMSIS Core Instruction Interface
 354:Drivers/CMSIS/Include/cmsis_gcc.h ****   Access to dedicated instructions
 355:Drivers/CMSIS/Include/cmsis_gcc.h ****   @{
 356:Drivers/CMSIS/Include/cmsis_gcc.h **** */
 357:Drivers/CMSIS/Include/cmsis_gcc.h **** 
 358:Drivers/CMSIS/Include/cmsis_gcc.h **** /* Define macros for porting to both thumb1 and thumb2.
 359:Drivers/CMSIS/Include/cmsis_gcc.h ****  * For thumb1, use low register (r0-r7), specified by constraint "l"
 360:Drivers/CMSIS/Include/cmsis_gcc.h ****  * Otherwise, use general registers, specified by constraint "r" */
 361:Drivers/CMSIS/Include/cmsis_gcc.h **** #if defined (__thumb__) && !defined (__thumb2__)
 362:Drivers/CMSIS/Include/cmsis_gcc.h **** #define __CMSIS_GCC_OUT_REG(r) "=l" (r)
 363:Drivers/CMSIS/Include/cmsis_gcc.h **** #define __CMSIS_GCC_USE_REG(r) "l" (r)
 364:Drivers/CMSIS/Include/cmsis_gcc.h **** #else
 365:Drivers/CMSIS/Include/cmsis_gcc.h **** #define __CMSIS_GCC_OUT_REG(r) "=r" (r)
 366:Drivers/CMSIS/Include/cmsis_gcc.h **** #define __CMSIS_GCC_USE_REG(r) "r" (r)
 367:Drivers/CMSIS/Include/cmsis_gcc.h **** #endif
 368:Drivers/CMSIS/Include/cmsis_gcc.h **** 
 369:Drivers/CMSIS/Include/cmsis_gcc.h **** /**
 370:Drivers/CMSIS/Include/cmsis_gcc.h ****   \brief   No Operation
 371:Drivers/CMSIS/Include/cmsis_gcc.h ****   \details No Operation does nothing. This instruction can be used for code alignment purposes.
 372:Drivers/CMSIS/Include/cmsis_gcc.h ****  */
 373:Drivers/CMSIS/Include/cmsis_gcc.h **** __attribute__((always_inline)) __STATIC_INLINE void __NOP(void)
 374:Drivers/CMSIS/Include/cmsis_gcc.h **** {
 375:Drivers/CMSIS/Include/cmsis_gcc.h ****   __ASM volatile ("nop");
 376:Drivers/CMSIS/Include/cmsis_gcc.h **** }
 377:Drivers/CMSIS/Include/cmsis_gcc.h **** 
 378:Drivers/CMSIS/Include/cmsis_gcc.h **** 
 379:Drivers/CMSIS/Include/cmsis_gcc.h **** /**
 380:Drivers/CMSIS/Include/cmsis_gcc.h ****   \brief   Wait For Interrupt
 381:Drivers/CMSIS/Include/cmsis_gcc.h ****   \details Wait For Interrupt is a hint instruction that suspends execution until one of a number o
 382:Drivers/CMSIS/Include/cmsis_gcc.h ****  */
 383:Drivers/CMSIS/Include/cmsis_gcc.h **** __attribute__((always_inline)) __STATIC_INLINE void __WFI(void)
 384:Drivers/CMSIS/Include/cmsis_gcc.h **** {
 385:Drivers/CMSIS/Include/cmsis_gcc.h ****   __ASM volatile ("wfi");
 386:Drivers/CMSIS/Include/cmsis_gcc.h **** }
 387:Drivers/CMSIS/Include/cmsis_gcc.h **** 
 388:Drivers/CMSIS/Include/cmsis_gcc.h **** 
ARM GAS  /var/folders/8c/gyvcglfx7f97kbqb2h83mm_r0000gn/T//cc6V9BzC.s 			page 16


 389:Drivers/CMSIS/Include/cmsis_gcc.h **** /**
 390:Drivers/CMSIS/Include/cmsis_gcc.h ****   \brief   Wait For Event
 391:Drivers/CMSIS/Include/cmsis_gcc.h ****   \details Wait For Event is a hint instruction that permits the processor to enter
 392:Drivers/CMSIS/Include/cmsis_gcc.h ****     a low-power state until one of a number of events occurs.
 393:Drivers/CMSIS/Include/cmsis_gcc.h ****  */
 394:Drivers/CMSIS/Include/cmsis_gcc.h **** __attribute__((always_inline)) __STATIC_INLINE void __WFE(void)
 395:Drivers/CMSIS/Include/cmsis_gcc.h **** {
 396:Drivers/CMSIS/Include/cmsis_gcc.h ****   __ASM volatile ("wfe");
 397:Drivers/CMSIS/Include/cmsis_gcc.h **** }
 398:Drivers/CMSIS/Include/cmsis_gcc.h **** 
 399:Drivers/CMSIS/Include/cmsis_gcc.h **** 
 400:Drivers/CMSIS/Include/cmsis_gcc.h **** /**
 401:Drivers/CMSIS/Include/cmsis_gcc.h ****   \brief   Send Event
 402:Drivers/CMSIS/Include/cmsis_gcc.h ****   \details Send Event is a hint instruction. It causes an event to be signaled to the CPU.
 403:Drivers/CMSIS/Include/cmsis_gcc.h ****  */
 404:Drivers/CMSIS/Include/cmsis_gcc.h **** __attribute__((always_inline)) __STATIC_INLINE void __SEV(void)
 405:Drivers/CMSIS/Include/cmsis_gcc.h **** {
 406:Drivers/CMSIS/Include/cmsis_gcc.h ****   __ASM volatile ("sev");
 407:Drivers/CMSIS/Include/cmsis_gcc.h **** }
 408:Drivers/CMSIS/Include/cmsis_gcc.h **** 
 409:Drivers/CMSIS/Include/cmsis_gcc.h **** 
 410:Drivers/CMSIS/Include/cmsis_gcc.h **** /**
 411:Drivers/CMSIS/Include/cmsis_gcc.h ****   \brief   Instruction Synchronization Barrier
 412:Drivers/CMSIS/Include/cmsis_gcc.h ****   \details Instruction Synchronization Barrier flushes the pipeline in the processor,
 413:Drivers/CMSIS/Include/cmsis_gcc.h ****            so that all instructions following the ISB are fetched from cache or memory,
 414:Drivers/CMSIS/Include/cmsis_gcc.h ****            after the instruction has been completed.
 415:Drivers/CMSIS/Include/cmsis_gcc.h ****  */
 416:Drivers/CMSIS/Include/cmsis_gcc.h **** __attribute__((always_inline)) __STATIC_INLINE void __ISB(void)
 417:Drivers/CMSIS/Include/cmsis_gcc.h **** {
 418:Drivers/CMSIS/Include/cmsis_gcc.h ****   __ASM volatile ("isb 0xF":::"memory");
 419:Drivers/CMSIS/Include/cmsis_gcc.h **** }
 420:Drivers/CMSIS/Include/cmsis_gcc.h **** 
 421:Drivers/CMSIS/Include/cmsis_gcc.h **** 
 422:Drivers/CMSIS/Include/cmsis_gcc.h **** /**
 423:Drivers/CMSIS/Include/cmsis_gcc.h ****   \brief   Data Synchronization Barrier
 424:Drivers/CMSIS/Include/cmsis_gcc.h ****   \details Acts as a special kind of Data Memory Barrier.
 425:Drivers/CMSIS/Include/cmsis_gcc.h ****            It completes when all explicit memory accesses before this instruction complete.
 426:Drivers/CMSIS/Include/cmsis_gcc.h ****  */
 427:Drivers/CMSIS/Include/cmsis_gcc.h **** __attribute__((always_inline)) __STATIC_INLINE void __DSB(void)
 428:Drivers/CMSIS/Include/cmsis_gcc.h **** {
 429:Drivers/CMSIS/Include/cmsis_gcc.h ****   __ASM volatile ("dsb 0xF":::"memory");
 430:Drivers/CMSIS/Include/cmsis_gcc.h **** }
 431:Drivers/CMSIS/Include/cmsis_gcc.h **** 
 432:Drivers/CMSIS/Include/cmsis_gcc.h **** 
 433:Drivers/CMSIS/Include/cmsis_gcc.h **** /**
 434:Drivers/CMSIS/Include/cmsis_gcc.h ****   \brief   Data Memory Barrier
 435:Drivers/CMSIS/Include/cmsis_gcc.h ****   \details Ensures the apparent order of the explicit memory operations before
 436:Drivers/CMSIS/Include/cmsis_gcc.h ****            and after the instruction, without ensuring their completion.
 437:Drivers/CMSIS/Include/cmsis_gcc.h ****  */
 438:Drivers/CMSIS/Include/cmsis_gcc.h **** __attribute__((always_inline)) __STATIC_INLINE void __DMB(void)
 439:Drivers/CMSIS/Include/cmsis_gcc.h **** {
 440:Drivers/CMSIS/Include/cmsis_gcc.h ****   __ASM volatile ("dmb 0xF":::"memory");
 441:Drivers/CMSIS/Include/cmsis_gcc.h **** }
 442:Drivers/CMSIS/Include/cmsis_gcc.h **** 
 443:Drivers/CMSIS/Include/cmsis_gcc.h **** 
 444:Drivers/CMSIS/Include/cmsis_gcc.h **** /**
 445:Drivers/CMSIS/Include/cmsis_gcc.h ****   \brief   Reverse byte order (32 bit)
ARM GAS  /var/folders/8c/gyvcglfx7f97kbqb2h83mm_r0000gn/T//cc6V9BzC.s 			page 17


 446:Drivers/CMSIS/Include/cmsis_gcc.h ****   \details Reverses the byte order in integer value.
 447:Drivers/CMSIS/Include/cmsis_gcc.h ****   \param [in]    value  Value to reverse
 448:Drivers/CMSIS/Include/cmsis_gcc.h ****   \return               Reversed value
 449:Drivers/CMSIS/Include/cmsis_gcc.h ****  */
 450:Drivers/CMSIS/Include/cmsis_gcc.h **** __attribute__((always_inline)) __STATIC_INLINE uint32_t __REV(uint32_t value)
 451:Drivers/CMSIS/Include/cmsis_gcc.h **** {
 452:Drivers/CMSIS/Include/cmsis_gcc.h **** #if (__GNUC__ > 4) || (__GNUC__ == 4 && __GNUC_MINOR__ >= 5)
 453:Drivers/CMSIS/Include/cmsis_gcc.h ****   return __builtin_bswap32(value);
 454:Drivers/CMSIS/Include/cmsis_gcc.h **** #else
 455:Drivers/CMSIS/Include/cmsis_gcc.h ****   uint32_t result;
 456:Drivers/CMSIS/Include/cmsis_gcc.h **** 
 457:Drivers/CMSIS/Include/cmsis_gcc.h ****   __ASM volatile ("rev %0, %1" : __CMSIS_GCC_OUT_REG (result) : __CMSIS_GCC_USE_REG (value) );
 458:Drivers/CMSIS/Include/cmsis_gcc.h ****   return(result);
 459:Drivers/CMSIS/Include/cmsis_gcc.h **** #endif
 460:Drivers/CMSIS/Include/cmsis_gcc.h **** }
 461:Drivers/CMSIS/Include/cmsis_gcc.h **** 
 462:Drivers/CMSIS/Include/cmsis_gcc.h **** 
 463:Drivers/CMSIS/Include/cmsis_gcc.h **** /**
 464:Drivers/CMSIS/Include/cmsis_gcc.h ****   \brief   Reverse byte order (16 bit)
 465:Drivers/CMSIS/Include/cmsis_gcc.h ****   \details Reverses the byte order in two unsigned short values.
 466:Drivers/CMSIS/Include/cmsis_gcc.h ****   \param [in]    value  Value to reverse
 467:Drivers/CMSIS/Include/cmsis_gcc.h ****   \return               Reversed value
 468:Drivers/CMSIS/Include/cmsis_gcc.h ****  */
 469:Drivers/CMSIS/Include/cmsis_gcc.h **** __attribute__((always_inline)) __STATIC_INLINE uint32_t __REV16(uint32_t value)
 470:Drivers/CMSIS/Include/cmsis_gcc.h **** {
 471:Drivers/CMSIS/Include/cmsis_gcc.h ****   uint32_t result;
 472:Drivers/CMSIS/Include/cmsis_gcc.h **** 
 473:Drivers/CMSIS/Include/cmsis_gcc.h ****   __ASM volatile ("rev16 %0, %1" : __CMSIS_GCC_OUT_REG (result) : __CMSIS_GCC_USE_REG (value) );
 474:Drivers/CMSIS/Include/cmsis_gcc.h ****   return(result);
 475:Drivers/CMSIS/Include/cmsis_gcc.h **** }
 476:Drivers/CMSIS/Include/cmsis_gcc.h **** 
 477:Drivers/CMSIS/Include/cmsis_gcc.h **** 
 478:Drivers/CMSIS/Include/cmsis_gcc.h **** /**
 479:Drivers/CMSIS/Include/cmsis_gcc.h ****   \brief   Reverse byte order in signed short value
 480:Drivers/CMSIS/Include/cmsis_gcc.h ****   \details Reverses the byte order in a signed short value with sign extension to integer.
 481:Drivers/CMSIS/Include/cmsis_gcc.h ****   \param [in]    value  Value to reverse
 482:Drivers/CMSIS/Include/cmsis_gcc.h ****   \return               Reversed value
 483:Drivers/CMSIS/Include/cmsis_gcc.h ****  */
 484:Drivers/CMSIS/Include/cmsis_gcc.h **** __attribute__((always_inline)) __STATIC_INLINE int32_t __REVSH(int32_t value)
 485:Drivers/CMSIS/Include/cmsis_gcc.h **** {
 486:Drivers/CMSIS/Include/cmsis_gcc.h **** #if (__GNUC__ > 4) || (__GNUC__ == 4 && __GNUC_MINOR__ >= 8)
 487:Drivers/CMSIS/Include/cmsis_gcc.h ****   return (short)__builtin_bswap16(value);
 488:Drivers/CMSIS/Include/cmsis_gcc.h **** #else
 489:Drivers/CMSIS/Include/cmsis_gcc.h ****   int32_t result;
 490:Drivers/CMSIS/Include/cmsis_gcc.h **** 
 491:Drivers/CMSIS/Include/cmsis_gcc.h ****   __ASM volatile ("revsh %0, %1" : __CMSIS_GCC_OUT_REG (result) : __CMSIS_GCC_USE_REG (value) );
 492:Drivers/CMSIS/Include/cmsis_gcc.h ****   return(result);
 493:Drivers/CMSIS/Include/cmsis_gcc.h **** #endif
 494:Drivers/CMSIS/Include/cmsis_gcc.h **** }
 495:Drivers/CMSIS/Include/cmsis_gcc.h **** 
 496:Drivers/CMSIS/Include/cmsis_gcc.h **** 
 497:Drivers/CMSIS/Include/cmsis_gcc.h **** /**
 498:Drivers/CMSIS/Include/cmsis_gcc.h ****   \brief   Rotate Right in unsigned value (32 bit)
 499:Drivers/CMSIS/Include/cmsis_gcc.h ****   \details Rotate Right (immediate) provides the value of the contents of a register rotated by a v
 500:Drivers/CMSIS/Include/cmsis_gcc.h ****   \param [in]    value  Value to rotate
 501:Drivers/CMSIS/Include/cmsis_gcc.h ****   \param [in]    value  Number of Bits to rotate
 502:Drivers/CMSIS/Include/cmsis_gcc.h ****   \return               Rotated value
ARM GAS  /var/folders/8c/gyvcglfx7f97kbqb2h83mm_r0000gn/T//cc6V9BzC.s 			page 18


 503:Drivers/CMSIS/Include/cmsis_gcc.h ****  */
 504:Drivers/CMSIS/Include/cmsis_gcc.h **** __attribute__((always_inline)) __STATIC_INLINE uint32_t __ROR(uint32_t op1, uint32_t op2)
 505:Drivers/CMSIS/Include/cmsis_gcc.h **** {
 506:Drivers/CMSIS/Include/cmsis_gcc.h ****   return (op1 >> op2) | (op1 << (32U - op2));
 507:Drivers/CMSIS/Include/cmsis_gcc.h **** }
 508:Drivers/CMSIS/Include/cmsis_gcc.h **** 
 509:Drivers/CMSIS/Include/cmsis_gcc.h **** 
 510:Drivers/CMSIS/Include/cmsis_gcc.h **** /**
 511:Drivers/CMSIS/Include/cmsis_gcc.h ****   \brief   Breakpoint
 512:Drivers/CMSIS/Include/cmsis_gcc.h ****   \details Causes the processor to enter Debug state.
 513:Drivers/CMSIS/Include/cmsis_gcc.h ****            Debug tools can use this to investigate system state when the instruction at a particula
 514:Drivers/CMSIS/Include/cmsis_gcc.h ****   \param [in]    value  is ignored by the processor.
 515:Drivers/CMSIS/Include/cmsis_gcc.h ****                  If required, a debugger can use it to store additional information about the break
 516:Drivers/CMSIS/Include/cmsis_gcc.h ****  */
 517:Drivers/CMSIS/Include/cmsis_gcc.h **** #define __BKPT(value)                       __ASM volatile ("bkpt "#value)
 518:Drivers/CMSIS/Include/cmsis_gcc.h **** 
 519:Drivers/CMSIS/Include/cmsis_gcc.h **** 
 520:Drivers/CMSIS/Include/cmsis_gcc.h **** /**
 521:Drivers/CMSIS/Include/cmsis_gcc.h ****   \brief   Reverse bit order of value
 522:Drivers/CMSIS/Include/cmsis_gcc.h ****   \details Reverses the bit order of the given value.
 523:Drivers/CMSIS/Include/cmsis_gcc.h ****   \param [in]    value  Value to reverse
 524:Drivers/CMSIS/Include/cmsis_gcc.h ****   \return               Reversed value
 525:Drivers/CMSIS/Include/cmsis_gcc.h ****  */
 526:Drivers/CMSIS/Include/cmsis_gcc.h **** __attribute__((always_inline)) __STATIC_INLINE uint32_t __RBIT(uint32_t value)
 166              		.loc 2 526 57 view .LVU34
 167              	.LBB167:
 527:Drivers/CMSIS/Include/cmsis_gcc.h **** {
 528:Drivers/CMSIS/Include/cmsis_gcc.h ****   uint32_t result;
 168              		.loc 2 528 3 view .LVU35
 529:Drivers/CMSIS/Include/cmsis_gcc.h **** 
 530:Drivers/CMSIS/Include/cmsis_gcc.h **** #if       (__CORTEX_M >= 0x03U) || (__CORTEX_SC >= 300U)
 531:Drivers/CMSIS/Include/cmsis_gcc.h ****    __ASM volatile ("rbit %0, %1" : "=r" (result) : "r" (value) );
 169              		.loc 2 531 4 view .LVU36
 170 005c 4FF40033 		mov	r3, #131072
 171              		.syntax unified
 172              	@ 531 "Drivers/CMSIS/Include/cmsis_gcc.h" 1
 173 0060 93FAA3F3 		rbit r3, r3
 174              	@ 0 "" 2
 532:Drivers/CMSIS/Include/cmsis_gcc.h **** #else
 533:Drivers/CMSIS/Include/cmsis_gcc.h ****   int32_t s = 4 /*sizeof(v)*/ * 8 - 1; /* extra shift needed at end */
 534:Drivers/CMSIS/Include/cmsis_gcc.h **** 
 535:Drivers/CMSIS/Include/cmsis_gcc.h ****   result = value;                      /* r will be reversed bits of v; first get LSB of v */
 536:Drivers/CMSIS/Include/cmsis_gcc.h ****   for (value >>= 1U; value; value >>= 1U)
 537:Drivers/CMSIS/Include/cmsis_gcc.h ****   {
 538:Drivers/CMSIS/Include/cmsis_gcc.h ****     result <<= 1U;
 539:Drivers/CMSIS/Include/cmsis_gcc.h ****     result |= value & 1U;
 540:Drivers/CMSIS/Include/cmsis_gcc.h ****     s--;
 541:Drivers/CMSIS/Include/cmsis_gcc.h ****   }
 542:Drivers/CMSIS/Include/cmsis_gcc.h ****   result <<= s;                        /* shift when v's highest bits are zero */
 543:Drivers/CMSIS/Include/cmsis_gcc.h **** #endif
 544:Drivers/CMSIS/Include/cmsis_gcc.h ****   return(result);
 175              		.loc 2 544 3 view .LVU37
 176              	.LVL3:
 177              		.loc 2 544 3 is_stmt 0 view .LVU38
 178              		.thumb
 179              		.syntax unified
 180              	.LBE167:
ARM GAS  /var/folders/8c/gyvcglfx7f97kbqb2h83mm_r0000gn/T//cc6V9BzC.s 			page 19


 181              	.LBE166:
 294:Drivers/STM32F3xx_HAL_Driver/Src/stm32f3xx_hal_rcc.c ****       {
 182              		.loc 1 294 11 view .LVU39
 183 0064 B24B     		ldr	r3, .L109
 184 0066 1968     		ldr	r1, [r3]
 185              	.LVL4:
 186              	.LBB168:
 187              	.LBI168:
 526:Drivers/CMSIS/Include/cmsis_gcc.h **** {
 188              		.loc 2 526 57 is_stmt 1 view .LVU40
 189              	.LBB169:
 528:Drivers/CMSIS/Include/cmsis_gcc.h **** 
 190              		.loc 2 528 3 view .LVU41
 531:Drivers/CMSIS/Include/cmsis_gcc.h **** #else
 191              		.loc 2 531 4 view .LVU42
 192 0068 4FF40033 		mov	r3, #131072
 193              		.syntax unified
 194              	@ 531 "Drivers/CMSIS/Include/cmsis_gcc.h" 1
 195 006c 93FAA3F3 		rbit r3, r3
 196              	@ 0 "" 2
 197              	.LVL5:
 198              		.loc 2 544 3 view .LVU43
 199              		.loc 2 544 3 is_stmt 0 view .LVU44
 200              		.thumb
 201              		.syntax unified
 202              	.LBE169:
 203              	.LBE168:
 294:Drivers/STM32F3xx_HAL_Driver/Src/stm32f3xx_hal_rcc.c ****       {
 204              		.loc 1 294 11 view .LVU45
 205 0070 B3FA83F3 		clz	r3, r3
 206 0074 03F01F03 		and	r3, r3, #31
 207 0078 0122     		movs	r2, #1
 208 007a 02FA03F3 		lsl	r3, r2, r3
 294:Drivers/STM32F3xx_HAL_Driver/Src/stm32f3xx_hal_rcc.c ****       {
 209              		.loc 1 294 9 view .LVU46
 210 007e 0B42     		tst	r3, r1
 211 0080 03D0     		beq	.L5
 294:Drivers/STM32F3xx_HAL_Driver/Src/stm32f3xx_hal_rcc.c ****       {
 212              		.loc 1 294 78 discriminator 13 view .LVU47
 213 0082 6368     		ldr	r3, [r4, #4]
 294:Drivers/STM32F3xx_HAL_Driver/Src/stm32f3xx_hal_rcc.c ****       {
 214              		.loc 1 294 57 discriminator 13 view .LVU48
 215 0084 002B     		cmp	r3, #0
 216 0086 00F0A982 		beq	.L97
 217              	.LVL6:
 218              	.L5:
 303:Drivers/STM32F3xx_HAL_Driver/Src/stm32f3xx_hal_rcc.c ****       
 304:Drivers/STM32F3xx_HAL_Driver/Src/stm32f3xx_hal_rcc.c **** #if defined(RCC_CFGR_PLLSRC_HSI_DIV2)
 305:Drivers/STM32F3xx_HAL_Driver/Src/stm32f3xx_hal_rcc.c ****       /* Configure the HSE predivision factor --------------------------------*/
 306:Drivers/STM32F3xx_HAL_Driver/Src/stm32f3xx_hal_rcc.c ****       __HAL_RCC_HSE_PREDIV_CONFIG(RCC_OscInitStruct->HSEPredivValue);
 307:Drivers/STM32F3xx_HAL_Driver/Src/stm32f3xx_hal_rcc.c **** #endif /* RCC_CFGR_PLLSRC_HSI_DIV2 */
 308:Drivers/STM32F3xx_HAL_Driver/Src/stm32f3xx_hal_rcc.c **** 
 309:Drivers/STM32F3xx_HAL_Driver/Src/stm32f3xx_hal_rcc.c ****        /* Check the HSE State */
 310:Drivers/STM32F3xx_HAL_Driver/Src/stm32f3xx_hal_rcc.c ****       if(RCC_OscInitStruct->HSEState != RCC_HSE_OFF)
 311:Drivers/STM32F3xx_HAL_Driver/Src/stm32f3xx_hal_rcc.c ****       {
 312:Drivers/STM32F3xx_HAL_Driver/Src/stm32f3xx_hal_rcc.c ****         /* Get Start Tick */
 313:Drivers/STM32F3xx_HAL_Driver/Src/stm32f3xx_hal_rcc.c ****         tickstart = HAL_GetTick();
ARM GAS  /var/folders/8c/gyvcglfx7f97kbqb2h83mm_r0000gn/T//cc6V9BzC.s 			page 20


 314:Drivers/STM32F3xx_HAL_Driver/Src/stm32f3xx_hal_rcc.c ****         
 315:Drivers/STM32F3xx_HAL_Driver/Src/stm32f3xx_hal_rcc.c ****         /* Wait till HSE is ready */
 316:Drivers/STM32F3xx_HAL_Driver/Src/stm32f3xx_hal_rcc.c ****         while(__HAL_RCC_GET_FLAG(RCC_FLAG_HSERDY) == RESET)
 317:Drivers/STM32F3xx_HAL_Driver/Src/stm32f3xx_hal_rcc.c ****         {
 318:Drivers/STM32F3xx_HAL_Driver/Src/stm32f3xx_hal_rcc.c ****           if((HAL_GetTick() - tickstart ) > HSE_TIMEOUT_VALUE)
 319:Drivers/STM32F3xx_HAL_Driver/Src/stm32f3xx_hal_rcc.c ****           {
 320:Drivers/STM32F3xx_HAL_Driver/Src/stm32f3xx_hal_rcc.c ****             return HAL_TIMEOUT;
 321:Drivers/STM32F3xx_HAL_Driver/Src/stm32f3xx_hal_rcc.c ****           }
 322:Drivers/STM32F3xx_HAL_Driver/Src/stm32f3xx_hal_rcc.c ****         }
 323:Drivers/STM32F3xx_HAL_Driver/Src/stm32f3xx_hal_rcc.c ****       }
 324:Drivers/STM32F3xx_HAL_Driver/Src/stm32f3xx_hal_rcc.c ****       else
 325:Drivers/STM32F3xx_HAL_Driver/Src/stm32f3xx_hal_rcc.c ****       {
 326:Drivers/STM32F3xx_HAL_Driver/Src/stm32f3xx_hal_rcc.c ****         /* Get Start Tick */
 327:Drivers/STM32F3xx_HAL_Driver/Src/stm32f3xx_hal_rcc.c ****         tickstart = HAL_GetTick();
 328:Drivers/STM32F3xx_HAL_Driver/Src/stm32f3xx_hal_rcc.c ****         
 329:Drivers/STM32F3xx_HAL_Driver/Src/stm32f3xx_hal_rcc.c ****         /* Wait till HSE is disabled */
 330:Drivers/STM32F3xx_HAL_Driver/Src/stm32f3xx_hal_rcc.c ****         while(__HAL_RCC_GET_FLAG(RCC_FLAG_HSERDY) != RESET)
 331:Drivers/STM32F3xx_HAL_Driver/Src/stm32f3xx_hal_rcc.c ****         {
 332:Drivers/STM32F3xx_HAL_Driver/Src/stm32f3xx_hal_rcc.c ****            if((HAL_GetTick() - tickstart ) > HSE_TIMEOUT_VALUE)
 333:Drivers/STM32F3xx_HAL_Driver/Src/stm32f3xx_hal_rcc.c ****           {
 334:Drivers/STM32F3xx_HAL_Driver/Src/stm32f3xx_hal_rcc.c ****             return HAL_TIMEOUT;
 335:Drivers/STM32F3xx_HAL_Driver/Src/stm32f3xx_hal_rcc.c ****           }
 336:Drivers/STM32F3xx_HAL_Driver/Src/stm32f3xx_hal_rcc.c ****         }
 337:Drivers/STM32F3xx_HAL_Driver/Src/stm32f3xx_hal_rcc.c ****       }
 338:Drivers/STM32F3xx_HAL_Driver/Src/stm32f3xx_hal_rcc.c ****     }
 339:Drivers/STM32F3xx_HAL_Driver/Src/stm32f3xx_hal_rcc.c ****   }
 340:Drivers/STM32F3xx_HAL_Driver/Src/stm32f3xx_hal_rcc.c ****   /*----------------------------- HSI Configuration --------------------------*/ 
 341:Drivers/STM32F3xx_HAL_Driver/Src/stm32f3xx_hal_rcc.c ****   if(((RCC_OscInitStruct->OscillatorType) & RCC_OSCILLATORTYPE_HSI) == RCC_OSCILLATORTYPE_HSI)
 219              		.loc 1 341 3 is_stmt 1 view .LVU49
 220              		.loc 1 341 25 is_stmt 0 view .LVU50
 221 008a 2368     		ldr	r3, [r4]
 222              		.loc 1 341 5 view .LVU51
 223 008c 13F0020F 		tst	r3, #2
 224 0090 00F0C080 		beq	.L24
 342:Drivers/STM32F3xx_HAL_Driver/Src/stm32f3xx_hal_rcc.c ****   {
 343:Drivers/STM32F3xx_HAL_Driver/Src/stm32f3xx_hal_rcc.c ****     /* Check the parameters */
 344:Drivers/STM32F3xx_HAL_Driver/Src/stm32f3xx_hal_rcc.c ****     assert_param(IS_RCC_HSI(RCC_OscInitStruct->HSIState));
 225              		.loc 1 344 5 is_stmt 1 view .LVU52
 345:Drivers/STM32F3xx_HAL_Driver/Src/stm32f3xx_hal_rcc.c ****     assert_param(IS_RCC_CALIBRATION_VALUE(RCC_OscInitStruct->HSICalibrationValue));
 226              		.loc 1 345 5 view .LVU53
 346:Drivers/STM32F3xx_HAL_Driver/Src/stm32f3xx_hal_rcc.c ****     
 347:Drivers/STM32F3xx_HAL_Driver/Src/stm32f3xx_hal_rcc.c ****     /* Check if HSI is used as system clock or as PLL source when PLL is selected as system clock *
 348:Drivers/STM32F3xx_HAL_Driver/Src/stm32f3xx_hal_rcc.c ****     if((__HAL_RCC_GET_SYSCLK_SOURCE() == RCC_SYSCLKSOURCE_STATUS_HSI) 
 227              		.loc 1 348 5 view .LVU54
 228              		.loc 1 348 9 is_stmt 0 view .LVU55
 229 0094 A64B     		ldr	r3, .L109
 230 0096 5B68     		ldr	r3, [r3, #4]
 231              		.loc 1 348 7 view .LVU56
 232 0098 13F00C0F 		tst	r3, #12
 233 009c 00F09780 		beq	.L25
 349:Drivers/STM32F3xx_HAL_Driver/Src/stm32f3xx_hal_rcc.c ****        || ((__HAL_RCC_GET_SYSCLK_SOURCE() == RCC_SYSCLKSOURCE_STATUS_PLLCLK) && (__HAL_RCC_GET_PLL_
 234              		.loc 1 349 13 view .LVU57
 235 00a0 A34B     		ldr	r3, .L109
 236 00a2 5B68     		ldr	r3, [r3, #4]
 237 00a4 03F00C03 		and	r3, r3, #12
 238              		.loc 1 349 8 view .LVU58
 239 00a8 082B     		cmp	r3, #8
ARM GAS  /var/folders/8c/gyvcglfx7f97kbqb2h83mm_r0000gn/T//cc6V9BzC.s 			page 21


 240 00aa 00F08880 		beq	.L98
 241              	.L26:
 350:Drivers/STM32F3xx_HAL_Driver/Src/stm32f3xx_hal_rcc.c ****     {
 351:Drivers/STM32F3xx_HAL_Driver/Src/stm32f3xx_hal_rcc.c ****       /* When HSI is used as system clock it will not disabled */
 352:Drivers/STM32F3xx_HAL_Driver/Src/stm32f3xx_hal_rcc.c ****       if((__HAL_RCC_GET_FLAG(RCC_FLAG_HSIRDY) != RESET) && (RCC_OscInitStruct->HSIState != RCC_HSI_
 353:Drivers/STM32F3xx_HAL_Driver/Src/stm32f3xx_hal_rcc.c ****       {
 354:Drivers/STM32F3xx_HAL_Driver/Src/stm32f3xx_hal_rcc.c ****         return HAL_ERROR;
 355:Drivers/STM32F3xx_HAL_Driver/Src/stm32f3xx_hal_rcc.c ****       }
 356:Drivers/STM32F3xx_HAL_Driver/Src/stm32f3xx_hal_rcc.c ****       /* Otherwise, just the calibration is allowed */
 357:Drivers/STM32F3xx_HAL_Driver/Src/stm32f3xx_hal_rcc.c ****       else
 358:Drivers/STM32F3xx_HAL_Driver/Src/stm32f3xx_hal_rcc.c ****       {
 359:Drivers/STM32F3xx_HAL_Driver/Src/stm32f3xx_hal_rcc.c ****         /* Adjusts the Internal High Speed oscillator (HSI) calibration value.*/
 360:Drivers/STM32F3xx_HAL_Driver/Src/stm32f3xx_hal_rcc.c ****         __HAL_RCC_HSI_CALIBRATIONVALUE_ADJUST(RCC_OscInitStruct->HSICalibrationValue);
 361:Drivers/STM32F3xx_HAL_Driver/Src/stm32f3xx_hal_rcc.c ****       }
 362:Drivers/STM32F3xx_HAL_Driver/Src/stm32f3xx_hal_rcc.c ****     }
 363:Drivers/STM32F3xx_HAL_Driver/Src/stm32f3xx_hal_rcc.c ****     else
 364:Drivers/STM32F3xx_HAL_Driver/Src/stm32f3xx_hal_rcc.c ****     {
 365:Drivers/STM32F3xx_HAL_Driver/Src/stm32f3xx_hal_rcc.c ****       /* Check the HSI State */
 366:Drivers/STM32F3xx_HAL_Driver/Src/stm32f3xx_hal_rcc.c ****       if(RCC_OscInitStruct->HSIState != RCC_HSI_OFF)
 242              		.loc 1 366 7 is_stmt 1 view .LVU59
 243              		.loc 1 366 27 is_stmt 0 view .LVU60
 244 00ae E368     		ldr	r3, [r4, #12]
 245              		.loc 1 366 9 view .LVU61
 246 00b0 002B     		cmp	r3, #0
 247 00b2 00F0ED80 		beq	.L30
 367:Drivers/STM32F3xx_HAL_Driver/Src/stm32f3xx_hal_rcc.c ****       {
 368:Drivers/STM32F3xx_HAL_Driver/Src/stm32f3xx_hal_rcc.c ****        /* Enable the Internal High Speed oscillator (HSI). */
 369:Drivers/STM32F3xx_HAL_Driver/Src/stm32f3xx_hal_rcc.c ****         __HAL_RCC_HSI_ENABLE();
 248              		.loc 1 369 9 is_stmt 1 view .LVU62
 249              	.LVL7:
 250              	.LBB170:
 251              	.LBI170:
 526:Drivers/CMSIS/Include/cmsis_gcc.h **** {
 252              		.loc 2 526 57 view .LVU63
 253              	.LBB171:
 528:Drivers/CMSIS/Include/cmsis_gcc.h **** 
 254              		.loc 2 528 3 view .LVU64
 531:Drivers/CMSIS/Include/cmsis_gcc.h **** #else
 255              		.loc 2 531 4 view .LVU65
 256 00b6 0122     		movs	r2, #1
 257              		.syntax unified
 258              	@ 531 "Drivers/CMSIS/Include/cmsis_gcc.h" 1
 259 00b8 92FAA2F3 		rbit r3, r2
 260              	@ 0 "" 2
 261              	.LVL8:
 262              		.loc 2 544 3 view .LVU66
 263              		.loc 2 544 3 is_stmt 0 view .LVU67
 264              		.thumb
 265              		.syntax unified
 266              	.LBE171:
 267              	.LBE170:
 268              		.loc 1 369 9 view .LVU68
 269 00bc B3FA83F3 		clz	r3, r3
 270 00c0 03F18453 		add	r3, r3, #276824064
 271 00c4 03F58413 		add	r3, r3, #1081344
 272 00c8 9B00     		lsls	r3, r3, #2
 273 00ca 1A60     		str	r2, [r3]
ARM GAS  /var/folders/8c/gyvcglfx7f97kbqb2h83mm_r0000gn/T//cc6V9BzC.s 			page 22


 370:Drivers/STM32F3xx_HAL_Driver/Src/stm32f3xx_hal_rcc.c ****         
 371:Drivers/STM32F3xx_HAL_Driver/Src/stm32f3xx_hal_rcc.c ****         /* Get Start Tick */
 372:Drivers/STM32F3xx_HAL_Driver/Src/stm32f3xx_hal_rcc.c ****         tickstart = HAL_GetTick();
 274              		.loc 1 372 9 is_stmt 1 view .LVU69
 275              		.loc 1 372 21 is_stmt 0 view .LVU70
 276 00cc FFF7FEFF 		bl	HAL_GetTick
 277              	.LVL9:
 278 00d0 0546     		mov	r5, r0
 279              	.LVL10:
 373:Drivers/STM32F3xx_HAL_Driver/Src/stm32f3xx_hal_rcc.c ****         
 374:Drivers/STM32F3xx_HAL_Driver/Src/stm32f3xx_hal_rcc.c ****         /* Wait till HSI is ready */
 375:Drivers/STM32F3xx_HAL_Driver/Src/stm32f3xx_hal_rcc.c ****         while(__HAL_RCC_GET_FLAG(RCC_FLAG_HSIRDY) == RESET)
 280              		.loc 1 375 9 is_stmt 1 view .LVU71
 281              	.L31:
 282              	.LBB172:
 283              	.LBI172:
 526:Drivers/CMSIS/Include/cmsis_gcc.h **** {
 284              		.loc 2 526 57 view .LVU72
 285              	.LBB173:
 528:Drivers/CMSIS/Include/cmsis_gcc.h **** 
 286              		.loc 2 528 3 view .LVU73
 531:Drivers/CMSIS/Include/cmsis_gcc.h **** #else
 287              		.loc 2 531 4 view .LVU74
 288 00d2 0223     		movs	r3, #2
 289              		.syntax unified
 290              	@ 531 "Drivers/CMSIS/Include/cmsis_gcc.h" 1
 291 00d4 93FAA3F3 		rbit r3, r3
 292              	@ 0 "" 2
 293              		.loc 2 544 3 view .LVU75
 294              	.LVL11:
 295              		.loc 2 544 3 is_stmt 0 view .LVU76
 296              		.thumb
 297              		.syntax unified
 298              	.LBE173:
 299              	.LBE172:
 300              		.loc 1 375 15 view .LVU77
 301 00d8 954B     		ldr	r3, .L109
 302 00da 1968     		ldr	r1, [r3]
 303              	.LVL12:
 304              	.LBB174:
 305              	.LBI174:
 526:Drivers/CMSIS/Include/cmsis_gcc.h **** {
 306              		.loc 2 526 57 is_stmt 1 view .LVU78
 307              	.LBB175:
 528:Drivers/CMSIS/Include/cmsis_gcc.h **** 
 308              		.loc 2 528 3 view .LVU79
 531:Drivers/CMSIS/Include/cmsis_gcc.h **** #else
 309              		.loc 2 531 4 view .LVU80
 310 00dc 0223     		movs	r3, #2
 311              		.syntax unified
 312              	@ 531 "Drivers/CMSIS/Include/cmsis_gcc.h" 1
 313 00de 93FAA3F3 		rbit r3, r3
 314              	@ 0 "" 2
 315              	.LVL13:
 316              		.loc 2 544 3 view .LVU81
 317              		.loc 2 544 3 is_stmt 0 view .LVU82
 318              		.thumb
ARM GAS  /var/folders/8c/gyvcglfx7f97kbqb2h83mm_r0000gn/T//cc6V9BzC.s 			page 23


 319              		.syntax unified
 320              	.LBE175:
 321              	.LBE174:
 322              		.loc 1 375 15 view .LVU83
 323 00e2 B3FA83F3 		clz	r3, r3
 324 00e6 03F01F03 		and	r3, r3, #31
 325 00ea 0122     		movs	r2, #1
 326 00ec 02FA03F3 		lsl	r3, r2, r3
 327              		.loc 1 375 14 view .LVU84
 328 00f0 0B42     		tst	r3, r1
 329 00f2 40F0BE80 		bne	.L99
 376:Drivers/STM32F3xx_HAL_Driver/Src/stm32f3xx_hal_rcc.c ****         {
 377:Drivers/STM32F3xx_HAL_Driver/Src/stm32f3xx_hal_rcc.c ****           if((HAL_GetTick() - tickstart ) > HSI_TIMEOUT_VALUE)
 330              		.loc 1 377 11 is_stmt 1 view .LVU85
 331              		.loc 1 377 15 is_stmt 0 view .LVU86
 332 00f6 FFF7FEFF 		bl	HAL_GetTick
 333              	.LVL14:
 334              		.loc 1 377 29 view .LVU87
 335 00fa 401B     		subs	r0, r0, r5
 336              		.loc 1 377 13 view .LVU88
 337 00fc 0228     		cmp	r0, #2
 338 00fe E8D9     		bls	.L31
 378:Drivers/STM32F3xx_HAL_Driver/Src/stm32f3xx_hal_rcc.c ****           {
 379:Drivers/STM32F3xx_HAL_Driver/Src/stm32f3xx_hal_rcc.c ****             return HAL_TIMEOUT;
 339              		.loc 1 379 20 view .LVU89
 340 0100 0320     		movs	r0, #3
 341 0102 74E2     		b	.L10
 342              	.LVL15:
 343              	.L96:
 302:Drivers/STM32F3xx_HAL_Driver/Src/stm32f3xx_hal_rcc.c ****       
 344              		.loc 1 302 7 is_stmt 1 discriminator 1 view .LVU90
 345 0104 8A4A     		ldr	r2, .L109
 346 0106 1368     		ldr	r3, [r2]
 347 0108 43F48033 		orr	r3, r3, #65536
 348 010c 1360     		str	r3, [r2]
 349              	.L12:
 310:Drivers/STM32F3xx_HAL_Driver/Src/stm32f3xx_hal_rcc.c ****       {
 350              		.loc 1 310 7 view .LVU91
 310:Drivers/STM32F3xx_HAL_Driver/Src/stm32f3xx_hal_rcc.c ****       {
 351              		.loc 1 310 27 is_stmt 0 view .LVU92
 352 010e 6368     		ldr	r3, [r4, #4]
 310:Drivers/STM32F3xx_HAL_Driver/Src/stm32f3xx_hal_rcc.c ****       {
 353              		.loc 1 310 9 view .LVU93
 354 0110 002B     		cmp	r3, #0
 355 0112 36D0     		beq	.L15
 313:Drivers/STM32F3xx_HAL_Driver/Src/stm32f3xx_hal_rcc.c ****         
 356              		.loc 1 313 9 is_stmt 1 view .LVU94
 313:Drivers/STM32F3xx_HAL_Driver/Src/stm32f3xx_hal_rcc.c ****         
 357              		.loc 1 313 21 is_stmt 0 view .LVU95
 358 0114 FFF7FEFF 		bl	HAL_GetTick
 359              	.LVL16:
 313:Drivers/STM32F3xx_HAL_Driver/Src/stm32f3xx_hal_rcc.c ****         
 360              		.loc 1 313 21 view .LVU96
 361 0118 0546     		mov	r5, r0
 362              	.LVL17:
 316:Drivers/STM32F3xx_HAL_Driver/Src/stm32f3xx_hal_rcc.c ****         {
 363              		.loc 1 316 9 is_stmt 1 view .LVU97
ARM GAS  /var/folders/8c/gyvcglfx7f97kbqb2h83mm_r0000gn/T//cc6V9BzC.s 			page 24


 364              	.L16:
 365              	.LBB176:
 366              	.LBI176:
 526:Drivers/CMSIS/Include/cmsis_gcc.h **** {
 367              		.loc 2 526 57 view .LVU98
 368              	.LBB177:
 528:Drivers/CMSIS/Include/cmsis_gcc.h **** 
 369              		.loc 2 528 3 view .LVU99
 531:Drivers/CMSIS/Include/cmsis_gcc.h **** #else
 370              		.loc 2 531 4 view .LVU100
 371 011a 4FF40033 		mov	r3, #131072
 372              		.syntax unified
 373              	@ 531 "Drivers/CMSIS/Include/cmsis_gcc.h" 1
 374 011e 93FAA3F3 		rbit r3, r3
 375              	@ 0 "" 2
 376              		.loc 2 544 3 view .LVU101
 377              	.LVL18:
 378              		.loc 2 544 3 is_stmt 0 view .LVU102
 379              		.thumb
 380              		.syntax unified
 381              	.LBE177:
 382              	.LBE176:
 316:Drivers/STM32F3xx_HAL_Driver/Src/stm32f3xx_hal_rcc.c ****         {
 383              		.loc 1 316 15 view .LVU103
 384 0122 834B     		ldr	r3, .L109
 385 0124 1968     		ldr	r1, [r3]
 386              	.LVL19:
 387              	.LBB178:
 388              	.LBI178:
 526:Drivers/CMSIS/Include/cmsis_gcc.h **** {
 389              		.loc 2 526 57 is_stmt 1 view .LVU104
 390              	.LBB179:
 528:Drivers/CMSIS/Include/cmsis_gcc.h **** 
 391              		.loc 2 528 3 view .LVU105
 531:Drivers/CMSIS/Include/cmsis_gcc.h **** #else
 392              		.loc 2 531 4 view .LVU106
 393 0126 4FF40033 		mov	r3, #131072
 394              		.syntax unified
 395              	@ 531 "Drivers/CMSIS/Include/cmsis_gcc.h" 1
 396 012a 93FAA3F3 		rbit r3, r3
 397              	@ 0 "" 2
 398              	.LVL20:
 399              		.loc 2 544 3 view .LVU107
 400              		.loc 2 544 3 is_stmt 0 view .LVU108
 401              		.thumb
 402              		.syntax unified
 403              	.LBE179:
 404              	.LBE178:
 316:Drivers/STM32F3xx_HAL_Driver/Src/stm32f3xx_hal_rcc.c ****         {
 405              		.loc 1 316 15 view .LVU109
 406 012e B3FA83F3 		clz	r3, r3
 407 0132 03F01F03 		and	r3, r3, #31
 408 0136 0122     		movs	r2, #1
 409 0138 02FA03F3 		lsl	r3, r2, r3
 316:Drivers/STM32F3xx_HAL_Driver/Src/stm32f3xx_hal_rcc.c ****         {
 410              		.loc 1 316 14 view .LVU110
 411 013c 1942     		tst	r1, r3
ARM GAS  /var/folders/8c/gyvcglfx7f97kbqb2h83mm_r0000gn/T//cc6V9BzC.s 			page 25


 412 013e A4D1     		bne	.L5
 318:Drivers/STM32F3xx_HAL_Driver/Src/stm32f3xx_hal_rcc.c ****           {
 413              		.loc 1 318 11 is_stmt 1 view .LVU111
 318:Drivers/STM32F3xx_HAL_Driver/Src/stm32f3xx_hal_rcc.c ****           {
 414              		.loc 1 318 15 is_stmt 0 view .LVU112
 415 0140 FFF7FEFF 		bl	HAL_GetTick
 416              	.LVL21:
 318:Drivers/STM32F3xx_HAL_Driver/Src/stm32f3xx_hal_rcc.c ****           {
 417              		.loc 1 318 29 view .LVU113
 418 0144 401B     		subs	r0, r0, r5
 318:Drivers/STM32F3xx_HAL_Driver/Src/stm32f3xx_hal_rcc.c ****           {
 419              		.loc 1 318 13 view .LVU114
 420 0146 6428     		cmp	r0, #100
 421 0148 E7D9     		bls	.L16
 320:Drivers/STM32F3xx_HAL_Driver/Src/stm32f3xx_hal_rcc.c ****           }
 422              		.loc 1 320 20 view .LVU115
 423 014a 0320     		movs	r0, #3
 424 014c 4FE2     		b	.L10
 425              	.LVL22:
 426              	.L13:
 302:Drivers/STM32F3xx_HAL_Driver/Src/stm32f3xx_hal_rcc.c ****       
 427              		.loc 1 302 7 is_stmt 1 discriminator 4 view .LVU116
 428 014e B3F5A02F 		cmp	r3, #327680
 429 0152 09D0     		beq	.L100
 302:Drivers/STM32F3xx_HAL_Driver/Src/stm32f3xx_hal_rcc.c ****       
 430              		.loc 1 302 7 discriminator 6 view .LVU117
 431 0154 764B     		ldr	r3, .L109
 432 0156 1A68     		ldr	r2, [r3]
 433 0158 22F48032 		bic	r2, r2, #65536
 434 015c 1A60     		str	r2, [r3]
 302:Drivers/STM32F3xx_HAL_Driver/Src/stm32f3xx_hal_rcc.c ****       
 435              		.loc 1 302 7 discriminator 6 view .LVU118
 436 015e 1A68     		ldr	r2, [r3]
 437 0160 22F48022 		bic	r2, r2, #262144
 438 0164 1A60     		str	r2, [r3]
 439 0166 D2E7     		b	.L12
 440              	.L100:
 302:Drivers/STM32F3xx_HAL_Driver/Src/stm32f3xx_hal_rcc.c ****       
 441              		.loc 1 302 7 discriminator 5 view .LVU119
 442 0168 03F18043 		add	r3, r3, #1073741824
 443 016c A3F53C33 		sub	r3, r3, #192512
 444 0170 1A68     		ldr	r2, [r3]
 445 0172 42F48022 		orr	r2, r2, #262144
 446 0176 1A60     		str	r2, [r3]
 302:Drivers/STM32F3xx_HAL_Driver/Src/stm32f3xx_hal_rcc.c ****       
 447              		.loc 1 302 7 discriminator 5 view .LVU120
 448 0178 1A68     		ldr	r2, [r3]
 449 017a 42F48032 		orr	r2, r2, #65536
 450 017e 1A60     		str	r2, [r3]
 451 0180 C5E7     		b	.L12
 452              	.L15:
 327:Drivers/STM32F3xx_HAL_Driver/Src/stm32f3xx_hal_rcc.c ****         
 453              		.loc 1 327 9 view .LVU121
 327:Drivers/STM32F3xx_HAL_Driver/Src/stm32f3xx_hal_rcc.c ****         
 454              		.loc 1 327 21 is_stmt 0 view .LVU122
 455 0182 FFF7FEFF 		bl	HAL_GetTick
 456              	.LVL23:
ARM GAS  /var/folders/8c/gyvcglfx7f97kbqb2h83mm_r0000gn/T//cc6V9BzC.s 			page 26


 327:Drivers/STM32F3xx_HAL_Driver/Src/stm32f3xx_hal_rcc.c ****         
 457              		.loc 1 327 21 view .LVU123
 458 0186 0546     		mov	r5, r0
 459              	.LVL24:
 330:Drivers/STM32F3xx_HAL_Driver/Src/stm32f3xx_hal_rcc.c ****         {
 460              		.loc 1 330 9 is_stmt 1 view .LVU124
 461              	.L20:
 462              	.LBB180:
 463              	.LBI180:
 526:Drivers/CMSIS/Include/cmsis_gcc.h **** {
 464              		.loc 2 526 57 view .LVU125
 465              	.LBB181:
 528:Drivers/CMSIS/Include/cmsis_gcc.h **** 
 466              		.loc 2 528 3 view .LVU126
 531:Drivers/CMSIS/Include/cmsis_gcc.h **** #else
 467              		.loc 2 531 4 view .LVU127
 468 0188 4FF40033 		mov	r3, #131072
 469              		.syntax unified
 470              	@ 531 "Drivers/CMSIS/Include/cmsis_gcc.h" 1
 471 018c 93FAA3F3 		rbit r3, r3
 472              	@ 0 "" 2
 473              		.loc 2 544 3 view .LVU128
 474              	.LVL25:
 475              		.loc 2 544 3 is_stmt 0 view .LVU129
 476              		.thumb
 477              		.syntax unified
 478              	.LBE181:
 479              	.LBE180:
 330:Drivers/STM32F3xx_HAL_Driver/Src/stm32f3xx_hal_rcc.c ****         {
 480              		.loc 1 330 15 view .LVU130
 481 0190 674B     		ldr	r3, .L109
 482 0192 1968     		ldr	r1, [r3]
 483              	.LVL26:
 484              	.LBB182:
 485              	.LBI182:
 526:Drivers/CMSIS/Include/cmsis_gcc.h **** {
 486              		.loc 2 526 57 is_stmt 1 view .LVU131
 487              	.LBB183:
 528:Drivers/CMSIS/Include/cmsis_gcc.h **** 
 488              		.loc 2 528 3 view .LVU132
 531:Drivers/CMSIS/Include/cmsis_gcc.h **** #else
 489              		.loc 2 531 4 view .LVU133
 490 0194 4FF40033 		mov	r3, #131072
 491              		.syntax unified
 492              	@ 531 "Drivers/CMSIS/Include/cmsis_gcc.h" 1
 493 0198 93FAA3F3 		rbit r3, r3
 494              	@ 0 "" 2
 495              	.LVL27:
 496              		.loc 2 544 3 view .LVU134
 497              		.loc 2 544 3 is_stmt 0 view .LVU135
 498              		.thumb
 499              		.syntax unified
 500              	.LBE183:
 501              	.LBE182:
 330:Drivers/STM32F3xx_HAL_Driver/Src/stm32f3xx_hal_rcc.c ****         {
 502              		.loc 1 330 15 view .LVU136
 503 019c B3FA83F3 		clz	r3, r3
ARM GAS  /var/folders/8c/gyvcglfx7f97kbqb2h83mm_r0000gn/T//cc6V9BzC.s 			page 27


 504 01a0 03F01F03 		and	r3, r3, #31
 505 01a4 0122     		movs	r2, #1
 506 01a6 02FA03F3 		lsl	r3, r2, r3
 330:Drivers/STM32F3xx_HAL_Driver/Src/stm32f3xx_hal_rcc.c ****         {
 507              		.loc 1 330 14 view .LVU137
 508 01aa 1942     		tst	r1, r3
 509 01ac 3FF46DAF 		beq	.L5
 332:Drivers/STM32F3xx_HAL_Driver/Src/stm32f3xx_hal_rcc.c ****           {
 510              		.loc 1 332 12 is_stmt 1 view .LVU138
 332:Drivers/STM32F3xx_HAL_Driver/Src/stm32f3xx_hal_rcc.c ****           {
 511              		.loc 1 332 16 is_stmt 0 view .LVU139
 512 01b0 FFF7FEFF 		bl	HAL_GetTick
 513              	.LVL28:
 332:Drivers/STM32F3xx_HAL_Driver/Src/stm32f3xx_hal_rcc.c ****           {
 514              		.loc 1 332 30 view .LVU140
 515 01b4 401B     		subs	r0, r0, r5
 332:Drivers/STM32F3xx_HAL_Driver/Src/stm32f3xx_hal_rcc.c ****           {
 516              		.loc 1 332 14 view .LVU141
 517 01b6 6428     		cmp	r0, #100
 518 01b8 E6D9     		bls	.L20
 334:Drivers/STM32F3xx_HAL_Driver/Src/stm32f3xx_hal_rcc.c ****           }
 519              		.loc 1 334 20 view .LVU142
 520 01ba 0320     		movs	r0, #3
 521 01bc 17E2     		b	.L10
 522              	.LVL29:
 523              	.L98:
 349:Drivers/STM32F3xx_HAL_Driver/Src/stm32f3xx_hal_rcc.c ****     {
 524              		.loc 1 349 82 discriminator 1 view .LVU143
 525 01be 5C4B     		ldr	r3, .L109
 526 01c0 5B68     		ldr	r3, [r3, #4]
 527 01c2 03F4C033 		and	r3, r3, #98304
 349:Drivers/STM32F3xx_HAL_Driver/Src/stm32f3xx_hal_rcc.c ****     {
 528              		.loc 1 349 78 discriminator 1 view .LVU144
 529 01c6 B3F5004F 		cmp	r3, #32768
 530 01ca 7FF470AF 		bne	.L26
 531              	.L25:
 352:Drivers/STM32F3xx_HAL_Driver/Src/stm32f3xx_hal_rcc.c ****       {
 532              		.loc 1 352 7 is_stmt 1 view .LVU145
 533              	.LVL30:
 534              	.LBB184:
 535              	.LBI184:
 526:Drivers/CMSIS/Include/cmsis_gcc.h **** {
 536              		.loc 2 526 57 view .LVU146
 537              	.LBB185:
 528:Drivers/CMSIS/Include/cmsis_gcc.h **** 
 538              		.loc 2 528 3 view .LVU147
 531:Drivers/CMSIS/Include/cmsis_gcc.h **** #else
 539              		.loc 2 531 4 view .LVU148
 540 01ce 0223     		movs	r3, #2
 541              		.syntax unified
 542              	@ 531 "Drivers/CMSIS/Include/cmsis_gcc.h" 1
 543 01d0 93FAA3F3 		rbit r3, r3
 544              	@ 0 "" 2
 545              		.loc 2 544 3 view .LVU149
 546              	.LVL31:
 547              		.loc 2 544 3 is_stmt 0 view .LVU150
 548              		.thumb
ARM GAS  /var/folders/8c/gyvcglfx7f97kbqb2h83mm_r0000gn/T//cc6V9BzC.s 			page 28


 549              		.syntax unified
 550              	.LBE185:
 551              	.LBE184:
 352:Drivers/STM32F3xx_HAL_Driver/Src/stm32f3xx_hal_rcc.c ****       {
 552              		.loc 1 352 11 view .LVU151
 553 01d4 564B     		ldr	r3, .L109
 554 01d6 1968     		ldr	r1, [r3]
 555              	.LVL32:
 556              	.LBB186:
 557              	.LBI186:
 526:Drivers/CMSIS/Include/cmsis_gcc.h **** {
 558              		.loc 2 526 57 is_stmt 1 view .LVU152
 559              	.LBB187:
 528:Drivers/CMSIS/Include/cmsis_gcc.h **** 
 560              		.loc 2 528 3 view .LVU153
 531:Drivers/CMSIS/Include/cmsis_gcc.h **** #else
 561              		.loc 2 531 4 view .LVU154
 562 01d8 0223     		movs	r3, #2
 563              		.syntax unified
 564              	@ 531 "Drivers/CMSIS/Include/cmsis_gcc.h" 1
 565 01da 93FAA3F3 		rbit r3, r3
 566              	@ 0 "" 2
 567              	.LVL33:
 568              		.loc 2 544 3 view .LVU155
 569              		.loc 2 544 3 is_stmt 0 view .LVU156
 570              		.thumb
 571              		.syntax unified
 572              	.LBE187:
 573              	.LBE186:
 352:Drivers/STM32F3xx_HAL_Driver/Src/stm32f3xx_hal_rcc.c ****       {
 574              		.loc 1 352 11 view .LVU157
 575 01de B3FA83F3 		clz	r3, r3
 576 01e2 03F01F03 		and	r3, r3, #31
 577 01e6 0122     		movs	r2, #1
 578 01e8 02FA03F3 		lsl	r3, r2, r3
 352:Drivers/STM32F3xx_HAL_Driver/Src/stm32f3xx_hal_rcc.c ****       {
 579              		.loc 1 352 9 view .LVU158
 580 01ec 1942     		tst	r1, r3
 581 01ee 03D0     		beq	.L29
 352:Drivers/STM32F3xx_HAL_Driver/Src/stm32f3xx_hal_rcc.c ****       {
 582              		.loc 1 352 78 discriminator 13 view .LVU159
 583 01f0 E368     		ldr	r3, [r4, #12]
 352:Drivers/STM32F3xx_HAL_Driver/Src/stm32f3xx_hal_rcc.c ****       {
 584              		.loc 1 352 57 discriminator 13 view .LVU160
 585 01f2 9342     		cmp	r3, r2
 586 01f4 40F0F481 		bne	.L80
 587              	.L29:
 360:Drivers/STM32F3xx_HAL_Driver/Src/stm32f3xx_hal_rcc.c ****       }
 588              		.loc 1 360 9 is_stmt 1 view .LVU161
 589 01f8 4D48     		ldr	r0, .L109
 590 01fa 0368     		ldr	r3, [r0]
 591 01fc 23F0F803 		bic	r3, r3, #248
 592 0200 2169     		ldr	r1, [r4, #16]
 593              	.LVL34:
 594              	.LBB188:
 595              	.LBI188:
 526:Drivers/CMSIS/Include/cmsis_gcc.h **** {
ARM GAS  /var/folders/8c/gyvcglfx7f97kbqb2h83mm_r0000gn/T//cc6V9BzC.s 			page 29


 596              		.loc 2 526 57 view .LVU162
 597              	.LBB189:
 528:Drivers/CMSIS/Include/cmsis_gcc.h **** 
 598              		.loc 2 528 3 view .LVU163
 531:Drivers/CMSIS/Include/cmsis_gcc.h **** #else
 599              		.loc 2 531 4 view .LVU164
 600 0202 F822     		movs	r2, #248
 601              		.syntax unified
 602              	@ 531 "Drivers/CMSIS/Include/cmsis_gcc.h" 1
 603 0204 92FAA2F2 		rbit r2, r2
 604              	@ 0 "" 2
 605              	.LVL35:
 606              		.loc 2 544 3 view .LVU165
 607              		.loc 2 544 3 is_stmt 0 view .LVU166
 608              		.thumb
 609              		.syntax unified
 610              	.LBE189:
 611              	.LBE188:
 360:Drivers/STM32F3xx_HAL_Driver/Src/stm32f3xx_hal_rcc.c ****       }
 612              		.loc 1 360 9 view .LVU167
 613 0208 B2FA82F2 		clz	r2, r2
 614 020c 01FA02F2 		lsl	r2, r1, r2
 615 0210 1343     		orrs	r3, r3, r2
 616 0212 0360     		str	r3, [r0]
 617              	.L24:
 380:Drivers/STM32F3xx_HAL_Driver/Src/stm32f3xx_hal_rcc.c ****           }
 381:Drivers/STM32F3xx_HAL_Driver/Src/stm32f3xx_hal_rcc.c ****         }
 382:Drivers/STM32F3xx_HAL_Driver/Src/stm32f3xx_hal_rcc.c ****                 
 383:Drivers/STM32F3xx_HAL_Driver/Src/stm32f3xx_hal_rcc.c ****         /* Adjusts the Internal High Speed oscillator (HSI) calibration value.*/
 384:Drivers/STM32F3xx_HAL_Driver/Src/stm32f3xx_hal_rcc.c ****         __HAL_RCC_HSI_CALIBRATIONVALUE_ADJUST(RCC_OscInitStruct->HSICalibrationValue);
 385:Drivers/STM32F3xx_HAL_Driver/Src/stm32f3xx_hal_rcc.c ****       }
 386:Drivers/STM32F3xx_HAL_Driver/Src/stm32f3xx_hal_rcc.c ****       else
 387:Drivers/STM32F3xx_HAL_Driver/Src/stm32f3xx_hal_rcc.c ****       {
 388:Drivers/STM32F3xx_HAL_Driver/Src/stm32f3xx_hal_rcc.c ****         /* Disable the Internal High Speed oscillator (HSI). */
 389:Drivers/STM32F3xx_HAL_Driver/Src/stm32f3xx_hal_rcc.c ****         __HAL_RCC_HSI_DISABLE();
 390:Drivers/STM32F3xx_HAL_Driver/Src/stm32f3xx_hal_rcc.c ****         
 391:Drivers/STM32F3xx_HAL_Driver/Src/stm32f3xx_hal_rcc.c ****         /* Get Start Tick */
 392:Drivers/STM32F3xx_HAL_Driver/Src/stm32f3xx_hal_rcc.c ****         tickstart = HAL_GetTick();
 393:Drivers/STM32F3xx_HAL_Driver/Src/stm32f3xx_hal_rcc.c ****         
 394:Drivers/STM32F3xx_HAL_Driver/Src/stm32f3xx_hal_rcc.c ****         /* Wait till HSI is disabled */
 395:Drivers/STM32F3xx_HAL_Driver/Src/stm32f3xx_hal_rcc.c ****         while(__HAL_RCC_GET_FLAG(RCC_FLAG_HSIRDY) != RESET)
 396:Drivers/STM32F3xx_HAL_Driver/Src/stm32f3xx_hal_rcc.c ****         {
 397:Drivers/STM32F3xx_HAL_Driver/Src/stm32f3xx_hal_rcc.c ****           if((HAL_GetTick() - tickstart ) > HSI_TIMEOUT_VALUE)
 398:Drivers/STM32F3xx_HAL_Driver/Src/stm32f3xx_hal_rcc.c ****           {
 399:Drivers/STM32F3xx_HAL_Driver/Src/stm32f3xx_hal_rcc.c ****             return HAL_TIMEOUT;
 400:Drivers/STM32F3xx_HAL_Driver/Src/stm32f3xx_hal_rcc.c ****           }
 401:Drivers/STM32F3xx_HAL_Driver/Src/stm32f3xx_hal_rcc.c ****         }
 402:Drivers/STM32F3xx_HAL_Driver/Src/stm32f3xx_hal_rcc.c ****       }
 403:Drivers/STM32F3xx_HAL_Driver/Src/stm32f3xx_hal_rcc.c ****     }
 404:Drivers/STM32F3xx_HAL_Driver/Src/stm32f3xx_hal_rcc.c ****   }
 405:Drivers/STM32F3xx_HAL_Driver/Src/stm32f3xx_hal_rcc.c ****   /*------------------------------ LSI Configuration -------------------------*/ 
 406:Drivers/STM32F3xx_HAL_Driver/Src/stm32f3xx_hal_rcc.c ****   if(((RCC_OscInitStruct->OscillatorType) & RCC_OSCILLATORTYPE_LSI) == RCC_OSCILLATORTYPE_LSI)
 618              		.loc 1 406 3 is_stmt 1 view .LVU168
 619              		.loc 1 406 25 is_stmt 0 view .LVU169
 620 0214 2368     		ldr	r3, [r4]
 621              		.loc 1 406 5 view .LVU170
 622 0216 13F0080F 		tst	r3, #8
ARM GAS  /var/folders/8c/gyvcglfx7f97kbqb2h83mm_r0000gn/T//cc6V9BzC.s 			page 30


 623 021a 00F08D80 		beq	.L39
 407:Drivers/STM32F3xx_HAL_Driver/Src/stm32f3xx_hal_rcc.c ****   {
 408:Drivers/STM32F3xx_HAL_Driver/Src/stm32f3xx_hal_rcc.c ****     /* Check the parameters */
 409:Drivers/STM32F3xx_HAL_Driver/Src/stm32f3xx_hal_rcc.c ****     assert_param(IS_RCC_LSI(RCC_OscInitStruct->LSIState));
 624              		.loc 1 409 5 is_stmt 1 view .LVU171
 410:Drivers/STM32F3xx_HAL_Driver/Src/stm32f3xx_hal_rcc.c ****     
 411:Drivers/STM32F3xx_HAL_Driver/Src/stm32f3xx_hal_rcc.c ****     /* Check the LSI State */
 412:Drivers/STM32F3xx_HAL_Driver/Src/stm32f3xx_hal_rcc.c ****     if(RCC_OscInitStruct->LSIState != RCC_LSI_OFF)
 625              		.loc 1 412 5 view .LVU172
 626              		.loc 1 412 25 is_stmt 0 view .LVU173
 627 021e 6369     		ldr	r3, [r4, #20]
 628              		.loc 1 412 7 view .LVU174
 629 0220 002B     		cmp	r3, #0
 630 0222 5CD0     		beq	.L40
 413:Drivers/STM32F3xx_HAL_Driver/Src/stm32f3xx_hal_rcc.c ****     {
 414:Drivers/STM32F3xx_HAL_Driver/Src/stm32f3xx_hal_rcc.c ****       /* Enable the Internal Low Speed oscillator (LSI). */
 415:Drivers/STM32F3xx_HAL_Driver/Src/stm32f3xx_hal_rcc.c ****       __HAL_RCC_LSI_ENABLE();
 631              		.loc 1 415 7 is_stmt 1 view .LVU175
 632              	.LVL36:
 633              	.LBB190:
 634              	.LBI190:
 526:Drivers/CMSIS/Include/cmsis_gcc.h **** {
 635              		.loc 2 526 57 view .LVU176
 636              	.LBB191:
 528:Drivers/CMSIS/Include/cmsis_gcc.h **** 
 637              		.loc 2 528 3 view .LVU177
 531:Drivers/CMSIS/Include/cmsis_gcc.h **** #else
 638              		.loc 2 531 4 view .LVU178
 639 0224 0121     		movs	r1, #1
 640              		.syntax unified
 641              	@ 531 "Drivers/CMSIS/Include/cmsis_gcc.h" 1
 642 0226 91FAA1F2 		rbit r2, r1
 643              	@ 0 "" 2
 644              	.LVL37:
 645              		.loc 2 544 3 view .LVU179
 646              		.loc 2 544 3 is_stmt 0 view .LVU180
 647              		.thumb
 648              		.syntax unified
 649              	.LBE191:
 650              	.LBE190:
 651              		.loc 1 415 7 view .LVU181
 652 022a B2FA82F2 		clz	r2, r2
 653 022e 414B     		ldr	r3, .L109+4
 654 0230 1344     		add	r3, r3, r2
 655 0232 9B00     		lsls	r3, r3, #2
 656 0234 1960     		str	r1, [r3]
 416:Drivers/STM32F3xx_HAL_Driver/Src/stm32f3xx_hal_rcc.c ****       
 417:Drivers/STM32F3xx_HAL_Driver/Src/stm32f3xx_hal_rcc.c ****       /* Get Start Tick */
 418:Drivers/STM32F3xx_HAL_Driver/Src/stm32f3xx_hal_rcc.c ****       tickstart = HAL_GetTick();
 657              		.loc 1 418 7 is_stmt 1 view .LVU182
 658              		.loc 1 418 19 is_stmt 0 view .LVU183
 659 0236 FFF7FEFF 		bl	HAL_GetTick
 660              	.LVL38:
 661 023a 0546     		mov	r5, r0
 662              	.LVL39:
 419:Drivers/STM32F3xx_HAL_Driver/Src/stm32f3xx_hal_rcc.c ****       
 420:Drivers/STM32F3xx_HAL_Driver/Src/stm32f3xx_hal_rcc.c ****       /* Wait till LSI is ready */  
ARM GAS  /var/folders/8c/gyvcglfx7f97kbqb2h83mm_r0000gn/T//cc6V9BzC.s 			page 31


 421:Drivers/STM32F3xx_HAL_Driver/Src/stm32f3xx_hal_rcc.c ****       while(__HAL_RCC_GET_FLAG(RCC_FLAG_LSIRDY) == RESET)
 663              		.loc 1 421 7 is_stmt 1 view .LVU184
 664              	.L41:
 665              	.LBB192:
 666              	.LBI192:
 526:Drivers/CMSIS/Include/cmsis_gcc.h **** {
 667              		.loc 2 526 57 view .LVU185
 668              	.LBB193:
 528:Drivers/CMSIS/Include/cmsis_gcc.h **** 
 669              		.loc 2 528 3 view .LVU186
 531:Drivers/CMSIS/Include/cmsis_gcc.h **** #else
 670              		.loc 2 531 4 view .LVU187
 671 023c 0223     		movs	r3, #2
 672              		.syntax unified
 673              	@ 531 "Drivers/CMSIS/Include/cmsis_gcc.h" 1
 674 023e 93FAA3F2 		rbit r2, r3
 675              	@ 0 "" 2
 676              	.LVL40:
 677              		.loc 2 544 3 view .LVU188
 678              		.loc 2 544 3 is_stmt 0 view .LVU189
 679              		.thumb
 680              		.syntax unified
 681              	.LBE193:
 682              	.LBE192:
 683              	.LBB194:
 684              	.LBI194:
 526:Drivers/CMSIS/Include/cmsis_gcc.h **** {
 685              		.loc 2 526 57 is_stmt 1 view .LVU190
 686              	.LBB195:
 528:Drivers/CMSIS/Include/cmsis_gcc.h **** 
 687              		.loc 2 528 3 view .LVU191
 531:Drivers/CMSIS/Include/cmsis_gcc.h **** #else
 688              		.loc 2 531 4 view .LVU192
 689              		.syntax unified
 690              	@ 531 "Drivers/CMSIS/Include/cmsis_gcc.h" 1
 691 0242 93FAA3F2 		rbit r2, r3
 692              	@ 0 "" 2
 693              	.LVL41:
 694              		.loc 2 544 3 view .LVU193
 695              		.loc 2 544 3 is_stmt 0 view .LVU194
 696              		.thumb
 697              		.syntax unified
 698              	.LBE195:
 699              	.LBE194:
 700              	.LBB196:
 701              	.LBI196:
 526:Drivers/CMSIS/Include/cmsis_gcc.h **** {
 702              		.loc 2 526 57 is_stmt 1 view .LVU195
 703              	.LBB197:
 528:Drivers/CMSIS/Include/cmsis_gcc.h **** 
 704              		.loc 2 528 3 view .LVU196
 531:Drivers/CMSIS/Include/cmsis_gcc.h **** #else
 705              		.loc 2 531 4 view .LVU197
 706              		.syntax unified
 707              	@ 531 "Drivers/CMSIS/Include/cmsis_gcc.h" 1
 708 0246 93FAA3F2 		rbit r2, r3
 709              	@ 0 "" 2
ARM GAS  /var/folders/8c/gyvcglfx7f97kbqb2h83mm_r0000gn/T//cc6V9BzC.s 			page 32


 710              	.LVL42:
 711              		.loc 2 544 3 view .LVU198
 712              		.loc 2 544 3 is_stmt 0 view .LVU199
 713              		.thumb
 714              		.syntax unified
 715              	.LBE197:
 716              	.LBE196:
 717              		.loc 1 421 13 view .LVU200
 718 024a 394A     		ldr	r2, .L109
 719 024c 516A     		ldr	r1, [r2, #36]
 720              	.LVL43:
 721              	.LBB198:
 722              	.LBI198:
 526:Drivers/CMSIS/Include/cmsis_gcc.h **** {
 723              		.loc 2 526 57 is_stmt 1 view .LVU201
 724              	.LBB199:
 528:Drivers/CMSIS/Include/cmsis_gcc.h **** 
 725              		.loc 2 528 3 view .LVU202
 531:Drivers/CMSIS/Include/cmsis_gcc.h **** #else
 726              		.loc 2 531 4 view .LVU203
 727              		.syntax unified
 728              	@ 531 "Drivers/CMSIS/Include/cmsis_gcc.h" 1
 729 024e 93FAA3F3 		rbit r3, r3
 730              	@ 0 "" 2
 731              	.LVL44:
 732              		.loc 2 544 3 view .LVU204
 733              		.loc 2 544 3 is_stmt 0 view .LVU205
 734              		.thumb
 735              		.syntax unified
 736              	.LBE199:
 737              	.LBE198:
 738              		.loc 1 421 13 view .LVU206
 739 0252 B3FA83F3 		clz	r3, r3
 740 0256 03F01F03 		and	r3, r3, #31
 741 025a 0122     		movs	r2, #1
 742 025c 02FA03F3 		lsl	r3, r2, r3
 743              		.loc 1 421 12 view .LVU207
 744 0260 0B42     		tst	r3, r1
 745 0262 69D1     		bne	.L39
 422:Drivers/STM32F3xx_HAL_Driver/Src/stm32f3xx_hal_rcc.c ****       {
 423:Drivers/STM32F3xx_HAL_Driver/Src/stm32f3xx_hal_rcc.c ****         if((HAL_GetTick() - tickstart ) > LSI_TIMEOUT_VALUE)
 746              		.loc 1 423 9 is_stmt 1 view .LVU208
 747              		.loc 1 423 13 is_stmt 0 view .LVU209
 748 0264 FFF7FEFF 		bl	HAL_GetTick
 749              	.LVL45:
 750              		.loc 1 423 27 view .LVU210
 751 0268 401B     		subs	r0, r0, r5
 752              		.loc 1 423 11 view .LVU211
 753 026a 0228     		cmp	r0, #2
 754 026c E6D9     		bls	.L41
 424:Drivers/STM32F3xx_HAL_Driver/Src/stm32f3xx_hal_rcc.c ****         {
 425:Drivers/STM32F3xx_HAL_Driver/Src/stm32f3xx_hal_rcc.c ****           return HAL_TIMEOUT;
 755              		.loc 1 425 18 view .LVU212
 756 026e 0320     		movs	r0, #3
 757 0270 BDE1     		b	.L10
 758              	.L99:
 384:Drivers/STM32F3xx_HAL_Driver/Src/stm32f3xx_hal_rcc.c ****       }
ARM GAS  /var/folders/8c/gyvcglfx7f97kbqb2h83mm_r0000gn/T//cc6V9BzC.s 			page 33


 759              		.loc 1 384 9 is_stmt 1 view .LVU213
 760 0272 2F48     		ldr	r0, .L109
 761 0274 0368     		ldr	r3, [r0]
 762 0276 23F0F803 		bic	r3, r3, #248
 763 027a 2169     		ldr	r1, [r4, #16]
 764              	.LVL46:
 765              	.LBB200:
 766              	.LBI200:
 526:Drivers/CMSIS/Include/cmsis_gcc.h **** {
 767              		.loc 2 526 57 view .LVU214
 768              	.LBB201:
 528:Drivers/CMSIS/Include/cmsis_gcc.h **** 
 769              		.loc 2 528 3 view .LVU215
 531:Drivers/CMSIS/Include/cmsis_gcc.h **** #else
 770              		.loc 2 531 4 view .LVU216
 771 027c F822     		movs	r2, #248
 772              		.syntax unified
 773              	@ 531 "Drivers/CMSIS/Include/cmsis_gcc.h" 1
 774 027e 92FAA2F2 		rbit r2, r2
 775              	@ 0 "" 2
 776              	.LVL47:
 777              		.loc 2 544 3 view .LVU217
 778              		.loc 2 544 3 is_stmt 0 view .LVU218
 779              		.thumb
 780              		.syntax unified
 781              	.LBE201:
 782              	.LBE200:
 384:Drivers/STM32F3xx_HAL_Driver/Src/stm32f3xx_hal_rcc.c ****       }
 783              		.loc 1 384 9 view .LVU219
 784 0282 B2FA82F2 		clz	r2, r2
 785 0286 01FA02F2 		lsl	r2, r1, r2
 786 028a 1343     		orrs	r3, r3, r2
 787 028c 0360     		str	r3, [r0]
 788 028e C1E7     		b	.L24
 789              	.LVL48:
 790              	.L30:
 389:Drivers/STM32F3xx_HAL_Driver/Src/stm32f3xx_hal_rcc.c ****         
 791              		.loc 1 389 9 is_stmt 1 view .LVU220
 792              	.LBB202:
 793              	.LBI202:
 526:Drivers/CMSIS/Include/cmsis_gcc.h **** {
 794              		.loc 2 526 57 view .LVU221
 795              	.LBB203:
 528:Drivers/CMSIS/Include/cmsis_gcc.h **** 
 796              		.loc 2 528 3 view .LVU222
 531:Drivers/CMSIS/Include/cmsis_gcc.h **** #else
 797              		.loc 2 531 4 view .LVU223
 798 0290 0123     		movs	r3, #1
 799              		.syntax unified
 800              	@ 531 "Drivers/CMSIS/Include/cmsis_gcc.h" 1
 801 0292 93FAA3F3 		rbit r3, r3
 802              	@ 0 "" 2
 803              	.LVL49:
 804              		.loc 2 544 3 view .LVU224
 805              		.loc 2 544 3 is_stmt 0 view .LVU225
 806              		.thumb
 807              		.syntax unified
ARM GAS  /var/folders/8c/gyvcglfx7f97kbqb2h83mm_r0000gn/T//cc6V9BzC.s 			page 34


 808              	.LBE203:
 809              	.LBE202:
 389:Drivers/STM32F3xx_HAL_Driver/Src/stm32f3xx_hal_rcc.c ****         
 810              		.loc 1 389 9 view .LVU226
 811 0296 B3FA83F3 		clz	r3, r3
 812 029a 03F18453 		add	r3, r3, #276824064
 813 029e 03F58413 		add	r3, r3, #1081344
 814 02a2 9B00     		lsls	r3, r3, #2
 815 02a4 0022     		movs	r2, #0
 816 02a6 1A60     		str	r2, [r3]
 392:Drivers/STM32F3xx_HAL_Driver/Src/stm32f3xx_hal_rcc.c ****         
 817              		.loc 1 392 9 is_stmt 1 view .LVU227
 392:Drivers/STM32F3xx_HAL_Driver/Src/stm32f3xx_hal_rcc.c ****         
 818              		.loc 1 392 21 is_stmt 0 view .LVU228
 819 02a8 FFF7FEFF 		bl	HAL_GetTick
 820              	.LVL50:
 821 02ac 0546     		mov	r5, r0
 822              	.LVL51:
 395:Drivers/STM32F3xx_HAL_Driver/Src/stm32f3xx_hal_rcc.c ****         {
 823              		.loc 1 395 9 is_stmt 1 view .LVU229
 824              	.L35:
 825              	.LBB204:
 826              	.LBI204:
 526:Drivers/CMSIS/Include/cmsis_gcc.h **** {
 827              		.loc 2 526 57 view .LVU230
 828              	.LBB205:
 528:Drivers/CMSIS/Include/cmsis_gcc.h **** 
 829              		.loc 2 528 3 view .LVU231
 531:Drivers/CMSIS/Include/cmsis_gcc.h **** #else
 830              		.loc 2 531 4 view .LVU232
 831 02ae 0223     		movs	r3, #2
 832              		.syntax unified
 833              	@ 531 "Drivers/CMSIS/Include/cmsis_gcc.h" 1
 834 02b0 93FAA3F3 		rbit r3, r3
 835              	@ 0 "" 2
 836              		.loc 2 544 3 view .LVU233
 837              	.LVL52:
 838              		.loc 2 544 3 is_stmt 0 view .LVU234
 839              		.thumb
 840              		.syntax unified
 841              	.LBE205:
 842              	.LBE204:
 395:Drivers/STM32F3xx_HAL_Driver/Src/stm32f3xx_hal_rcc.c ****         {
 843              		.loc 1 395 15 view .LVU235
 844 02b4 1E4B     		ldr	r3, .L109
 845 02b6 1968     		ldr	r1, [r3]
 846              	.LVL53:
 847              	.LBB206:
 848              	.LBI206:
 526:Drivers/CMSIS/Include/cmsis_gcc.h **** {
 849              		.loc 2 526 57 is_stmt 1 view .LVU236
 850              	.LBB207:
 528:Drivers/CMSIS/Include/cmsis_gcc.h **** 
 851              		.loc 2 528 3 view .LVU237
 531:Drivers/CMSIS/Include/cmsis_gcc.h **** #else
 852              		.loc 2 531 4 view .LVU238
 853 02b8 0223     		movs	r3, #2
ARM GAS  /var/folders/8c/gyvcglfx7f97kbqb2h83mm_r0000gn/T//cc6V9BzC.s 			page 35


 854              		.syntax unified
 855              	@ 531 "Drivers/CMSIS/Include/cmsis_gcc.h" 1
 856 02ba 93FAA3F3 		rbit r3, r3
 857              	@ 0 "" 2
 858              	.LVL54:
 859              		.loc 2 544 3 view .LVU239
 860              		.loc 2 544 3 is_stmt 0 view .LVU240
 861              		.thumb
 862              		.syntax unified
 863              	.LBE207:
 864              	.LBE206:
 395:Drivers/STM32F3xx_HAL_Driver/Src/stm32f3xx_hal_rcc.c ****         {
 865              		.loc 1 395 15 view .LVU241
 866 02be B3FA83F3 		clz	r3, r3
 867 02c2 03F01F03 		and	r3, r3, #31
 868 02c6 0122     		movs	r2, #1
 869 02c8 02FA03F3 		lsl	r3, r2, r3
 395:Drivers/STM32F3xx_HAL_Driver/Src/stm32f3xx_hal_rcc.c ****         {
 870              		.loc 1 395 14 view .LVU242
 871 02cc 1942     		tst	r1, r3
 872 02ce A1D0     		beq	.L24
 397:Drivers/STM32F3xx_HAL_Driver/Src/stm32f3xx_hal_rcc.c ****           {
 873              		.loc 1 397 11 is_stmt 1 view .LVU243
 397:Drivers/STM32F3xx_HAL_Driver/Src/stm32f3xx_hal_rcc.c ****           {
 874              		.loc 1 397 15 is_stmt 0 view .LVU244
 875 02d0 FFF7FEFF 		bl	HAL_GetTick
 876              	.LVL55:
 397:Drivers/STM32F3xx_HAL_Driver/Src/stm32f3xx_hal_rcc.c ****           {
 877              		.loc 1 397 29 view .LVU245
 878 02d4 401B     		subs	r0, r0, r5
 397:Drivers/STM32F3xx_HAL_Driver/Src/stm32f3xx_hal_rcc.c ****           {
 879              		.loc 1 397 13 view .LVU246
 880 02d6 0228     		cmp	r0, #2
 881 02d8 E9D9     		bls	.L35
 399:Drivers/STM32F3xx_HAL_Driver/Src/stm32f3xx_hal_rcc.c ****           }
 882              		.loc 1 399 20 view .LVU247
 883 02da 0320     		movs	r0, #3
 884 02dc 87E1     		b	.L10
 885              	.LVL56:
 886              	.L40:
 426:Drivers/STM32F3xx_HAL_Driver/Src/stm32f3xx_hal_rcc.c ****         }
 427:Drivers/STM32F3xx_HAL_Driver/Src/stm32f3xx_hal_rcc.c ****       }
 428:Drivers/STM32F3xx_HAL_Driver/Src/stm32f3xx_hal_rcc.c ****     }
 429:Drivers/STM32F3xx_HAL_Driver/Src/stm32f3xx_hal_rcc.c ****     else
 430:Drivers/STM32F3xx_HAL_Driver/Src/stm32f3xx_hal_rcc.c ****     {
 431:Drivers/STM32F3xx_HAL_Driver/Src/stm32f3xx_hal_rcc.c ****       /* Disable the Internal Low Speed oscillator (LSI). */
 432:Drivers/STM32F3xx_HAL_Driver/Src/stm32f3xx_hal_rcc.c ****       __HAL_RCC_LSI_DISABLE();
 887              		.loc 1 432 7 is_stmt 1 view .LVU248
 888              	.LBB208:
 889              	.LBI208:
 526:Drivers/CMSIS/Include/cmsis_gcc.h **** {
 890              		.loc 2 526 57 view .LVU249
 891              	.LBB209:
 528:Drivers/CMSIS/Include/cmsis_gcc.h **** 
 892              		.loc 2 528 3 view .LVU250
 531:Drivers/CMSIS/Include/cmsis_gcc.h **** #else
 893              		.loc 2 531 4 view .LVU251
ARM GAS  /var/folders/8c/gyvcglfx7f97kbqb2h83mm_r0000gn/T//cc6V9BzC.s 			page 36


 894 02de 0122     		movs	r2, #1
 895              		.syntax unified
 896              	@ 531 "Drivers/CMSIS/Include/cmsis_gcc.h" 1
 897 02e0 92FAA2F2 		rbit r2, r2
 898              	@ 0 "" 2
 899              	.LVL57:
 900              		.loc 2 544 3 view .LVU252
 901              		.loc 2 544 3 is_stmt 0 view .LVU253
 902              		.thumb
 903              		.syntax unified
 904              	.LBE209:
 905              	.LBE208:
 906              		.loc 1 432 7 view .LVU254
 907 02e4 B2FA82F2 		clz	r2, r2
 908 02e8 124B     		ldr	r3, .L109+4
 909 02ea 1344     		add	r3, r3, r2
 910 02ec 9B00     		lsls	r3, r3, #2
 911 02ee 0022     		movs	r2, #0
 912 02f0 1A60     		str	r2, [r3]
 433:Drivers/STM32F3xx_HAL_Driver/Src/stm32f3xx_hal_rcc.c ****       
 434:Drivers/STM32F3xx_HAL_Driver/Src/stm32f3xx_hal_rcc.c ****       /* Get Start Tick */
 435:Drivers/STM32F3xx_HAL_Driver/Src/stm32f3xx_hal_rcc.c ****       tickstart = HAL_GetTick();
 913              		.loc 1 435 7 is_stmt 1 view .LVU255
 914              		.loc 1 435 19 is_stmt 0 view .LVU256
 915 02f2 FFF7FEFF 		bl	HAL_GetTick
 916              	.LVL58:
 917 02f6 0546     		mov	r5, r0
 918              	.LVL59:
 436:Drivers/STM32F3xx_HAL_Driver/Src/stm32f3xx_hal_rcc.c ****       
 437:Drivers/STM32F3xx_HAL_Driver/Src/stm32f3xx_hal_rcc.c ****       /* Wait till LSI is disabled */  
 438:Drivers/STM32F3xx_HAL_Driver/Src/stm32f3xx_hal_rcc.c ****       while(__HAL_RCC_GET_FLAG(RCC_FLAG_LSIRDY) != RESET)
 919              		.loc 1 438 7 is_stmt 1 view .LVU257
 920              	.L43:
 921              	.LBB210:
 922              	.LBI210:
 526:Drivers/CMSIS/Include/cmsis_gcc.h **** {
 923              		.loc 2 526 57 view .LVU258
 924              	.LBB211:
 528:Drivers/CMSIS/Include/cmsis_gcc.h **** 
 925              		.loc 2 528 3 view .LVU259
 531:Drivers/CMSIS/Include/cmsis_gcc.h **** #else
 926              		.loc 2 531 4 view .LVU260
 927 02f8 0223     		movs	r3, #2
 928              		.syntax unified
 929              	@ 531 "Drivers/CMSIS/Include/cmsis_gcc.h" 1
 930 02fa 93FAA3F2 		rbit r2, r3
 931              	@ 0 "" 2
 932              	.LVL60:
 933              		.loc 2 544 3 view .LVU261
 934              		.loc 2 544 3 is_stmt 0 view .LVU262
 935              		.thumb
 936              		.syntax unified
 937              	.LBE211:
 938              	.LBE210:
 939              	.LBB212:
 940              	.LBI212:
 526:Drivers/CMSIS/Include/cmsis_gcc.h **** {
ARM GAS  /var/folders/8c/gyvcglfx7f97kbqb2h83mm_r0000gn/T//cc6V9BzC.s 			page 37


 941              		.loc 2 526 57 is_stmt 1 view .LVU263
 942              	.LBB213:
 528:Drivers/CMSIS/Include/cmsis_gcc.h **** 
 943              		.loc 2 528 3 view .LVU264
 531:Drivers/CMSIS/Include/cmsis_gcc.h **** #else
 944              		.loc 2 531 4 view .LVU265
 945              		.syntax unified
 946              	@ 531 "Drivers/CMSIS/Include/cmsis_gcc.h" 1
 947 02fe 93FAA3F2 		rbit r2, r3
 948              	@ 0 "" 2
 949              	.LVL61:
 950              		.loc 2 544 3 view .LVU266
 951              		.loc 2 544 3 is_stmt 0 view .LVU267
 952              		.thumb
 953              		.syntax unified
 954              	.LBE213:
 955              	.LBE212:
 956              	.LBB214:
 957              	.LBI214:
 526:Drivers/CMSIS/Include/cmsis_gcc.h **** {
 958              		.loc 2 526 57 is_stmt 1 view .LVU268
 959              	.LBB215:
 528:Drivers/CMSIS/Include/cmsis_gcc.h **** 
 960              		.loc 2 528 3 view .LVU269
 531:Drivers/CMSIS/Include/cmsis_gcc.h **** #else
 961              		.loc 2 531 4 view .LVU270
 962              		.syntax unified
 963              	@ 531 "Drivers/CMSIS/Include/cmsis_gcc.h" 1
 964 0302 93FAA3F2 		rbit r2, r3
 965              	@ 0 "" 2
 966              	.LVL62:
 967              		.loc 2 544 3 view .LVU271
 968              		.loc 2 544 3 is_stmt 0 view .LVU272
 969              		.thumb
 970              		.syntax unified
 971              	.LBE215:
 972              	.LBE214:
 973              		.loc 1 438 13 view .LVU273
 974 0306 0A4A     		ldr	r2, .L109
 975 0308 516A     		ldr	r1, [r2, #36]
 976              	.LVL63:
 977              	.LBB216:
 978              	.LBI216:
 526:Drivers/CMSIS/Include/cmsis_gcc.h **** {
 979              		.loc 2 526 57 is_stmt 1 view .LVU274
 980              	.LBB217:
 528:Drivers/CMSIS/Include/cmsis_gcc.h **** 
 981              		.loc 2 528 3 view .LVU275
 531:Drivers/CMSIS/Include/cmsis_gcc.h **** #else
 982              		.loc 2 531 4 view .LVU276
 983              		.syntax unified
 984              	@ 531 "Drivers/CMSIS/Include/cmsis_gcc.h" 1
 985 030a 93FAA3F3 		rbit r3, r3
 986              	@ 0 "" 2
 987              	.LVL64:
 988              		.loc 2 544 3 view .LVU277
 989              		.loc 2 544 3 is_stmt 0 view .LVU278
ARM GAS  /var/folders/8c/gyvcglfx7f97kbqb2h83mm_r0000gn/T//cc6V9BzC.s 			page 38


 990              		.thumb
 991              		.syntax unified
 992              	.LBE217:
 993              	.LBE216:
 994              		.loc 1 438 13 view .LVU279
 995 030e B3FA83F3 		clz	r3, r3
 996 0312 03F01F03 		and	r3, r3, #31
 997 0316 0122     		movs	r2, #1
 998 0318 02FA03F3 		lsl	r3, r2, r3
 999              		.loc 1 438 12 view .LVU280
 1000 031c 0B42     		tst	r3, r1
 1001 031e 0BD0     		beq	.L39
 439:Drivers/STM32F3xx_HAL_Driver/Src/stm32f3xx_hal_rcc.c ****       {
 440:Drivers/STM32F3xx_HAL_Driver/Src/stm32f3xx_hal_rcc.c ****         if((HAL_GetTick() - tickstart ) > LSI_TIMEOUT_VALUE)
 1002              		.loc 1 440 9 is_stmt 1 view .LVU281
 1003              		.loc 1 440 13 is_stmt 0 view .LVU282
 1004 0320 FFF7FEFF 		bl	HAL_GetTick
 1005              	.LVL65:
 1006              		.loc 1 440 27 view .LVU283
 1007 0324 401B     		subs	r0, r0, r5
 1008              		.loc 1 440 11 view .LVU284
 1009 0326 0228     		cmp	r0, #2
 1010 0328 E6D9     		bls	.L43
 441:Drivers/STM32F3xx_HAL_Driver/Src/stm32f3xx_hal_rcc.c ****         {
 442:Drivers/STM32F3xx_HAL_Driver/Src/stm32f3xx_hal_rcc.c ****           return HAL_TIMEOUT;
 1011              		.loc 1 442 18 view .LVU285
 1012 032a 0320     		movs	r0, #3
 1013 032c 5FE1     		b	.L10
 1014              	.L110:
 1015 032e 00BF     		.align	2
 1016              	.L109:
 1017 0330 00100240 		.word	1073876992
 1018 0334 20819010 		.word	277905696
 1019              	.LVL66:
 1020              	.L39:
 443:Drivers/STM32F3xx_HAL_Driver/Src/stm32f3xx_hal_rcc.c ****         }
 444:Drivers/STM32F3xx_HAL_Driver/Src/stm32f3xx_hal_rcc.c ****       }
 445:Drivers/STM32F3xx_HAL_Driver/Src/stm32f3xx_hal_rcc.c ****     }
 446:Drivers/STM32F3xx_HAL_Driver/Src/stm32f3xx_hal_rcc.c ****   }
 447:Drivers/STM32F3xx_HAL_Driver/Src/stm32f3xx_hal_rcc.c ****   /*------------------------------ LSE Configuration -------------------------*/ 
 448:Drivers/STM32F3xx_HAL_Driver/Src/stm32f3xx_hal_rcc.c ****   if(((RCC_OscInitStruct->OscillatorType) & RCC_OSCILLATORTYPE_LSE) == RCC_OSCILLATORTYPE_LSE)
 1021              		.loc 1 448 3 is_stmt 1 view .LVU286
 1022              		.loc 1 448 25 is_stmt 0 view .LVU287
 1023 0338 2368     		ldr	r3, [r4]
 1024              		.loc 1 448 5 view .LVU288
 1025 033a 13F0040F 		tst	r3, #4
 1026 033e 00F0A980 		beq	.L45
 1027              	.LBB218:
 449:Drivers/STM32F3xx_HAL_Driver/Src/stm32f3xx_hal_rcc.c ****   {
 450:Drivers/STM32F3xx_HAL_Driver/Src/stm32f3xx_hal_rcc.c ****     FlagStatus       pwrclkchanged = RESET;
 1028              		.loc 1 450 5 is_stmt 1 view .LVU289
 1029              	.LVL67:
 451:Drivers/STM32F3xx_HAL_Driver/Src/stm32f3xx_hal_rcc.c ****     
 452:Drivers/STM32F3xx_HAL_Driver/Src/stm32f3xx_hal_rcc.c ****     /* Check the parameters */
 453:Drivers/STM32F3xx_HAL_Driver/Src/stm32f3xx_hal_rcc.c ****     assert_param(IS_RCC_LSE(RCC_OscInitStruct->LSEState));
 1030              		.loc 1 453 5 view .LVU290
 454:Drivers/STM32F3xx_HAL_Driver/Src/stm32f3xx_hal_rcc.c **** 
ARM GAS  /var/folders/8c/gyvcglfx7f97kbqb2h83mm_r0000gn/T//cc6V9BzC.s 			page 39


 455:Drivers/STM32F3xx_HAL_Driver/Src/stm32f3xx_hal_rcc.c ****     /* Update LSE configuration in Backup Domain control register    */
 456:Drivers/STM32F3xx_HAL_Driver/Src/stm32f3xx_hal_rcc.c ****     /* Requires to enable write access to Backup Domain of necessary */
 457:Drivers/STM32F3xx_HAL_Driver/Src/stm32f3xx_hal_rcc.c ****     if(__HAL_RCC_PWR_IS_CLK_DISABLED())
 1031              		.loc 1 457 5 view .LVU291
 1032              		.loc 1 457 8 is_stmt 0 view .LVU292
 1033 0342 AD4B     		ldr	r3, .L111
 1034 0344 DB69     		ldr	r3, [r3, #28]
 1035              		.loc 1 457 7 view .LVU293
 1036 0346 13F0805F 		tst	r3, #268435456
 1037 034a 20D1     		bne	.L85
 458:Drivers/STM32F3xx_HAL_Driver/Src/stm32f3xx_hal_rcc.c ****     {
 459:Drivers/STM32F3xx_HAL_Driver/Src/stm32f3xx_hal_rcc.c ****       __HAL_RCC_PWR_CLK_ENABLE();
 1038              		.loc 1 459 7 is_stmt 1 view .LVU294
 1039              	.LBB219:
 1040              		.loc 1 459 7 view .LVU295
 1041              		.loc 1 459 7 view .LVU296
 1042 034c AA4B     		ldr	r3, .L111
 1043 034e DA69     		ldr	r2, [r3, #28]
 1044 0350 42F08052 		orr	r2, r2, #268435456
 1045 0354 DA61     		str	r2, [r3, #28]
 1046              		.loc 1 459 7 view .LVU297
 1047 0356 DB69     		ldr	r3, [r3, #28]
 1048 0358 03F08053 		and	r3, r3, #268435456
 1049 035c 0193     		str	r3, [sp, #4]
 1050              		.loc 1 459 7 view .LVU298
 1051 035e 019B     		ldr	r3, [sp, #4]
 1052              	.LBE219:
 460:Drivers/STM32F3xx_HAL_Driver/Src/stm32f3xx_hal_rcc.c ****       pwrclkchanged = SET;
 1053              		.loc 1 460 7 view .LVU299
 1054              	.LVL68:
 1055              		.loc 1 460 21 is_stmt 0 view .LVU300
 1056 0360 0125     		movs	r5, #1
 1057              	.LVL69:
 1058              	.L46:
 461:Drivers/STM32F3xx_HAL_Driver/Src/stm32f3xx_hal_rcc.c ****     }
 462:Drivers/STM32F3xx_HAL_Driver/Src/stm32f3xx_hal_rcc.c ****     
 463:Drivers/STM32F3xx_HAL_Driver/Src/stm32f3xx_hal_rcc.c ****     if(HAL_IS_BIT_CLR(PWR->CR, PWR_CR_DBP))
 1059              		.loc 1 463 5 is_stmt 1 view .LVU301
 1060              		.loc 1 463 8 is_stmt 0 view .LVU302
 1061 0362 A64B     		ldr	r3, .L111+4
 1062 0364 1B68     		ldr	r3, [r3]
 1063              		.loc 1 463 7 view .LVU303
 1064 0366 13F4807F 		tst	r3, #256
 1065 036a 12D0     		beq	.L101
 1066              	.L47:
 464:Drivers/STM32F3xx_HAL_Driver/Src/stm32f3xx_hal_rcc.c ****     {
 465:Drivers/STM32F3xx_HAL_Driver/Src/stm32f3xx_hal_rcc.c ****       /* Enable write access to Backup domain */
 466:Drivers/STM32F3xx_HAL_Driver/Src/stm32f3xx_hal_rcc.c ****       SET_BIT(PWR->CR, PWR_CR_DBP);
 467:Drivers/STM32F3xx_HAL_Driver/Src/stm32f3xx_hal_rcc.c ****       
 468:Drivers/STM32F3xx_HAL_Driver/Src/stm32f3xx_hal_rcc.c ****       /* Wait for Backup domain Write protection disable */
 469:Drivers/STM32F3xx_HAL_Driver/Src/stm32f3xx_hal_rcc.c ****       tickstart = HAL_GetTick();
 470:Drivers/STM32F3xx_HAL_Driver/Src/stm32f3xx_hal_rcc.c **** 
 471:Drivers/STM32F3xx_HAL_Driver/Src/stm32f3xx_hal_rcc.c ****       while(HAL_IS_BIT_CLR(PWR->CR, PWR_CR_DBP))
 472:Drivers/STM32F3xx_HAL_Driver/Src/stm32f3xx_hal_rcc.c ****       {
 473:Drivers/STM32F3xx_HAL_Driver/Src/stm32f3xx_hal_rcc.c ****         if((HAL_GetTick() - tickstart) > RCC_DBP_TIMEOUT_VALUE)
 474:Drivers/STM32F3xx_HAL_Driver/Src/stm32f3xx_hal_rcc.c ****         {
 475:Drivers/STM32F3xx_HAL_Driver/Src/stm32f3xx_hal_rcc.c ****           return HAL_TIMEOUT;
ARM GAS  /var/folders/8c/gyvcglfx7f97kbqb2h83mm_r0000gn/T//cc6V9BzC.s 			page 40


 476:Drivers/STM32F3xx_HAL_Driver/Src/stm32f3xx_hal_rcc.c ****         }
 477:Drivers/STM32F3xx_HAL_Driver/Src/stm32f3xx_hal_rcc.c ****       }
 478:Drivers/STM32F3xx_HAL_Driver/Src/stm32f3xx_hal_rcc.c ****     }
 479:Drivers/STM32F3xx_HAL_Driver/Src/stm32f3xx_hal_rcc.c **** 
 480:Drivers/STM32F3xx_HAL_Driver/Src/stm32f3xx_hal_rcc.c ****     /* Set the new LSE configuration -----------------------------------------*/
 481:Drivers/STM32F3xx_HAL_Driver/Src/stm32f3xx_hal_rcc.c ****     __HAL_RCC_LSE_CONFIG(RCC_OscInitStruct->LSEState);
 1067              		.loc 1 481 5 is_stmt 1 view .LVU304
 1068              		.loc 1 481 5 view .LVU305
 1069 036c A368     		ldr	r3, [r4, #8]
 1070 036e 012B     		cmp	r3, #1
 1071 0370 23D0     		beq	.L102
 1072              		.loc 1 481 5 discriminator 2 view .LVU306
 1073 0372 73BB     		cbnz	r3, .L52
 1074              		.loc 1 481 5 discriminator 3 view .LVU307
 1075 0374 03F18043 		add	r3, r3, #1073741824
 1076 0378 03F50433 		add	r3, r3, #135168
 1077 037c 1A6A     		ldr	r2, [r3, #32]
 1078 037e 22F00102 		bic	r2, r2, #1
 1079 0382 1A62     		str	r2, [r3, #32]
 1080              		.loc 1 481 5 discriminator 3 view .LVU308
 1081 0384 1A6A     		ldr	r2, [r3, #32]
 1082 0386 22F00402 		bic	r2, r2, #4
 1083 038a 1A62     		str	r2, [r3, #32]
 1084 038c 1AE0     		b	.L51
 1085              	.LVL70:
 1086              	.L85:
 450:Drivers/STM32F3xx_HAL_Driver/Src/stm32f3xx_hal_rcc.c ****     
 1087              		.loc 1 450 22 is_stmt 0 view .LVU309
 1088 038e 0025     		movs	r5, #0
 1089 0390 E7E7     		b	.L46
 1090              	.LVL71:
 1091              	.L101:
 466:Drivers/STM32F3xx_HAL_Driver/Src/stm32f3xx_hal_rcc.c ****       
 1092              		.loc 1 466 7 is_stmt 1 view .LVU310
 1093 0392 9A4A     		ldr	r2, .L111+4
 1094 0394 1368     		ldr	r3, [r2]
 1095 0396 43F48073 		orr	r3, r3, #256
 1096 039a 1360     		str	r3, [r2]
 469:Drivers/STM32F3xx_HAL_Driver/Src/stm32f3xx_hal_rcc.c **** 
 1097              		.loc 1 469 7 view .LVU311
 469:Drivers/STM32F3xx_HAL_Driver/Src/stm32f3xx_hal_rcc.c **** 
 1098              		.loc 1 469 19 is_stmt 0 view .LVU312
 1099 039c FFF7FEFF 		bl	HAL_GetTick
 1100              	.LVL72:
 1101 03a0 0646     		mov	r6, r0
 1102              	.LVL73:
 471:Drivers/STM32F3xx_HAL_Driver/Src/stm32f3xx_hal_rcc.c ****       {
 1103              		.loc 1 471 7 is_stmt 1 view .LVU313
 1104              	.L48:
 471:Drivers/STM32F3xx_HAL_Driver/Src/stm32f3xx_hal_rcc.c ****       {
 1105              		.loc 1 471 13 is_stmt 0 view .LVU314
 1106 03a2 964B     		ldr	r3, .L111+4
 1107 03a4 1B68     		ldr	r3, [r3]
 471:Drivers/STM32F3xx_HAL_Driver/Src/stm32f3xx_hal_rcc.c ****       {
 1108              		.loc 1 471 12 view .LVU315
 1109 03a6 13F4807F 		tst	r3, #256
 1110 03aa DFD1     		bne	.L47
ARM GAS  /var/folders/8c/gyvcglfx7f97kbqb2h83mm_r0000gn/T//cc6V9BzC.s 			page 41


 473:Drivers/STM32F3xx_HAL_Driver/Src/stm32f3xx_hal_rcc.c ****         {
 1111              		.loc 1 473 9 is_stmt 1 view .LVU316
 473:Drivers/STM32F3xx_HAL_Driver/Src/stm32f3xx_hal_rcc.c ****         {
 1112              		.loc 1 473 13 is_stmt 0 view .LVU317
 1113 03ac FFF7FEFF 		bl	HAL_GetTick
 1114              	.LVL74:
 473:Drivers/STM32F3xx_HAL_Driver/Src/stm32f3xx_hal_rcc.c ****         {
 1115              		.loc 1 473 27 view .LVU318
 1116 03b0 801B     		subs	r0, r0, r6
 473:Drivers/STM32F3xx_HAL_Driver/Src/stm32f3xx_hal_rcc.c ****         {
 1117              		.loc 1 473 11 view .LVU319
 1118 03b2 6428     		cmp	r0, #100
 1119 03b4 F5D9     		bls	.L48
 475:Drivers/STM32F3xx_HAL_Driver/Src/stm32f3xx_hal_rcc.c ****         }
 1120              		.loc 1 475 18 view .LVU320
 1121 03b6 0320     		movs	r0, #3
 1122 03b8 19E1     		b	.L10
 1123              	.LVL75:
 1124              	.L102:
 1125              		.loc 1 481 5 is_stmt 1 discriminator 1 view .LVU321
 1126 03ba 8F4A     		ldr	r2, .L111
 1127 03bc 136A     		ldr	r3, [r2, #32]
 1128 03be 43F00103 		orr	r3, r3, #1
 1129 03c2 1362     		str	r3, [r2, #32]
 1130              	.L51:
 482:Drivers/STM32F3xx_HAL_Driver/Src/stm32f3xx_hal_rcc.c ****     /* Check the LSE State */
 483:Drivers/STM32F3xx_HAL_Driver/Src/stm32f3xx_hal_rcc.c ****     if(RCC_OscInitStruct->LSEState != RCC_LSE_OFF)
 1131              		.loc 1 483 5 view .LVU322
 1132              		.loc 1 483 25 is_stmt 0 view .LVU323
 1133 03c4 A368     		ldr	r3, [r4, #8]
 1134              		.loc 1 483 7 view .LVU324
 1135 03c6 002B     		cmp	r3, #0
 1136 03c8 3CD0     		beq	.L54
 484:Drivers/STM32F3xx_HAL_Driver/Src/stm32f3xx_hal_rcc.c ****     {
 485:Drivers/STM32F3xx_HAL_Driver/Src/stm32f3xx_hal_rcc.c ****       /* Get Start Tick */
 486:Drivers/STM32F3xx_HAL_Driver/Src/stm32f3xx_hal_rcc.c ****       tickstart = HAL_GetTick();
 1137              		.loc 1 486 7 is_stmt 1 view .LVU325
 1138              		.loc 1 486 19 is_stmt 0 view .LVU326
 1139 03ca FFF7FEFF 		bl	HAL_GetTick
 1140              	.LVL76:
 1141 03ce 0646     		mov	r6, r0
 1142              	.LVL77:
 487:Drivers/STM32F3xx_HAL_Driver/Src/stm32f3xx_hal_rcc.c ****       
 488:Drivers/STM32F3xx_HAL_Driver/Src/stm32f3xx_hal_rcc.c ****       /* Wait till LSE is ready */  
 489:Drivers/STM32F3xx_HAL_Driver/Src/stm32f3xx_hal_rcc.c ****       while(__HAL_RCC_GET_FLAG(RCC_FLAG_LSERDY) == RESET)
 1143              		.loc 1 489 7 is_stmt 1 view .LVU327
 1144              		.loc 1 489 12 is_stmt 0 view .LVU328
 1145 03d0 2EE0     		b	.L55
 1146              	.LVL78:
 1147              	.L52:
 481:Drivers/STM32F3xx_HAL_Driver/Src/stm32f3xx_hal_rcc.c ****     /* Check the LSE State */
 1148              		.loc 1 481 5 is_stmt 1 discriminator 4 view .LVU329
 1149 03d2 052B     		cmp	r3, #5
 1150 03d4 09D0     		beq	.L103
 481:Drivers/STM32F3xx_HAL_Driver/Src/stm32f3xx_hal_rcc.c ****     /* Check the LSE State */
 1151              		.loc 1 481 5 discriminator 6 view .LVU330
 1152 03d6 884B     		ldr	r3, .L111
ARM GAS  /var/folders/8c/gyvcglfx7f97kbqb2h83mm_r0000gn/T//cc6V9BzC.s 			page 42


 1153 03d8 1A6A     		ldr	r2, [r3, #32]
 1154 03da 22F00102 		bic	r2, r2, #1
 1155 03de 1A62     		str	r2, [r3, #32]
 481:Drivers/STM32F3xx_HAL_Driver/Src/stm32f3xx_hal_rcc.c ****     /* Check the LSE State */
 1156              		.loc 1 481 5 discriminator 6 view .LVU331
 1157 03e0 1A6A     		ldr	r2, [r3, #32]
 1158 03e2 22F00402 		bic	r2, r2, #4
 1159 03e6 1A62     		str	r2, [r3, #32]
 1160 03e8 ECE7     		b	.L51
 1161              	.L103:
 481:Drivers/STM32F3xx_HAL_Driver/Src/stm32f3xx_hal_rcc.c ****     /* Check the LSE State */
 1162              		.loc 1 481 5 discriminator 5 view .LVU332
 1163 03ea 834B     		ldr	r3, .L111
 1164 03ec 1A6A     		ldr	r2, [r3, #32]
 1165 03ee 42F00402 		orr	r2, r2, #4
 1166 03f2 1A62     		str	r2, [r3, #32]
 481:Drivers/STM32F3xx_HAL_Driver/Src/stm32f3xx_hal_rcc.c ****     /* Check the LSE State */
 1167              		.loc 1 481 5 discriminator 5 view .LVU333
 1168 03f4 1A6A     		ldr	r2, [r3, #32]
 1169 03f6 42F00102 		orr	r2, r2, #1
 1170 03fa 1A62     		str	r2, [r3, #32]
 1171 03fc E2E7     		b	.L51
 1172              	.LVL79:
 1173              	.L56:
 1174              	.LBB220:
 1175              	.LBI220:
 526:Drivers/CMSIS/Include/cmsis_gcc.h **** {
 1176              		.loc 2 526 57 view .LVU334
 1177              	.LBB221:
 528:Drivers/CMSIS/Include/cmsis_gcc.h **** 
 1178              		.loc 2 528 3 view .LVU335
 531:Drivers/CMSIS/Include/cmsis_gcc.h **** #else
 1179              		.loc 2 531 4 view .LVU336
 1180 03fe 0223     		movs	r3, #2
 1181              		.syntax unified
 1182              	@ 531 "Drivers/CMSIS/Include/cmsis_gcc.h" 1
 1183 0400 93FAA3F3 		rbit r3, r3
 1184              	@ 0 "" 2
 1185              	.LVL80:
 1186              		.loc 2 544 3 view .LVU337
 1187              		.loc 2 544 3 is_stmt 0 view .LVU338
 1188              		.thumb
 1189              		.syntax unified
 1190              	.LBE221:
 1191              	.LBE220:
 1192              		.loc 1 489 13 view .LVU339
 1193 0404 7C4B     		ldr	r3, .L111
 1194 0406 596A     		ldr	r1, [r3, #36]
 1195              	.L57:
 1196              	.LVL81:
 1197              	.LBB222:
 1198              	.LBI222:
 526:Drivers/CMSIS/Include/cmsis_gcc.h **** {
 1199              		.loc 2 526 57 is_stmt 1 discriminator 11 view .LVU340
 1200              	.LBB223:
 528:Drivers/CMSIS/Include/cmsis_gcc.h **** 
 1201              		.loc 2 528 3 discriminator 11 view .LVU341
ARM GAS  /var/folders/8c/gyvcglfx7f97kbqb2h83mm_r0000gn/T//cc6V9BzC.s 			page 43


 531:Drivers/CMSIS/Include/cmsis_gcc.h **** #else
 1202              		.loc 2 531 4 discriminator 11 view .LVU342
 1203 0408 0223     		movs	r3, #2
 1204              		.syntax unified
 1205              	@ 531 "Drivers/CMSIS/Include/cmsis_gcc.h" 1
 1206 040a 93FAA3F3 		rbit r3, r3
 1207              	@ 0 "" 2
 1208              	.LVL82:
 1209              		.loc 2 544 3 discriminator 11 view .LVU343
 1210              		.loc 2 544 3 is_stmt 0 discriminator 11 view .LVU344
 1211              		.thumb
 1212              		.syntax unified
 1213              	.LBE223:
 1214              	.LBE222:
 1215              		.loc 1 489 13 discriminator 11 view .LVU345
 1216 040e B3FA83F3 		clz	r3, r3
 1217 0412 03F01F03 		and	r3, r3, #31
 1218 0416 0122     		movs	r2, #1
 1219 0418 02FA03F3 		lsl	r3, r2, r3
 1220              		.loc 1 489 12 discriminator 11 view .LVU346
 1221 041c 1942     		tst	r1, r3
 1222 041e 38D1     		bne	.L59
 490:Drivers/STM32F3xx_HAL_Driver/Src/stm32f3xx_hal_rcc.c ****       {
 491:Drivers/STM32F3xx_HAL_Driver/Src/stm32f3xx_hal_rcc.c ****         if((HAL_GetTick() - tickstart ) > RCC_LSE_TIMEOUT_VALUE)
 1223              		.loc 1 491 9 is_stmt 1 view .LVU347
 1224              		.loc 1 491 13 is_stmt 0 view .LVU348
 1225 0420 FFF7FEFF 		bl	HAL_GetTick
 1226              	.LVL83:
 1227              		.loc 1 491 27 view .LVU349
 1228 0424 801B     		subs	r0, r0, r6
 1229              		.loc 1 491 11 view .LVU350
 1230 0426 41F28833 		movw	r3, #5000
 1231 042a 9842     		cmp	r0, r3
 1232 042c 00F2DA80 		bhi	.L87
 1233              	.L55:
 1234              	.LVL84:
 1235              	.LBB224:
 1236              	.LBI224:
 526:Drivers/CMSIS/Include/cmsis_gcc.h **** {
 1237              		.loc 2 526 57 is_stmt 1 view .LVU351
 1238              	.LBB225:
 528:Drivers/CMSIS/Include/cmsis_gcc.h **** 
 1239              		.loc 2 528 3 view .LVU352
 531:Drivers/CMSIS/Include/cmsis_gcc.h **** #else
 1240              		.loc 2 531 4 view .LVU353
 1241 0430 0223     		movs	r3, #2
 1242              		.syntax unified
 1243              	@ 531 "Drivers/CMSIS/Include/cmsis_gcc.h" 1
 1244 0432 93FAA3F2 		rbit r2, r3
 1245              	@ 0 "" 2
 1246              	.LVL85:
 1247              		.loc 2 544 3 view .LVU354
 1248              		.loc 2 544 3 is_stmt 0 view .LVU355
 1249              		.thumb
 1250              		.syntax unified
 1251              	.LBE225:
 1252              	.LBE224:
ARM GAS  /var/folders/8c/gyvcglfx7f97kbqb2h83mm_r0000gn/T//cc6V9BzC.s 			page 44


 1253              	.LBB226:
 1254              	.LBI226:
 526:Drivers/CMSIS/Include/cmsis_gcc.h **** {
 1255              		.loc 2 526 57 is_stmt 1 view .LVU356
 1256              	.LBB227:
 528:Drivers/CMSIS/Include/cmsis_gcc.h **** 
 1257              		.loc 2 528 3 view .LVU357
 531:Drivers/CMSIS/Include/cmsis_gcc.h **** #else
 1258              		.loc 2 531 4 view .LVU358
 1259              		.syntax unified
 1260              	@ 531 "Drivers/CMSIS/Include/cmsis_gcc.h" 1
 1261 0436 93FAA3F3 		rbit r3, r3
 1262              	@ 0 "" 2
 1263              	.LVL86:
 1264              		.loc 2 544 3 view .LVU359
 1265              		.loc 2 544 3 is_stmt 0 view .LVU360
 1266              		.thumb
 1267              		.syntax unified
 1268              	.LBE227:
 1269              	.LBE226:
 489:Drivers/STM32F3xx_HAL_Driver/Src/stm32f3xx_hal_rcc.c ****       {
 1270              		.loc 1 489 13 view .LVU361
 1271 043a 002B     		cmp	r3, #0
 1272 043c DFD0     		beq	.L56
 489:Drivers/STM32F3xx_HAL_Driver/Src/stm32f3xx_hal_rcc.c ****       {
 1273              		.loc 1 489 13 discriminator 4 view .LVU362
 1274 043e 6E4B     		ldr	r3, .L111
 1275 0440 196A     		ldr	r1, [r3, #32]
 1276 0442 E1E7     		b	.L57
 1277              	.LVL87:
 1278              	.L54:
 492:Drivers/STM32F3xx_HAL_Driver/Src/stm32f3xx_hal_rcc.c ****         {
 493:Drivers/STM32F3xx_HAL_Driver/Src/stm32f3xx_hal_rcc.c ****           return HAL_TIMEOUT;
 494:Drivers/STM32F3xx_HAL_Driver/Src/stm32f3xx_hal_rcc.c ****         }
 495:Drivers/STM32F3xx_HAL_Driver/Src/stm32f3xx_hal_rcc.c ****       }
 496:Drivers/STM32F3xx_HAL_Driver/Src/stm32f3xx_hal_rcc.c ****     }
 497:Drivers/STM32F3xx_HAL_Driver/Src/stm32f3xx_hal_rcc.c ****     else
 498:Drivers/STM32F3xx_HAL_Driver/Src/stm32f3xx_hal_rcc.c ****     {
 499:Drivers/STM32F3xx_HAL_Driver/Src/stm32f3xx_hal_rcc.c ****       /* Get Start Tick */
 500:Drivers/STM32F3xx_HAL_Driver/Src/stm32f3xx_hal_rcc.c ****       tickstart = HAL_GetTick();
 1279              		.loc 1 500 7 is_stmt 1 view .LVU363
 1280              		.loc 1 500 19 is_stmt 0 view .LVU364
 1281 0444 FFF7FEFF 		bl	HAL_GetTick
 1282              	.LVL88:
 1283 0448 0646     		mov	r6, r0
 1284              	.LVL89:
 501:Drivers/STM32F3xx_HAL_Driver/Src/stm32f3xx_hal_rcc.c ****       
 502:Drivers/STM32F3xx_HAL_Driver/Src/stm32f3xx_hal_rcc.c ****       /* Wait till LSE is disabled */  
 503:Drivers/STM32F3xx_HAL_Driver/Src/stm32f3xx_hal_rcc.c ****       while(__HAL_RCC_GET_FLAG(RCC_FLAG_LSERDY) != RESET)
 1285              		.loc 1 503 7 is_stmt 1 view .LVU365
 1286              		.loc 1 503 12 is_stmt 0 view .LVU366
 1287 044a 18E0     		b	.L60
 1288              	.LVL90:
 1289              	.L61:
 1290              	.LBB228:
 1291              	.LBI228:
 526:Drivers/CMSIS/Include/cmsis_gcc.h **** {
ARM GAS  /var/folders/8c/gyvcglfx7f97kbqb2h83mm_r0000gn/T//cc6V9BzC.s 			page 45


 1292              		.loc 2 526 57 is_stmt 1 view .LVU367
 1293              	.LBB229:
 528:Drivers/CMSIS/Include/cmsis_gcc.h **** 
 1294              		.loc 2 528 3 view .LVU368
 531:Drivers/CMSIS/Include/cmsis_gcc.h **** #else
 1295              		.loc 2 531 4 view .LVU369
 1296 044c 0223     		movs	r3, #2
 1297              		.syntax unified
 1298              	@ 531 "Drivers/CMSIS/Include/cmsis_gcc.h" 1
 1299 044e 93FAA3F3 		rbit r3, r3
 1300              	@ 0 "" 2
 1301              	.LVL91:
 1302              		.loc 2 544 3 view .LVU370
 1303              		.loc 2 544 3 is_stmt 0 view .LVU371
 1304              		.thumb
 1305              		.syntax unified
 1306              	.LBE229:
 1307              	.LBE228:
 1308              		.loc 1 503 13 view .LVU372
 1309 0452 694B     		ldr	r3, .L111
 1310 0454 596A     		ldr	r1, [r3, #36]
 1311              	.L62:
 1312              	.LVL92:
 1313              	.LBB230:
 1314              	.LBI230:
 526:Drivers/CMSIS/Include/cmsis_gcc.h **** {
 1315              		.loc 2 526 57 is_stmt 1 discriminator 11 view .LVU373
 1316              	.LBB231:
 528:Drivers/CMSIS/Include/cmsis_gcc.h **** 
 1317              		.loc 2 528 3 discriminator 11 view .LVU374
 531:Drivers/CMSIS/Include/cmsis_gcc.h **** #else
 1318              		.loc 2 531 4 discriminator 11 view .LVU375
 1319 0456 0223     		movs	r3, #2
 1320              		.syntax unified
 1321              	@ 531 "Drivers/CMSIS/Include/cmsis_gcc.h" 1
 1322 0458 93FAA3F3 		rbit r3, r3
 1323              	@ 0 "" 2
 1324              	.LVL93:
 1325              		.loc 2 544 3 discriminator 11 view .LVU376
 1326              		.loc 2 544 3 is_stmt 0 discriminator 11 view .LVU377
 1327              		.thumb
 1328              		.syntax unified
 1329              	.LBE231:
 1330              	.LBE230:
 1331              		.loc 1 503 13 discriminator 11 view .LVU378
 1332 045c B3FA83F3 		clz	r3, r3
 1333 0460 03F01F03 		and	r3, r3, #31
 1334 0464 0122     		movs	r2, #1
 1335 0466 02FA03F3 		lsl	r3, r2, r3
 1336              		.loc 1 503 12 discriminator 11 view .LVU379
 1337 046a 1942     		tst	r1, r3
 1338 046c 11D0     		beq	.L59
 504:Drivers/STM32F3xx_HAL_Driver/Src/stm32f3xx_hal_rcc.c ****       {
 505:Drivers/STM32F3xx_HAL_Driver/Src/stm32f3xx_hal_rcc.c ****         if((HAL_GetTick() - tickstart ) > RCC_LSE_TIMEOUT_VALUE)
 1339              		.loc 1 505 9 is_stmt 1 view .LVU380
 1340              		.loc 1 505 13 is_stmt 0 view .LVU381
 1341 046e FFF7FEFF 		bl	HAL_GetTick
ARM GAS  /var/folders/8c/gyvcglfx7f97kbqb2h83mm_r0000gn/T//cc6V9BzC.s 			page 46


 1342              	.LVL94:
 1343              		.loc 1 505 27 view .LVU382
 1344 0472 801B     		subs	r0, r0, r6
 1345              		.loc 1 505 11 view .LVU383
 1346 0474 41F28833 		movw	r3, #5000
 1347 0478 9842     		cmp	r0, r3
 1348 047a 00F2B580 		bhi	.L88
 1349              	.L60:
 1350              	.LVL95:
 1351              	.LBB232:
 1352              	.LBI232:
 526:Drivers/CMSIS/Include/cmsis_gcc.h **** {
 1353              		.loc 2 526 57 is_stmt 1 view .LVU384
 1354              	.LBB233:
 528:Drivers/CMSIS/Include/cmsis_gcc.h **** 
 1355              		.loc 2 528 3 view .LVU385
 531:Drivers/CMSIS/Include/cmsis_gcc.h **** #else
 1356              		.loc 2 531 4 view .LVU386
 1357 047e 0223     		movs	r3, #2
 1358              		.syntax unified
 1359              	@ 531 "Drivers/CMSIS/Include/cmsis_gcc.h" 1
 1360 0480 93FAA3F2 		rbit r2, r3
 1361              	@ 0 "" 2
 1362              	.LVL96:
 1363              		.loc 2 544 3 view .LVU387
 1364              		.loc 2 544 3 is_stmt 0 view .LVU388
 1365              		.thumb
 1366              		.syntax unified
 1367              	.LBE233:
 1368              	.LBE232:
 1369              	.LBB234:
 1370              	.LBI234:
 526:Drivers/CMSIS/Include/cmsis_gcc.h **** {
 1371              		.loc 2 526 57 is_stmt 1 view .LVU389
 1372              	.LBB235:
 528:Drivers/CMSIS/Include/cmsis_gcc.h **** 
 1373              		.loc 2 528 3 view .LVU390
 531:Drivers/CMSIS/Include/cmsis_gcc.h **** #else
 1374              		.loc 2 531 4 view .LVU391
 1375              		.syntax unified
 1376              	@ 531 "Drivers/CMSIS/Include/cmsis_gcc.h" 1
 1377 0484 93FAA3F3 		rbit r3, r3
 1378              	@ 0 "" 2
 1379              	.LVL97:
 1380              		.loc 2 544 3 view .LVU392
 1381              		.loc 2 544 3 is_stmt 0 view .LVU393
 1382              		.thumb
 1383              		.syntax unified
 1384              	.LBE235:
 1385              	.LBE234:
 503:Drivers/STM32F3xx_HAL_Driver/Src/stm32f3xx_hal_rcc.c ****       {
 1386              		.loc 1 503 13 view .LVU394
 1387 0488 002B     		cmp	r3, #0
 1388 048a DFD0     		beq	.L61
 503:Drivers/STM32F3xx_HAL_Driver/Src/stm32f3xx_hal_rcc.c ****       {
 1389              		.loc 1 503 13 discriminator 4 view .LVU395
 1390 048c 5A4B     		ldr	r3, .L111
ARM GAS  /var/folders/8c/gyvcglfx7f97kbqb2h83mm_r0000gn/T//cc6V9BzC.s 			page 47


 1391 048e 196A     		ldr	r1, [r3, #32]
 1392 0490 E1E7     		b	.L62
 1393              	.L59:
 506:Drivers/STM32F3xx_HAL_Driver/Src/stm32f3xx_hal_rcc.c ****         {
 507:Drivers/STM32F3xx_HAL_Driver/Src/stm32f3xx_hal_rcc.c ****           return HAL_TIMEOUT;
 508:Drivers/STM32F3xx_HAL_Driver/Src/stm32f3xx_hal_rcc.c ****         }
 509:Drivers/STM32F3xx_HAL_Driver/Src/stm32f3xx_hal_rcc.c ****       }
 510:Drivers/STM32F3xx_HAL_Driver/Src/stm32f3xx_hal_rcc.c ****     }
 511:Drivers/STM32F3xx_HAL_Driver/Src/stm32f3xx_hal_rcc.c **** 
 512:Drivers/STM32F3xx_HAL_Driver/Src/stm32f3xx_hal_rcc.c ****     /* Require to disable power clock if necessary */
 513:Drivers/STM32F3xx_HAL_Driver/Src/stm32f3xx_hal_rcc.c ****     if(pwrclkchanged == SET)
 1394              		.loc 1 513 5 is_stmt 1 view .LVU396
 1395              		.loc 1 513 7 is_stmt 0 view .LVU397
 1396 0492 B5BB     		cbnz	r5, .L104
 1397              	.LVL98:
 1398              	.L45:
 1399              		.loc 1 513 7 view .LVU398
 1400              	.LBE218:
 514:Drivers/STM32F3xx_HAL_Driver/Src/stm32f3xx_hal_rcc.c ****     {
 515:Drivers/STM32F3xx_HAL_Driver/Src/stm32f3xx_hal_rcc.c ****       __HAL_RCC_PWR_CLK_DISABLE();
 516:Drivers/STM32F3xx_HAL_Driver/Src/stm32f3xx_hal_rcc.c ****     }
 517:Drivers/STM32F3xx_HAL_Driver/Src/stm32f3xx_hal_rcc.c ****   }
 518:Drivers/STM32F3xx_HAL_Driver/Src/stm32f3xx_hal_rcc.c **** 
 519:Drivers/STM32F3xx_HAL_Driver/Src/stm32f3xx_hal_rcc.c ****   /*-------------------------------- PLL Configuration -----------------------*/
 520:Drivers/STM32F3xx_HAL_Driver/Src/stm32f3xx_hal_rcc.c ****   /* Check the parameters */
 521:Drivers/STM32F3xx_HAL_Driver/Src/stm32f3xx_hal_rcc.c ****   assert_param(IS_RCC_PLL(RCC_OscInitStruct->PLL.PLLState));
 1401              		.loc 1 521 3 is_stmt 1 view .LVU399
 522:Drivers/STM32F3xx_HAL_Driver/Src/stm32f3xx_hal_rcc.c ****   if ((RCC_OscInitStruct->PLL.PLLState) != RCC_PLL_NONE)
 1402              		.loc 1 522 3 view .LVU400
 1403              		.loc 1 522 30 is_stmt 0 view .LVU401
 1404 0494 A369     		ldr	r3, [r4, #24]
 1405              		.loc 1 522 6 view .LVU402
 1406 0496 002B     		cmp	r3, #0
 1407 0498 00F0A880 		beq	.L89
 523:Drivers/STM32F3xx_HAL_Driver/Src/stm32f3xx_hal_rcc.c ****   {
 524:Drivers/STM32F3xx_HAL_Driver/Src/stm32f3xx_hal_rcc.c ****     /* Check if the PLL is used as system clock or not */
 525:Drivers/STM32F3xx_HAL_Driver/Src/stm32f3xx_hal_rcc.c ****     if(__HAL_RCC_GET_SYSCLK_SOURCE() != RCC_SYSCLKSOURCE_STATUS_PLLCLK)
 1408              		.loc 1 525 5 is_stmt 1 view .LVU403
 1409              		.loc 1 525 8 is_stmt 0 view .LVU404
 1410 049c 564A     		ldr	r2, .L111
 1411 049e 5268     		ldr	r2, [r2, #4]
 1412 04a0 02F00C02 		and	r2, r2, #12
 1413              		.loc 1 525 7 view .LVU405
 1414 04a4 082A     		cmp	r2, #8
 1415 04a6 00F0A480 		beq	.L90
 526:Drivers/STM32F3xx_HAL_Driver/Src/stm32f3xx_hal_rcc.c ****     { 
 527:Drivers/STM32F3xx_HAL_Driver/Src/stm32f3xx_hal_rcc.c ****       if((RCC_OscInitStruct->PLL.PLLState) == RCC_PLL_ON)
 1416              		.loc 1 527 7 is_stmt 1 view .LVU406
 1417              		.loc 1 527 9 is_stmt 0 view .LVU407
 1418 04aa 022B     		cmp	r3, #2
 1419 04ac 2FD0     		beq	.L105
 528:Drivers/STM32F3xx_HAL_Driver/Src/stm32f3xx_hal_rcc.c ****       {
 529:Drivers/STM32F3xx_HAL_Driver/Src/stm32f3xx_hal_rcc.c ****         /* Check the parameters */
 530:Drivers/STM32F3xx_HAL_Driver/Src/stm32f3xx_hal_rcc.c ****         assert_param(IS_RCC_PLLSOURCE(RCC_OscInitStruct->PLL.PLLSource));
 531:Drivers/STM32F3xx_HAL_Driver/Src/stm32f3xx_hal_rcc.c ****         assert_param(IS_RCC_PLL_MUL(RCC_OscInitStruct->PLL.PLLMUL));
 532:Drivers/STM32F3xx_HAL_Driver/Src/stm32f3xx_hal_rcc.c **** #if   defined(RCC_CFGR_PLLSRC_HSI_PREDIV)
 533:Drivers/STM32F3xx_HAL_Driver/Src/stm32f3xx_hal_rcc.c ****         assert_param(IS_RCC_PREDIV(RCC_OscInitStruct->PLL.PREDIV));
ARM GAS  /var/folders/8c/gyvcglfx7f97kbqb2h83mm_r0000gn/T//cc6V9BzC.s 			page 48


 534:Drivers/STM32F3xx_HAL_Driver/Src/stm32f3xx_hal_rcc.c **** #endif
 535:Drivers/STM32F3xx_HAL_Driver/Src/stm32f3xx_hal_rcc.c ****   
 536:Drivers/STM32F3xx_HAL_Driver/Src/stm32f3xx_hal_rcc.c ****         /* Disable the main PLL. */
 537:Drivers/STM32F3xx_HAL_Driver/Src/stm32f3xx_hal_rcc.c ****         __HAL_RCC_PLL_DISABLE();
 538:Drivers/STM32F3xx_HAL_Driver/Src/stm32f3xx_hal_rcc.c ****         
 539:Drivers/STM32F3xx_HAL_Driver/Src/stm32f3xx_hal_rcc.c ****         /* Get Start Tick */
 540:Drivers/STM32F3xx_HAL_Driver/Src/stm32f3xx_hal_rcc.c ****         tickstart = HAL_GetTick();
 541:Drivers/STM32F3xx_HAL_Driver/Src/stm32f3xx_hal_rcc.c ****         
 542:Drivers/STM32F3xx_HAL_Driver/Src/stm32f3xx_hal_rcc.c ****         /* Wait till PLL is disabled */
 543:Drivers/STM32F3xx_HAL_Driver/Src/stm32f3xx_hal_rcc.c ****         while(__HAL_RCC_GET_FLAG(RCC_FLAG_PLLRDY)  != RESET)
 544:Drivers/STM32F3xx_HAL_Driver/Src/stm32f3xx_hal_rcc.c ****         {
 545:Drivers/STM32F3xx_HAL_Driver/Src/stm32f3xx_hal_rcc.c ****           if((HAL_GetTick() - tickstart ) > PLL_TIMEOUT_VALUE)
 546:Drivers/STM32F3xx_HAL_Driver/Src/stm32f3xx_hal_rcc.c ****           {
 547:Drivers/STM32F3xx_HAL_Driver/Src/stm32f3xx_hal_rcc.c ****             return HAL_TIMEOUT;
 548:Drivers/STM32F3xx_HAL_Driver/Src/stm32f3xx_hal_rcc.c ****           }
 549:Drivers/STM32F3xx_HAL_Driver/Src/stm32f3xx_hal_rcc.c ****         }
 550:Drivers/STM32F3xx_HAL_Driver/Src/stm32f3xx_hal_rcc.c **** 
 551:Drivers/STM32F3xx_HAL_Driver/Src/stm32f3xx_hal_rcc.c **** #if defined(RCC_CFGR_PLLSRC_HSI_PREDIV)
 552:Drivers/STM32F3xx_HAL_Driver/Src/stm32f3xx_hal_rcc.c ****         /* Configure the main PLL clock source, predivider and multiplication factor. */
 553:Drivers/STM32F3xx_HAL_Driver/Src/stm32f3xx_hal_rcc.c ****         __HAL_RCC_PLL_CONFIG(RCC_OscInitStruct->PLL.PLLSource,
 554:Drivers/STM32F3xx_HAL_Driver/Src/stm32f3xx_hal_rcc.c ****                              RCC_OscInitStruct->PLL.PREDIV,
 555:Drivers/STM32F3xx_HAL_Driver/Src/stm32f3xx_hal_rcc.c ****                              RCC_OscInitStruct->PLL.PLLMUL);
 556:Drivers/STM32F3xx_HAL_Driver/Src/stm32f3xx_hal_rcc.c **** #else
 557:Drivers/STM32F3xx_HAL_Driver/Src/stm32f3xx_hal_rcc.c ****       /* Configure the main PLL clock source and multiplication factor. */
 558:Drivers/STM32F3xx_HAL_Driver/Src/stm32f3xx_hal_rcc.c ****       __HAL_RCC_PLL_CONFIG(RCC_OscInitStruct->PLL.PLLSource,
 559:Drivers/STM32F3xx_HAL_Driver/Src/stm32f3xx_hal_rcc.c ****                            RCC_OscInitStruct->PLL.PLLMUL);
 560:Drivers/STM32F3xx_HAL_Driver/Src/stm32f3xx_hal_rcc.c **** #endif /* RCC_CFGR_PLLSRC_HSI_PREDIV */
 561:Drivers/STM32F3xx_HAL_Driver/Src/stm32f3xx_hal_rcc.c ****         /* Enable the main PLL. */
 562:Drivers/STM32F3xx_HAL_Driver/Src/stm32f3xx_hal_rcc.c ****         __HAL_RCC_PLL_ENABLE();
 563:Drivers/STM32F3xx_HAL_Driver/Src/stm32f3xx_hal_rcc.c ****         
 564:Drivers/STM32F3xx_HAL_Driver/Src/stm32f3xx_hal_rcc.c ****         /* Get Start Tick */
 565:Drivers/STM32F3xx_HAL_Driver/Src/stm32f3xx_hal_rcc.c ****         tickstart = HAL_GetTick();
 566:Drivers/STM32F3xx_HAL_Driver/Src/stm32f3xx_hal_rcc.c ****         
 567:Drivers/STM32F3xx_HAL_Driver/Src/stm32f3xx_hal_rcc.c ****         /* Wait till PLL is ready */
 568:Drivers/STM32F3xx_HAL_Driver/Src/stm32f3xx_hal_rcc.c ****         while(__HAL_RCC_GET_FLAG(RCC_FLAG_PLLRDY)  == RESET)
 569:Drivers/STM32F3xx_HAL_Driver/Src/stm32f3xx_hal_rcc.c ****         {
 570:Drivers/STM32F3xx_HAL_Driver/Src/stm32f3xx_hal_rcc.c ****           if((HAL_GetTick() - tickstart ) > PLL_TIMEOUT_VALUE)
 571:Drivers/STM32F3xx_HAL_Driver/Src/stm32f3xx_hal_rcc.c ****           {
 572:Drivers/STM32F3xx_HAL_Driver/Src/stm32f3xx_hal_rcc.c ****             return HAL_TIMEOUT;
 573:Drivers/STM32F3xx_HAL_Driver/Src/stm32f3xx_hal_rcc.c ****           }
 574:Drivers/STM32F3xx_HAL_Driver/Src/stm32f3xx_hal_rcc.c ****         }
 575:Drivers/STM32F3xx_HAL_Driver/Src/stm32f3xx_hal_rcc.c ****       }
 576:Drivers/STM32F3xx_HAL_Driver/Src/stm32f3xx_hal_rcc.c ****       else
 577:Drivers/STM32F3xx_HAL_Driver/Src/stm32f3xx_hal_rcc.c ****       {
 578:Drivers/STM32F3xx_HAL_Driver/Src/stm32f3xx_hal_rcc.c ****         /* Disable the main PLL. */
 579:Drivers/STM32F3xx_HAL_Driver/Src/stm32f3xx_hal_rcc.c ****         __HAL_RCC_PLL_DISABLE();
 1420              		.loc 1 579 9 is_stmt 1 view .LVU408
 1421              	.LVL99:
 1422              	.LBB236:
 1423              	.LBI236:
 526:Drivers/CMSIS/Include/cmsis_gcc.h **** {
 1424              		.loc 2 526 57 view .LVU409
 1425              	.LBB237:
 528:Drivers/CMSIS/Include/cmsis_gcc.h **** 
 1426              		.loc 2 528 3 view .LVU410
 531:Drivers/CMSIS/Include/cmsis_gcc.h **** #else
 1427              		.loc 2 531 4 view .LVU411
ARM GAS  /var/folders/8c/gyvcglfx7f97kbqb2h83mm_r0000gn/T//cc6V9BzC.s 			page 49


 1428 04ae 4FF08073 		mov	r3, #16777216
 1429              		.syntax unified
 1430              	@ 531 "Drivers/CMSIS/Include/cmsis_gcc.h" 1
 1431 04b2 93FAA3F3 		rbit r3, r3
 1432              	@ 0 "" 2
 1433              	.LVL100:
 1434              		.loc 2 544 3 view .LVU412
 1435              		.loc 2 544 3 is_stmt 0 view .LVU413
 1436              		.thumb
 1437              		.syntax unified
 1438              	.LBE237:
 1439              	.LBE236:
 1440              		.loc 1 579 9 view .LVU414
 1441 04b6 B3FA83F3 		clz	r3, r3
 1442 04ba 03F18453 		add	r3, r3, #276824064
 1443 04be 03F58413 		add	r3, r3, #1081344
 1444 04c2 9B00     		lsls	r3, r3, #2
 1445 04c4 0022     		movs	r2, #0
 1446 04c6 1A60     		str	r2, [r3]
 580:Drivers/STM32F3xx_HAL_Driver/Src/stm32f3xx_hal_rcc.c ****  
 581:Drivers/STM32F3xx_HAL_Driver/Src/stm32f3xx_hal_rcc.c ****         /* Get Start Tick */
 582:Drivers/STM32F3xx_HAL_Driver/Src/stm32f3xx_hal_rcc.c ****         tickstart = HAL_GetTick();
 1447              		.loc 1 582 9 is_stmt 1 view .LVU415
 1448              		.loc 1 582 21 is_stmt 0 view .LVU416
 1449 04c8 FFF7FEFF 		bl	HAL_GetTick
 1450              	.LVL101:
 1451 04cc 0446     		mov	r4, r0
 1452              	.LVL102:
 583:Drivers/STM32F3xx_HAL_Driver/Src/stm32f3xx_hal_rcc.c ****         
 584:Drivers/STM32F3xx_HAL_Driver/Src/stm32f3xx_hal_rcc.c ****         /* Wait till PLL is disabled */  
 585:Drivers/STM32F3xx_HAL_Driver/Src/stm32f3xx_hal_rcc.c ****         while(__HAL_RCC_GET_FLAG(RCC_FLAG_PLLRDY)  != RESET)
 1453              		.loc 1 585 9 is_stmt 1 view .LVU417
 1454              	.L73:
 1455              	.LBB238:
 1456              	.LBI238:
 526:Drivers/CMSIS/Include/cmsis_gcc.h **** {
 1457              		.loc 2 526 57 view .LVU418
 1458              	.LBB239:
 528:Drivers/CMSIS/Include/cmsis_gcc.h **** 
 1459              		.loc 2 528 3 view .LVU419
 531:Drivers/CMSIS/Include/cmsis_gcc.h **** #else
 1460              		.loc 2 531 4 view .LVU420
 1461 04ce 4FF00073 		mov	r3, #33554432
 1462              		.syntax unified
 1463              	@ 531 "Drivers/CMSIS/Include/cmsis_gcc.h" 1
 1464 04d2 93FAA3F3 		rbit r3, r3
 1465              	@ 0 "" 2
 1466              		.loc 2 544 3 view .LVU421
 1467              	.LVL103:
 1468              		.loc 2 544 3 is_stmt 0 view .LVU422
 1469              		.thumb
 1470              		.syntax unified
 1471              	.LBE239:
 1472              	.LBE238:
 1473              		.loc 1 585 15 view .LVU423
 1474 04d6 484B     		ldr	r3, .L111
 1475 04d8 1968     		ldr	r1, [r3]
ARM GAS  /var/folders/8c/gyvcglfx7f97kbqb2h83mm_r0000gn/T//cc6V9BzC.s 			page 50


 1476              	.LVL104:
 1477              	.LBB240:
 1478              	.LBI240:
 526:Drivers/CMSIS/Include/cmsis_gcc.h **** {
 1479              		.loc 2 526 57 is_stmt 1 view .LVU424
 1480              	.LBB241:
 528:Drivers/CMSIS/Include/cmsis_gcc.h **** 
 1481              		.loc 2 528 3 view .LVU425
 531:Drivers/CMSIS/Include/cmsis_gcc.h **** #else
 1482              		.loc 2 531 4 view .LVU426
 1483 04da 4FF00073 		mov	r3, #33554432
 1484              		.syntax unified
 1485              	@ 531 "Drivers/CMSIS/Include/cmsis_gcc.h" 1
 1486 04de 93FAA3F3 		rbit r3, r3
 1487              	@ 0 "" 2
 1488              	.LVL105:
 1489              		.loc 2 544 3 view .LVU427
 1490              		.loc 2 544 3 is_stmt 0 view .LVU428
 1491              		.thumb
 1492              		.syntax unified
 1493              	.LBE241:
 1494              	.LBE240:
 1495              		.loc 1 585 15 view .LVU429
 1496 04e2 B3FA83F3 		clz	r3, r3
 1497 04e6 03F01F03 		and	r3, r3, #31
 1498 04ea 0122     		movs	r2, #1
 1499 04ec 02FA03F3 		lsl	r3, r2, r3
 1500              		.loc 1 585 14 view .LVU430
 1501 04f0 1942     		tst	r1, r3
 1502 04f2 71D0     		beq	.L106
 586:Drivers/STM32F3xx_HAL_Driver/Src/stm32f3xx_hal_rcc.c ****         {
 587:Drivers/STM32F3xx_HAL_Driver/Src/stm32f3xx_hal_rcc.c ****           if((HAL_GetTick() - tickstart ) > PLL_TIMEOUT_VALUE)
 1503              		.loc 1 587 11 is_stmt 1 view .LVU431
 1504              		.loc 1 587 15 is_stmt 0 view .LVU432
 1505 04f4 FFF7FEFF 		bl	HAL_GetTick
 1506              	.LVL106:
 1507              		.loc 1 587 29 view .LVU433
 1508 04f8 001B     		subs	r0, r0, r4
 1509              		.loc 1 587 13 view .LVU434
 1510 04fa 0228     		cmp	r0, #2
 1511 04fc E7D9     		bls	.L73
 588:Drivers/STM32F3xx_HAL_Driver/Src/stm32f3xx_hal_rcc.c ****           {
 589:Drivers/STM32F3xx_HAL_Driver/Src/stm32f3xx_hal_rcc.c ****             return HAL_TIMEOUT;
 1512              		.loc 1 589 20 view .LVU435
 1513 04fe 0320     		movs	r0, #3
 1514 0500 75E0     		b	.L10
 1515              	.LVL107:
 1516              	.L104:
 1517              	.LBB242:
 515:Drivers/STM32F3xx_HAL_Driver/Src/stm32f3xx_hal_rcc.c ****     }
 1518              		.loc 1 515 7 is_stmt 1 view .LVU436
 1519 0502 3D4A     		ldr	r2, .L111
 1520 0504 D369     		ldr	r3, [r2, #28]
 1521 0506 23F08053 		bic	r3, r3, #268435456
 1522 050a D361     		str	r3, [r2, #28]
 1523 050c C2E7     		b	.L45
 1524              	.LVL108:
ARM GAS  /var/folders/8c/gyvcglfx7f97kbqb2h83mm_r0000gn/T//cc6V9BzC.s 			page 51


 1525              	.L105:
 515:Drivers/STM32F3xx_HAL_Driver/Src/stm32f3xx_hal_rcc.c ****     }
 1526              		.loc 1 515 7 is_stmt 0 view .LVU437
 1527              	.LBE242:
 530:Drivers/STM32F3xx_HAL_Driver/Src/stm32f3xx_hal_rcc.c ****         assert_param(IS_RCC_PLL_MUL(RCC_OscInitStruct->PLL.PLLMUL));
 1528              		.loc 1 530 9 is_stmt 1 view .LVU438
 531:Drivers/STM32F3xx_HAL_Driver/Src/stm32f3xx_hal_rcc.c **** #if   defined(RCC_CFGR_PLLSRC_HSI_PREDIV)
 1529              		.loc 1 531 9 view .LVU439
 533:Drivers/STM32F3xx_HAL_Driver/Src/stm32f3xx_hal_rcc.c **** #endif
 1530              		.loc 1 533 9 view .LVU440
 537:Drivers/STM32F3xx_HAL_Driver/Src/stm32f3xx_hal_rcc.c ****         
 1531              		.loc 1 537 9 view .LVU441
 1532              	.LBB243:
 1533              	.LBI243:
 526:Drivers/CMSIS/Include/cmsis_gcc.h **** {
 1534              		.loc 2 526 57 view .LVU442
 1535              	.LBB244:
 528:Drivers/CMSIS/Include/cmsis_gcc.h **** 
 1536              		.loc 2 528 3 view .LVU443
 531:Drivers/CMSIS/Include/cmsis_gcc.h **** #else
 1537              		.loc 2 531 4 view .LVU444
 1538 050e 4FF08073 		mov	r3, #16777216
 1539              		.syntax unified
 1540              	@ 531 "Drivers/CMSIS/Include/cmsis_gcc.h" 1
 1541 0512 93FAA3F3 		rbit r3, r3
 1542              	@ 0 "" 2
 1543              	.LVL109:
 1544              		.loc 2 544 3 view .LVU445
 1545              		.loc 2 544 3 is_stmt 0 view .LVU446
 1546              		.thumb
 1547              		.syntax unified
 1548              	.LBE244:
 1549              	.LBE243:
 537:Drivers/STM32F3xx_HAL_Driver/Src/stm32f3xx_hal_rcc.c ****         
 1550              		.loc 1 537 9 view .LVU447
 1551 0516 B3FA83F3 		clz	r3, r3
 1552 051a 03F18453 		add	r3, r3, #276824064
 1553 051e 03F58413 		add	r3, r3, #1081344
 1554 0522 9B00     		lsls	r3, r3, #2
 1555 0524 0022     		movs	r2, #0
 1556 0526 1A60     		str	r2, [r3]
 540:Drivers/STM32F3xx_HAL_Driver/Src/stm32f3xx_hal_rcc.c ****         
 1557              		.loc 1 540 9 is_stmt 1 view .LVU448
 540:Drivers/STM32F3xx_HAL_Driver/Src/stm32f3xx_hal_rcc.c ****         
 1558              		.loc 1 540 21 is_stmt 0 view .LVU449
 1559 0528 FFF7FEFF 		bl	HAL_GetTick
 1560              	.LVL110:
 1561 052c 0546     		mov	r5, r0
 1562              	.LVL111:
 543:Drivers/STM32F3xx_HAL_Driver/Src/stm32f3xx_hal_rcc.c ****         {
 1563              		.loc 1 543 9 is_stmt 1 view .LVU450
 1564              	.L65:
 1565              	.LBB245:
 1566              	.LBI245:
 526:Drivers/CMSIS/Include/cmsis_gcc.h **** {
 1567              		.loc 2 526 57 view .LVU451
 1568              	.LBB246:
ARM GAS  /var/folders/8c/gyvcglfx7f97kbqb2h83mm_r0000gn/T//cc6V9BzC.s 			page 52


 528:Drivers/CMSIS/Include/cmsis_gcc.h **** 
 1569              		.loc 2 528 3 view .LVU452
 531:Drivers/CMSIS/Include/cmsis_gcc.h **** #else
 1570              		.loc 2 531 4 view .LVU453
 1571 052e 4FF00073 		mov	r3, #33554432
 1572              		.syntax unified
 1573              	@ 531 "Drivers/CMSIS/Include/cmsis_gcc.h" 1
 1574 0532 93FAA3F3 		rbit r3, r3
 1575              	@ 0 "" 2
 1576              		.loc 2 544 3 view .LVU454
 1577              	.LVL112:
 1578              		.loc 2 544 3 is_stmt 0 view .LVU455
 1579              		.thumb
 1580              		.syntax unified
 1581              	.LBE246:
 1582              	.LBE245:
 543:Drivers/STM32F3xx_HAL_Driver/Src/stm32f3xx_hal_rcc.c ****         {
 1583              		.loc 1 543 15 view .LVU456
 1584 0536 304B     		ldr	r3, .L111
 1585 0538 1968     		ldr	r1, [r3]
 1586              	.LVL113:
 1587              	.LBB247:
 1588              	.LBI247:
 526:Drivers/CMSIS/Include/cmsis_gcc.h **** {
 1589              		.loc 2 526 57 is_stmt 1 view .LVU457
 1590              	.LBB248:
 528:Drivers/CMSIS/Include/cmsis_gcc.h **** 
 1591              		.loc 2 528 3 view .LVU458
 531:Drivers/CMSIS/Include/cmsis_gcc.h **** #else
 1592              		.loc 2 531 4 view .LVU459
 1593 053a 4FF00073 		mov	r3, #33554432
 1594              		.syntax unified
 1595              	@ 531 "Drivers/CMSIS/Include/cmsis_gcc.h" 1
 1596 053e 93FAA3F3 		rbit r3, r3
 1597              	@ 0 "" 2
 1598              	.LVL114:
 1599              		.loc 2 544 3 view .LVU460
 1600              		.loc 2 544 3 is_stmt 0 view .LVU461
 1601              		.thumb
 1602              		.syntax unified
 1603              	.LBE248:
 1604              	.LBE247:
 543:Drivers/STM32F3xx_HAL_Driver/Src/stm32f3xx_hal_rcc.c ****         {
 1605              		.loc 1 543 15 view .LVU462
 1606 0542 B3FA83F3 		clz	r3, r3
 1607 0546 03F01F03 		and	r3, r3, #31
 1608 054a 0122     		movs	r2, #1
 1609 054c 02FA03F3 		lsl	r3, r2, r3
 543:Drivers/STM32F3xx_HAL_Driver/Src/stm32f3xx_hal_rcc.c ****         {
 1610              		.loc 1 543 14 view .LVU463
 1611 0550 1942     		tst	r1, r3
 1612 0552 06D0     		beq	.L107
 545:Drivers/STM32F3xx_HAL_Driver/Src/stm32f3xx_hal_rcc.c ****           {
 1613              		.loc 1 545 11 is_stmt 1 view .LVU464
 545:Drivers/STM32F3xx_HAL_Driver/Src/stm32f3xx_hal_rcc.c ****           {
 1614              		.loc 1 545 15 is_stmt 0 view .LVU465
 1615 0554 FFF7FEFF 		bl	HAL_GetTick
ARM GAS  /var/folders/8c/gyvcglfx7f97kbqb2h83mm_r0000gn/T//cc6V9BzC.s 			page 53


 1616              	.LVL115:
 545:Drivers/STM32F3xx_HAL_Driver/Src/stm32f3xx_hal_rcc.c ****           {
 1617              		.loc 1 545 29 view .LVU466
 1618 0558 401B     		subs	r0, r0, r5
 545:Drivers/STM32F3xx_HAL_Driver/Src/stm32f3xx_hal_rcc.c ****           {
 1619              		.loc 1 545 13 view .LVU467
 1620 055a 0228     		cmp	r0, #2
 1621 055c E7D9     		bls	.L65
 547:Drivers/STM32F3xx_HAL_Driver/Src/stm32f3xx_hal_rcc.c ****           }
 1622              		.loc 1 547 20 view .LVU468
 1623 055e 0320     		movs	r0, #3
 1624 0560 45E0     		b	.L10
 1625              	.L107:
 553:Drivers/STM32F3xx_HAL_Driver/Src/stm32f3xx_hal_rcc.c ****                              RCC_OscInitStruct->PLL.PREDIV,
 1626              		.loc 1 553 9 is_stmt 1 view .LVU469
 553:Drivers/STM32F3xx_HAL_Driver/Src/stm32f3xx_hal_rcc.c ****                              RCC_OscInitStruct->PLL.PREDIV,
 1627              		.loc 1 553 9 view .LVU470
 1628 0562 254A     		ldr	r2, .L111
 1629 0564 D36A     		ldr	r3, [r2, #44]
 1630 0566 23F00F03 		bic	r3, r3, #15
 1631 056a 616A     		ldr	r1, [r4, #36]
 1632 056c 0B43     		orrs	r3, r3, r1
 1633 056e D362     		str	r3, [r2, #44]
 553:Drivers/STM32F3xx_HAL_Driver/Src/stm32f3xx_hal_rcc.c ****                              RCC_OscInitStruct->PLL.PREDIV,
 1634              		.loc 1 553 9 view .LVU471
 1635 0570 5368     		ldr	r3, [r2, #4]
 1636 0572 23F47613 		bic	r3, r3, #4030464
 1637 0576 216A     		ldr	r1, [r4, #32]
 1638 0578 E069     		ldr	r0, [r4, #28]
 1639 057a 0143     		orrs	r1, r1, r0
 1640 057c 0B43     		orrs	r3, r3, r1
 1641 057e 5360     		str	r3, [r2, #4]
 562:Drivers/STM32F3xx_HAL_Driver/Src/stm32f3xx_hal_rcc.c ****         
 1642              		.loc 1 562 9 view .LVU472
 1643              	.LVL116:
 1644              	.LBB249:
 1645              	.LBI249:
 526:Drivers/CMSIS/Include/cmsis_gcc.h **** {
 1646              		.loc 2 526 57 view .LVU473
 1647              	.LBB250:
 528:Drivers/CMSIS/Include/cmsis_gcc.h **** 
 1648              		.loc 2 528 3 view .LVU474
 531:Drivers/CMSIS/Include/cmsis_gcc.h **** #else
 1649              		.loc 2 531 4 view .LVU475
 1650 0580 4FF08073 		mov	r3, #16777216
 1651              		.syntax unified
 1652              	@ 531 "Drivers/CMSIS/Include/cmsis_gcc.h" 1
 1653 0584 93FAA3F3 		rbit r3, r3
 1654              	@ 0 "" 2
 1655              	.LVL117:
 1656              		.loc 2 544 3 view .LVU476
 1657              		.loc 2 544 3 is_stmt 0 view .LVU477
 1658              		.thumb
 1659              		.syntax unified
 1660              	.LBE250:
 1661              	.LBE249:
 562:Drivers/STM32F3xx_HAL_Driver/Src/stm32f3xx_hal_rcc.c ****         
ARM GAS  /var/folders/8c/gyvcglfx7f97kbqb2h83mm_r0000gn/T//cc6V9BzC.s 			page 54


 1662              		.loc 1 562 9 view .LVU478
 1663 0588 B3FA83F3 		clz	r3, r3
 1664 058c 03F18453 		add	r3, r3, #276824064
 1665 0590 03F58413 		add	r3, r3, #1081344
 1666 0594 9B00     		lsls	r3, r3, #2
 1667 0596 0122     		movs	r2, #1
 1668 0598 1A60     		str	r2, [r3]
 565:Drivers/STM32F3xx_HAL_Driver/Src/stm32f3xx_hal_rcc.c ****         
 1669              		.loc 1 565 9 is_stmt 1 view .LVU479
 565:Drivers/STM32F3xx_HAL_Driver/Src/stm32f3xx_hal_rcc.c ****         
 1670              		.loc 1 565 21 is_stmt 0 view .LVU480
 1671 059a FFF7FEFF 		bl	HAL_GetTick
 1672              	.LVL118:
 1673 059e 0446     		mov	r4, r0
 1674              	.LVL119:
 568:Drivers/STM32F3xx_HAL_Driver/Src/stm32f3xx_hal_rcc.c ****         {
 1675              		.loc 1 568 9 is_stmt 1 view .LVU481
 1676              	.L69:
 1677              	.LBB251:
 1678              	.LBI251:
 526:Drivers/CMSIS/Include/cmsis_gcc.h **** {
 1679              		.loc 2 526 57 view .LVU482
 1680              	.LBB252:
 528:Drivers/CMSIS/Include/cmsis_gcc.h **** 
 1681              		.loc 2 528 3 view .LVU483
 531:Drivers/CMSIS/Include/cmsis_gcc.h **** #else
 1682              		.loc 2 531 4 view .LVU484
 1683 05a0 4FF00073 		mov	r3, #33554432
 1684              		.syntax unified
 1685              	@ 531 "Drivers/CMSIS/Include/cmsis_gcc.h" 1
 1686 05a4 93FAA3F3 		rbit r3, r3
 1687              	@ 0 "" 2
 1688              		.loc 2 544 3 view .LVU485
 1689              	.LVL120:
 1690              		.loc 2 544 3 is_stmt 0 view .LVU486
 1691              		.thumb
 1692              		.syntax unified
 1693              	.LBE252:
 1694              	.LBE251:
 568:Drivers/STM32F3xx_HAL_Driver/Src/stm32f3xx_hal_rcc.c ****         {
 1695              		.loc 1 568 15 view .LVU487
 1696 05a8 134B     		ldr	r3, .L111
 1697 05aa 1968     		ldr	r1, [r3]
 1698              	.LVL121:
 1699              	.LBB253:
 1700              	.LBI253:
 526:Drivers/CMSIS/Include/cmsis_gcc.h **** {
 1701              		.loc 2 526 57 is_stmt 1 view .LVU488
 1702              	.LBB254:
 528:Drivers/CMSIS/Include/cmsis_gcc.h **** 
 1703              		.loc 2 528 3 view .LVU489
 531:Drivers/CMSIS/Include/cmsis_gcc.h **** #else
 1704              		.loc 2 531 4 view .LVU490
 1705 05ac 4FF00073 		mov	r3, #33554432
 1706              		.syntax unified
 1707              	@ 531 "Drivers/CMSIS/Include/cmsis_gcc.h" 1
 1708 05b0 93FAA3F3 		rbit r3, r3
ARM GAS  /var/folders/8c/gyvcglfx7f97kbqb2h83mm_r0000gn/T//cc6V9BzC.s 			page 55


 1709              	@ 0 "" 2
 1710              	.LVL122:
 1711              		.loc 2 544 3 view .LVU491
 1712              		.loc 2 544 3 is_stmt 0 view .LVU492
 1713              		.thumb
 1714              		.syntax unified
 1715              	.LBE254:
 1716              	.LBE253:
 568:Drivers/STM32F3xx_HAL_Driver/Src/stm32f3xx_hal_rcc.c ****         {
 1717              		.loc 1 568 15 view .LVU493
 1718 05b4 B3FA83F3 		clz	r3, r3
 1719 05b8 03F01F03 		and	r3, r3, #31
 1720 05bc 0122     		movs	r2, #1
 1721 05be 02FA03F3 		lsl	r3, r2, r3
 568:Drivers/STM32F3xx_HAL_Driver/Src/stm32f3xx_hal_rcc.c ****         {
 1722              		.loc 1 568 14 view .LVU494
 1723 05c2 1942     		tst	r1, r3
 1724 05c4 06D1     		bne	.L108
 570:Drivers/STM32F3xx_HAL_Driver/Src/stm32f3xx_hal_rcc.c ****           {
 1725              		.loc 1 570 11 is_stmt 1 view .LVU495
 570:Drivers/STM32F3xx_HAL_Driver/Src/stm32f3xx_hal_rcc.c ****           {
 1726              		.loc 1 570 15 is_stmt 0 view .LVU496
 1727 05c6 FFF7FEFF 		bl	HAL_GetTick
 1728              	.LVL123:
 570:Drivers/STM32F3xx_HAL_Driver/Src/stm32f3xx_hal_rcc.c ****           {
 1729              		.loc 1 570 29 view .LVU497
 1730 05ca 001B     		subs	r0, r0, r4
 570:Drivers/STM32F3xx_HAL_Driver/Src/stm32f3xx_hal_rcc.c ****           {
 1731              		.loc 1 570 13 view .LVU498
 1732 05cc 0228     		cmp	r0, #2
 1733 05ce E7D9     		bls	.L69
 572:Drivers/STM32F3xx_HAL_Driver/Src/stm32f3xx_hal_rcc.c ****           }
 1734              		.loc 1 572 20 view .LVU499
 1735 05d0 0320     		movs	r0, #3
 1736 05d2 0CE0     		b	.L10
 1737              	.L108:
 590:Drivers/STM32F3xx_HAL_Driver/Src/stm32f3xx_hal_rcc.c ****           }
 591:Drivers/STM32F3xx_HAL_Driver/Src/stm32f3xx_hal_rcc.c ****         }
 592:Drivers/STM32F3xx_HAL_Driver/Src/stm32f3xx_hal_rcc.c ****       }
 593:Drivers/STM32F3xx_HAL_Driver/Src/stm32f3xx_hal_rcc.c ****     }
 594:Drivers/STM32F3xx_HAL_Driver/Src/stm32f3xx_hal_rcc.c ****     else
 595:Drivers/STM32F3xx_HAL_Driver/Src/stm32f3xx_hal_rcc.c ****     {
 596:Drivers/STM32F3xx_HAL_Driver/Src/stm32f3xx_hal_rcc.c ****       return HAL_ERROR;
 597:Drivers/STM32F3xx_HAL_Driver/Src/stm32f3xx_hal_rcc.c ****     }
 598:Drivers/STM32F3xx_HAL_Driver/Src/stm32f3xx_hal_rcc.c ****   }
 599:Drivers/STM32F3xx_HAL_Driver/Src/stm32f3xx_hal_rcc.c ****   
 600:Drivers/STM32F3xx_HAL_Driver/Src/stm32f3xx_hal_rcc.c ****   return HAL_OK;
 1738              		.loc 1 600 10 view .LVU500
 1739 05d4 0020     		movs	r0, #0
 1740 05d6 0AE0     		b	.L10
 1741              	.L106:
 1742              		.loc 1 600 10 view .LVU501
 1743 05d8 0020     		movs	r0, #0
 1744 05da 08E0     		b	.L10
 1745              	.LVL124:
 1746              	.L97:
 296:Drivers/STM32F3xx_HAL_Driver/Src/stm32f3xx_hal_rcc.c ****       }
ARM GAS  /var/folders/8c/gyvcglfx7f97kbqb2h83mm_r0000gn/T//cc6V9BzC.s 			page 56


 1747              		.loc 1 296 16 view .LVU502
 1748 05dc 0120     		movs	r0, #1
 1749              	.LVL125:
 296:Drivers/STM32F3xx_HAL_Driver/Src/stm32f3xx_hal_rcc.c ****       }
 1750              		.loc 1 296 16 view .LVU503
 1751 05de 06E0     		b	.L10
 1752              	.LVL126:
 1753              	.L80:
 354:Drivers/STM32F3xx_HAL_Driver/Src/stm32f3xx_hal_rcc.c ****       }
 1754              		.loc 1 354 16 view .LVU504
 1755 05e0 0120     		movs	r0, #1
 1756 05e2 04E0     		b	.L10
 1757              	.LVL127:
 1758              	.L87:
 1759              	.LBB255:
 493:Drivers/STM32F3xx_HAL_Driver/Src/stm32f3xx_hal_rcc.c ****         }
 1760              		.loc 1 493 18 view .LVU505
 1761 05e4 0320     		movs	r0, #3
 1762 05e6 02E0     		b	.L10
 1763              	.L88:
 507:Drivers/STM32F3xx_HAL_Driver/Src/stm32f3xx_hal_rcc.c ****         }
 1764              		.loc 1 507 18 view .LVU506
 1765 05e8 0320     		movs	r0, #3
 1766 05ea 00E0     		b	.L10
 1767              	.LVL128:
 1768              	.L89:
 507:Drivers/STM32F3xx_HAL_Driver/Src/stm32f3xx_hal_rcc.c ****         }
 1769              		.loc 1 507 18 view .LVU507
 1770              	.LBE255:
 1771              		.loc 1 600 10 view .LVU508
 1772 05ec 0020     		movs	r0, #0
 1773              	.LVL129:
 1774              	.L10:
 601:Drivers/STM32F3xx_HAL_Driver/Src/stm32f3xx_hal_rcc.c **** }
 1775              		.loc 1 601 1 view .LVU509
 1776 05ee 02B0     		add	sp, sp, #8
 1777              	.LCFI2:
 1778              		.cfi_remember_state
 1779              		.cfi_def_cfa_offset 16
 1780              		@ sp needed
 1781 05f0 70BD     		pop	{r4, r5, r6, pc}
 1782              	.LVL130:
 1783              	.L90:
 1784              	.LCFI3:
 1785              		.cfi_restore_state
 596:Drivers/STM32F3xx_HAL_Driver/Src/stm32f3xx_hal_rcc.c ****     }
 1786              		.loc 1 596 14 view .LVU510
 1787 05f2 0120     		movs	r0, #1
 1788 05f4 FBE7     		b	.L10
 1789              	.L112:
 1790 05f6 00BF     		.align	2
 1791              	.L111:
 1792 05f8 00100240 		.word	1073876992
 1793 05fc 00700040 		.word	1073770496
 1794              		.cfi_endproc
 1795              	.LFE127:
 1797              		.section	.text.HAL_RCC_MCOConfig,"ax",%progbits
ARM GAS  /var/folders/8c/gyvcglfx7f97kbqb2h83mm_r0000gn/T//cc6V9BzC.s 			page 57


 1798              		.align	1
 1799              		.global	HAL_RCC_MCOConfig
 1800              		.syntax unified
 1801              		.thumb
 1802              		.thumb_func
 1803              		.fpu fpv4-sp-d16
 1805              	HAL_RCC_MCOConfig:
 1806              	.LVL131:
 1807              	.LFB129:
 602:Drivers/STM32F3xx_HAL_Driver/Src/stm32f3xx_hal_rcc.c **** 
 603:Drivers/STM32F3xx_HAL_Driver/Src/stm32f3xx_hal_rcc.c **** /**
 604:Drivers/STM32F3xx_HAL_Driver/Src/stm32f3xx_hal_rcc.c ****   * @brief  Initializes the CPU, AHB and APB buses clocks according to the specified 
 605:Drivers/STM32F3xx_HAL_Driver/Src/stm32f3xx_hal_rcc.c ****   *         parameters in the RCC_ClkInitStruct.
 606:Drivers/STM32F3xx_HAL_Driver/Src/stm32f3xx_hal_rcc.c ****   * @param  RCC_ClkInitStruct pointer to an RCC_OscInitTypeDef structure that
 607:Drivers/STM32F3xx_HAL_Driver/Src/stm32f3xx_hal_rcc.c ****   *         contains the configuration information for the RCC peripheral.
 608:Drivers/STM32F3xx_HAL_Driver/Src/stm32f3xx_hal_rcc.c ****   * @param  FLatency FLASH Latency                   
 609:Drivers/STM32F3xx_HAL_Driver/Src/stm32f3xx_hal_rcc.c ****   *          The value of this parameter depend on device used within the same series
 610:Drivers/STM32F3xx_HAL_Driver/Src/stm32f3xx_hal_rcc.c ****   * @note   The SystemCoreClock CMSIS variable is used to store System Clock Frequency 
 611:Drivers/STM32F3xx_HAL_Driver/Src/stm32f3xx_hal_rcc.c ****   *         and updated by @ref HAL_RCC_GetHCLKFreq() function called within this function
 612:Drivers/STM32F3xx_HAL_Driver/Src/stm32f3xx_hal_rcc.c ****   *
 613:Drivers/STM32F3xx_HAL_Driver/Src/stm32f3xx_hal_rcc.c ****   * @note   The HSI is used (enabled by hardware) as system clock source after
 614:Drivers/STM32F3xx_HAL_Driver/Src/stm32f3xx_hal_rcc.c ****   *         start-up from Reset, wake-up from STOP and STANDBY mode, or in case
 615:Drivers/STM32F3xx_HAL_Driver/Src/stm32f3xx_hal_rcc.c ****   *         of failure of the HSE used directly or indirectly as system clock
 616:Drivers/STM32F3xx_HAL_Driver/Src/stm32f3xx_hal_rcc.c ****   *         (if the Clock Security System CSS is enabled).
 617:Drivers/STM32F3xx_HAL_Driver/Src/stm32f3xx_hal_rcc.c ****   *           
 618:Drivers/STM32F3xx_HAL_Driver/Src/stm32f3xx_hal_rcc.c ****   * @note   A switch from one clock source to another occurs only if the target
 619:Drivers/STM32F3xx_HAL_Driver/Src/stm32f3xx_hal_rcc.c ****   *         clock source is ready (clock stable after start-up delay or PLL locked). 
 620:Drivers/STM32F3xx_HAL_Driver/Src/stm32f3xx_hal_rcc.c ****   *         If a clock source which is not yet ready is selected, the switch will
 621:Drivers/STM32F3xx_HAL_Driver/Src/stm32f3xx_hal_rcc.c ****   *         occur when the clock source will be ready. 
 622:Drivers/STM32F3xx_HAL_Driver/Src/stm32f3xx_hal_rcc.c ****   *         You can use @ref HAL_RCC_GetClockConfig() function to know which clock is
 623:Drivers/STM32F3xx_HAL_Driver/Src/stm32f3xx_hal_rcc.c ****   *         currently used as system clock source.
 624:Drivers/STM32F3xx_HAL_Driver/Src/stm32f3xx_hal_rcc.c ****   * @retval HAL status
 625:Drivers/STM32F3xx_HAL_Driver/Src/stm32f3xx_hal_rcc.c ****   */
 626:Drivers/STM32F3xx_HAL_Driver/Src/stm32f3xx_hal_rcc.c **** HAL_StatusTypeDef HAL_RCC_ClockConfig(RCC_ClkInitTypeDef  *RCC_ClkInitStruct, uint32_t FLatency)
 627:Drivers/STM32F3xx_HAL_Driver/Src/stm32f3xx_hal_rcc.c **** {
 628:Drivers/STM32F3xx_HAL_Driver/Src/stm32f3xx_hal_rcc.c ****   uint32_t tickstart = 0U;
 629:Drivers/STM32F3xx_HAL_Driver/Src/stm32f3xx_hal_rcc.c ****   
 630:Drivers/STM32F3xx_HAL_Driver/Src/stm32f3xx_hal_rcc.c ****   /* Check the parameters */
 631:Drivers/STM32F3xx_HAL_Driver/Src/stm32f3xx_hal_rcc.c ****   assert_param(RCC_ClkInitStruct != NULL);
 632:Drivers/STM32F3xx_HAL_Driver/Src/stm32f3xx_hal_rcc.c ****   assert_param(IS_RCC_CLOCKTYPE(RCC_ClkInitStruct->ClockType));
 633:Drivers/STM32F3xx_HAL_Driver/Src/stm32f3xx_hal_rcc.c ****   assert_param(IS_FLASH_LATENCY(FLatency));
 634:Drivers/STM32F3xx_HAL_Driver/Src/stm32f3xx_hal_rcc.c **** 
 635:Drivers/STM32F3xx_HAL_Driver/Src/stm32f3xx_hal_rcc.c ****   /* To correctly read data from FLASH memory, the number of wait states (LATENCY) 
 636:Drivers/STM32F3xx_HAL_Driver/Src/stm32f3xx_hal_rcc.c ****   must be correctly programmed according to the frequency of the CPU clock 
 637:Drivers/STM32F3xx_HAL_Driver/Src/stm32f3xx_hal_rcc.c ****     (HCLK) of the device. */
 638:Drivers/STM32F3xx_HAL_Driver/Src/stm32f3xx_hal_rcc.c **** 
 639:Drivers/STM32F3xx_HAL_Driver/Src/stm32f3xx_hal_rcc.c ****   /* Increasing the number of wait states because of higher CPU frequency */
 640:Drivers/STM32F3xx_HAL_Driver/Src/stm32f3xx_hal_rcc.c ****   if(FLatency > (FLASH->ACR & FLASH_ACR_LATENCY))
 641:Drivers/STM32F3xx_HAL_Driver/Src/stm32f3xx_hal_rcc.c ****   {    
 642:Drivers/STM32F3xx_HAL_Driver/Src/stm32f3xx_hal_rcc.c ****     /* Program the new number of wait states to the LATENCY bits in the FLASH_ACR register */
 643:Drivers/STM32F3xx_HAL_Driver/Src/stm32f3xx_hal_rcc.c ****     __HAL_FLASH_SET_LATENCY(FLatency);
 644:Drivers/STM32F3xx_HAL_Driver/Src/stm32f3xx_hal_rcc.c ****     
 645:Drivers/STM32F3xx_HAL_Driver/Src/stm32f3xx_hal_rcc.c ****     /* Check that the new number of wait states is taken into account to access the Flash
 646:Drivers/STM32F3xx_HAL_Driver/Src/stm32f3xx_hal_rcc.c ****     memory by reading the FLASH_ACR register */
 647:Drivers/STM32F3xx_HAL_Driver/Src/stm32f3xx_hal_rcc.c ****     if((FLASH->ACR & FLASH_ACR_LATENCY) != FLatency)
 648:Drivers/STM32F3xx_HAL_Driver/Src/stm32f3xx_hal_rcc.c ****     {
 649:Drivers/STM32F3xx_HAL_Driver/Src/stm32f3xx_hal_rcc.c ****       return HAL_ERROR;
ARM GAS  /var/folders/8c/gyvcglfx7f97kbqb2h83mm_r0000gn/T//cc6V9BzC.s 			page 58


 650:Drivers/STM32F3xx_HAL_Driver/Src/stm32f3xx_hal_rcc.c ****     }
 651:Drivers/STM32F3xx_HAL_Driver/Src/stm32f3xx_hal_rcc.c ****   }
 652:Drivers/STM32F3xx_HAL_Driver/Src/stm32f3xx_hal_rcc.c **** 
 653:Drivers/STM32F3xx_HAL_Driver/Src/stm32f3xx_hal_rcc.c ****   /*-------------------------- HCLK Configuration --------------------------*/
 654:Drivers/STM32F3xx_HAL_Driver/Src/stm32f3xx_hal_rcc.c ****   if(((RCC_ClkInitStruct->ClockType) & RCC_CLOCKTYPE_HCLK) == RCC_CLOCKTYPE_HCLK)
 655:Drivers/STM32F3xx_HAL_Driver/Src/stm32f3xx_hal_rcc.c ****   {
 656:Drivers/STM32F3xx_HAL_Driver/Src/stm32f3xx_hal_rcc.c ****     assert_param(IS_RCC_HCLK(RCC_ClkInitStruct->AHBCLKDivider));
 657:Drivers/STM32F3xx_HAL_Driver/Src/stm32f3xx_hal_rcc.c ****     MODIFY_REG(RCC->CFGR, RCC_CFGR_HPRE, RCC_ClkInitStruct->AHBCLKDivider);
 658:Drivers/STM32F3xx_HAL_Driver/Src/stm32f3xx_hal_rcc.c ****   }
 659:Drivers/STM32F3xx_HAL_Driver/Src/stm32f3xx_hal_rcc.c **** 
 660:Drivers/STM32F3xx_HAL_Driver/Src/stm32f3xx_hal_rcc.c ****   /*------------------------- SYSCLK Configuration ---------------------------*/ 
 661:Drivers/STM32F3xx_HAL_Driver/Src/stm32f3xx_hal_rcc.c ****   if(((RCC_ClkInitStruct->ClockType) & RCC_CLOCKTYPE_SYSCLK) == RCC_CLOCKTYPE_SYSCLK)
 662:Drivers/STM32F3xx_HAL_Driver/Src/stm32f3xx_hal_rcc.c ****   {    
 663:Drivers/STM32F3xx_HAL_Driver/Src/stm32f3xx_hal_rcc.c ****     assert_param(IS_RCC_SYSCLKSOURCE(RCC_ClkInitStruct->SYSCLKSource));
 664:Drivers/STM32F3xx_HAL_Driver/Src/stm32f3xx_hal_rcc.c ****     
 665:Drivers/STM32F3xx_HAL_Driver/Src/stm32f3xx_hal_rcc.c ****     /* HSE is selected as System Clock Source */
 666:Drivers/STM32F3xx_HAL_Driver/Src/stm32f3xx_hal_rcc.c ****     if(RCC_ClkInitStruct->SYSCLKSource == RCC_SYSCLKSOURCE_HSE)
 667:Drivers/STM32F3xx_HAL_Driver/Src/stm32f3xx_hal_rcc.c ****     {
 668:Drivers/STM32F3xx_HAL_Driver/Src/stm32f3xx_hal_rcc.c ****       /* Check the HSE ready flag */  
 669:Drivers/STM32F3xx_HAL_Driver/Src/stm32f3xx_hal_rcc.c ****       if(__HAL_RCC_GET_FLAG(RCC_FLAG_HSERDY) == RESET)
 670:Drivers/STM32F3xx_HAL_Driver/Src/stm32f3xx_hal_rcc.c ****       {
 671:Drivers/STM32F3xx_HAL_Driver/Src/stm32f3xx_hal_rcc.c ****         return HAL_ERROR;
 672:Drivers/STM32F3xx_HAL_Driver/Src/stm32f3xx_hal_rcc.c ****       }
 673:Drivers/STM32F3xx_HAL_Driver/Src/stm32f3xx_hal_rcc.c ****     }
 674:Drivers/STM32F3xx_HAL_Driver/Src/stm32f3xx_hal_rcc.c ****     /* PLL is selected as System Clock Source */
 675:Drivers/STM32F3xx_HAL_Driver/Src/stm32f3xx_hal_rcc.c ****     else if(RCC_ClkInitStruct->SYSCLKSource == RCC_SYSCLKSOURCE_PLLCLK)
 676:Drivers/STM32F3xx_HAL_Driver/Src/stm32f3xx_hal_rcc.c ****     {
 677:Drivers/STM32F3xx_HAL_Driver/Src/stm32f3xx_hal_rcc.c ****       /* Check the PLL ready flag */  
 678:Drivers/STM32F3xx_HAL_Driver/Src/stm32f3xx_hal_rcc.c ****       if(__HAL_RCC_GET_FLAG(RCC_FLAG_PLLRDY) == RESET)
 679:Drivers/STM32F3xx_HAL_Driver/Src/stm32f3xx_hal_rcc.c ****       {
 680:Drivers/STM32F3xx_HAL_Driver/Src/stm32f3xx_hal_rcc.c ****         return HAL_ERROR;
 681:Drivers/STM32F3xx_HAL_Driver/Src/stm32f3xx_hal_rcc.c ****       }
 682:Drivers/STM32F3xx_HAL_Driver/Src/stm32f3xx_hal_rcc.c ****     }
 683:Drivers/STM32F3xx_HAL_Driver/Src/stm32f3xx_hal_rcc.c ****     /* HSI is selected as System Clock Source */
 684:Drivers/STM32F3xx_HAL_Driver/Src/stm32f3xx_hal_rcc.c ****     else
 685:Drivers/STM32F3xx_HAL_Driver/Src/stm32f3xx_hal_rcc.c ****     {
 686:Drivers/STM32F3xx_HAL_Driver/Src/stm32f3xx_hal_rcc.c ****       /* Check the HSI ready flag */  
 687:Drivers/STM32F3xx_HAL_Driver/Src/stm32f3xx_hal_rcc.c ****       if(__HAL_RCC_GET_FLAG(RCC_FLAG_HSIRDY) == RESET)
 688:Drivers/STM32F3xx_HAL_Driver/Src/stm32f3xx_hal_rcc.c ****       {
 689:Drivers/STM32F3xx_HAL_Driver/Src/stm32f3xx_hal_rcc.c ****         return HAL_ERROR;
 690:Drivers/STM32F3xx_HAL_Driver/Src/stm32f3xx_hal_rcc.c ****       }
 691:Drivers/STM32F3xx_HAL_Driver/Src/stm32f3xx_hal_rcc.c ****     }
 692:Drivers/STM32F3xx_HAL_Driver/Src/stm32f3xx_hal_rcc.c ****     __HAL_RCC_SYSCLK_CONFIG(RCC_ClkInitStruct->SYSCLKSource);
 693:Drivers/STM32F3xx_HAL_Driver/Src/stm32f3xx_hal_rcc.c **** 
 694:Drivers/STM32F3xx_HAL_Driver/Src/stm32f3xx_hal_rcc.c ****     /* Get Start Tick */
 695:Drivers/STM32F3xx_HAL_Driver/Src/stm32f3xx_hal_rcc.c ****     tickstart = HAL_GetTick();
 696:Drivers/STM32F3xx_HAL_Driver/Src/stm32f3xx_hal_rcc.c ****     
 697:Drivers/STM32F3xx_HAL_Driver/Src/stm32f3xx_hal_rcc.c ****     if(RCC_ClkInitStruct->SYSCLKSource == RCC_SYSCLKSOURCE_HSE)
 698:Drivers/STM32F3xx_HAL_Driver/Src/stm32f3xx_hal_rcc.c ****     {
 699:Drivers/STM32F3xx_HAL_Driver/Src/stm32f3xx_hal_rcc.c ****       while (__HAL_RCC_GET_SYSCLK_SOURCE() != RCC_SYSCLKSOURCE_STATUS_HSE)
 700:Drivers/STM32F3xx_HAL_Driver/Src/stm32f3xx_hal_rcc.c ****       {
 701:Drivers/STM32F3xx_HAL_Driver/Src/stm32f3xx_hal_rcc.c ****         if((HAL_GetTick() - tickstart ) > CLOCKSWITCH_TIMEOUT_VALUE)
 702:Drivers/STM32F3xx_HAL_Driver/Src/stm32f3xx_hal_rcc.c ****         {
 703:Drivers/STM32F3xx_HAL_Driver/Src/stm32f3xx_hal_rcc.c ****           return HAL_TIMEOUT;
 704:Drivers/STM32F3xx_HAL_Driver/Src/stm32f3xx_hal_rcc.c ****         }
 705:Drivers/STM32F3xx_HAL_Driver/Src/stm32f3xx_hal_rcc.c ****       }
 706:Drivers/STM32F3xx_HAL_Driver/Src/stm32f3xx_hal_rcc.c ****     }
ARM GAS  /var/folders/8c/gyvcglfx7f97kbqb2h83mm_r0000gn/T//cc6V9BzC.s 			page 59


 707:Drivers/STM32F3xx_HAL_Driver/Src/stm32f3xx_hal_rcc.c ****     else if(RCC_ClkInitStruct->SYSCLKSource == RCC_SYSCLKSOURCE_PLLCLK)
 708:Drivers/STM32F3xx_HAL_Driver/Src/stm32f3xx_hal_rcc.c ****     {
 709:Drivers/STM32F3xx_HAL_Driver/Src/stm32f3xx_hal_rcc.c ****       while (__HAL_RCC_GET_SYSCLK_SOURCE() != RCC_SYSCLKSOURCE_STATUS_PLLCLK)
 710:Drivers/STM32F3xx_HAL_Driver/Src/stm32f3xx_hal_rcc.c ****       {
 711:Drivers/STM32F3xx_HAL_Driver/Src/stm32f3xx_hal_rcc.c ****         if((HAL_GetTick() - tickstart ) > CLOCKSWITCH_TIMEOUT_VALUE)
 712:Drivers/STM32F3xx_HAL_Driver/Src/stm32f3xx_hal_rcc.c ****         {
 713:Drivers/STM32F3xx_HAL_Driver/Src/stm32f3xx_hal_rcc.c ****           return HAL_TIMEOUT;
 714:Drivers/STM32F3xx_HAL_Driver/Src/stm32f3xx_hal_rcc.c ****         }
 715:Drivers/STM32F3xx_HAL_Driver/Src/stm32f3xx_hal_rcc.c ****       }
 716:Drivers/STM32F3xx_HAL_Driver/Src/stm32f3xx_hal_rcc.c ****     }
 717:Drivers/STM32F3xx_HAL_Driver/Src/stm32f3xx_hal_rcc.c ****     else
 718:Drivers/STM32F3xx_HAL_Driver/Src/stm32f3xx_hal_rcc.c ****     {
 719:Drivers/STM32F3xx_HAL_Driver/Src/stm32f3xx_hal_rcc.c ****       while (__HAL_RCC_GET_SYSCLK_SOURCE() != RCC_SYSCLKSOURCE_STATUS_HSI)
 720:Drivers/STM32F3xx_HAL_Driver/Src/stm32f3xx_hal_rcc.c ****       {
 721:Drivers/STM32F3xx_HAL_Driver/Src/stm32f3xx_hal_rcc.c ****         if((HAL_GetTick() - tickstart ) > CLOCKSWITCH_TIMEOUT_VALUE)
 722:Drivers/STM32F3xx_HAL_Driver/Src/stm32f3xx_hal_rcc.c ****         {
 723:Drivers/STM32F3xx_HAL_Driver/Src/stm32f3xx_hal_rcc.c ****           return HAL_TIMEOUT;
 724:Drivers/STM32F3xx_HAL_Driver/Src/stm32f3xx_hal_rcc.c ****         }
 725:Drivers/STM32F3xx_HAL_Driver/Src/stm32f3xx_hal_rcc.c ****       }
 726:Drivers/STM32F3xx_HAL_Driver/Src/stm32f3xx_hal_rcc.c ****     }      
 727:Drivers/STM32F3xx_HAL_Driver/Src/stm32f3xx_hal_rcc.c ****   }    
 728:Drivers/STM32F3xx_HAL_Driver/Src/stm32f3xx_hal_rcc.c ****   /* Decreasing the number of wait states because of lower CPU frequency */
 729:Drivers/STM32F3xx_HAL_Driver/Src/stm32f3xx_hal_rcc.c ****   if(FLatency < (FLASH->ACR & FLASH_ACR_LATENCY))
 730:Drivers/STM32F3xx_HAL_Driver/Src/stm32f3xx_hal_rcc.c ****   {    
 731:Drivers/STM32F3xx_HAL_Driver/Src/stm32f3xx_hal_rcc.c ****     /* Program the new number of wait states to the LATENCY bits in the FLASH_ACR register */
 732:Drivers/STM32F3xx_HAL_Driver/Src/stm32f3xx_hal_rcc.c ****     __HAL_FLASH_SET_LATENCY(FLatency);
 733:Drivers/STM32F3xx_HAL_Driver/Src/stm32f3xx_hal_rcc.c ****     
 734:Drivers/STM32F3xx_HAL_Driver/Src/stm32f3xx_hal_rcc.c ****     /* Check that the new number of wait states is taken into account to access the Flash
 735:Drivers/STM32F3xx_HAL_Driver/Src/stm32f3xx_hal_rcc.c ****     memory by reading the FLASH_ACR register */
 736:Drivers/STM32F3xx_HAL_Driver/Src/stm32f3xx_hal_rcc.c ****     if((FLASH->ACR & FLASH_ACR_LATENCY) != FLatency)
 737:Drivers/STM32F3xx_HAL_Driver/Src/stm32f3xx_hal_rcc.c ****     {
 738:Drivers/STM32F3xx_HAL_Driver/Src/stm32f3xx_hal_rcc.c ****       return HAL_ERROR;
 739:Drivers/STM32F3xx_HAL_Driver/Src/stm32f3xx_hal_rcc.c ****     }
 740:Drivers/STM32F3xx_HAL_Driver/Src/stm32f3xx_hal_rcc.c ****   }    
 741:Drivers/STM32F3xx_HAL_Driver/Src/stm32f3xx_hal_rcc.c **** 
 742:Drivers/STM32F3xx_HAL_Driver/Src/stm32f3xx_hal_rcc.c ****   /*-------------------------- PCLK1 Configuration ---------------------------*/ 
 743:Drivers/STM32F3xx_HAL_Driver/Src/stm32f3xx_hal_rcc.c ****   if(((RCC_ClkInitStruct->ClockType) & RCC_CLOCKTYPE_PCLK1) == RCC_CLOCKTYPE_PCLK1)
 744:Drivers/STM32F3xx_HAL_Driver/Src/stm32f3xx_hal_rcc.c ****   {
 745:Drivers/STM32F3xx_HAL_Driver/Src/stm32f3xx_hal_rcc.c ****     assert_param(IS_RCC_PCLK(RCC_ClkInitStruct->APB1CLKDivider));
 746:Drivers/STM32F3xx_HAL_Driver/Src/stm32f3xx_hal_rcc.c ****     MODIFY_REG(RCC->CFGR, RCC_CFGR_PPRE1, RCC_ClkInitStruct->APB1CLKDivider);
 747:Drivers/STM32F3xx_HAL_Driver/Src/stm32f3xx_hal_rcc.c ****   }
 748:Drivers/STM32F3xx_HAL_Driver/Src/stm32f3xx_hal_rcc.c ****   
 749:Drivers/STM32F3xx_HAL_Driver/Src/stm32f3xx_hal_rcc.c ****   /*-------------------------- PCLK2 Configuration ---------------------------*/ 
 750:Drivers/STM32F3xx_HAL_Driver/Src/stm32f3xx_hal_rcc.c ****   if(((RCC_ClkInitStruct->ClockType) & RCC_CLOCKTYPE_PCLK2) == RCC_CLOCKTYPE_PCLK2)
 751:Drivers/STM32F3xx_HAL_Driver/Src/stm32f3xx_hal_rcc.c ****   {
 752:Drivers/STM32F3xx_HAL_Driver/Src/stm32f3xx_hal_rcc.c ****     assert_param(IS_RCC_PCLK(RCC_ClkInitStruct->APB2CLKDivider));
 753:Drivers/STM32F3xx_HAL_Driver/Src/stm32f3xx_hal_rcc.c ****     MODIFY_REG(RCC->CFGR, RCC_CFGR_PPRE2, ((RCC_ClkInitStruct->APB2CLKDivider) << 3U));
 754:Drivers/STM32F3xx_HAL_Driver/Src/stm32f3xx_hal_rcc.c ****   }
 755:Drivers/STM32F3xx_HAL_Driver/Src/stm32f3xx_hal_rcc.c ****  
 756:Drivers/STM32F3xx_HAL_Driver/Src/stm32f3xx_hal_rcc.c ****   /* Update the SystemCoreClock global variable */
 757:Drivers/STM32F3xx_HAL_Driver/Src/stm32f3xx_hal_rcc.c ****   SystemCoreClock = HAL_RCC_GetSysClockFreq() >> AHBPrescTable[(RCC->CFGR & RCC_CFGR_HPRE)>> RCC_CF
 758:Drivers/STM32F3xx_HAL_Driver/Src/stm32f3xx_hal_rcc.c **** 
 759:Drivers/STM32F3xx_HAL_Driver/Src/stm32f3xx_hal_rcc.c ****   /* Configure the source of time base considering new system clocks settings*/
 760:Drivers/STM32F3xx_HAL_Driver/Src/stm32f3xx_hal_rcc.c ****   HAL_InitTick (TICK_INT_PRIORITY);
 761:Drivers/STM32F3xx_HAL_Driver/Src/stm32f3xx_hal_rcc.c ****   
 762:Drivers/STM32F3xx_HAL_Driver/Src/stm32f3xx_hal_rcc.c ****   return HAL_OK;
 763:Drivers/STM32F3xx_HAL_Driver/Src/stm32f3xx_hal_rcc.c **** }
ARM GAS  /var/folders/8c/gyvcglfx7f97kbqb2h83mm_r0000gn/T//cc6V9BzC.s 			page 60


 764:Drivers/STM32F3xx_HAL_Driver/Src/stm32f3xx_hal_rcc.c **** 
 765:Drivers/STM32F3xx_HAL_Driver/Src/stm32f3xx_hal_rcc.c **** /**
 766:Drivers/STM32F3xx_HAL_Driver/Src/stm32f3xx_hal_rcc.c ****   * @}
 767:Drivers/STM32F3xx_HAL_Driver/Src/stm32f3xx_hal_rcc.c ****   */
 768:Drivers/STM32F3xx_HAL_Driver/Src/stm32f3xx_hal_rcc.c **** 
 769:Drivers/STM32F3xx_HAL_Driver/Src/stm32f3xx_hal_rcc.c **** /** @defgroup RCC_Exported_Functions_Group2 Peripheral Control functions
 770:Drivers/STM32F3xx_HAL_Driver/Src/stm32f3xx_hal_rcc.c ****   *  @brief   RCC clocks control functions
 771:Drivers/STM32F3xx_HAL_Driver/Src/stm32f3xx_hal_rcc.c ****   *
 772:Drivers/STM32F3xx_HAL_Driver/Src/stm32f3xx_hal_rcc.c ****   @verbatim   
 773:Drivers/STM32F3xx_HAL_Driver/Src/stm32f3xx_hal_rcc.c ****   ===============================================================================
 774:Drivers/STM32F3xx_HAL_Driver/Src/stm32f3xx_hal_rcc.c ****                   ##### Peripheral Control functions #####
 775:Drivers/STM32F3xx_HAL_Driver/Src/stm32f3xx_hal_rcc.c ****   ===============================================================================  
 776:Drivers/STM32F3xx_HAL_Driver/Src/stm32f3xx_hal_rcc.c ****     [..]
 777:Drivers/STM32F3xx_HAL_Driver/Src/stm32f3xx_hal_rcc.c ****     This subsection provides a set of functions allowing to control the RCC Clocks 
 778:Drivers/STM32F3xx_HAL_Driver/Src/stm32f3xx_hal_rcc.c ****     frequencies.
 779:Drivers/STM32F3xx_HAL_Driver/Src/stm32f3xx_hal_rcc.c **** 
 780:Drivers/STM32F3xx_HAL_Driver/Src/stm32f3xx_hal_rcc.c ****   @endverbatim
 781:Drivers/STM32F3xx_HAL_Driver/Src/stm32f3xx_hal_rcc.c ****   * @{
 782:Drivers/STM32F3xx_HAL_Driver/Src/stm32f3xx_hal_rcc.c ****   */
 783:Drivers/STM32F3xx_HAL_Driver/Src/stm32f3xx_hal_rcc.c **** 
 784:Drivers/STM32F3xx_HAL_Driver/Src/stm32f3xx_hal_rcc.c **** #if defined(RCC_CFGR_MCOPRE)
 785:Drivers/STM32F3xx_HAL_Driver/Src/stm32f3xx_hal_rcc.c **** /**
 786:Drivers/STM32F3xx_HAL_Driver/Src/stm32f3xx_hal_rcc.c ****   * @brief  Selects the clock source to output on MCO pin.
 787:Drivers/STM32F3xx_HAL_Driver/Src/stm32f3xx_hal_rcc.c ****   * @note   MCO pin should be configured in alternate function mode.
 788:Drivers/STM32F3xx_HAL_Driver/Src/stm32f3xx_hal_rcc.c ****   * @param  RCC_MCOx specifies the output direction for the clock source.
 789:Drivers/STM32F3xx_HAL_Driver/Src/stm32f3xx_hal_rcc.c ****   *          This parameter can be one of the following values:
 790:Drivers/STM32F3xx_HAL_Driver/Src/stm32f3xx_hal_rcc.c ****   *            @arg @ref RCC_MCO1 Clock source to output on MCO1 pin(PA8).
 791:Drivers/STM32F3xx_HAL_Driver/Src/stm32f3xx_hal_rcc.c ****   * @param  RCC_MCOSource specifies the clock source to output.
 792:Drivers/STM32F3xx_HAL_Driver/Src/stm32f3xx_hal_rcc.c ****   *          This parameter can be one of the following values:
 793:Drivers/STM32F3xx_HAL_Driver/Src/stm32f3xx_hal_rcc.c ****   *            @arg @ref RCC_MCO1SOURCE_NOCLOCK     No clock selected
 794:Drivers/STM32F3xx_HAL_Driver/Src/stm32f3xx_hal_rcc.c ****   *            @arg @ref RCC_MCO1SOURCE_SYSCLK      System Clock selected as MCO clock
 795:Drivers/STM32F3xx_HAL_Driver/Src/stm32f3xx_hal_rcc.c ****   *            @arg @ref RCC_MCO1SOURCE_HSI         HSI selected as MCO clock
 796:Drivers/STM32F3xx_HAL_Driver/Src/stm32f3xx_hal_rcc.c ****   *            @arg @ref RCC_MCO1SOURCE_HSE         HSE selected as MCO clock
 797:Drivers/STM32F3xx_HAL_Driver/Src/stm32f3xx_hal_rcc.c ****   *            @arg @ref RCC_MCO1SOURCE_LSI         LSI selected as MCO clock
 798:Drivers/STM32F3xx_HAL_Driver/Src/stm32f3xx_hal_rcc.c ****   *            @arg @ref RCC_MCO1SOURCE_LSE         LSE selected as MCO clock
 799:Drivers/STM32F3xx_HAL_Driver/Src/stm32f3xx_hal_rcc.c ****   *            @arg @ref RCC_MCO1SOURCE_PLLCLK      PLLCLK selected as MCO clock
 800:Drivers/STM32F3xx_HAL_Driver/Src/stm32f3xx_hal_rcc.c ****   *            @arg @ref RCC_MCO1SOURCE_PLLCLK_DIV2 PLLCLK Divided by 2 selected as MCO clock
 801:Drivers/STM32F3xx_HAL_Driver/Src/stm32f3xx_hal_rcc.c ****   * @param  RCC_MCODiv specifies the MCO DIV.
 802:Drivers/STM32F3xx_HAL_Driver/Src/stm32f3xx_hal_rcc.c ****   *          This parameter can be one of the following values:
 803:Drivers/STM32F3xx_HAL_Driver/Src/stm32f3xx_hal_rcc.c ****   *            @arg @ref RCC_MCODIV_1   no division applied to MCO clock
 804:Drivers/STM32F3xx_HAL_Driver/Src/stm32f3xx_hal_rcc.c ****   *            @arg @ref RCC_MCODIV_2   division by 2 applied to MCO clock
 805:Drivers/STM32F3xx_HAL_Driver/Src/stm32f3xx_hal_rcc.c ****   *            @arg @ref RCC_MCODIV_4   division by 4 applied to MCO clock
 806:Drivers/STM32F3xx_HAL_Driver/Src/stm32f3xx_hal_rcc.c ****   *            @arg @ref RCC_MCODIV_8   division by 8 applied to MCO clock
 807:Drivers/STM32F3xx_HAL_Driver/Src/stm32f3xx_hal_rcc.c ****   *            @arg @ref RCC_MCODIV_16  division by 16 applied to MCO clock
 808:Drivers/STM32F3xx_HAL_Driver/Src/stm32f3xx_hal_rcc.c ****   *            @arg @ref RCC_MCODIV_32  division by 32 applied to MCO clock
 809:Drivers/STM32F3xx_HAL_Driver/Src/stm32f3xx_hal_rcc.c ****   *            @arg @ref RCC_MCODIV_64  division by 64 applied to MCO clock
 810:Drivers/STM32F3xx_HAL_Driver/Src/stm32f3xx_hal_rcc.c ****   *            @arg @ref RCC_MCODIV_128 division by 128 applied to MCO clock
 811:Drivers/STM32F3xx_HAL_Driver/Src/stm32f3xx_hal_rcc.c ****   * @retval None
 812:Drivers/STM32F3xx_HAL_Driver/Src/stm32f3xx_hal_rcc.c ****   */
 813:Drivers/STM32F3xx_HAL_Driver/Src/stm32f3xx_hal_rcc.c **** #else
 814:Drivers/STM32F3xx_HAL_Driver/Src/stm32f3xx_hal_rcc.c **** /**
 815:Drivers/STM32F3xx_HAL_Driver/Src/stm32f3xx_hal_rcc.c ****   * @brief  Selects the clock source to output on MCO pin.
 816:Drivers/STM32F3xx_HAL_Driver/Src/stm32f3xx_hal_rcc.c ****   * @note   MCO pin should be configured in alternate function mode.
 817:Drivers/STM32F3xx_HAL_Driver/Src/stm32f3xx_hal_rcc.c ****   * @param  RCC_MCOx specifies the output direction for the clock source.
 818:Drivers/STM32F3xx_HAL_Driver/Src/stm32f3xx_hal_rcc.c ****   *          This parameter can be one of the following values:
 819:Drivers/STM32F3xx_HAL_Driver/Src/stm32f3xx_hal_rcc.c ****   *            @arg @ref RCC_MCO1 Clock source to output on MCO1 pin(PA8).
 820:Drivers/STM32F3xx_HAL_Driver/Src/stm32f3xx_hal_rcc.c ****   * @param  RCC_MCOSource specifies the clock source to output.
ARM GAS  /var/folders/8c/gyvcglfx7f97kbqb2h83mm_r0000gn/T//cc6V9BzC.s 			page 61


 821:Drivers/STM32F3xx_HAL_Driver/Src/stm32f3xx_hal_rcc.c ****   *          This parameter can be one of the following values:
 822:Drivers/STM32F3xx_HAL_Driver/Src/stm32f3xx_hal_rcc.c ****   *            @arg @ref RCC_MCO1SOURCE_NOCLOCK     No clock selected as MCO clock
 823:Drivers/STM32F3xx_HAL_Driver/Src/stm32f3xx_hal_rcc.c ****   *            @arg @ref RCC_MCO1SOURCE_SYSCLK      System clock selected as MCO clock
 824:Drivers/STM32F3xx_HAL_Driver/Src/stm32f3xx_hal_rcc.c ****   *            @arg @ref RCC_MCO1SOURCE_HSI         HSI selected as MCO clock
 825:Drivers/STM32F3xx_HAL_Driver/Src/stm32f3xx_hal_rcc.c ****   *            @arg @ref RCC_MCO1SOURCE_HSE         HSE selected as MCO clock
 826:Drivers/STM32F3xx_HAL_Driver/Src/stm32f3xx_hal_rcc.c ****   *            @arg @ref RCC_MCO1SOURCE_LSI         LSI selected as MCO clock
 827:Drivers/STM32F3xx_HAL_Driver/Src/stm32f3xx_hal_rcc.c ****   *            @arg @ref RCC_MCO1SOURCE_LSE         LSE selected as MCO clock
 828:Drivers/STM32F3xx_HAL_Driver/Src/stm32f3xx_hal_rcc.c ****   *            @arg @ref RCC_MCO1SOURCE_PLLCLK_DIV2 PLLCLK Divided by 2 selected as MCO clock
 829:Drivers/STM32F3xx_HAL_Driver/Src/stm32f3xx_hal_rcc.c ****   * @param  RCC_MCODiv specifies the MCO DIV.
 830:Drivers/STM32F3xx_HAL_Driver/Src/stm32f3xx_hal_rcc.c ****   *          This parameter can be one of the following values:
 831:Drivers/STM32F3xx_HAL_Driver/Src/stm32f3xx_hal_rcc.c ****   *            @arg @ref RCC_MCODIV_1 no division applied to MCO clock
 832:Drivers/STM32F3xx_HAL_Driver/Src/stm32f3xx_hal_rcc.c ****   * @retval None
 833:Drivers/STM32F3xx_HAL_Driver/Src/stm32f3xx_hal_rcc.c ****   */
 834:Drivers/STM32F3xx_HAL_Driver/Src/stm32f3xx_hal_rcc.c **** #endif
 835:Drivers/STM32F3xx_HAL_Driver/Src/stm32f3xx_hal_rcc.c **** void HAL_RCC_MCOConfig(uint32_t RCC_MCOx, uint32_t RCC_MCOSource, uint32_t RCC_MCODiv)
 836:Drivers/STM32F3xx_HAL_Driver/Src/stm32f3xx_hal_rcc.c **** {
 1808              		.loc 1 836 1 is_stmt 1 view -0
 1809              		.cfi_startproc
 1810              		@ args = 0, pretend = 0, frame = 24
 1811              		@ frame_needed = 0, uses_anonymous_args = 0
 1812              		.loc 1 836 1 is_stmt 0 view .LVU512
 1813 0000 70B5     		push	{r4, r5, r6, lr}
 1814              	.LCFI4:
 1815              		.cfi_def_cfa_offset 16
 1816              		.cfi_offset 4, -16
 1817              		.cfi_offset 5, -12
 1818              		.cfi_offset 6, -8
 1819              		.cfi_offset 14, -4
 1820 0002 86B0     		sub	sp, sp, #24
 1821              	.LCFI5:
 1822              		.cfi_def_cfa_offset 40
 1823 0004 0D46     		mov	r5, r1
 1824 0006 1646     		mov	r6, r2
 837:Drivers/STM32F3xx_HAL_Driver/Src/stm32f3xx_hal_rcc.c ****   GPIO_InitTypeDef gpio;
 1825              		.loc 1 837 3 is_stmt 1 view .LVU513
 838:Drivers/STM32F3xx_HAL_Driver/Src/stm32f3xx_hal_rcc.c **** 
 839:Drivers/STM32F3xx_HAL_Driver/Src/stm32f3xx_hal_rcc.c ****   /* Check the parameters */
 840:Drivers/STM32F3xx_HAL_Driver/Src/stm32f3xx_hal_rcc.c ****   assert_param(IS_RCC_MCO(RCC_MCOx));
 1826              		.loc 1 840 3 view .LVU514
 841:Drivers/STM32F3xx_HAL_Driver/Src/stm32f3xx_hal_rcc.c ****   assert_param(IS_RCC_MCODIV(RCC_MCODiv));
 1827              		.loc 1 841 3 view .LVU515
 842:Drivers/STM32F3xx_HAL_Driver/Src/stm32f3xx_hal_rcc.c ****   assert_param(IS_RCC_MCO1SOURCE(RCC_MCOSource));
 1828              		.loc 1 842 3 view .LVU516
 843:Drivers/STM32F3xx_HAL_Driver/Src/stm32f3xx_hal_rcc.c ****   
 844:Drivers/STM32F3xx_HAL_Driver/Src/stm32f3xx_hal_rcc.c ****   /* Configure the MCO1 pin in alternate function mode */
 845:Drivers/STM32F3xx_HAL_Driver/Src/stm32f3xx_hal_rcc.c ****   gpio.Mode      = GPIO_MODE_AF_PP;
 1829              		.loc 1 845 3 view .LVU517
 1830              		.loc 1 845 18 is_stmt 0 view .LVU518
 1831 0008 0223     		movs	r3, #2
 1832 000a 0293     		str	r3, [sp, #8]
 846:Drivers/STM32F3xx_HAL_Driver/Src/stm32f3xx_hal_rcc.c ****   gpio.Speed     = GPIO_SPEED_FREQ_HIGH;
 1833              		.loc 1 846 3 is_stmt 1 view .LVU519
 1834              		.loc 1 846 18 is_stmt 0 view .LVU520
 1835 000c 0323     		movs	r3, #3
 1836 000e 0493     		str	r3, [sp, #16]
 847:Drivers/STM32F3xx_HAL_Driver/Src/stm32f3xx_hal_rcc.c ****   gpio.Pull      = GPIO_NOPULL;
 1837              		.loc 1 847 3 is_stmt 1 view .LVU521
ARM GAS  /var/folders/8c/gyvcglfx7f97kbqb2h83mm_r0000gn/T//cc6V9BzC.s 			page 62


 1838              		.loc 1 847 18 is_stmt 0 view .LVU522
 1839 0010 0023     		movs	r3, #0
 1840 0012 0393     		str	r3, [sp, #12]
 848:Drivers/STM32F3xx_HAL_Driver/Src/stm32f3xx_hal_rcc.c ****   gpio.Pin       = MCO1_PIN;
 1841              		.loc 1 848 3 is_stmt 1 view .LVU523
 1842              		.loc 1 848 18 is_stmt 0 view .LVU524
 1843 0014 4FF48072 		mov	r2, #256
 1844              	.LVL132:
 1845              		.loc 1 848 18 view .LVU525
 1846 0018 0192     		str	r2, [sp, #4]
 849:Drivers/STM32F3xx_HAL_Driver/Src/stm32f3xx_hal_rcc.c ****   gpio.Alternate = GPIO_AF0_MCO;
 1847              		.loc 1 849 3 is_stmt 1 view .LVU526
 1848              		.loc 1 849 18 is_stmt 0 view .LVU527
 1849 001a 0593     		str	r3, [sp, #20]
 850:Drivers/STM32F3xx_HAL_Driver/Src/stm32f3xx_hal_rcc.c **** 
 851:Drivers/STM32F3xx_HAL_Driver/Src/stm32f3xx_hal_rcc.c ****   /* MCO1 Clock Enable */
 852:Drivers/STM32F3xx_HAL_Driver/Src/stm32f3xx_hal_rcc.c ****   MCO1_CLK_ENABLE();
 1850              		.loc 1 852 3 is_stmt 1 view .LVU528
 1851              	.LBB256:
 1852              		.loc 1 852 3 view .LVU529
 1853              		.loc 1 852 3 view .LVU530
 1854 001c 0B4C     		ldr	r4, .L115
 1855 001e 6369     		ldr	r3, [r4, #20]
 1856 0020 43F40033 		orr	r3, r3, #131072
 1857 0024 6361     		str	r3, [r4, #20]
 1858              		.loc 1 852 3 view .LVU531
 1859 0026 6369     		ldr	r3, [r4, #20]
 1860 0028 03F40033 		and	r3, r3, #131072
 1861 002c 0093     		str	r3, [sp]
 1862              		.loc 1 852 3 view .LVU532
 1863 002e 009B     		ldr	r3, [sp]
 1864              	.LBE256:
 853:Drivers/STM32F3xx_HAL_Driver/Src/stm32f3xx_hal_rcc.c ****   
 854:Drivers/STM32F3xx_HAL_Driver/Src/stm32f3xx_hal_rcc.c ****   HAL_GPIO_Init(MCO1_GPIO_PORT, &gpio);
 1865              		.loc 1 854 3 view .LVU533
 1866 0030 01A9     		add	r1, sp, #4
 1867              	.LVL133:
 1868              		.loc 1 854 3 is_stmt 0 view .LVU534
 1869 0032 4FF09040 		mov	r0, #1207959552
 1870              	.LVL134:
 1871              		.loc 1 854 3 view .LVU535
 1872 0036 FFF7FEFF 		bl	HAL_GPIO_Init
 1873              	.LVL135:
 855:Drivers/STM32F3xx_HAL_Driver/Src/stm32f3xx_hal_rcc.c ****   
 856:Drivers/STM32F3xx_HAL_Driver/Src/stm32f3xx_hal_rcc.c ****   /* Configure the MCO clock source */
 857:Drivers/STM32F3xx_HAL_Driver/Src/stm32f3xx_hal_rcc.c ****   __HAL_RCC_MCO1_CONFIG(RCC_MCOSource, RCC_MCODiv);
 1874              		.loc 1 857 3 is_stmt 1 view .LVU536
 1875 003a 6268     		ldr	r2, [r4, #4]
 1876 003c 22F0EE42 		bic	r2, r2, #1996488704
 1877 0040 3543     		orrs	r5, r5, r6
 1878              	.LVL136:
 1879              		.loc 1 857 3 is_stmt 0 view .LVU537
 1880 0042 2A43     		orrs	r2, r2, r5
 1881 0044 6260     		str	r2, [r4, #4]
 858:Drivers/STM32F3xx_HAL_Driver/Src/stm32f3xx_hal_rcc.c **** }
 1882              		.loc 1 858 1 view .LVU538
 1883 0046 06B0     		add	sp, sp, #24
ARM GAS  /var/folders/8c/gyvcglfx7f97kbqb2h83mm_r0000gn/T//cc6V9BzC.s 			page 63


 1884              	.LCFI6:
 1885              		.cfi_def_cfa_offset 16
 1886              		@ sp needed
 1887 0048 70BD     		pop	{r4, r5, r6, pc}
 1888              	.LVL137:
 1889              	.L116:
 1890              		.loc 1 858 1 view .LVU539
 1891 004a 00BF     		.align	2
 1892              	.L115:
 1893 004c 00100240 		.word	1073876992
 1894              		.cfi_endproc
 1895              	.LFE129:
 1897              		.section	.text.HAL_RCC_EnableCSS,"ax",%progbits
 1898              		.align	1
 1899              		.global	HAL_RCC_EnableCSS
 1900              		.syntax unified
 1901              		.thumb
 1902              		.thumb_func
 1903              		.fpu fpv4-sp-d16
 1905              	HAL_RCC_EnableCSS:
 1906              	.LFB130:
 859:Drivers/STM32F3xx_HAL_Driver/Src/stm32f3xx_hal_rcc.c **** 
 860:Drivers/STM32F3xx_HAL_Driver/Src/stm32f3xx_hal_rcc.c **** /**
 861:Drivers/STM32F3xx_HAL_Driver/Src/stm32f3xx_hal_rcc.c ****   * @brief  Enables the Clock Security System.
 862:Drivers/STM32F3xx_HAL_Driver/Src/stm32f3xx_hal_rcc.c ****   * @note   If a failure is detected on the HSE oscillator clock, this oscillator
 863:Drivers/STM32F3xx_HAL_Driver/Src/stm32f3xx_hal_rcc.c ****   *         is automatically disabled and an interrupt is generated to inform the
 864:Drivers/STM32F3xx_HAL_Driver/Src/stm32f3xx_hal_rcc.c ****   *         software about the failure (Clock Security System Interrupt, CSSI),
 865:Drivers/STM32F3xx_HAL_Driver/Src/stm32f3xx_hal_rcc.c ****   *         allowing the MCU to perform rescue operations. The CSSI is linked to 
 866:Drivers/STM32F3xx_HAL_Driver/Src/stm32f3xx_hal_rcc.c ****   *         the Cortex-M4 NMI (Non-Maskable Interrupt) exception vector.  
 867:Drivers/STM32F3xx_HAL_Driver/Src/stm32f3xx_hal_rcc.c ****   * @retval None
 868:Drivers/STM32F3xx_HAL_Driver/Src/stm32f3xx_hal_rcc.c ****   */
 869:Drivers/STM32F3xx_HAL_Driver/Src/stm32f3xx_hal_rcc.c **** void HAL_RCC_EnableCSS(void)
 870:Drivers/STM32F3xx_HAL_Driver/Src/stm32f3xx_hal_rcc.c **** {
 1907              		.loc 1 870 1 is_stmt 1 view -0
 1908              		.cfi_startproc
 1909              		@ args = 0, pretend = 0, frame = 0
 1910              		@ frame_needed = 0, uses_anonymous_args = 0
 1911              		@ link register save eliminated.
 871:Drivers/STM32F3xx_HAL_Driver/Src/stm32f3xx_hal_rcc.c ****   *(__IO uint32_t *) RCC_CR_CSSON_BB = (uint32_t)ENABLE;
 1912              		.loc 1 871 3 view .LVU541
 1913              	.LVL138:
 1914              	.LBB257:
 1915              	.LBI257:
 526:Drivers/CMSIS/Include/cmsis_gcc.h **** {
 1916              		.loc 2 526 57 view .LVU542
 1917              	.LBB258:
 528:Drivers/CMSIS/Include/cmsis_gcc.h **** 
 1918              		.loc 2 528 3 view .LVU543
 531:Drivers/CMSIS/Include/cmsis_gcc.h **** #else
 1919              		.loc 2 531 4 view .LVU544
 1920 0000 4FF40023 		mov	r3, #524288
 1921              		.syntax unified
 1922              	@ 531 "Drivers/CMSIS/Include/cmsis_gcc.h" 1
 1923 0004 93FAA3F3 		rbit r3, r3
 1924              	@ 0 "" 2
 1925              	.LVL139:
 1926              		.loc 2 544 3 view .LVU545
ARM GAS  /var/folders/8c/gyvcglfx7f97kbqb2h83mm_r0000gn/T//cc6V9BzC.s 			page 64


 1927              		.loc 2 544 3 is_stmt 0 view .LVU546
 1928              		.thumb
 1929              		.syntax unified
 1930              	.LBE258:
 1931              	.LBE257:
 1932              		.loc 1 871 22 view .LVU547
 1933 0008 B3FA83F3 		clz	r3, r3
 1934 000c 03F18453 		add	r3, r3, #276824064
 1935 0010 03F58413 		add	r3, r3, #1081344
 1936 0014 9B00     		lsls	r3, r3, #2
 1937              		.loc 1 871 38 view .LVU548
 1938 0016 0122     		movs	r2, #1
 1939 0018 1A60     		str	r2, [r3]
 872:Drivers/STM32F3xx_HAL_Driver/Src/stm32f3xx_hal_rcc.c **** }
 1940              		.loc 1 872 1 view .LVU549
 1941 001a 7047     		bx	lr
 1942              		.cfi_endproc
 1943              	.LFE130:
 1945              		.section	.text.HAL_RCC_DisableCSS,"ax",%progbits
 1946              		.align	1
 1947              		.global	HAL_RCC_DisableCSS
 1948              		.syntax unified
 1949              		.thumb
 1950              		.thumb_func
 1951              		.fpu fpv4-sp-d16
 1953              	HAL_RCC_DisableCSS:
 1954              	.LFB131:
 873:Drivers/STM32F3xx_HAL_Driver/Src/stm32f3xx_hal_rcc.c **** 
 874:Drivers/STM32F3xx_HAL_Driver/Src/stm32f3xx_hal_rcc.c **** /**
 875:Drivers/STM32F3xx_HAL_Driver/Src/stm32f3xx_hal_rcc.c ****   * @brief  Disables the Clock Security System.
 876:Drivers/STM32F3xx_HAL_Driver/Src/stm32f3xx_hal_rcc.c ****   * @retval None
 877:Drivers/STM32F3xx_HAL_Driver/Src/stm32f3xx_hal_rcc.c ****   */
 878:Drivers/STM32F3xx_HAL_Driver/Src/stm32f3xx_hal_rcc.c **** void HAL_RCC_DisableCSS(void)
 879:Drivers/STM32F3xx_HAL_Driver/Src/stm32f3xx_hal_rcc.c **** {
 1955              		.loc 1 879 1 is_stmt 1 view -0
 1956              		.cfi_startproc
 1957              		@ args = 0, pretend = 0, frame = 0
 1958              		@ frame_needed = 0, uses_anonymous_args = 0
 1959              		@ link register save eliminated.
 880:Drivers/STM32F3xx_HAL_Driver/Src/stm32f3xx_hal_rcc.c ****   *(__IO uint32_t *) RCC_CR_CSSON_BB = (uint32_t)DISABLE;
 1960              		.loc 1 880 3 view .LVU551
 1961              	.LVL140:
 1962              	.LBB259:
 1963              	.LBI259:
 526:Drivers/CMSIS/Include/cmsis_gcc.h **** {
 1964              		.loc 2 526 57 view .LVU552
 1965              	.LBB260:
 528:Drivers/CMSIS/Include/cmsis_gcc.h **** 
 1966              		.loc 2 528 3 view .LVU553
 531:Drivers/CMSIS/Include/cmsis_gcc.h **** #else
 1967              		.loc 2 531 4 view .LVU554
 1968 0000 4FF40023 		mov	r3, #524288
 1969              		.syntax unified
 1970              	@ 531 "Drivers/CMSIS/Include/cmsis_gcc.h" 1
 1971 0004 93FAA3F3 		rbit r3, r3
 1972              	@ 0 "" 2
 1973              	.LVL141:
ARM GAS  /var/folders/8c/gyvcglfx7f97kbqb2h83mm_r0000gn/T//cc6V9BzC.s 			page 65


 1974              		.loc 2 544 3 view .LVU555
 1975              		.loc 2 544 3 is_stmt 0 view .LVU556
 1976              		.thumb
 1977              		.syntax unified
 1978              	.LBE260:
 1979              	.LBE259:
 1980              		.loc 1 880 22 view .LVU557
 1981 0008 B3FA83F3 		clz	r3, r3
 1982 000c 03F18453 		add	r3, r3, #276824064
 1983 0010 03F58413 		add	r3, r3, #1081344
 1984 0014 9B00     		lsls	r3, r3, #2
 1985              		.loc 1 880 38 view .LVU558
 1986 0016 0022     		movs	r2, #0
 1987 0018 1A60     		str	r2, [r3]
 881:Drivers/STM32F3xx_HAL_Driver/Src/stm32f3xx_hal_rcc.c **** }
 1988              		.loc 1 881 1 view .LVU559
 1989 001a 7047     		bx	lr
 1990              		.cfi_endproc
 1991              	.LFE131:
 1993              		.section	.text.HAL_RCC_GetSysClockFreq,"ax",%progbits
 1994              		.align	1
 1995              		.global	HAL_RCC_GetSysClockFreq
 1996              		.syntax unified
 1997              		.thumb
 1998              		.thumb_func
 1999              		.fpu fpv4-sp-d16
 2001              	HAL_RCC_GetSysClockFreq:
 2002              	.LFB132:
 882:Drivers/STM32F3xx_HAL_Driver/Src/stm32f3xx_hal_rcc.c **** 
 883:Drivers/STM32F3xx_HAL_Driver/Src/stm32f3xx_hal_rcc.c **** /**
 884:Drivers/STM32F3xx_HAL_Driver/Src/stm32f3xx_hal_rcc.c ****   * @brief  Returns the SYSCLK frequency     
 885:Drivers/STM32F3xx_HAL_Driver/Src/stm32f3xx_hal_rcc.c ****   * @note   The system frequency computed by this function is not the real 
 886:Drivers/STM32F3xx_HAL_Driver/Src/stm32f3xx_hal_rcc.c ****   *         frequency in the chip. It is calculated based on the predefined 
 887:Drivers/STM32F3xx_HAL_Driver/Src/stm32f3xx_hal_rcc.c ****   *         constant and the selected clock source:
 888:Drivers/STM32F3xx_HAL_Driver/Src/stm32f3xx_hal_rcc.c ****   * @note     If SYSCLK source is HSI, function returns values based on HSI_VALUE(*)
 889:Drivers/STM32F3xx_HAL_Driver/Src/stm32f3xx_hal_rcc.c ****   * @note     If SYSCLK source is HSE, function returns a value based on HSE_VALUE
 890:Drivers/STM32F3xx_HAL_Driver/Src/stm32f3xx_hal_rcc.c ****   *           divided by PREDIV factor(**)
 891:Drivers/STM32F3xx_HAL_Driver/Src/stm32f3xx_hal_rcc.c ****   * @note     If SYSCLK source is PLL, function returns a value based on HSE_VALUE
 892:Drivers/STM32F3xx_HAL_Driver/Src/stm32f3xx_hal_rcc.c ****   *           divided by PREDIV factor(**) or HSI_VALUE(*) multiplied by the PLL factor.
 893:Drivers/STM32F3xx_HAL_Driver/Src/stm32f3xx_hal_rcc.c ****   * @note     (*) HSI_VALUE is a constant defined in stm32f3xx_hal_conf.h file (default value
 894:Drivers/STM32F3xx_HAL_Driver/Src/stm32f3xx_hal_rcc.c ****   *               8 MHz) but the real value may vary depending on the variations
 895:Drivers/STM32F3xx_HAL_Driver/Src/stm32f3xx_hal_rcc.c ****   *               in voltage and temperature.
 896:Drivers/STM32F3xx_HAL_Driver/Src/stm32f3xx_hal_rcc.c ****   * @note     (**) HSE_VALUE is a constant defined in stm32f3xx_hal_conf.h file (default value
 897:Drivers/STM32F3xx_HAL_Driver/Src/stm32f3xx_hal_rcc.c ****   *                8 MHz), user has to ensure that HSE_VALUE is same as the real
 898:Drivers/STM32F3xx_HAL_Driver/Src/stm32f3xx_hal_rcc.c ****   *                frequency of the crystal used. Otherwise, this function may
 899:Drivers/STM32F3xx_HAL_Driver/Src/stm32f3xx_hal_rcc.c ****   *                have wrong result.
 900:Drivers/STM32F3xx_HAL_Driver/Src/stm32f3xx_hal_rcc.c ****   *                  
 901:Drivers/STM32F3xx_HAL_Driver/Src/stm32f3xx_hal_rcc.c ****   * @note   The result of this function could be not correct when using fractional
 902:Drivers/STM32F3xx_HAL_Driver/Src/stm32f3xx_hal_rcc.c ****   *         value for HSE crystal.
 903:Drivers/STM32F3xx_HAL_Driver/Src/stm32f3xx_hal_rcc.c ****   *           
 904:Drivers/STM32F3xx_HAL_Driver/Src/stm32f3xx_hal_rcc.c ****   * @note   This function can be used by the user application to compute the 
 905:Drivers/STM32F3xx_HAL_Driver/Src/stm32f3xx_hal_rcc.c ****   *         baud-rate for the communication peripherals or configure other parameters.
 906:Drivers/STM32F3xx_HAL_Driver/Src/stm32f3xx_hal_rcc.c ****   *           
 907:Drivers/STM32F3xx_HAL_Driver/Src/stm32f3xx_hal_rcc.c ****   * @note   Each time SYSCLK changes, this function must be called to update the
 908:Drivers/STM32F3xx_HAL_Driver/Src/stm32f3xx_hal_rcc.c ****   *         right SYSCLK value. Otherwise, any configuration based on this function will be incorre
 909:Drivers/STM32F3xx_HAL_Driver/Src/stm32f3xx_hal_rcc.c ****   *         
 910:Drivers/STM32F3xx_HAL_Driver/Src/stm32f3xx_hal_rcc.c ****   * @retval SYSCLK frequency
ARM GAS  /var/folders/8c/gyvcglfx7f97kbqb2h83mm_r0000gn/T//cc6V9BzC.s 			page 66


 911:Drivers/STM32F3xx_HAL_Driver/Src/stm32f3xx_hal_rcc.c ****   */
 912:Drivers/STM32F3xx_HAL_Driver/Src/stm32f3xx_hal_rcc.c **** uint32_t HAL_RCC_GetSysClockFreq(void)
 913:Drivers/STM32F3xx_HAL_Driver/Src/stm32f3xx_hal_rcc.c **** {
 2003              		.loc 1 913 1 is_stmt 1 view -0
 2004              		.cfi_startproc
 2005              		@ args = 0, pretend = 0, frame = 0
 2006              		@ frame_needed = 0, uses_anonymous_args = 0
 2007              		@ link register save eliminated.
 914:Drivers/STM32F3xx_HAL_Driver/Src/stm32f3xx_hal_rcc.c ****   uint32_t tmpreg = 0U, prediv = 0U, pllclk = 0U, pllmul = 0U;
 2008              		.loc 1 914 3 view .LVU561
 2009              	.LVL142:
 915:Drivers/STM32F3xx_HAL_Driver/Src/stm32f3xx_hal_rcc.c ****   uint32_t sysclockfreq = 0U;
 2010              		.loc 1 915 3 view .LVU562
 916:Drivers/STM32F3xx_HAL_Driver/Src/stm32f3xx_hal_rcc.c ****   
 917:Drivers/STM32F3xx_HAL_Driver/Src/stm32f3xx_hal_rcc.c ****   tmpreg = RCC->CFGR;
 2011              		.loc 1 917 3 view .LVU563
 2012              		.loc 1 917 10 is_stmt 0 view .LVU564
 2013 0000 174B     		ldr	r3, .L124
 2014 0002 5B68     		ldr	r3, [r3, #4]
 2015              	.LVL143:
 918:Drivers/STM32F3xx_HAL_Driver/Src/stm32f3xx_hal_rcc.c ****   
 919:Drivers/STM32F3xx_HAL_Driver/Src/stm32f3xx_hal_rcc.c ****   /* Get SYSCLK source -------------------------------------------------------*/
 920:Drivers/STM32F3xx_HAL_Driver/Src/stm32f3xx_hal_rcc.c ****   switch (tmpreg & RCC_CFGR_SWS)
 2016              		.loc 1 920 3 is_stmt 1 view .LVU565
 2017              		.loc 1 920 18 is_stmt 0 view .LVU566
 2018 0004 03F00C02 		and	r2, r3, #12
 2019              		.loc 1 920 3 view .LVU567
 2020 0008 082A     		cmp	r2, #8
 2021 000a 01D0     		beq	.L123
 921:Drivers/STM32F3xx_HAL_Driver/Src/stm32f3xx_hal_rcc.c ****   {
 922:Drivers/STM32F3xx_HAL_Driver/Src/stm32f3xx_hal_rcc.c ****     case RCC_SYSCLKSOURCE_STATUS_HSE:  /* HSE used as system clock */
 923:Drivers/STM32F3xx_HAL_Driver/Src/stm32f3xx_hal_rcc.c ****     {
 924:Drivers/STM32F3xx_HAL_Driver/Src/stm32f3xx_hal_rcc.c ****       sysclockfreq = HSE_VALUE;
 2022              		.loc 1 924 20 view .LVU568
 2023 000c 1548     		ldr	r0, .L124+4
 2024              	.LVL144:
 925:Drivers/STM32F3xx_HAL_Driver/Src/stm32f3xx_hal_rcc.c ****       break;
 926:Drivers/STM32F3xx_HAL_Driver/Src/stm32f3xx_hal_rcc.c ****     }
 927:Drivers/STM32F3xx_HAL_Driver/Src/stm32f3xx_hal_rcc.c ****     case RCC_SYSCLKSOURCE_STATUS_PLLCLK:  /* PLL used as system clock */
 928:Drivers/STM32F3xx_HAL_Driver/Src/stm32f3xx_hal_rcc.c ****     {
 929:Drivers/STM32F3xx_HAL_Driver/Src/stm32f3xx_hal_rcc.c ****       pllmul = aPLLMULFactorTable[(uint32_t)(tmpreg & RCC_CFGR_PLLMUL) >> POSITION_VAL(RCC_CFGR_PLL
 930:Drivers/STM32F3xx_HAL_Driver/Src/stm32f3xx_hal_rcc.c ****       prediv = aPredivFactorTable[(uint32_t)(RCC->CFGR2 & RCC_CFGR2_PREDIV) >> POSITION_VAL(RCC_CFG
 931:Drivers/STM32F3xx_HAL_Driver/Src/stm32f3xx_hal_rcc.c **** #if defined(RCC_CFGR_PLLSRC_HSI_DIV2)
 932:Drivers/STM32F3xx_HAL_Driver/Src/stm32f3xx_hal_rcc.c ****       if ((tmpreg & RCC_CFGR_PLLSRC) != RCC_PLLSOURCE_HSI)
 933:Drivers/STM32F3xx_HAL_Driver/Src/stm32f3xx_hal_rcc.c ****       {
 934:Drivers/STM32F3xx_HAL_Driver/Src/stm32f3xx_hal_rcc.c ****         /* HSE used as PLL clock source : PLLCLK = HSE/PREDIV * PLLMUL */
 935:Drivers/STM32F3xx_HAL_Driver/Src/stm32f3xx_hal_rcc.c ****         pllclk = (HSE_VALUE / prediv) * pllmul;
 936:Drivers/STM32F3xx_HAL_Driver/Src/stm32f3xx_hal_rcc.c ****       }
 937:Drivers/STM32F3xx_HAL_Driver/Src/stm32f3xx_hal_rcc.c ****       else
 938:Drivers/STM32F3xx_HAL_Driver/Src/stm32f3xx_hal_rcc.c ****       {
 939:Drivers/STM32F3xx_HAL_Driver/Src/stm32f3xx_hal_rcc.c ****         /* HSI used as PLL clock source : PLLCLK = HSI/2 * PLLMUL */
 940:Drivers/STM32F3xx_HAL_Driver/Src/stm32f3xx_hal_rcc.c ****         pllclk = (HSI_VALUE >> 1U) * pllmul;
 941:Drivers/STM32F3xx_HAL_Driver/Src/stm32f3xx_hal_rcc.c ****       }
 942:Drivers/STM32F3xx_HAL_Driver/Src/stm32f3xx_hal_rcc.c **** #else
 943:Drivers/STM32F3xx_HAL_Driver/Src/stm32f3xx_hal_rcc.c ****       if ((tmpreg & RCC_CFGR_PLLSRC_HSE_PREDIV) == RCC_CFGR_PLLSRC_HSE_PREDIV)
 944:Drivers/STM32F3xx_HAL_Driver/Src/stm32f3xx_hal_rcc.c ****       {
 945:Drivers/STM32F3xx_HAL_Driver/Src/stm32f3xx_hal_rcc.c ****         /* HSE used as PLL clock source : PLLCLK = HSE/PREDIV * PLLMUL */
ARM GAS  /var/folders/8c/gyvcglfx7f97kbqb2h83mm_r0000gn/T//cc6V9BzC.s 			page 67


 946:Drivers/STM32F3xx_HAL_Driver/Src/stm32f3xx_hal_rcc.c ****         pllclk = (HSE_VALUE / prediv) * pllmul;
 947:Drivers/STM32F3xx_HAL_Driver/Src/stm32f3xx_hal_rcc.c ****       }
 948:Drivers/STM32F3xx_HAL_Driver/Src/stm32f3xx_hal_rcc.c ****       else
 949:Drivers/STM32F3xx_HAL_Driver/Src/stm32f3xx_hal_rcc.c ****       {
 950:Drivers/STM32F3xx_HAL_Driver/Src/stm32f3xx_hal_rcc.c ****         /* HSI used as PLL clock source : PLLCLK = HSI/PREDIV * PLLMUL */
 951:Drivers/STM32F3xx_HAL_Driver/Src/stm32f3xx_hal_rcc.c ****         pllclk = (HSI_VALUE / prediv) * pllmul;
 952:Drivers/STM32F3xx_HAL_Driver/Src/stm32f3xx_hal_rcc.c ****       }
 953:Drivers/STM32F3xx_HAL_Driver/Src/stm32f3xx_hal_rcc.c **** #endif /* RCC_CFGR_PLLSRC_HSI_DIV2 */
 954:Drivers/STM32F3xx_HAL_Driver/Src/stm32f3xx_hal_rcc.c ****       sysclockfreq = pllclk;
 955:Drivers/STM32F3xx_HAL_Driver/Src/stm32f3xx_hal_rcc.c ****       break;
 956:Drivers/STM32F3xx_HAL_Driver/Src/stm32f3xx_hal_rcc.c ****     }
 957:Drivers/STM32F3xx_HAL_Driver/Src/stm32f3xx_hal_rcc.c ****     case RCC_SYSCLKSOURCE_STATUS_HSI:  /* HSI used as system clock source */
 958:Drivers/STM32F3xx_HAL_Driver/Src/stm32f3xx_hal_rcc.c ****     default: /* HSI used as system clock */
 959:Drivers/STM32F3xx_HAL_Driver/Src/stm32f3xx_hal_rcc.c ****     {
 960:Drivers/STM32F3xx_HAL_Driver/Src/stm32f3xx_hal_rcc.c ****       sysclockfreq = HSI_VALUE;
 961:Drivers/STM32F3xx_HAL_Driver/Src/stm32f3xx_hal_rcc.c ****       break;
 962:Drivers/STM32F3xx_HAL_Driver/Src/stm32f3xx_hal_rcc.c ****     }
 963:Drivers/STM32F3xx_HAL_Driver/Src/stm32f3xx_hal_rcc.c ****   }
 964:Drivers/STM32F3xx_HAL_Driver/Src/stm32f3xx_hal_rcc.c ****   return sysclockfreq;
 2025              		.loc 1 964 3 is_stmt 1 view .LVU569
 965:Drivers/STM32F3xx_HAL_Driver/Src/stm32f3xx_hal_rcc.c **** }
 2026              		.loc 1 965 1 is_stmt 0 view .LVU570
 2027 000e 7047     		bx	lr
 2028              	.LVL145:
 2029              	.L123:
 929:Drivers/STM32F3xx_HAL_Driver/Src/stm32f3xx_hal_rcc.c ****       prediv = aPredivFactorTable[(uint32_t)(RCC->CFGR2 & RCC_CFGR2_PREDIV) >> POSITION_VAL(RCC_CFG
 2030              		.loc 1 929 7 is_stmt 1 view .LVU571
 929:Drivers/STM32F3xx_HAL_Driver/Src/stm32f3xx_hal_rcc.c ****       prediv = aPredivFactorTable[(uint32_t)(RCC->CFGR2 & RCC_CFGR2_PREDIV) >> POSITION_VAL(RCC_CFG
 2031              		.loc 1 929 35 is_stmt 0 view .LVU572
 2032 0010 03F47011 		and	r1, r3, #3932160
 2033              	.LVL146:
 2034              	.LBB261:
 2035              	.LBI261:
 526:Drivers/CMSIS/Include/cmsis_gcc.h **** {
 2036              		.loc 2 526 57 is_stmt 1 view .LVU573
 2037              	.LBB262:
 528:Drivers/CMSIS/Include/cmsis_gcc.h **** 
 2038              		.loc 2 528 3 view .LVU574
 531:Drivers/CMSIS/Include/cmsis_gcc.h **** #else
 2039              		.loc 2 531 4 view .LVU575
 2040 0014 4FF47012 		mov	r2, #3932160
 2041              		.syntax unified
 2042              	@ 531 "Drivers/CMSIS/Include/cmsis_gcc.h" 1
 2043 0018 92FAA2F2 		rbit r2, r2
 2044              	@ 0 "" 2
 2045              	.LVL147:
 2046              		.loc 2 544 3 view .LVU576
 2047              		.loc 2 544 3 is_stmt 0 view .LVU577
 2048              		.thumb
 2049              		.syntax unified
 2050              	.LBE262:
 2051              	.LBE261:
 929:Drivers/STM32F3xx_HAL_Driver/Src/stm32f3xx_hal_rcc.c ****       prediv = aPredivFactorTable[(uint32_t)(RCC->CFGR2 & RCC_CFGR2_PREDIV) >> POSITION_VAL(RCC_CFG
 2052              		.loc 1 929 75 view .LVU578
 2053 001c B2FA82F2 		clz	r2, r2
 929:Drivers/STM32F3xx_HAL_Driver/Src/stm32f3xx_hal_rcc.c ****       prediv = aPredivFactorTable[(uint32_t)(RCC->CFGR2 & RCC_CFGR2_PREDIV) >> POSITION_VAL(RCC_CFG
 2054              		.loc 1 929 72 view .LVU579
ARM GAS  /var/folders/8c/gyvcglfx7f97kbqb2h83mm_r0000gn/T//cc6V9BzC.s 			page 68


 2055 0020 21FA02F2 		lsr	r2, r1, r2
 929:Drivers/STM32F3xx_HAL_Driver/Src/stm32f3xx_hal_rcc.c ****       prediv = aPredivFactorTable[(uint32_t)(RCC->CFGR2 & RCC_CFGR2_PREDIV) >> POSITION_VAL(RCC_CFG
 2056              		.loc 1 929 34 view .LVU580
 2057 0024 1049     		ldr	r1, .L124+8
 2058 0026 885C     		ldrb	r0, [r1, r2]	@ zero_extendqisi2
 2059              	.LVL148:
 930:Drivers/STM32F3xx_HAL_Driver/Src/stm32f3xx_hal_rcc.c **** #if defined(RCC_CFGR_PLLSRC_HSI_DIV2)
 2060              		.loc 1 930 7 is_stmt 1 view .LVU581
 930:Drivers/STM32F3xx_HAL_Driver/Src/stm32f3xx_hal_rcc.c **** #if defined(RCC_CFGR_PLLSRC_HSI_DIV2)
 2061              		.loc 1 930 49 is_stmt 0 view .LVU582
 2062 0028 0D4A     		ldr	r2, .L124
 2063 002a D26A     		ldr	r2, [r2, #44]
 930:Drivers/STM32F3xx_HAL_Driver/Src/stm32f3xx_hal_rcc.c **** #if defined(RCC_CFGR_PLLSRC_HSI_DIV2)
 2064              		.loc 1 930 35 view .LVU583
 2065 002c 02F00F02 		and	r2, r2, #15
 2066              	.LVL149:
 2067              	.LBB263:
 2068              	.LBI263:
 526:Drivers/CMSIS/Include/cmsis_gcc.h **** {
 2069              		.loc 2 526 57 is_stmt 1 view .LVU584
 2070              	.LBB264:
 528:Drivers/CMSIS/Include/cmsis_gcc.h **** 
 2071              		.loc 2 528 3 view .LVU585
 531:Drivers/CMSIS/Include/cmsis_gcc.h **** #else
 2072              		.loc 2 531 4 view .LVU586
 2073 0030 0F21     		movs	r1, #15
 2074              		.syntax unified
 2075              	@ 531 "Drivers/CMSIS/Include/cmsis_gcc.h" 1
 2076 0032 91FAA1F1 		rbit r1, r1
 2077              	@ 0 "" 2
 2078              	.LVL150:
 2079              		.loc 2 544 3 view .LVU587
 2080              		.loc 2 544 3 is_stmt 0 view .LVU588
 2081              		.thumb
 2082              		.syntax unified
 2083              	.LBE264:
 2084              	.LBE263:
 930:Drivers/STM32F3xx_HAL_Driver/Src/stm32f3xx_hal_rcc.c **** #if defined(RCC_CFGR_PLLSRC_HSI_DIV2)
 2085              		.loc 1 930 80 view .LVU589
 2086 0036 B1FA81F1 		clz	r1, r1
 930:Drivers/STM32F3xx_HAL_Driver/Src/stm32f3xx_hal_rcc.c **** #if defined(RCC_CFGR_PLLSRC_HSI_DIV2)
 2087              		.loc 1 930 77 view .LVU590
 2088 003a CA40     		lsrs	r2, r2, r1
 930:Drivers/STM32F3xx_HAL_Driver/Src/stm32f3xx_hal_rcc.c **** #if defined(RCC_CFGR_PLLSRC_HSI_DIV2)
 2089              		.loc 1 930 34 view .LVU591
 2090 003c 0B49     		ldr	r1, .L124+12
 2091 003e 8A5C     		ldrb	r2, [r1, r2]	@ zero_extendqisi2
 2092              	.LVL151:
 943:Drivers/STM32F3xx_HAL_Driver/Src/stm32f3xx_hal_rcc.c ****       {
 2093              		.loc 1 943 7 is_stmt 1 view .LVU592
 943:Drivers/STM32F3xx_HAL_Driver/Src/stm32f3xx_hal_rcc.c ****       {
 2094              		.loc 1 943 10 is_stmt 0 view .LVU593
 2095 0040 13F4803F 		tst	r3, #65536
 2096 0044 05D0     		beq	.L121
 946:Drivers/STM32F3xx_HAL_Driver/Src/stm32f3xx_hal_rcc.c ****       }
 2097              		.loc 1 946 9 is_stmt 1 view .LVU594
 946:Drivers/STM32F3xx_HAL_Driver/Src/stm32f3xx_hal_rcc.c ****       }
ARM GAS  /var/folders/8c/gyvcglfx7f97kbqb2h83mm_r0000gn/T//cc6V9BzC.s 			page 69


 2098              		.loc 1 946 29 is_stmt 0 view .LVU595
 2099 0046 074B     		ldr	r3, .L124+4
 2100              	.LVL152:
 946:Drivers/STM32F3xx_HAL_Driver/Src/stm32f3xx_hal_rcc.c ****       }
 2101              		.loc 1 946 29 view .LVU596
 2102 0048 B3FBF2F3 		udiv	r3, r3, r2
 946:Drivers/STM32F3xx_HAL_Driver/Src/stm32f3xx_hal_rcc.c ****       }
 2103              		.loc 1 946 16 view .LVU597
 2104 004c 00FB03F0 		mul	r0, r0, r3
 2105              	.LVL153:
 946:Drivers/STM32F3xx_HAL_Driver/Src/stm32f3xx_hal_rcc.c ****       }
 2106              		.loc 1 946 16 view .LVU598
 2107 0050 7047     		bx	lr
 2108              	.LVL154:
 2109              	.L121:
 951:Drivers/STM32F3xx_HAL_Driver/Src/stm32f3xx_hal_rcc.c ****       }
 2110              		.loc 1 951 9 is_stmt 1 view .LVU599
 951:Drivers/STM32F3xx_HAL_Driver/Src/stm32f3xx_hal_rcc.c ****       }
 2111              		.loc 1 951 29 is_stmt 0 view .LVU600
 2112 0052 044B     		ldr	r3, .L124+4
 2113              	.LVL155:
 951:Drivers/STM32F3xx_HAL_Driver/Src/stm32f3xx_hal_rcc.c ****       }
 2114              		.loc 1 951 29 view .LVU601
 2115 0054 B3FBF2F3 		udiv	r3, r3, r2
 951:Drivers/STM32F3xx_HAL_Driver/Src/stm32f3xx_hal_rcc.c ****       }
 2116              		.loc 1 951 16 view .LVU602
 2117 0058 00FB03F0 		mul	r0, r0, r3
 2118              	.LVL156:
 951:Drivers/STM32F3xx_HAL_Driver/Src/stm32f3xx_hal_rcc.c ****       }
 2119              		.loc 1 951 16 view .LVU603
 2120 005c 7047     		bx	lr
 2121              	.L125:
 2122 005e 00BF     		.align	2
 2123              	.L124:
 2124 0060 00100240 		.word	1073876992
 2125 0064 00127A00 		.word	8000000
 2126 0068 00000000 		.word	.LANCHOR0
 2127 006c 00000000 		.word	.LANCHOR1
 2128              		.cfi_endproc
 2129              	.LFE132:
 2131              		.section	.text.HAL_RCC_ClockConfig,"ax",%progbits
 2132              		.align	1
 2133              		.global	HAL_RCC_ClockConfig
 2134              		.syntax unified
 2135              		.thumb
 2136              		.thumb_func
 2137              		.fpu fpv4-sp-d16
 2139              	HAL_RCC_ClockConfig:
 2140              	.LVL157:
 2141              	.LFB128:
 627:Drivers/STM32F3xx_HAL_Driver/Src/stm32f3xx_hal_rcc.c ****   uint32_t tickstart = 0U;
 2142              		.loc 1 627 1 is_stmt 1 view -0
 2143              		.cfi_startproc
 2144              		@ args = 0, pretend = 0, frame = 0
 2145              		@ frame_needed = 0, uses_anonymous_args = 0
 628:Drivers/STM32F3xx_HAL_Driver/Src/stm32f3xx_hal_rcc.c ****   
 2146              		.loc 1 628 3 view .LVU605
ARM GAS  /var/folders/8c/gyvcglfx7f97kbqb2h83mm_r0000gn/T//cc6V9BzC.s 			page 70


 631:Drivers/STM32F3xx_HAL_Driver/Src/stm32f3xx_hal_rcc.c ****   assert_param(IS_RCC_CLOCKTYPE(RCC_ClkInitStruct->ClockType));
 2147              		.loc 1 631 3 view .LVU606
 632:Drivers/STM32F3xx_HAL_Driver/Src/stm32f3xx_hal_rcc.c ****   assert_param(IS_FLASH_LATENCY(FLatency));
 2148              		.loc 1 632 3 view .LVU607
 633:Drivers/STM32F3xx_HAL_Driver/Src/stm32f3xx_hal_rcc.c **** 
 2149              		.loc 1 633 3 view .LVU608
 640:Drivers/STM32F3xx_HAL_Driver/Src/stm32f3xx_hal_rcc.c ****   {    
 2150              		.loc 1 640 3 view .LVU609
 640:Drivers/STM32F3xx_HAL_Driver/Src/stm32f3xx_hal_rcc.c ****   {    
 2151              		.loc 1 640 23 is_stmt 0 view .LVU610
 2152 0000 714B     		ldr	r3, .L164
 2153 0002 1B68     		ldr	r3, [r3]
 640:Drivers/STM32F3xx_HAL_Driver/Src/stm32f3xx_hal_rcc.c ****   {    
 2154              		.loc 1 640 29 view .LVU611
 2155 0004 03F00703 		and	r3, r3, #7
 640:Drivers/STM32F3xx_HAL_Driver/Src/stm32f3xx_hal_rcc.c ****   {    
 2156              		.loc 1 640 5 view .LVU612
 2157 0008 8B42     		cmp	r3, r1
 2158 000a 0BD2     		bcs	.L127
 643:Drivers/STM32F3xx_HAL_Driver/Src/stm32f3xx_hal_rcc.c ****     
 2159              		.loc 1 643 5 is_stmt 1 view .LVU613
 2160 000c 6E4A     		ldr	r2, .L164
 2161 000e 1368     		ldr	r3, [r2]
 2162 0010 23F00703 		bic	r3, r3, #7
 2163 0014 0B43     		orrs	r3, r3, r1
 2164 0016 1360     		str	r3, [r2]
 647:Drivers/STM32F3xx_HAL_Driver/Src/stm32f3xx_hal_rcc.c ****     {
 2165              		.loc 1 647 5 view .LVU614
 647:Drivers/STM32F3xx_HAL_Driver/Src/stm32f3xx_hal_rcc.c ****     {
 2166              		.loc 1 647 14 is_stmt 0 view .LVU615
 2167 0018 1368     		ldr	r3, [r2]
 647:Drivers/STM32F3xx_HAL_Driver/Src/stm32f3xx_hal_rcc.c ****     {
 2168              		.loc 1 647 20 view .LVU616
 2169 001a 03F00703 		and	r3, r3, #7
 647:Drivers/STM32F3xx_HAL_Driver/Src/stm32f3xx_hal_rcc.c ****     {
 2170              		.loc 1 647 7 view .LVU617
 2171 001e 8B42     		cmp	r3, r1
 2172 0020 40F0CB80 		bne	.L150
 2173              	.L127:
 627:Drivers/STM32F3xx_HAL_Driver/Src/stm32f3xx_hal_rcc.c ****   uint32_t tickstart = 0U;
 2174              		.loc 1 627 1 view .LVU618
 2175 0024 70B5     		push	{r4, r5, r6, lr}
 2176              	.LCFI7:
 2177              		.cfi_def_cfa_offset 16
 2178              		.cfi_offset 4, -16
 2179              		.cfi_offset 5, -12
 2180              		.cfi_offset 6, -8
 2181              		.cfi_offset 14, -4
 654:Drivers/STM32F3xx_HAL_Driver/Src/stm32f3xx_hal_rcc.c ****   {
 2182              		.loc 1 654 3 is_stmt 1 view .LVU619
 654:Drivers/STM32F3xx_HAL_Driver/Src/stm32f3xx_hal_rcc.c ****   {
 2183              		.loc 1 654 25 is_stmt 0 view .LVU620
 2184 0026 0368     		ldr	r3, [r0]
 654:Drivers/STM32F3xx_HAL_Driver/Src/stm32f3xx_hal_rcc.c ****   {
 2185              		.loc 1 654 5 view .LVU621
 2186 0028 13F0020F 		tst	r3, #2
 2187 002c 06D0     		beq	.L129
ARM GAS  /var/folders/8c/gyvcglfx7f97kbqb2h83mm_r0000gn/T//cc6V9BzC.s 			page 71


 656:Drivers/STM32F3xx_HAL_Driver/Src/stm32f3xx_hal_rcc.c ****     MODIFY_REG(RCC->CFGR, RCC_CFGR_HPRE, RCC_ClkInitStruct->AHBCLKDivider);
 2188              		.loc 1 656 5 is_stmt 1 view .LVU622
 657:Drivers/STM32F3xx_HAL_Driver/Src/stm32f3xx_hal_rcc.c ****   }
 2189              		.loc 1 657 5 view .LVU623
 2190 002e 674A     		ldr	r2, .L164+4
 2191 0030 5368     		ldr	r3, [r2, #4]
 2192 0032 23F0F003 		bic	r3, r3, #240
 2193 0036 8468     		ldr	r4, [r0, #8]
 2194 0038 2343     		orrs	r3, r3, r4
 2195 003a 5360     		str	r3, [r2, #4]
 2196              	.L129:
 2197 003c 0D46     		mov	r5, r1
 2198 003e 0446     		mov	r4, r0
 661:Drivers/STM32F3xx_HAL_Driver/Src/stm32f3xx_hal_rcc.c ****   {    
 2199              		.loc 1 661 3 view .LVU624
 661:Drivers/STM32F3xx_HAL_Driver/Src/stm32f3xx_hal_rcc.c ****   {    
 2200              		.loc 1 661 25 is_stmt 0 view .LVU625
 2201 0040 0368     		ldr	r3, [r0]
 661:Drivers/STM32F3xx_HAL_Driver/Src/stm32f3xx_hal_rcc.c ****   {    
 2202              		.loc 1 661 5 view .LVU626
 2203 0042 13F0010F 		tst	r3, #1
 2204 0046 7AD0     		beq	.L130
