ARM GAS  /var/folders/md/lgcc8l7571l9vt9sx0g0zflw0000gn/T//cc2BSFDx.s 			page 1


   1              		.cpu cortex-m4
   2              		.eabi_attribute 27, 1
   3              		.eabi_attribute 28, 1
   4              		.eabi_attribute 20, 1
   5              		.eabi_attribute 21, 1
   6              		.eabi_attribute 23, 3
   7              		.eabi_attribute 24, 1
   8              		.eabi_attribute 25, 1
   9              		.eabi_attribute 26, 1
  10              		.eabi_attribute 30, 1
  11              		.eabi_attribute 34, 1
  12              		.eabi_attribute 18, 4
  13              		.file	"usart.c"
  14              		.text
  15              	.Ltext0:
  16              		.cfi_sections	.debug_frame
  17              		.section	.text.MX_USART2_UART_Init,"ax",%progbits
  18              		.align	1
  19              		.global	MX_USART2_UART_Init
  20              		.arch armv7e-m
  21              		.syntax unified
  22              		.thumb
  23              		.thumb_func
  24              		.fpu fpv4-sp-d16
  26              	MX_USART2_UART_Init:
  27              	.LFB126:
  28              		.file 1 "Src/usart.c"
   1:Src/usart.c   **** /**
   2:Src/usart.c   ****   ******************************************************************************
   3:Src/usart.c   ****   * File Name          : USART.c
   4:Src/usart.c   ****   * Description        : This file provides code for the configuration
   5:Src/usart.c   ****   *                      of the USART instances.
   6:Src/usart.c   ****   ******************************************************************************
   7:Src/usart.c   ****   * @attention
   8:Src/usart.c   ****   *
   9:Src/usart.c   ****   * <h2><center>&copy; Copyright (c) 2019 STMicroelectronics.
  10:Src/usart.c   ****   * All rights reserved.</center></h2>
  11:Src/usart.c   ****   *
  12:Src/usart.c   ****   * This software component is licensed by ST under BSD 3-Clause license,
  13:Src/usart.c   ****   * the "License"; You may not use this file except in compliance with the
  14:Src/usart.c   ****   * License. You may obtain a copy of the License at:
  15:Src/usart.c   ****   *                        opensource.org/licenses/BSD-3-Clause
  16:Src/usart.c   ****   *
  17:Src/usart.c   ****   ******************************************************************************
  18:Src/usart.c   ****   */
  19:Src/usart.c   **** 
  20:Src/usart.c   **** /* Includes ------------------------------------------------------------------*/
  21:Src/usart.c   **** #include "usart.h"
  22:Src/usart.c   **** 
  23:Src/usart.c   **** /* USER CODE BEGIN 0 */
  24:Src/usart.c   **** #include <string.h>
  25:Src/usart.c   **** /* USER CODE END 0 */
  26:Src/usart.c   **** 
  27:Src/usart.c   **** UART_HandleTypeDef huart2;
  28:Src/usart.c   **** DMA_HandleTypeDef hdma_usart2_rx;
  29:Src/usart.c   **** 
  30:Src/usart.c   **** /* USART2 init function */
ARM GAS  /var/folders/md/lgcc8l7571l9vt9sx0g0zflw0000gn/T//cc2BSFDx.s 			page 2


  31:Src/usart.c   **** 
  32:Src/usart.c   **** void MX_USART2_UART_Init(void)
  33:Src/usart.c   **** {
  29              		.loc 1 33 1 view -0
  30              		.cfi_startproc
  31              		@ args = 0, pretend = 0, frame = 0
  32              		@ frame_needed = 0, uses_anonymous_args = 0
  33 0000 08B5     		push	{r3, lr}
  34              	.LCFI0:
  35              		.cfi_def_cfa_offset 8
  36              		.cfi_offset 3, -8
  37              		.cfi_offset 14, -4
  34:Src/usart.c   **** 
  35:Src/usart.c   ****   huart2.Instance = USART2;
  38              		.loc 1 35 3 view .LVU1
  39              		.loc 1 35 19 is_stmt 0 view .LVU2
  40 0002 0D48     		ldr	r0, .L5
  41 0004 0D4B     		ldr	r3, .L5+4
  42 0006 0360     		str	r3, [r0]
  36:Src/usart.c   ****   huart2.Init.BaudRate = 115200;
  43              		.loc 1 36 3 is_stmt 1 view .LVU3
  44              		.loc 1 36 24 is_stmt 0 view .LVU4
  45 0008 4FF4E133 		mov	r3, #115200
  46 000c 4360     		str	r3, [r0, #4]
  37:Src/usart.c   ****   huart2.Init.WordLength = UART_WORDLENGTH_8B;
  47              		.loc 1 37 3 is_stmt 1 view .LVU5
  48              		.loc 1 37 26 is_stmt 0 view .LVU6
  49 000e 0023     		movs	r3, #0
  50 0010 8360     		str	r3, [r0, #8]
  38:Src/usart.c   ****   huart2.Init.StopBits = UART_STOPBITS_1;
  51              		.loc 1 38 3 is_stmt 1 view .LVU7
  52              		.loc 1 38 24 is_stmt 0 view .LVU8
  53 0012 C360     		str	r3, [r0, #12]
  39:Src/usart.c   ****   huart2.Init.Parity = UART_PARITY_NONE;
  54              		.loc 1 39 3 is_stmt 1 view .LVU9
  55              		.loc 1 39 22 is_stmt 0 view .LVU10
  56 0014 0361     		str	r3, [r0, #16]
  40:Src/usart.c   ****   huart2.Init.Mode = UART_MODE_TX_RX;
  57              		.loc 1 40 3 is_stmt 1 view .LVU11
  58              		.loc 1 40 20 is_stmt 0 view .LVU12
  59 0016 0C22     		movs	r2, #12
  60 0018 4261     		str	r2, [r0, #20]
  41:Src/usart.c   ****   huart2.Init.HwFlowCtl = UART_HWCONTROL_NONE;
  61              		.loc 1 41 3 is_stmt 1 view .LVU13
  62              		.loc 1 41 25 is_stmt 0 view .LVU14
  63 001a 8361     		str	r3, [r0, #24]
  42:Src/usart.c   ****   huart2.Init.OverSampling = UART_OVERSAMPLING_16;
  64              		.loc 1 42 3 is_stmt 1 view .LVU15
  65              		.loc 1 42 28 is_stmt 0 view .LVU16
  66 001c C361     		str	r3, [r0, #28]
  43:Src/usart.c   ****   huart2.Init.OneBitSampling = UART_ONE_BIT_SAMPLE_DISABLE;
  67              		.loc 1 43 3 is_stmt 1 view .LVU17
  68              		.loc 1 43 30 is_stmt 0 view .LVU18
  69 001e 0362     		str	r3, [r0, #32]
  44:Src/usart.c   ****   huart2.AdvancedInit.AdvFeatureInit = UART_ADVFEATURE_DMADISABLEONERROR_INIT;
  70              		.loc 1 44 3 is_stmt 1 view .LVU19
  71              		.loc 1 44 38 is_stmt 0 view .LVU20
ARM GAS  /var/folders/md/lgcc8l7571l9vt9sx0g0zflw0000gn/T//cc2BSFDx.s 			page 3


  72 0020 2023     		movs	r3, #32
  73 0022 4362     		str	r3, [r0, #36]
  45:Src/usart.c   ****   huart2.AdvancedInit.DMADisableonRxError = UART_ADVFEATURE_DMA_DISABLEONRXERROR;
  74              		.loc 1 45 3 is_stmt 1 view .LVU21
  75              		.loc 1 45 43 is_stmt 0 view .LVU22
  76 0024 4FF40053 		mov	r3, #8192
  77 0028 C363     		str	r3, [r0, #60]
  46:Src/usart.c   ****   if (HAL_UART_Init(&huart2) != HAL_OK)
  78              		.loc 1 46 3 is_stmt 1 view .LVU23
  79              		.loc 1 46 7 is_stmt 0 view .LVU24
  80 002a FFF7FEFF 		bl	HAL_UART_Init
  81              	.LVL0:
  82              		.loc 1 46 6 view .LVU25
  83 002e 00B9     		cbnz	r0, .L4
  84              	.L1:
  47:Src/usart.c   ****   {
  48:Src/usart.c   ****     Error_Handler();
  49:Src/usart.c   ****   }
  50:Src/usart.c   **** 
  51:Src/usart.c   **** }
  85              		.loc 1 51 1 view .LVU26
  86 0030 08BD     		pop	{r3, pc}
  87              	.L4:
  48:Src/usart.c   ****   }
  88              		.loc 1 48 5 is_stmt 1 view .LVU27
  89 0032 FFF7FEFF 		bl	Error_Handler
  90              	.LVL1:
  91              		.loc 1 51 1 is_stmt 0 view .LVU28
  92 0036 FBE7     		b	.L1
  93              	.L6:
  94              		.align	2
  95              	.L5:
  96 0038 00000000 		.word	huart2
  97 003c 00440040 		.word	1073759232
  98              		.cfi_endproc
  99              	.LFE126:
 101              		.section	.text.HAL_UART_MspInit,"ax",%progbits
 102              		.align	1
 103              		.global	HAL_UART_MspInit
 104              		.syntax unified
 105              		.thumb
 106              		.thumb_func
 107              		.fpu fpv4-sp-d16
 109              	HAL_UART_MspInit:
 110              	.LVL2:
 111              	.LFB127:
  52:Src/usart.c   **** 
  53:Src/usart.c   **** void HAL_UART_MspInit(UART_HandleTypeDef* uartHandle)
  54:Src/usart.c   **** {
 112              		.loc 1 54 1 is_stmt 1 view -0
 113              		.cfi_startproc
 114              		@ args = 0, pretend = 0, frame = 32
 115              		@ frame_needed = 0, uses_anonymous_args = 0
 116              		.loc 1 54 1 is_stmt 0 view .LVU30
 117 0000 F0B5     		push	{r4, r5, r6, r7, lr}
 118              	.LCFI1:
 119              		.cfi_def_cfa_offset 20
ARM GAS  /var/folders/md/lgcc8l7571l9vt9sx0g0zflw0000gn/T//cc2BSFDx.s 			page 4


 120              		.cfi_offset 4, -20
 121              		.cfi_offset 5, -16
 122              		.cfi_offset 6, -12
 123              		.cfi_offset 7, -8
 124              		.cfi_offset 14, -4
 125 0002 89B0     		sub	sp, sp, #36
 126              	.LCFI2:
 127              		.cfi_def_cfa_offset 56
  55:Src/usart.c   **** 
  56:Src/usart.c   ****   GPIO_InitTypeDef GPIO_InitStruct = {0};
 128              		.loc 1 56 3 is_stmt 1 view .LVU31
 129              		.loc 1 56 20 is_stmt 0 view .LVU32
 130 0004 0023     		movs	r3, #0
 131 0006 0393     		str	r3, [sp, #12]
 132 0008 0493     		str	r3, [sp, #16]
 133 000a 0593     		str	r3, [sp, #20]
 134 000c 0693     		str	r3, [sp, #24]
 135 000e 0793     		str	r3, [sp, #28]
  57:Src/usart.c   ****   if(uartHandle->Instance==USART2)
 136              		.loc 1 57 3 is_stmt 1 view .LVU33
 137              		.loc 1 57 16 is_stmt 0 view .LVU34
 138 0010 0268     		ldr	r2, [r0]
 139              		.loc 1 57 5 view .LVU35
 140 0012 2C4B     		ldr	r3, .L13
 141 0014 9A42     		cmp	r2, r3
 142 0016 01D0     		beq	.L11
 143              	.LVL3:
 144              	.L7:
  58:Src/usart.c   ****   {
  59:Src/usart.c   ****   /* USER CODE BEGIN USART2_MspInit 0 */
  60:Src/usart.c   **** 
  61:Src/usart.c   ****   /* USER CODE END USART2_MspInit 0 */
  62:Src/usart.c   ****     /* USART2 clock enable */
  63:Src/usart.c   ****     __HAL_RCC_USART2_CLK_ENABLE();
  64:Src/usart.c   ****   
  65:Src/usart.c   ****     __HAL_RCC_GPIOA_CLK_ENABLE();
  66:Src/usart.c   ****     __HAL_RCC_GPIOD_CLK_ENABLE();
  67:Src/usart.c   ****     /**USART2 GPIO Configuration    
  68:Src/usart.c   ****     PA3     ------> USART2_RX
  69:Src/usart.c   ****     PD5     ------> USART2_TX 
  70:Src/usart.c   ****     */
  71:Src/usart.c   ****     GPIO_InitStruct.Pin = GPIO_PIN_3;
  72:Src/usart.c   ****     GPIO_InitStruct.Mode = GPIO_MODE_AF_PP;
  73:Src/usart.c   ****     GPIO_InitStruct.Pull = GPIO_NOPULL;
  74:Src/usart.c   ****     GPIO_InitStruct.Speed = GPIO_SPEED_FREQ_HIGH;
  75:Src/usart.c   ****     GPIO_InitStruct.Alternate = GPIO_AF7_USART2;
  76:Src/usart.c   ****     HAL_GPIO_Init(GPIOA, &GPIO_InitStruct);
  77:Src/usart.c   **** 
  78:Src/usart.c   ****     GPIO_InitStruct.Pin = GPIO_PIN_5;
  79:Src/usart.c   ****     GPIO_InitStruct.Mode = GPIO_MODE_AF_PP;
  80:Src/usart.c   ****     GPIO_InitStruct.Pull = GPIO_NOPULL;
  81:Src/usart.c   ****     GPIO_InitStruct.Speed = GPIO_SPEED_FREQ_HIGH;
  82:Src/usart.c   ****     GPIO_InitStruct.Alternate = GPIO_AF7_USART2;
  83:Src/usart.c   ****     HAL_GPIO_Init(GPIOD, &GPIO_InitStruct);
  84:Src/usart.c   **** 
  85:Src/usart.c   ****     /* USART2 DMA Init */
  86:Src/usart.c   ****     /* USART2_RX Init */
ARM GAS  /var/folders/md/lgcc8l7571l9vt9sx0g0zflw0000gn/T//cc2BSFDx.s 			page 5


  87:Src/usart.c   ****     hdma_usart2_rx.Instance = DMA1_Channel6;
  88:Src/usart.c   ****     hdma_usart2_rx.Init.Direction = DMA_PERIPH_TO_MEMORY;
  89:Src/usart.c   ****     hdma_usart2_rx.Init.PeriphInc = DMA_PINC_DISABLE;
  90:Src/usart.c   ****     hdma_usart2_rx.Init.MemInc = DMA_MINC_ENABLE;
  91:Src/usart.c   ****     hdma_usart2_rx.Init.PeriphDataAlignment = DMA_PDATAALIGN_BYTE;
  92:Src/usart.c   ****     hdma_usart2_rx.Init.MemDataAlignment = DMA_MDATAALIGN_BYTE;
  93:Src/usart.c   ****     hdma_usart2_rx.Init.Mode = DMA_NORMAL;
  94:Src/usart.c   ****     hdma_usart2_rx.Init.Priority = DMA_PRIORITY_LOW;
  95:Src/usart.c   ****     if (HAL_DMA_Init(&hdma_usart2_rx) != HAL_OK)
  96:Src/usart.c   ****     {
  97:Src/usart.c   ****       Error_Handler();
  98:Src/usart.c   ****     }
  99:Src/usart.c   **** 
 100:Src/usart.c   ****     __HAL_LINKDMA(uartHandle,hdmarx,hdma_usart2_rx);
 101:Src/usart.c   **** 
 102:Src/usart.c   ****     /* USART2 interrupt Init */
 103:Src/usart.c   ****     HAL_NVIC_SetPriority(USART2_IRQn, 0, 0);
 104:Src/usart.c   ****     HAL_NVIC_EnableIRQ(USART2_IRQn);
 105:Src/usart.c   ****   /* USER CODE BEGIN USART2_MspInit 1 */
 106:Src/usart.c   **** 
 107:Src/usart.c   ****   /* USER CODE END USART2_MspInit 1 */
 108:Src/usart.c   ****   }
 109:Src/usart.c   **** }
 145              		.loc 1 109 1 view .LVU36
 146 0018 09B0     		add	sp, sp, #36
 147              	.LCFI3:
 148              		.cfi_remember_state
 149              		.cfi_def_cfa_offset 20
 150              		@ sp needed
 151 001a F0BD     		pop	{r4, r5, r6, r7, pc}
 152              	.LVL4:
 153              	.L11:
 154              	.LCFI4:
 155              		.cfi_restore_state
 156              		.loc 1 109 1 view .LVU37
 157 001c 0446     		mov	r4, r0
  63:Src/usart.c   ****   
 158              		.loc 1 63 5 is_stmt 1 view .LVU38
 159              	.LBB2:
  63:Src/usart.c   ****   
 160              		.loc 1 63 5 view .LVU39
  63:Src/usart.c   ****   
 161              		.loc 1 63 5 view .LVU40
 162 001e 03F5E633 		add	r3, r3, #117760
 163 0022 DA69     		ldr	r2, [r3, #28]
 164 0024 42F40032 		orr	r2, r2, #131072
 165 0028 DA61     		str	r2, [r3, #28]
  63:Src/usart.c   ****   
 166              		.loc 1 63 5 view .LVU41
 167 002a DA69     		ldr	r2, [r3, #28]
 168 002c 02F40032 		and	r2, r2, #131072
 169 0030 0092     		str	r2, [sp]
  63:Src/usart.c   ****   
 170              		.loc 1 63 5 view .LVU42
 171 0032 009A     		ldr	r2, [sp]
 172              	.LBE2:
  65:Src/usart.c   ****     __HAL_RCC_GPIOD_CLK_ENABLE();
ARM GAS  /var/folders/md/lgcc8l7571l9vt9sx0g0zflw0000gn/T//cc2BSFDx.s 			page 6


 173              		.loc 1 65 5 view .LVU43
 174              	.LBB3:
  65:Src/usart.c   ****     __HAL_RCC_GPIOD_CLK_ENABLE();
 175              		.loc 1 65 5 view .LVU44
  65:Src/usart.c   ****     __HAL_RCC_GPIOD_CLK_ENABLE();
 176              		.loc 1 65 5 view .LVU45
 177 0034 5A69     		ldr	r2, [r3, #20]
 178 0036 42F40032 		orr	r2, r2, #131072
 179 003a 5A61     		str	r2, [r3, #20]
  65:Src/usart.c   ****     __HAL_RCC_GPIOD_CLK_ENABLE();
 180              		.loc 1 65 5 view .LVU46
 181 003c 5A69     		ldr	r2, [r3, #20]
 182 003e 02F40032 		and	r2, r2, #131072
 183 0042 0192     		str	r2, [sp, #4]
  65:Src/usart.c   ****     __HAL_RCC_GPIOD_CLK_ENABLE();
 184              		.loc 1 65 5 view .LVU47
 185 0044 019A     		ldr	r2, [sp, #4]
 186              	.LBE3:
  66:Src/usart.c   ****     /**USART2 GPIO Configuration    
 187              		.loc 1 66 5 view .LVU48
 188              	.LBB4:
  66:Src/usart.c   ****     /**USART2 GPIO Configuration    
 189              		.loc 1 66 5 view .LVU49
  66:Src/usart.c   ****     /**USART2 GPIO Configuration    
 190              		.loc 1 66 5 view .LVU50
 191 0046 5A69     		ldr	r2, [r3, #20]
 192 0048 42F48012 		orr	r2, r2, #1048576
 193 004c 5A61     		str	r2, [r3, #20]
  66:Src/usart.c   ****     /**USART2 GPIO Configuration    
 194              		.loc 1 66 5 view .LVU51
 195 004e 5B69     		ldr	r3, [r3, #20]
 196 0050 03F48013 		and	r3, r3, #1048576
 197 0054 0293     		str	r3, [sp, #8]
  66:Src/usart.c   ****     /**USART2 GPIO Configuration    
 198              		.loc 1 66 5 view .LVU52
 199 0056 029B     		ldr	r3, [sp, #8]
 200              	.LBE4:
  71:Src/usart.c   ****     GPIO_InitStruct.Mode = GPIO_MODE_AF_PP;
 201              		.loc 1 71 5 view .LVU53
  71:Src/usart.c   ****     GPIO_InitStruct.Mode = GPIO_MODE_AF_PP;
 202              		.loc 1 71 25 is_stmt 0 view .LVU54
 203 0058 0823     		movs	r3, #8
 204 005a 0393     		str	r3, [sp, #12]
  72:Src/usart.c   ****     GPIO_InitStruct.Pull = GPIO_NOPULL;
 205              		.loc 1 72 5 is_stmt 1 view .LVU55
  72:Src/usart.c   ****     GPIO_InitStruct.Pull = GPIO_NOPULL;
 206              		.loc 1 72 26 is_stmt 0 view .LVU56
 207 005c 0225     		movs	r5, #2
 208 005e 0495     		str	r5, [sp, #16]
  73:Src/usart.c   ****     GPIO_InitStruct.Speed = GPIO_SPEED_FREQ_HIGH;
 209              		.loc 1 73 5 is_stmt 1 view .LVU57
  74:Src/usart.c   ****     GPIO_InitStruct.Alternate = GPIO_AF7_USART2;
 210              		.loc 1 74 5 view .LVU58
  74:Src/usart.c   ****     GPIO_InitStruct.Alternate = GPIO_AF7_USART2;
 211              		.loc 1 74 27 is_stmt 0 view .LVU59
 212 0060 0327     		movs	r7, #3
 213 0062 0697     		str	r7, [sp, #24]
ARM GAS  /var/folders/md/lgcc8l7571l9vt9sx0g0zflw0000gn/T//cc2BSFDx.s 			page 7


  75:Src/usart.c   ****     HAL_GPIO_Init(GPIOA, &GPIO_InitStruct);
 214              		.loc 1 75 5 is_stmt 1 view .LVU60
  75:Src/usart.c   ****     HAL_GPIO_Init(GPIOA, &GPIO_InitStruct);
 215              		.loc 1 75 31 is_stmt 0 view .LVU61
 216 0064 0726     		movs	r6, #7
 217 0066 0796     		str	r6, [sp, #28]
  76:Src/usart.c   **** 
 218              		.loc 1 76 5 is_stmt 1 view .LVU62
 219 0068 03A9     		add	r1, sp, #12
 220 006a 4FF09040 		mov	r0, #1207959552
 221              	.LVL5:
  76:Src/usart.c   **** 
 222              		.loc 1 76 5 is_stmt 0 view .LVU63
 223 006e FFF7FEFF 		bl	HAL_GPIO_Init
 224              	.LVL6:
  78:Src/usart.c   ****     GPIO_InitStruct.Mode = GPIO_MODE_AF_PP;
 225              		.loc 1 78 5 is_stmt 1 view .LVU64
  78:Src/usart.c   ****     GPIO_InitStruct.Mode = GPIO_MODE_AF_PP;
 226              		.loc 1 78 25 is_stmt 0 view .LVU65
 227 0072 2023     		movs	r3, #32
 228 0074 0393     		str	r3, [sp, #12]
  79:Src/usart.c   ****     GPIO_InitStruct.Pull = GPIO_NOPULL;
 229              		.loc 1 79 5 is_stmt 1 view .LVU66
  79:Src/usart.c   ****     GPIO_InitStruct.Pull = GPIO_NOPULL;
 230              		.loc 1 79 26 is_stmt 0 view .LVU67
 231 0076 0495     		str	r5, [sp, #16]
  80:Src/usart.c   ****     GPIO_InitStruct.Speed = GPIO_SPEED_FREQ_HIGH;
 232              		.loc 1 80 5 is_stmt 1 view .LVU68
  80:Src/usart.c   ****     GPIO_InitStruct.Speed = GPIO_SPEED_FREQ_HIGH;
 233              		.loc 1 80 26 is_stmt 0 view .LVU69
 234 0078 0025     		movs	r5, #0
 235 007a 0595     		str	r5, [sp, #20]
  81:Src/usart.c   ****     GPIO_InitStruct.Alternate = GPIO_AF7_USART2;
 236              		.loc 1 81 5 is_stmt 1 view .LVU70
  81:Src/usart.c   ****     GPIO_InitStruct.Alternate = GPIO_AF7_USART2;
 237              		.loc 1 81 27 is_stmt 0 view .LVU71
 238 007c 0697     		str	r7, [sp, #24]
  82:Src/usart.c   ****     HAL_GPIO_Init(GPIOD, &GPIO_InitStruct);
 239              		.loc 1 82 5 is_stmt 1 view .LVU72
  82:Src/usart.c   ****     HAL_GPIO_Init(GPIOD, &GPIO_InitStruct);
 240              		.loc 1 82 31 is_stmt 0 view .LVU73
 241 007e 0796     		str	r6, [sp, #28]
  83:Src/usart.c   **** 
 242              		.loc 1 83 5 is_stmt 1 view .LVU74
 243 0080 03A9     		add	r1, sp, #12
 244 0082 1148     		ldr	r0, .L13+4
 245 0084 FFF7FEFF 		bl	HAL_GPIO_Init
 246              	.LVL7:
  87:Src/usart.c   ****     hdma_usart2_rx.Init.Direction = DMA_PERIPH_TO_MEMORY;
 247              		.loc 1 87 5 view .LVU75
  87:Src/usart.c   ****     hdma_usart2_rx.Init.Direction = DMA_PERIPH_TO_MEMORY;
 248              		.loc 1 87 29 is_stmt 0 view .LVU76
 249 0088 1048     		ldr	r0, .L13+8
 250 008a 114B     		ldr	r3, .L13+12
 251 008c 0360     		str	r3, [r0]
  88:Src/usart.c   ****     hdma_usart2_rx.Init.PeriphInc = DMA_PINC_DISABLE;
 252              		.loc 1 88 5 is_stmt 1 view .LVU77
ARM GAS  /var/folders/md/lgcc8l7571l9vt9sx0g0zflw0000gn/T//cc2BSFDx.s 			page 8


  88:Src/usart.c   ****     hdma_usart2_rx.Init.PeriphInc = DMA_PINC_DISABLE;
 253              		.loc 1 88 35 is_stmt 0 view .LVU78
 254 008e 4560     		str	r5, [r0, #4]
  89:Src/usart.c   ****     hdma_usart2_rx.Init.MemInc = DMA_MINC_ENABLE;
 255              		.loc 1 89 5 is_stmt 1 view .LVU79
  89:Src/usart.c   ****     hdma_usart2_rx.Init.MemInc = DMA_MINC_ENABLE;
 256              		.loc 1 89 35 is_stmt 0 view .LVU80
 257 0090 8560     		str	r5, [r0, #8]
  90:Src/usart.c   ****     hdma_usart2_rx.Init.PeriphDataAlignment = DMA_PDATAALIGN_BYTE;
 258              		.loc 1 90 5 is_stmt 1 view .LVU81
  90:Src/usart.c   ****     hdma_usart2_rx.Init.PeriphDataAlignment = DMA_PDATAALIGN_BYTE;
 259              		.loc 1 90 32 is_stmt 0 view .LVU82
 260 0092 8023     		movs	r3, #128
 261 0094 C360     		str	r3, [r0, #12]
  91:Src/usart.c   ****     hdma_usart2_rx.Init.MemDataAlignment = DMA_MDATAALIGN_BYTE;
 262              		.loc 1 91 5 is_stmt 1 view .LVU83
  91:Src/usart.c   ****     hdma_usart2_rx.Init.MemDataAlignment = DMA_MDATAALIGN_BYTE;
 263              		.loc 1 91 45 is_stmt 0 view .LVU84
 264 0096 0561     		str	r5, [r0, #16]
  92:Src/usart.c   ****     hdma_usart2_rx.Init.Mode = DMA_NORMAL;
 265              		.loc 1 92 5 is_stmt 1 view .LVU85
  92:Src/usart.c   ****     hdma_usart2_rx.Init.Mode = DMA_NORMAL;
 266              		.loc 1 92 42 is_stmt 0 view .LVU86
 267 0098 4561     		str	r5, [r0, #20]
  93:Src/usart.c   ****     hdma_usart2_rx.Init.Priority = DMA_PRIORITY_LOW;
 268              		.loc 1 93 5 is_stmt 1 view .LVU87
  93:Src/usart.c   ****     hdma_usart2_rx.Init.Priority = DMA_PRIORITY_LOW;
 269              		.loc 1 93 30 is_stmt 0 view .LVU88
 270 009a 8561     		str	r5, [r0, #24]
  94:Src/usart.c   ****     if (HAL_DMA_Init(&hdma_usart2_rx) != HAL_OK)
 271              		.loc 1 94 5 is_stmt 1 view .LVU89
  94:Src/usart.c   ****     if (HAL_DMA_Init(&hdma_usart2_rx) != HAL_OK)
 272              		.loc 1 94 34 is_stmt 0 view .LVU90
 273 009c C561     		str	r5, [r0, #28]
  95:Src/usart.c   ****     {
 274              		.loc 1 95 5 is_stmt 1 view .LVU91
  95:Src/usart.c   ****     {
 275              		.loc 1 95 9 is_stmt 0 view .LVU92
 276 009e FFF7FEFF 		bl	HAL_DMA_Init
 277              	.LVL8:
  95:Src/usart.c   ****     {
 278              		.loc 1 95 8 view .LVU93
 279 00a2 58B9     		cbnz	r0, .L12
 280              	.L9:
 100:Src/usart.c   **** 
 281              		.loc 1 100 5 is_stmt 1 view .LVU94
 100:Src/usart.c   **** 
 282              		.loc 1 100 5 view .LVU95
 283 00a4 094B     		ldr	r3, .L13+8
 284 00a6 6366     		str	r3, [r4, #100]
 100:Src/usart.c   **** 
 285              		.loc 1 100 5 view .LVU96
 286 00a8 5C62     		str	r4, [r3, #36]
 103:Src/usart.c   ****     HAL_NVIC_EnableIRQ(USART2_IRQn);
 287              		.loc 1 103 5 view .LVU97
 288 00aa 0022     		movs	r2, #0
 289 00ac 1146     		mov	r1, r2
ARM GAS  /var/folders/md/lgcc8l7571l9vt9sx0g0zflw0000gn/T//cc2BSFDx.s 			page 9


 290 00ae 2620     		movs	r0, #38
 291 00b0 FFF7FEFF 		bl	HAL_NVIC_SetPriority
 292              	.LVL9:
 104:Src/usart.c   ****   /* USER CODE BEGIN USART2_MspInit 1 */
 293              		.loc 1 104 5 view .LVU98
 294 00b4 2620     		movs	r0, #38
 295 00b6 FFF7FEFF 		bl	HAL_NVIC_EnableIRQ
 296              	.LVL10:
 297              		.loc 1 109 1 is_stmt 0 view .LVU99
 298 00ba ADE7     		b	.L7
 299              	.L12:
  97:Src/usart.c   ****     }
 300              		.loc 1 97 7 is_stmt 1 view .LVU100
 301 00bc FFF7FEFF 		bl	Error_Handler
 302              	.LVL11:
 303 00c0 F0E7     		b	.L9
 304              	.L14:
 305 00c2 00BF     		.align	2
 306              	.L13:
 307 00c4 00440040 		.word	1073759232
 308 00c8 000C0048 		.word	1207962624
 309 00cc 00000000 		.word	hdma_usart2_rx
 310 00d0 6C000240 		.word	1073873004
 311              		.cfi_endproc
 312              	.LFE127:
 314              		.section	.text.HAL_UART_MspDeInit,"ax",%progbits
 315              		.align	1
 316              		.global	HAL_UART_MspDeInit
 317              		.syntax unified
 318              		.thumb
 319              		.thumb_func
 320              		.fpu fpv4-sp-d16
 322              	HAL_UART_MspDeInit:
 323              	.LVL12:
 324              	.LFB128:
 110:Src/usart.c   **** 
 111:Src/usart.c   **** void HAL_UART_MspDeInit(UART_HandleTypeDef* uartHandle)
 112:Src/usart.c   **** {
 325              		.loc 1 112 1 view -0
 326              		.cfi_startproc
 327              		@ args = 0, pretend = 0, frame = 0
 328              		@ frame_needed = 0, uses_anonymous_args = 0
 113:Src/usart.c   **** 
 114:Src/usart.c   ****   if(uartHandle->Instance==USART2)
 329              		.loc 1 114 3 view .LVU102
 330              		.loc 1 114 16 is_stmt 0 view .LVU103
 331 0000 0268     		ldr	r2, [r0]
 332              		.loc 1 114 5 view .LVU104
 333 0002 0D4B     		ldr	r3, .L22
 334 0004 9A42     		cmp	r2, r3
 335 0006 00D0     		beq	.L21
 336 0008 7047     		bx	lr
 337              	.L21:
 112:Src/usart.c   **** 
 338              		.loc 1 112 1 view .LVU105
 339 000a 10B5     		push	{r4, lr}
 340              	.LCFI5:
ARM GAS  /var/folders/md/lgcc8l7571l9vt9sx0g0zflw0000gn/T//cc2BSFDx.s 			page 10


 341              		.cfi_def_cfa_offset 8
 342              		.cfi_offset 4, -8
 343              		.cfi_offset 14, -4
 344 000c 0446     		mov	r4, r0
 115:Src/usart.c   ****   {
 116:Src/usart.c   ****   /* USER CODE BEGIN USART2_MspDeInit 0 */
 117:Src/usart.c   **** 
 118:Src/usart.c   ****   /* USER CODE END USART2_MspDeInit 0 */
 119:Src/usart.c   ****     /* Peripheral clock disable */
 120:Src/usart.c   ****     __HAL_RCC_USART2_CLK_DISABLE();
 345              		.loc 1 120 5 is_stmt 1 view .LVU106
 346 000e 0B4A     		ldr	r2, .L22+4
 347 0010 D369     		ldr	r3, [r2, #28]
 348 0012 23F40033 		bic	r3, r3, #131072
 349 0016 D361     		str	r3, [r2, #28]
 121:Src/usart.c   ****   
 122:Src/usart.c   ****     /**USART2 GPIO Configuration    
 123:Src/usart.c   ****     PA3     ------> USART2_RX
 124:Src/usart.c   ****     PD5     ------> USART2_TX 
 125:Src/usart.c   ****     */
 126:Src/usart.c   ****     HAL_GPIO_DeInit(GPIOA, GPIO_PIN_3);
 350              		.loc 1 126 5 view .LVU107
 351 0018 0821     		movs	r1, #8
 352 001a 4FF09040 		mov	r0, #1207959552
 353              	.LVL13:
 354              		.loc 1 126 5 is_stmt 0 view .LVU108
 355 001e FFF7FEFF 		bl	HAL_GPIO_DeInit
 356              	.LVL14:
 127:Src/usart.c   **** 
 128:Src/usart.c   ****     HAL_GPIO_DeInit(GPIOD, GPIO_PIN_5);
 357              		.loc 1 128 5 is_stmt 1 view .LVU109
 358 0022 2021     		movs	r1, #32
 359 0024 0648     		ldr	r0, .L22+8
 360 0026 FFF7FEFF 		bl	HAL_GPIO_DeInit
 361              	.LVL15:
 129:Src/usart.c   **** 
 130:Src/usart.c   ****     /* USART2 DMA DeInit */
 131:Src/usart.c   ****     HAL_DMA_DeInit(uartHandle->hdmarx);
 362              		.loc 1 131 5 view .LVU110
 363 002a 606E     		ldr	r0, [r4, #100]
 364 002c FFF7FEFF 		bl	HAL_DMA_DeInit
 365              	.LVL16:
 132:Src/usart.c   **** 
 133:Src/usart.c   ****     /* USART2 interrupt Deinit */
 134:Src/usart.c   ****     HAL_NVIC_DisableIRQ(USART2_IRQn);
 366              		.loc 1 134 5 view .LVU111
 367 0030 2620     		movs	r0, #38
 368 0032 FFF7FEFF 		bl	HAL_NVIC_DisableIRQ
 369              	.LVL17:
 135:Src/usart.c   ****   /* USER CODE BEGIN USART2_MspDeInit 1 */
 136:Src/usart.c   **** 
 137:Src/usart.c   ****   /* USER CODE END USART2_MspDeInit 1 */
 138:Src/usart.c   ****   }
 139:Src/usart.c   **** } 
 370              		.loc 1 139 1 is_stmt 0 view .LVU112
 371 0036 10BD     		pop	{r4, pc}
 372              	.LVL18:
ARM GAS  /var/folders/md/lgcc8l7571l9vt9sx0g0zflw0000gn/T//cc2BSFDx.s 			page 11


 373              	.L23:
 374              		.loc 1 139 1 view .LVU113
 375              		.align	2
 376              	.L22:
 377 0038 00440040 		.word	1073759232
 378 003c 00100240 		.word	1073876992
 379 0040 000C0048 		.word	1207962624
 380              		.cfi_endproc
 381              	.LFE128:
 383              		.section	.text.debug_printf,"ax",%progbits
 384              		.align	1
 385              		.global	debug_printf
 386              		.syntax unified
 387              		.thumb
 388              		.thumb_func
 389              		.fpu fpv4-sp-d16
 391              	debug_printf:
 392              	.LVL19:
 393              	.LFB129:
 140:Src/usart.c   **** 
 141:Src/usart.c   **** /* USER CODE BEGIN 1 */
 142:Src/usart.c   **** void debug_printf(char *p)
 143:Src/usart.c   **** {
 394              		.loc 1 143 1 is_stmt 1 view -0
 395              		.cfi_startproc
 396              		@ args = 0, pretend = 0, frame = 0
 397              		@ frame_needed = 0, uses_anonymous_args = 0
 398              		.loc 1 143 1 is_stmt 0 view .LVU115
 399 0000 10B5     		push	{r4, lr}
 400              	.LCFI6:
 401              		.cfi_def_cfa_offset 8
 402              		.cfi_offset 4, -8
 403              		.cfi_offset 14, -4
 404 0002 0446     		mov	r4, r0
 144:Src/usart.c   ****   //HAL_UART_Transmit(&huart1, (uint8_t*)p, strlen(p), 1000);
 145:Src/usart.c   ****   HAL_UART_Transmit(&huart2, (uint8_t*)p, strlen(p), 1000);
 405              		.loc 1 145 3 is_stmt 1 view .LVU116
 406              		.loc 1 145 43 is_stmt 0 view .LVU117
 407 0004 FFF7FEFF 		bl	strlen
 408              	.LVL20:
 409              		.loc 1 145 3 view .LVU118
 410 0008 4FF47A73 		mov	r3, #1000
 411 000c 82B2     		uxth	r2, r0
 412 000e 2146     		mov	r1, r4
 413 0010 0148     		ldr	r0, .L26
 414 0012 FFF7FEFF 		bl	HAL_UART_Transmit
 415              	.LVL21:
 146:Src/usart.c   ****   //HAL_UART_Transmit(&huart3, (uint8_t*)p, strlen(p), 1000);
 147:Src/usart.c   ****   //HAL_UART_Transmit_IT(&huart2, (uint8_t *)p, strlen(p));
 148:Src/usart.c   **** }
 416              		.loc 1 148 1 view .LVU119
 417 0016 10BD     		pop	{r4, pc}
 418              	.LVL22:
 419              	.L27:
 420              		.loc 1 148 1 view .LVU120
 421              		.align	2
 422              	.L26:
ARM GAS  /var/folders/md/lgcc8l7571l9vt9sx0g0zflw0000gn/T//cc2BSFDx.s 			page 12


 423 0018 00000000 		.word	huart2
 424              		.cfi_endproc
 425              	.LFE129:
 427              		.comm	hdma_usart2_rx,68,4
 428              		.comm	huart2,112,4
 429              		.text
 430              	.Letext0:
 431              		.file 2 "/usr/local/gcc-arm-none-eabi-8-2019-q3-update/arm-none-eabi/include/machine/_default_type
 432              		.file 3 "/usr/local/gcc-arm-none-eabi-8-2019-q3-update/arm-none-eabi/include/sys/_stdint.h"
 433              		.file 4 "Drivers/CMSIS/Include/core_cm4.h"
 434              		.file 5 "Drivers/CMSIS/Device/ST/STM32F3xx/Include/system_stm32f3xx.h"
 435              		.file 6 "Drivers/CMSIS/Device/ST/STM32F3xx/Include/stm32f303xc.h"
 436              		.file 7 "/usr/local/gcc-arm-none-eabi-8-2019-q3-update/lib/gcc/arm-none-eabi/8.3.1/include/stddef.
 437              		.file 8 "/usr/local/gcc-arm-none-eabi-8-2019-q3-update/arm-none-eabi/include/sys/_types.h"
 438              		.file 9 "/usr/local/gcc-arm-none-eabi-8-2019-q3-update/arm-none-eabi/include/sys/reent.h"
 439              		.file 10 "/usr/local/gcc-arm-none-eabi-8-2019-q3-update/arm-none-eabi/include/sys/lock.h"
 440              		.file 11 "Drivers/STM32F3xx_HAL_Driver/Inc/stm32f3xx_hal_def.h"
 441              		.file 12 "Drivers/STM32F3xx_HAL_Driver/Inc/stm32f3xx_hal_gpio.h"
 442              		.file 13 "Drivers/STM32F3xx_HAL_Driver/Inc/stm32f3xx_hal_dma.h"
 443              		.file 14 "Drivers/STM32F3xx_HAL_Driver/Inc/stm32f3xx_hal_uart.h"
 444              		.file 15 "Drivers/STM32F3xx_HAL_Driver/Inc/stm32f3xx_hal.h"
 445              		.file 16 "Inc/usart.h"
 446              		.file 17 "/usr/local/gcc-arm-none-eabi-8-2019-q3-update/arm-none-eabi/include/string.h"
 447              		.file 18 "Drivers/STM32F3xx_HAL_Driver/Inc/stm32f3xx_hal_cortex.h"
 448              		.file 19 "Inc/main.h"
ARM GAS  /var/folders/md/lgcc8l7571l9vt9sx0g0zflw0000gn/T//cc2BSFDx.s 			page 13

