ARM GAS  /var/folders/8c/gyvcglfx7f97kbqb2h83mm_r0000gn/T//ccp8Q8gW.s 			page 1


   1              		.cpu cortex-m4
   2              		.eabi_attribute 27, 1
   3              		.eabi_attribute 28, 1
   4              		.eabi_attribute 20, 1
   5              		.eabi_attribute 21, 1
   6              		.eabi_attribute 23, 3
   7              		.eabi_attribute 24, 1
   8              		.eabi_attribute 25, 1
   9              		.eabi_attribute 26, 1
  10              		.eabi_attribute 30, 1
  11              		.eabi_attribute 34, 1
  12              		.eabi_attribute 18, 4
  13              		.file	"stm32f3xx_hal_rcc.c"
  14              		.text
  15              	.Ltext0:
  16              		.cfi_sections	.debug_frame
  17              		.section	.text.HAL_RCC_DeInit,"ax",%progbits
  18              		.align	1
  19              		.global	HAL_RCC_DeInit
  20              		.arch armv7e-m
  21              		.syntax unified
  22              		.thumb
  23              		.thumb_func
  24              		.fpu fpv4-sp-d16
  26              	HAL_RCC_DeInit:
  27              	.LFB126:
  28              		.file 1 "Drivers/STM32F3xx_HAL_Driver/Src/stm32f3xx_hal_rcc.c"
   1:Drivers/STM32F3xx_HAL_Driver/Src/stm32f3xx_hal_rcc.c **** /**
   2:Drivers/STM32F3xx_HAL_Driver/Src/stm32f3xx_hal_rcc.c ****   ******************************************************************************
   3:Drivers/STM32F3xx_HAL_Driver/Src/stm32f3xx_hal_rcc.c ****   * @file    stm32f3xx_hal_rcc.c
   4:Drivers/STM32F3xx_HAL_Driver/Src/stm32f3xx_hal_rcc.c ****   * @author  MCD Application Team
   5:Drivers/STM32F3xx_HAL_Driver/Src/stm32f3xx_hal_rcc.c ****   * @brief   RCC HAL module driver.
   6:Drivers/STM32F3xx_HAL_Driver/Src/stm32f3xx_hal_rcc.c ****   *          This file provides firmware functions to manage the following 
   7:Drivers/STM32F3xx_HAL_Driver/Src/stm32f3xx_hal_rcc.c ****   *          functionalities of the Reset and Clock Control (RCC) peripheral:
   8:Drivers/STM32F3xx_HAL_Driver/Src/stm32f3xx_hal_rcc.c ****   *           + Initialization and de-initialization functions
   9:Drivers/STM32F3xx_HAL_Driver/Src/stm32f3xx_hal_rcc.c ****   *           + Peripheral Control functions
  10:Drivers/STM32F3xx_HAL_Driver/Src/stm32f3xx_hal_rcc.c ****   *       
  11:Drivers/STM32F3xx_HAL_Driver/Src/stm32f3xx_hal_rcc.c ****   @verbatim                
  12:Drivers/STM32F3xx_HAL_Driver/Src/stm32f3xx_hal_rcc.c ****   ==============================================================================
  13:Drivers/STM32F3xx_HAL_Driver/Src/stm32f3xx_hal_rcc.c ****                       ##### RCC specific features #####
  14:Drivers/STM32F3xx_HAL_Driver/Src/stm32f3xx_hal_rcc.c ****   ==============================================================================
  15:Drivers/STM32F3xx_HAL_Driver/Src/stm32f3xx_hal_rcc.c ****     [..]  
  16:Drivers/STM32F3xx_HAL_Driver/Src/stm32f3xx_hal_rcc.c ****       After reset the device is running from Internal High Speed oscillator
  17:Drivers/STM32F3xx_HAL_Driver/Src/stm32f3xx_hal_rcc.c ****       (HSI 8MHz) with Flash 0 wait state, Flash prefetch buffer is enabled, 
  18:Drivers/STM32F3xx_HAL_Driver/Src/stm32f3xx_hal_rcc.c ****       and all peripherals are off except internal SRAM, Flash and JTAG.
  19:Drivers/STM32F3xx_HAL_Driver/Src/stm32f3xx_hal_rcc.c ****       (+) There is no prescaler on High speed (AHB) and Low speed (APB) buses;
  20:Drivers/STM32F3xx_HAL_Driver/Src/stm32f3xx_hal_rcc.c ****           all peripherals mapped on these buses are running at HSI speed.
  21:Drivers/STM32F3xx_HAL_Driver/Src/stm32f3xx_hal_rcc.c ****       (+) The clock for all peripherals is switched off, except the SRAM and FLASH.
  22:Drivers/STM32F3xx_HAL_Driver/Src/stm32f3xx_hal_rcc.c ****       (+) All GPIOs are in input floating state, except the JTAG pins which
  23:Drivers/STM32F3xx_HAL_Driver/Src/stm32f3xx_hal_rcc.c ****           are assigned to be used for debug purpose.
  24:Drivers/STM32F3xx_HAL_Driver/Src/stm32f3xx_hal_rcc.c ****     [..] Once the device started from reset, the user application has to:
  25:Drivers/STM32F3xx_HAL_Driver/Src/stm32f3xx_hal_rcc.c ****       (+) Configure the clock source to be used to drive the System clock
  26:Drivers/STM32F3xx_HAL_Driver/Src/stm32f3xx_hal_rcc.c ****           (if the application needs higher frequency/performance)
  27:Drivers/STM32F3xx_HAL_Driver/Src/stm32f3xx_hal_rcc.c ****       (+) Configure the System clock frequency and Flash settings  
  28:Drivers/STM32F3xx_HAL_Driver/Src/stm32f3xx_hal_rcc.c ****       (+) Configure the AHB and APB buses prescalers
  29:Drivers/STM32F3xx_HAL_Driver/Src/stm32f3xx_hal_rcc.c ****       (+) Enable the clock for the peripheral(s) to be used
  30:Drivers/STM32F3xx_HAL_Driver/Src/stm32f3xx_hal_rcc.c ****       (+) Configure the clock source(s) for peripherals whose clocks are not
ARM GAS  /var/folders/8c/gyvcglfx7f97kbqb2h83mm_r0000gn/T//ccp8Q8gW.s 			page 2


  31:Drivers/STM32F3xx_HAL_Driver/Src/stm32f3xx_hal_rcc.c ****           derived from the System clock (RTC, ADC, I2C, I2S, TIM, USB FS)
  32:Drivers/STM32F3xx_HAL_Driver/Src/stm32f3xx_hal_rcc.c **** 
  33:Drivers/STM32F3xx_HAL_Driver/Src/stm32f3xx_hal_rcc.c ****                       ##### RCC Limitations #####
  34:Drivers/STM32F3xx_HAL_Driver/Src/stm32f3xx_hal_rcc.c ****   ==============================================================================
  35:Drivers/STM32F3xx_HAL_Driver/Src/stm32f3xx_hal_rcc.c ****     [..]  
  36:Drivers/STM32F3xx_HAL_Driver/Src/stm32f3xx_hal_rcc.c ****       A delay between an RCC peripheral clock enable and the effective peripheral 
  37:Drivers/STM32F3xx_HAL_Driver/Src/stm32f3xx_hal_rcc.c ****       enabling should be taken into account in order to manage the peripheral read/write 
  38:Drivers/STM32F3xx_HAL_Driver/Src/stm32f3xx_hal_rcc.c ****       from/to registers.
  39:Drivers/STM32F3xx_HAL_Driver/Src/stm32f3xx_hal_rcc.c ****       (+) This delay depends on the peripheral mapping.
  40:Drivers/STM32F3xx_HAL_Driver/Src/stm32f3xx_hal_rcc.c ****         (++) AHB & APB peripherals, 1 dummy read is necessary
  41:Drivers/STM32F3xx_HAL_Driver/Src/stm32f3xx_hal_rcc.c **** 
  42:Drivers/STM32F3xx_HAL_Driver/Src/stm32f3xx_hal_rcc.c ****     [..]  
  43:Drivers/STM32F3xx_HAL_Driver/Src/stm32f3xx_hal_rcc.c ****       Workarounds:
  44:Drivers/STM32F3xx_HAL_Driver/Src/stm32f3xx_hal_rcc.c ****       (#) For AHB & APB peripherals, a dummy read to the peripheral register has been
  45:Drivers/STM32F3xx_HAL_Driver/Src/stm32f3xx_hal_rcc.c ****           inserted in each __HAL_RCC_PPP_CLK_ENABLE() macro.
  46:Drivers/STM32F3xx_HAL_Driver/Src/stm32f3xx_hal_rcc.c **** 
  47:Drivers/STM32F3xx_HAL_Driver/Src/stm32f3xx_hal_rcc.c ****   @endverbatim
  48:Drivers/STM32F3xx_HAL_Driver/Src/stm32f3xx_hal_rcc.c ****   ******************************************************************************
  49:Drivers/STM32F3xx_HAL_Driver/Src/stm32f3xx_hal_rcc.c ****   * @attention
  50:Drivers/STM32F3xx_HAL_Driver/Src/stm32f3xx_hal_rcc.c ****   *
  51:Drivers/STM32F3xx_HAL_Driver/Src/stm32f3xx_hal_rcc.c ****   * <h2><center>&copy; COPYRIGHT(c) 2016 STMicroelectronics</center></h2>
  52:Drivers/STM32F3xx_HAL_Driver/Src/stm32f3xx_hal_rcc.c ****   *
  53:Drivers/STM32F3xx_HAL_Driver/Src/stm32f3xx_hal_rcc.c ****   * Redistribution and use in source and binary forms, with or without modification,
  54:Drivers/STM32F3xx_HAL_Driver/Src/stm32f3xx_hal_rcc.c ****   * are permitted provided that the following conditions are met:
  55:Drivers/STM32F3xx_HAL_Driver/Src/stm32f3xx_hal_rcc.c ****   *   1. Redistributions of source code must retain the above copyright notice,
  56:Drivers/STM32F3xx_HAL_Driver/Src/stm32f3xx_hal_rcc.c ****   *      this list of conditions and the following disclaimer.
  57:Drivers/STM32F3xx_HAL_Driver/Src/stm32f3xx_hal_rcc.c ****   *   2. Redistributions in binary form must reproduce the above copyright notice,
  58:Drivers/STM32F3xx_HAL_Driver/Src/stm32f3xx_hal_rcc.c ****   *      this list of conditions and the following disclaimer in the documentation
  59:Drivers/STM32F3xx_HAL_Driver/Src/stm32f3xx_hal_rcc.c ****   *      and/or other materials provided with the distribution.
  60:Drivers/STM32F3xx_HAL_Driver/Src/stm32f3xx_hal_rcc.c ****   *   3. Neither the name of STMicroelectronics nor the names of its contributors
  61:Drivers/STM32F3xx_HAL_Driver/Src/stm32f3xx_hal_rcc.c ****   *      may be used to endorse or promote products derived from this software
  62:Drivers/STM32F3xx_HAL_Driver/Src/stm32f3xx_hal_rcc.c ****   *      without specific prior written permission.
  63:Drivers/STM32F3xx_HAL_Driver/Src/stm32f3xx_hal_rcc.c ****   *
  64:Drivers/STM32F3xx_HAL_Driver/Src/stm32f3xx_hal_rcc.c ****   * THIS SOFTWARE IS PROVIDED BY THE COPYRIGHT HOLDERS AND CONTRIBUTORS "AS IS"
  65:Drivers/STM32F3xx_HAL_Driver/Src/stm32f3xx_hal_rcc.c ****   * AND ANY EXPRESS OR IMPLIED WARRANTIES, INCLUDING, BUT NOT LIMITED TO, THE
  66:Drivers/STM32F3xx_HAL_Driver/Src/stm32f3xx_hal_rcc.c ****   * IMPLIED WARRANTIES OF MERCHANTABILITY AND FITNESS FOR A PARTICULAR PURPOSE ARE
  67:Drivers/STM32F3xx_HAL_Driver/Src/stm32f3xx_hal_rcc.c ****   * DISCLAIMED. IN NO EVENT SHALL THE COPYRIGHT HOLDER OR CONTRIBUTORS BE LIABLE
  68:Drivers/STM32F3xx_HAL_Driver/Src/stm32f3xx_hal_rcc.c ****   * FOR ANY DIRECT, INDIRECT, INCIDENTAL, SPECIAL, EXEMPLARY, OR CONSEQUENTIAL
  69:Drivers/STM32F3xx_HAL_Driver/Src/stm32f3xx_hal_rcc.c ****   * DAMAGES (INCLUDING, BUT NOT LIMITED TO, PROCUREMENT OF SUBSTITUTE GOODS OR
  70:Drivers/STM32F3xx_HAL_Driver/Src/stm32f3xx_hal_rcc.c ****   * SERVICES; LOSS OF USE, DATA, OR PROFITS; OR BUSINESS INTERRUPTION) HOWEVER
  71:Drivers/STM32F3xx_HAL_Driver/Src/stm32f3xx_hal_rcc.c ****   * CAUSED AND ON ANY THEORY OF LIABILITY, WHETHER IN CONTRACT, STRICT LIABILITY,
  72:Drivers/STM32F3xx_HAL_Driver/Src/stm32f3xx_hal_rcc.c ****   * OR TORT (INCLUDING NEGLIGENCE OR OTHERWISE) ARISING IN ANY WAY OUT OF THE USE
  73:Drivers/STM32F3xx_HAL_Driver/Src/stm32f3xx_hal_rcc.c ****   * OF THIS SOFTWARE, EVEN IF ADVISED OF THE POSSIBILITY OF SUCH DAMAGE.
  74:Drivers/STM32F3xx_HAL_Driver/Src/stm32f3xx_hal_rcc.c ****   *
  75:Drivers/STM32F3xx_HAL_Driver/Src/stm32f3xx_hal_rcc.c ****   ******************************************************************************  
  76:Drivers/STM32F3xx_HAL_Driver/Src/stm32f3xx_hal_rcc.c **** */
  77:Drivers/STM32F3xx_HAL_Driver/Src/stm32f3xx_hal_rcc.c **** 
  78:Drivers/STM32F3xx_HAL_Driver/Src/stm32f3xx_hal_rcc.c **** /* Includes ------------------------------------------------------------------*/
  79:Drivers/STM32F3xx_HAL_Driver/Src/stm32f3xx_hal_rcc.c **** #include "stm32f3xx_hal.h"
  80:Drivers/STM32F3xx_HAL_Driver/Src/stm32f3xx_hal_rcc.c **** 
  81:Drivers/STM32F3xx_HAL_Driver/Src/stm32f3xx_hal_rcc.c **** /** @addtogroup STM32F3xx_HAL_Driver
  82:Drivers/STM32F3xx_HAL_Driver/Src/stm32f3xx_hal_rcc.c ****   * @{
  83:Drivers/STM32F3xx_HAL_Driver/Src/stm32f3xx_hal_rcc.c ****   */
  84:Drivers/STM32F3xx_HAL_Driver/Src/stm32f3xx_hal_rcc.c **** 
  85:Drivers/STM32F3xx_HAL_Driver/Src/stm32f3xx_hal_rcc.c **** /** @defgroup RCC RCC
  86:Drivers/STM32F3xx_HAL_Driver/Src/stm32f3xx_hal_rcc.c **** * @brief RCC HAL module driver
  87:Drivers/STM32F3xx_HAL_Driver/Src/stm32f3xx_hal_rcc.c ****   * @{
ARM GAS  /var/folders/8c/gyvcglfx7f97kbqb2h83mm_r0000gn/T//ccp8Q8gW.s 			page 3


  88:Drivers/STM32F3xx_HAL_Driver/Src/stm32f3xx_hal_rcc.c ****   */
  89:Drivers/STM32F3xx_HAL_Driver/Src/stm32f3xx_hal_rcc.c **** 
  90:Drivers/STM32F3xx_HAL_Driver/Src/stm32f3xx_hal_rcc.c **** #ifdef HAL_RCC_MODULE_ENABLED
  91:Drivers/STM32F3xx_HAL_Driver/Src/stm32f3xx_hal_rcc.c **** 
  92:Drivers/STM32F3xx_HAL_Driver/Src/stm32f3xx_hal_rcc.c **** /* Private typedef -----------------------------------------------------------*/
  93:Drivers/STM32F3xx_HAL_Driver/Src/stm32f3xx_hal_rcc.c **** /* Private define ------------------------------------------------------------*/
  94:Drivers/STM32F3xx_HAL_Driver/Src/stm32f3xx_hal_rcc.c **** /** @defgroup RCC_Private_Constants RCC Private Constants
  95:Drivers/STM32F3xx_HAL_Driver/Src/stm32f3xx_hal_rcc.c ****  * @{
  96:Drivers/STM32F3xx_HAL_Driver/Src/stm32f3xx_hal_rcc.c ****  */
  97:Drivers/STM32F3xx_HAL_Driver/Src/stm32f3xx_hal_rcc.c **** /* Bits position in  in the CFGR register */
  98:Drivers/STM32F3xx_HAL_Driver/Src/stm32f3xx_hal_rcc.c **** #define RCC_CFGR_HPRE_BITNUMBER           POSITION_VAL(RCC_CFGR_HPRE)
  99:Drivers/STM32F3xx_HAL_Driver/Src/stm32f3xx_hal_rcc.c **** #define RCC_CFGR_PPRE1_BITNUMBER          POSITION_VAL(RCC_CFGR_PPRE1)
 100:Drivers/STM32F3xx_HAL_Driver/Src/stm32f3xx_hal_rcc.c **** #define RCC_CFGR_PPRE2_BITNUMBER          POSITION_VAL(RCC_CFGR_PPRE2)
 101:Drivers/STM32F3xx_HAL_Driver/Src/stm32f3xx_hal_rcc.c **** /**
 102:Drivers/STM32F3xx_HAL_Driver/Src/stm32f3xx_hal_rcc.c ****   * @}
 103:Drivers/STM32F3xx_HAL_Driver/Src/stm32f3xx_hal_rcc.c ****   */
 104:Drivers/STM32F3xx_HAL_Driver/Src/stm32f3xx_hal_rcc.c **** /* Private macro -------------------------------------------------------------*/
 105:Drivers/STM32F3xx_HAL_Driver/Src/stm32f3xx_hal_rcc.c **** /** @defgroup RCC_Private_Macros RCC Private Macros
 106:Drivers/STM32F3xx_HAL_Driver/Src/stm32f3xx_hal_rcc.c ****   * @{
 107:Drivers/STM32F3xx_HAL_Driver/Src/stm32f3xx_hal_rcc.c ****   */
 108:Drivers/STM32F3xx_HAL_Driver/Src/stm32f3xx_hal_rcc.c **** 
 109:Drivers/STM32F3xx_HAL_Driver/Src/stm32f3xx_hal_rcc.c **** #define MCO1_CLK_ENABLE()     __HAL_RCC_GPIOA_CLK_ENABLE()
 110:Drivers/STM32F3xx_HAL_Driver/Src/stm32f3xx_hal_rcc.c **** #define MCO1_GPIO_PORT        GPIOA
 111:Drivers/STM32F3xx_HAL_Driver/Src/stm32f3xx_hal_rcc.c **** #define MCO1_PIN              GPIO_PIN_8
 112:Drivers/STM32F3xx_HAL_Driver/Src/stm32f3xx_hal_rcc.c **** 
 113:Drivers/STM32F3xx_HAL_Driver/Src/stm32f3xx_hal_rcc.c **** /**
 114:Drivers/STM32F3xx_HAL_Driver/Src/stm32f3xx_hal_rcc.c ****   * @}
 115:Drivers/STM32F3xx_HAL_Driver/Src/stm32f3xx_hal_rcc.c ****   */
 116:Drivers/STM32F3xx_HAL_Driver/Src/stm32f3xx_hal_rcc.c **** 
 117:Drivers/STM32F3xx_HAL_Driver/Src/stm32f3xx_hal_rcc.c **** /* Private variables ---------------------------------------------------------*/
 118:Drivers/STM32F3xx_HAL_Driver/Src/stm32f3xx_hal_rcc.c **** /** @defgroup RCC_Private_Variables RCC Private Variables
 119:Drivers/STM32F3xx_HAL_Driver/Src/stm32f3xx_hal_rcc.c ****   * @{
 120:Drivers/STM32F3xx_HAL_Driver/Src/stm32f3xx_hal_rcc.c ****   */
 121:Drivers/STM32F3xx_HAL_Driver/Src/stm32f3xx_hal_rcc.c **** const uint8_t aPLLMULFactorTable[16] = { 2U,  3U,  4U,  5U,  6U,  7U,  8U,  9U,
 122:Drivers/STM32F3xx_HAL_Driver/Src/stm32f3xx_hal_rcc.c ****                                        10U, 11U, 12U, 13U, 14U, 15U, 16U, 16U};
 123:Drivers/STM32F3xx_HAL_Driver/Src/stm32f3xx_hal_rcc.c **** const uint8_t aPredivFactorTable[16] = { 1U, 2U,  3U,  4U,  5U,  6U,  7U,  8U,
 124:Drivers/STM32F3xx_HAL_Driver/Src/stm32f3xx_hal_rcc.c ****                                          9U,10U, 11U, 12U, 13U, 14U, 15U, 16U};
 125:Drivers/STM32F3xx_HAL_Driver/Src/stm32f3xx_hal_rcc.c **** /**
 126:Drivers/STM32F3xx_HAL_Driver/Src/stm32f3xx_hal_rcc.c ****   * @}
 127:Drivers/STM32F3xx_HAL_Driver/Src/stm32f3xx_hal_rcc.c ****   */
 128:Drivers/STM32F3xx_HAL_Driver/Src/stm32f3xx_hal_rcc.c **** 
 129:Drivers/STM32F3xx_HAL_Driver/Src/stm32f3xx_hal_rcc.c **** /* Private function prototypes -----------------------------------------------*/
 130:Drivers/STM32F3xx_HAL_Driver/Src/stm32f3xx_hal_rcc.c **** /* Exported functions ---------------------------------------------------------*/
 131:Drivers/STM32F3xx_HAL_Driver/Src/stm32f3xx_hal_rcc.c **** 
 132:Drivers/STM32F3xx_HAL_Driver/Src/stm32f3xx_hal_rcc.c **** /** @defgroup RCC_Exported_Functions RCC Exported Functions
 133:Drivers/STM32F3xx_HAL_Driver/Src/stm32f3xx_hal_rcc.c ****   * @{
 134:Drivers/STM32F3xx_HAL_Driver/Src/stm32f3xx_hal_rcc.c ****   */
 135:Drivers/STM32F3xx_HAL_Driver/Src/stm32f3xx_hal_rcc.c **** 
 136:Drivers/STM32F3xx_HAL_Driver/Src/stm32f3xx_hal_rcc.c **** /** @defgroup RCC_Exported_Functions_Group1 Initialization and de-initialization functions 
 137:Drivers/STM32F3xx_HAL_Driver/Src/stm32f3xx_hal_rcc.c ****   *  @brief    Initialization and Configuration functions 
 138:Drivers/STM32F3xx_HAL_Driver/Src/stm32f3xx_hal_rcc.c ****   *
 139:Drivers/STM32F3xx_HAL_Driver/Src/stm32f3xx_hal_rcc.c ****   @verbatim    
 140:Drivers/STM32F3xx_HAL_Driver/Src/stm32f3xx_hal_rcc.c ****   ===============================================================================
 141:Drivers/STM32F3xx_HAL_Driver/Src/stm32f3xx_hal_rcc.c ****            ##### Initialization and de-initialization functions #####
 142:Drivers/STM32F3xx_HAL_Driver/Src/stm32f3xx_hal_rcc.c ****   ===============================================================================
 143:Drivers/STM32F3xx_HAL_Driver/Src/stm32f3xx_hal_rcc.c ****     [..]
 144:Drivers/STM32F3xx_HAL_Driver/Src/stm32f3xx_hal_rcc.c ****       This section provides functions allowing to configure the internal/external oscillators
ARM GAS  /var/folders/8c/gyvcglfx7f97kbqb2h83mm_r0000gn/T//ccp8Q8gW.s 			page 4


 145:Drivers/STM32F3xx_HAL_Driver/Src/stm32f3xx_hal_rcc.c ****       (HSE, HSI, LSE, LSI, PLL, CSS and MCO) and the System buses clocks (SYSCLK, AHB, APB1
 146:Drivers/STM32F3xx_HAL_Driver/Src/stm32f3xx_hal_rcc.c ****       and APB2).
 147:Drivers/STM32F3xx_HAL_Driver/Src/stm32f3xx_hal_rcc.c **** 
 148:Drivers/STM32F3xx_HAL_Driver/Src/stm32f3xx_hal_rcc.c ****     [..] Internal/external clock and PLL configuration
 149:Drivers/STM32F3xx_HAL_Driver/Src/stm32f3xx_hal_rcc.c ****       (#) HSI (high-speed internal), 8 MHz factory-trimmed RC used directly or through
 150:Drivers/STM32F3xx_HAL_Driver/Src/stm32f3xx_hal_rcc.c ****           the PLL as System clock source.
 151:Drivers/STM32F3xx_HAL_Driver/Src/stm32f3xx_hal_rcc.c ****           The HSI clock can be used also to clock the USART and I2C peripherals.
 152:Drivers/STM32F3xx_HAL_Driver/Src/stm32f3xx_hal_rcc.c **** 
 153:Drivers/STM32F3xx_HAL_Driver/Src/stm32f3xx_hal_rcc.c ****       (#) LSI (low-speed internal), ~40 KHz low consumption RC used as IWDG and/or RTC
 154:Drivers/STM32F3xx_HAL_Driver/Src/stm32f3xx_hal_rcc.c ****           clock source.
 155:Drivers/STM32F3xx_HAL_Driver/Src/stm32f3xx_hal_rcc.c **** 
 156:Drivers/STM32F3xx_HAL_Driver/Src/stm32f3xx_hal_rcc.c ****       (#) HSE (high-speed external), 4 to 32 MHz crystal oscillator used directly or
 157:Drivers/STM32F3xx_HAL_Driver/Src/stm32f3xx_hal_rcc.c ****           through the PLL as System clock source. Can be used also as RTC clock source.
 158:Drivers/STM32F3xx_HAL_Driver/Src/stm32f3xx_hal_rcc.c **** 
 159:Drivers/STM32F3xx_HAL_Driver/Src/stm32f3xx_hal_rcc.c ****       (#) LSE (low-speed external), 32 KHz oscillator used as RTC clock source.   
 160:Drivers/STM32F3xx_HAL_Driver/Src/stm32f3xx_hal_rcc.c **** 
 161:Drivers/STM32F3xx_HAL_Driver/Src/stm32f3xx_hal_rcc.c ****       (#) PLL (clocked by HSI or HSE), featuring different output clocks:
 162:Drivers/STM32F3xx_HAL_Driver/Src/stm32f3xx_hal_rcc.c ****         (++) The first output is used to generate the high speed system clock (up to 72 MHz)
 163:Drivers/STM32F3xx_HAL_Driver/Src/stm32f3xx_hal_rcc.c ****         (++) The second output is used to generate the clock for the USB FS (48 MHz)
 164:Drivers/STM32F3xx_HAL_Driver/Src/stm32f3xx_hal_rcc.c ****         (++) The third output may be used to generate the clock for the ADC peripherals (up to 72 M
 165:Drivers/STM32F3xx_HAL_Driver/Src/stm32f3xx_hal_rcc.c ****         (++) The fourth output may be used to generate the clock for the TIM peripherals (144 MHz)
 166:Drivers/STM32F3xx_HAL_Driver/Src/stm32f3xx_hal_rcc.c **** 
 167:Drivers/STM32F3xx_HAL_Driver/Src/stm32f3xx_hal_rcc.c ****       (#) CSS (Clock security system), once enable using the macro __HAL_RCC_CSS_ENABLE()
 168:Drivers/STM32F3xx_HAL_Driver/Src/stm32f3xx_hal_rcc.c ****           and if a HSE clock failure occurs(HSE used directly or through PLL as System 
 169:Drivers/STM32F3xx_HAL_Driver/Src/stm32f3xx_hal_rcc.c ****           clock source), the System clocks automatically switched to HSI and an interrupt
 170:Drivers/STM32F3xx_HAL_Driver/Src/stm32f3xx_hal_rcc.c ****           is generated if enabled. The interrupt is linked to the Cortex-M4 NMI 
 171:Drivers/STM32F3xx_HAL_Driver/Src/stm32f3xx_hal_rcc.c ****           (Non-Maskable Interrupt) exception vector.   
 172:Drivers/STM32F3xx_HAL_Driver/Src/stm32f3xx_hal_rcc.c **** 
 173:Drivers/STM32F3xx_HAL_Driver/Src/stm32f3xx_hal_rcc.c ****       (#) MCO (microcontroller clock output), used to output SYSCLK, HSI, HSE, LSI, LSE or PLL
 174:Drivers/STM32F3xx_HAL_Driver/Src/stm32f3xx_hal_rcc.c ****           clock (divided by 2) output on pin (such as PA8 pin).
 175:Drivers/STM32F3xx_HAL_Driver/Src/stm32f3xx_hal_rcc.c **** 
 176:Drivers/STM32F3xx_HAL_Driver/Src/stm32f3xx_hal_rcc.c ****     [..] System, AHB and APB buses clocks configuration
 177:Drivers/STM32F3xx_HAL_Driver/Src/stm32f3xx_hal_rcc.c ****       (#) Several clock sources can be used to drive the System clock (SYSCLK): HSI,
 178:Drivers/STM32F3xx_HAL_Driver/Src/stm32f3xx_hal_rcc.c ****           HSE and PLL.
 179:Drivers/STM32F3xx_HAL_Driver/Src/stm32f3xx_hal_rcc.c ****           The AHB clock (HCLK) is derived from System clock through configurable
 180:Drivers/STM32F3xx_HAL_Driver/Src/stm32f3xx_hal_rcc.c ****           prescaler and used to clock the CPU, memory and peripherals mapped
 181:Drivers/STM32F3xx_HAL_Driver/Src/stm32f3xx_hal_rcc.c ****           on AHB bus (DMA, GPIO...). APB1 (PCLK1) and APB2 (PCLK2) clocks are derived
 182:Drivers/STM32F3xx_HAL_Driver/Src/stm32f3xx_hal_rcc.c ****           from AHB clock through configurable prescalers and used to clock
 183:Drivers/STM32F3xx_HAL_Driver/Src/stm32f3xx_hal_rcc.c ****           the peripherals mapped on these buses. You can use
 184:Drivers/STM32F3xx_HAL_Driver/Src/stm32f3xx_hal_rcc.c ****           "@ref HAL_RCC_GetSysClockFreq()" function to retrieve the frequencies of these clocks.
 185:Drivers/STM32F3xx_HAL_Driver/Src/stm32f3xx_hal_rcc.c **** 
 186:Drivers/STM32F3xx_HAL_Driver/Src/stm32f3xx_hal_rcc.c ****       (#) All the peripheral clocks are derived from the System clock (SYSCLK) except:
 187:Drivers/STM32F3xx_HAL_Driver/Src/stm32f3xx_hal_rcc.c ****         (++) The FLASH program/erase clock  which is always HSI 8MHz clock.
 188:Drivers/STM32F3xx_HAL_Driver/Src/stm32f3xx_hal_rcc.c ****         (++) The USB 48 MHz clock which is derived from the PLL VCO clock.
 189:Drivers/STM32F3xx_HAL_Driver/Src/stm32f3xx_hal_rcc.c ****         (++) The USART clock which can be derived as well from HSI 8MHz, LSI or LSE.
 190:Drivers/STM32F3xx_HAL_Driver/Src/stm32f3xx_hal_rcc.c ****         (++) The I2C clock which can be derived as well from HSI 8MHz clock.
 191:Drivers/STM32F3xx_HAL_Driver/Src/stm32f3xx_hal_rcc.c ****         (++) The ADC clock which is derived from PLL output.
 192:Drivers/STM32F3xx_HAL_Driver/Src/stm32f3xx_hal_rcc.c ****         (++) The RTC clock which is derived from the LSE, LSI or 1 MHz HSE_RTC
 193:Drivers/STM32F3xx_HAL_Driver/Src/stm32f3xx_hal_rcc.c ****              (HSE divided by a programmable prescaler). The System clock (SYSCLK)
 194:Drivers/STM32F3xx_HAL_Driver/Src/stm32f3xx_hal_rcc.c ****              frequency must be higher or equal to the RTC clock frequency.
 195:Drivers/STM32F3xx_HAL_Driver/Src/stm32f3xx_hal_rcc.c ****         (++) IWDG clock which is always the LSI clock.
 196:Drivers/STM32F3xx_HAL_Driver/Src/stm32f3xx_hal_rcc.c **** 
 197:Drivers/STM32F3xx_HAL_Driver/Src/stm32f3xx_hal_rcc.c ****          (#) For the STM32F3xx devices, the maximum frequency of the SYSCLK, HCLK, PCLK1 and PCLK2 
 198:Drivers/STM32F3xx_HAL_Driver/Src/stm32f3xx_hal_rcc.c ****              Depending on the SYSCLK frequency, the flash latency should be adapted accordingly.
 199:Drivers/STM32F3xx_HAL_Driver/Src/stm32f3xx_hal_rcc.c **** 
 200:Drivers/STM32F3xx_HAL_Driver/Src/stm32f3xx_hal_rcc.c ****          (#) After reset, the System clock source is the HSI (8 MHz) with 0 WS and
 201:Drivers/STM32F3xx_HAL_Driver/Src/stm32f3xx_hal_rcc.c ****              prefetch is disabled.
ARM GAS  /var/folders/8c/gyvcglfx7f97kbqb2h83mm_r0000gn/T//ccp8Q8gW.s 			page 5


 202:Drivers/STM32F3xx_HAL_Driver/Src/stm32f3xx_hal_rcc.c ****   @endverbatim
 203:Drivers/STM32F3xx_HAL_Driver/Src/stm32f3xx_hal_rcc.c ****   * @{
 204:Drivers/STM32F3xx_HAL_Driver/Src/stm32f3xx_hal_rcc.c ****   */
 205:Drivers/STM32F3xx_HAL_Driver/Src/stm32f3xx_hal_rcc.c ****   
 206:Drivers/STM32F3xx_HAL_Driver/Src/stm32f3xx_hal_rcc.c **** /*
 207:Drivers/STM32F3xx_HAL_Driver/Src/stm32f3xx_hal_rcc.c ****   Additional consideration on the SYSCLK based on Latency settings:
 208:Drivers/STM32F3xx_HAL_Driver/Src/stm32f3xx_hal_rcc.c ****         +-----------------------------------------------+
 209:Drivers/STM32F3xx_HAL_Driver/Src/stm32f3xx_hal_rcc.c ****         | Latency       | SYSCLK clock frequency (MHz)  |
 210:Drivers/STM32F3xx_HAL_Driver/Src/stm32f3xx_hal_rcc.c ****         |---------------|-------------------------------|
 211:Drivers/STM32F3xx_HAL_Driver/Src/stm32f3xx_hal_rcc.c ****         |0WS(1CPU cycle)|       0 < SYSCLK <= 24        |
 212:Drivers/STM32F3xx_HAL_Driver/Src/stm32f3xx_hal_rcc.c ****         |---------------|-------------------------------|
 213:Drivers/STM32F3xx_HAL_Driver/Src/stm32f3xx_hal_rcc.c ****         |1WS(2CPU cycle)|      24 < SYSCLK <= 48        |
 214:Drivers/STM32F3xx_HAL_Driver/Src/stm32f3xx_hal_rcc.c ****         |---------------|-------------------------------|
 215:Drivers/STM32F3xx_HAL_Driver/Src/stm32f3xx_hal_rcc.c ****         |2WS(3CPU cycle)|      48 < SYSCLK <= 72        |
 216:Drivers/STM32F3xx_HAL_Driver/Src/stm32f3xx_hal_rcc.c ****         +-----------------------------------------------+
 217:Drivers/STM32F3xx_HAL_Driver/Src/stm32f3xx_hal_rcc.c ****   */
 218:Drivers/STM32F3xx_HAL_Driver/Src/stm32f3xx_hal_rcc.c **** 
 219:Drivers/STM32F3xx_HAL_Driver/Src/stm32f3xx_hal_rcc.c **** /**
 220:Drivers/STM32F3xx_HAL_Driver/Src/stm32f3xx_hal_rcc.c ****   * @brief  Resets the RCC clock configuration to the default reset state.
 221:Drivers/STM32F3xx_HAL_Driver/Src/stm32f3xx_hal_rcc.c ****   * @note   The default reset state of the clock configuration is given below:
 222:Drivers/STM32F3xx_HAL_Driver/Src/stm32f3xx_hal_rcc.c ****   *            - HSI ON and used as system clock source
 223:Drivers/STM32F3xx_HAL_Driver/Src/stm32f3xx_hal_rcc.c ****   *            - HSE and PLL OFF
 224:Drivers/STM32F3xx_HAL_Driver/Src/stm32f3xx_hal_rcc.c ****   *            - AHB, APB1 and APB2 prescaler set to 1.
 225:Drivers/STM32F3xx_HAL_Driver/Src/stm32f3xx_hal_rcc.c ****   *            - CSS and MCO1 OFF
 226:Drivers/STM32F3xx_HAL_Driver/Src/stm32f3xx_hal_rcc.c ****   *            - All interrupts disabled
 227:Drivers/STM32F3xx_HAL_Driver/Src/stm32f3xx_hal_rcc.c ****   * @note   This function does not modify the configuration of the
 228:Drivers/STM32F3xx_HAL_Driver/Src/stm32f3xx_hal_rcc.c ****   *            - Peripheral clocks
 229:Drivers/STM32F3xx_HAL_Driver/Src/stm32f3xx_hal_rcc.c ****   *            - LSI, LSE and RTC clocks
 230:Drivers/STM32F3xx_HAL_Driver/Src/stm32f3xx_hal_rcc.c ****   * @retval HAL status
 231:Drivers/STM32F3xx_HAL_Driver/Src/stm32f3xx_hal_rcc.c ****   */
 232:Drivers/STM32F3xx_HAL_Driver/Src/stm32f3xx_hal_rcc.c **** HAL_StatusTypeDef HAL_RCC_DeInit(void)
 233:Drivers/STM32F3xx_HAL_Driver/Src/stm32f3xx_hal_rcc.c **** {
  29              		.loc 1 233 1 view -0
  30              		.cfi_startproc
  31              		@ args = 0, pretend = 0, frame = 0
  32              		@ frame_needed = 0, uses_anonymous_args = 0
  33 0000 38B5     		push	{r3, r4, r5, lr}
  34              	.LCFI0:
  35              		.cfi_def_cfa_offset 16
  36              		.cfi_offset 3, -16
  37              		.cfi_offset 4, -12
  38              		.cfi_offset 5, -8
  39              		.cfi_offset 14, -4
 234:Drivers/STM32F3xx_HAL_Driver/Src/stm32f3xx_hal_rcc.c ****   uint32_t tickstart = 0;
  40              		.loc 1 234 3 view .LVU1
  41              	.LVL0:
 235:Drivers/STM32F3xx_HAL_Driver/Src/stm32f3xx_hal_rcc.c **** 
 236:Drivers/STM32F3xx_HAL_Driver/Src/stm32f3xx_hal_rcc.c ****   /* Set HSION bit */
 237:Drivers/STM32F3xx_HAL_Driver/Src/stm32f3xx_hal_rcc.c ****   SET_BIT(RCC->CR, RCC_CR_HSION);
  42              		.loc 1 237 3 view .LVU2
  43 0002 354A     		ldr	r2, .L18
  44 0004 1368     		ldr	r3, [r2]
  45 0006 43F00103 		orr	r3, r3, #1
  46 000a 1360     		str	r3, [r2]
 238:Drivers/STM32F3xx_HAL_Driver/Src/stm32f3xx_hal_rcc.c **** 
 239:Drivers/STM32F3xx_HAL_Driver/Src/stm32f3xx_hal_rcc.c ****   /* Insure HSIRDY bit is set before writing default HSITRIM value */
 240:Drivers/STM32F3xx_HAL_Driver/Src/stm32f3xx_hal_rcc.c ****   /* Get start tick */
ARM GAS  /var/folders/8c/gyvcglfx7f97kbqb2h83mm_r0000gn/T//ccp8Q8gW.s 			page 6


 241:Drivers/STM32F3xx_HAL_Driver/Src/stm32f3xx_hal_rcc.c ****   tickstart = HAL_GetTick();
  47              		.loc 1 241 3 view .LVU3
  48              		.loc 1 241 15 is_stmt 0 view .LVU4
  49 000c FFF7FEFF 		bl	HAL_GetTick
  50              	.LVL1:
  51 0010 0446     		mov	r4, r0
  52              	.LVL2:
 242:Drivers/STM32F3xx_HAL_Driver/Src/stm32f3xx_hal_rcc.c **** 
 243:Drivers/STM32F3xx_HAL_Driver/Src/stm32f3xx_hal_rcc.c ****   /* Wait till HSI is ready */
 244:Drivers/STM32F3xx_HAL_Driver/Src/stm32f3xx_hal_rcc.c ****   while(READ_BIT(RCC->CR, RCC_CR_HSIRDY) == RESET)
  53              		.loc 1 244 3 is_stmt 1 view .LVU5
  54              	.L2:
  55              		.loc 1 244 9 is_stmt 0 view .LVU6
  56 0012 314B     		ldr	r3, .L18
  57 0014 1B68     		ldr	r3, [r3]
  58              		.loc 1 244 8 view .LVU7
  59 0016 13F0020F 		tst	r3, #2
  60 001a 07D1     		bne	.L14
 245:Drivers/STM32F3xx_HAL_Driver/Src/stm32f3xx_hal_rcc.c ****   {
 246:Drivers/STM32F3xx_HAL_Driver/Src/stm32f3xx_hal_rcc.c ****     if((HAL_GetTick() - tickstart) > HSI_TIMEOUT_VALUE)
  61              		.loc 1 246 5 is_stmt 1 view .LVU8
  62              		.loc 1 246 9 is_stmt 0 view .LVU9
  63 001c FFF7FEFF 		bl	HAL_GetTick
  64              	.LVL3:
  65              		.loc 1 246 23 view .LVU10
  66 0020 001B     		subs	r0, r0, r4
  67              		.loc 1 246 7 view .LVU11
  68 0022 0228     		cmp	r0, #2
  69 0024 F5D9     		bls	.L2
 247:Drivers/STM32F3xx_HAL_Driver/Src/stm32f3xx_hal_rcc.c ****     {
 248:Drivers/STM32F3xx_HAL_Driver/Src/stm32f3xx_hal_rcc.c ****       return HAL_TIMEOUT;
  70              		.loc 1 248 14 view .LVU12
  71 0026 0324     		movs	r4, #3
  72              	.LVL4:
  73              	.L3:
 249:Drivers/STM32F3xx_HAL_Driver/Src/stm32f3xx_hal_rcc.c ****     }
 250:Drivers/STM32F3xx_HAL_Driver/Src/stm32f3xx_hal_rcc.c ****   }
 251:Drivers/STM32F3xx_HAL_Driver/Src/stm32f3xx_hal_rcc.c **** 
 252:Drivers/STM32F3xx_HAL_Driver/Src/stm32f3xx_hal_rcc.c ****   /* Set HSITRIM default value */
 253:Drivers/STM32F3xx_HAL_Driver/Src/stm32f3xx_hal_rcc.c ****   MODIFY_REG(RCC->CR, RCC_CR_HSITRIM, RCC_CR_HSITRIM_4);
 254:Drivers/STM32F3xx_HAL_Driver/Src/stm32f3xx_hal_rcc.c **** 
 255:Drivers/STM32F3xx_HAL_Driver/Src/stm32f3xx_hal_rcc.c ****   /* Reset SW[1:0], HPRE[3:0], PPRE1[2:0], PPRE2[2:0] and MCOSEL[2:0] bits */
 256:Drivers/STM32F3xx_HAL_Driver/Src/stm32f3xx_hal_rcc.c ****   CLEAR_BIT(RCC->CFGR, RCC_CFGR_SW | RCC_CFGR_HPRE | RCC_CFGR_PPRE1 | RCC_CFGR_PPRE2 | RCC_CFGR_MCO
 257:Drivers/STM32F3xx_HAL_Driver/Src/stm32f3xx_hal_rcc.c **** 
 258:Drivers/STM32F3xx_HAL_Driver/Src/stm32f3xx_hal_rcc.c ****   /* Insure HSI selected as system clock source */
 259:Drivers/STM32F3xx_HAL_Driver/Src/stm32f3xx_hal_rcc.c ****   /* Get start tick */
 260:Drivers/STM32F3xx_HAL_Driver/Src/stm32f3xx_hal_rcc.c ****   tickstart = HAL_GetTick();
 261:Drivers/STM32F3xx_HAL_Driver/Src/stm32f3xx_hal_rcc.c **** 
 262:Drivers/STM32F3xx_HAL_Driver/Src/stm32f3xx_hal_rcc.c ****   /* Wait till system clock source is ready */
 263:Drivers/STM32F3xx_HAL_Driver/Src/stm32f3xx_hal_rcc.c ****   while(READ_BIT(RCC->CFGR, RCC_CFGR_SWS) != RCC_CFGR_SWS_HSI)
 264:Drivers/STM32F3xx_HAL_Driver/Src/stm32f3xx_hal_rcc.c ****   {
 265:Drivers/STM32F3xx_HAL_Driver/Src/stm32f3xx_hal_rcc.c ****     if((HAL_GetTick() - tickstart) > CLOCKSWITCH_TIMEOUT_VALUE)
 266:Drivers/STM32F3xx_HAL_Driver/Src/stm32f3xx_hal_rcc.c ****     {
 267:Drivers/STM32F3xx_HAL_Driver/Src/stm32f3xx_hal_rcc.c ****       return HAL_TIMEOUT;
 268:Drivers/STM32F3xx_HAL_Driver/Src/stm32f3xx_hal_rcc.c ****     }
 269:Drivers/STM32F3xx_HAL_Driver/Src/stm32f3xx_hal_rcc.c ****   }
 270:Drivers/STM32F3xx_HAL_Driver/Src/stm32f3xx_hal_rcc.c **** 
ARM GAS  /var/folders/8c/gyvcglfx7f97kbqb2h83mm_r0000gn/T//ccp8Q8gW.s 			page 7


 271:Drivers/STM32F3xx_HAL_Driver/Src/stm32f3xx_hal_rcc.c ****   /* Update the SystemCoreClock global variable for HSI as system clock source */
 272:Drivers/STM32F3xx_HAL_Driver/Src/stm32f3xx_hal_rcc.c ****   SystemCoreClock = HSI_VALUE;
 273:Drivers/STM32F3xx_HAL_Driver/Src/stm32f3xx_hal_rcc.c **** 
 274:Drivers/STM32F3xx_HAL_Driver/Src/stm32f3xx_hal_rcc.c ****   /* Configure the source of time base considering new system clock settings  */
 275:Drivers/STM32F3xx_HAL_Driver/Src/stm32f3xx_hal_rcc.c ****   if(HAL_InitTick(TICK_INT_PRIORITY) != HAL_OK)
 276:Drivers/STM32F3xx_HAL_Driver/Src/stm32f3xx_hal_rcc.c ****   {
 277:Drivers/STM32F3xx_HAL_Driver/Src/stm32f3xx_hal_rcc.c ****     return HAL_ERROR;
 278:Drivers/STM32F3xx_HAL_Driver/Src/stm32f3xx_hal_rcc.c ****   }
 279:Drivers/STM32F3xx_HAL_Driver/Src/stm32f3xx_hal_rcc.c **** 
 280:Drivers/STM32F3xx_HAL_Driver/Src/stm32f3xx_hal_rcc.c ****   /* Reset HSEON, CSSON, PLLON bits */
 281:Drivers/STM32F3xx_HAL_Driver/Src/stm32f3xx_hal_rcc.c ****   CLEAR_BIT(RCC->CR, RCC_CR_PLLON | RCC_CR_CSSON | RCC_CR_HSEON);
 282:Drivers/STM32F3xx_HAL_Driver/Src/stm32f3xx_hal_rcc.c **** 
 283:Drivers/STM32F3xx_HAL_Driver/Src/stm32f3xx_hal_rcc.c ****   /* Reset HSEBYP bit */
 284:Drivers/STM32F3xx_HAL_Driver/Src/stm32f3xx_hal_rcc.c ****   CLEAR_BIT(RCC->CR, RCC_CR_HSEBYP);
 285:Drivers/STM32F3xx_HAL_Driver/Src/stm32f3xx_hal_rcc.c **** 
 286:Drivers/STM32F3xx_HAL_Driver/Src/stm32f3xx_hal_rcc.c ****   /* Insure PLLRDY is reset */
 287:Drivers/STM32F3xx_HAL_Driver/Src/stm32f3xx_hal_rcc.c ****   /* Get start tick */
 288:Drivers/STM32F3xx_HAL_Driver/Src/stm32f3xx_hal_rcc.c ****   tickstart = HAL_GetTick();
 289:Drivers/STM32F3xx_HAL_Driver/Src/stm32f3xx_hal_rcc.c ****   while(READ_BIT(RCC->CR, RCC_CR_PLLRDY) != 0U)
 290:Drivers/STM32F3xx_HAL_Driver/Src/stm32f3xx_hal_rcc.c ****   {
 291:Drivers/STM32F3xx_HAL_Driver/Src/stm32f3xx_hal_rcc.c ****     if((HAL_GetTick() - tickstart) > PLL_TIMEOUT_VALUE)
 292:Drivers/STM32F3xx_HAL_Driver/Src/stm32f3xx_hal_rcc.c ****     {
 293:Drivers/STM32F3xx_HAL_Driver/Src/stm32f3xx_hal_rcc.c ****       return HAL_TIMEOUT;
 294:Drivers/STM32F3xx_HAL_Driver/Src/stm32f3xx_hal_rcc.c ****     }
 295:Drivers/STM32F3xx_HAL_Driver/Src/stm32f3xx_hal_rcc.c ****   }
 296:Drivers/STM32F3xx_HAL_Driver/Src/stm32f3xx_hal_rcc.c **** 
 297:Drivers/STM32F3xx_HAL_Driver/Src/stm32f3xx_hal_rcc.c ****   /* Reset CFGR register */
 298:Drivers/STM32F3xx_HAL_Driver/Src/stm32f3xx_hal_rcc.c ****   CLEAR_REG(RCC->CFGR);
 299:Drivers/STM32F3xx_HAL_Driver/Src/stm32f3xx_hal_rcc.c **** 
 300:Drivers/STM32F3xx_HAL_Driver/Src/stm32f3xx_hal_rcc.c ****   /* Reset CFGR2 register */
 301:Drivers/STM32F3xx_HAL_Driver/Src/stm32f3xx_hal_rcc.c ****   CLEAR_REG(RCC->CFGR2);
 302:Drivers/STM32F3xx_HAL_Driver/Src/stm32f3xx_hal_rcc.c **** 
 303:Drivers/STM32F3xx_HAL_Driver/Src/stm32f3xx_hal_rcc.c ****   /* Reset CFGR3 register */
 304:Drivers/STM32F3xx_HAL_Driver/Src/stm32f3xx_hal_rcc.c ****   CLEAR_REG(RCC->CFGR3);
 305:Drivers/STM32F3xx_HAL_Driver/Src/stm32f3xx_hal_rcc.c **** 
 306:Drivers/STM32F3xx_HAL_Driver/Src/stm32f3xx_hal_rcc.c ****   /* Clear all interrupt flags */
 307:Drivers/STM32F3xx_HAL_Driver/Src/stm32f3xx_hal_rcc.c ****   SET_BIT(RCC->CIR, RCC_CIR_LSIRDYC | RCC_CIR_LSERDYC | RCC_CIR_HSIRDYC | RCC_CIR_HSERDYC | RCC_CIR
 308:Drivers/STM32F3xx_HAL_Driver/Src/stm32f3xx_hal_rcc.c **** 
 309:Drivers/STM32F3xx_HAL_Driver/Src/stm32f3xx_hal_rcc.c ****   /* Disable all interrupts */
 310:Drivers/STM32F3xx_HAL_Driver/Src/stm32f3xx_hal_rcc.c ****   CLEAR_REG(RCC->CIR);
 311:Drivers/STM32F3xx_HAL_Driver/Src/stm32f3xx_hal_rcc.c **** 
 312:Drivers/STM32F3xx_HAL_Driver/Src/stm32f3xx_hal_rcc.c ****   /* Reset all CSR flags */
 313:Drivers/STM32F3xx_HAL_Driver/Src/stm32f3xx_hal_rcc.c ****   __HAL_RCC_CLEAR_RESET_FLAGS();
 314:Drivers/STM32F3xx_HAL_Driver/Src/stm32f3xx_hal_rcc.c **** 
 315:Drivers/STM32F3xx_HAL_Driver/Src/stm32f3xx_hal_rcc.c ****   return HAL_OK;
 316:Drivers/STM32F3xx_HAL_Driver/Src/stm32f3xx_hal_rcc.c **** }
  74              		.loc 1 316 1 view .LVU13
  75 0028 2046     		mov	r0, r4
  76 002a 38BD     		pop	{r3, r4, r5, pc}
  77              	.LVL5:
  78              	.L14:
 253:Drivers/STM32F3xx_HAL_Driver/Src/stm32f3xx_hal_rcc.c **** 
  79              		.loc 1 253 3 is_stmt 1 view .LVU14
  80 002c 2A4A     		ldr	r2, .L18
  81 002e 1368     		ldr	r3, [r2]
  82 0030 23F0F803 		bic	r3, r3, #248
  83 0034 43F08003 		orr	r3, r3, #128
ARM GAS  /var/folders/8c/gyvcglfx7f97kbqb2h83mm_r0000gn/T//ccp8Q8gW.s 			page 8


  84 0038 1360     		str	r3, [r2]
 256:Drivers/STM32F3xx_HAL_Driver/Src/stm32f3xx_hal_rcc.c **** 
  85              		.loc 1 256 3 view .LVU15
  86 003a 5168     		ldr	r1, [r2, #4]
  87 003c 274B     		ldr	r3, .L18+4
  88 003e 0B40     		ands	r3, r3, r1
  89 0040 5360     		str	r3, [r2, #4]
 260:Drivers/STM32F3xx_HAL_Driver/Src/stm32f3xx_hal_rcc.c **** 
  90              		.loc 1 260 3 view .LVU16
 260:Drivers/STM32F3xx_HAL_Driver/Src/stm32f3xx_hal_rcc.c **** 
  91              		.loc 1 260 15 is_stmt 0 view .LVU17
  92 0042 FFF7FEFF 		bl	HAL_GetTick
  93              	.LVL6:
  94 0046 0446     		mov	r4, r0
  95              	.LVL7:
 263:Drivers/STM32F3xx_HAL_Driver/Src/stm32f3xx_hal_rcc.c ****   {
  96              		.loc 1 263 3 is_stmt 1 view .LVU18
  97              	.L5:
 263:Drivers/STM32F3xx_HAL_Driver/Src/stm32f3xx_hal_rcc.c ****   {
  98              		.loc 1 263 9 is_stmt 0 view .LVU19
  99 0048 234B     		ldr	r3, .L18
 100 004a 5B68     		ldr	r3, [r3, #4]
 263:Drivers/STM32F3xx_HAL_Driver/Src/stm32f3xx_hal_rcc.c ****   {
 101              		.loc 1 263 8 view .LVU20
 102 004c 13F00C0F 		tst	r3, #12
 103 0050 08D0     		beq	.L15
 265:Drivers/STM32F3xx_HAL_Driver/Src/stm32f3xx_hal_rcc.c ****     {
 104              		.loc 1 265 5 is_stmt 1 view .LVU21
 265:Drivers/STM32F3xx_HAL_Driver/Src/stm32f3xx_hal_rcc.c ****     {
 105              		.loc 1 265 9 is_stmt 0 view .LVU22
 106 0052 FFF7FEFF 		bl	HAL_GetTick
 107              	.LVL8:
 265:Drivers/STM32F3xx_HAL_Driver/Src/stm32f3xx_hal_rcc.c ****     {
 108              		.loc 1 265 23 view .LVU23
 109 0056 001B     		subs	r0, r0, r4
 265:Drivers/STM32F3xx_HAL_Driver/Src/stm32f3xx_hal_rcc.c ****     {
 110              		.loc 1 265 7 view .LVU24
 111 0058 41F28833 		movw	r3, #5000
 112 005c 9842     		cmp	r0, r3
 113 005e F3D9     		bls	.L5
 267:Drivers/STM32F3xx_HAL_Driver/Src/stm32f3xx_hal_rcc.c ****     }
 114              		.loc 1 267 14 view .LVU25
 115 0060 0324     		movs	r4, #3
 116              	.LVL9:
 267:Drivers/STM32F3xx_HAL_Driver/Src/stm32f3xx_hal_rcc.c ****     }
 117              		.loc 1 267 14 view .LVU26
 118 0062 E1E7     		b	.L3
 119              	.LVL10:
 120              	.L15:
 272:Drivers/STM32F3xx_HAL_Driver/Src/stm32f3xx_hal_rcc.c **** 
 121              		.loc 1 272 3 is_stmt 1 view .LVU27
 272:Drivers/STM32F3xx_HAL_Driver/Src/stm32f3xx_hal_rcc.c **** 
 122              		.loc 1 272 19 is_stmt 0 view .LVU28
 123 0064 1E4B     		ldr	r3, .L18+8
 124 0066 1F4A     		ldr	r2, .L18+12
 125 0068 1A60     		str	r2, [r3]
 275:Drivers/STM32F3xx_HAL_Driver/Src/stm32f3xx_hal_rcc.c ****   {
ARM GAS  /var/folders/8c/gyvcglfx7f97kbqb2h83mm_r0000gn/T//ccp8Q8gW.s 			page 9


 126              		.loc 1 275 3 is_stmt 1 view .LVU29
 275:Drivers/STM32F3xx_HAL_Driver/Src/stm32f3xx_hal_rcc.c ****   {
 127              		.loc 1 275 6 is_stmt 0 view .LVU30
 128 006a 0020     		movs	r0, #0
 129 006c FFF7FEFF 		bl	HAL_InitTick
 130              	.LVL11:
 275:Drivers/STM32F3xx_HAL_Driver/Src/stm32f3xx_hal_rcc.c ****   {
 131              		.loc 1 275 5 view .LVU31
 132 0070 0446     		mov	r4, r0
 133              	.LVL12:
 275:Drivers/STM32F3xx_HAL_Driver/Src/stm32f3xx_hal_rcc.c ****   {
 134              		.loc 1 275 5 view .LVU32
 135 0072 08B1     		cbz	r0, .L16
 277:Drivers/STM32F3xx_HAL_Driver/Src/stm32f3xx_hal_rcc.c ****   }
 136              		.loc 1 277 12 view .LVU33
 137 0074 0124     		movs	r4, #1
 138 0076 D7E7     		b	.L3
 139              	.L16:
 281:Drivers/STM32F3xx_HAL_Driver/Src/stm32f3xx_hal_rcc.c **** 
 140              		.loc 1 281 3 is_stmt 1 view .LVU34
 141 0078 174A     		ldr	r2, .L18
 142 007a 1368     		ldr	r3, [r2]
 143 007c 23F08473 		bic	r3, r3, #17301504
 144 0080 23F48033 		bic	r3, r3, #65536
 145 0084 1360     		str	r3, [r2]
 284:Drivers/STM32F3xx_HAL_Driver/Src/stm32f3xx_hal_rcc.c **** 
 146              		.loc 1 284 3 view .LVU35
 147 0086 1368     		ldr	r3, [r2]
 148 0088 23F48023 		bic	r3, r3, #262144
 149 008c 1360     		str	r3, [r2]
 288:Drivers/STM32F3xx_HAL_Driver/Src/stm32f3xx_hal_rcc.c ****   while(READ_BIT(RCC->CR, RCC_CR_PLLRDY) != 0U)
 150              		.loc 1 288 3 view .LVU36
 288:Drivers/STM32F3xx_HAL_Driver/Src/stm32f3xx_hal_rcc.c ****   while(READ_BIT(RCC->CR, RCC_CR_PLLRDY) != 0U)
 151              		.loc 1 288 15 is_stmt 0 view .LVU37
 152 008e FFF7FEFF 		bl	HAL_GetTick
 153              	.LVL13:
 154 0092 0546     		mov	r5, r0
 155              	.LVL14:
 289:Drivers/STM32F3xx_HAL_Driver/Src/stm32f3xx_hal_rcc.c ****   {
 156              		.loc 1 289 3 is_stmt 1 view .LVU38
 157              	.L7:
 289:Drivers/STM32F3xx_HAL_Driver/Src/stm32f3xx_hal_rcc.c ****   {
 158              		.loc 1 289 9 is_stmt 0 view .LVU39
 159 0094 104B     		ldr	r3, .L18
 160 0096 1B68     		ldr	r3, [r3]
 289:Drivers/STM32F3xx_HAL_Driver/Src/stm32f3xx_hal_rcc.c ****   {
 161              		.loc 1 289 8 view .LVU40
 162 0098 13F0007F 		tst	r3, #33554432
 163 009c 06D0     		beq	.L17
 291:Drivers/STM32F3xx_HAL_Driver/Src/stm32f3xx_hal_rcc.c ****     {
 164              		.loc 1 291 5 is_stmt 1 view .LVU41
 291:Drivers/STM32F3xx_HAL_Driver/Src/stm32f3xx_hal_rcc.c ****     {
 165              		.loc 1 291 9 is_stmt 0 view .LVU42
 166 009e FFF7FEFF 		bl	HAL_GetTick
 167              	.LVL15:
 291:Drivers/STM32F3xx_HAL_Driver/Src/stm32f3xx_hal_rcc.c ****     {
 168              		.loc 1 291 23 view .LVU43
ARM GAS  /var/folders/8c/gyvcglfx7f97kbqb2h83mm_r0000gn/T//ccp8Q8gW.s 			page 10


 169 00a2 401B     		subs	r0, r0, r5
 291:Drivers/STM32F3xx_HAL_Driver/Src/stm32f3xx_hal_rcc.c ****     {
 170              		.loc 1 291 7 view .LVU44
 171 00a4 0228     		cmp	r0, #2
 172 00a6 F5D9     		bls	.L7
 293:Drivers/STM32F3xx_HAL_Driver/Src/stm32f3xx_hal_rcc.c ****     }
 173              		.loc 1 293 14 view .LVU45
 174 00a8 0324     		movs	r4, #3
 175 00aa BDE7     		b	.L3
 176              	.L17:
 298:Drivers/STM32F3xx_HAL_Driver/Src/stm32f3xx_hal_rcc.c **** 
 177              		.loc 1 298 3 is_stmt 1 view .LVU46
 178 00ac 0A4B     		ldr	r3, .L18
 179 00ae 0022     		movs	r2, #0
 180 00b0 5A60     		str	r2, [r3, #4]
 301:Drivers/STM32F3xx_HAL_Driver/Src/stm32f3xx_hal_rcc.c **** 
 181              		.loc 1 301 3 view .LVU47
 182 00b2 DA62     		str	r2, [r3, #44]
 304:Drivers/STM32F3xx_HAL_Driver/Src/stm32f3xx_hal_rcc.c **** 
 183              		.loc 1 304 3 view .LVU48
 184 00b4 1A63     		str	r2, [r3, #48]
 307:Drivers/STM32F3xx_HAL_Driver/Src/stm32f3xx_hal_rcc.c **** 
 185              		.loc 1 307 3 view .LVU49
 186 00b6 9968     		ldr	r1, [r3, #8]
 187 00b8 41F41F01 		orr	r1, r1, #10420224
 188 00bc 9960     		str	r1, [r3, #8]
 310:Drivers/STM32F3xx_HAL_Driver/Src/stm32f3xx_hal_rcc.c **** 
 189              		.loc 1 310 3 view .LVU50
 190 00be 9A60     		str	r2, [r3, #8]
 313:Drivers/STM32F3xx_HAL_Driver/Src/stm32f3xx_hal_rcc.c **** 
 191              		.loc 1 313 3 view .LVU51
 192              	.LVL16:
 193              	.LBB168:
 194              	.LBI168:
 195              		.file 2 "Drivers/CMSIS/Include/cmsis_gcc.h"
   1:Drivers/CMSIS/Include/cmsis_gcc.h **** /**************************************************************************//**
   2:Drivers/CMSIS/Include/cmsis_gcc.h ****  * @file     cmsis_gcc.h
   3:Drivers/CMSIS/Include/cmsis_gcc.h ****  * @brief    CMSIS Cortex-M Core Function/Instruction Header File
   4:Drivers/CMSIS/Include/cmsis_gcc.h ****  * @version  V4.30
   5:Drivers/CMSIS/Include/cmsis_gcc.h ****  * @date     20. October 2015
   6:Drivers/CMSIS/Include/cmsis_gcc.h ****  ******************************************************************************/
   7:Drivers/CMSIS/Include/cmsis_gcc.h **** /* Copyright (c) 2009 - 2015 ARM LIMITED
   8:Drivers/CMSIS/Include/cmsis_gcc.h **** 
   9:Drivers/CMSIS/Include/cmsis_gcc.h ****    All rights reserved.
  10:Drivers/CMSIS/Include/cmsis_gcc.h ****    Redistribution and use in source and binary forms, with or without
  11:Drivers/CMSIS/Include/cmsis_gcc.h ****    modification, are permitted provided that the following conditions are met:
  12:Drivers/CMSIS/Include/cmsis_gcc.h ****    - Redistributions of source code must retain the above copyright
  13:Drivers/CMSIS/Include/cmsis_gcc.h ****      notice, this list of conditions and the following disclaimer.
  14:Drivers/CMSIS/Include/cmsis_gcc.h ****    - Redistributions in binary form must reproduce the above copyright
  15:Drivers/CMSIS/Include/cmsis_gcc.h ****      notice, this list of conditions and the following disclaimer in the
  16:Drivers/CMSIS/Include/cmsis_gcc.h ****      documentation and/or other materials provided with the distribution.
  17:Drivers/CMSIS/Include/cmsis_gcc.h ****    - Neither the name of ARM nor the names of its contributors may be used
  18:Drivers/CMSIS/Include/cmsis_gcc.h ****      to endorse or promote products derived from this software without
  19:Drivers/CMSIS/Include/cmsis_gcc.h ****      specific prior written permission.
  20:Drivers/CMSIS/Include/cmsis_gcc.h ****    *
  21:Drivers/CMSIS/Include/cmsis_gcc.h ****    THIS SOFTWARE IS PROVIDED BY THE COPYRIGHT HOLDERS AND CONTRIBUTORS "AS IS"
  22:Drivers/CMSIS/Include/cmsis_gcc.h ****    AND ANY EXPRESS OR IMPLIED WARRANTIES, INCLUDING, BUT NOT LIMITED TO, THE
ARM GAS  /var/folders/8c/gyvcglfx7f97kbqb2h83mm_r0000gn/T//ccp8Q8gW.s 			page 11


  23:Drivers/CMSIS/Include/cmsis_gcc.h ****    IMPLIED WARRANTIES OF MERCHANTABILITY AND FITNESS FOR A PARTICULAR PURPOSE
  24:Drivers/CMSIS/Include/cmsis_gcc.h ****    ARE DISCLAIMED. IN NO EVENT SHALL COPYRIGHT HOLDERS AND CONTRIBUTORS BE
  25:Drivers/CMSIS/Include/cmsis_gcc.h ****    LIABLE FOR ANY DIRECT, INDIRECT, INCIDENTAL, SPECIAL, EXEMPLARY, OR
  26:Drivers/CMSIS/Include/cmsis_gcc.h ****    CONSEQUENTIAL DAMAGES (INCLUDING, BUT NOT LIMITED TO, PROCUREMENT OF
  27:Drivers/CMSIS/Include/cmsis_gcc.h ****    SUBSTITUTE GOODS OR SERVICES; LOSS OF USE, DATA, OR PROFITS; OR BUSINESS
  28:Drivers/CMSIS/Include/cmsis_gcc.h ****    INTERRUPTION) HOWEVER CAUSED AND ON ANY THEORY OF LIABILITY, WHETHER IN
  29:Drivers/CMSIS/Include/cmsis_gcc.h ****    CONTRACT, STRICT LIABILITY, OR TORT (INCLUDING NEGLIGENCE OR OTHERWISE)
  30:Drivers/CMSIS/Include/cmsis_gcc.h ****    ARISING IN ANY WAY OUT OF THE USE OF THIS SOFTWARE, EVEN IF ADVISED OF THE
  31:Drivers/CMSIS/Include/cmsis_gcc.h ****    POSSIBILITY OF SUCH DAMAGE.
  32:Drivers/CMSIS/Include/cmsis_gcc.h ****    ---------------------------------------------------------------------------*/
  33:Drivers/CMSIS/Include/cmsis_gcc.h **** 
  34:Drivers/CMSIS/Include/cmsis_gcc.h **** 
  35:Drivers/CMSIS/Include/cmsis_gcc.h **** #ifndef __CMSIS_GCC_H
  36:Drivers/CMSIS/Include/cmsis_gcc.h **** #define __CMSIS_GCC_H
  37:Drivers/CMSIS/Include/cmsis_gcc.h **** 
  38:Drivers/CMSIS/Include/cmsis_gcc.h **** /* ignore some GCC warnings */
  39:Drivers/CMSIS/Include/cmsis_gcc.h **** #if defined ( __GNUC__ )
  40:Drivers/CMSIS/Include/cmsis_gcc.h **** #pragma GCC diagnostic push
  41:Drivers/CMSIS/Include/cmsis_gcc.h **** #pragma GCC diagnostic ignored "-Wsign-conversion"
  42:Drivers/CMSIS/Include/cmsis_gcc.h **** #pragma GCC diagnostic ignored "-Wconversion"
  43:Drivers/CMSIS/Include/cmsis_gcc.h **** #pragma GCC diagnostic ignored "-Wunused-parameter"
  44:Drivers/CMSIS/Include/cmsis_gcc.h **** #endif
  45:Drivers/CMSIS/Include/cmsis_gcc.h **** 
  46:Drivers/CMSIS/Include/cmsis_gcc.h **** 
  47:Drivers/CMSIS/Include/cmsis_gcc.h **** /* ###########################  Core Function Access  ########################### */
  48:Drivers/CMSIS/Include/cmsis_gcc.h **** /** \ingroup  CMSIS_Core_FunctionInterface
  49:Drivers/CMSIS/Include/cmsis_gcc.h ****     \defgroup CMSIS_Core_RegAccFunctions CMSIS Core Register Access Functions
  50:Drivers/CMSIS/Include/cmsis_gcc.h ****   @{
  51:Drivers/CMSIS/Include/cmsis_gcc.h ****  */
  52:Drivers/CMSIS/Include/cmsis_gcc.h **** 
  53:Drivers/CMSIS/Include/cmsis_gcc.h **** /**
  54:Drivers/CMSIS/Include/cmsis_gcc.h ****   \brief   Enable IRQ Interrupts
  55:Drivers/CMSIS/Include/cmsis_gcc.h ****   \details Enables IRQ interrupts by clearing the I-bit in the CPSR.
  56:Drivers/CMSIS/Include/cmsis_gcc.h ****            Can only be executed in Privileged modes.
  57:Drivers/CMSIS/Include/cmsis_gcc.h ****  */
  58:Drivers/CMSIS/Include/cmsis_gcc.h **** __attribute__( ( always_inline ) ) __STATIC_INLINE void __enable_irq(void)
  59:Drivers/CMSIS/Include/cmsis_gcc.h **** {
  60:Drivers/CMSIS/Include/cmsis_gcc.h ****   __ASM volatile ("cpsie i" : : : "memory");
  61:Drivers/CMSIS/Include/cmsis_gcc.h **** }
  62:Drivers/CMSIS/Include/cmsis_gcc.h **** 
  63:Drivers/CMSIS/Include/cmsis_gcc.h **** 
  64:Drivers/CMSIS/Include/cmsis_gcc.h **** /**
  65:Drivers/CMSIS/Include/cmsis_gcc.h ****   \brief   Disable IRQ Interrupts
  66:Drivers/CMSIS/Include/cmsis_gcc.h ****   \details Disables IRQ interrupts by setting the I-bit in the CPSR.
  67:Drivers/CMSIS/Include/cmsis_gcc.h ****   Can only be executed in Privileged modes.
  68:Drivers/CMSIS/Include/cmsis_gcc.h ****  */
  69:Drivers/CMSIS/Include/cmsis_gcc.h **** __attribute__( ( always_inline ) ) __STATIC_INLINE void __disable_irq(void)
  70:Drivers/CMSIS/Include/cmsis_gcc.h **** {
  71:Drivers/CMSIS/Include/cmsis_gcc.h ****   __ASM volatile ("cpsid i" : : : "memory");
  72:Drivers/CMSIS/Include/cmsis_gcc.h **** }
  73:Drivers/CMSIS/Include/cmsis_gcc.h **** 
  74:Drivers/CMSIS/Include/cmsis_gcc.h **** 
  75:Drivers/CMSIS/Include/cmsis_gcc.h **** /**
  76:Drivers/CMSIS/Include/cmsis_gcc.h ****   \brief   Get Control Register
  77:Drivers/CMSIS/Include/cmsis_gcc.h ****   \details Returns the content of the Control Register.
  78:Drivers/CMSIS/Include/cmsis_gcc.h ****   \return               Control Register value
  79:Drivers/CMSIS/Include/cmsis_gcc.h ****  */
ARM GAS  /var/folders/8c/gyvcglfx7f97kbqb2h83mm_r0000gn/T//ccp8Q8gW.s 			page 12


  80:Drivers/CMSIS/Include/cmsis_gcc.h **** __attribute__( ( always_inline ) ) __STATIC_INLINE uint32_t __get_CONTROL(void)
  81:Drivers/CMSIS/Include/cmsis_gcc.h **** {
  82:Drivers/CMSIS/Include/cmsis_gcc.h ****   uint32_t result;
  83:Drivers/CMSIS/Include/cmsis_gcc.h **** 
  84:Drivers/CMSIS/Include/cmsis_gcc.h ****   __ASM volatile ("MRS %0, control" : "=r" (result) );
  85:Drivers/CMSIS/Include/cmsis_gcc.h ****   return(result);
  86:Drivers/CMSIS/Include/cmsis_gcc.h **** }
  87:Drivers/CMSIS/Include/cmsis_gcc.h **** 
  88:Drivers/CMSIS/Include/cmsis_gcc.h **** 
  89:Drivers/CMSIS/Include/cmsis_gcc.h **** /**
  90:Drivers/CMSIS/Include/cmsis_gcc.h ****   \brief   Set Control Register
  91:Drivers/CMSIS/Include/cmsis_gcc.h ****   \details Writes the given value to the Control Register.
  92:Drivers/CMSIS/Include/cmsis_gcc.h ****   \param [in]    control  Control Register value to set
  93:Drivers/CMSIS/Include/cmsis_gcc.h ****  */
  94:Drivers/CMSIS/Include/cmsis_gcc.h **** __attribute__( ( always_inline ) ) __STATIC_INLINE void __set_CONTROL(uint32_t control)
  95:Drivers/CMSIS/Include/cmsis_gcc.h **** {
  96:Drivers/CMSIS/Include/cmsis_gcc.h ****   __ASM volatile ("MSR control, %0" : : "r" (control) : "memory");
  97:Drivers/CMSIS/Include/cmsis_gcc.h **** }
  98:Drivers/CMSIS/Include/cmsis_gcc.h **** 
  99:Drivers/CMSIS/Include/cmsis_gcc.h **** 
 100:Drivers/CMSIS/Include/cmsis_gcc.h **** /**
 101:Drivers/CMSIS/Include/cmsis_gcc.h ****   \brief   Get IPSR Register
 102:Drivers/CMSIS/Include/cmsis_gcc.h ****   \details Returns the content of the IPSR Register.
 103:Drivers/CMSIS/Include/cmsis_gcc.h ****   \return               IPSR Register value
 104:Drivers/CMSIS/Include/cmsis_gcc.h ****  */
 105:Drivers/CMSIS/Include/cmsis_gcc.h **** __attribute__( ( always_inline ) ) __STATIC_INLINE uint32_t __get_IPSR(void)
 106:Drivers/CMSIS/Include/cmsis_gcc.h **** {
 107:Drivers/CMSIS/Include/cmsis_gcc.h ****   uint32_t result;
 108:Drivers/CMSIS/Include/cmsis_gcc.h **** 
 109:Drivers/CMSIS/Include/cmsis_gcc.h ****   __ASM volatile ("MRS %0, ipsr" : "=r" (result) );
 110:Drivers/CMSIS/Include/cmsis_gcc.h ****   return(result);
 111:Drivers/CMSIS/Include/cmsis_gcc.h **** }
 112:Drivers/CMSIS/Include/cmsis_gcc.h **** 
 113:Drivers/CMSIS/Include/cmsis_gcc.h **** 
 114:Drivers/CMSIS/Include/cmsis_gcc.h **** /**
 115:Drivers/CMSIS/Include/cmsis_gcc.h ****   \brief   Get APSR Register
 116:Drivers/CMSIS/Include/cmsis_gcc.h ****   \details Returns the content of the APSR Register.
 117:Drivers/CMSIS/Include/cmsis_gcc.h ****   \return               APSR Register value
 118:Drivers/CMSIS/Include/cmsis_gcc.h ****  */
 119:Drivers/CMSIS/Include/cmsis_gcc.h **** __attribute__( ( always_inline ) ) __STATIC_INLINE uint32_t __get_APSR(void)
 120:Drivers/CMSIS/Include/cmsis_gcc.h **** {
 121:Drivers/CMSIS/Include/cmsis_gcc.h ****   uint32_t result;
 122:Drivers/CMSIS/Include/cmsis_gcc.h **** 
 123:Drivers/CMSIS/Include/cmsis_gcc.h ****   __ASM volatile ("MRS %0, apsr" : "=r" (result) );
 124:Drivers/CMSIS/Include/cmsis_gcc.h ****   return(result);
 125:Drivers/CMSIS/Include/cmsis_gcc.h **** }
 126:Drivers/CMSIS/Include/cmsis_gcc.h **** 
 127:Drivers/CMSIS/Include/cmsis_gcc.h **** 
 128:Drivers/CMSIS/Include/cmsis_gcc.h **** /**
 129:Drivers/CMSIS/Include/cmsis_gcc.h ****   \brief   Get xPSR Register
 130:Drivers/CMSIS/Include/cmsis_gcc.h ****   \details Returns the content of the xPSR Register.
 131:Drivers/CMSIS/Include/cmsis_gcc.h **** 
 132:Drivers/CMSIS/Include/cmsis_gcc.h ****     \return               xPSR Register value
 133:Drivers/CMSIS/Include/cmsis_gcc.h ****  */
 134:Drivers/CMSIS/Include/cmsis_gcc.h **** __attribute__( ( always_inline ) ) __STATIC_INLINE uint32_t __get_xPSR(void)
 135:Drivers/CMSIS/Include/cmsis_gcc.h **** {
 136:Drivers/CMSIS/Include/cmsis_gcc.h ****   uint32_t result;
ARM GAS  /var/folders/8c/gyvcglfx7f97kbqb2h83mm_r0000gn/T//ccp8Q8gW.s 			page 13


 137:Drivers/CMSIS/Include/cmsis_gcc.h **** 
 138:Drivers/CMSIS/Include/cmsis_gcc.h ****   __ASM volatile ("MRS %0, xpsr" : "=r" (result) );
 139:Drivers/CMSIS/Include/cmsis_gcc.h ****   return(result);
 140:Drivers/CMSIS/Include/cmsis_gcc.h **** }
 141:Drivers/CMSIS/Include/cmsis_gcc.h **** 
 142:Drivers/CMSIS/Include/cmsis_gcc.h **** 
 143:Drivers/CMSIS/Include/cmsis_gcc.h **** /**
 144:Drivers/CMSIS/Include/cmsis_gcc.h ****   \brief   Get Process Stack Pointer
 145:Drivers/CMSIS/Include/cmsis_gcc.h ****   \details Returns the current value of the Process Stack Pointer (PSP).
 146:Drivers/CMSIS/Include/cmsis_gcc.h ****   \return               PSP Register value
 147:Drivers/CMSIS/Include/cmsis_gcc.h ****  */
 148:Drivers/CMSIS/Include/cmsis_gcc.h **** __attribute__( ( always_inline ) ) __STATIC_INLINE uint32_t __get_PSP(void)
 149:Drivers/CMSIS/Include/cmsis_gcc.h **** {
 150:Drivers/CMSIS/Include/cmsis_gcc.h ****   register uint32_t result;
 151:Drivers/CMSIS/Include/cmsis_gcc.h **** 
 152:Drivers/CMSIS/Include/cmsis_gcc.h ****   __ASM volatile ("MRS %0, psp\n"  : "=r" (result) );
 153:Drivers/CMSIS/Include/cmsis_gcc.h ****   return(result);
 154:Drivers/CMSIS/Include/cmsis_gcc.h **** }
 155:Drivers/CMSIS/Include/cmsis_gcc.h **** 
 156:Drivers/CMSIS/Include/cmsis_gcc.h **** 
 157:Drivers/CMSIS/Include/cmsis_gcc.h **** /**
 158:Drivers/CMSIS/Include/cmsis_gcc.h ****   \brief   Set Process Stack Pointer
 159:Drivers/CMSIS/Include/cmsis_gcc.h ****   \details Assigns the given value to the Process Stack Pointer (PSP).
 160:Drivers/CMSIS/Include/cmsis_gcc.h ****   \param [in]    topOfProcStack  Process Stack Pointer value to set
 161:Drivers/CMSIS/Include/cmsis_gcc.h ****  */
 162:Drivers/CMSIS/Include/cmsis_gcc.h **** __attribute__( ( always_inline ) ) __STATIC_INLINE void __set_PSP(uint32_t topOfProcStack)
 163:Drivers/CMSIS/Include/cmsis_gcc.h **** {
 164:Drivers/CMSIS/Include/cmsis_gcc.h ****   __ASM volatile ("MSR psp, %0\n" : : "r" (topOfProcStack) : "sp");
 165:Drivers/CMSIS/Include/cmsis_gcc.h **** }
 166:Drivers/CMSIS/Include/cmsis_gcc.h **** 
 167:Drivers/CMSIS/Include/cmsis_gcc.h **** 
 168:Drivers/CMSIS/Include/cmsis_gcc.h **** /**
 169:Drivers/CMSIS/Include/cmsis_gcc.h ****   \brief   Get Main Stack Pointer
 170:Drivers/CMSIS/Include/cmsis_gcc.h ****   \details Returns the current value of the Main Stack Pointer (MSP).
 171:Drivers/CMSIS/Include/cmsis_gcc.h ****   \return               MSP Register value
 172:Drivers/CMSIS/Include/cmsis_gcc.h ****  */
 173:Drivers/CMSIS/Include/cmsis_gcc.h **** __attribute__( ( always_inline ) ) __STATIC_INLINE uint32_t __get_MSP(void)
 174:Drivers/CMSIS/Include/cmsis_gcc.h **** {
 175:Drivers/CMSIS/Include/cmsis_gcc.h ****   register uint32_t result;
 176:Drivers/CMSIS/Include/cmsis_gcc.h **** 
 177:Drivers/CMSIS/Include/cmsis_gcc.h ****   __ASM volatile ("MRS %0, msp\n" : "=r" (result) );
 178:Drivers/CMSIS/Include/cmsis_gcc.h ****   return(result);
 179:Drivers/CMSIS/Include/cmsis_gcc.h **** }
 180:Drivers/CMSIS/Include/cmsis_gcc.h **** 
 181:Drivers/CMSIS/Include/cmsis_gcc.h **** 
 182:Drivers/CMSIS/Include/cmsis_gcc.h **** /**
 183:Drivers/CMSIS/Include/cmsis_gcc.h ****   \brief   Set Main Stack Pointer
 184:Drivers/CMSIS/Include/cmsis_gcc.h ****   \details Assigns the given value to the Main Stack Pointer (MSP).
 185:Drivers/CMSIS/Include/cmsis_gcc.h **** 
 186:Drivers/CMSIS/Include/cmsis_gcc.h ****     \param [in]    topOfMainStack  Main Stack Pointer value to set
 187:Drivers/CMSIS/Include/cmsis_gcc.h ****  */
 188:Drivers/CMSIS/Include/cmsis_gcc.h **** __attribute__( ( always_inline ) ) __STATIC_INLINE void __set_MSP(uint32_t topOfMainStack)
 189:Drivers/CMSIS/Include/cmsis_gcc.h **** {
 190:Drivers/CMSIS/Include/cmsis_gcc.h ****   __ASM volatile ("MSR msp, %0\n" : : "r" (topOfMainStack) : "sp");
 191:Drivers/CMSIS/Include/cmsis_gcc.h **** }
 192:Drivers/CMSIS/Include/cmsis_gcc.h **** 
 193:Drivers/CMSIS/Include/cmsis_gcc.h **** 
ARM GAS  /var/folders/8c/gyvcglfx7f97kbqb2h83mm_r0000gn/T//ccp8Q8gW.s 			page 14


 194:Drivers/CMSIS/Include/cmsis_gcc.h **** /**
 195:Drivers/CMSIS/Include/cmsis_gcc.h ****   \brief   Get Priority Mask
 196:Drivers/CMSIS/Include/cmsis_gcc.h ****   \details Returns the current state of the priority mask bit from the Priority Mask Register.
 197:Drivers/CMSIS/Include/cmsis_gcc.h ****   \return               Priority Mask value
 198:Drivers/CMSIS/Include/cmsis_gcc.h ****  */
 199:Drivers/CMSIS/Include/cmsis_gcc.h **** __attribute__( ( always_inline ) ) __STATIC_INLINE uint32_t __get_PRIMASK(void)
 200:Drivers/CMSIS/Include/cmsis_gcc.h **** {
 201:Drivers/CMSIS/Include/cmsis_gcc.h ****   uint32_t result;
 202:Drivers/CMSIS/Include/cmsis_gcc.h **** 
 203:Drivers/CMSIS/Include/cmsis_gcc.h ****   __ASM volatile ("MRS %0, primask" : "=r" (result) );
 204:Drivers/CMSIS/Include/cmsis_gcc.h ****   return(result);
 205:Drivers/CMSIS/Include/cmsis_gcc.h **** }
 206:Drivers/CMSIS/Include/cmsis_gcc.h **** 
 207:Drivers/CMSIS/Include/cmsis_gcc.h **** 
 208:Drivers/CMSIS/Include/cmsis_gcc.h **** /**
 209:Drivers/CMSIS/Include/cmsis_gcc.h ****   \brief   Set Priority Mask
 210:Drivers/CMSIS/Include/cmsis_gcc.h ****   \details Assigns the given value to the Priority Mask Register.
 211:Drivers/CMSIS/Include/cmsis_gcc.h ****   \param [in]    priMask  Priority Mask
 212:Drivers/CMSIS/Include/cmsis_gcc.h ****  */
 213:Drivers/CMSIS/Include/cmsis_gcc.h **** __attribute__( ( always_inline ) ) __STATIC_INLINE void __set_PRIMASK(uint32_t priMask)
 214:Drivers/CMSIS/Include/cmsis_gcc.h **** {
 215:Drivers/CMSIS/Include/cmsis_gcc.h ****   __ASM volatile ("MSR primask, %0" : : "r" (priMask) : "memory");
 216:Drivers/CMSIS/Include/cmsis_gcc.h **** }
 217:Drivers/CMSIS/Include/cmsis_gcc.h **** 
 218:Drivers/CMSIS/Include/cmsis_gcc.h **** 
 219:Drivers/CMSIS/Include/cmsis_gcc.h **** #if       (__CORTEX_M >= 0x03U)
 220:Drivers/CMSIS/Include/cmsis_gcc.h **** 
 221:Drivers/CMSIS/Include/cmsis_gcc.h **** /**
 222:Drivers/CMSIS/Include/cmsis_gcc.h ****   \brief   Enable FIQ
 223:Drivers/CMSIS/Include/cmsis_gcc.h ****   \details Enables FIQ interrupts by clearing the F-bit in the CPSR.
 224:Drivers/CMSIS/Include/cmsis_gcc.h ****            Can only be executed in Privileged modes.
 225:Drivers/CMSIS/Include/cmsis_gcc.h ****  */
 226:Drivers/CMSIS/Include/cmsis_gcc.h **** __attribute__( ( always_inline ) ) __STATIC_INLINE void __enable_fault_irq(void)
 227:Drivers/CMSIS/Include/cmsis_gcc.h **** {
 228:Drivers/CMSIS/Include/cmsis_gcc.h ****   __ASM volatile ("cpsie f" : : : "memory");
 229:Drivers/CMSIS/Include/cmsis_gcc.h **** }
 230:Drivers/CMSIS/Include/cmsis_gcc.h **** 
 231:Drivers/CMSIS/Include/cmsis_gcc.h **** 
 232:Drivers/CMSIS/Include/cmsis_gcc.h **** /**
 233:Drivers/CMSIS/Include/cmsis_gcc.h ****   \brief   Disable FIQ
 234:Drivers/CMSIS/Include/cmsis_gcc.h ****   \details Disables FIQ interrupts by setting the F-bit in the CPSR.
 235:Drivers/CMSIS/Include/cmsis_gcc.h ****            Can only be executed in Privileged modes.
 236:Drivers/CMSIS/Include/cmsis_gcc.h ****  */
 237:Drivers/CMSIS/Include/cmsis_gcc.h **** __attribute__( ( always_inline ) ) __STATIC_INLINE void __disable_fault_irq(void)
 238:Drivers/CMSIS/Include/cmsis_gcc.h **** {
 239:Drivers/CMSIS/Include/cmsis_gcc.h ****   __ASM volatile ("cpsid f" : : : "memory");
 240:Drivers/CMSIS/Include/cmsis_gcc.h **** }
 241:Drivers/CMSIS/Include/cmsis_gcc.h **** 
 242:Drivers/CMSIS/Include/cmsis_gcc.h **** 
 243:Drivers/CMSIS/Include/cmsis_gcc.h **** /**
 244:Drivers/CMSIS/Include/cmsis_gcc.h ****   \brief   Get Base Priority
 245:Drivers/CMSIS/Include/cmsis_gcc.h ****   \details Returns the current value of the Base Priority register.
 246:Drivers/CMSIS/Include/cmsis_gcc.h ****   \return               Base Priority register value
 247:Drivers/CMSIS/Include/cmsis_gcc.h ****  */
 248:Drivers/CMSIS/Include/cmsis_gcc.h **** __attribute__( ( always_inline ) ) __STATIC_INLINE uint32_t __get_BASEPRI(void)
 249:Drivers/CMSIS/Include/cmsis_gcc.h **** {
 250:Drivers/CMSIS/Include/cmsis_gcc.h ****   uint32_t result;
ARM GAS  /var/folders/8c/gyvcglfx7f97kbqb2h83mm_r0000gn/T//ccp8Q8gW.s 			page 15


 251:Drivers/CMSIS/Include/cmsis_gcc.h **** 
 252:Drivers/CMSIS/Include/cmsis_gcc.h ****   __ASM volatile ("MRS %0, basepri" : "=r" (result) );
 253:Drivers/CMSIS/Include/cmsis_gcc.h ****   return(result);
 254:Drivers/CMSIS/Include/cmsis_gcc.h **** }
 255:Drivers/CMSIS/Include/cmsis_gcc.h **** 
 256:Drivers/CMSIS/Include/cmsis_gcc.h **** 
 257:Drivers/CMSIS/Include/cmsis_gcc.h **** /**
 258:Drivers/CMSIS/Include/cmsis_gcc.h ****   \brief   Set Base Priority
 259:Drivers/CMSIS/Include/cmsis_gcc.h ****   \details Assigns the given value to the Base Priority register.
 260:Drivers/CMSIS/Include/cmsis_gcc.h ****   \param [in]    basePri  Base Priority value to set
 261:Drivers/CMSIS/Include/cmsis_gcc.h ****  */
 262:Drivers/CMSIS/Include/cmsis_gcc.h **** __attribute__( ( always_inline ) ) __STATIC_INLINE void __set_BASEPRI(uint32_t value)
 263:Drivers/CMSIS/Include/cmsis_gcc.h **** {
 264:Drivers/CMSIS/Include/cmsis_gcc.h ****   __ASM volatile ("MSR basepri, %0" : : "r" (value) : "memory");
 265:Drivers/CMSIS/Include/cmsis_gcc.h **** }
 266:Drivers/CMSIS/Include/cmsis_gcc.h **** 
 267:Drivers/CMSIS/Include/cmsis_gcc.h **** 
 268:Drivers/CMSIS/Include/cmsis_gcc.h **** /**
 269:Drivers/CMSIS/Include/cmsis_gcc.h ****   \brief   Set Base Priority with condition
 270:Drivers/CMSIS/Include/cmsis_gcc.h ****   \details Assigns the given value to the Base Priority register only if BASEPRI masking is disable
 271:Drivers/CMSIS/Include/cmsis_gcc.h ****            or the new value increases the BASEPRI priority level.
 272:Drivers/CMSIS/Include/cmsis_gcc.h ****   \param [in]    basePri  Base Priority value to set
 273:Drivers/CMSIS/Include/cmsis_gcc.h ****  */
 274:Drivers/CMSIS/Include/cmsis_gcc.h **** __attribute__( ( always_inline ) ) __STATIC_INLINE void __set_BASEPRI_MAX(uint32_t value)
 275:Drivers/CMSIS/Include/cmsis_gcc.h **** {
 276:Drivers/CMSIS/Include/cmsis_gcc.h ****   __ASM volatile ("MSR basepri_max, %0" : : "r" (value) : "memory");
 277:Drivers/CMSIS/Include/cmsis_gcc.h **** }
 278:Drivers/CMSIS/Include/cmsis_gcc.h **** 
 279:Drivers/CMSIS/Include/cmsis_gcc.h **** 
 280:Drivers/CMSIS/Include/cmsis_gcc.h **** /**
 281:Drivers/CMSIS/Include/cmsis_gcc.h ****   \brief   Get Fault Mask
 282:Drivers/CMSIS/Include/cmsis_gcc.h ****   \details Returns the current value of the Fault Mask register.
 283:Drivers/CMSIS/Include/cmsis_gcc.h ****   \return               Fault Mask register value
 284:Drivers/CMSIS/Include/cmsis_gcc.h ****  */
 285:Drivers/CMSIS/Include/cmsis_gcc.h **** __attribute__( ( always_inline ) ) __STATIC_INLINE uint32_t __get_FAULTMASK(void)
 286:Drivers/CMSIS/Include/cmsis_gcc.h **** {
 287:Drivers/CMSIS/Include/cmsis_gcc.h ****   uint32_t result;
 288:Drivers/CMSIS/Include/cmsis_gcc.h **** 
 289:Drivers/CMSIS/Include/cmsis_gcc.h ****   __ASM volatile ("MRS %0, faultmask" : "=r" (result) );
 290:Drivers/CMSIS/Include/cmsis_gcc.h ****   return(result);
 291:Drivers/CMSIS/Include/cmsis_gcc.h **** }
 292:Drivers/CMSIS/Include/cmsis_gcc.h **** 
 293:Drivers/CMSIS/Include/cmsis_gcc.h **** 
 294:Drivers/CMSIS/Include/cmsis_gcc.h **** /**
 295:Drivers/CMSIS/Include/cmsis_gcc.h ****   \brief   Set Fault Mask
 296:Drivers/CMSIS/Include/cmsis_gcc.h ****   \details Assigns the given value to the Fault Mask register.
 297:Drivers/CMSIS/Include/cmsis_gcc.h ****   \param [in]    faultMask  Fault Mask value to set
 298:Drivers/CMSIS/Include/cmsis_gcc.h ****  */
 299:Drivers/CMSIS/Include/cmsis_gcc.h **** __attribute__( ( always_inline ) ) __STATIC_INLINE void __set_FAULTMASK(uint32_t faultMask)
 300:Drivers/CMSIS/Include/cmsis_gcc.h **** {
 301:Drivers/CMSIS/Include/cmsis_gcc.h ****   __ASM volatile ("MSR faultmask, %0" : : "r" (faultMask) : "memory");
 302:Drivers/CMSIS/Include/cmsis_gcc.h **** }
 303:Drivers/CMSIS/Include/cmsis_gcc.h **** 
 304:Drivers/CMSIS/Include/cmsis_gcc.h **** #endif /* (__CORTEX_M >= 0x03U) */
 305:Drivers/CMSIS/Include/cmsis_gcc.h **** 
 306:Drivers/CMSIS/Include/cmsis_gcc.h **** 
 307:Drivers/CMSIS/Include/cmsis_gcc.h **** #if       (__CORTEX_M == 0x04U) || (__CORTEX_M == 0x07U)
ARM GAS  /var/folders/8c/gyvcglfx7f97kbqb2h83mm_r0000gn/T//ccp8Q8gW.s 			page 16


 308:Drivers/CMSIS/Include/cmsis_gcc.h **** 
 309:Drivers/CMSIS/Include/cmsis_gcc.h **** /**
 310:Drivers/CMSIS/Include/cmsis_gcc.h ****   \brief   Get FPSCR
 311:Drivers/CMSIS/Include/cmsis_gcc.h ****   \details Returns the current value of the Floating Point Status/Control register.
 312:Drivers/CMSIS/Include/cmsis_gcc.h ****   \return               Floating Point Status/Control register value
 313:Drivers/CMSIS/Include/cmsis_gcc.h ****  */
 314:Drivers/CMSIS/Include/cmsis_gcc.h **** __attribute__( ( always_inline ) ) __STATIC_INLINE uint32_t __get_FPSCR(void)
 315:Drivers/CMSIS/Include/cmsis_gcc.h **** {
 316:Drivers/CMSIS/Include/cmsis_gcc.h **** #if (__FPU_PRESENT == 1U) && (__FPU_USED == 1U)
 317:Drivers/CMSIS/Include/cmsis_gcc.h ****   uint32_t result;
 318:Drivers/CMSIS/Include/cmsis_gcc.h **** 
 319:Drivers/CMSIS/Include/cmsis_gcc.h ****   /* Empty asm statement works as a scheduling barrier */
 320:Drivers/CMSIS/Include/cmsis_gcc.h ****   __ASM volatile ("");
 321:Drivers/CMSIS/Include/cmsis_gcc.h ****   __ASM volatile ("VMRS %0, fpscr" : "=r" (result) );
 322:Drivers/CMSIS/Include/cmsis_gcc.h ****   __ASM volatile ("");
 323:Drivers/CMSIS/Include/cmsis_gcc.h ****   return(result);
 324:Drivers/CMSIS/Include/cmsis_gcc.h **** #else
 325:Drivers/CMSIS/Include/cmsis_gcc.h ****    return(0);
 326:Drivers/CMSIS/Include/cmsis_gcc.h **** #endif
 327:Drivers/CMSIS/Include/cmsis_gcc.h **** }
 328:Drivers/CMSIS/Include/cmsis_gcc.h **** 
 329:Drivers/CMSIS/Include/cmsis_gcc.h **** 
 330:Drivers/CMSIS/Include/cmsis_gcc.h **** /**
 331:Drivers/CMSIS/Include/cmsis_gcc.h ****   \brief   Set FPSCR
 332:Drivers/CMSIS/Include/cmsis_gcc.h ****   \details Assigns the given value to the Floating Point Status/Control register.
 333:Drivers/CMSIS/Include/cmsis_gcc.h ****   \param [in]    fpscr  Floating Point Status/Control value to set
 334:Drivers/CMSIS/Include/cmsis_gcc.h ****  */
 335:Drivers/CMSIS/Include/cmsis_gcc.h **** __attribute__( ( always_inline ) ) __STATIC_INLINE void __set_FPSCR(uint32_t fpscr)
 336:Drivers/CMSIS/Include/cmsis_gcc.h **** {
 337:Drivers/CMSIS/Include/cmsis_gcc.h **** #if (__FPU_PRESENT == 1U) && (__FPU_USED == 1U)
 338:Drivers/CMSIS/Include/cmsis_gcc.h ****   /* Empty asm statement works as a scheduling barrier */
 339:Drivers/CMSIS/Include/cmsis_gcc.h ****   __ASM volatile ("");
 340:Drivers/CMSIS/Include/cmsis_gcc.h ****   __ASM volatile ("VMSR fpscr, %0" : : "r" (fpscr) : "vfpcc");
 341:Drivers/CMSIS/Include/cmsis_gcc.h ****   __ASM volatile ("");
 342:Drivers/CMSIS/Include/cmsis_gcc.h **** #endif
 343:Drivers/CMSIS/Include/cmsis_gcc.h **** }
 344:Drivers/CMSIS/Include/cmsis_gcc.h **** 
 345:Drivers/CMSIS/Include/cmsis_gcc.h **** #endif /* (__CORTEX_M == 0x04U) || (__CORTEX_M == 0x07U) */
 346:Drivers/CMSIS/Include/cmsis_gcc.h **** 
 347:Drivers/CMSIS/Include/cmsis_gcc.h **** 
 348:Drivers/CMSIS/Include/cmsis_gcc.h **** 
 349:Drivers/CMSIS/Include/cmsis_gcc.h **** /*@} end of CMSIS_Core_RegAccFunctions */
 350:Drivers/CMSIS/Include/cmsis_gcc.h **** 
 351:Drivers/CMSIS/Include/cmsis_gcc.h **** 
 352:Drivers/CMSIS/Include/cmsis_gcc.h **** /* ##########################  Core Instruction Access  ######################### */
 353:Drivers/CMSIS/Include/cmsis_gcc.h **** /** \defgroup CMSIS_Core_InstructionInterface CMSIS Core Instruction Interface
 354:Drivers/CMSIS/Include/cmsis_gcc.h ****   Access to dedicated instructions
 355:Drivers/CMSIS/Include/cmsis_gcc.h ****   @{
 356:Drivers/CMSIS/Include/cmsis_gcc.h **** */
 357:Drivers/CMSIS/Include/cmsis_gcc.h **** 
 358:Drivers/CMSIS/Include/cmsis_gcc.h **** /* Define macros for porting to both thumb1 and thumb2.
 359:Drivers/CMSIS/Include/cmsis_gcc.h ****  * For thumb1, use low register (r0-r7), specified by constraint "l"
 360:Drivers/CMSIS/Include/cmsis_gcc.h ****  * Otherwise, use general registers, specified by constraint "r" */
 361:Drivers/CMSIS/Include/cmsis_gcc.h **** #if defined (__thumb__) && !defined (__thumb2__)
 362:Drivers/CMSIS/Include/cmsis_gcc.h **** #define __CMSIS_GCC_OUT_REG(r) "=l" (r)
 363:Drivers/CMSIS/Include/cmsis_gcc.h **** #define __CMSIS_GCC_USE_REG(r) "l" (r)
 364:Drivers/CMSIS/Include/cmsis_gcc.h **** #else
ARM GAS  /var/folders/8c/gyvcglfx7f97kbqb2h83mm_r0000gn/T//ccp8Q8gW.s 			page 17


 365:Drivers/CMSIS/Include/cmsis_gcc.h **** #define __CMSIS_GCC_OUT_REG(r) "=r" (r)
 366:Drivers/CMSIS/Include/cmsis_gcc.h **** #define __CMSIS_GCC_USE_REG(r) "r" (r)
 367:Drivers/CMSIS/Include/cmsis_gcc.h **** #endif
 368:Drivers/CMSIS/Include/cmsis_gcc.h **** 
 369:Drivers/CMSIS/Include/cmsis_gcc.h **** /**
 370:Drivers/CMSIS/Include/cmsis_gcc.h ****   \brief   No Operation
 371:Drivers/CMSIS/Include/cmsis_gcc.h ****   \details No Operation does nothing. This instruction can be used for code alignment purposes.
 372:Drivers/CMSIS/Include/cmsis_gcc.h ****  */
 373:Drivers/CMSIS/Include/cmsis_gcc.h **** __attribute__((always_inline)) __STATIC_INLINE void __NOP(void)
 374:Drivers/CMSIS/Include/cmsis_gcc.h **** {
 375:Drivers/CMSIS/Include/cmsis_gcc.h ****   __ASM volatile ("nop");
 376:Drivers/CMSIS/Include/cmsis_gcc.h **** }
 377:Drivers/CMSIS/Include/cmsis_gcc.h **** 
 378:Drivers/CMSIS/Include/cmsis_gcc.h **** 
 379:Drivers/CMSIS/Include/cmsis_gcc.h **** /**
 380:Drivers/CMSIS/Include/cmsis_gcc.h ****   \brief   Wait For Interrupt
 381:Drivers/CMSIS/Include/cmsis_gcc.h ****   \details Wait For Interrupt is a hint instruction that suspends execution until one of a number o
 382:Drivers/CMSIS/Include/cmsis_gcc.h ****  */
 383:Drivers/CMSIS/Include/cmsis_gcc.h **** __attribute__((always_inline)) __STATIC_INLINE void __WFI(void)
 384:Drivers/CMSIS/Include/cmsis_gcc.h **** {
 385:Drivers/CMSIS/Include/cmsis_gcc.h ****   __ASM volatile ("wfi");
 386:Drivers/CMSIS/Include/cmsis_gcc.h **** }
 387:Drivers/CMSIS/Include/cmsis_gcc.h **** 
 388:Drivers/CMSIS/Include/cmsis_gcc.h **** 
 389:Drivers/CMSIS/Include/cmsis_gcc.h **** /**
 390:Drivers/CMSIS/Include/cmsis_gcc.h ****   \brief   Wait For Event
 391:Drivers/CMSIS/Include/cmsis_gcc.h ****   \details Wait For Event is a hint instruction that permits the processor to enter
 392:Drivers/CMSIS/Include/cmsis_gcc.h ****     a low-power state until one of a number of events occurs.
 393:Drivers/CMSIS/Include/cmsis_gcc.h ****  */
 394:Drivers/CMSIS/Include/cmsis_gcc.h **** __attribute__((always_inline)) __STATIC_INLINE void __WFE(void)
 395:Drivers/CMSIS/Include/cmsis_gcc.h **** {
 396:Drivers/CMSIS/Include/cmsis_gcc.h ****   __ASM volatile ("wfe");
 397:Drivers/CMSIS/Include/cmsis_gcc.h **** }
 398:Drivers/CMSIS/Include/cmsis_gcc.h **** 
 399:Drivers/CMSIS/Include/cmsis_gcc.h **** 
 400:Drivers/CMSIS/Include/cmsis_gcc.h **** /**
 401:Drivers/CMSIS/Include/cmsis_gcc.h ****   \brief   Send Event
 402:Drivers/CMSIS/Include/cmsis_gcc.h ****   \details Send Event is a hint instruction. It causes an event to be signaled to the CPU.
 403:Drivers/CMSIS/Include/cmsis_gcc.h ****  */
 404:Drivers/CMSIS/Include/cmsis_gcc.h **** __attribute__((always_inline)) __STATIC_INLINE void __SEV(void)
 405:Drivers/CMSIS/Include/cmsis_gcc.h **** {
 406:Drivers/CMSIS/Include/cmsis_gcc.h ****   __ASM volatile ("sev");
 407:Drivers/CMSIS/Include/cmsis_gcc.h **** }
 408:Drivers/CMSIS/Include/cmsis_gcc.h **** 
 409:Drivers/CMSIS/Include/cmsis_gcc.h **** 
 410:Drivers/CMSIS/Include/cmsis_gcc.h **** /**
 411:Drivers/CMSIS/Include/cmsis_gcc.h ****   \brief   Instruction Synchronization Barrier
 412:Drivers/CMSIS/Include/cmsis_gcc.h ****   \details Instruction Synchronization Barrier flushes the pipeline in the processor,
 413:Drivers/CMSIS/Include/cmsis_gcc.h ****            so that all instructions following the ISB are fetched from cache or memory,
 414:Drivers/CMSIS/Include/cmsis_gcc.h ****            after the instruction has been completed.
 415:Drivers/CMSIS/Include/cmsis_gcc.h ****  */
 416:Drivers/CMSIS/Include/cmsis_gcc.h **** __attribute__((always_inline)) __STATIC_INLINE void __ISB(void)
 417:Drivers/CMSIS/Include/cmsis_gcc.h **** {
 418:Drivers/CMSIS/Include/cmsis_gcc.h ****   __ASM volatile ("isb 0xF":::"memory");
 419:Drivers/CMSIS/Include/cmsis_gcc.h **** }
 420:Drivers/CMSIS/Include/cmsis_gcc.h **** 
 421:Drivers/CMSIS/Include/cmsis_gcc.h **** 
ARM GAS  /var/folders/8c/gyvcglfx7f97kbqb2h83mm_r0000gn/T//ccp8Q8gW.s 			page 18


 422:Drivers/CMSIS/Include/cmsis_gcc.h **** /**
 423:Drivers/CMSIS/Include/cmsis_gcc.h ****   \brief   Data Synchronization Barrier
 424:Drivers/CMSIS/Include/cmsis_gcc.h ****   \details Acts as a special kind of Data Memory Barrier.
 425:Drivers/CMSIS/Include/cmsis_gcc.h ****            It completes when all explicit memory accesses before this instruction complete.
 426:Drivers/CMSIS/Include/cmsis_gcc.h ****  */
 427:Drivers/CMSIS/Include/cmsis_gcc.h **** __attribute__((always_inline)) __STATIC_INLINE void __DSB(void)
 428:Drivers/CMSIS/Include/cmsis_gcc.h **** {
 429:Drivers/CMSIS/Include/cmsis_gcc.h ****   __ASM volatile ("dsb 0xF":::"memory");
 430:Drivers/CMSIS/Include/cmsis_gcc.h **** }
 431:Drivers/CMSIS/Include/cmsis_gcc.h **** 
 432:Drivers/CMSIS/Include/cmsis_gcc.h **** 
 433:Drivers/CMSIS/Include/cmsis_gcc.h **** /**
 434:Drivers/CMSIS/Include/cmsis_gcc.h ****   \brief   Data Memory Barrier
 435:Drivers/CMSIS/Include/cmsis_gcc.h ****   \details Ensures the apparent order of the explicit memory operations before
 436:Drivers/CMSIS/Include/cmsis_gcc.h ****            and after the instruction, without ensuring their completion.
 437:Drivers/CMSIS/Include/cmsis_gcc.h ****  */
 438:Drivers/CMSIS/Include/cmsis_gcc.h **** __attribute__((always_inline)) __STATIC_INLINE void __DMB(void)
 439:Drivers/CMSIS/Include/cmsis_gcc.h **** {
 440:Drivers/CMSIS/Include/cmsis_gcc.h ****   __ASM volatile ("dmb 0xF":::"memory");
 441:Drivers/CMSIS/Include/cmsis_gcc.h **** }
 442:Drivers/CMSIS/Include/cmsis_gcc.h **** 
 443:Drivers/CMSIS/Include/cmsis_gcc.h **** 
 444:Drivers/CMSIS/Include/cmsis_gcc.h **** /**
 445:Drivers/CMSIS/Include/cmsis_gcc.h ****   \brief   Reverse byte order (32 bit)
 446:Drivers/CMSIS/Include/cmsis_gcc.h ****   \details Reverses the byte order in integer value.
 447:Drivers/CMSIS/Include/cmsis_gcc.h ****   \param [in]    value  Value to reverse
 448:Drivers/CMSIS/Include/cmsis_gcc.h ****   \return               Reversed value
 449:Drivers/CMSIS/Include/cmsis_gcc.h ****  */
 450:Drivers/CMSIS/Include/cmsis_gcc.h **** __attribute__((always_inline)) __STATIC_INLINE uint32_t __REV(uint32_t value)
 451:Drivers/CMSIS/Include/cmsis_gcc.h **** {
 452:Drivers/CMSIS/Include/cmsis_gcc.h **** #if (__GNUC__ > 4) || (__GNUC__ == 4 && __GNUC_MINOR__ >= 5)
 453:Drivers/CMSIS/Include/cmsis_gcc.h ****   return __builtin_bswap32(value);
 454:Drivers/CMSIS/Include/cmsis_gcc.h **** #else
 455:Drivers/CMSIS/Include/cmsis_gcc.h ****   uint32_t result;
 456:Drivers/CMSIS/Include/cmsis_gcc.h **** 
 457:Drivers/CMSIS/Include/cmsis_gcc.h ****   __ASM volatile ("rev %0, %1" : __CMSIS_GCC_OUT_REG (result) : __CMSIS_GCC_USE_REG (value) );
 458:Drivers/CMSIS/Include/cmsis_gcc.h ****   return(result);
 459:Drivers/CMSIS/Include/cmsis_gcc.h **** #endif
 460:Drivers/CMSIS/Include/cmsis_gcc.h **** }
 461:Drivers/CMSIS/Include/cmsis_gcc.h **** 
 462:Drivers/CMSIS/Include/cmsis_gcc.h **** 
 463:Drivers/CMSIS/Include/cmsis_gcc.h **** /**
 464:Drivers/CMSIS/Include/cmsis_gcc.h ****   \brief   Reverse byte order (16 bit)
 465:Drivers/CMSIS/Include/cmsis_gcc.h ****   \details Reverses the byte order in two unsigned short values.
 466:Drivers/CMSIS/Include/cmsis_gcc.h ****   \param [in]    value  Value to reverse
 467:Drivers/CMSIS/Include/cmsis_gcc.h ****   \return               Reversed value
 468:Drivers/CMSIS/Include/cmsis_gcc.h ****  */
 469:Drivers/CMSIS/Include/cmsis_gcc.h **** __attribute__((always_inline)) __STATIC_INLINE uint32_t __REV16(uint32_t value)
 470:Drivers/CMSIS/Include/cmsis_gcc.h **** {
 471:Drivers/CMSIS/Include/cmsis_gcc.h ****   uint32_t result;
 472:Drivers/CMSIS/Include/cmsis_gcc.h **** 
 473:Drivers/CMSIS/Include/cmsis_gcc.h ****   __ASM volatile ("rev16 %0, %1" : __CMSIS_GCC_OUT_REG (result) : __CMSIS_GCC_USE_REG (value) );
 474:Drivers/CMSIS/Include/cmsis_gcc.h ****   return(result);
 475:Drivers/CMSIS/Include/cmsis_gcc.h **** }
 476:Drivers/CMSIS/Include/cmsis_gcc.h **** 
 477:Drivers/CMSIS/Include/cmsis_gcc.h **** 
 478:Drivers/CMSIS/Include/cmsis_gcc.h **** /**
ARM GAS  /var/folders/8c/gyvcglfx7f97kbqb2h83mm_r0000gn/T//ccp8Q8gW.s 			page 19


 479:Drivers/CMSIS/Include/cmsis_gcc.h ****   \brief   Reverse byte order in signed short value
 480:Drivers/CMSIS/Include/cmsis_gcc.h ****   \details Reverses the byte order in a signed short value with sign extension to integer.
 481:Drivers/CMSIS/Include/cmsis_gcc.h ****   \param [in]    value  Value to reverse
 482:Drivers/CMSIS/Include/cmsis_gcc.h ****   \return               Reversed value
 483:Drivers/CMSIS/Include/cmsis_gcc.h ****  */
 484:Drivers/CMSIS/Include/cmsis_gcc.h **** __attribute__((always_inline)) __STATIC_INLINE int32_t __REVSH(int32_t value)
 485:Drivers/CMSIS/Include/cmsis_gcc.h **** {
 486:Drivers/CMSIS/Include/cmsis_gcc.h **** #if (__GNUC__ > 4) || (__GNUC__ == 4 && __GNUC_MINOR__ >= 8)
 487:Drivers/CMSIS/Include/cmsis_gcc.h ****   return (short)__builtin_bswap16(value);
 488:Drivers/CMSIS/Include/cmsis_gcc.h **** #else
 489:Drivers/CMSIS/Include/cmsis_gcc.h ****   int32_t result;
 490:Drivers/CMSIS/Include/cmsis_gcc.h **** 
 491:Drivers/CMSIS/Include/cmsis_gcc.h ****   __ASM volatile ("revsh %0, %1" : __CMSIS_GCC_OUT_REG (result) : __CMSIS_GCC_USE_REG (value) );
 492:Drivers/CMSIS/Include/cmsis_gcc.h ****   return(result);
 493:Drivers/CMSIS/Include/cmsis_gcc.h **** #endif
 494:Drivers/CMSIS/Include/cmsis_gcc.h **** }
 495:Drivers/CMSIS/Include/cmsis_gcc.h **** 
 496:Drivers/CMSIS/Include/cmsis_gcc.h **** 
 497:Drivers/CMSIS/Include/cmsis_gcc.h **** /**
 498:Drivers/CMSIS/Include/cmsis_gcc.h ****   \brief   Rotate Right in unsigned value (32 bit)
 499:Drivers/CMSIS/Include/cmsis_gcc.h ****   \details Rotate Right (immediate) provides the value of the contents of a register rotated by a v
 500:Drivers/CMSIS/Include/cmsis_gcc.h ****   \param [in]    value  Value to rotate
 501:Drivers/CMSIS/Include/cmsis_gcc.h ****   \param [in]    value  Number of Bits to rotate
 502:Drivers/CMSIS/Include/cmsis_gcc.h ****   \return               Rotated value
 503:Drivers/CMSIS/Include/cmsis_gcc.h ****  */
 504:Drivers/CMSIS/Include/cmsis_gcc.h **** __attribute__((always_inline)) __STATIC_INLINE uint32_t __ROR(uint32_t op1, uint32_t op2)
 505:Drivers/CMSIS/Include/cmsis_gcc.h **** {
 506:Drivers/CMSIS/Include/cmsis_gcc.h ****   return (op1 >> op2) | (op1 << (32U - op2));
 507:Drivers/CMSIS/Include/cmsis_gcc.h **** }
 508:Drivers/CMSIS/Include/cmsis_gcc.h **** 
 509:Drivers/CMSIS/Include/cmsis_gcc.h **** 
 510:Drivers/CMSIS/Include/cmsis_gcc.h **** /**
 511:Drivers/CMSIS/Include/cmsis_gcc.h ****   \brief   Breakpoint
 512:Drivers/CMSIS/Include/cmsis_gcc.h ****   \details Causes the processor to enter Debug state.
 513:Drivers/CMSIS/Include/cmsis_gcc.h ****            Debug tools can use this to investigate system state when the instruction at a particula
 514:Drivers/CMSIS/Include/cmsis_gcc.h ****   \param [in]    value  is ignored by the processor.
 515:Drivers/CMSIS/Include/cmsis_gcc.h ****                  If required, a debugger can use it to store additional information about the break
 516:Drivers/CMSIS/Include/cmsis_gcc.h ****  */
 517:Drivers/CMSIS/Include/cmsis_gcc.h **** #define __BKPT(value)                       __ASM volatile ("bkpt "#value)
 518:Drivers/CMSIS/Include/cmsis_gcc.h **** 
 519:Drivers/CMSIS/Include/cmsis_gcc.h **** 
 520:Drivers/CMSIS/Include/cmsis_gcc.h **** /**
 521:Drivers/CMSIS/Include/cmsis_gcc.h ****   \brief   Reverse bit order of value
 522:Drivers/CMSIS/Include/cmsis_gcc.h ****   \details Reverses the bit order of the given value.
 523:Drivers/CMSIS/Include/cmsis_gcc.h ****   \param [in]    value  Value to reverse
 524:Drivers/CMSIS/Include/cmsis_gcc.h ****   \return               Reversed value
 525:Drivers/CMSIS/Include/cmsis_gcc.h ****  */
 526:Drivers/CMSIS/Include/cmsis_gcc.h **** __attribute__((always_inline)) __STATIC_INLINE uint32_t __RBIT(uint32_t value)
 196              		.loc 2 526 57 view .LVU52
 197              	.LBB169:
 527:Drivers/CMSIS/Include/cmsis_gcc.h **** {
 528:Drivers/CMSIS/Include/cmsis_gcc.h ****   uint32_t result;
 198              		.loc 2 528 3 view .LVU53
 529:Drivers/CMSIS/Include/cmsis_gcc.h **** 
 530:Drivers/CMSIS/Include/cmsis_gcc.h **** #if       (__CORTEX_M >= 0x03U) || (__CORTEX_SC >= 300U)
 531:Drivers/CMSIS/Include/cmsis_gcc.h ****    __ASM volatile ("rbit %0, %1" : "=r" (result) : "r" (value) );
 199              		.loc 2 531 4 view .LVU54
ARM GAS  /var/folders/8c/gyvcglfx7f97kbqb2h83mm_r0000gn/T//ccp8Q8gW.s 			page 20


 200 00c0 4FF08072 		mov	r2, #16777216
 201              		.syntax unified
 202              	@ 531 "Drivers/CMSIS/Include/cmsis_gcc.h" 1
 203 00c4 92FAA2F2 		rbit r2, r2
 204              	@ 0 "" 2
 205              	.LVL17:
 532:Drivers/CMSIS/Include/cmsis_gcc.h **** #else
 533:Drivers/CMSIS/Include/cmsis_gcc.h ****   int32_t s = 4 /*sizeof(v)*/ * 8 - 1; /* extra shift needed at end */
 534:Drivers/CMSIS/Include/cmsis_gcc.h **** 
 535:Drivers/CMSIS/Include/cmsis_gcc.h ****   result = value;                      /* r will be reversed bits of v; first get LSB of v */
 536:Drivers/CMSIS/Include/cmsis_gcc.h ****   for (value >>= 1U; value; value >>= 1U)
 537:Drivers/CMSIS/Include/cmsis_gcc.h ****   {
 538:Drivers/CMSIS/Include/cmsis_gcc.h ****     result <<= 1U;
 539:Drivers/CMSIS/Include/cmsis_gcc.h ****     result |= value & 1U;
 540:Drivers/CMSIS/Include/cmsis_gcc.h ****     s--;
 541:Drivers/CMSIS/Include/cmsis_gcc.h ****   }
 542:Drivers/CMSIS/Include/cmsis_gcc.h ****   result <<= s;                        /* shift when v's highest bits are zero */
 543:Drivers/CMSIS/Include/cmsis_gcc.h **** #endif
 544:Drivers/CMSIS/Include/cmsis_gcc.h ****   return(result);
 206              		.loc 2 544 3 view .LVU55
 207              		.loc 2 544 3 is_stmt 0 view .LVU56
 208              		.thumb
 209              		.syntax unified
 210              	.LBE169:
 211              	.LBE168:
 313:Drivers/STM32F3xx_HAL_Driver/Src/stm32f3xx_hal_rcc.c **** 
 212              		.loc 1 313 3 view .LVU57
 213 00c8 B2FA82F2 		clz	r2, r2
 214 00cc 064B     		ldr	r3, .L18+16
 215 00ce 1344     		add	r3, r3, r2
 216 00d0 9B00     		lsls	r3, r3, #2
 217 00d2 0122     		movs	r2, #1
 218 00d4 1A60     		str	r2, [r3]
 315:Drivers/STM32F3xx_HAL_Driver/Src/stm32f3xx_hal_rcc.c **** }
 219              		.loc 1 315 3 is_stmt 1 view .LVU58
 315:Drivers/STM32F3xx_HAL_Driver/Src/stm32f3xx_hal_rcc.c **** }
 220              		.loc 1 315 10 is_stmt 0 view .LVU59
 221 00d6 A7E7     		b	.L3
 222              	.L19:
 223              		.align	2
 224              	.L18:
 225 00d8 00100240 		.word	1073876992
 226 00dc 0CC0FFF8 		.word	-117456884
 227 00e0 00000000 		.word	SystemCoreClock
 228 00e4 00127A00 		.word	8000000
 229 00e8 20819010 		.word	277905696
 230              		.cfi_endproc
 231              	.LFE126:
 233              		.section	.text.HAL_RCC_OscConfig,"ax",%progbits
 234              		.align	1
 235              		.global	HAL_RCC_OscConfig
 236              		.syntax unified
 237              		.thumb
 238              		.thumb_func
 239              		.fpu fpv4-sp-d16
 241              	HAL_RCC_OscConfig:
 242              	.LVL18:
ARM GAS  /var/folders/8c/gyvcglfx7f97kbqb2h83mm_r0000gn/T//ccp8Q8gW.s 			page 21


 243              	.LFB127:
 317:Drivers/STM32F3xx_HAL_Driver/Src/stm32f3xx_hal_rcc.c **** 
 318:Drivers/STM32F3xx_HAL_Driver/Src/stm32f3xx_hal_rcc.c **** /**
 319:Drivers/STM32F3xx_HAL_Driver/Src/stm32f3xx_hal_rcc.c ****   * @brief  Initializes the RCC Oscillators according to the specified parameters in the
 320:Drivers/STM32F3xx_HAL_Driver/Src/stm32f3xx_hal_rcc.c ****   *         RCC_OscInitTypeDef.
 321:Drivers/STM32F3xx_HAL_Driver/Src/stm32f3xx_hal_rcc.c ****   * @param  RCC_OscInitStruct pointer to an RCC_OscInitTypeDef structure that
 322:Drivers/STM32F3xx_HAL_Driver/Src/stm32f3xx_hal_rcc.c ****   *         contains the configuration information for the RCC Oscillators.
 323:Drivers/STM32F3xx_HAL_Driver/Src/stm32f3xx_hal_rcc.c ****   * @note   The PLL is not disabled when used as system clock.
 324:Drivers/STM32F3xx_HAL_Driver/Src/stm32f3xx_hal_rcc.c ****   * @note   Transitions LSE Bypass to LSE On and LSE On to LSE Bypass are not
 325:Drivers/STM32F3xx_HAL_Driver/Src/stm32f3xx_hal_rcc.c ****   *         supported by this macro. User should request a transition to LSE Off
 326:Drivers/STM32F3xx_HAL_Driver/Src/stm32f3xx_hal_rcc.c ****   *         first and then LSE On or LSE Bypass.
 327:Drivers/STM32F3xx_HAL_Driver/Src/stm32f3xx_hal_rcc.c ****   * @note   Transition HSE Bypass to HSE On and HSE On to HSE Bypass are not
 328:Drivers/STM32F3xx_HAL_Driver/Src/stm32f3xx_hal_rcc.c ****   *         supported by this macro. User should request a transition to HSE Off
 329:Drivers/STM32F3xx_HAL_Driver/Src/stm32f3xx_hal_rcc.c ****   *         first and then HSE On or HSE Bypass.
 330:Drivers/STM32F3xx_HAL_Driver/Src/stm32f3xx_hal_rcc.c ****   * @retval HAL status
 331:Drivers/STM32F3xx_HAL_Driver/Src/stm32f3xx_hal_rcc.c ****   */
 332:Drivers/STM32F3xx_HAL_Driver/Src/stm32f3xx_hal_rcc.c **** HAL_StatusTypeDef HAL_RCC_OscConfig(RCC_OscInitTypeDef  *RCC_OscInitStruct)
 333:Drivers/STM32F3xx_HAL_Driver/Src/stm32f3xx_hal_rcc.c **** {
 244              		.loc 1 333 1 is_stmt 1 view -0
 245              		.cfi_startproc
 246              		@ args = 0, pretend = 0, frame = 8
 247              		@ frame_needed = 0, uses_anonymous_args = 0
 334:Drivers/STM32F3xx_HAL_Driver/Src/stm32f3xx_hal_rcc.c ****   uint32_t tickstart;
 248              		.loc 1 334 3 view .LVU61
 335:Drivers/STM32F3xx_HAL_Driver/Src/stm32f3xx_hal_rcc.c **** 
 336:Drivers/STM32F3xx_HAL_Driver/Src/stm32f3xx_hal_rcc.c ****   /* Check Null pointer */
 337:Drivers/STM32F3xx_HAL_Driver/Src/stm32f3xx_hal_rcc.c ****   if(RCC_OscInitStruct == NULL)
 249              		.loc 1 337 3 view .LVU62
 250              		.loc 1 337 5 is_stmt 0 view .LVU63
 251 0000 0028     		cmp	r0, #0
 252 0002 00F0EB82 		beq	.L93
 333:Drivers/STM32F3xx_HAL_Driver/Src/stm32f3xx_hal_rcc.c ****   uint32_t tickstart;
 253              		.loc 1 333 1 view .LVU64
 254 0006 70B5     		push	{r4, r5, r6, lr}
 255              	.LCFI1:
 256              		.cfi_def_cfa_offset 16
 257              		.cfi_offset 4, -16
 258              		.cfi_offset 5, -12
 259              		.cfi_offset 6, -8
 260              		.cfi_offset 14, -4
 261 0008 82B0     		sub	sp, sp, #8
 262              	.LCFI2:
 263              		.cfi_def_cfa_offset 24
 264 000a 0446     		mov	r4, r0
 338:Drivers/STM32F3xx_HAL_Driver/Src/stm32f3xx_hal_rcc.c ****   {
 339:Drivers/STM32F3xx_HAL_Driver/Src/stm32f3xx_hal_rcc.c ****     return HAL_ERROR;
 340:Drivers/STM32F3xx_HAL_Driver/Src/stm32f3xx_hal_rcc.c ****   }
 341:Drivers/STM32F3xx_HAL_Driver/Src/stm32f3xx_hal_rcc.c **** 
 342:Drivers/STM32F3xx_HAL_Driver/Src/stm32f3xx_hal_rcc.c ****   /* Check the parameters */
 343:Drivers/STM32F3xx_HAL_Driver/Src/stm32f3xx_hal_rcc.c ****   assert_param(IS_RCC_OSCILLATORTYPE(RCC_OscInitStruct->OscillatorType));
 265              		.loc 1 343 3 is_stmt 1 view .LVU65
 344:Drivers/STM32F3xx_HAL_Driver/Src/stm32f3xx_hal_rcc.c **** 
 345:Drivers/STM32F3xx_HAL_Driver/Src/stm32f3xx_hal_rcc.c ****   /*------------------------------- HSE Configuration ------------------------*/ 
 346:Drivers/STM32F3xx_HAL_Driver/Src/stm32f3xx_hal_rcc.c ****   if(((RCC_OscInitStruct->OscillatorType) & RCC_OSCILLATORTYPE_HSE) == RCC_OSCILLATORTYPE_HSE)
 266              		.loc 1 346 3 view .LVU66
 267              		.loc 1 346 25 is_stmt 0 view .LVU67
 268 000c 0368     		ldr	r3, [r0]
ARM GAS  /var/folders/8c/gyvcglfx7f97kbqb2h83mm_r0000gn/T//ccp8Q8gW.s 			page 22


 269              		.loc 1 346 5 view .LVU68
 270 000e 13F0010F 		tst	r3, #1
 271 0012 3BD0     		beq	.L22
 347:Drivers/STM32F3xx_HAL_Driver/Src/stm32f3xx_hal_rcc.c ****   {
 348:Drivers/STM32F3xx_HAL_Driver/Src/stm32f3xx_hal_rcc.c ****     /* Check the parameters */
 349:Drivers/STM32F3xx_HAL_Driver/Src/stm32f3xx_hal_rcc.c ****     assert_param(IS_RCC_HSE(RCC_OscInitStruct->HSEState));
 272              		.loc 1 349 5 is_stmt 1 view .LVU69
 350:Drivers/STM32F3xx_HAL_Driver/Src/stm32f3xx_hal_rcc.c **** 
 351:Drivers/STM32F3xx_HAL_Driver/Src/stm32f3xx_hal_rcc.c ****     /* When the HSE is used as system clock or clock source for PLL in these cases it is not allowe
 352:Drivers/STM32F3xx_HAL_Driver/Src/stm32f3xx_hal_rcc.c ****     if((__HAL_RCC_GET_SYSCLK_SOURCE() == RCC_SYSCLKSOURCE_STATUS_HSE) 
 273              		.loc 1 352 5 view .LVU70
 274              		.loc 1 352 9 is_stmt 0 view .LVU71
 275 0014 B54B     		ldr	r3, .L129
 276 0016 5B68     		ldr	r3, [r3, #4]
 277 0018 03F00C03 		and	r3, r3, #12
 278              		.loc 1 352 7 view .LVU72
 279 001c 042B     		cmp	r3, #4
 280 001e 1ED0     		beq	.L23
 353:Drivers/STM32F3xx_HAL_Driver/Src/stm32f3xx_hal_rcc.c ****        || ((__HAL_RCC_GET_SYSCLK_SOURCE() == RCC_SYSCLKSOURCE_STATUS_PLLCLK) && (__HAL_RCC_GET_PLL_
 281              		.loc 1 353 13 view .LVU73
 282 0020 B24B     		ldr	r3, .L129
 283 0022 5B68     		ldr	r3, [r3, #4]
 284 0024 03F00C03 		and	r3, r3, #12
 285              		.loc 1 353 8 view .LVU74
 286 0028 082B     		cmp	r3, #8
 287 002a 13D0     		beq	.L115
 288              	.L24:
 354:Drivers/STM32F3xx_HAL_Driver/Src/stm32f3xx_hal_rcc.c ****     {
 355:Drivers/STM32F3xx_HAL_Driver/Src/stm32f3xx_hal_rcc.c ****       if((__HAL_RCC_GET_FLAG(RCC_FLAG_HSERDY) != RESET) && (RCC_OscInitStruct->HSEState == RCC_HSE_
 356:Drivers/STM32F3xx_HAL_Driver/Src/stm32f3xx_hal_rcc.c ****       {
 357:Drivers/STM32F3xx_HAL_Driver/Src/stm32f3xx_hal_rcc.c ****         return HAL_ERROR;
 358:Drivers/STM32F3xx_HAL_Driver/Src/stm32f3xx_hal_rcc.c ****       }
 359:Drivers/STM32F3xx_HAL_Driver/Src/stm32f3xx_hal_rcc.c ****     }
 360:Drivers/STM32F3xx_HAL_Driver/Src/stm32f3xx_hal_rcc.c ****     else
 361:Drivers/STM32F3xx_HAL_Driver/Src/stm32f3xx_hal_rcc.c ****     {
 362:Drivers/STM32F3xx_HAL_Driver/Src/stm32f3xx_hal_rcc.c ****       /* Set the new HSE configuration ---------------------------------------*/
 363:Drivers/STM32F3xx_HAL_Driver/Src/stm32f3xx_hal_rcc.c ****       __HAL_RCC_HSE_CONFIG(RCC_OscInitStruct->HSEState);
 289              		.loc 1 363 7 is_stmt 1 view .LVU75
 290              		.loc 1 363 7 view .LVU76
 291 002c 6368     		ldr	r3, [r4, #4]
 292 002e B3F5803F 		cmp	r3, #65536
 293 0032 68D0     		beq	.L116
 294              		.loc 1 363 7 discriminator 2 view .LVU77
 295 0034 002B     		cmp	r3, #0
 296 0036 40F09280 		bne	.L29
 297              		.loc 1 363 7 discriminator 3 view .LVU78
 298 003a 03F18043 		add	r3, r3, #1073741824
 299 003e 03F50433 		add	r3, r3, #135168
 300 0042 1A68     		ldr	r2, [r3]
 301 0044 22F48032 		bic	r2, r2, #65536
 302 0048 1A60     		str	r2, [r3]
 303              		.loc 1 363 7 discriminator 3 view .LVU79
 304 004a 1A68     		ldr	r2, [r3]
 305 004c 22F48022 		bic	r2, r2, #262144
 306 0050 1A60     		str	r2, [r3]
 307 0052 5DE0     		b	.L28
 308              	.L115:
ARM GAS  /var/folders/8c/gyvcglfx7f97kbqb2h83mm_r0000gn/T//ccp8Q8gW.s 			page 23


 353:Drivers/STM32F3xx_HAL_Driver/Src/stm32f3xx_hal_rcc.c ****        || ((__HAL_RCC_GET_SYSCLK_SOURCE() == RCC_SYSCLKSOURCE_STATUS_PLLCLK) && (__HAL_RCC_GET_PLL_
 309              		.loc 1 353 82 is_stmt 0 discriminator 1 view .LVU80
 310 0054 A54B     		ldr	r3, .L129
 311 0056 5B68     		ldr	r3, [r3, #4]
 353:Drivers/STM32F3xx_HAL_Driver/Src/stm32f3xx_hal_rcc.c ****        || ((__HAL_RCC_GET_SYSCLK_SOURCE() == RCC_SYSCLKSOURCE_STATUS_PLLCLK) && (__HAL_RCC_GET_PLL_
 312              		.loc 1 353 78 discriminator 1 view .LVU81
 313 0058 13F4803F 		tst	r3, #65536
 314 005c E6D0     		beq	.L24
 315              	.L23:
 355:Drivers/STM32F3xx_HAL_Driver/Src/stm32f3xx_hal_rcc.c ****       {
 316              		.loc 1 355 7 is_stmt 1 view .LVU82
 317              	.LVL19:
 318              	.LBB170:
 319              	.LBI170:
 526:Drivers/CMSIS/Include/cmsis_gcc.h **** {
 320              		.loc 2 526 57 view .LVU83
 321              	.LBB171:
 528:Drivers/CMSIS/Include/cmsis_gcc.h **** 
 322              		.loc 2 528 3 view .LVU84
 531:Drivers/CMSIS/Include/cmsis_gcc.h **** #else
 323              		.loc 2 531 4 view .LVU85
 324 005e 4FF40033 		mov	r3, #131072
 325              		.syntax unified
 326              	@ 531 "Drivers/CMSIS/Include/cmsis_gcc.h" 1
 327 0062 93FAA3F3 		rbit r3, r3
 328              	@ 0 "" 2
 329              		.loc 2 544 3 view .LVU86
 330              	.LVL20:
 331              		.loc 2 544 3 is_stmt 0 view .LVU87
 332              		.thumb
 333              		.syntax unified
 334              	.LBE171:
 335              	.LBE170:
 355:Drivers/STM32F3xx_HAL_Driver/Src/stm32f3xx_hal_rcc.c ****       {
 336              		.loc 1 355 11 view .LVU88
 337 0066 A14B     		ldr	r3, .L129
 338 0068 1968     		ldr	r1, [r3]
 339              	.LVL21:
 340              	.LBB172:
 341              	.LBI172:
 526:Drivers/CMSIS/Include/cmsis_gcc.h **** {
 342              		.loc 2 526 57 is_stmt 1 view .LVU89
 343              	.LBB173:
 528:Drivers/CMSIS/Include/cmsis_gcc.h **** 
 344              		.loc 2 528 3 view .LVU90
 531:Drivers/CMSIS/Include/cmsis_gcc.h **** #else
 345              		.loc 2 531 4 view .LVU91
 346 006a 4FF40033 		mov	r3, #131072
 347              		.syntax unified
 348              	@ 531 "Drivers/CMSIS/Include/cmsis_gcc.h" 1
 349 006e 93FAA3F3 		rbit r3, r3
 350              	@ 0 "" 2
 351              	.LVL22:
 352              		.loc 2 544 3 view .LVU92
 353              		.loc 2 544 3 is_stmt 0 view .LVU93
 354              		.thumb
 355              		.syntax unified
ARM GAS  /var/folders/8c/gyvcglfx7f97kbqb2h83mm_r0000gn/T//ccp8Q8gW.s 			page 24


 356              	.LBE173:
 357              	.LBE172:
 355:Drivers/STM32F3xx_HAL_Driver/Src/stm32f3xx_hal_rcc.c ****       {
 358              		.loc 1 355 11 view .LVU94
 359 0072 B3FA83F3 		clz	r3, r3
 360 0076 03F01F03 		and	r3, r3, #31
 361 007a 0122     		movs	r2, #1
 362 007c 02FA03F3 		lsl	r3, r2, r3
 355:Drivers/STM32F3xx_HAL_Driver/Src/stm32f3xx_hal_rcc.c ****       {
 363              		.loc 1 355 9 view .LVU95
 364 0080 0B42     		tst	r3, r1
 365 0082 03D0     		beq	.L22
 355:Drivers/STM32F3xx_HAL_Driver/Src/stm32f3xx_hal_rcc.c ****       {
 366              		.loc 1 355 78 discriminator 13 view .LVU96
 367 0084 6368     		ldr	r3, [r4, #4]
 355:Drivers/STM32F3xx_HAL_Driver/Src/stm32f3xx_hal_rcc.c ****       {
 368              		.loc 1 355 57 discriminator 13 view .LVU97
 369 0086 002B     		cmp	r3, #0
 370 0088 00F0AA82 		beq	.L117
 371              	.LVL23:
 372              	.L22:
 364:Drivers/STM32F3xx_HAL_Driver/Src/stm32f3xx_hal_rcc.c ****       
 365:Drivers/STM32F3xx_HAL_Driver/Src/stm32f3xx_hal_rcc.c **** #if defined(RCC_CFGR_PLLSRC_HSI_DIV2)
 366:Drivers/STM32F3xx_HAL_Driver/Src/stm32f3xx_hal_rcc.c ****       /* Configure the HSE predivision factor --------------------------------*/
 367:Drivers/STM32F3xx_HAL_Driver/Src/stm32f3xx_hal_rcc.c ****       __HAL_RCC_HSE_PREDIV_CONFIG(RCC_OscInitStruct->HSEPredivValue);
 368:Drivers/STM32F3xx_HAL_Driver/Src/stm32f3xx_hal_rcc.c **** #endif /* RCC_CFGR_PLLSRC_HSI_DIV2 */
 369:Drivers/STM32F3xx_HAL_Driver/Src/stm32f3xx_hal_rcc.c **** 
 370:Drivers/STM32F3xx_HAL_Driver/Src/stm32f3xx_hal_rcc.c ****        /* Check the HSE State */
 371:Drivers/STM32F3xx_HAL_Driver/Src/stm32f3xx_hal_rcc.c ****       if(RCC_OscInitStruct->HSEState != RCC_HSE_OFF)
 372:Drivers/STM32F3xx_HAL_Driver/Src/stm32f3xx_hal_rcc.c ****       {
 373:Drivers/STM32F3xx_HAL_Driver/Src/stm32f3xx_hal_rcc.c ****         /* Get Start Tick */
 374:Drivers/STM32F3xx_HAL_Driver/Src/stm32f3xx_hal_rcc.c ****         tickstart = HAL_GetTick();
 375:Drivers/STM32F3xx_HAL_Driver/Src/stm32f3xx_hal_rcc.c ****         
 376:Drivers/STM32F3xx_HAL_Driver/Src/stm32f3xx_hal_rcc.c ****         /* Wait till HSE is ready */
 377:Drivers/STM32F3xx_HAL_Driver/Src/stm32f3xx_hal_rcc.c ****         while(__HAL_RCC_GET_FLAG(RCC_FLAG_HSERDY) == RESET)
 378:Drivers/STM32F3xx_HAL_Driver/Src/stm32f3xx_hal_rcc.c ****         {
 379:Drivers/STM32F3xx_HAL_Driver/Src/stm32f3xx_hal_rcc.c ****           if((HAL_GetTick() - tickstart ) > HSE_TIMEOUT_VALUE)
 380:Drivers/STM32F3xx_HAL_Driver/Src/stm32f3xx_hal_rcc.c ****           {
 381:Drivers/STM32F3xx_HAL_Driver/Src/stm32f3xx_hal_rcc.c ****             return HAL_TIMEOUT;
 382:Drivers/STM32F3xx_HAL_Driver/Src/stm32f3xx_hal_rcc.c ****           }
 383:Drivers/STM32F3xx_HAL_Driver/Src/stm32f3xx_hal_rcc.c ****         }
 384:Drivers/STM32F3xx_HAL_Driver/Src/stm32f3xx_hal_rcc.c ****       }
 385:Drivers/STM32F3xx_HAL_Driver/Src/stm32f3xx_hal_rcc.c ****       else
 386:Drivers/STM32F3xx_HAL_Driver/Src/stm32f3xx_hal_rcc.c ****       {
 387:Drivers/STM32F3xx_HAL_Driver/Src/stm32f3xx_hal_rcc.c ****         /* Get Start Tick */
 388:Drivers/STM32F3xx_HAL_Driver/Src/stm32f3xx_hal_rcc.c ****         tickstart = HAL_GetTick();
 389:Drivers/STM32F3xx_HAL_Driver/Src/stm32f3xx_hal_rcc.c ****         
 390:Drivers/STM32F3xx_HAL_Driver/Src/stm32f3xx_hal_rcc.c ****         /* Wait till HSE is disabled */
 391:Drivers/STM32F3xx_HAL_Driver/Src/stm32f3xx_hal_rcc.c ****         while(__HAL_RCC_GET_FLAG(RCC_FLAG_HSERDY) != RESET)
 392:Drivers/STM32F3xx_HAL_Driver/Src/stm32f3xx_hal_rcc.c ****         {
 393:Drivers/STM32F3xx_HAL_Driver/Src/stm32f3xx_hal_rcc.c ****            if((HAL_GetTick() - tickstart ) > HSE_TIMEOUT_VALUE)
 394:Drivers/STM32F3xx_HAL_Driver/Src/stm32f3xx_hal_rcc.c ****           {
 395:Drivers/STM32F3xx_HAL_Driver/Src/stm32f3xx_hal_rcc.c ****             return HAL_TIMEOUT;
 396:Drivers/STM32F3xx_HAL_Driver/Src/stm32f3xx_hal_rcc.c ****           }
 397:Drivers/STM32F3xx_HAL_Driver/Src/stm32f3xx_hal_rcc.c ****         }
 398:Drivers/STM32F3xx_HAL_Driver/Src/stm32f3xx_hal_rcc.c ****       }
 399:Drivers/STM32F3xx_HAL_Driver/Src/stm32f3xx_hal_rcc.c ****     }
ARM GAS  /var/folders/8c/gyvcglfx7f97kbqb2h83mm_r0000gn/T//ccp8Q8gW.s 			page 25


 400:Drivers/STM32F3xx_HAL_Driver/Src/stm32f3xx_hal_rcc.c ****   }
 401:Drivers/STM32F3xx_HAL_Driver/Src/stm32f3xx_hal_rcc.c ****   /*----------------------------- HSI Configuration --------------------------*/ 
 402:Drivers/STM32F3xx_HAL_Driver/Src/stm32f3xx_hal_rcc.c ****   if(((RCC_OscInitStruct->OscillatorType) & RCC_OSCILLATORTYPE_HSI) == RCC_OSCILLATORTYPE_HSI)
 373              		.loc 1 402 3 is_stmt 1 view .LVU98
 374              		.loc 1 402 25 is_stmt 0 view .LVU99
 375 008c 2368     		ldr	r3, [r4]
 376              		.loc 1 402 5 view .LVU100
 377 008e 13F0020F 		tst	r3, #2
 378 0092 00F0C580 		beq	.L40
 403:Drivers/STM32F3xx_HAL_Driver/Src/stm32f3xx_hal_rcc.c ****   {
 404:Drivers/STM32F3xx_HAL_Driver/Src/stm32f3xx_hal_rcc.c ****     /* Check the parameters */
 405:Drivers/STM32F3xx_HAL_Driver/Src/stm32f3xx_hal_rcc.c ****     assert_param(IS_RCC_HSI(RCC_OscInitStruct->HSIState));
 379              		.loc 1 405 5 is_stmt 1 view .LVU101
 406:Drivers/STM32F3xx_HAL_Driver/Src/stm32f3xx_hal_rcc.c ****     assert_param(IS_RCC_CALIBRATION_VALUE(RCC_OscInitStruct->HSICalibrationValue));
 380              		.loc 1 406 5 view .LVU102
 407:Drivers/STM32F3xx_HAL_Driver/Src/stm32f3xx_hal_rcc.c ****     
 408:Drivers/STM32F3xx_HAL_Driver/Src/stm32f3xx_hal_rcc.c ****     /* Check if HSI is used as system clock or as PLL source when PLL is selected as system clock *
 409:Drivers/STM32F3xx_HAL_Driver/Src/stm32f3xx_hal_rcc.c ****     if((__HAL_RCC_GET_SYSCLK_SOURCE() == RCC_SYSCLKSOURCE_STATUS_HSI) 
 381              		.loc 1 409 5 view .LVU103
 382              		.loc 1 409 9 is_stmt 0 view .LVU104
 383 0096 954B     		ldr	r3, .L129
 384 0098 5B68     		ldr	r3, [r3, #4]
 385              		.loc 1 409 7 view .LVU105
 386 009a 13F00C0F 		tst	r3, #12
 387 009e 00F09C80 		beq	.L41
 410:Drivers/STM32F3xx_HAL_Driver/Src/stm32f3xx_hal_rcc.c ****        || ((__HAL_RCC_GET_SYSCLK_SOURCE() == RCC_SYSCLKSOURCE_STATUS_PLLCLK) && (__HAL_RCC_GET_PLL_
 388              		.loc 1 410 13 view .LVU106
 389 00a2 924B     		ldr	r3, .L129
 390 00a4 5B68     		ldr	r3, [r3, #4]
 391 00a6 03F00C03 		and	r3, r3, #12
 392              		.loc 1 410 8 view .LVU107
 393 00aa 082B     		cmp	r3, #8
 394 00ac 00F08F80 		beq	.L118
 395              	.L42:
 411:Drivers/STM32F3xx_HAL_Driver/Src/stm32f3xx_hal_rcc.c ****     {
 412:Drivers/STM32F3xx_HAL_Driver/Src/stm32f3xx_hal_rcc.c ****       /* When HSI is used as system clock it will not disabled */
 413:Drivers/STM32F3xx_HAL_Driver/Src/stm32f3xx_hal_rcc.c ****       if((__HAL_RCC_GET_FLAG(RCC_FLAG_HSIRDY) != RESET) && (RCC_OscInitStruct->HSIState != RCC_HSI_
 414:Drivers/STM32F3xx_HAL_Driver/Src/stm32f3xx_hal_rcc.c ****       {
 415:Drivers/STM32F3xx_HAL_Driver/Src/stm32f3xx_hal_rcc.c ****         return HAL_ERROR;
 416:Drivers/STM32F3xx_HAL_Driver/Src/stm32f3xx_hal_rcc.c ****       }
 417:Drivers/STM32F3xx_HAL_Driver/Src/stm32f3xx_hal_rcc.c ****       /* Otherwise, just the calibration is allowed */
 418:Drivers/STM32F3xx_HAL_Driver/Src/stm32f3xx_hal_rcc.c ****       else
 419:Drivers/STM32F3xx_HAL_Driver/Src/stm32f3xx_hal_rcc.c ****       {
 420:Drivers/STM32F3xx_HAL_Driver/Src/stm32f3xx_hal_rcc.c ****         /* Adjusts the Internal High Speed oscillator (HSI) calibration value.*/
 421:Drivers/STM32F3xx_HAL_Driver/Src/stm32f3xx_hal_rcc.c ****         __HAL_RCC_HSI_CALIBRATIONVALUE_ADJUST(RCC_OscInitStruct->HSICalibrationValue);
 422:Drivers/STM32F3xx_HAL_Driver/Src/stm32f3xx_hal_rcc.c ****       }
 423:Drivers/STM32F3xx_HAL_Driver/Src/stm32f3xx_hal_rcc.c ****     }
 424:Drivers/STM32F3xx_HAL_Driver/Src/stm32f3xx_hal_rcc.c ****     else
 425:Drivers/STM32F3xx_HAL_Driver/Src/stm32f3xx_hal_rcc.c ****     {
 426:Drivers/STM32F3xx_HAL_Driver/Src/stm32f3xx_hal_rcc.c ****       /* Check the HSI State */
 427:Drivers/STM32F3xx_HAL_Driver/Src/stm32f3xx_hal_rcc.c ****       if(RCC_OscInitStruct->HSIState != RCC_HSI_OFF)
 396              		.loc 1 427 7 is_stmt 1 view .LVU108
 397              		.loc 1 427 27 is_stmt 0 view .LVU109
 398 00b0 2369     		ldr	r3, [r4, #16]
 399              		.loc 1 427 9 view .LVU110
 400 00b2 002B     		cmp	r3, #0
 401 00b4 00F0F280 		beq	.L46
ARM GAS  /var/folders/8c/gyvcglfx7f97kbqb2h83mm_r0000gn/T//ccp8Q8gW.s 			page 26


 428:Drivers/STM32F3xx_HAL_Driver/Src/stm32f3xx_hal_rcc.c ****       {
 429:Drivers/STM32F3xx_HAL_Driver/Src/stm32f3xx_hal_rcc.c ****        /* Enable the Internal High Speed oscillator (HSI). */
 430:Drivers/STM32F3xx_HAL_Driver/Src/stm32f3xx_hal_rcc.c ****         __HAL_RCC_HSI_ENABLE();
 402              		.loc 1 430 9 is_stmt 1 view .LVU111
 403              	.LVL24:
 404              	.LBB174:
 405              	.LBI174:
 526:Drivers/CMSIS/Include/cmsis_gcc.h **** {
 406              		.loc 2 526 57 view .LVU112
 407              	.LBB175:
 528:Drivers/CMSIS/Include/cmsis_gcc.h **** 
 408              		.loc 2 528 3 view .LVU113
 531:Drivers/CMSIS/Include/cmsis_gcc.h **** #else
 409              		.loc 2 531 4 view .LVU114
 410 00b8 0122     		movs	r2, #1
 411              		.syntax unified
 412              	@ 531 "Drivers/CMSIS/Include/cmsis_gcc.h" 1
 413 00ba 92FAA2F3 		rbit r3, r2
 414              	@ 0 "" 2
 415              	.LVL25:
 416              		.loc 2 544 3 view .LVU115
 417              		.loc 2 544 3 is_stmt 0 view .LVU116
 418              		.thumb
 419              		.syntax unified
 420              	.LBE175:
 421              	.LBE174:
 422              		.loc 1 430 9 view .LVU117
 423 00be B3FA83F3 		clz	r3, r3
 424 00c2 03F18453 		add	r3, r3, #276824064
 425 00c6 03F58413 		add	r3, r3, #1081344
 426 00ca 9B00     		lsls	r3, r3, #2
 427 00cc 1A60     		str	r2, [r3]
 431:Drivers/STM32F3xx_HAL_Driver/Src/stm32f3xx_hal_rcc.c ****         
 432:Drivers/STM32F3xx_HAL_Driver/Src/stm32f3xx_hal_rcc.c ****         /* Get Start Tick */
 433:Drivers/STM32F3xx_HAL_Driver/Src/stm32f3xx_hal_rcc.c ****         tickstart = HAL_GetTick();
 428              		.loc 1 433 9 is_stmt 1 view .LVU118
 429              		.loc 1 433 21 is_stmt 0 view .LVU119
 430 00ce FFF7FEFF 		bl	HAL_GetTick
 431              	.LVL26:
 432 00d2 0546     		mov	r5, r0
 433              	.LVL27:
 434:Drivers/STM32F3xx_HAL_Driver/Src/stm32f3xx_hal_rcc.c ****         
 435:Drivers/STM32F3xx_HAL_Driver/Src/stm32f3xx_hal_rcc.c ****         /* Wait till HSI is ready */
 436:Drivers/STM32F3xx_HAL_Driver/Src/stm32f3xx_hal_rcc.c ****         while(__HAL_RCC_GET_FLAG(RCC_FLAG_HSIRDY) == RESET)
 434              		.loc 1 436 9 is_stmt 1 view .LVU120
 435              	.L47:
 436              	.LBB176:
 437              	.LBI176:
 526:Drivers/CMSIS/Include/cmsis_gcc.h **** {
 438              		.loc 2 526 57 view .LVU121
 439              	.LBB177:
 528:Drivers/CMSIS/Include/cmsis_gcc.h **** 
 440              		.loc 2 528 3 view .LVU122
 531:Drivers/CMSIS/Include/cmsis_gcc.h **** #else
 441              		.loc 2 531 4 view .LVU123
 442 00d4 0223     		movs	r3, #2
 443              		.syntax unified
ARM GAS  /var/folders/8c/gyvcglfx7f97kbqb2h83mm_r0000gn/T//ccp8Q8gW.s 			page 27


 444              	@ 531 "Drivers/CMSIS/Include/cmsis_gcc.h" 1
 445 00d6 93FAA3F3 		rbit r3, r3
 446              	@ 0 "" 2
 447              		.loc 2 544 3 view .LVU124
 448              	.LVL28:
 449              		.loc 2 544 3 is_stmt 0 view .LVU125
 450              		.thumb
 451              		.syntax unified
 452              	.LBE177:
 453              	.LBE176:
 454              		.loc 1 436 15 view .LVU126
 455 00da 844B     		ldr	r3, .L129
 456 00dc 1968     		ldr	r1, [r3]
 457              	.LVL29:
 458              	.LBB178:
 459              	.LBI178:
 526:Drivers/CMSIS/Include/cmsis_gcc.h **** {
 460              		.loc 2 526 57 is_stmt 1 view .LVU127
 461              	.LBB179:
 528:Drivers/CMSIS/Include/cmsis_gcc.h **** 
 462              		.loc 2 528 3 view .LVU128
 531:Drivers/CMSIS/Include/cmsis_gcc.h **** #else
 463              		.loc 2 531 4 view .LVU129
 464 00de 0223     		movs	r3, #2
 465              		.syntax unified
 466              	@ 531 "Drivers/CMSIS/Include/cmsis_gcc.h" 1
 467 00e0 93FAA3F3 		rbit r3, r3
 468              	@ 0 "" 2
 469              	.LVL30:
 470              		.loc 2 544 3 view .LVU130
 471              		.loc 2 544 3 is_stmt 0 view .LVU131
 472              		.thumb
 473              		.syntax unified
 474              	.LBE179:
 475              	.LBE178:
 476              		.loc 1 436 15 view .LVU132
 477 00e4 B3FA83F3 		clz	r3, r3
 478 00e8 03F01F03 		and	r3, r3, #31
 479 00ec 0122     		movs	r2, #1
 480 00ee 02FA03F3 		lsl	r3, r2, r3
 481              		.loc 1 436 14 view .LVU133
 482 00f2 0B42     		tst	r3, r1
 483 00f4 40F0C380 		bne	.L119
 437:Drivers/STM32F3xx_HAL_Driver/Src/stm32f3xx_hal_rcc.c ****         {
 438:Drivers/STM32F3xx_HAL_Driver/Src/stm32f3xx_hal_rcc.c ****           if((HAL_GetTick() - tickstart ) > HSI_TIMEOUT_VALUE)
 484              		.loc 1 438 11 is_stmt 1 view .LVU134
 485              		.loc 1 438 15 is_stmt 0 view .LVU135
 486 00f8 FFF7FEFF 		bl	HAL_GetTick
 487              	.LVL31:
 488              		.loc 1 438 29 view .LVU136
 489 00fc 401B     		subs	r0, r0, r5
 490              		.loc 1 438 13 view .LVU137
 491 00fe 0228     		cmp	r0, #2
 492 0100 E8D9     		bls	.L47
 439:Drivers/STM32F3xx_HAL_Driver/Src/stm32f3xx_hal_rcc.c ****           {
 440:Drivers/STM32F3xx_HAL_Driver/Src/stm32f3xx_hal_rcc.c ****             return HAL_TIMEOUT;
 493              		.loc 1 440 20 view .LVU138
ARM GAS  /var/folders/8c/gyvcglfx7f97kbqb2h83mm_r0000gn/T//ccp8Q8gW.s 			page 28


 494 0102 0320     		movs	r0, #3
 495 0104 75E2     		b	.L21
 496              	.LVL32:
 497              	.L116:
 363:Drivers/STM32F3xx_HAL_Driver/Src/stm32f3xx_hal_rcc.c ****       
 498              		.loc 1 363 7 is_stmt 1 discriminator 1 view .LVU139
 499 0106 794A     		ldr	r2, .L129
 500 0108 1368     		ldr	r3, [r2]
 501 010a 43F48033 		orr	r3, r3, #65536
 502 010e 1360     		str	r3, [r2]
 503              	.L28:
 367:Drivers/STM32F3xx_HAL_Driver/Src/stm32f3xx_hal_rcc.c **** #endif /* RCC_CFGR_PLLSRC_HSI_DIV2 */
 504              		.loc 1 367 7 view .LVU140
 505 0110 764A     		ldr	r2, .L129
 506 0112 D36A     		ldr	r3, [r2, #44]
 507 0114 23F00F03 		bic	r3, r3, #15
 508 0118 A168     		ldr	r1, [r4, #8]
 509 011a 0B43     		orrs	r3, r3, r1
 510 011c D362     		str	r3, [r2, #44]
 371:Drivers/STM32F3xx_HAL_Driver/Src/stm32f3xx_hal_rcc.c ****       {
 511              		.loc 1 371 7 view .LVU141
 371:Drivers/STM32F3xx_HAL_Driver/Src/stm32f3xx_hal_rcc.c ****       {
 512              		.loc 1 371 27 is_stmt 0 view .LVU142
 513 011e 6368     		ldr	r3, [r4, #4]
 371:Drivers/STM32F3xx_HAL_Driver/Src/stm32f3xx_hal_rcc.c ****       {
 514              		.loc 1 371 9 view .LVU143
 515 0120 002B     		cmp	r3, #0
 516 0122 36D0     		beq	.L31
 374:Drivers/STM32F3xx_HAL_Driver/Src/stm32f3xx_hal_rcc.c ****         
 517              		.loc 1 374 9 is_stmt 1 view .LVU144
 374:Drivers/STM32F3xx_HAL_Driver/Src/stm32f3xx_hal_rcc.c ****         
 518              		.loc 1 374 21 is_stmt 0 view .LVU145
 519 0124 FFF7FEFF 		bl	HAL_GetTick
 520              	.LVL33:
 374:Drivers/STM32F3xx_HAL_Driver/Src/stm32f3xx_hal_rcc.c ****         
 521              		.loc 1 374 21 view .LVU146
 522 0128 0546     		mov	r5, r0
 523              	.LVL34:
 377:Drivers/STM32F3xx_HAL_Driver/Src/stm32f3xx_hal_rcc.c ****         {
 524              		.loc 1 377 9 is_stmt 1 view .LVU147
 525              	.L32:
 526              	.LBB180:
 527              	.LBI180:
 526:Drivers/CMSIS/Include/cmsis_gcc.h **** {
 528              		.loc 2 526 57 view .LVU148
 529              	.LBB181:
 528:Drivers/CMSIS/Include/cmsis_gcc.h **** 
 530              		.loc 2 528 3 view .LVU149
 531:Drivers/CMSIS/Include/cmsis_gcc.h **** #else
 531              		.loc 2 531 4 view .LVU150
 532 012a 4FF40033 		mov	r3, #131072
 533              		.syntax unified
 534              	@ 531 "Drivers/CMSIS/Include/cmsis_gcc.h" 1
 535 012e 93FAA3F3 		rbit r3, r3
 536              	@ 0 "" 2
 537              		.loc 2 544 3 view .LVU151
 538              	.LVL35:
ARM GAS  /var/folders/8c/gyvcglfx7f97kbqb2h83mm_r0000gn/T//ccp8Q8gW.s 			page 29


 539              		.loc 2 544 3 is_stmt 0 view .LVU152
 540              		.thumb
 541              		.syntax unified
 542              	.LBE181:
 543              	.LBE180:
 377:Drivers/STM32F3xx_HAL_Driver/Src/stm32f3xx_hal_rcc.c ****         {
 544              		.loc 1 377 15 view .LVU153
 545 0132 6E4B     		ldr	r3, .L129
 546 0134 1968     		ldr	r1, [r3]
 547              	.LVL36:
 548              	.LBB182:
 549              	.LBI182:
 526:Drivers/CMSIS/Include/cmsis_gcc.h **** {
 550              		.loc 2 526 57 is_stmt 1 view .LVU154
 551              	.LBB183:
 528:Drivers/CMSIS/Include/cmsis_gcc.h **** 
 552              		.loc 2 528 3 view .LVU155
 531:Drivers/CMSIS/Include/cmsis_gcc.h **** #else
 553              		.loc 2 531 4 view .LVU156
 554 0136 4FF40033 		mov	r3, #131072
 555              		.syntax unified
 556              	@ 531 "Drivers/CMSIS/Include/cmsis_gcc.h" 1
 557 013a 93FAA3F3 		rbit r3, r3
 558              	@ 0 "" 2
 559              	.LVL37:
 560              		.loc 2 544 3 view .LVU157
 561              		.loc 2 544 3 is_stmt 0 view .LVU158
 562              		.thumb
 563              		.syntax unified
 564              	.LBE183:
 565              	.LBE182:
 377:Drivers/STM32F3xx_HAL_Driver/Src/stm32f3xx_hal_rcc.c ****         {
 566              		.loc 1 377 15 view .LVU159
 567 013e B3FA83F3 		clz	r3, r3
 568 0142 03F01F03 		and	r3, r3, #31
 569 0146 0122     		movs	r2, #1
 570 0148 02FA03F3 		lsl	r3, r2, r3
 377:Drivers/STM32F3xx_HAL_Driver/Src/stm32f3xx_hal_rcc.c ****         {
 571              		.loc 1 377 14 view .LVU160
 572 014c 1942     		tst	r1, r3
 573 014e 9DD1     		bne	.L22
 379:Drivers/STM32F3xx_HAL_Driver/Src/stm32f3xx_hal_rcc.c ****           {
 574              		.loc 1 379 11 is_stmt 1 view .LVU161
 379:Drivers/STM32F3xx_HAL_Driver/Src/stm32f3xx_hal_rcc.c ****           {
 575              		.loc 1 379 15 is_stmt 0 view .LVU162
 576 0150 FFF7FEFF 		bl	HAL_GetTick
 577              	.LVL38:
 379:Drivers/STM32F3xx_HAL_Driver/Src/stm32f3xx_hal_rcc.c ****           {
 578              		.loc 1 379 29 view .LVU163
 579 0154 401B     		subs	r0, r0, r5
 379:Drivers/STM32F3xx_HAL_Driver/Src/stm32f3xx_hal_rcc.c ****           {
 580              		.loc 1 379 13 view .LVU164
 581 0156 6428     		cmp	r0, #100
 582 0158 E7D9     		bls	.L32
 381:Drivers/STM32F3xx_HAL_Driver/Src/stm32f3xx_hal_rcc.c ****           }
 583              		.loc 1 381 20 view .LVU165
 584 015a 0320     		movs	r0, #3
ARM GAS  /var/folders/8c/gyvcglfx7f97kbqb2h83mm_r0000gn/T//ccp8Q8gW.s 			page 30


 585 015c 49E2     		b	.L21
 586              	.LVL39:
 587              	.L29:
 363:Drivers/STM32F3xx_HAL_Driver/Src/stm32f3xx_hal_rcc.c ****       
 588              		.loc 1 363 7 is_stmt 1 discriminator 4 view .LVU166
 589 015e B3F5A02F 		cmp	r3, #327680
 590 0162 09D0     		beq	.L120
 363:Drivers/STM32F3xx_HAL_Driver/Src/stm32f3xx_hal_rcc.c ****       
 591              		.loc 1 363 7 discriminator 6 view .LVU167
 592 0164 614B     		ldr	r3, .L129
 593 0166 1A68     		ldr	r2, [r3]
 594 0168 22F48032 		bic	r2, r2, #65536
 595 016c 1A60     		str	r2, [r3]
 363:Drivers/STM32F3xx_HAL_Driver/Src/stm32f3xx_hal_rcc.c ****       
 596              		.loc 1 363 7 discriminator 6 view .LVU168
 597 016e 1A68     		ldr	r2, [r3]
 598 0170 22F48022 		bic	r2, r2, #262144
 599 0174 1A60     		str	r2, [r3]
 600 0176 CBE7     		b	.L28
 601              	.L120:
 363:Drivers/STM32F3xx_HAL_Driver/Src/stm32f3xx_hal_rcc.c ****       
 602              		.loc 1 363 7 discriminator 5 view .LVU169
 603 0178 03F18043 		add	r3, r3, #1073741824
 604 017c A3F53C33 		sub	r3, r3, #192512
 605 0180 1A68     		ldr	r2, [r3]
 606 0182 42F48022 		orr	r2, r2, #262144
 607 0186 1A60     		str	r2, [r3]
 363:Drivers/STM32F3xx_HAL_Driver/Src/stm32f3xx_hal_rcc.c ****       
 608              		.loc 1 363 7 discriminator 5 view .LVU170
 609 0188 1A68     		ldr	r2, [r3]
 610 018a 42F48032 		orr	r2, r2, #65536
 611 018e 1A60     		str	r2, [r3]
 612 0190 BEE7     		b	.L28
 613              	.L31:
 388:Drivers/STM32F3xx_HAL_Driver/Src/stm32f3xx_hal_rcc.c ****         
 614              		.loc 1 388 9 view .LVU171
 388:Drivers/STM32F3xx_HAL_Driver/Src/stm32f3xx_hal_rcc.c ****         
 615              		.loc 1 388 21 is_stmt 0 view .LVU172
 616 0192 FFF7FEFF 		bl	HAL_GetTick
 617              	.LVL40:
 388:Drivers/STM32F3xx_HAL_Driver/Src/stm32f3xx_hal_rcc.c ****         
 618              		.loc 1 388 21 view .LVU173
 619 0196 0546     		mov	r5, r0
 620              	.LVL41:
 391:Drivers/STM32F3xx_HAL_Driver/Src/stm32f3xx_hal_rcc.c ****         {
 621              		.loc 1 391 9 is_stmt 1 view .LVU174
 622              	.L36:
 623              	.LBB184:
 624              	.LBI184:
 526:Drivers/CMSIS/Include/cmsis_gcc.h **** {
 625              		.loc 2 526 57 view .LVU175
 626              	.LBB185:
 528:Drivers/CMSIS/Include/cmsis_gcc.h **** 
 627              		.loc 2 528 3 view .LVU176
 531:Drivers/CMSIS/Include/cmsis_gcc.h **** #else
 628              		.loc 2 531 4 view .LVU177
 629 0198 4FF40033 		mov	r3, #131072
ARM GAS  /var/folders/8c/gyvcglfx7f97kbqb2h83mm_r0000gn/T//ccp8Q8gW.s 			page 31


 630              		.syntax unified
 631              	@ 531 "Drivers/CMSIS/Include/cmsis_gcc.h" 1
 632 019c 93FAA3F3 		rbit r3, r3
 633              	@ 0 "" 2
 634              		.loc 2 544 3 view .LVU178
 635              	.LVL42:
 636              		.loc 2 544 3 is_stmt 0 view .LVU179
 637              		.thumb
 638              		.syntax unified
 639              	.LBE185:
 640              	.LBE184:
 391:Drivers/STM32F3xx_HAL_Driver/Src/stm32f3xx_hal_rcc.c ****         {
 641              		.loc 1 391 15 view .LVU180
 642 01a0 524B     		ldr	r3, .L129
 643 01a2 1968     		ldr	r1, [r3]
 644              	.LVL43:
 645              	.LBB186:
 646              	.LBI186:
 526:Drivers/CMSIS/Include/cmsis_gcc.h **** {
 647              		.loc 2 526 57 is_stmt 1 view .LVU181
 648              	.LBB187:
 528:Drivers/CMSIS/Include/cmsis_gcc.h **** 
 649              		.loc 2 528 3 view .LVU182
 531:Drivers/CMSIS/Include/cmsis_gcc.h **** #else
 650              		.loc 2 531 4 view .LVU183
 651 01a4 4FF40033 		mov	r3, #131072
 652              		.syntax unified
 653              	@ 531 "Drivers/CMSIS/Include/cmsis_gcc.h" 1
 654 01a8 93FAA3F3 		rbit r3, r3
 655              	@ 0 "" 2
 656              	.LVL44:
 657              		.loc 2 544 3 view .LVU184
 658              		.loc 2 544 3 is_stmt 0 view .LVU185
 659              		.thumb
 660              		.syntax unified
 661              	.LBE187:
 662              	.LBE186:
 391:Drivers/STM32F3xx_HAL_Driver/Src/stm32f3xx_hal_rcc.c ****         {
 663              		.loc 1 391 15 view .LVU186
 664 01ac B3FA83F3 		clz	r3, r3
 665 01b0 03F01F03 		and	r3, r3, #31
 666 01b4 0122     		movs	r2, #1
 667 01b6 02FA03F3 		lsl	r3, r2, r3
 391:Drivers/STM32F3xx_HAL_Driver/Src/stm32f3xx_hal_rcc.c ****         {
 668              		.loc 1 391 14 view .LVU187
 669 01ba 1942     		tst	r1, r3
 670 01bc 3FF466AF 		beq	.L22
 393:Drivers/STM32F3xx_HAL_Driver/Src/stm32f3xx_hal_rcc.c ****           {
 671              		.loc 1 393 12 is_stmt 1 view .LVU188
 393:Drivers/STM32F3xx_HAL_Driver/Src/stm32f3xx_hal_rcc.c ****           {
 672              		.loc 1 393 16 is_stmt 0 view .LVU189
 673 01c0 FFF7FEFF 		bl	HAL_GetTick
 674              	.LVL45:
 393:Drivers/STM32F3xx_HAL_Driver/Src/stm32f3xx_hal_rcc.c ****           {
 675              		.loc 1 393 30 view .LVU190
 676 01c4 401B     		subs	r0, r0, r5
 393:Drivers/STM32F3xx_HAL_Driver/Src/stm32f3xx_hal_rcc.c ****           {
ARM GAS  /var/folders/8c/gyvcglfx7f97kbqb2h83mm_r0000gn/T//ccp8Q8gW.s 			page 32


 677              		.loc 1 393 14 view .LVU191
 678 01c6 6428     		cmp	r0, #100
 679 01c8 E6D9     		bls	.L36
 395:Drivers/STM32F3xx_HAL_Driver/Src/stm32f3xx_hal_rcc.c ****           }
 680              		.loc 1 395 20 view .LVU192
 681 01ca 0320     		movs	r0, #3
 682 01cc 11E2     		b	.L21
 683              	.LVL46:
 684              	.L118:
 410:Drivers/STM32F3xx_HAL_Driver/Src/stm32f3xx_hal_rcc.c ****     {
 685              		.loc 1 410 82 discriminator 1 view .LVU193
 686 01ce 474B     		ldr	r3, .L129
 687 01d0 5B68     		ldr	r3, [r3, #4]
 410:Drivers/STM32F3xx_HAL_Driver/Src/stm32f3xx_hal_rcc.c ****     {
 688              		.loc 1 410 78 discriminator 1 view .LVU194
 689 01d2 13F4803F 		tst	r3, #65536
 690 01d6 7FF46BAF 		bne	.L42
 691              	.L41:
 413:Drivers/STM32F3xx_HAL_Driver/Src/stm32f3xx_hal_rcc.c ****       {
 692              		.loc 1 413 7 is_stmt 1 view .LVU195
 693              	.LVL47:
 694              	.LBB188:
 695              	.LBI188:
 526:Drivers/CMSIS/Include/cmsis_gcc.h **** {
 696              		.loc 2 526 57 view .LVU196
 697              	.LBB189:
 528:Drivers/CMSIS/Include/cmsis_gcc.h **** 
 698              		.loc 2 528 3 view .LVU197
 531:Drivers/CMSIS/Include/cmsis_gcc.h **** #else
 699              		.loc 2 531 4 view .LVU198
 700 01da 0223     		movs	r3, #2
 701              		.syntax unified
 702              	@ 531 "Drivers/CMSIS/Include/cmsis_gcc.h" 1
 703 01dc 93FAA3F3 		rbit r3, r3
 704              	@ 0 "" 2
 705              		.loc 2 544 3 view .LVU199
 706              	.LVL48:
 707              		.loc 2 544 3 is_stmt 0 view .LVU200
 708              		.thumb
 709              		.syntax unified
 710              	.LBE189:
 711              	.LBE188:
 413:Drivers/STM32F3xx_HAL_Driver/Src/stm32f3xx_hal_rcc.c ****       {
 712              		.loc 1 413 11 view .LVU201
 713 01e0 424B     		ldr	r3, .L129
 714 01e2 1968     		ldr	r1, [r3]
 715              	.LVL49:
 716              	.LBB190:
 717              	.LBI190:
 526:Drivers/CMSIS/Include/cmsis_gcc.h **** {
 718              		.loc 2 526 57 is_stmt 1 view .LVU202
 719              	.LBB191:
 528:Drivers/CMSIS/Include/cmsis_gcc.h **** 
 720              		.loc 2 528 3 view .LVU203
 531:Drivers/CMSIS/Include/cmsis_gcc.h **** #else
 721              		.loc 2 531 4 view .LVU204
 722 01e4 0223     		movs	r3, #2
ARM GAS  /var/folders/8c/gyvcglfx7f97kbqb2h83mm_r0000gn/T//ccp8Q8gW.s 			page 33


 723              		.syntax unified
 724              	@ 531 "Drivers/CMSIS/Include/cmsis_gcc.h" 1
 725 01e6 93FAA3F3 		rbit r3, r3
 726              	@ 0 "" 2
 727              	.LVL50:
 728              		.loc 2 544 3 view .LVU205
 729              		.loc 2 544 3 is_stmt 0 view .LVU206
 730              		.thumb
 731              		.syntax unified
 732              	.LBE191:
 733              	.LBE190:
 413:Drivers/STM32F3xx_HAL_Driver/Src/stm32f3xx_hal_rcc.c ****       {
 734              		.loc 1 413 11 view .LVU207
 735 01ea B3FA83F3 		clz	r3, r3
 736 01ee 03F01F03 		and	r3, r3, #31
 737 01f2 0122     		movs	r2, #1
 738 01f4 02FA03F3 		lsl	r3, r2, r3
 413:Drivers/STM32F3xx_HAL_Driver/Src/stm32f3xx_hal_rcc.c ****       {
 739              		.loc 1 413 9 view .LVU208
 740 01f8 1942     		tst	r1, r3
 741 01fa 03D0     		beq	.L45
 413:Drivers/STM32F3xx_HAL_Driver/Src/stm32f3xx_hal_rcc.c ****       {
 742              		.loc 1 413 78 discriminator 13 view .LVU209
 743 01fc 2369     		ldr	r3, [r4, #16]
 413:Drivers/STM32F3xx_HAL_Driver/Src/stm32f3xx_hal_rcc.c ****       {
 744              		.loc 1 413 57 discriminator 13 view .LVU210
 745 01fe 9342     		cmp	r3, r2
 746 0200 40F0F081 		bne	.L97
 747              	.L45:
 421:Drivers/STM32F3xx_HAL_Driver/Src/stm32f3xx_hal_rcc.c ****       }
 748              		.loc 1 421 9 is_stmt 1 view .LVU211
 749 0204 3948     		ldr	r0, .L129
 750 0206 0368     		ldr	r3, [r0]
 751 0208 23F0F803 		bic	r3, r3, #248
 752 020c 6169     		ldr	r1, [r4, #20]
 753              	.LVL51:
 754              	.LBB192:
 755              	.LBI192:
 526:Drivers/CMSIS/Include/cmsis_gcc.h **** {
 756              		.loc 2 526 57 view .LVU212
 757              	.LBB193:
 528:Drivers/CMSIS/Include/cmsis_gcc.h **** 
 758              		.loc 2 528 3 view .LVU213
 531:Drivers/CMSIS/Include/cmsis_gcc.h **** #else
 759              		.loc 2 531 4 view .LVU214
 760 020e F822     		movs	r2, #248
 761              		.syntax unified
 762              	@ 531 "Drivers/CMSIS/Include/cmsis_gcc.h" 1
 763 0210 92FAA2F2 		rbit r2, r2
 764              	@ 0 "" 2
 765              	.LVL52:
 766              		.loc 2 544 3 view .LVU215
 767              		.loc 2 544 3 is_stmt 0 view .LVU216
 768              		.thumb
 769              		.syntax unified
 770              	.LBE193:
 771              	.LBE192:
ARM GAS  /var/folders/8c/gyvcglfx7f97kbqb2h83mm_r0000gn/T//ccp8Q8gW.s 			page 34


 421:Drivers/STM32F3xx_HAL_Driver/Src/stm32f3xx_hal_rcc.c ****       }
 772              		.loc 1 421 9 view .LVU217
 773 0214 B2FA82F2 		clz	r2, r2
 774 0218 01FA02F2 		lsl	r2, r1, r2
 775 021c 1343     		orrs	r3, r3, r2
 776 021e 0360     		str	r3, [r0]
 777              	.L40:
 441:Drivers/STM32F3xx_HAL_Driver/Src/stm32f3xx_hal_rcc.c ****           }
 442:Drivers/STM32F3xx_HAL_Driver/Src/stm32f3xx_hal_rcc.c ****         }
 443:Drivers/STM32F3xx_HAL_Driver/Src/stm32f3xx_hal_rcc.c ****                 
 444:Drivers/STM32F3xx_HAL_Driver/Src/stm32f3xx_hal_rcc.c ****         /* Adjusts the Internal High Speed oscillator (HSI) calibration value.*/
 445:Drivers/STM32F3xx_HAL_Driver/Src/stm32f3xx_hal_rcc.c ****         __HAL_RCC_HSI_CALIBRATIONVALUE_ADJUST(RCC_OscInitStruct->HSICalibrationValue);
 446:Drivers/STM32F3xx_HAL_Driver/Src/stm32f3xx_hal_rcc.c ****       }
 447:Drivers/STM32F3xx_HAL_Driver/Src/stm32f3xx_hal_rcc.c ****       else
 448:Drivers/STM32F3xx_HAL_Driver/Src/stm32f3xx_hal_rcc.c ****       {
 449:Drivers/STM32F3xx_HAL_Driver/Src/stm32f3xx_hal_rcc.c ****         /* Disable the Internal High Speed oscillator (HSI). */
 450:Drivers/STM32F3xx_HAL_Driver/Src/stm32f3xx_hal_rcc.c ****         __HAL_RCC_HSI_DISABLE();
 451:Drivers/STM32F3xx_HAL_Driver/Src/stm32f3xx_hal_rcc.c ****         
 452:Drivers/STM32F3xx_HAL_Driver/Src/stm32f3xx_hal_rcc.c ****         /* Get Start Tick */
 453:Drivers/STM32F3xx_HAL_Driver/Src/stm32f3xx_hal_rcc.c ****         tickstart = HAL_GetTick();
 454:Drivers/STM32F3xx_HAL_Driver/Src/stm32f3xx_hal_rcc.c ****         
 455:Drivers/STM32F3xx_HAL_Driver/Src/stm32f3xx_hal_rcc.c ****         /* Wait till HSI is disabled */
 456:Drivers/STM32F3xx_HAL_Driver/Src/stm32f3xx_hal_rcc.c ****         while(__HAL_RCC_GET_FLAG(RCC_FLAG_HSIRDY) != RESET)
 457:Drivers/STM32F3xx_HAL_Driver/Src/stm32f3xx_hal_rcc.c ****         {
 458:Drivers/STM32F3xx_HAL_Driver/Src/stm32f3xx_hal_rcc.c ****           if((HAL_GetTick() - tickstart ) > HSI_TIMEOUT_VALUE)
 459:Drivers/STM32F3xx_HAL_Driver/Src/stm32f3xx_hal_rcc.c ****           {
 460:Drivers/STM32F3xx_HAL_Driver/Src/stm32f3xx_hal_rcc.c ****             return HAL_TIMEOUT;
 461:Drivers/STM32F3xx_HAL_Driver/Src/stm32f3xx_hal_rcc.c ****           }
 462:Drivers/STM32F3xx_HAL_Driver/Src/stm32f3xx_hal_rcc.c ****         }
 463:Drivers/STM32F3xx_HAL_Driver/Src/stm32f3xx_hal_rcc.c ****       }
 464:Drivers/STM32F3xx_HAL_Driver/Src/stm32f3xx_hal_rcc.c ****     }
 465:Drivers/STM32F3xx_HAL_Driver/Src/stm32f3xx_hal_rcc.c ****   }
 466:Drivers/STM32F3xx_HAL_Driver/Src/stm32f3xx_hal_rcc.c ****   /*------------------------------ LSI Configuration -------------------------*/ 
 467:Drivers/STM32F3xx_HAL_Driver/Src/stm32f3xx_hal_rcc.c ****   if(((RCC_OscInitStruct->OscillatorType) & RCC_OSCILLATORTYPE_LSI) == RCC_OSCILLATORTYPE_LSI)
 778              		.loc 1 467 3 is_stmt 1 view .LVU218
 779              		.loc 1 467 25 is_stmt 0 view .LVU219
 780 0220 2368     		ldr	r3, [r4]
 781              		.loc 1 467 5 view .LVU220
 782 0222 13F0080F 		tst	r3, #8
 783 0226 00F08D80 		beq	.L55
 468:Drivers/STM32F3xx_HAL_Driver/Src/stm32f3xx_hal_rcc.c ****   {
 469:Drivers/STM32F3xx_HAL_Driver/Src/stm32f3xx_hal_rcc.c ****     /* Check the parameters */
 470:Drivers/STM32F3xx_HAL_Driver/Src/stm32f3xx_hal_rcc.c ****     assert_param(IS_RCC_LSI(RCC_OscInitStruct->LSIState));
 784              		.loc 1 470 5 is_stmt 1 view .LVU221
 471:Drivers/STM32F3xx_HAL_Driver/Src/stm32f3xx_hal_rcc.c ****     
 472:Drivers/STM32F3xx_HAL_Driver/Src/stm32f3xx_hal_rcc.c ****     /* Check the LSI State */
 473:Drivers/STM32F3xx_HAL_Driver/Src/stm32f3xx_hal_rcc.c ****     if(RCC_OscInitStruct->LSIState != RCC_LSI_OFF)
 785              		.loc 1 473 5 view .LVU222
 786              		.loc 1 473 25 is_stmt 0 view .LVU223
 787 022a A369     		ldr	r3, [r4, #24]
 788              		.loc 1 473 7 view .LVU224
 789 022c 002B     		cmp	r3, #0
 790 022e 61D0     		beq	.L56
 474:Drivers/STM32F3xx_HAL_Driver/Src/stm32f3xx_hal_rcc.c ****     {
 475:Drivers/STM32F3xx_HAL_Driver/Src/stm32f3xx_hal_rcc.c ****       /* Enable the Internal Low Speed oscillator (LSI). */
 476:Drivers/STM32F3xx_HAL_Driver/Src/stm32f3xx_hal_rcc.c ****       __HAL_RCC_LSI_ENABLE();
 791              		.loc 1 476 7 is_stmt 1 view .LVU225
ARM GAS  /var/folders/8c/gyvcglfx7f97kbqb2h83mm_r0000gn/T//ccp8Q8gW.s 			page 35


 792              	.LVL53:
 793              	.LBB194:
 794              	.LBI194:
 526:Drivers/CMSIS/Include/cmsis_gcc.h **** {
 795              		.loc 2 526 57 view .LVU226
 796              	.LBB195:
 528:Drivers/CMSIS/Include/cmsis_gcc.h **** 
 797              		.loc 2 528 3 view .LVU227
 531:Drivers/CMSIS/Include/cmsis_gcc.h **** #else
 798              		.loc 2 531 4 view .LVU228
 799 0230 0121     		movs	r1, #1
 800              		.syntax unified
 801              	@ 531 "Drivers/CMSIS/Include/cmsis_gcc.h" 1
 802 0232 91FAA1F2 		rbit r2, r1
 803              	@ 0 "" 2
 804              	.LVL54:
 805              		.loc 2 544 3 view .LVU229
 806              		.loc 2 544 3 is_stmt 0 view .LVU230
 807              		.thumb
 808              		.syntax unified
 809              	.LBE195:
 810              	.LBE194:
 811              		.loc 1 476 7 view .LVU231
 812 0236 B2FA82F2 		clz	r2, r2
 813 023a 2D4B     		ldr	r3, .L129+4
 814 023c 1344     		add	r3, r3, r2
 815 023e 9B00     		lsls	r3, r3, #2
 816 0240 1960     		str	r1, [r3]
 477:Drivers/STM32F3xx_HAL_Driver/Src/stm32f3xx_hal_rcc.c ****       
 478:Drivers/STM32F3xx_HAL_Driver/Src/stm32f3xx_hal_rcc.c ****       /* Get Start Tick */
 479:Drivers/STM32F3xx_HAL_Driver/Src/stm32f3xx_hal_rcc.c ****       tickstart = HAL_GetTick();
 817              		.loc 1 479 7 is_stmt 1 view .LVU232
 818              		.loc 1 479 19 is_stmt 0 view .LVU233
 819 0242 FFF7FEFF 		bl	HAL_GetTick
 820              	.LVL55:
 821 0246 0546     		mov	r5, r0
 822              	.LVL56:
 480:Drivers/STM32F3xx_HAL_Driver/Src/stm32f3xx_hal_rcc.c ****       
 481:Drivers/STM32F3xx_HAL_Driver/Src/stm32f3xx_hal_rcc.c ****       /* Wait till LSI is ready */  
 482:Drivers/STM32F3xx_HAL_Driver/Src/stm32f3xx_hal_rcc.c ****       while(__HAL_RCC_GET_FLAG(RCC_FLAG_LSIRDY) == RESET)
 823              		.loc 1 482 7 is_stmt 1 view .LVU234
 824              	.L57:
 825              	.LBB196:
 826              	.LBI196:
 526:Drivers/CMSIS/Include/cmsis_gcc.h **** {
 827              		.loc 2 526 57 view .LVU235
 828              	.LBB197:
 528:Drivers/CMSIS/Include/cmsis_gcc.h **** 
 829              		.loc 2 528 3 view .LVU236
 531:Drivers/CMSIS/Include/cmsis_gcc.h **** #else
 830              		.loc 2 531 4 view .LVU237
 831 0248 0223     		movs	r3, #2
 832              		.syntax unified
 833              	@ 531 "Drivers/CMSIS/Include/cmsis_gcc.h" 1
 834 024a 93FAA3F2 		rbit r2, r3
 835              	@ 0 "" 2
 836              	.LVL57:
ARM GAS  /var/folders/8c/gyvcglfx7f97kbqb2h83mm_r0000gn/T//ccp8Q8gW.s 			page 36


 837              		.loc 2 544 3 view .LVU238
 838              		.loc 2 544 3 is_stmt 0 view .LVU239
 839              		.thumb
 840              		.syntax unified
 841              	.LBE197:
 842              	.LBE196:
 843              	.LBB198:
 844              	.LBI198:
 526:Drivers/CMSIS/Include/cmsis_gcc.h **** {
 845              		.loc 2 526 57 is_stmt 1 view .LVU240
 846              	.LBB199:
 528:Drivers/CMSIS/Include/cmsis_gcc.h **** 
 847              		.loc 2 528 3 view .LVU241
 531:Drivers/CMSIS/Include/cmsis_gcc.h **** #else
 848              		.loc 2 531 4 view .LVU242
 849              		.syntax unified
 850              	@ 531 "Drivers/CMSIS/Include/cmsis_gcc.h" 1
 851 024e 93FAA3F2 		rbit r2, r3
 852              	@ 0 "" 2
 853              	.LVL58:
 854              		.loc 2 544 3 view .LVU243
 855              		.loc 2 544 3 is_stmt 0 view .LVU244
 856              		.thumb
 857              		.syntax unified
 858              	.LBE199:
 859              	.LBE198:
 860              	.LBB200:
 861              	.LBI200:
 526:Drivers/CMSIS/Include/cmsis_gcc.h **** {
 862              		.loc 2 526 57 is_stmt 1 view .LVU245
 863              	.LBB201:
 528:Drivers/CMSIS/Include/cmsis_gcc.h **** 
 864              		.loc 2 528 3 view .LVU246
 531:Drivers/CMSIS/Include/cmsis_gcc.h **** #else
 865              		.loc 2 531 4 view .LVU247
 866              		.syntax unified
 867              	@ 531 "Drivers/CMSIS/Include/cmsis_gcc.h" 1
 868 0252 93FAA3F2 		rbit r2, r3
 869              	@ 0 "" 2
 870              	.LVL59:
 871              		.loc 2 544 3 view .LVU248
 872              		.loc 2 544 3 is_stmt 0 view .LVU249
 873              		.thumb
 874              		.syntax unified
 875              	.LBE201:
 876              	.LBE200:
 877              		.loc 1 482 13 view .LVU250
 878 0256 254A     		ldr	r2, .L129
 879 0258 516A     		ldr	r1, [r2, #36]
 880              	.LVL60:
 881              	.LBB202:
 882              	.LBI202:
 526:Drivers/CMSIS/Include/cmsis_gcc.h **** {
 883              		.loc 2 526 57 is_stmt 1 view .LVU251
 884              	.LBB203:
 528:Drivers/CMSIS/Include/cmsis_gcc.h **** 
 885              		.loc 2 528 3 view .LVU252
ARM GAS  /var/folders/8c/gyvcglfx7f97kbqb2h83mm_r0000gn/T//ccp8Q8gW.s 			page 37


 531:Drivers/CMSIS/Include/cmsis_gcc.h **** #else
 886              		.loc 2 531 4 view .LVU253
 887              		.syntax unified
 888              	@ 531 "Drivers/CMSIS/Include/cmsis_gcc.h" 1
 889 025a 93FAA3F3 		rbit r3, r3
 890              	@ 0 "" 2
 891              	.LVL61:
 892              		.loc 2 544 3 view .LVU254
 893              		.loc 2 544 3 is_stmt 0 view .LVU255
 894              		.thumb
 895              		.syntax unified
 896              	.LBE203:
 897              	.LBE202:
 898              		.loc 1 482 13 view .LVU256
 899 025e B3FA83F3 		clz	r3, r3
 900 0262 03F01F03 		and	r3, r3, #31
 901 0266 0122     		movs	r2, #1
 902 0268 02FA03F3 		lsl	r3, r2, r3
 903              		.loc 1 482 12 view .LVU257
 904 026c 0B42     		tst	r3, r1
 905 026e 69D1     		bne	.L55
 483:Drivers/STM32F3xx_HAL_Driver/Src/stm32f3xx_hal_rcc.c ****       {
 484:Drivers/STM32F3xx_HAL_Driver/Src/stm32f3xx_hal_rcc.c ****         if((HAL_GetTick() - tickstart ) > LSI_TIMEOUT_VALUE)
 906              		.loc 1 484 9 is_stmt 1 view .LVU258
 907              		.loc 1 484 13 is_stmt 0 view .LVU259
 908 0270 FFF7FEFF 		bl	HAL_GetTick
 909              	.LVL62:
 910              		.loc 1 484 27 view .LVU260
 911 0274 401B     		subs	r0, r0, r5
 912              		.loc 1 484 11 view .LVU261
 913 0276 0228     		cmp	r0, #2
 914 0278 E6D9     		bls	.L57
 485:Drivers/STM32F3xx_HAL_Driver/Src/stm32f3xx_hal_rcc.c ****         {
 486:Drivers/STM32F3xx_HAL_Driver/Src/stm32f3xx_hal_rcc.c ****           return HAL_TIMEOUT;
 915              		.loc 1 486 18 view .LVU262
 916 027a 0320     		movs	r0, #3
 917 027c B9E1     		b	.L21
 918              	.L119:
 445:Drivers/STM32F3xx_HAL_Driver/Src/stm32f3xx_hal_rcc.c ****       }
 919              		.loc 1 445 9 is_stmt 1 view .LVU263
 920 027e 1B48     		ldr	r0, .L129
 921 0280 0368     		ldr	r3, [r0]
 922 0282 23F0F803 		bic	r3, r3, #248
 923 0286 6169     		ldr	r1, [r4, #20]
 924              	.LVL63:
 925              	.LBB204:
 926              	.LBI204:
 526:Drivers/CMSIS/Include/cmsis_gcc.h **** {
 927              		.loc 2 526 57 view .LVU264
 928              	.LBB205:
 528:Drivers/CMSIS/Include/cmsis_gcc.h **** 
 929              		.loc 2 528 3 view .LVU265
 531:Drivers/CMSIS/Include/cmsis_gcc.h **** #else
 930              		.loc 2 531 4 view .LVU266
 931 0288 F822     		movs	r2, #248
 932              		.syntax unified
 933              	@ 531 "Drivers/CMSIS/Include/cmsis_gcc.h" 1
ARM GAS  /var/folders/8c/gyvcglfx7f97kbqb2h83mm_r0000gn/T//ccp8Q8gW.s 			page 38


 934 028a 92FAA2F2 		rbit r2, r2
 935              	@ 0 "" 2
 936              	.LVL64:
 937              		.loc 2 544 3 view .LVU267
 938              		.loc 2 544 3 is_stmt 0 view .LVU268
 939              		.thumb
 940              		.syntax unified
 941              	.LBE205:
 942              	.LBE204:
 445:Drivers/STM32F3xx_HAL_Driver/Src/stm32f3xx_hal_rcc.c ****       }
 943              		.loc 1 445 9 view .LVU269
 944 028e B2FA82F2 		clz	r2, r2
 945 0292 01FA02F2 		lsl	r2, r1, r2
 946 0296 1343     		orrs	r3, r3, r2
 947 0298 0360     		str	r3, [r0]
 948 029a C1E7     		b	.L40
 949              	.LVL65:
 950              	.L46:
 450:Drivers/STM32F3xx_HAL_Driver/Src/stm32f3xx_hal_rcc.c ****         
 951              		.loc 1 450 9 is_stmt 1 view .LVU270
 952              	.LBB206:
 953              	.LBI206:
 526:Drivers/CMSIS/Include/cmsis_gcc.h **** {
 954              		.loc 2 526 57 view .LVU271
 955              	.LBB207:
 528:Drivers/CMSIS/Include/cmsis_gcc.h **** 
 956              		.loc 2 528 3 view .LVU272
 531:Drivers/CMSIS/Include/cmsis_gcc.h **** #else
 957              		.loc 2 531 4 view .LVU273
 958 029c 0123     		movs	r3, #1
 959              		.syntax unified
 960              	@ 531 "Drivers/CMSIS/Include/cmsis_gcc.h" 1
 961 029e 93FAA3F3 		rbit r3, r3
 962              	@ 0 "" 2
 963              	.LVL66:
 964              		.loc 2 544 3 view .LVU274
 965              		.loc 2 544 3 is_stmt 0 view .LVU275
 966              		.thumb
 967              		.syntax unified
 968              	.LBE207:
 969              	.LBE206:
 450:Drivers/STM32F3xx_HAL_Driver/Src/stm32f3xx_hal_rcc.c ****         
 970              		.loc 1 450 9 view .LVU276
 971 02a2 B3FA83F3 		clz	r3, r3
 972 02a6 03F18453 		add	r3, r3, #276824064
 973 02aa 03F58413 		add	r3, r3, #1081344
 974 02ae 9B00     		lsls	r3, r3, #2
 975 02b0 0022     		movs	r2, #0
 976 02b2 1A60     		str	r2, [r3]
 453:Drivers/STM32F3xx_HAL_Driver/Src/stm32f3xx_hal_rcc.c ****         
 977              		.loc 1 453 9 is_stmt 1 view .LVU277
 453:Drivers/STM32F3xx_HAL_Driver/Src/stm32f3xx_hal_rcc.c ****         
 978              		.loc 1 453 21 is_stmt 0 view .LVU278
 979 02b4 FFF7FEFF 		bl	HAL_GetTick
 980              	.LVL67:
 981 02b8 0546     		mov	r5, r0
 982              	.LVL68:
ARM GAS  /var/folders/8c/gyvcglfx7f97kbqb2h83mm_r0000gn/T//ccp8Q8gW.s 			page 39


 456:Drivers/STM32F3xx_HAL_Driver/Src/stm32f3xx_hal_rcc.c ****         {
 983              		.loc 1 456 9 is_stmt 1 view .LVU279
 984              	.L51:
 985              	.LBB208:
 986              	.LBI208:
 526:Drivers/CMSIS/Include/cmsis_gcc.h **** {
 987              		.loc 2 526 57 view .LVU280
 988              	.LBB209:
 528:Drivers/CMSIS/Include/cmsis_gcc.h **** 
 989              		.loc 2 528 3 view .LVU281
 531:Drivers/CMSIS/Include/cmsis_gcc.h **** #else
 990              		.loc 2 531 4 view .LVU282
 991 02ba 0223     		movs	r3, #2
 992              		.syntax unified
 993              	@ 531 "Drivers/CMSIS/Include/cmsis_gcc.h" 1
 994 02bc 93FAA3F3 		rbit r3, r3
 995              	@ 0 "" 2
 996              		.loc 2 544 3 view .LVU283
 997              	.LVL69:
 998              		.loc 2 544 3 is_stmt 0 view .LVU284
 999              		.thumb
 1000              		.syntax unified
 1001              	.LBE209:
 1002              	.LBE208:
 456:Drivers/STM32F3xx_HAL_Driver/Src/stm32f3xx_hal_rcc.c ****         {
 1003              		.loc 1 456 15 view .LVU285
 1004 02c0 0A4B     		ldr	r3, .L129
 1005 02c2 1968     		ldr	r1, [r3]
 1006              	.LVL70:
 1007              	.LBB210:
 1008              	.LBI210:
 526:Drivers/CMSIS/Include/cmsis_gcc.h **** {
 1009              		.loc 2 526 57 is_stmt 1 view .LVU286
 1010              	.LBB211:
 528:Drivers/CMSIS/Include/cmsis_gcc.h **** 
 1011              		.loc 2 528 3 view .LVU287
 531:Drivers/CMSIS/Include/cmsis_gcc.h **** #else
 1012              		.loc 2 531 4 view .LVU288
 1013 02c4 0223     		movs	r3, #2
 1014              		.syntax unified
 1015              	@ 531 "Drivers/CMSIS/Include/cmsis_gcc.h" 1
 1016 02c6 93FAA3F3 		rbit r3, r3
 1017              	@ 0 "" 2
 1018              	.LVL71:
 1019              		.loc 2 544 3 view .LVU289
 1020              		.loc 2 544 3 is_stmt 0 view .LVU290
 1021              		.thumb
 1022              		.syntax unified
 1023              	.LBE211:
 1024              	.LBE210:
 456:Drivers/STM32F3xx_HAL_Driver/Src/stm32f3xx_hal_rcc.c ****         {
 1025              		.loc 1 456 15 view .LVU291
 1026 02ca B3FA83F3 		clz	r3, r3
 1027 02ce 03F01F03 		and	r3, r3, #31
 1028 02d2 0122     		movs	r2, #1
 1029 02d4 02FA03F3 		lsl	r3, r2, r3
 456:Drivers/STM32F3xx_HAL_Driver/Src/stm32f3xx_hal_rcc.c ****         {
ARM GAS  /var/folders/8c/gyvcglfx7f97kbqb2h83mm_r0000gn/T//ccp8Q8gW.s 			page 40


 1030              		.loc 1 456 14 view .LVU292
 1031 02d8 1942     		tst	r1, r3
 1032 02da A1D0     		beq	.L40
 458:Drivers/STM32F3xx_HAL_Driver/Src/stm32f3xx_hal_rcc.c ****           {
 1033              		.loc 1 458 11 is_stmt 1 view .LVU293
 458:Drivers/STM32F3xx_HAL_Driver/Src/stm32f3xx_hal_rcc.c ****           {
 1034              		.loc 1 458 15 is_stmt 0 view .LVU294
 1035 02dc FFF7FEFF 		bl	HAL_GetTick
 1036              	.LVL72:
 458:Drivers/STM32F3xx_HAL_Driver/Src/stm32f3xx_hal_rcc.c ****           {
 1037              		.loc 1 458 29 view .LVU295
 1038 02e0 401B     		subs	r0, r0, r5
 458:Drivers/STM32F3xx_HAL_Driver/Src/stm32f3xx_hal_rcc.c ****           {
 1039              		.loc 1 458 13 view .LVU296
 1040 02e2 0228     		cmp	r0, #2
 1041 02e4 E9D9     		bls	.L51
 460:Drivers/STM32F3xx_HAL_Driver/Src/stm32f3xx_hal_rcc.c ****           }
 1042              		.loc 1 460 20 view .LVU297
 1043 02e6 0320     		movs	r0, #3
 1044 02e8 83E1     		b	.L21
 1045              	.L130:
 1046 02ea 00BF     		.align	2
 1047              	.L129:
 1048 02ec 00100240 		.word	1073876992
 1049 02f0 20819010 		.word	277905696
 1050              	.LVL73:
 1051              	.L56:
 487:Drivers/STM32F3xx_HAL_Driver/Src/stm32f3xx_hal_rcc.c ****         }
 488:Drivers/STM32F3xx_HAL_Driver/Src/stm32f3xx_hal_rcc.c ****       }
 489:Drivers/STM32F3xx_HAL_Driver/Src/stm32f3xx_hal_rcc.c ****     }
 490:Drivers/STM32F3xx_HAL_Driver/Src/stm32f3xx_hal_rcc.c ****     else
 491:Drivers/STM32F3xx_HAL_Driver/Src/stm32f3xx_hal_rcc.c ****     {
 492:Drivers/STM32F3xx_HAL_Driver/Src/stm32f3xx_hal_rcc.c ****       /* Disable the Internal Low Speed oscillator (LSI). */
 493:Drivers/STM32F3xx_HAL_Driver/Src/stm32f3xx_hal_rcc.c ****       __HAL_RCC_LSI_DISABLE();
 1052              		.loc 1 493 7 is_stmt 1 view .LVU298
 1053              	.LBB212:
 1054              	.LBI212:
 526:Drivers/CMSIS/Include/cmsis_gcc.h **** {
 1055              		.loc 2 526 57 view .LVU299
 1056              	.LBB213:
 528:Drivers/CMSIS/Include/cmsis_gcc.h **** 
 1057              		.loc 2 528 3 view .LVU300
 531:Drivers/CMSIS/Include/cmsis_gcc.h **** #else
 1058              		.loc 2 531 4 view .LVU301
 1059 02f4 0122     		movs	r2, #1
 1060              		.syntax unified
 1061              	@ 531 "Drivers/CMSIS/Include/cmsis_gcc.h" 1
 1062 02f6 92FAA2F2 		rbit r2, r2
 1063              	@ 0 "" 2
 1064              	.LVL74:
 1065              		.loc 2 544 3 view .LVU302
 1066              		.loc 2 544 3 is_stmt 0 view .LVU303
 1067              		.thumb
 1068              		.syntax unified
 1069              	.LBE213:
 1070              	.LBE212:
 1071              		.loc 1 493 7 view .LVU304
ARM GAS  /var/folders/8c/gyvcglfx7f97kbqb2h83mm_r0000gn/T//ccp8Q8gW.s 			page 41


 1072 02fa B2FA82F2 		clz	r2, r2
 1073 02fe BF4B     		ldr	r3, .L131
 1074 0300 1344     		add	r3, r3, r2
 1075 0302 9B00     		lsls	r3, r3, #2
 1076 0304 0022     		movs	r2, #0
 1077 0306 1A60     		str	r2, [r3]
 494:Drivers/STM32F3xx_HAL_Driver/Src/stm32f3xx_hal_rcc.c ****       
 495:Drivers/STM32F3xx_HAL_Driver/Src/stm32f3xx_hal_rcc.c ****       /* Get Start Tick */
 496:Drivers/STM32F3xx_HAL_Driver/Src/stm32f3xx_hal_rcc.c ****       tickstart = HAL_GetTick();
 1078              		.loc 1 496 7 is_stmt 1 view .LVU305
 1079              		.loc 1 496 19 is_stmt 0 view .LVU306
 1080 0308 FFF7FEFF 		bl	HAL_GetTick
 1081              	.LVL75:
 1082 030c 0546     		mov	r5, r0
 1083              	.LVL76:
 497:Drivers/STM32F3xx_HAL_Driver/Src/stm32f3xx_hal_rcc.c ****       
 498:Drivers/STM32F3xx_HAL_Driver/Src/stm32f3xx_hal_rcc.c ****       /* Wait till LSI is disabled */  
 499:Drivers/STM32F3xx_HAL_Driver/Src/stm32f3xx_hal_rcc.c ****       while(__HAL_RCC_GET_FLAG(RCC_FLAG_LSIRDY) != RESET)
 1084              		.loc 1 499 7 is_stmt 1 view .LVU307
 1085              	.L59:
 1086              	.LBB214:
 1087              	.LBI214:
 526:Drivers/CMSIS/Include/cmsis_gcc.h **** {
 1088              		.loc 2 526 57 view .LVU308
 1089              	.LBB215:
 528:Drivers/CMSIS/Include/cmsis_gcc.h **** 
 1090              		.loc 2 528 3 view .LVU309
 531:Drivers/CMSIS/Include/cmsis_gcc.h **** #else
 1091              		.loc 2 531 4 view .LVU310
 1092 030e 0223     		movs	r3, #2
 1093              		.syntax unified
 1094              	@ 531 "Drivers/CMSIS/Include/cmsis_gcc.h" 1
 1095 0310 93FAA3F2 		rbit r2, r3
 1096              	@ 0 "" 2
 1097              	.LVL77:
 1098              		.loc 2 544 3 view .LVU311
 1099              		.loc 2 544 3 is_stmt 0 view .LVU312
 1100              		.thumb
 1101              		.syntax unified
 1102              	.LBE215:
 1103              	.LBE214:
 1104              	.LBB216:
 1105              	.LBI216:
 526:Drivers/CMSIS/Include/cmsis_gcc.h **** {
 1106              		.loc 2 526 57 is_stmt 1 view .LVU313
 1107              	.LBB217:
 528:Drivers/CMSIS/Include/cmsis_gcc.h **** 
 1108              		.loc 2 528 3 view .LVU314
 531:Drivers/CMSIS/Include/cmsis_gcc.h **** #else
 1109              		.loc 2 531 4 view .LVU315
 1110              		.syntax unified
 1111              	@ 531 "Drivers/CMSIS/Include/cmsis_gcc.h" 1
 1112 0314 93FAA3F2 		rbit r2, r3
 1113              	@ 0 "" 2
 1114              	.LVL78:
 1115              		.loc 2 544 3 view .LVU316
 1116              		.loc 2 544 3 is_stmt 0 view .LVU317
ARM GAS  /var/folders/8c/gyvcglfx7f97kbqb2h83mm_r0000gn/T//ccp8Q8gW.s 			page 42


 1117              		.thumb
 1118              		.syntax unified
 1119              	.LBE217:
 1120              	.LBE216:
 1121              	.LBB218:
 1122              	.LBI218:
 526:Drivers/CMSIS/Include/cmsis_gcc.h **** {
 1123              		.loc 2 526 57 is_stmt 1 view .LVU318
 1124              	.LBB219:
 528:Drivers/CMSIS/Include/cmsis_gcc.h **** 
 1125              		.loc 2 528 3 view .LVU319
 531:Drivers/CMSIS/Include/cmsis_gcc.h **** #else
 1126              		.loc 2 531 4 view .LVU320
 1127              		.syntax unified
 1128              	@ 531 "Drivers/CMSIS/Include/cmsis_gcc.h" 1
 1129 0318 93FAA3F2 		rbit r2, r3
 1130              	@ 0 "" 2
 1131              	.LVL79:
 1132              		.loc 2 544 3 view .LVU321
 1133              		.loc 2 544 3 is_stmt 0 view .LVU322
 1134              		.thumb
 1135              		.syntax unified
 1136              	.LBE219:
 1137              	.LBE218:
 1138              		.loc 1 499 13 view .LVU323
 1139 031c B84A     		ldr	r2, .L131+4
 1140 031e 516A     		ldr	r1, [r2, #36]
 1141              	.LVL80:
 1142              	.LBB220:
 1143              	.LBI220:
 526:Drivers/CMSIS/Include/cmsis_gcc.h **** {
 1144              		.loc 2 526 57 is_stmt 1 view .LVU324
 1145              	.LBB221:
 528:Drivers/CMSIS/Include/cmsis_gcc.h **** 
 1146              		.loc 2 528 3 view .LVU325
 531:Drivers/CMSIS/Include/cmsis_gcc.h **** #else
 1147              		.loc 2 531 4 view .LVU326
 1148              		.syntax unified
 1149              	@ 531 "Drivers/CMSIS/Include/cmsis_gcc.h" 1
 1150 0320 93FAA3F3 		rbit r3, r3
 1151              	@ 0 "" 2
 1152              	.LVL81:
 1153              		.loc 2 544 3 view .LVU327
 1154              		.loc 2 544 3 is_stmt 0 view .LVU328
 1155              		.thumb
 1156              		.syntax unified
 1157              	.LBE221:
 1158              	.LBE220:
 1159              		.loc 1 499 13 view .LVU329
 1160 0324 B3FA83F3 		clz	r3, r3
 1161 0328 03F01F03 		and	r3, r3, #31
 1162 032c 0122     		movs	r2, #1
 1163 032e 02FA03F3 		lsl	r3, r2, r3
 1164              		.loc 1 499 12 view .LVU330
 1165 0332 0B42     		tst	r3, r1
 1166 0334 06D0     		beq	.L55
 500:Drivers/STM32F3xx_HAL_Driver/Src/stm32f3xx_hal_rcc.c ****       {
ARM GAS  /var/folders/8c/gyvcglfx7f97kbqb2h83mm_r0000gn/T//ccp8Q8gW.s 			page 43


 501:Drivers/STM32F3xx_HAL_Driver/Src/stm32f3xx_hal_rcc.c ****         if((HAL_GetTick() - tickstart ) > LSI_TIMEOUT_VALUE)
 1167              		.loc 1 501 9 is_stmt 1 view .LVU331
 1168              		.loc 1 501 13 is_stmt 0 view .LVU332
 1169 0336 FFF7FEFF 		bl	HAL_GetTick
 1170              	.LVL82:
 1171              		.loc 1 501 27 view .LVU333
 1172 033a 401B     		subs	r0, r0, r5
 1173              		.loc 1 501 11 view .LVU334
 1174 033c 0228     		cmp	r0, #2
 1175 033e E6D9     		bls	.L59
 502:Drivers/STM32F3xx_HAL_Driver/Src/stm32f3xx_hal_rcc.c ****         {
 503:Drivers/STM32F3xx_HAL_Driver/Src/stm32f3xx_hal_rcc.c ****           return HAL_TIMEOUT;
 1176              		.loc 1 503 18 view .LVU335
 1177 0340 0320     		movs	r0, #3
 1178 0342 56E1     		b	.L21
 1179              	.LVL83:
 1180              	.L55:
 504:Drivers/STM32F3xx_HAL_Driver/Src/stm32f3xx_hal_rcc.c ****         }
 505:Drivers/STM32F3xx_HAL_Driver/Src/stm32f3xx_hal_rcc.c ****       }
 506:Drivers/STM32F3xx_HAL_Driver/Src/stm32f3xx_hal_rcc.c ****     }
 507:Drivers/STM32F3xx_HAL_Driver/Src/stm32f3xx_hal_rcc.c ****   }
 508:Drivers/STM32F3xx_HAL_Driver/Src/stm32f3xx_hal_rcc.c ****   /*------------------------------ LSE Configuration -------------------------*/ 
 509:Drivers/STM32F3xx_HAL_Driver/Src/stm32f3xx_hal_rcc.c ****   if(((RCC_OscInitStruct->OscillatorType) & RCC_OSCILLATORTYPE_LSE) == RCC_OSCILLATORTYPE_LSE)
 1181              		.loc 1 509 3 is_stmt 1 view .LVU336
 1182              		.loc 1 509 25 is_stmt 0 view .LVU337
 1183 0344 2368     		ldr	r3, [r4]
 1184              		.loc 1 509 5 view .LVU338
 1185 0346 13F0040F 		tst	r3, #4
 1186 034a 00F0A980 		beq	.L61
 1187              	.LBB222:
 510:Drivers/STM32F3xx_HAL_Driver/Src/stm32f3xx_hal_rcc.c ****   {
 511:Drivers/STM32F3xx_HAL_Driver/Src/stm32f3xx_hal_rcc.c ****     FlagStatus       pwrclkchanged = RESET;
 1188              		.loc 1 511 5 is_stmt 1 view .LVU339
 1189              	.LVL84:
 512:Drivers/STM32F3xx_HAL_Driver/Src/stm32f3xx_hal_rcc.c ****     
 513:Drivers/STM32F3xx_HAL_Driver/Src/stm32f3xx_hal_rcc.c ****     /* Check the parameters */
 514:Drivers/STM32F3xx_HAL_Driver/Src/stm32f3xx_hal_rcc.c ****     assert_param(IS_RCC_LSE(RCC_OscInitStruct->LSEState));
 1190              		.loc 1 514 5 view .LVU340
 515:Drivers/STM32F3xx_HAL_Driver/Src/stm32f3xx_hal_rcc.c **** 
 516:Drivers/STM32F3xx_HAL_Driver/Src/stm32f3xx_hal_rcc.c ****     /* Update LSE configuration in Backup Domain control register    */
 517:Drivers/STM32F3xx_HAL_Driver/Src/stm32f3xx_hal_rcc.c ****     /* Requires to enable write access to Backup Domain of necessary */
 518:Drivers/STM32F3xx_HAL_Driver/Src/stm32f3xx_hal_rcc.c ****     if(__HAL_RCC_PWR_IS_CLK_DISABLED())
 1191              		.loc 1 518 5 view .LVU341
 1192              		.loc 1 518 8 is_stmt 0 view .LVU342
 1193 034e AC4B     		ldr	r3, .L131+4
 1194 0350 DB69     		ldr	r3, [r3, #28]
 1195              		.loc 1 518 7 view .LVU343
 1196 0352 13F0805F 		tst	r3, #268435456
 1197 0356 20D1     		bne	.L102
 519:Drivers/STM32F3xx_HAL_Driver/Src/stm32f3xx_hal_rcc.c ****     {
 520:Drivers/STM32F3xx_HAL_Driver/Src/stm32f3xx_hal_rcc.c ****       __HAL_RCC_PWR_CLK_ENABLE();
 1198              		.loc 1 520 7 is_stmt 1 view .LVU344
 1199              	.LBB223:
 1200              		.loc 1 520 7 view .LVU345
 1201              		.loc 1 520 7 view .LVU346
 1202 0358 A94B     		ldr	r3, .L131+4
 1203 035a DA69     		ldr	r2, [r3, #28]
ARM GAS  /var/folders/8c/gyvcglfx7f97kbqb2h83mm_r0000gn/T//ccp8Q8gW.s 			page 44


 1204 035c 42F08052 		orr	r2, r2, #268435456
 1205 0360 DA61     		str	r2, [r3, #28]
 1206              		.loc 1 520 7 view .LVU347
 1207 0362 DB69     		ldr	r3, [r3, #28]
 1208 0364 03F08053 		and	r3, r3, #268435456
 1209 0368 0193     		str	r3, [sp, #4]
 1210              		.loc 1 520 7 view .LVU348
 1211 036a 019B     		ldr	r3, [sp, #4]
 1212              	.LBE223:
 521:Drivers/STM32F3xx_HAL_Driver/Src/stm32f3xx_hal_rcc.c ****       pwrclkchanged = SET;
 1213              		.loc 1 521 7 view .LVU349
 1214              	.LVL85:
 1215              		.loc 1 521 21 is_stmt 0 view .LVU350
 1216 036c 0125     		movs	r5, #1
 1217              	.LVL86:
 1218              	.L62:
 522:Drivers/STM32F3xx_HAL_Driver/Src/stm32f3xx_hal_rcc.c ****     }
 523:Drivers/STM32F3xx_HAL_Driver/Src/stm32f3xx_hal_rcc.c ****     
 524:Drivers/STM32F3xx_HAL_Driver/Src/stm32f3xx_hal_rcc.c ****     if(HAL_IS_BIT_CLR(PWR->CR, PWR_CR_DBP))
 1219              		.loc 1 524 5 is_stmt 1 view .LVU351
 1220              		.loc 1 524 8 is_stmt 0 view .LVU352
 1221 036e A54B     		ldr	r3, .L131+8
 1222 0370 1B68     		ldr	r3, [r3]
 1223              		.loc 1 524 7 view .LVU353
 1224 0372 13F4807F 		tst	r3, #256
 1225 0376 12D0     		beq	.L121
 1226              	.L63:
 525:Drivers/STM32F3xx_HAL_Driver/Src/stm32f3xx_hal_rcc.c ****     {
 526:Drivers/STM32F3xx_HAL_Driver/Src/stm32f3xx_hal_rcc.c ****       /* Enable write access to Backup domain */
 527:Drivers/STM32F3xx_HAL_Driver/Src/stm32f3xx_hal_rcc.c ****       SET_BIT(PWR->CR, PWR_CR_DBP);
 528:Drivers/STM32F3xx_HAL_Driver/Src/stm32f3xx_hal_rcc.c ****       
 529:Drivers/STM32F3xx_HAL_Driver/Src/stm32f3xx_hal_rcc.c ****       /* Wait for Backup domain Write protection disable */
 530:Drivers/STM32F3xx_HAL_Driver/Src/stm32f3xx_hal_rcc.c ****       tickstart = HAL_GetTick();
 531:Drivers/STM32F3xx_HAL_Driver/Src/stm32f3xx_hal_rcc.c **** 
 532:Drivers/STM32F3xx_HAL_Driver/Src/stm32f3xx_hal_rcc.c ****       while(HAL_IS_BIT_CLR(PWR->CR, PWR_CR_DBP))
 533:Drivers/STM32F3xx_HAL_Driver/Src/stm32f3xx_hal_rcc.c ****       {
 534:Drivers/STM32F3xx_HAL_Driver/Src/stm32f3xx_hal_rcc.c ****         if((HAL_GetTick() - tickstart) > RCC_DBP_TIMEOUT_VALUE)
 535:Drivers/STM32F3xx_HAL_Driver/Src/stm32f3xx_hal_rcc.c ****         {
 536:Drivers/STM32F3xx_HAL_Driver/Src/stm32f3xx_hal_rcc.c ****           return HAL_TIMEOUT;
 537:Drivers/STM32F3xx_HAL_Driver/Src/stm32f3xx_hal_rcc.c ****         }
 538:Drivers/STM32F3xx_HAL_Driver/Src/stm32f3xx_hal_rcc.c ****       }
 539:Drivers/STM32F3xx_HAL_Driver/Src/stm32f3xx_hal_rcc.c ****     }
 540:Drivers/STM32F3xx_HAL_Driver/Src/stm32f3xx_hal_rcc.c **** 
 541:Drivers/STM32F3xx_HAL_Driver/Src/stm32f3xx_hal_rcc.c ****     /* Set the new LSE configuration -----------------------------------------*/
 542:Drivers/STM32F3xx_HAL_Driver/Src/stm32f3xx_hal_rcc.c ****     __HAL_RCC_LSE_CONFIG(RCC_OscInitStruct->LSEState);
 1227              		.loc 1 542 5 is_stmt 1 view .LVU354
 1228              		.loc 1 542 5 view .LVU355
 1229 0378 E368     		ldr	r3, [r4, #12]
 1230 037a 012B     		cmp	r3, #1
 1231 037c 23D0     		beq	.L122
 1232              		.loc 1 542 5 discriminator 2 view .LVU356
 1233 037e 73BB     		cbnz	r3, .L68
 1234              		.loc 1 542 5 discriminator 3 view .LVU357
 1235 0380 03F18043 		add	r3, r3, #1073741824
 1236 0384 03F50433 		add	r3, r3, #135168
 1237 0388 1A6A     		ldr	r2, [r3, #32]
 1238 038a 22F00102 		bic	r2, r2, #1
ARM GAS  /var/folders/8c/gyvcglfx7f97kbqb2h83mm_r0000gn/T//ccp8Q8gW.s 			page 45


 1239 038e 1A62     		str	r2, [r3, #32]
 1240              		.loc 1 542 5 discriminator 3 view .LVU358
 1241 0390 1A6A     		ldr	r2, [r3, #32]
 1242 0392 22F00402 		bic	r2, r2, #4
 1243 0396 1A62     		str	r2, [r3, #32]
 1244 0398 1AE0     		b	.L67
 1245              	.LVL87:
 1246              	.L102:
 511:Drivers/STM32F3xx_HAL_Driver/Src/stm32f3xx_hal_rcc.c ****     
 1247              		.loc 1 511 22 is_stmt 0 view .LVU359
 1248 039a 0025     		movs	r5, #0
 1249 039c E7E7     		b	.L62
 1250              	.LVL88:
 1251              	.L121:
 527:Drivers/STM32F3xx_HAL_Driver/Src/stm32f3xx_hal_rcc.c ****       
 1252              		.loc 1 527 7 is_stmt 1 view .LVU360
 1253 039e 994A     		ldr	r2, .L131+8
 1254 03a0 1368     		ldr	r3, [r2]
 1255 03a2 43F48073 		orr	r3, r3, #256
 1256 03a6 1360     		str	r3, [r2]
 530:Drivers/STM32F3xx_HAL_Driver/Src/stm32f3xx_hal_rcc.c **** 
 1257              		.loc 1 530 7 view .LVU361
 530:Drivers/STM32F3xx_HAL_Driver/Src/stm32f3xx_hal_rcc.c **** 
 1258              		.loc 1 530 19 is_stmt 0 view .LVU362
 1259 03a8 FFF7FEFF 		bl	HAL_GetTick
 1260              	.LVL89:
 1261 03ac 0646     		mov	r6, r0
 1262              	.LVL90:
 532:Drivers/STM32F3xx_HAL_Driver/Src/stm32f3xx_hal_rcc.c ****       {
 1263              		.loc 1 532 7 is_stmt 1 view .LVU363
 1264              	.L64:
 532:Drivers/STM32F3xx_HAL_Driver/Src/stm32f3xx_hal_rcc.c ****       {
 1265              		.loc 1 532 13 is_stmt 0 view .LVU364
 1266 03ae 954B     		ldr	r3, .L131+8
 1267 03b0 1B68     		ldr	r3, [r3]
 532:Drivers/STM32F3xx_HAL_Driver/Src/stm32f3xx_hal_rcc.c ****       {
 1268              		.loc 1 532 12 view .LVU365
 1269 03b2 13F4807F 		tst	r3, #256
 1270 03b6 DFD1     		bne	.L63
 534:Drivers/STM32F3xx_HAL_Driver/Src/stm32f3xx_hal_rcc.c ****         {
 1271              		.loc 1 534 9 is_stmt 1 view .LVU366
 534:Drivers/STM32F3xx_HAL_Driver/Src/stm32f3xx_hal_rcc.c ****         {
 1272              		.loc 1 534 13 is_stmt 0 view .LVU367
 1273 03b8 FFF7FEFF 		bl	HAL_GetTick
 1274              	.LVL91:
 534:Drivers/STM32F3xx_HAL_Driver/Src/stm32f3xx_hal_rcc.c ****         {
 1275              		.loc 1 534 27 view .LVU368
 1276 03bc 801B     		subs	r0, r0, r6
 534:Drivers/STM32F3xx_HAL_Driver/Src/stm32f3xx_hal_rcc.c ****         {
 1277              		.loc 1 534 11 view .LVU369
 1278 03be 6428     		cmp	r0, #100
 1279 03c0 F5D9     		bls	.L64
 536:Drivers/STM32F3xx_HAL_Driver/Src/stm32f3xx_hal_rcc.c ****         }
 1280              		.loc 1 536 18 view .LVU370
 1281 03c2 0320     		movs	r0, #3
 1282 03c4 15E1     		b	.L21
 1283              	.LVL92:
ARM GAS  /var/folders/8c/gyvcglfx7f97kbqb2h83mm_r0000gn/T//ccp8Q8gW.s 			page 46


 1284              	.L122:
 1285              		.loc 1 542 5 is_stmt 1 discriminator 1 view .LVU371
 1286 03c6 8E4A     		ldr	r2, .L131+4
 1287 03c8 136A     		ldr	r3, [r2, #32]
 1288 03ca 43F00103 		orr	r3, r3, #1
 1289 03ce 1362     		str	r3, [r2, #32]
 1290              	.L67:
 543:Drivers/STM32F3xx_HAL_Driver/Src/stm32f3xx_hal_rcc.c ****     /* Check the LSE State */
 544:Drivers/STM32F3xx_HAL_Driver/Src/stm32f3xx_hal_rcc.c ****     if(RCC_OscInitStruct->LSEState != RCC_LSE_OFF)
 1291              		.loc 1 544 5 view .LVU372
 1292              		.loc 1 544 25 is_stmt 0 view .LVU373
 1293 03d0 E368     		ldr	r3, [r4, #12]
 1294              		.loc 1 544 7 view .LVU374
 1295 03d2 002B     		cmp	r3, #0
 1296 03d4 3CD0     		beq	.L70
 545:Drivers/STM32F3xx_HAL_Driver/Src/stm32f3xx_hal_rcc.c ****     {
 546:Drivers/STM32F3xx_HAL_Driver/Src/stm32f3xx_hal_rcc.c ****       /* Get Start Tick */
 547:Drivers/STM32F3xx_HAL_Driver/Src/stm32f3xx_hal_rcc.c ****       tickstart = HAL_GetTick();
 1297              		.loc 1 547 7 is_stmt 1 view .LVU375
 1298              		.loc 1 547 19 is_stmt 0 view .LVU376
 1299 03d6 FFF7FEFF 		bl	HAL_GetTick
 1300              	.LVL93:
 1301 03da 0646     		mov	r6, r0
 1302              	.LVL94:
 548:Drivers/STM32F3xx_HAL_Driver/Src/stm32f3xx_hal_rcc.c ****       
 549:Drivers/STM32F3xx_HAL_Driver/Src/stm32f3xx_hal_rcc.c ****       /* Wait till LSE is ready */  
 550:Drivers/STM32F3xx_HAL_Driver/Src/stm32f3xx_hal_rcc.c ****       while(__HAL_RCC_GET_FLAG(RCC_FLAG_LSERDY) == RESET)
 1303              		.loc 1 550 7 is_stmt 1 view .LVU377
 1304              		.loc 1 550 12 is_stmt 0 view .LVU378
 1305 03dc 2EE0     		b	.L71
 1306              	.LVL95:
 1307              	.L68:
 542:Drivers/STM32F3xx_HAL_Driver/Src/stm32f3xx_hal_rcc.c ****     /* Check the LSE State */
 1308              		.loc 1 542 5 is_stmt 1 discriminator 4 view .LVU379
 1309 03de 052B     		cmp	r3, #5
 1310 03e0 09D0     		beq	.L123
 542:Drivers/STM32F3xx_HAL_Driver/Src/stm32f3xx_hal_rcc.c ****     /* Check the LSE State */
 1311              		.loc 1 542 5 discriminator 6 view .LVU380
 1312 03e2 874B     		ldr	r3, .L131+4
 1313 03e4 1A6A     		ldr	r2, [r3, #32]
 1314 03e6 22F00102 		bic	r2, r2, #1
 1315 03ea 1A62     		str	r2, [r3, #32]
 542:Drivers/STM32F3xx_HAL_Driver/Src/stm32f3xx_hal_rcc.c ****     /* Check the LSE State */
 1316              		.loc 1 542 5 discriminator 6 view .LVU381
 1317 03ec 1A6A     		ldr	r2, [r3, #32]
 1318 03ee 22F00402 		bic	r2, r2, #4
 1319 03f2 1A62     		str	r2, [r3, #32]
 1320 03f4 ECE7     		b	.L67
 1321              	.L123:
 542:Drivers/STM32F3xx_HAL_Driver/Src/stm32f3xx_hal_rcc.c ****     /* Check the LSE State */
 1322              		.loc 1 542 5 discriminator 5 view .LVU382
 1323 03f6 824B     		ldr	r3, .L131+4
 1324 03f8 1A6A     		ldr	r2, [r3, #32]
 1325 03fa 42F00402 		orr	r2, r2, #4
 1326 03fe 1A62     		str	r2, [r3, #32]
 542:Drivers/STM32F3xx_HAL_Driver/Src/stm32f3xx_hal_rcc.c ****     /* Check the LSE State */
 1327              		.loc 1 542 5 discriminator 5 view .LVU383
ARM GAS  /var/folders/8c/gyvcglfx7f97kbqb2h83mm_r0000gn/T//ccp8Q8gW.s 			page 47


 1328 0400 1A6A     		ldr	r2, [r3, #32]
 1329 0402 42F00102 		orr	r2, r2, #1
 1330 0406 1A62     		str	r2, [r3, #32]
 1331 0408 E2E7     		b	.L67
 1332              	.LVL96:
 1333              	.L72:
 1334              	.LBB224:
 1335              	.LBI224:
 526:Drivers/CMSIS/Include/cmsis_gcc.h **** {
 1336              		.loc 2 526 57 view .LVU384
 1337              	.LBB225:
 528:Drivers/CMSIS/Include/cmsis_gcc.h **** 
 1338              		.loc 2 528 3 view .LVU385
 531:Drivers/CMSIS/Include/cmsis_gcc.h **** #else
 1339              		.loc 2 531 4 view .LVU386
 1340 040a 0223     		movs	r3, #2
 1341              		.syntax unified
 1342              	@ 531 "Drivers/CMSIS/Include/cmsis_gcc.h" 1
 1343 040c 93FAA3F3 		rbit r3, r3
 1344              	@ 0 "" 2
 1345              	.LVL97:
 1346              		.loc 2 544 3 view .LVU387
 1347              		.loc 2 544 3 is_stmt 0 view .LVU388
 1348              		.thumb
 1349              		.syntax unified
 1350              	.LBE225:
 1351              	.LBE224:
 1352              		.loc 1 550 13 view .LVU389
 1353 0410 7B4B     		ldr	r3, .L131+4
 1354 0412 596A     		ldr	r1, [r3, #36]
 1355              	.L73:
 1356              	.LVL98:
 1357              	.LBB226:
 1358              	.LBI226:
 526:Drivers/CMSIS/Include/cmsis_gcc.h **** {
 1359              		.loc 2 526 57 is_stmt 1 discriminator 11 view .LVU390
 1360              	.LBB227:
 528:Drivers/CMSIS/Include/cmsis_gcc.h **** 
 1361              		.loc 2 528 3 discriminator 11 view .LVU391
 531:Drivers/CMSIS/Include/cmsis_gcc.h **** #else
 1362              		.loc 2 531 4 discriminator 11 view .LVU392
 1363 0414 0223     		movs	r3, #2
 1364              		.syntax unified
 1365              	@ 531 "Drivers/CMSIS/Include/cmsis_gcc.h" 1
 1366 0416 93FAA3F3 		rbit r3, r3
 1367              	@ 0 "" 2
 1368              	.LVL99:
 1369              		.loc 2 544 3 discriminator 11 view .LVU393
 1370              		.loc 2 544 3 is_stmt 0 discriminator 11 view .LVU394
 1371              		.thumb
 1372              		.syntax unified
 1373              	.LBE227:
 1374              	.LBE226:
 1375              		.loc 1 550 13 discriminator 11 view .LVU395
 1376 041a B3FA83F3 		clz	r3, r3
 1377 041e 03F01F03 		and	r3, r3, #31
 1378 0422 0122     		movs	r2, #1
ARM GAS  /var/folders/8c/gyvcglfx7f97kbqb2h83mm_r0000gn/T//ccp8Q8gW.s 			page 48


 1379 0424 02FA03F3 		lsl	r3, r2, r3
 1380              		.loc 1 550 12 discriminator 11 view .LVU396
 1381 0428 1942     		tst	r1, r3
 1382 042a 38D1     		bne	.L75
 551:Drivers/STM32F3xx_HAL_Driver/Src/stm32f3xx_hal_rcc.c ****       {
 552:Drivers/STM32F3xx_HAL_Driver/Src/stm32f3xx_hal_rcc.c ****         if((HAL_GetTick() - tickstart ) > RCC_LSE_TIMEOUT_VALUE)
 1383              		.loc 1 552 9 is_stmt 1 view .LVU397
 1384              		.loc 1 552 13 is_stmt 0 view .LVU398
 1385 042c FFF7FEFF 		bl	HAL_GetTick
 1386              	.LVL100:
 1387              		.loc 1 552 27 view .LVU399
 1388 0430 801B     		subs	r0, r0, r6
 1389              		.loc 1 552 11 view .LVU400
 1390 0432 41F28833 		movw	r3, #5000
 1391 0436 9842     		cmp	r0, r3
 1392 0438 00F2D680 		bhi	.L104
 1393              	.L71:
 1394              	.LVL101:
 1395              	.LBB228:
 1396              	.LBI228:
 526:Drivers/CMSIS/Include/cmsis_gcc.h **** {
 1397              		.loc 2 526 57 is_stmt 1 view .LVU401
 1398              	.LBB229:
 528:Drivers/CMSIS/Include/cmsis_gcc.h **** 
 1399              		.loc 2 528 3 view .LVU402
 531:Drivers/CMSIS/Include/cmsis_gcc.h **** #else
 1400              		.loc 2 531 4 view .LVU403
 1401 043c 0223     		movs	r3, #2
 1402              		.syntax unified
 1403              	@ 531 "Drivers/CMSIS/Include/cmsis_gcc.h" 1
 1404 043e 93FAA3F2 		rbit r2, r3
 1405              	@ 0 "" 2
 1406              	.LVL102:
 1407              		.loc 2 544 3 view .LVU404
 1408              		.loc 2 544 3 is_stmt 0 view .LVU405
 1409              		.thumb
 1410              		.syntax unified
 1411              	.LBE229:
 1412              	.LBE228:
 1413              	.LBB230:
 1414              	.LBI230:
 526:Drivers/CMSIS/Include/cmsis_gcc.h **** {
 1415              		.loc 2 526 57 is_stmt 1 view .LVU406
 1416              	.LBB231:
 528:Drivers/CMSIS/Include/cmsis_gcc.h **** 
 1417              		.loc 2 528 3 view .LVU407
 531:Drivers/CMSIS/Include/cmsis_gcc.h **** #else
 1418              		.loc 2 531 4 view .LVU408
 1419              		.syntax unified
 1420              	@ 531 "Drivers/CMSIS/Include/cmsis_gcc.h" 1
 1421 0442 93FAA3F3 		rbit r3, r3
 1422              	@ 0 "" 2
 1423              	.LVL103:
 1424              		.loc 2 544 3 view .LVU409
 1425              		.loc 2 544 3 is_stmt 0 view .LVU410
 1426              		.thumb
 1427              		.syntax unified
ARM GAS  /var/folders/8c/gyvcglfx7f97kbqb2h83mm_r0000gn/T//ccp8Q8gW.s 			page 49


 1428              	.LBE231:
 1429              	.LBE230:
 550:Drivers/STM32F3xx_HAL_Driver/Src/stm32f3xx_hal_rcc.c ****       {
 1430              		.loc 1 550 13 view .LVU411
 1431 0446 002B     		cmp	r3, #0
 1432 0448 DFD0     		beq	.L72
 550:Drivers/STM32F3xx_HAL_Driver/Src/stm32f3xx_hal_rcc.c ****       {
 1433              		.loc 1 550 13 discriminator 4 view .LVU412
 1434 044a 6D4B     		ldr	r3, .L131+4
 1435 044c 196A     		ldr	r1, [r3, #32]
 1436 044e E1E7     		b	.L73
 1437              	.LVL104:
 1438              	.L70:
 553:Drivers/STM32F3xx_HAL_Driver/Src/stm32f3xx_hal_rcc.c ****         {
 554:Drivers/STM32F3xx_HAL_Driver/Src/stm32f3xx_hal_rcc.c ****           return HAL_TIMEOUT;
 555:Drivers/STM32F3xx_HAL_Driver/Src/stm32f3xx_hal_rcc.c ****         }
 556:Drivers/STM32F3xx_HAL_Driver/Src/stm32f3xx_hal_rcc.c ****       }
 557:Drivers/STM32F3xx_HAL_Driver/Src/stm32f3xx_hal_rcc.c ****     }
 558:Drivers/STM32F3xx_HAL_Driver/Src/stm32f3xx_hal_rcc.c ****     else
 559:Drivers/STM32F3xx_HAL_Driver/Src/stm32f3xx_hal_rcc.c ****     {
 560:Drivers/STM32F3xx_HAL_Driver/Src/stm32f3xx_hal_rcc.c ****       /* Get Start Tick */
 561:Drivers/STM32F3xx_HAL_Driver/Src/stm32f3xx_hal_rcc.c ****       tickstart = HAL_GetTick();
 1439              		.loc 1 561 7 is_stmt 1 view .LVU413
 1440              		.loc 1 561 19 is_stmt 0 view .LVU414
 1441 0450 FFF7FEFF 		bl	HAL_GetTick
 1442              	.LVL105:
 1443 0454 0646     		mov	r6, r0
 1444              	.LVL106:
 562:Drivers/STM32F3xx_HAL_Driver/Src/stm32f3xx_hal_rcc.c ****       
 563:Drivers/STM32F3xx_HAL_Driver/Src/stm32f3xx_hal_rcc.c ****       /* Wait till LSE is disabled */  
 564:Drivers/STM32F3xx_HAL_Driver/Src/stm32f3xx_hal_rcc.c ****       while(__HAL_RCC_GET_FLAG(RCC_FLAG_LSERDY) != RESET)
 1445              		.loc 1 564 7 is_stmt 1 view .LVU415
 1446              		.loc 1 564 12 is_stmt 0 view .LVU416
 1447 0456 18E0     		b	.L76
 1448              	.LVL107:
 1449              	.L77:
 1450              	.LBB232:
 1451              	.LBI232:
 526:Drivers/CMSIS/Include/cmsis_gcc.h **** {
 1452              		.loc 2 526 57 is_stmt 1 view .LVU417
 1453              	.LBB233:
 528:Drivers/CMSIS/Include/cmsis_gcc.h **** 
 1454              		.loc 2 528 3 view .LVU418
 531:Drivers/CMSIS/Include/cmsis_gcc.h **** #else
 1455              		.loc 2 531 4 view .LVU419
 1456 0458 0223     		movs	r3, #2
 1457              		.syntax unified
 1458              	@ 531 "Drivers/CMSIS/Include/cmsis_gcc.h" 1
 1459 045a 93FAA3F3 		rbit r3, r3
 1460              	@ 0 "" 2
 1461              	.LVL108:
 1462              		.loc 2 544 3 view .LVU420
 1463              		.loc 2 544 3 is_stmt 0 view .LVU421
 1464              		.thumb
 1465              		.syntax unified
 1466              	.LBE233:
 1467              	.LBE232:
ARM GAS  /var/folders/8c/gyvcglfx7f97kbqb2h83mm_r0000gn/T//ccp8Q8gW.s 			page 50


 1468              		.loc 1 564 13 view .LVU422
 1469 045e 684B     		ldr	r3, .L131+4
 1470 0460 596A     		ldr	r1, [r3, #36]
 1471              	.L78:
 1472              	.LVL109:
 1473              	.LBB234:
 1474              	.LBI234:
 526:Drivers/CMSIS/Include/cmsis_gcc.h **** {
 1475              		.loc 2 526 57 is_stmt 1 discriminator 11 view .LVU423
 1476              	.LBB235:
 528:Drivers/CMSIS/Include/cmsis_gcc.h **** 
 1477              		.loc 2 528 3 discriminator 11 view .LVU424
 531:Drivers/CMSIS/Include/cmsis_gcc.h **** #else
 1478              		.loc 2 531 4 discriminator 11 view .LVU425
 1479 0462 0223     		movs	r3, #2
 1480              		.syntax unified
 1481              	@ 531 "Drivers/CMSIS/Include/cmsis_gcc.h" 1
 1482 0464 93FAA3F3 		rbit r3, r3
 1483              	@ 0 "" 2
 1484              	.LVL110:
 1485              		.loc 2 544 3 discriminator 11 view .LVU426
 1486              		.loc 2 544 3 is_stmt 0 discriminator 11 view .LVU427
 1487              		.thumb
 1488              		.syntax unified
 1489              	.LBE235:
 1490              	.LBE234:
 1491              		.loc 1 564 13 discriminator 11 view .LVU428
 1492 0468 B3FA83F3 		clz	r3, r3
 1493 046c 03F01F03 		and	r3, r3, #31
 1494 0470 0122     		movs	r2, #1
 1495 0472 02FA03F3 		lsl	r3, r2, r3
 1496              		.loc 1 564 12 discriminator 11 view .LVU429
 1497 0476 1942     		tst	r1, r3
 1498 0478 11D0     		beq	.L75
 565:Drivers/STM32F3xx_HAL_Driver/Src/stm32f3xx_hal_rcc.c ****       {
 566:Drivers/STM32F3xx_HAL_Driver/Src/stm32f3xx_hal_rcc.c ****         if((HAL_GetTick() - tickstart ) > RCC_LSE_TIMEOUT_VALUE)
 1499              		.loc 1 566 9 is_stmt 1 view .LVU430
 1500              		.loc 1 566 13 is_stmt 0 view .LVU431
 1501 047a FFF7FEFF 		bl	HAL_GetTick
 1502              	.LVL111:
 1503              		.loc 1 566 27 view .LVU432
 1504 047e 801B     		subs	r0, r0, r6
 1505              		.loc 1 566 11 view .LVU433
 1506 0480 41F28833 		movw	r3, #5000
 1507 0484 9842     		cmp	r0, r3
 1508 0486 00F2B180 		bhi	.L105
 1509              	.L76:
 1510              	.LVL112:
 1511              	.LBB236:
 1512              	.LBI236:
 526:Drivers/CMSIS/Include/cmsis_gcc.h **** {
 1513              		.loc 2 526 57 is_stmt 1 view .LVU434
 1514              	.LBB237:
 528:Drivers/CMSIS/Include/cmsis_gcc.h **** 
 1515              		.loc 2 528 3 view .LVU435
 531:Drivers/CMSIS/Include/cmsis_gcc.h **** #else
 1516              		.loc 2 531 4 view .LVU436
ARM GAS  /var/folders/8c/gyvcglfx7f97kbqb2h83mm_r0000gn/T//ccp8Q8gW.s 			page 51


 1517 048a 0223     		movs	r3, #2
 1518              		.syntax unified
 1519              	@ 531 "Drivers/CMSIS/Include/cmsis_gcc.h" 1
 1520 048c 93FAA3F2 		rbit r2, r3
 1521              	@ 0 "" 2
 1522              	.LVL113:
 1523              		.loc 2 544 3 view .LVU437
 1524              		.loc 2 544 3 is_stmt 0 view .LVU438
 1525              		.thumb
 1526              		.syntax unified
 1527              	.LBE237:
 1528              	.LBE236:
 1529              	.LBB238:
 1530              	.LBI238:
 526:Drivers/CMSIS/Include/cmsis_gcc.h **** {
 1531              		.loc 2 526 57 is_stmt 1 view .LVU439
 1532              	.LBB239:
 528:Drivers/CMSIS/Include/cmsis_gcc.h **** 
 1533              		.loc 2 528 3 view .LVU440
 531:Drivers/CMSIS/Include/cmsis_gcc.h **** #else
 1534              		.loc 2 531 4 view .LVU441
 1535              		.syntax unified
 1536              	@ 531 "Drivers/CMSIS/Include/cmsis_gcc.h" 1
 1537 0490 93FAA3F3 		rbit r3, r3
 1538              	@ 0 "" 2
 1539              	.LVL114:
 1540              		.loc 2 544 3 view .LVU442
 1541              		.loc 2 544 3 is_stmt 0 view .LVU443
 1542              		.thumb
 1543              		.syntax unified
 1544              	.LBE239:
 1545              	.LBE238:
 564:Drivers/STM32F3xx_HAL_Driver/Src/stm32f3xx_hal_rcc.c ****       {
 1546              		.loc 1 564 13 view .LVU444
 1547 0494 002B     		cmp	r3, #0
 1548 0496 DFD0     		beq	.L77
 564:Drivers/STM32F3xx_HAL_Driver/Src/stm32f3xx_hal_rcc.c ****       {
 1549              		.loc 1 564 13 discriminator 4 view .LVU445
 1550 0498 594B     		ldr	r3, .L131+4
 1551 049a 196A     		ldr	r1, [r3, #32]
 1552 049c E1E7     		b	.L78
 1553              	.L75:
 567:Drivers/STM32F3xx_HAL_Driver/Src/stm32f3xx_hal_rcc.c ****         {
 568:Drivers/STM32F3xx_HAL_Driver/Src/stm32f3xx_hal_rcc.c ****           return HAL_TIMEOUT;
 569:Drivers/STM32F3xx_HAL_Driver/Src/stm32f3xx_hal_rcc.c ****         }
 570:Drivers/STM32F3xx_HAL_Driver/Src/stm32f3xx_hal_rcc.c ****       }
 571:Drivers/STM32F3xx_HAL_Driver/Src/stm32f3xx_hal_rcc.c ****     }
 572:Drivers/STM32F3xx_HAL_Driver/Src/stm32f3xx_hal_rcc.c **** 
 573:Drivers/STM32F3xx_HAL_Driver/Src/stm32f3xx_hal_rcc.c ****     /* Require to disable power clock if necessary */
 574:Drivers/STM32F3xx_HAL_Driver/Src/stm32f3xx_hal_rcc.c ****     if(pwrclkchanged == SET)
 1554              		.loc 1 574 5 is_stmt 1 view .LVU446
 1555              		.loc 1 574 7 is_stmt 0 view .LVU447
 1556 049e B5BB     		cbnz	r5, .L124
 1557              	.LVL115:
 1558              	.L61:
 1559              		.loc 1 574 7 view .LVU448
 1560              	.LBE222:
ARM GAS  /var/folders/8c/gyvcglfx7f97kbqb2h83mm_r0000gn/T//ccp8Q8gW.s 			page 52


 575:Drivers/STM32F3xx_HAL_Driver/Src/stm32f3xx_hal_rcc.c ****     {
 576:Drivers/STM32F3xx_HAL_Driver/Src/stm32f3xx_hal_rcc.c ****       __HAL_RCC_PWR_CLK_DISABLE();
 577:Drivers/STM32F3xx_HAL_Driver/Src/stm32f3xx_hal_rcc.c ****     }
 578:Drivers/STM32F3xx_HAL_Driver/Src/stm32f3xx_hal_rcc.c ****   }
 579:Drivers/STM32F3xx_HAL_Driver/Src/stm32f3xx_hal_rcc.c **** 
 580:Drivers/STM32F3xx_HAL_Driver/Src/stm32f3xx_hal_rcc.c ****   /*-------------------------------- PLL Configuration -----------------------*/
 581:Drivers/STM32F3xx_HAL_Driver/Src/stm32f3xx_hal_rcc.c ****   /* Check the parameters */
 582:Drivers/STM32F3xx_HAL_Driver/Src/stm32f3xx_hal_rcc.c ****   assert_param(IS_RCC_PLL(RCC_OscInitStruct->PLL.PLLState));
 1561              		.loc 1 582 3 is_stmt 1 view .LVU449
 583:Drivers/STM32F3xx_HAL_Driver/Src/stm32f3xx_hal_rcc.c ****   if ((RCC_OscInitStruct->PLL.PLLState) != RCC_PLL_NONE)
 1562              		.loc 1 583 3 view .LVU450
 1563              		.loc 1 583 30 is_stmt 0 view .LVU451
 1564 04a0 E369     		ldr	r3, [r4, #28]
 1565              		.loc 1 583 6 view .LVU452
 1566 04a2 002B     		cmp	r3, #0
 1567 04a4 00F0A480 		beq	.L106
 584:Drivers/STM32F3xx_HAL_Driver/Src/stm32f3xx_hal_rcc.c ****   {
 585:Drivers/STM32F3xx_HAL_Driver/Src/stm32f3xx_hal_rcc.c ****     /* Check if the PLL is used as system clock or not */
 586:Drivers/STM32F3xx_HAL_Driver/Src/stm32f3xx_hal_rcc.c ****     if(__HAL_RCC_GET_SYSCLK_SOURCE() != RCC_SYSCLKSOURCE_STATUS_PLLCLK)
 1568              		.loc 1 586 5 is_stmt 1 view .LVU453
 1569              		.loc 1 586 8 is_stmt 0 view .LVU454
 1570 04a8 554A     		ldr	r2, .L131+4
 1571 04aa 5268     		ldr	r2, [r2, #4]
 1572 04ac 02F00C02 		and	r2, r2, #12
 1573              		.loc 1 586 7 view .LVU455
 1574 04b0 082A     		cmp	r2, #8
 1575 04b2 00F0A080 		beq	.L107
 587:Drivers/STM32F3xx_HAL_Driver/Src/stm32f3xx_hal_rcc.c ****     { 
 588:Drivers/STM32F3xx_HAL_Driver/Src/stm32f3xx_hal_rcc.c ****       if((RCC_OscInitStruct->PLL.PLLState) == RCC_PLL_ON)
 1576              		.loc 1 588 7 is_stmt 1 view .LVU456
 1577              		.loc 1 588 9 is_stmt 0 view .LVU457
 1578 04b6 022B     		cmp	r3, #2
 1579 04b8 2FD0     		beq	.L125
 589:Drivers/STM32F3xx_HAL_Driver/Src/stm32f3xx_hal_rcc.c ****       {
 590:Drivers/STM32F3xx_HAL_Driver/Src/stm32f3xx_hal_rcc.c ****         /* Check the parameters */
 591:Drivers/STM32F3xx_HAL_Driver/Src/stm32f3xx_hal_rcc.c ****         assert_param(IS_RCC_PLLSOURCE(RCC_OscInitStruct->PLL.PLLSource));
 592:Drivers/STM32F3xx_HAL_Driver/Src/stm32f3xx_hal_rcc.c ****         assert_param(IS_RCC_PLL_MUL(RCC_OscInitStruct->PLL.PLLMUL));
 593:Drivers/STM32F3xx_HAL_Driver/Src/stm32f3xx_hal_rcc.c **** #if   defined(RCC_CFGR_PLLSRC_HSI_PREDIV)
 594:Drivers/STM32F3xx_HAL_Driver/Src/stm32f3xx_hal_rcc.c ****         assert_param(IS_RCC_PREDIV(RCC_OscInitStruct->PLL.PREDIV));
 595:Drivers/STM32F3xx_HAL_Driver/Src/stm32f3xx_hal_rcc.c **** #endif
 596:Drivers/STM32F3xx_HAL_Driver/Src/stm32f3xx_hal_rcc.c ****   
 597:Drivers/STM32F3xx_HAL_Driver/Src/stm32f3xx_hal_rcc.c ****         /* Disable the main PLL. */
 598:Drivers/STM32F3xx_HAL_Driver/Src/stm32f3xx_hal_rcc.c ****         __HAL_RCC_PLL_DISABLE();
 599:Drivers/STM32F3xx_HAL_Driver/Src/stm32f3xx_hal_rcc.c ****         
 600:Drivers/STM32F3xx_HAL_Driver/Src/stm32f3xx_hal_rcc.c ****         /* Get Start Tick */
 601:Drivers/STM32F3xx_HAL_Driver/Src/stm32f3xx_hal_rcc.c ****         tickstart = HAL_GetTick();
 602:Drivers/STM32F3xx_HAL_Driver/Src/stm32f3xx_hal_rcc.c ****         
 603:Drivers/STM32F3xx_HAL_Driver/Src/stm32f3xx_hal_rcc.c ****         /* Wait till PLL is disabled */
 604:Drivers/STM32F3xx_HAL_Driver/Src/stm32f3xx_hal_rcc.c ****         while(__HAL_RCC_GET_FLAG(RCC_FLAG_PLLRDY)  != RESET)
 605:Drivers/STM32F3xx_HAL_Driver/Src/stm32f3xx_hal_rcc.c ****         {
 606:Drivers/STM32F3xx_HAL_Driver/Src/stm32f3xx_hal_rcc.c ****           if((HAL_GetTick() - tickstart ) > PLL_TIMEOUT_VALUE)
 607:Drivers/STM32F3xx_HAL_Driver/Src/stm32f3xx_hal_rcc.c ****           {
 608:Drivers/STM32F3xx_HAL_Driver/Src/stm32f3xx_hal_rcc.c ****             return HAL_TIMEOUT;
 609:Drivers/STM32F3xx_HAL_Driver/Src/stm32f3xx_hal_rcc.c ****           }
 610:Drivers/STM32F3xx_HAL_Driver/Src/stm32f3xx_hal_rcc.c ****         }
 611:Drivers/STM32F3xx_HAL_Driver/Src/stm32f3xx_hal_rcc.c **** 
 612:Drivers/STM32F3xx_HAL_Driver/Src/stm32f3xx_hal_rcc.c **** #if defined(RCC_CFGR_PLLSRC_HSI_PREDIV)
ARM GAS  /var/folders/8c/gyvcglfx7f97kbqb2h83mm_r0000gn/T//ccp8Q8gW.s 			page 53


 613:Drivers/STM32F3xx_HAL_Driver/Src/stm32f3xx_hal_rcc.c ****         /* Configure the main PLL clock source, predivider and multiplication factor. */
 614:Drivers/STM32F3xx_HAL_Driver/Src/stm32f3xx_hal_rcc.c ****         __HAL_RCC_PLL_CONFIG(RCC_OscInitStruct->PLL.PLLSource,
 615:Drivers/STM32F3xx_HAL_Driver/Src/stm32f3xx_hal_rcc.c ****                              RCC_OscInitStruct->PLL.PREDIV,
 616:Drivers/STM32F3xx_HAL_Driver/Src/stm32f3xx_hal_rcc.c ****                              RCC_OscInitStruct->PLL.PLLMUL);
 617:Drivers/STM32F3xx_HAL_Driver/Src/stm32f3xx_hal_rcc.c **** #else
 618:Drivers/STM32F3xx_HAL_Driver/Src/stm32f3xx_hal_rcc.c ****       /* Configure the main PLL clock source and multiplication factor. */
 619:Drivers/STM32F3xx_HAL_Driver/Src/stm32f3xx_hal_rcc.c ****       __HAL_RCC_PLL_CONFIG(RCC_OscInitStruct->PLL.PLLSource,
 620:Drivers/STM32F3xx_HAL_Driver/Src/stm32f3xx_hal_rcc.c ****                            RCC_OscInitStruct->PLL.PLLMUL);
 621:Drivers/STM32F3xx_HAL_Driver/Src/stm32f3xx_hal_rcc.c **** #endif /* RCC_CFGR_PLLSRC_HSI_PREDIV */
 622:Drivers/STM32F3xx_HAL_Driver/Src/stm32f3xx_hal_rcc.c ****         /* Enable the main PLL. */
 623:Drivers/STM32F3xx_HAL_Driver/Src/stm32f3xx_hal_rcc.c ****         __HAL_RCC_PLL_ENABLE();
 624:Drivers/STM32F3xx_HAL_Driver/Src/stm32f3xx_hal_rcc.c ****         
 625:Drivers/STM32F3xx_HAL_Driver/Src/stm32f3xx_hal_rcc.c ****         /* Get Start Tick */
 626:Drivers/STM32F3xx_HAL_Driver/Src/stm32f3xx_hal_rcc.c ****         tickstart = HAL_GetTick();
 627:Drivers/STM32F3xx_HAL_Driver/Src/stm32f3xx_hal_rcc.c ****         
 628:Drivers/STM32F3xx_HAL_Driver/Src/stm32f3xx_hal_rcc.c ****         /* Wait till PLL is ready */
 629:Drivers/STM32F3xx_HAL_Driver/Src/stm32f3xx_hal_rcc.c ****         while(__HAL_RCC_GET_FLAG(RCC_FLAG_PLLRDY)  == RESET)
 630:Drivers/STM32F3xx_HAL_Driver/Src/stm32f3xx_hal_rcc.c ****         {
 631:Drivers/STM32F3xx_HAL_Driver/Src/stm32f3xx_hal_rcc.c ****           if((HAL_GetTick() - tickstart ) > PLL_TIMEOUT_VALUE)
 632:Drivers/STM32F3xx_HAL_Driver/Src/stm32f3xx_hal_rcc.c ****           {
 633:Drivers/STM32F3xx_HAL_Driver/Src/stm32f3xx_hal_rcc.c ****             return HAL_TIMEOUT;
 634:Drivers/STM32F3xx_HAL_Driver/Src/stm32f3xx_hal_rcc.c ****           }
 635:Drivers/STM32F3xx_HAL_Driver/Src/stm32f3xx_hal_rcc.c ****         }
 636:Drivers/STM32F3xx_HAL_Driver/Src/stm32f3xx_hal_rcc.c ****       }
 637:Drivers/STM32F3xx_HAL_Driver/Src/stm32f3xx_hal_rcc.c ****       else
 638:Drivers/STM32F3xx_HAL_Driver/Src/stm32f3xx_hal_rcc.c ****       {
 639:Drivers/STM32F3xx_HAL_Driver/Src/stm32f3xx_hal_rcc.c ****         /* Disable the main PLL. */
 640:Drivers/STM32F3xx_HAL_Driver/Src/stm32f3xx_hal_rcc.c ****         __HAL_RCC_PLL_DISABLE();
 1580              		.loc 1 640 9 is_stmt 1 view .LVU458
 1581              	.LVL116:
 1582              	.LBB240:
 1583              	.LBI240:
 526:Drivers/CMSIS/Include/cmsis_gcc.h **** {
 1584              		.loc 2 526 57 view .LVU459
 1585              	.LBB241:
 528:Drivers/CMSIS/Include/cmsis_gcc.h **** 
 1586              		.loc 2 528 3 view .LVU460
 531:Drivers/CMSIS/Include/cmsis_gcc.h **** #else
 1587              		.loc 2 531 4 view .LVU461
 1588 04ba 4FF08073 		mov	r3, #16777216
 1589              		.syntax unified
 1590              	@ 531 "Drivers/CMSIS/Include/cmsis_gcc.h" 1
 1591 04be 93FAA3F3 		rbit r3, r3
 1592              	@ 0 "" 2
 1593              	.LVL117:
 1594              		.loc 2 544 3 view .LVU462
 1595              		.loc 2 544 3 is_stmt 0 view .LVU463
 1596              		.thumb
 1597              		.syntax unified
 1598              	.LBE241:
 1599              	.LBE240:
 1600              		.loc 1 640 9 view .LVU464
 1601 04c2 B3FA83F3 		clz	r3, r3
 1602 04c6 03F18453 		add	r3, r3, #276824064
 1603 04ca 03F58413 		add	r3, r3, #1081344
 1604 04ce 9B00     		lsls	r3, r3, #2
 1605 04d0 0022     		movs	r2, #0
ARM GAS  /var/folders/8c/gyvcglfx7f97kbqb2h83mm_r0000gn/T//ccp8Q8gW.s 			page 54


 1606 04d2 1A60     		str	r2, [r3]
 641:Drivers/STM32F3xx_HAL_Driver/Src/stm32f3xx_hal_rcc.c ****  
 642:Drivers/STM32F3xx_HAL_Driver/Src/stm32f3xx_hal_rcc.c ****         /* Get Start Tick */
 643:Drivers/STM32F3xx_HAL_Driver/Src/stm32f3xx_hal_rcc.c ****         tickstart = HAL_GetTick();
 1607              		.loc 1 643 9 is_stmt 1 view .LVU465
 1608              		.loc 1 643 21 is_stmt 0 view .LVU466
 1609 04d4 FFF7FEFF 		bl	HAL_GetTick
 1610              	.LVL118:
 1611 04d8 0446     		mov	r4, r0
 1612              	.LVL119:
 644:Drivers/STM32F3xx_HAL_Driver/Src/stm32f3xx_hal_rcc.c ****         
 645:Drivers/STM32F3xx_HAL_Driver/Src/stm32f3xx_hal_rcc.c ****         /* Wait till PLL is disabled */  
 646:Drivers/STM32F3xx_HAL_Driver/Src/stm32f3xx_hal_rcc.c ****         while(__HAL_RCC_GET_FLAG(RCC_FLAG_PLLRDY)  != RESET)
 1613              		.loc 1 646 9 is_stmt 1 view .LVU467
 1614              	.L89:
 1615              	.LBB242:
 1616              	.LBI242:
 526:Drivers/CMSIS/Include/cmsis_gcc.h **** {
 1617              		.loc 2 526 57 view .LVU468
 1618              	.LBB243:
 528:Drivers/CMSIS/Include/cmsis_gcc.h **** 
 1619              		.loc 2 528 3 view .LVU469
 531:Drivers/CMSIS/Include/cmsis_gcc.h **** #else
 1620              		.loc 2 531 4 view .LVU470
 1621 04da 4FF00073 		mov	r3, #33554432
 1622              		.syntax unified
 1623              	@ 531 "Drivers/CMSIS/Include/cmsis_gcc.h" 1
 1624 04de 93FAA3F3 		rbit r3, r3
 1625              	@ 0 "" 2
 1626              		.loc 2 544 3 view .LVU471
 1627              	.LVL120:
 1628              		.loc 2 544 3 is_stmt 0 view .LVU472
 1629              		.thumb
 1630              		.syntax unified
 1631              	.LBE243:
 1632              	.LBE242:
 1633              		.loc 1 646 15 view .LVU473
 1634 04e2 474B     		ldr	r3, .L131+4
 1635 04e4 1968     		ldr	r1, [r3]
 1636              	.LVL121:
 1637              	.LBB244:
 1638              	.LBI244:
 526:Drivers/CMSIS/Include/cmsis_gcc.h **** {
 1639              		.loc 2 526 57 is_stmt 1 view .LVU474
 1640              	.LBB245:
 528:Drivers/CMSIS/Include/cmsis_gcc.h **** 
 1641              		.loc 2 528 3 view .LVU475
 531:Drivers/CMSIS/Include/cmsis_gcc.h **** #else
 1642              		.loc 2 531 4 view .LVU476
 1643 04e6 4FF00073 		mov	r3, #33554432
 1644              		.syntax unified
 1645              	@ 531 "Drivers/CMSIS/Include/cmsis_gcc.h" 1
 1646 04ea 93FAA3F3 		rbit r3, r3
 1647              	@ 0 "" 2
 1648              	.LVL122:
 1649              		.loc 2 544 3 view .LVU477
 1650              		.loc 2 544 3 is_stmt 0 view .LVU478
ARM GAS  /var/folders/8c/gyvcglfx7f97kbqb2h83mm_r0000gn/T//ccp8Q8gW.s 			page 55


 1651              		.thumb
 1652              		.syntax unified
 1653              	.LBE245:
 1654              	.LBE244:
 1655              		.loc 1 646 15 view .LVU479
 1656 04ee B3FA83F3 		clz	r3, r3
 1657 04f2 03F01F03 		and	r3, r3, #31
 1658 04f6 0122     		movs	r2, #1
 1659 04f8 02FA03F3 		lsl	r3, r2, r3
 1660              		.loc 1 646 14 view .LVU480
 1661 04fc 1942     		tst	r1, r3
 1662 04fe 6BD0     		beq	.L126
 647:Drivers/STM32F3xx_HAL_Driver/Src/stm32f3xx_hal_rcc.c ****         {
 648:Drivers/STM32F3xx_HAL_Driver/Src/stm32f3xx_hal_rcc.c ****           if((HAL_GetTick() - tickstart ) > PLL_TIMEOUT_VALUE)
 1663              		.loc 1 648 11 is_stmt 1 view .LVU481
 1664              		.loc 1 648 15 is_stmt 0 view .LVU482
 1665 0500 FFF7FEFF 		bl	HAL_GetTick
 1666              	.LVL123:
 1667              		.loc 1 648 29 view .LVU483
 1668 0504 001B     		subs	r0, r0, r4
 1669              		.loc 1 648 13 view .LVU484
 1670 0506 0228     		cmp	r0, #2
 1671 0508 E7D9     		bls	.L89
 649:Drivers/STM32F3xx_HAL_Driver/Src/stm32f3xx_hal_rcc.c ****           {
 650:Drivers/STM32F3xx_HAL_Driver/Src/stm32f3xx_hal_rcc.c ****             return HAL_TIMEOUT;
 1672              		.loc 1 650 20 view .LVU485
 1673 050a 0320     		movs	r0, #3
 1674 050c 71E0     		b	.L21
 1675              	.LVL124:
 1676              	.L124:
 1677              	.LBB246:
 576:Drivers/STM32F3xx_HAL_Driver/Src/stm32f3xx_hal_rcc.c ****     }
 1678              		.loc 1 576 7 is_stmt 1 view .LVU486
 1679 050e 3C4A     		ldr	r2, .L131+4
 1680 0510 D369     		ldr	r3, [r2, #28]
 1681 0512 23F08053 		bic	r3, r3, #268435456
 1682 0516 D361     		str	r3, [r2, #28]
 1683 0518 C2E7     		b	.L61
 1684              	.LVL125:
 1685              	.L125:
 576:Drivers/STM32F3xx_HAL_Driver/Src/stm32f3xx_hal_rcc.c ****     }
 1686              		.loc 1 576 7 is_stmt 0 view .LVU487
 1687              	.LBE246:
 591:Drivers/STM32F3xx_HAL_Driver/Src/stm32f3xx_hal_rcc.c ****         assert_param(IS_RCC_PLL_MUL(RCC_OscInitStruct->PLL.PLLMUL));
 1688              		.loc 1 591 9 is_stmt 1 view .LVU488
 592:Drivers/STM32F3xx_HAL_Driver/Src/stm32f3xx_hal_rcc.c **** #if   defined(RCC_CFGR_PLLSRC_HSI_PREDIV)
 1689              		.loc 1 592 9 view .LVU489
 598:Drivers/STM32F3xx_HAL_Driver/Src/stm32f3xx_hal_rcc.c ****         
 1690              		.loc 1 598 9 view .LVU490
 1691              	.LBB247:
 1692              	.LBI247:
 526:Drivers/CMSIS/Include/cmsis_gcc.h **** {
 1693              		.loc 2 526 57 view .LVU491
 1694              	.LBB248:
 528:Drivers/CMSIS/Include/cmsis_gcc.h **** 
 1695              		.loc 2 528 3 view .LVU492
 531:Drivers/CMSIS/Include/cmsis_gcc.h **** #else
ARM GAS  /var/folders/8c/gyvcglfx7f97kbqb2h83mm_r0000gn/T//ccp8Q8gW.s 			page 56


 1696              		.loc 2 531 4 view .LVU493
 1697 051a 4FF08073 		mov	r3, #16777216
 1698              		.syntax unified
 1699              	@ 531 "Drivers/CMSIS/Include/cmsis_gcc.h" 1
 1700 051e 93FAA3F3 		rbit r3, r3
 1701              	@ 0 "" 2
 1702              	.LVL126:
 1703              		.loc 2 544 3 view .LVU494
 1704              		.loc 2 544 3 is_stmt 0 view .LVU495
 1705              		.thumb
 1706              		.syntax unified
 1707              	.LBE248:
 1708              	.LBE247:
 598:Drivers/STM32F3xx_HAL_Driver/Src/stm32f3xx_hal_rcc.c ****         
 1709              		.loc 1 598 9 view .LVU496
 1710 0522 B3FA83F3 		clz	r3, r3
 1711 0526 03F18453 		add	r3, r3, #276824064
 1712 052a 03F58413 		add	r3, r3, #1081344
 1713 052e 9B00     		lsls	r3, r3, #2
 1714 0530 0022     		movs	r2, #0
 1715 0532 1A60     		str	r2, [r3]
 601:Drivers/STM32F3xx_HAL_Driver/Src/stm32f3xx_hal_rcc.c ****         
 1716              		.loc 1 601 9 is_stmt 1 view .LVU497
 601:Drivers/STM32F3xx_HAL_Driver/Src/stm32f3xx_hal_rcc.c ****         
 1717              		.loc 1 601 21 is_stmt 0 view .LVU498
 1718 0534 FFF7FEFF 		bl	HAL_GetTick
 1719              	.LVL127:
 1720 0538 0546     		mov	r5, r0
 1721              	.LVL128:
 604:Drivers/STM32F3xx_HAL_Driver/Src/stm32f3xx_hal_rcc.c ****         {
 1722              		.loc 1 604 9 is_stmt 1 view .LVU499
 1723              	.L81:
 1724              	.LBB249:
 1725              	.LBI249:
 526:Drivers/CMSIS/Include/cmsis_gcc.h **** {
 1726              		.loc 2 526 57 view .LVU500
 1727              	.LBB250:
 528:Drivers/CMSIS/Include/cmsis_gcc.h **** 
 1728              		.loc 2 528 3 view .LVU501
 531:Drivers/CMSIS/Include/cmsis_gcc.h **** #else
 1729              		.loc 2 531 4 view .LVU502
 1730 053a 4FF00073 		mov	r3, #33554432
 1731              		.syntax unified
 1732              	@ 531 "Drivers/CMSIS/Include/cmsis_gcc.h" 1
 1733 053e 93FAA3F3 		rbit r3, r3
 1734              	@ 0 "" 2
 1735              		.loc 2 544 3 view .LVU503
 1736              	.LVL129:
 1737              		.loc 2 544 3 is_stmt 0 view .LVU504
 1738              		.thumb
 1739              		.syntax unified
 1740              	.LBE250:
 1741              	.LBE249:
 604:Drivers/STM32F3xx_HAL_Driver/Src/stm32f3xx_hal_rcc.c ****         {
 1742              		.loc 1 604 15 view .LVU505
 1743 0542 2F4B     		ldr	r3, .L131+4
 1744 0544 1968     		ldr	r1, [r3]
ARM GAS  /var/folders/8c/gyvcglfx7f97kbqb2h83mm_r0000gn/T//ccp8Q8gW.s 			page 57


 1745              	.LVL130:
 1746              	.LBB251:
 1747              	.LBI251:
 526:Drivers/CMSIS/Include/cmsis_gcc.h **** {
 1748              		.loc 2 526 57 is_stmt 1 view .LVU506
 1749              	.LBB252:
 528:Drivers/CMSIS/Include/cmsis_gcc.h **** 
 1750              		.loc 2 528 3 view .LVU507
 531:Drivers/CMSIS/Include/cmsis_gcc.h **** #else
 1751              		.loc 2 531 4 view .LVU508
 1752 0546 4FF00073 		mov	r3, #33554432
 1753              		.syntax unified
 1754              	@ 531 "Drivers/CMSIS/Include/cmsis_gcc.h" 1
 1755 054a 93FAA3F3 		rbit r3, r3
 1756              	@ 0 "" 2
 1757              	.LVL131:
 1758              		.loc 2 544 3 view .LVU509
 1759              		.loc 2 544 3 is_stmt 0 view .LVU510
 1760              		.thumb
 1761              		.syntax unified
 1762              	.LBE252:
 1763              	.LBE251:
 604:Drivers/STM32F3xx_HAL_Driver/Src/stm32f3xx_hal_rcc.c ****         {
 1764              		.loc 1 604 15 view .LVU511
 1765 054e B3FA83F3 		clz	r3, r3
 1766 0552 03F01F03 		and	r3, r3, #31
 1767 0556 0122     		movs	r2, #1
 1768 0558 02FA03F3 		lsl	r3, r2, r3
 604:Drivers/STM32F3xx_HAL_Driver/Src/stm32f3xx_hal_rcc.c ****         {
 1769              		.loc 1 604 14 view .LVU512
 1770 055c 1942     		tst	r1, r3
 1771 055e 06D0     		beq	.L127
 606:Drivers/STM32F3xx_HAL_Driver/Src/stm32f3xx_hal_rcc.c ****           {
 1772              		.loc 1 606 11 is_stmt 1 view .LVU513
 606:Drivers/STM32F3xx_HAL_Driver/Src/stm32f3xx_hal_rcc.c ****           {
 1773              		.loc 1 606 15 is_stmt 0 view .LVU514
 1774 0560 FFF7FEFF 		bl	HAL_GetTick
 1775              	.LVL132:
 606:Drivers/STM32F3xx_HAL_Driver/Src/stm32f3xx_hal_rcc.c ****           {
 1776              		.loc 1 606 29 view .LVU515
 1777 0564 401B     		subs	r0, r0, r5
 606:Drivers/STM32F3xx_HAL_Driver/Src/stm32f3xx_hal_rcc.c ****           {
 1778              		.loc 1 606 13 view .LVU516
 1779 0566 0228     		cmp	r0, #2
 1780 0568 E7D9     		bls	.L81
 608:Drivers/STM32F3xx_HAL_Driver/Src/stm32f3xx_hal_rcc.c ****           }
 1781              		.loc 1 608 20 view .LVU517
 1782 056a 0320     		movs	r0, #3
 1783 056c 41E0     		b	.L21
 1784              	.L127:
 619:Drivers/STM32F3xx_HAL_Driver/Src/stm32f3xx_hal_rcc.c ****                            RCC_OscInitStruct->PLL.PLLMUL);
 1785              		.loc 1 619 7 is_stmt 1 view .LVU518
 1786 056e 2449     		ldr	r1, .L131+4
 1787 0570 4B68     		ldr	r3, [r1, #4]
 1788 0572 23F47413 		bic	r3, r3, #3997696
 1789 0576 626A     		ldr	r2, [r4, #36]
 1790 0578 206A     		ldr	r0, [r4, #32]
ARM GAS  /var/folders/8c/gyvcglfx7f97kbqb2h83mm_r0000gn/T//ccp8Q8gW.s 			page 58


 1791 057a 0243     		orrs	r2, r2, r0
 1792 057c 1343     		orrs	r3, r3, r2
 1793 057e 4B60     		str	r3, [r1, #4]
 623:Drivers/STM32F3xx_HAL_Driver/Src/stm32f3xx_hal_rcc.c ****         
 1794              		.loc 1 623 9 view .LVU519
 1795              	.LVL133:
 1796              	.LBB253:
 1797              	.LBI253:
 526:Drivers/CMSIS/Include/cmsis_gcc.h **** {
 1798              		.loc 2 526 57 view .LVU520
 1799              	.LBB254:
 528:Drivers/CMSIS/Include/cmsis_gcc.h **** 
 1800              		.loc 2 528 3 view .LVU521
 531:Drivers/CMSIS/Include/cmsis_gcc.h **** #else
 1801              		.loc 2 531 4 view .LVU522
 1802 0580 4FF08073 		mov	r3, #16777216
 1803              		.syntax unified
 1804              	@ 531 "Drivers/CMSIS/Include/cmsis_gcc.h" 1
 1805 0584 93FAA3F3 		rbit r3, r3
 1806              	@ 0 "" 2
 1807              	.LVL134:
 1808              		.loc 2 544 3 view .LVU523
 1809              		.loc 2 544 3 is_stmt 0 view .LVU524
 1810              		.thumb
 1811              		.syntax unified
 1812              	.LBE254:
 1813              	.LBE253:
 623:Drivers/STM32F3xx_HAL_Driver/Src/stm32f3xx_hal_rcc.c ****         
 1814              		.loc 1 623 9 view .LVU525
 1815 0588 B3FA83F3 		clz	r3, r3
 1816 058c 03F18453 		add	r3, r3, #276824064
 1817 0590 03F58413 		add	r3, r3, #1081344
 1818 0594 9B00     		lsls	r3, r3, #2
 1819 0596 0122     		movs	r2, #1
 1820 0598 1A60     		str	r2, [r3]
 626:Drivers/STM32F3xx_HAL_Driver/Src/stm32f3xx_hal_rcc.c ****         
 1821              		.loc 1 626 9 is_stmt 1 view .LVU526
 626:Drivers/STM32F3xx_HAL_Driver/Src/stm32f3xx_hal_rcc.c ****         
 1822              		.loc 1 626 21 is_stmt 0 view .LVU527
 1823 059a FFF7FEFF 		bl	HAL_GetTick
 1824              	.LVL135:
 1825 059e 0446     		mov	r4, r0
 1826              	.LVL136:
 629:Drivers/STM32F3xx_HAL_Driver/Src/stm32f3xx_hal_rcc.c ****         {
 1827              		.loc 1 629 9 is_stmt 1 view .LVU528
 1828              	.L85:
 1829              	.LBB255:
 1830              	.LBI255:
 526:Drivers/CMSIS/Include/cmsis_gcc.h **** {
 1831              		.loc 2 526 57 view .LVU529
 1832              	.LBB256:
 528:Drivers/CMSIS/Include/cmsis_gcc.h **** 
 1833              		.loc 2 528 3 view .LVU530
 531:Drivers/CMSIS/Include/cmsis_gcc.h **** #else
 1834              		.loc 2 531 4 view .LVU531
 1835 05a0 4FF00073 		mov	r3, #33554432
 1836              		.syntax unified
ARM GAS  /var/folders/8c/gyvcglfx7f97kbqb2h83mm_r0000gn/T//ccp8Q8gW.s 			page 59


 1837              	@ 531 "Drivers/CMSIS/Include/cmsis_gcc.h" 1
 1838 05a4 93FAA3F3 		rbit r3, r3
 1839              	@ 0 "" 2
 1840              		.loc 2 544 3 view .LVU532
 1841              	.LVL137:
 1842              		.loc 2 544 3 is_stmt 0 view .LVU533
 1843              		.thumb
 1844              		.syntax unified
 1845              	.LBE256:
 1846              	.LBE255:
 629:Drivers/STM32F3xx_HAL_Driver/Src/stm32f3xx_hal_rcc.c ****         {
 1847              		.loc 1 629 15 view .LVU534
 1848 05a8 154B     		ldr	r3, .L131+4
 1849 05aa 1968     		ldr	r1, [r3]
 1850              	.LVL138:
 1851              	.LBB257:
 1852              	.LBI257:
 526:Drivers/CMSIS/Include/cmsis_gcc.h **** {
 1853              		.loc 2 526 57 is_stmt 1 view .LVU535
 1854              	.LBB258:
 528:Drivers/CMSIS/Include/cmsis_gcc.h **** 
 1855              		.loc 2 528 3 view .LVU536
 531:Drivers/CMSIS/Include/cmsis_gcc.h **** #else
 1856              		.loc 2 531 4 view .LVU537
 1857 05ac 4FF00073 		mov	r3, #33554432
 1858              		.syntax unified
 1859              	@ 531 "Drivers/CMSIS/Include/cmsis_gcc.h" 1
 1860 05b0 93FAA3F3 		rbit r3, r3
 1861              	@ 0 "" 2
 1862              	.LVL139:
 1863              		.loc 2 544 3 view .LVU538
 1864              		.loc 2 544 3 is_stmt 0 view .LVU539
 1865              		.thumb
 1866              		.syntax unified
 1867              	.LBE258:
 1868              	.LBE257:
 629:Drivers/STM32F3xx_HAL_Driver/Src/stm32f3xx_hal_rcc.c ****         {
 1869              		.loc 1 629 15 view .LVU540
 1870 05b4 B3FA83F3 		clz	r3, r3
 1871 05b8 03F01F03 		and	r3, r3, #31
 1872 05bc 0122     		movs	r2, #1
 1873 05be 02FA03F3 		lsl	r3, r2, r3
 629:Drivers/STM32F3xx_HAL_Driver/Src/stm32f3xx_hal_rcc.c ****         {
 1874              		.loc 1 629 14 view .LVU541
 1875 05c2 1942     		tst	r1, r3
 1876 05c4 06D1     		bne	.L128
 631:Drivers/STM32F3xx_HAL_Driver/Src/stm32f3xx_hal_rcc.c ****           {
 1877              		.loc 1 631 11 is_stmt 1 view .LVU542
 631:Drivers/STM32F3xx_HAL_Driver/Src/stm32f3xx_hal_rcc.c ****           {
 1878              		.loc 1 631 15 is_stmt 0 view .LVU543
 1879 05c6 FFF7FEFF 		bl	HAL_GetTick
 1880              	.LVL140:
 631:Drivers/STM32F3xx_HAL_Driver/Src/stm32f3xx_hal_rcc.c ****           {
 1881              		.loc 1 631 29 view .LVU544
 1882 05ca 001B     		subs	r0, r0, r4
 631:Drivers/STM32F3xx_HAL_Driver/Src/stm32f3xx_hal_rcc.c ****           {
 1883              		.loc 1 631 13 view .LVU545
ARM GAS  /var/folders/8c/gyvcglfx7f97kbqb2h83mm_r0000gn/T//ccp8Q8gW.s 			page 60


 1884 05cc 0228     		cmp	r0, #2
 1885 05ce E7D9     		bls	.L85
 633:Drivers/STM32F3xx_HAL_Driver/Src/stm32f3xx_hal_rcc.c ****           }
 1886              		.loc 1 633 20 view .LVU546
 1887 05d0 0320     		movs	r0, #3
 1888 05d2 0EE0     		b	.L21
 1889              	.L128:
 651:Drivers/STM32F3xx_HAL_Driver/Src/stm32f3xx_hal_rcc.c ****           }
 652:Drivers/STM32F3xx_HAL_Driver/Src/stm32f3xx_hal_rcc.c ****         }
 653:Drivers/STM32F3xx_HAL_Driver/Src/stm32f3xx_hal_rcc.c ****       }
 654:Drivers/STM32F3xx_HAL_Driver/Src/stm32f3xx_hal_rcc.c ****     }
 655:Drivers/STM32F3xx_HAL_Driver/Src/stm32f3xx_hal_rcc.c ****     else
 656:Drivers/STM32F3xx_HAL_Driver/Src/stm32f3xx_hal_rcc.c ****     {
 657:Drivers/STM32F3xx_HAL_Driver/Src/stm32f3xx_hal_rcc.c ****       return HAL_ERROR;
 658:Drivers/STM32F3xx_HAL_Driver/Src/stm32f3xx_hal_rcc.c ****     }
 659:Drivers/STM32F3xx_HAL_Driver/Src/stm32f3xx_hal_rcc.c ****   }
 660:Drivers/STM32F3xx_HAL_Driver/Src/stm32f3xx_hal_rcc.c ****   
 661:Drivers/STM32F3xx_HAL_Driver/Src/stm32f3xx_hal_rcc.c ****   return HAL_OK;
 1890              		.loc 1 661 10 view .LVU547
 1891 05d4 0020     		movs	r0, #0
 1892 05d6 0CE0     		b	.L21
 1893              	.L126:
 1894              		.loc 1 661 10 view .LVU548
 1895 05d8 0020     		movs	r0, #0
 1896 05da 0AE0     		b	.L21
 1897              	.LVL141:
 1898              	.L93:
 1899              	.LCFI3:
 1900              		.cfi_def_cfa_offset 0
 1901              		.cfi_restore 4
 1902              		.cfi_restore 5
 1903              		.cfi_restore 6
 1904              		.cfi_restore 14
 339:Drivers/STM32F3xx_HAL_Driver/Src/stm32f3xx_hal_rcc.c ****   }
 1905              		.loc 1 339 12 view .LVU549
 1906 05dc 0120     		movs	r0, #1
 1907              	.LVL142:
 662:Drivers/STM32F3xx_HAL_Driver/Src/stm32f3xx_hal_rcc.c **** }
 1908              		.loc 1 662 1 view .LVU550
 1909 05de 7047     		bx	lr
 1910              	.LVL143:
 1911              	.L117:
 1912              	.LCFI4:
 1913              		.cfi_def_cfa_offset 24
 1914              		.cfi_offset 4, -16
 1915              		.cfi_offset 5, -12
 1916              		.cfi_offset 6, -8
 1917              		.cfi_offset 14, -4
 357:Drivers/STM32F3xx_HAL_Driver/Src/stm32f3xx_hal_rcc.c ****       }
 1918              		.loc 1 357 16 view .LVU551
 1919 05e0 0120     		movs	r0, #1
 1920              	.LVL144:
 357:Drivers/STM32F3xx_HAL_Driver/Src/stm32f3xx_hal_rcc.c ****       }
 1921              		.loc 1 357 16 view .LVU552
 1922 05e2 06E0     		b	.L21
 1923              	.L97:
 415:Drivers/STM32F3xx_HAL_Driver/Src/stm32f3xx_hal_rcc.c ****       }
ARM GAS  /var/folders/8c/gyvcglfx7f97kbqb2h83mm_r0000gn/T//ccp8Q8gW.s 			page 61


 1924              		.loc 1 415 16 view .LVU553
 1925 05e4 0120     		movs	r0, #1
 1926 05e6 04E0     		b	.L21
 1927              	.LVL145:
 1928              	.L104:
 1929              	.LBB259:
 554:Drivers/STM32F3xx_HAL_Driver/Src/stm32f3xx_hal_rcc.c ****         }
 1930              		.loc 1 554 18 view .LVU554
 1931 05e8 0320     		movs	r0, #3
 1932 05ea 02E0     		b	.L21
 1933              	.L105:
 568:Drivers/STM32F3xx_HAL_Driver/Src/stm32f3xx_hal_rcc.c ****         }
 1934              		.loc 1 568 18 view .LVU555
 1935 05ec 0320     		movs	r0, #3
 1936 05ee 00E0     		b	.L21
 1937              	.LVL146:
 1938              	.L106:
 568:Drivers/STM32F3xx_HAL_Driver/Src/stm32f3xx_hal_rcc.c ****         }
 1939              		.loc 1 568 18 view .LVU556
 1940              	.LBE259:
 661:Drivers/STM32F3xx_HAL_Driver/Src/stm32f3xx_hal_rcc.c **** }
 1941              		.loc 1 661 10 view .LVU557
 1942 05f0 0020     		movs	r0, #0
 1943              	.LVL147:
 1944              	.L21:
 1945              		.loc 1 662 1 view .LVU558
 1946 05f2 02B0     		add	sp, sp, #8
 1947              	.LCFI5:
 1948              		.cfi_remember_state
 1949              		.cfi_def_cfa_offset 16
 1950              		@ sp needed
 1951 05f4 70BD     		pop	{r4, r5, r6, pc}
 1952              	.LVL148:
 1953              	.L107:
 1954              	.LCFI6:
 1955              		.cfi_restore_state
 657:Drivers/STM32F3xx_HAL_Driver/Src/stm32f3xx_hal_rcc.c ****     }
 1956              		.loc 1 657 14 view .LVU559
 1957 05f6 0120     		movs	r0, #1
 1958 05f8 FBE7     		b	.L21
 1959              	.L132:
 1960 05fa 00BF     		.align	2
 1961              	.L131:
 1962 05fc 20819010 		.word	277905696
 1963 0600 00100240 		.word	1073876992
 1964 0604 00700040 		.word	1073770496
 1965              		.cfi_endproc
 1966              	.LFE127:
 1968              		.section	.text.HAL_RCC_MCOConfig,"ax",%progbits
 1969              		.align	1
 1970              		.global	HAL_RCC_MCOConfig
 1971              		.syntax unified
 1972              		.thumb
 1973              		.thumb_func
 1974              		.fpu fpv4-sp-d16
 1976              	HAL_RCC_MCOConfig:
 1977              	.LVL149:
ARM GAS  /var/folders/8c/gyvcglfx7f97kbqb2h83mm_r0000gn/T//ccp8Q8gW.s 			page 62


 1978              	.LFB129:
 663:Drivers/STM32F3xx_HAL_Driver/Src/stm32f3xx_hal_rcc.c **** 
 664:Drivers/STM32F3xx_HAL_Driver/Src/stm32f3xx_hal_rcc.c **** /**
 665:Drivers/STM32F3xx_HAL_Driver/Src/stm32f3xx_hal_rcc.c ****   * @brief  Initializes the CPU, AHB and APB buses clocks according to the specified 
 666:Drivers/STM32F3xx_HAL_Driver/Src/stm32f3xx_hal_rcc.c ****   *         parameters in the RCC_ClkInitStruct.
 667:Drivers/STM32F3xx_HAL_Driver/Src/stm32f3xx_hal_rcc.c ****   * @param  RCC_ClkInitStruct pointer to an RCC_OscInitTypeDef structure that
 668:Drivers/STM32F3xx_HAL_Driver/Src/stm32f3xx_hal_rcc.c ****   *         contains the configuration information for the RCC peripheral.
 669:Drivers/STM32F3xx_HAL_Driver/Src/stm32f3xx_hal_rcc.c ****   * @param  FLatency FLASH Latency                   
 670:Drivers/STM32F3xx_HAL_Driver/Src/stm32f3xx_hal_rcc.c ****   *          The value of this parameter depend on device used within the same series
 671:Drivers/STM32F3xx_HAL_Driver/Src/stm32f3xx_hal_rcc.c ****   * @note   The SystemCoreClock CMSIS variable is used to store System Clock Frequency 
 672:Drivers/STM32F3xx_HAL_Driver/Src/stm32f3xx_hal_rcc.c ****   *         and updated by @ref HAL_RCC_GetHCLKFreq() function called within this function
 673:Drivers/STM32F3xx_HAL_Driver/Src/stm32f3xx_hal_rcc.c ****   *
 674:Drivers/STM32F3xx_HAL_Driver/Src/stm32f3xx_hal_rcc.c ****   * @note   The HSI is used (enabled by hardware) as system clock source after
 675:Drivers/STM32F3xx_HAL_Driver/Src/stm32f3xx_hal_rcc.c ****   *         start-up from Reset, wake-up from STOP and STANDBY mode, or in case
 676:Drivers/STM32F3xx_HAL_Driver/Src/stm32f3xx_hal_rcc.c ****   *         of failure of the HSE used directly or indirectly as system clock
 677:Drivers/STM32F3xx_HAL_Driver/Src/stm32f3xx_hal_rcc.c ****   *         (if the Clock Security System CSS is enabled).
 678:Drivers/STM32F3xx_HAL_Driver/Src/stm32f3xx_hal_rcc.c ****   *           
 679:Drivers/STM32F3xx_HAL_Driver/Src/stm32f3xx_hal_rcc.c ****   * @note   A switch from one clock source to another occurs only if the target
 680:Drivers/STM32F3xx_HAL_Driver/Src/stm32f3xx_hal_rcc.c ****   *         clock source is ready (clock stable after start-up delay or PLL locked). 
 681:Drivers/STM32F3xx_HAL_Driver/Src/stm32f3xx_hal_rcc.c ****   *         If a clock source which is not yet ready is selected, the switch will
 682:Drivers/STM32F3xx_HAL_Driver/Src/stm32f3xx_hal_rcc.c ****   *         occur when the clock source will be ready. 
 683:Drivers/STM32F3xx_HAL_Driver/Src/stm32f3xx_hal_rcc.c ****   *         You can use @ref HAL_RCC_GetClockConfig() function to know which clock is
 684:Drivers/STM32F3xx_HAL_Driver/Src/stm32f3xx_hal_rcc.c ****   *         currently used as system clock source.
 685:Drivers/STM32F3xx_HAL_Driver/Src/stm32f3xx_hal_rcc.c ****   * @retval HAL status
 686:Drivers/STM32F3xx_HAL_Driver/Src/stm32f3xx_hal_rcc.c ****   */
 687:Drivers/STM32F3xx_HAL_Driver/Src/stm32f3xx_hal_rcc.c **** HAL_StatusTypeDef HAL_RCC_ClockConfig(RCC_ClkInitTypeDef  *RCC_ClkInitStruct, uint32_t FLatency)
 688:Drivers/STM32F3xx_HAL_Driver/Src/stm32f3xx_hal_rcc.c **** {
 689:Drivers/STM32F3xx_HAL_Driver/Src/stm32f3xx_hal_rcc.c ****   uint32_t tickstart = 0U;
 690:Drivers/STM32F3xx_HAL_Driver/Src/stm32f3xx_hal_rcc.c **** 
 691:Drivers/STM32F3xx_HAL_Driver/Src/stm32f3xx_hal_rcc.c ****   /* Check Null pointer */
 692:Drivers/STM32F3xx_HAL_Driver/Src/stm32f3xx_hal_rcc.c ****   if(RCC_ClkInitStruct == NULL)
 693:Drivers/STM32F3xx_HAL_Driver/Src/stm32f3xx_hal_rcc.c ****   {
 694:Drivers/STM32F3xx_HAL_Driver/Src/stm32f3xx_hal_rcc.c ****     return HAL_ERROR;
 695:Drivers/STM32F3xx_HAL_Driver/Src/stm32f3xx_hal_rcc.c ****   }
 696:Drivers/STM32F3xx_HAL_Driver/Src/stm32f3xx_hal_rcc.c **** 
 697:Drivers/STM32F3xx_HAL_Driver/Src/stm32f3xx_hal_rcc.c ****   /* Check the parameters */
 698:Drivers/STM32F3xx_HAL_Driver/Src/stm32f3xx_hal_rcc.c ****   assert_param(IS_RCC_CLOCKTYPE(RCC_ClkInitStruct->ClockType));
 699:Drivers/STM32F3xx_HAL_Driver/Src/stm32f3xx_hal_rcc.c ****   assert_param(IS_FLASH_LATENCY(FLatency));
 700:Drivers/STM32F3xx_HAL_Driver/Src/stm32f3xx_hal_rcc.c **** 
 701:Drivers/STM32F3xx_HAL_Driver/Src/stm32f3xx_hal_rcc.c ****   /* To correctly read data from FLASH memory, the number of wait states (LATENCY) 
 702:Drivers/STM32F3xx_HAL_Driver/Src/stm32f3xx_hal_rcc.c ****   must be correctly programmed according to the frequency of the CPU clock 
 703:Drivers/STM32F3xx_HAL_Driver/Src/stm32f3xx_hal_rcc.c ****     (HCLK) of the device. */
 704:Drivers/STM32F3xx_HAL_Driver/Src/stm32f3xx_hal_rcc.c **** 
 705:Drivers/STM32F3xx_HAL_Driver/Src/stm32f3xx_hal_rcc.c ****   /* Increasing the number of wait states because of higher CPU frequency */
 706:Drivers/STM32F3xx_HAL_Driver/Src/stm32f3xx_hal_rcc.c ****   if(FLatency > __HAL_FLASH_GET_LATENCY())
 707:Drivers/STM32F3xx_HAL_Driver/Src/stm32f3xx_hal_rcc.c ****   {    
 708:Drivers/STM32F3xx_HAL_Driver/Src/stm32f3xx_hal_rcc.c ****     /* Program the new number of wait states to the LATENCY bits in the FLASH_ACR register */
 709:Drivers/STM32F3xx_HAL_Driver/Src/stm32f3xx_hal_rcc.c ****     __HAL_FLASH_SET_LATENCY(FLatency);
 710:Drivers/STM32F3xx_HAL_Driver/Src/stm32f3xx_hal_rcc.c ****     
 711:Drivers/STM32F3xx_HAL_Driver/Src/stm32f3xx_hal_rcc.c ****     /* Check that the new number of wait states is taken into account to access the Flash
 712:Drivers/STM32F3xx_HAL_Driver/Src/stm32f3xx_hal_rcc.c ****     memory by reading the FLASH_ACR register */
 713:Drivers/STM32F3xx_HAL_Driver/Src/stm32f3xx_hal_rcc.c ****     if(__HAL_FLASH_GET_LATENCY() != FLatency)
 714:Drivers/STM32F3xx_HAL_Driver/Src/stm32f3xx_hal_rcc.c ****     {
 715:Drivers/STM32F3xx_HAL_Driver/Src/stm32f3xx_hal_rcc.c ****       return HAL_ERROR;
 716:Drivers/STM32F3xx_HAL_Driver/Src/stm32f3xx_hal_rcc.c ****     }
 717:Drivers/STM32F3xx_HAL_Driver/Src/stm32f3xx_hal_rcc.c ****   }
 718:Drivers/STM32F3xx_HAL_Driver/Src/stm32f3xx_hal_rcc.c **** 
ARM GAS  /var/folders/8c/gyvcglfx7f97kbqb2h83mm_r0000gn/T//ccp8Q8gW.s 			page 63


 719:Drivers/STM32F3xx_HAL_Driver/Src/stm32f3xx_hal_rcc.c ****   /*-------------------------- HCLK Configuration --------------------------*/
 720:Drivers/STM32F3xx_HAL_Driver/Src/stm32f3xx_hal_rcc.c ****   if(((RCC_ClkInitStruct->ClockType) & RCC_CLOCKTYPE_HCLK) == RCC_CLOCKTYPE_HCLK)
 721:Drivers/STM32F3xx_HAL_Driver/Src/stm32f3xx_hal_rcc.c ****   {
 722:Drivers/STM32F3xx_HAL_Driver/Src/stm32f3xx_hal_rcc.c ****     assert_param(IS_RCC_HCLK(RCC_ClkInitStruct->AHBCLKDivider));
 723:Drivers/STM32F3xx_HAL_Driver/Src/stm32f3xx_hal_rcc.c ****     MODIFY_REG(RCC->CFGR, RCC_CFGR_HPRE, RCC_ClkInitStruct->AHBCLKDivider);
 724:Drivers/STM32F3xx_HAL_Driver/Src/stm32f3xx_hal_rcc.c ****   }
 725:Drivers/STM32F3xx_HAL_Driver/Src/stm32f3xx_hal_rcc.c **** 
 726:Drivers/STM32F3xx_HAL_Driver/Src/stm32f3xx_hal_rcc.c ****   /*------------------------- SYSCLK Configuration ---------------------------*/ 
 727:Drivers/STM32F3xx_HAL_Driver/Src/stm32f3xx_hal_rcc.c ****   if(((RCC_ClkInitStruct->ClockType) & RCC_CLOCKTYPE_SYSCLK) == RCC_CLOCKTYPE_SYSCLK)
 728:Drivers/STM32F3xx_HAL_Driver/Src/stm32f3xx_hal_rcc.c ****   {    
 729:Drivers/STM32F3xx_HAL_Driver/Src/stm32f3xx_hal_rcc.c ****     assert_param(IS_RCC_SYSCLKSOURCE(RCC_ClkInitStruct->SYSCLKSource));
 730:Drivers/STM32F3xx_HAL_Driver/Src/stm32f3xx_hal_rcc.c ****     
 731:Drivers/STM32F3xx_HAL_Driver/Src/stm32f3xx_hal_rcc.c ****     /* HSE is selected as System Clock Source */
 732:Drivers/STM32F3xx_HAL_Driver/Src/stm32f3xx_hal_rcc.c ****     if(RCC_ClkInitStruct->SYSCLKSource == RCC_SYSCLKSOURCE_HSE)
 733:Drivers/STM32F3xx_HAL_Driver/Src/stm32f3xx_hal_rcc.c ****     {
 734:Drivers/STM32F3xx_HAL_Driver/Src/stm32f3xx_hal_rcc.c ****       /* Check the HSE ready flag */  
 735:Drivers/STM32F3xx_HAL_Driver/Src/stm32f3xx_hal_rcc.c ****       if(__HAL_RCC_GET_FLAG(RCC_FLAG_HSERDY) == RESET)
 736:Drivers/STM32F3xx_HAL_Driver/Src/stm32f3xx_hal_rcc.c ****       {
 737:Drivers/STM32F3xx_HAL_Driver/Src/stm32f3xx_hal_rcc.c ****         return HAL_ERROR;
 738:Drivers/STM32F3xx_HAL_Driver/Src/stm32f3xx_hal_rcc.c ****       }
 739:Drivers/STM32F3xx_HAL_Driver/Src/stm32f3xx_hal_rcc.c ****     }
 740:Drivers/STM32F3xx_HAL_Driver/Src/stm32f3xx_hal_rcc.c ****     /* PLL is selected as System Clock Source */
 741:Drivers/STM32F3xx_HAL_Driver/Src/stm32f3xx_hal_rcc.c ****     else if(RCC_ClkInitStruct->SYSCLKSource == RCC_SYSCLKSOURCE_PLLCLK)
 742:Drivers/STM32F3xx_HAL_Driver/Src/stm32f3xx_hal_rcc.c ****     {
 743:Drivers/STM32F3xx_HAL_Driver/Src/stm32f3xx_hal_rcc.c ****       /* Check the PLL ready flag */  
 744:Drivers/STM32F3xx_HAL_Driver/Src/stm32f3xx_hal_rcc.c ****       if(__HAL_RCC_GET_FLAG(RCC_FLAG_PLLRDY) == RESET)
 745:Drivers/STM32F3xx_HAL_Driver/Src/stm32f3xx_hal_rcc.c ****       {
 746:Drivers/STM32F3xx_HAL_Driver/Src/stm32f3xx_hal_rcc.c ****         return HAL_ERROR;
 747:Drivers/STM32F3xx_HAL_Driver/Src/stm32f3xx_hal_rcc.c ****       }
 748:Drivers/STM32F3xx_HAL_Driver/Src/stm32f3xx_hal_rcc.c ****     }
 749:Drivers/STM32F3xx_HAL_Driver/Src/stm32f3xx_hal_rcc.c ****     /* HSI is selected as System Clock Source */
 750:Drivers/STM32F3xx_HAL_Driver/Src/stm32f3xx_hal_rcc.c ****     else
 751:Drivers/STM32F3xx_HAL_Driver/Src/stm32f3xx_hal_rcc.c ****     {
 752:Drivers/STM32F3xx_HAL_Driver/Src/stm32f3xx_hal_rcc.c ****       /* Check the HSI ready flag */  
 753:Drivers/STM32F3xx_HAL_Driver/Src/stm32f3xx_hal_rcc.c ****       if(__HAL_RCC_GET_FLAG(RCC_FLAG_HSIRDY) == RESET)
 754:Drivers/STM32F3xx_HAL_Driver/Src/stm32f3xx_hal_rcc.c ****       {
 755:Drivers/STM32F3xx_HAL_Driver/Src/stm32f3xx_hal_rcc.c ****         return HAL_ERROR;
 756:Drivers/STM32F3xx_HAL_Driver/Src/stm32f3xx_hal_rcc.c ****       }
 757:Drivers/STM32F3xx_HAL_Driver/Src/stm32f3xx_hal_rcc.c ****     }
 758:Drivers/STM32F3xx_HAL_Driver/Src/stm32f3xx_hal_rcc.c **** 
 759:Drivers/STM32F3xx_HAL_Driver/Src/stm32f3xx_hal_rcc.c ****     __HAL_RCC_SYSCLK_CONFIG(RCC_ClkInitStruct->SYSCLKSource);
 760:Drivers/STM32F3xx_HAL_Driver/Src/stm32f3xx_hal_rcc.c **** 
 761:Drivers/STM32F3xx_HAL_Driver/Src/stm32f3xx_hal_rcc.c ****     /* Get Start Tick */
 762:Drivers/STM32F3xx_HAL_Driver/Src/stm32f3xx_hal_rcc.c ****     tickstart = HAL_GetTick();
 763:Drivers/STM32F3xx_HAL_Driver/Src/stm32f3xx_hal_rcc.c ****     
 764:Drivers/STM32F3xx_HAL_Driver/Src/stm32f3xx_hal_rcc.c ****     while (__HAL_RCC_GET_SYSCLK_SOURCE() != (RCC_ClkInitStruct->SYSCLKSource << RCC_CFGR_SWS_Pos))
 765:Drivers/STM32F3xx_HAL_Driver/Src/stm32f3xx_hal_rcc.c ****     {
 766:Drivers/STM32F3xx_HAL_Driver/Src/stm32f3xx_hal_rcc.c ****       if ((HAL_GetTick() - tickstart) > CLOCKSWITCH_TIMEOUT_VALUE)
 767:Drivers/STM32F3xx_HAL_Driver/Src/stm32f3xx_hal_rcc.c ****       {
 768:Drivers/STM32F3xx_HAL_Driver/Src/stm32f3xx_hal_rcc.c ****         return HAL_TIMEOUT;
 769:Drivers/STM32F3xx_HAL_Driver/Src/stm32f3xx_hal_rcc.c ****       }
 770:Drivers/STM32F3xx_HAL_Driver/Src/stm32f3xx_hal_rcc.c ****     }
 771:Drivers/STM32F3xx_HAL_Driver/Src/stm32f3xx_hal_rcc.c ****   }
 772:Drivers/STM32F3xx_HAL_Driver/Src/stm32f3xx_hal_rcc.c ****   /* Decreasing the number of wait states because of lower CPU frequency */
 773:Drivers/STM32F3xx_HAL_Driver/Src/stm32f3xx_hal_rcc.c ****   if(FLatency < __HAL_FLASH_GET_LATENCY())
 774:Drivers/STM32F3xx_HAL_Driver/Src/stm32f3xx_hal_rcc.c ****   {    
 775:Drivers/STM32F3xx_HAL_Driver/Src/stm32f3xx_hal_rcc.c ****     /* Program the new number of wait states to the LATENCY bits in the FLASH_ACR register */
ARM GAS  /var/folders/8c/gyvcglfx7f97kbqb2h83mm_r0000gn/T//ccp8Q8gW.s 			page 64


 776:Drivers/STM32F3xx_HAL_Driver/Src/stm32f3xx_hal_rcc.c ****     __HAL_FLASH_SET_LATENCY(FLatency);
 777:Drivers/STM32F3xx_HAL_Driver/Src/stm32f3xx_hal_rcc.c ****     
 778:Drivers/STM32F3xx_HAL_Driver/Src/stm32f3xx_hal_rcc.c ****     /* Check that the new number of wait states is taken into account to access the Flash
 779:Drivers/STM32F3xx_HAL_Driver/Src/stm32f3xx_hal_rcc.c ****     memory by reading the FLASH_ACR register */
 780:Drivers/STM32F3xx_HAL_Driver/Src/stm32f3xx_hal_rcc.c ****     if(__HAL_FLASH_GET_LATENCY() != FLatency)
 781:Drivers/STM32F3xx_HAL_Driver/Src/stm32f3xx_hal_rcc.c ****     {
 782:Drivers/STM32F3xx_HAL_Driver/Src/stm32f3xx_hal_rcc.c ****       return HAL_ERROR;
 783:Drivers/STM32F3xx_HAL_Driver/Src/stm32f3xx_hal_rcc.c ****     }
 784:Drivers/STM32F3xx_HAL_Driver/Src/stm32f3xx_hal_rcc.c ****   }    
 785:Drivers/STM32F3xx_HAL_Driver/Src/stm32f3xx_hal_rcc.c **** 
 786:Drivers/STM32F3xx_HAL_Driver/Src/stm32f3xx_hal_rcc.c ****   /*-------------------------- PCLK1 Configuration ---------------------------*/ 
 787:Drivers/STM32F3xx_HAL_Driver/Src/stm32f3xx_hal_rcc.c ****   if(((RCC_ClkInitStruct->ClockType) & RCC_CLOCKTYPE_PCLK1) == RCC_CLOCKTYPE_PCLK1)
 788:Drivers/STM32F3xx_HAL_Driver/Src/stm32f3xx_hal_rcc.c ****   {
 789:Drivers/STM32F3xx_HAL_Driver/Src/stm32f3xx_hal_rcc.c ****     assert_param(IS_RCC_PCLK(RCC_ClkInitStruct->APB1CLKDivider));
 790:Drivers/STM32F3xx_HAL_Driver/Src/stm32f3xx_hal_rcc.c ****     MODIFY_REG(RCC->CFGR, RCC_CFGR_PPRE1, RCC_ClkInitStruct->APB1CLKDivider);
 791:Drivers/STM32F3xx_HAL_Driver/Src/stm32f3xx_hal_rcc.c ****   }
 792:Drivers/STM32F3xx_HAL_Driver/Src/stm32f3xx_hal_rcc.c ****   
 793:Drivers/STM32F3xx_HAL_Driver/Src/stm32f3xx_hal_rcc.c ****   /*-------------------------- PCLK2 Configuration ---------------------------*/ 
 794:Drivers/STM32F3xx_HAL_Driver/Src/stm32f3xx_hal_rcc.c ****   if(((RCC_ClkInitStruct->ClockType) & RCC_CLOCKTYPE_PCLK2) == RCC_CLOCKTYPE_PCLK2)
 795:Drivers/STM32F3xx_HAL_Driver/Src/stm32f3xx_hal_rcc.c ****   {
 796:Drivers/STM32F3xx_HAL_Driver/Src/stm32f3xx_hal_rcc.c ****     assert_param(IS_RCC_PCLK(RCC_ClkInitStruct->APB2CLKDivider));
 797:Drivers/STM32F3xx_HAL_Driver/Src/stm32f3xx_hal_rcc.c ****     MODIFY_REG(RCC->CFGR, RCC_CFGR_PPRE2, ((RCC_ClkInitStruct->APB2CLKDivider) << 3U));
 798:Drivers/STM32F3xx_HAL_Driver/Src/stm32f3xx_hal_rcc.c ****   }
 799:Drivers/STM32F3xx_HAL_Driver/Src/stm32f3xx_hal_rcc.c ****  
 800:Drivers/STM32F3xx_HAL_Driver/Src/stm32f3xx_hal_rcc.c ****   /* Update the SystemCoreClock global variable */
 801:Drivers/STM32F3xx_HAL_Driver/Src/stm32f3xx_hal_rcc.c ****   SystemCoreClock = HAL_RCC_GetSysClockFreq() >> AHBPrescTable[(RCC->CFGR & RCC_CFGR_HPRE)>> RCC_CF
 802:Drivers/STM32F3xx_HAL_Driver/Src/stm32f3xx_hal_rcc.c **** 
 803:Drivers/STM32F3xx_HAL_Driver/Src/stm32f3xx_hal_rcc.c ****   /* Configure the source of time base considering new system clocks settings*/
 804:Drivers/STM32F3xx_HAL_Driver/Src/stm32f3xx_hal_rcc.c ****   HAL_InitTick (TICK_INT_PRIORITY);
 805:Drivers/STM32F3xx_HAL_Driver/Src/stm32f3xx_hal_rcc.c ****   
 806:Drivers/STM32F3xx_HAL_Driver/Src/stm32f3xx_hal_rcc.c ****   return HAL_OK;
 807:Drivers/STM32F3xx_HAL_Driver/Src/stm32f3xx_hal_rcc.c **** }
 808:Drivers/STM32F3xx_HAL_Driver/Src/stm32f3xx_hal_rcc.c **** 
 809:Drivers/STM32F3xx_HAL_Driver/Src/stm32f3xx_hal_rcc.c **** /**
 810:Drivers/STM32F3xx_HAL_Driver/Src/stm32f3xx_hal_rcc.c ****   * @}
 811:Drivers/STM32F3xx_HAL_Driver/Src/stm32f3xx_hal_rcc.c ****   */
 812:Drivers/STM32F3xx_HAL_Driver/Src/stm32f3xx_hal_rcc.c **** 
 813:Drivers/STM32F3xx_HAL_Driver/Src/stm32f3xx_hal_rcc.c **** /** @defgroup RCC_Exported_Functions_Group2 Peripheral Control functions
 814:Drivers/STM32F3xx_HAL_Driver/Src/stm32f3xx_hal_rcc.c ****   *  @brief   RCC clocks control functions
 815:Drivers/STM32F3xx_HAL_Driver/Src/stm32f3xx_hal_rcc.c ****   *
 816:Drivers/STM32F3xx_HAL_Driver/Src/stm32f3xx_hal_rcc.c ****   @verbatim   
 817:Drivers/STM32F3xx_HAL_Driver/Src/stm32f3xx_hal_rcc.c ****   ===============================================================================
 818:Drivers/STM32F3xx_HAL_Driver/Src/stm32f3xx_hal_rcc.c ****                   ##### Peripheral Control functions #####
 819:Drivers/STM32F3xx_HAL_Driver/Src/stm32f3xx_hal_rcc.c ****   ===============================================================================  
 820:Drivers/STM32F3xx_HAL_Driver/Src/stm32f3xx_hal_rcc.c ****     [..]
 821:Drivers/STM32F3xx_HAL_Driver/Src/stm32f3xx_hal_rcc.c ****     This subsection provides a set of functions allowing to control the RCC Clocks 
 822:Drivers/STM32F3xx_HAL_Driver/Src/stm32f3xx_hal_rcc.c ****     frequencies.
 823:Drivers/STM32F3xx_HAL_Driver/Src/stm32f3xx_hal_rcc.c **** 
 824:Drivers/STM32F3xx_HAL_Driver/Src/stm32f3xx_hal_rcc.c ****   @endverbatim
 825:Drivers/STM32F3xx_HAL_Driver/Src/stm32f3xx_hal_rcc.c ****   * @{
 826:Drivers/STM32F3xx_HAL_Driver/Src/stm32f3xx_hal_rcc.c ****   */
 827:Drivers/STM32F3xx_HAL_Driver/Src/stm32f3xx_hal_rcc.c **** 
 828:Drivers/STM32F3xx_HAL_Driver/Src/stm32f3xx_hal_rcc.c **** #if defined(RCC_CFGR_MCOPRE)
 829:Drivers/STM32F3xx_HAL_Driver/Src/stm32f3xx_hal_rcc.c **** /**
 830:Drivers/STM32F3xx_HAL_Driver/Src/stm32f3xx_hal_rcc.c ****   * @brief  Selects the clock source to output on MCO pin.
 831:Drivers/STM32F3xx_HAL_Driver/Src/stm32f3xx_hal_rcc.c ****   * @note   MCO pin should be configured in alternate function mode.
 832:Drivers/STM32F3xx_HAL_Driver/Src/stm32f3xx_hal_rcc.c ****   * @param  RCC_MCOx specifies the output direction for the clock source.
ARM GAS  /var/folders/8c/gyvcglfx7f97kbqb2h83mm_r0000gn/T//ccp8Q8gW.s 			page 65


 833:Drivers/STM32F3xx_HAL_Driver/Src/stm32f3xx_hal_rcc.c ****   *          This parameter can be one of the following values:
 834:Drivers/STM32F3xx_HAL_Driver/Src/stm32f3xx_hal_rcc.c ****   *            @arg @ref RCC_MCO1 Clock source to output on MCO1 pin(PA8).
 835:Drivers/STM32F3xx_HAL_Driver/Src/stm32f3xx_hal_rcc.c ****   * @param  RCC_MCOSource specifies the clock source to output.
 836:Drivers/STM32F3xx_HAL_Driver/Src/stm32f3xx_hal_rcc.c ****   *          This parameter can be one of the following values:
 837:Drivers/STM32F3xx_HAL_Driver/Src/stm32f3xx_hal_rcc.c ****   *            @arg @ref RCC_MCO1SOURCE_NOCLOCK     No clock selected
 838:Drivers/STM32F3xx_HAL_Driver/Src/stm32f3xx_hal_rcc.c ****   *            @arg @ref RCC_MCO1SOURCE_SYSCLK      System Clock selected as MCO clock
 839:Drivers/STM32F3xx_HAL_Driver/Src/stm32f3xx_hal_rcc.c ****   *            @arg @ref RCC_MCO1SOURCE_HSI         HSI selected as MCO clock
 840:Drivers/STM32F3xx_HAL_Driver/Src/stm32f3xx_hal_rcc.c ****   *            @arg @ref RCC_MCO1SOURCE_HSE         HSE selected as MCO clock
 841:Drivers/STM32F3xx_HAL_Driver/Src/stm32f3xx_hal_rcc.c ****   *            @arg @ref RCC_MCO1SOURCE_LSI         LSI selected as MCO clock
 842:Drivers/STM32F3xx_HAL_Driver/Src/stm32f3xx_hal_rcc.c ****   *            @arg @ref RCC_MCO1SOURCE_LSE         LSE selected as MCO clock
 843:Drivers/STM32F3xx_HAL_Driver/Src/stm32f3xx_hal_rcc.c ****   *            @arg @ref RCC_MCO1SOURCE_PLLCLK      PLLCLK selected as MCO clock
 844:Drivers/STM32F3xx_HAL_Driver/Src/stm32f3xx_hal_rcc.c ****   *            @arg @ref RCC_MCO1SOURCE_PLLCLK_DIV2 PLLCLK Divided by 2 selected as MCO clock
 845:Drivers/STM32F3xx_HAL_Driver/Src/stm32f3xx_hal_rcc.c ****   * @param  RCC_MCODiv specifies the MCO DIV.
 846:Drivers/STM32F3xx_HAL_Driver/Src/stm32f3xx_hal_rcc.c ****   *          This parameter can be one of the following values:
 847:Drivers/STM32F3xx_HAL_Driver/Src/stm32f3xx_hal_rcc.c ****   *            @arg @ref RCC_MCODIV_1   no division applied to MCO clock
 848:Drivers/STM32F3xx_HAL_Driver/Src/stm32f3xx_hal_rcc.c ****   *            @arg @ref RCC_MCODIV_2   division by 2 applied to MCO clock
 849:Drivers/STM32F3xx_HAL_Driver/Src/stm32f3xx_hal_rcc.c ****   *            @arg @ref RCC_MCODIV_4   division by 4 applied to MCO clock
 850:Drivers/STM32F3xx_HAL_Driver/Src/stm32f3xx_hal_rcc.c ****   *            @arg @ref RCC_MCODIV_8   division by 8 applied to MCO clock
 851:Drivers/STM32F3xx_HAL_Driver/Src/stm32f3xx_hal_rcc.c ****   *            @arg @ref RCC_MCODIV_16  division by 16 applied to MCO clock
 852:Drivers/STM32F3xx_HAL_Driver/Src/stm32f3xx_hal_rcc.c ****   *            @arg @ref RCC_MCODIV_32  division by 32 applied to MCO clock
 853:Drivers/STM32F3xx_HAL_Driver/Src/stm32f3xx_hal_rcc.c ****   *            @arg @ref RCC_MCODIV_64  division by 64 applied to MCO clock
 854:Drivers/STM32F3xx_HAL_Driver/Src/stm32f3xx_hal_rcc.c ****   *            @arg @ref RCC_MCODIV_128 division by 128 applied to MCO clock
 855:Drivers/STM32F3xx_HAL_Driver/Src/stm32f3xx_hal_rcc.c ****   * @retval None
 856:Drivers/STM32F3xx_HAL_Driver/Src/stm32f3xx_hal_rcc.c ****   */
 857:Drivers/STM32F3xx_HAL_Driver/Src/stm32f3xx_hal_rcc.c **** #else
 858:Drivers/STM32F3xx_HAL_Driver/Src/stm32f3xx_hal_rcc.c **** /**
 859:Drivers/STM32F3xx_HAL_Driver/Src/stm32f3xx_hal_rcc.c ****   * @brief  Selects the clock source to output on MCO pin.
 860:Drivers/STM32F3xx_HAL_Driver/Src/stm32f3xx_hal_rcc.c ****   * @note   MCO pin should be configured in alternate function mode.
 861:Drivers/STM32F3xx_HAL_Driver/Src/stm32f3xx_hal_rcc.c ****   * @param  RCC_MCOx specifies the output direction for the clock source.
 862:Drivers/STM32F3xx_HAL_Driver/Src/stm32f3xx_hal_rcc.c ****   *          This parameter can be one of the following values:
 863:Drivers/STM32F3xx_HAL_Driver/Src/stm32f3xx_hal_rcc.c ****   *            @arg @ref RCC_MCO1 Clock source to output on MCO1 pin(PA8).
 864:Drivers/STM32F3xx_HAL_Driver/Src/stm32f3xx_hal_rcc.c ****   * @param  RCC_MCOSource specifies the clock source to output.
 865:Drivers/STM32F3xx_HAL_Driver/Src/stm32f3xx_hal_rcc.c ****   *          This parameter can be one of the following values:
 866:Drivers/STM32F3xx_HAL_Driver/Src/stm32f3xx_hal_rcc.c ****   *            @arg @ref RCC_MCO1SOURCE_NOCLOCK     No clock selected as MCO clock
 867:Drivers/STM32F3xx_HAL_Driver/Src/stm32f3xx_hal_rcc.c ****   *            @arg @ref RCC_MCO1SOURCE_SYSCLK      System clock selected as MCO clock
 868:Drivers/STM32F3xx_HAL_Driver/Src/stm32f3xx_hal_rcc.c ****   *            @arg @ref RCC_MCO1SOURCE_HSI         HSI selected as MCO clock
 869:Drivers/STM32F3xx_HAL_Driver/Src/stm32f3xx_hal_rcc.c ****   *            @arg @ref RCC_MCO1SOURCE_HSE         HSE selected as MCO clock
 870:Drivers/STM32F3xx_HAL_Driver/Src/stm32f3xx_hal_rcc.c ****   *            @arg @ref RCC_MCO1SOURCE_LSI         LSI selected as MCO clock
 871:Drivers/STM32F3xx_HAL_Driver/Src/stm32f3xx_hal_rcc.c ****   *            @arg @ref RCC_MCO1SOURCE_LSE         LSE selected as MCO clock
 872:Drivers/STM32F3xx_HAL_Driver/Src/stm32f3xx_hal_rcc.c ****   *            @arg @ref RCC_MCO1SOURCE_PLLCLK_DIV2 PLLCLK Divided by 2 selected as MCO clock
 873:Drivers/STM32F3xx_HAL_Driver/Src/stm32f3xx_hal_rcc.c ****   * @param  RCC_MCODiv specifies the MCO DIV.
 874:Drivers/STM32F3xx_HAL_Driver/Src/stm32f3xx_hal_rcc.c ****   *          This parameter can be one of the following values:
 875:Drivers/STM32F3xx_HAL_Driver/Src/stm32f3xx_hal_rcc.c ****   *            @arg @ref RCC_MCODIV_1 no division applied to MCO clock
 876:Drivers/STM32F3xx_HAL_Driver/Src/stm32f3xx_hal_rcc.c ****   * @retval None
 877:Drivers/STM32F3xx_HAL_Driver/Src/stm32f3xx_hal_rcc.c ****   */
 878:Drivers/STM32F3xx_HAL_Driver/Src/stm32f3xx_hal_rcc.c **** #endif
 879:Drivers/STM32F3xx_HAL_Driver/Src/stm32f3xx_hal_rcc.c **** void HAL_RCC_MCOConfig(uint32_t RCC_MCOx, uint32_t RCC_MCOSource, uint32_t RCC_MCODiv)
 880:Drivers/STM32F3xx_HAL_Driver/Src/stm32f3xx_hal_rcc.c **** {
 1979              		.loc 1 880 1 is_stmt 1 view -0
 1980              		.cfi_startproc
 1981              		@ args = 0, pretend = 0, frame = 24
 1982              		@ frame_needed = 0, uses_anonymous_args = 0
 1983              		.loc 1 880 1 is_stmt 0 view .LVU561
 1984 0000 30B5     		push	{r4, r5, lr}
 1985              	.LCFI7:
 1986              		.cfi_def_cfa_offset 12
 1987              		.cfi_offset 4, -12
ARM GAS  /var/folders/8c/gyvcglfx7f97kbqb2h83mm_r0000gn/T//ccp8Q8gW.s 			page 66


 1988              		.cfi_offset 5, -8
 1989              		.cfi_offset 14, -4
 1990 0002 87B0     		sub	sp, sp, #28
 1991              	.LCFI8:
 1992              		.cfi_def_cfa_offset 40
 1993 0004 0D46     		mov	r5, r1
 881:Drivers/STM32F3xx_HAL_Driver/Src/stm32f3xx_hal_rcc.c ****   GPIO_InitTypeDef gpio;
 1994              		.loc 1 881 3 is_stmt 1 view .LVU562
 882:Drivers/STM32F3xx_HAL_Driver/Src/stm32f3xx_hal_rcc.c **** 
 883:Drivers/STM32F3xx_HAL_Driver/Src/stm32f3xx_hal_rcc.c ****   /* Check the parameters */
 884:Drivers/STM32F3xx_HAL_Driver/Src/stm32f3xx_hal_rcc.c ****   assert_param(IS_RCC_MCO(RCC_MCOx));
 1995              		.loc 1 884 3 view .LVU563
 885:Drivers/STM32F3xx_HAL_Driver/Src/stm32f3xx_hal_rcc.c ****   assert_param(IS_RCC_MCODIV(RCC_MCODiv));
 1996              		.loc 1 885 3 view .LVU564
 886:Drivers/STM32F3xx_HAL_Driver/Src/stm32f3xx_hal_rcc.c ****   assert_param(IS_RCC_MCO1SOURCE(RCC_MCOSource));
 1997              		.loc 1 886 3 view .LVU565
 887:Drivers/STM32F3xx_HAL_Driver/Src/stm32f3xx_hal_rcc.c ****   
 888:Drivers/STM32F3xx_HAL_Driver/Src/stm32f3xx_hal_rcc.c ****   /* Configure the MCO1 pin in alternate function mode */
 889:Drivers/STM32F3xx_HAL_Driver/Src/stm32f3xx_hal_rcc.c ****   gpio.Mode      = GPIO_MODE_AF_PP;
 1998              		.loc 1 889 3 view .LVU566
 1999              		.loc 1 889 18 is_stmt 0 view .LVU567
 2000 0006 0223     		movs	r3, #2
 2001 0008 0293     		str	r3, [sp, #8]
 890:Drivers/STM32F3xx_HAL_Driver/Src/stm32f3xx_hal_rcc.c ****   gpio.Speed     = GPIO_SPEED_FREQ_HIGH;
 2002              		.loc 1 890 3 is_stmt 1 view .LVU568
 2003              		.loc 1 890 18 is_stmt 0 view .LVU569
 2004 000a 0323     		movs	r3, #3
 2005 000c 0493     		str	r3, [sp, #16]
 891:Drivers/STM32F3xx_HAL_Driver/Src/stm32f3xx_hal_rcc.c ****   gpio.Pull      = GPIO_NOPULL;
 2006              		.loc 1 891 3 is_stmt 1 view .LVU570
 2007              		.loc 1 891 18 is_stmt 0 view .LVU571
 2008 000e 0023     		movs	r3, #0
 2009 0010 0393     		str	r3, [sp, #12]
 892:Drivers/STM32F3xx_HAL_Driver/Src/stm32f3xx_hal_rcc.c ****   gpio.Pin       = MCO1_PIN;
 2010              		.loc 1 892 3 is_stmt 1 view .LVU572
 2011              		.loc 1 892 18 is_stmt 0 view .LVU573
 2012 0012 4FF48072 		mov	r2, #256
 2013              	.LVL150:
 2014              		.loc 1 892 18 view .LVU574
 2015 0016 0192     		str	r2, [sp, #4]
 893:Drivers/STM32F3xx_HAL_Driver/Src/stm32f3xx_hal_rcc.c ****   gpio.Alternate = GPIO_AF0_MCO;
 2016              		.loc 1 893 3 is_stmt 1 view .LVU575
 2017              		.loc 1 893 18 is_stmt 0 view .LVU576
 2018 0018 0593     		str	r3, [sp, #20]
 894:Drivers/STM32F3xx_HAL_Driver/Src/stm32f3xx_hal_rcc.c **** 
 895:Drivers/STM32F3xx_HAL_Driver/Src/stm32f3xx_hal_rcc.c ****   /* MCO1 Clock Enable */
 896:Drivers/STM32F3xx_HAL_Driver/Src/stm32f3xx_hal_rcc.c ****   MCO1_CLK_ENABLE();
 2019              		.loc 1 896 3 is_stmt 1 view .LVU577
 2020              	.LBB260:
 2021              		.loc 1 896 3 view .LVU578
 2022              		.loc 1 896 3 view .LVU579
 2023 001a 0B4C     		ldr	r4, .L135
 2024 001c 6369     		ldr	r3, [r4, #20]
 2025 001e 43F40033 		orr	r3, r3, #131072
 2026 0022 6361     		str	r3, [r4, #20]
 2027              		.loc 1 896 3 view .LVU580
 2028 0024 6369     		ldr	r3, [r4, #20]
ARM GAS  /var/folders/8c/gyvcglfx7f97kbqb2h83mm_r0000gn/T//ccp8Q8gW.s 			page 67


 2029 0026 03F40033 		and	r3, r3, #131072
 2030 002a 0093     		str	r3, [sp]
 2031              		.loc 1 896 3 view .LVU581
 2032 002c 009B     		ldr	r3, [sp]
 2033              	.LBE260:
 897:Drivers/STM32F3xx_HAL_Driver/Src/stm32f3xx_hal_rcc.c ****   
 898:Drivers/STM32F3xx_HAL_Driver/Src/stm32f3xx_hal_rcc.c ****   HAL_GPIO_Init(MCO1_GPIO_PORT, &gpio);
 2034              		.loc 1 898 3 view .LVU582
 2035 002e 01A9     		add	r1, sp, #4
 2036              	.LVL151:
 2037              		.loc 1 898 3 is_stmt 0 view .LVU583
 2038 0030 4FF09040 		mov	r0, #1207959552
 2039              	.LVL152:
 2040              		.loc 1 898 3 view .LVU584
 2041 0034 FFF7FEFF 		bl	HAL_GPIO_Init
 2042              	.LVL153:
 899:Drivers/STM32F3xx_HAL_Driver/Src/stm32f3xx_hal_rcc.c ****   
 900:Drivers/STM32F3xx_HAL_Driver/Src/stm32f3xx_hal_rcc.c ****   /* Configure the MCO clock source */
 901:Drivers/STM32F3xx_HAL_Driver/Src/stm32f3xx_hal_rcc.c ****   __HAL_RCC_MCO1_CONFIG(RCC_MCOSource, RCC_MCODiv);
 2043              		.loc 1 901 3 is_stmt 1 view .LVU585
 2044 0038 6168     		ldr	r1, [r4, #4]
 2045 003a 21F0E061 		bic	r1, r1, #117440512
 2046 003e 2943     		orrs	r1, r1, r5
 2047 0040 6160     		str	r1, [r4, #4]
 902:Drivers/STM32F3xx_HAL_Driver/Src/stm32f3xx_hal_rcc.c **** }
 2048              		.loc 1 902 1 is_stmt 0 view .LVU586
 2049 0042 07B0     		add	sp, sp, #28
 2050              	.LCFI9:
 2051              		.cfi_def_cfa_offset 12
 2052              		@ sp needed
 2053 0044 30BD     		pop	{r4, r5, pc}
 2054              	.LVL154:
 2055              	.L136:
 2056              		.loc 1 902 1 view .LVU587
 2057 0046 00BF     		.align	2
 2058              	.L135:
 2059 0048 00100240 		.word	1073876992
 2060              		.cfi_endproc
 2061              	.LFE129:
 2063              		.section	.text.HAL_RCC_EnableCSS,"ax",%progbits
 2064              		.align	1
 2065              		.global	HAL_RCC_EnableCSS
 2066              		.syntax unified
 2067              		.thumb
 2068              		.thumb_func
 2069              		.fpu fpv4-sp-d16
 2071              	HAL_RCC_EnableCSS:
 2072              	.LFB130:
 903:Drivers/STM32F3xx_HAL_Driver/Src/stm32f3xx_hal_rcc.c **** 
 904:Drivers/STM32F3xx_HAL_Driver/Src/stm32f3xx_hal_rcc.c **** /**
 905:Drivers/STM32F3xx_HAL_Driver/Src/stm32f3xx_hal_rcc.c ****   * @brief  Enables the Clock Security System.
 906:Drivers/STM32F3xx_HAL_Driver/Src/stm32f3xx_hal_rcc.c ****   * @note   If a failure is detected on the HSE oscillator clock, this oscillator
 907:Drivers/STM32F3xx_HAL_Driver/Src/stm32f3xx_hal_rcc.c ****   *         is automatically disabled and an interrupt is generated to inform the
 908:Drivers/STM32F3xx_HAL_Driver/Src/stm32f3xx_hal_rcc.c ****   *         software about the failure (Clock Security System Interrupt, CSSI),
 909:Drivers/STM32F3xx_HAL_Driver/Src/stm32f3xx_hal_rcc.c ****   *         allowing the MCU to perform rescue operations. The CSSI is linked to 
 910:Drivers/STM32F3xx_HAL_Driver/Src/stm32f3xx_hal_rcc.c ****   *         the Cortex-M4 NMI (Non-Maskable Interrupt) exception vector.  
 911:Drivers/STM32F3xx_HAL_Driver/Src/stm32f3xx_hal_rcc.c ****   * @retval None
ARM GAS  /var/folders/8c/gyvcglfx7f97kbqb2h83mm_r0000gn/T//ccp8Q8gW.s 			page 68


 912:Drivers/STM32F3xx_HAL_Driver/Src/stm32f3xx_hal_rcc.c ****   */
 913:Drivers/STM32F3xx_HAL_Driver/Src/stm32f3xx_hal_rcc.c **** void HAL_RCC_EnableCSS(void)
 914:Drivers/STM32F3xx_HAL_Driver/Src/stm32f3xx_hal_rcc.c **** {
 2073              		.loc 1 914 1 is_stmt 1 view -0
 2074              		.cfi_startproc
 2075              		@ args = 0, pretend = 0, frame = 0
 2076              		@ frame_needed = 0, uses_anonymous_args = 0
 2077              		@ link register save eliminated.
 915:Drivers/STM32F3xx_HAL_Driver/Src/stm32f3xx_hal_rcc.c ****   *(__IO uint32_t *) RCC_CR_CSSON_BB = (uint32_t)ENABLE;
 2078              		.loc 1 915 3 view .LVU589
 2079              	.LVL155:
 2080              	.LBB261:
 2081              	.LBI261:
 526:Drivers/CMSIS/Include/cmsis_gcc.h **** {
 2082              		.loc 2 526 57 view .LVU590
 2083              	.LBB262:
 528:Drivers/CMSIS/Include/cmsis_gcc.h **** 
 2084              		.loc 2 528 3 view .LVU591
 531:Drivers/CMSIS/Include/cmsis_gcc.h **** #else
 2085              		.loc 2 531 4 view .LVU592
 2086 0000 4FF40023 		mov	r3, #524288
 2087              		.syntax unified
 2088              	@ 531 "Drivers/CMSIS/Include/cmsis_gcc.h" 1
 2089 0004 93FAA3F3 		rbit r3, r3
 2090              	@ 0 "" 2
 2091              	.LVL156:
 2092              		.loc 2 544 3 view .LVU593
 2093              		.loc 2 544 3 is_stmt 0 view .LVU594
 2094              		.thumb
 2095              		.syntax unified
 2096              	.LBE262:
 2097              	.LBE261:
 2098              		.loc 1 915 22 view .LVU595
 2099 0008 B3FA83F3 		clz	r3, r3
 2100 000c 03F18453 		add	r3, r3, #276824064
 2101 0010 03F58413 		add	r3, r3, #1081344
 2102 0014 9B00     		lsls	r3, r3, #2
 2103              		.loc 1 915 38 view .LVU596
 2104 0016 0122     		movs	r2, #1
 2105 0018 1A60     		str	r2, [r3]
 916:Drivers/STM32F3xx_HAL_Driver/Src/stm32f3xx_hal_rcc.c **** }
 2106              		.loc 1 916 1 view .LVU597
 2107 001a 7047     		bx	lr
 2108              		.cfi_endproc
 2109              	.LFE130:
 2111              		.section	.text.HAL_RCC_DisableCSS,"ax",%progbits
 2112              		.align	1
 2113              		.global	HAL_RCC_DisableCSS
 2114              		.syntax unified
 2115              		.thumb
 2116              		.thumb_func
 2117              		.fpu fpv4-sp-d16
 2119              	HAL_RCC_DisableCSS:
 2120              	.LFB131:
 917:Drivers/STM32F3xx_HAL_Driver/Src/stm32f3xx_hal_rcc.c **** 
 918:Drivers/STM32F3xx_HAL_Driver/Src/stm32f3xx_hal_rcc.c **** /**
 919:Drivers/STM32F3xx_HAL_Driver/Src/stm32f3xx_hal_rcc.c ****   * @brief  Disables the Clock Security System.
ARM GAS  /var/folders/8c/gyvcglfx7f97kbqb2h83mm_r0000gn/T//ccp8Q8gW.s 			page 69


 920:Drivers/STM32F3xx_HAL_Driver/Src/stm32f3xx_hal_rcc.c ****   * @retval None
 921:Drivers/STM32F3xx_HAL_Driver/Src/stm32f3xx_hal_rcc.c ****   */
 922:Drivers/STM32F3xx_HAL_Driver/Src/stm32f3xx_hal_rcc.c **** void HAL_RCC_DisableCSS(void)
 923:Drivers/STM32F3xx_HAL_Driver/Src/stm32f3xx_hal_rcc.c **** {
 2121              		.loc 1 923 1 is_stmt 1 view -0
 2122              		.cfi_startproc
 2123              		@ args = 0, pretend = 0, frame = 0
 2124              		@ frame_needed = 0, uses_anonymous_args = 0
 2125              		@ link register save eliminated.
 924:Drivers/STM32F3xx_HAL_Driver/Src/stm32f3xx_hal_rcc.c ****   *(__IO uint32_t *) RCC_CR_CSSON_BB = (uint32_t)DISABLE;
 2126              		.loc 1 924 3 view .LVU599
 2127              	.LVL157:
 2128              	.LBB263:
 2129              	.LBI263:
 526:Drivers/CMSIS/Include/cmsis_gcc.h **** {
 2130              		.loc 2 526 57 view .LVU600
 2131              	.LBB264:
 528:Drivers/CMSIS/Include/cmsis_gcc.h **** 
 2132              		.loc 2 528 3 view .LVU601
 531:Drivers/CMSIS/Include/cmsis_gcc.h **** #else
 2133              		.loc 2 531 4 view .LVU602
 2134 0000 4FF40023 		mov	r3, #524288
 2135              		.syntax unified
 2136              	@ 531 "Drivers/CMSIS/Include/cmsis_gcc.h" 1
 2137 0004 93FAA3F3 		rbit r3, r3
 2138              	@ 0 "" 2
 2139              	.LVL158:
 2140              		.loc 2 544 3 view .LVU603
 2141              		.loc 2 544 3 is_stmt 0 view .LVU604
 2142              		.thumb
 2143              		.syntax unified
 2144              	.LBE264:
 2145              	.LBE263:
 2146              		.loc 1 924 22 view .LVU605
 2147 0008 B3FA83F3 		clz	r3, r3
 2148 000c 03F18453 		add	r3, r3, #276824064
 2149 0010 03F58413 		add	r3, r3, #1081344
 2150 0014 9B00     		lsls	r3, r3, #2
 2151              		.loc 1 924 38 view .LVU606
 2152 0016 0022     		movs	r2, #0
 2153 0018 1A60     		str	r2, [r3]
 925:Drivers/STM32F3xx_HAL_Driver/Src/stm32f3xx_hal_rcc.c **** }
 2154              		.loc 1 925 1 view .LVU607
 2155 001a 7047     		bx	lr
 2156              		.cfi_endproc
 2157              	.LFE131:
 2159              		.section	.text.HAL_RCC_GetSysClockFreq,"ax",%progbits
 2160              		.align	1
 2161              		.global	HAL_RCC_GetSysClockFreq
 2162              		.syntax unified
 2163              		.thumb
 2164              		.thumb_func
 2165              		.fpu fpv4-sp-d16
 2167              	HAL_RCC_GetSysClockFreq:
 2168              	.LFB132:
 926:Drivers/STM32F3xx_HAL_Driver/Src/stm32f3xx_hal_rcc.c **** 
 927:Drivers/STM32F3xx_HAL_Driver/Src/stm32f3xx_hal_rcc.c **** /**
ARM GAS  /var/folders/8c/gyvcglfx7f97kbqb2h83mm_r0000gn/T//ccp8Q8gW.s 			page 70


 928:Drivers/STM32F3xx_HAL_Driver/Src/stm32f3xx_hal_rcc.c ****   * @brief  Returns the SYSCLK frequency     
 929:Drivers/STM32F3xx_HAL_Driver/Src/stm32f3xx_hal_rcc.c ****   * @note   The system frequency computed by this function is not the real 
 930:Drivers/STM32F3xx_HAL_Driver/Src/stm32f3xx_hal_rcc.c ****   *         frequency in the chip. It is calculated based on the predefined 
 931:Drivers/STM32F3xx_HAL_Driver/Src/stm32f3xx_hal_rcc.c ****   *         constant and the selected clock source:
 932:Drivers/STM32F3xx_HAL_Driver/Src/stm32f3xx_hal_rcc.c ****   * @note     If SYSCLK source is HSI, function returns values based on HSI_VALUE(*)
 933:Drivers/STM32F3xx_HAL_Driver/Src/stm32f3xx_hal_rcc.c ****   * @note     If SYSCLK source is HSE, function returns a value based on HSE_VALUE
 934:Drivers/STM32F3xx_HAL_Driver/Src/stm32f3xx_hal_rcc.c ****   *           divided by PREDIV factor(**)
 935:Drivers/STM32F3xx_HAL_Driver/Src/stm32f3xx_hal_rcc.c ****   * @note     If SYSCLK source is PLL, function returns a value based on HSE_VALUE
 936:Drivers/STM32F3xx_HAL_Driver/Src/stm32f3xx_hal_rcc.c ****   *           divided by PREDIV factor(**) or HSI_VALUE(*) multiplied by the PLL factor.
 937:Drivers/STM32F3xx_HAL_Driver/Src/stm32f3xx_hal_rcc.c ****   * @note     (*) HSI_VALUE is a constant defined in stm32f3xx_hal_conf.h file (default value
 938:Drivers/STM32F3xx_HAL_Driver/Src/stm32f3xx_hal_rcc.c ****   *               8 MHz) but the real value may vary depending on the variations
 939:Drivers/STM32F3xx_HAL_Driver/Src/stm32f3xx_hal_rcc.c ****   *               in voltage and temperature.
 940:Drivers/STM32F3xx_HAL_Driver/Src/stm32f3xx_hal_rcc.c ****   * @note     (**) HSE_VALUE is a constant defined in stm32f3xx_hal_conf.h file (default value
 941:Drivers/STM32F3xx_HAL_Driver/Src/stm32f3xx_hal_rcc.c ****   *                8 MHz), user has to ensure that HSE_VALUE is same as the real
 942:Drivers/STM32F3xx_HAL_Driver/Src/stm32f3xx_hal_rcc.c ****   *                frequency of the crystal used. Otherwise, this function may
 943:Drivers/STM32F3xx_HAL_Driver/Src/stm32f3xx_hal_rcc.c ****   *                have wrong result.
 944:Drivers/STM32F3xx_HAL_Driver/Src/stm32f3xx_hal_rcc.c ****   *                  
 945:Drivers/STM32F3xx_HAL_Driver/Src/stm32f3xx_hal_rcc.c ****   * @note   The result of this function could be not correct when using fractional
 946:Drivers/STM32F3xx_HAL_Driver/Src/stm32f3xx_hal_rcc.c ****   *         value for HSE crystal.
 947:Drivers/STM32F3xx_HAL_Driver/Src/stm32f3xx_hal_rcc.c ****   *           
 948:Drivers/STM32F3xx_HAL_Driver/Src/stm32f3xx_hal_rcc.c ****   * @note   This function can be used by the user application to compute the 
 949:Drivers/STM32F3xx_HAL_Driver/Src/stm32f3xx_hal_rcc.c ****   *         baud-rate for the communication peripherals or configure other parameters.
 950:Drivers/STM32F3xx_HAL_Driver/Src/stm32f3xx_hal_rcc.c ****   *           
 951:Drivers/STM32F3xx_HAL_Driver/Src/stm32f3xx_hal_rcc.c ****   * @note   Each time SYSCLK changes, this function must be called to update the
 952:Drivers/STM32F3xx_HAL_Driver/Src/stm32f3xx_hal_rcc.c ****   *         right SYSCLK value. Otherwise, any configuration based on this function will be incorre
 953:Drivers/STM32F3xx_HAL_Driver/Src/stm32f3xx_hal_rcc.c ****   *         
 954:Drivers/STM32F3xx_HAL_Driver/Src/stm32f3xx_hal_rcc.c ****   * @retval SYSCLK frequency
 955:Drivers/STM32F3xx_HAL_Driver/Src/stm32f3xx_hal_rcc.c ****   */
 956:Drivers/STM32F3xx_HAL_Driver/Src/stm32f3xx_hal_rcc.c **** uint32_t HAL_RCC_GetSysClockFreq(void)
 957:Drivers/STM32F3xx_HAL_Driver/Src/stm32f3xx_hal_rcc.c **** {
 2169              		.loc 1 957 1 is_stmt 1 view -0
 2170              		.cfi_startproc
 2171              		@ args = 0, pretend = 0, frame = 0
 2172              		@ frame_needed = 0, uses_anonymous_args = 0
 2173              		@ link register save eliminated.
 958:Drivers/STM32F3xx_HAL_Driver/Src/stm32f3xx_hal_rcc.c ****   uint32_t tmpreg = 0U, prediv = 0U, pllclk = 0U, pllmul = 0U;
 2174              		.loc 1 958 3 view .LVU609
 2175              	.LVL159:
 959:Drivers/STM32F3xx_HAL_Driver/Src/stm32f3xx_hal_rcc.c ****   uint32_t sysclockfreq = 0U;
 2176              		.loc 1 959 3 view .LVU610
 960:Drivers/STM32F3xx_HAL_Driver/Src/stm32f3xx_hal_rcc.c ****   
 961:Drivers/STM32F3xx_HAL_Driver/Src/stm32f3xx_hal_rcc.c ****   tmpreg = RCC->CFGR;
 2177              		.loc 1 961 3 view .LVU611
 2178              		.loc 1 961 10 is_stmt 0 view .LVU612
 2179 0000 164B     		ldr	r3, .L144
 2180 0002 5B68     		ldr	r3, [r3, #4]
 2181              	.LVL160:
 962:Drivers/STM32F3xx_HAL_Driver/Src/stm32f3xx_hal_rcc.c ****   
 963:Drivers/STM32F3xx_HAL_Driver/Src/stm32f3xx_hal_rcc.c ****   /* Get SYSCLK source -------------------------------------------------------*/
 964:Drivers/STM32F3xx_HAL_Driver/Src/stm32f3xx_hal_rcc.c ****   switch (tmpreg & RCC_CFGR_SWS)
 2182              		.loc 1 964 3 is_stmt 1 view .LVU613
 2183              		.loc 1 964 18 is_stmt 0 view .LVU614
 2184 0004 03F00C02 		and	r2, r3, #12
 2185              		.loc 1 964 3 view .LVU615
 2186 0008 082A     		cmp	r2, #8
 2187 000a 01D0     		beq	.L143
 965:Drivers/STM32F3xx_HAL_Driver/Src/stm32f3xx_hal_rcc.c ****   {
ARM GAS  /var/folders/8c/gyvcglfx7f97kbqb2h83mm_r0000gn/T//ccp8Q8gW.s 			page 71


 966:Drivers/STM32F3xx_HAL_Driver/Src/stm32f3xx_hal_rcc.c ****     case RCC_SYSCLKSOURCE_STATUS_HSE:  /* HSE used as system clock */
 967:Drivers/STM32F3xx_HAL_Driver/Src/stm32f3xx_hal_rcc.c ****     {
 968:Drivers/STM32F3xx_HAL_Driver/Src/stm32f3xx_hal_rcc.c ****       sysclockfreq = HSE_VALUE;
 2188              		.loc 1 968 20 view .LVU616
 2189 000c 1448     		ldr	r0, .L144+4
 2190              	.LVL161:
 969:Drivers/STM32F3xx_HAL_Driver/Src/stm32f3xx_hal_rcc.c ****       break;
 970:Drivers/STM32F3xx_HAL_Driver/Src/stm32f3xx_hal_rcc.c ****     }
 971:Drivers/STM32F3xx_HAL_Driver/Src/stm32f3xx_hal_rcc.c ****     case RCC_SYSCLKSOURCE_STATUS_PLLCLK:  /* PLL used as system clock */
 972:Drivers/STM32F3xx_HAL_Driver/Src/stm32f3xx_hal_rcc.c ****     {
 973:Drivers/STM32F3xx_HAL_Driver/Src/stm32f3xx_hal_rcc.c ****       pllmul = aPLLMULFactorTable[(uint32_t)(tmpreg & RCC_CFGR_PLLMUL) >> POSITION_VAL(RCC_CFGR_PLL
 974:Drivers/STM32F3xx_HAL_Driver/Src/stm32f3xx_hal_rcc.c ****       prediv = aPredivFactorTable[(uint32_t)(RCC->CFGR2 & RCC_CFGR2_PREDIV) >> POSITION_VAL(RCC_CFG
 975:Drivers/STM32F3xx_HAL_Driver/Src/stm32f3xx_hal_rcc.c **** #if defined(RCC_CFGR_PLLSRC_HSI_DIV2)
 976:Drivers/STM32F3xx_HAL_Driver/Src/stm32f3xx_hal_rcc.c ****       if ((tmpreg & RCC_CFGR_PLLSRC) != RCC_PLLSOURCE_HSI)
 977:Drivers/STM32F3xx_HAL_Driver/Src/stm32f3xx_hal_rcc.c ****       {
 978:Drivers/STM32F3xx_HAL_Driver/Src/stm32f3xx_hal_rcc.c ****         /* HSE used as PLL clock source : PLLCLK = HSE/PREDIV * PLLMUL */
 979:Drivers/STM32F3xx_HAL_Driver/Src/stm32f3xx_hal_rcc.c ****         pllclk = (HSE_VALUE / prediv) * pllmul;
 980:Drivers/STM32F3xx_HAL_Driver/Src/stm32f3xx_hal_rcc.c ****       }
 981:Drivers/STM32F3xx_HAL_Driver/Src/stm32f3xx_hal_rcc.c ****       else
 982:Drivers/STM32F3xx_HAL_Driver/Src/stm32f3xx_hal_rcc.c ****       {
 983:Drivers/STM32F3xx_HAL_Driver/Src/stm32f3xx_hal_rcc.c ****         /* HSI used as PLL clock source : PLLCLK = HSI/2 * PLLMUL */
 984:Drivers/STM32F3xx_HAL_Driver/Src/stm32f3xx_hal_rcc.c ****         pllclk = (HSI_VALUE >> 1U) * pllmul;
 985:Drivers/STM32F3xx_HAL_Driver/Src/stm32f3xx_hal_rcc.c ****       }
 986:Drivers/STM32F3xx_HAL_Driver/Src/stm32f3xx_hal_rcc.c **** #else
 987:Drivers/STM32F3xx_HAL_Driver/Src/stm32f3xx_hal_rcc.c ****       if ((tmpreg & RCC_CFGR_PLLSRC_HSE_PREDIV) == RCC_CFGR_PLLSRC_HSE_PREDIV)
 988:Drivers/STM32F3xx_HAL_Driver/Src/stm32f3xx_hal_rcc.c ****       {
 989:Drivers/STM32F3xx_HAL_Driver/Src/stm32f3xx_hal_rcc.c ****         /* HSE used as PLL clock source : PLLCLK = HSE/PREDIV * PLLMUL */
 990:Drivers/STM32F3xx_HAL_Driver/Src/stm32f3xx_hal_rcc.c ****         pllclk = (HSE_VALUE / prediv) * pllmul;
 991:Drivers/STM32F3xx_HAL_Driver/Src/stm32f3xx_hal_rcc.c ****       }
 992:Drivers/STM32F3xx_HAL_Driver/Src/stm32f3xx_hal_rcc.c ****       else
 993:Drivers/STM32F3xx_HAL_Driver/Src/stm32f3xx_hal_rcc.c ****       {
