ARM GAS  /var/folders/8c/gyvcglfx7f97kbqb2h83mm_r0000gn/T//ccnkzXDm.s 			page 1


   1              		.cpu cortex-m4
   2              		.eabi_attribute 27, 1
   3              		.eabi_attribute 28, 1
   4              		.eabi_attribute 20, 1
   5              		.eabi_attribute 21, 1
   6              		.eabi_attribute 23, 3
   7              		.eabi_attribute 24, 1
   8              		.eabi_attribute 25, 1
   9              		.eabi_attribute 26, 1
  10              		.eabi_attribute 30, 1
  11              		.eabi_attribute 34, 1
  12              		.eabi_attribute 18, 4
  13              		.file	"usart.c"
  14              		.text
  15              	.Ltext0:
  16              		.cfi_sections	.debug_frame
  17              		.section	.text.MX_USART1_UART_Init,"ax",%progbits
  18              		.align	1
  19              		.global	MX_USART1_UART_Init
  20              		.arch armv7e-m
  21              		.syntax unified
  22              		.thumb
  23              		.thumb_func
  24              		.fpu fpv4-sp-d16
  26              	MX_USART1_UART_Init:
  27              	.LFB126:
  28              		.file 1 "Src/usart.c"
   1:Src/usart.c   **** /**
   2:Src/usart.c   ****   ******************************************************************************
   3:Src/usart.c   ****   * File Name          : USART.c
   4:Src/usart.c   ****   * Description        : This file provides code for the configuration
   5:Src/usart.c   ****   *                      of the USART instances.
   6:Src/usart.c   ****   ******************************************************************************
   7:Src/usart.c   ****   * @attention
   8:Src/usart.c   ****   *
   9:Src/usart.c   ****   * <h2><center>&copy; Copyright (c) 2019 STMicroelectronics.
  10:Src/usart.c   ****   * All rights reserved.</center></h2>
  11:Src/usart.c   ****   *
  12:Src/usart.c   ****   * This software component is licensed by ST under BSD 3-Clause license,
  13:Src/usart.c   ****   * the "License"; You may not use this file except in compliance with the
  14:Src/usart.c   ****   * License. You may obtain a copy of the License at:
  15:Src/usart.c   ****   *                        opensource.org/licenses/BSD-3-Clause
  16:Src/usart.c   ****   *
  17:Src/usart.c   ****   ******************************************************************************
  18:Src/usart.c   ****   */
  19:Src/usart.c   **** 
  20:Src/usart.c   **** /* Includes ------------------------------------------------------------------*/
  21:Src/usart.c   **** #include "usart.h"
  22:Src/usart.c   **** 
  23:Src/usart.c   **** /* USER CODE BEGIN 0 */
  24:Src/usart.c   **** 
  25:Src/usart.c   **** /* USER CODE END 0 */
  26:Src/usart.c   **** 
  27:Src/usart.c   **** UART_HandleTypeDef huart1;
  28:Src/usart.c   **** UART_HandleTypeDef huart2;
  29:Src/usart.c   **** UART_HandleTypeDef huart3;
  30:Src/usart.c   **** 
ARM GAS  /var/folders/8c/gyvcglfx7f97kbqb2h83mm_r0000gn/T//ccnkzXDm.s 			page 2


  31:Src/usart.c   **** /* USART1 init function */
  32:Src/usart.c   **** 
  33:Src/usart.c   **** void MX_USART1_UART_Init(void)
  34:Src/usart.c   **** {
  29              		.loc 1 34 1 view -0
  30              		.cfi_startproc
  31              		@ args = 0, pretend = 0, frame = 0
  32              		@ frame_needed = 0, uses_anonymous_args = 0
  33 0000 08B5     		push	{r3, lr}
  34              	.LCFI0:
  35              		.cfi_def_cfa_offset 8
  36              		.cfi_offset 3, -8
  37              		.cfi_offset 14, -4
  35:Src/usart.c   **** 
  36:Src/usart.c   ****   huart1.Instance = USART1;
  38              		.loc 1 36 3 view .LVU1
  39              		.loc 1 36 19 is_stmt 0 view .LVU2
  40 0002 0B48     		ldr	r0, .L5
  41 0004 0B4B     		ldr	r3, .L5+4
  42 0006 0360     		str	r3, [r0]
  37:Src/usart.c   ****   huart1.Init.BaudRate = 38400;
  43              		.loc 1 37 3 is_stmt 1 view .LVU3
  44              		.loc 1 37 24 is_stmt 0 view .LVU4
  45 0008 4FF41643 		mov	r3, #38400
  46 000c 4360     		str	r3, [r0, #4]
  38:Src/usart.c   ****   huart1.Init.WordLength = UART_WORDLENGTH_8B;
  47              		.loc 1 38 3 is_stmt 1 view .LVU5
  48              		.loc 1 38 26 is_stmt 0 view .LVU6
  49 000e 0023     		movs	r3, #0
  50 0010 8360     		str	r3, [r0, #8]
  39:Src/usart.c   ****   huart1.Init.StopBits = UART_STOPBITS_1;
  51              		.loc 1 39 3 is_stmt 1 view .LVU7
  52              		.loc 1 39 24 is_stmt 0 view .LVU8
  53 0012 C360     		str	r3, [r0, #12]
  40:Src/usart.c   ****   huart1.Init.Parity = UART_PARITY_NONE;
  54              		.loc 1 40 3 is_stmt 1 view .LVU9
  55              		.loc 1 40 22 is_stmt 0 view .LVU10
  56 0014 0361     		str	r3, [r0, #16]
  41:Src/usart.c   ****   huart1.Init.Mode = UART_MODE_TX_RX;
  57              		.loc 1 41 3 is_stmt 1 view .LVU11
  58              		.loc 1 41 20 is_stmt 0 view .LVU12
  59 0016 0C22     		movs	r2, #12
  60 0018 4261     		str	r2, [r0, #20]
  42:Src/usart.c   ****   huart1.Init.HwFlowCtl = UART_HWCONTROL_NONE;
  61              		.loc 1 42 3 is_stmt 1 view .LVU13
  62              		.loc 1 42 25 is_stmt 0 view .LVU14
  63 001a 8361     		str	r3, [r0, #24]
  43:Src/usart.c   ****   huart1.Init.OverSampling = UART_OVERSAMPLING_16;
  64              		.loc 1 43 3 is_stmt 1 view .LVU15
  65              		.loc 1 43 28 is_stmt 0 view .LVU16
  66 001c C361     		str	r3, [r0, #28]
  44:Src/usart.c   ****   huart1.Init.OneBitSampling = UART_ONE_BIT_SAMPLE_DISABLE;
  67              		.loc 1 44 3 is_stmt 1 view .LVU17
  68              		.loc 1 44 30 is_stmt 0 view .LVU18
  69 001e 0362     		str	r3, [r0, #32]
  45:Src/usart.c   ****   huart1.AdvancedInit.AdvFeatureInit = UART_ADVFEATURE_NO_INIT;
  70              		.loc 1 45 3 is_stmt 1 view .LVU19
ARM GAS  /var/folders/8c/gyvcglfx7f97kbqb2h83mm_r0000gn/T//ccnkzXDm.s 			page 3


  71              		.loc 1 45 38 is_stmt 0 view .LVU20
  72 0020 4362     		str	r3, [r0, #36]
  46:Src/usart.c   ****   if (HAL_UART_Init(&huart1) != HAL_OK)
  73              		.loc 1 46 3 is_stmt 1 view .LVU21
  74              		.loc 1 46 7 is_stmt 0 view .LVU22
  75 0022 FFF7FEFF 		bl	HAL_UART_Init
  76              	.LVL0:
  77              		.loc 1 46 6 view .LVU23
  78 0026 00B9     		cbnz	r0, .L4
  79              	.L1:
  47:Src/usart.c   ****   {
  48:Src/usart.c   ****     Error_Handler();
  49:Src/usart.c   ****   }
  50:Src/usart.c   **** 
  51:Src/usart.c   **** }
  80              		.loc 1 51 1 view .LVU24
  81 0028 08BD     		pop	{r3, pc}
  82              	.L4:
  48:Src/usart.c   ****   }
  83              		.loc 1 48 5 is_stmt 1 view .LVU25
  84 002a FFF7FEFF 		bl	Error_Handler
  85              	.LVL1:
  86              		.loc 1 51 1 is_stmt 0 view .LVU26
  87 002e FBE7     		b	.L1
  88              	.L6:
  89              		.align	2
  90              	.L5:
  91 0030 00000000 		.word	huart1
  92 0034 00380140 		.word	1073821696
  93              		.cfi_endproc
  94              	.LFE126:
  96              		.section	.text.MX_USART2_UART_Init,"ax",%progbits
  97              		.align	1
  98              		.global	MX_USART2_UART_Init
  99              		.syntax unified
 100              		.thumb
 101              		.thumb_func
 102              		.fpu fpv4-sp-d16
 104              	MX_USART2_UART_Init:
 105              	.LFB127:
  52:Src/usart.c   **** /* USART2 init function */
  53:Src/usart.c   **** 
  54:Src/usart.c   **** void MX_USART2_UART_Init(void)
  55:Src/usart.c   **** {
 106              		.loc 1 55 1 is_stmt 1 view -0
 107              		.cfi_startproc
 108              		@ args = 0, pretend = 0, frame = 0
 109              		@ frame_needed = 0, uses_anonymous_args = 0
 110 0000 08B5     		push	{r3, lr}
 111              	.LCFI1:
 112              		.cfi_def_cfa_offset 8
 113              		.cfi_offset 3, -8
 114              		.cfi_offset 14, -4
  56:Src/usart.c   **** 
  57:Src/usart.c   ****   huart2.Instance = USART2;
 115              		.loc 1 57 3 view .LVU28
 116              		.loc 1 57 19 is_stmt 0 view .LVU29
ARM GAS  /var/folders/8c/gyvcglfx7f97kbqb2h83mm_r0000gn/T//ccnkzXDm.s 			page 4


 117 0002 0B48     		ldr	r0, .L11
 118 0004 0B4B     		ldr	r3, .L11+4
 119 0006 0360     		str	r3, [r0]
  58:Src/usart.c   ****   huart2.Init.BaudRate = 38400;
 120              		.loc 1 58 3 is_stmt 1 view .LVU30
 121              		.loc 1 58 24 is_stmt 0 view .LVU31
 122 0008 4FF41643 		mov	r3, #38400
 123 000c 4360     		str	r3, [r0, #4]
  59:Src/usart.c   ****   huart2.Init.WordLength = UART_WORDLENGTH_8B;
 124              		.loc 1 59 3 is_stmt 1 view .LVU32
 125              		.loc 1 59 26 is_stmt 0 view .LVU33
 126 000e 0023     		movs	r3, #0
 127 0010 8360     		str	r3, [r0, #8]
  60:Src/usart.c   ****   huart2.Init.StopBits = UART_STOPBITS_1;
 128              		.loc 1 60 3 is_stmt 1 view .LVU34
 129              		.loc 1 60 24 is_stmt 0 view .LVU35
 130 0012 C360     		str	r3, [r0, #12]
  61:Src/usart.c   ****   huart2.Init.Parity = UART_PARITY_NONE;
 131              		.loc 1 61 3 is_stmt 1 view .LVU36
 132              		.loc 1 61 22 is_stmt 0 view .LVU37
 133 0014 0361     		str	r3, [r0, #16]
  62:Src/usart.c   ****   huart2.Init.Mode = UART_MODE_TX_RX;
 134              		.loc 1 62 3 is_stmt 1 view .LVU38
 135              		.loc 1 62 20 is_stmt 0 view .LVU39
 136 0016 0C22     		movs	r2, #12
 137 0018 4261     		str	r2, [r0, #20]
  63:Src/usart.c   ****   huart2.Init.HwFlowCtl = UART_HWCONTROL_NONE;
 138              		.loc 1 63 3 is_stmt 1 view .LVU40
 139              		.loc 1 63 25 is_stmt 0 view .LVU41
 140 001a 8361     		str	r3, [r0, #24]
  64:Src/usart.c   ****   huart2.Init.OverSampling = UART_OVERSAMPLING_16;
 141              		.loc 1 64 3 is_stmt 1 view .LVU42
 142              		.loc 1 64 28 is_stmt 0 view .LVU43
 143 001c C361     		str	r3, [r0, #28]
  65:Src/usart.c   ****   huart2.Init.OneBitSampling = UART_ONE_BIT_SAMPLE_DISABLE;
 144              		.loc 1 65 3 is_stmt 1 view .LVU44
 145              		.loc 1 65 30 is_stmt 0 view .LVU45
 146 001e 0362     		str	r3, [r0, #32]
  66:Src/usart.c   ****   huart2.AdvancedInit.AdvFeatureInit = UART_ADVFEATURE_NO_INIT;
 147              		.loc 1 66 3 is_stmt 1 view .LVU46
 148              		.loc 1 66 38 is_stmt 0 view .LVU47
 149 0020 4362     		str	r3, [r0, #36]
  67:Src/usart.c   ****   if (HAL_UART_Init(&huart2) != HAL_OK)
 150              		.loc 1 67 3 is_stmt 1 view .LVU48
 151              		.loc 1 67 7 is_stmt 0 view .LVU49
 152 0022 FFF7FEFF 		bl	HAL_UART_Init
 153              	.LVL2:
 154              		.loc 1 67 6 view .LVU50
 155 0026 00B9     		cbnz	r0, .L10
 156              	.L7:
  68:Src/usart.c   ****   {
  69:Src/usart.c   ****     Error_Handler();
  70:Src/usart.c   ****   }
  71:Src/usart.c   **** 
  72:Src/usart.c   **** }
 157              		.loc 1 72 1 view .LVU51
 158 0028 08BD     		pop	{r3, pc}
ARM GAS  /var/folders/8c/gyvcglfx7f97kbqb2h83mm_r0000gn/T//ccnkzXDm.s 			page 5


 159              	.L10:
  69:Src/usart.c   ****   }
 160              		.loc 1 69 5 is_stmt 1 view .LVU52
 161 002a FFF7FEFF 		bl	Error_Handler
 162              	.LVL3:
 163              		.loc 1 72 1 is_stmt 0 view .LVU53
 164 002e FBE7     		b	.L7
 165              	.L12:
 166              		.align	2
 167              	.L11:
 168 0030 00000000 		.word	huart2
 169 0034 00440040 		.word	1073759232
 170              		.cfi_endproc
 171              	.LFE127:
 173              		.section	.text.MX_USART3_UART_Init,"ax",%progbits
 174              		.align	1
 175              		.global	MX_USART3_UART_Init
 176              		.syntax unified
 177              		.thumb
 178              		.thumb_func
 179              		.fpu fpv4-sp-d16
 181              	MX_USART3_UART_Init:
 182              	.LFB128:
  73:Src/usart.c   **** /* USART3 init function */
  74:Src/usart.c   **** 
  75:Src/usart.c   **** void MX_USART3_UART_Init(void)
  76:Src/usart.c   **** {
 183              		.loc 1 76 1 is_stmt 1 view -0
 184              		.cfi_startproc
 185              		@ args = 0, pretend = 0, frame = 0
 186              		@ frame_needed = 0, uses_anonymous_args = 0
 187 0000 08B5     		push	{r3, lr}
 188              	.LCFI2:
 189              		.cfi_def_cfa_offset 8
 190              		.cfi_offset 3, -8
 191              		.cfi_offset 14, -4
  77:Src/usart.c   **** 
  78:Src/usart.c   ****   huart3.Instance = USART3;
 192              		.loc 1 78 3 view .LVU55
 193              		.loc 1 78 19 is_stmt 0 view .LVU56
 194 0002 0B48     		ldr	r0, .L17
 195 0004 0B4B     		ldr	r3, .L17+4
 196 0006 0360     		str	r3, [r0]
  79:Src/usart.c   ****   huart3.Init.BaudRate = 38400;
 197              		.loc 1 79 3 is_stmt 1 view .LVU57
 198              		.loc 1 79 24 is_stmt 0 view .LVU58
 199 0008 4FF41643 		mov	r3, #38400
 200 000c 4360     		str	r3, [r0, #4]
  80:Src/usart.c   ****   huart3.Init.WordLength = UART_WORDLENGTH_8B;
 201              		.loc 1 80 3 is_stmt 1 view .LVU59
 202              		.loc 1 80 26 is_stmt 0 view .LVU60
 203 000e 0023     		movs	r3, #0
 204 0010 8360     		str	r3, [r0, #8]
  81:Src/usart.c   ****   huart3.Init.StopBits = UART_STOPBITS_1;
 205              		.loc 1 81 3 is_stmt 1 view .LVU61
 206              		.loc 1 81 24 is_stmt 0 view .LVU62
 207 0012 C360     		str	r3, [r0, #12]
ARM GAS  /var/folders/8c/gyvcglfx7f97kbqb2h83mm_r0000gn/T//ccnkzXDm.s 			page 6


  82:Src/usart.c   ****   huart3.Init.Parity = UART_PARITY_NONE;
 208              		.loc 1 82 3 is_stmt 1 view .LVU63
 209              		.loc 1 82 22 is_stmt 0 view .LVU64
 210 0014 0361     		str	r3, [r0, #16]
  83:Src/usart.c   ****   huart3.Init.Mode = UART_MODE_TX_RX;
 211              		.loc 1 83 3 is_stmt 1 view .LVU65
 212              		.loc 1 83 20 is_stmt 0 view .LVU66
 213 0016 0C22     		movs	r2, #12
 214 0018 4261     		str	r2, [r0, #20]
  84:Src/usart.c   ****   huart3.Init.HwFlowCtl = UART_HWCONTROL_NONE;
 215              		.loc 1 84 3 is_stmt 1 view .LVU67
 216              		.loc 1 84 25 is_stmt 0 view .LVU68
 217 001a 8361     		str	r3, [r0, #24]
  85:Src/usart.c   ****   huart3.Init.OverSampling = UART_OVERSAMPLING_16;
 218              		.loc 1 85 3 is_stmt 1 view .LVU69
 219              		.loc 1 85 28 is_stmt 0 view .LVU70
 220 001c C361     		str	r3, [r0, #28]
  86:Src/usart.c   ****   huart3.Init.OneBitSampling = UART_ONE_BIT_SAMPLE_DISABLE;
 221              		.loc 1 86 3 is_stmt 1 view .LVU71
 222              		.loc 1 86 30 is_stmt 0 view .LVU72
 223 001e 0362     		str	r3, [r0, #32]
  87:Src/usart.c   ****   huart3.AdvancedInit.AdvFeatureInit = UART_ADVFEATURE_NO_INIT;
 224              		.loc 1 87 3 is_stmt 1 view .LVU73
 225              		.loc 1 87 38 is_stmt 0 view .LVU74
 226 0020 4362     		str	r3, [r0, #36]
  88:Src/usart.c   ****   if (HAL_UART_Init(&huart3) != HAL_OK)
 227              		.loc 1 88 3 is_stmt 1 view .LVU75
 228              		.loc 1 88 7 is_stmt 0 view .LVU76
 229 0022 FFF7FEFF 		bl	HAL_UART_Init
 230              	.LVL4:
 231              		.loc 1 88 6 view .LVU77
 232 0026 00B9     		cbnz	r0, .L16
 233              	.L13:
  89:Src/usart.c   ****   {
  90:Src/usart.c   ****     Error_Handler();
  91:Src/usart.c   ****   }
  92:Src/usart.c   **** 
  93:Src/usart.c   **** }
 234              		.loc 1 93 1 view .LVU78
 235 0028 08BD     		pop	{r3, pc}
 236              	.L16:
  90:Src/usart.c   ****   }
 237              		.loc 1 90 5 is_stmt 1 view .LVU79
 238 002a FFF7FEFF 		bl	Error_Handler
 239              	.LVL5:
 240              		.loc 1 93 1 is_stmt 0 view .LVU80
 241 002e FBE7     		b	.L13
 242              	.L18:
 243              		.align	2
 244              	.L17:
 245 0030 00000000 		.word	huart3
 246 0034 00480040 		.word	1073760256
 247              		.cfi_endproc
 248              	.LFE128:
 250              		.section	.text.HAL_UART_MspInit,"ax",%progbits
 251              		.align	1
 252              		.global	HAL_UART_MspInit
ARM GAS  /var/folders/8c/gyvcglfx7f97kbqb2h83mm_r0000gn/T//ccnkzXDm.s 			page 7


 253              		.syntax unified
 254              		.thumb
 255              		.thumb_func
 256              		.fpu fpv4-sp-d16
 258              	HAL_UART_MspInit:
 259              	.LVL6:
 260              	.LFB129:
  94:Src/usart.c   **** 
  95:Src/usart.c   **** void HAL_UART_MspInit(UART_HandleTypeDef* uartHandle)
  96:Src/usart.c   **** {
 261              		.loc 1 96 1 is_stmt 1 view -0
 262              		.cfi_startproc
 263              		@ args = 0, pretend = 0, frame = 48
 264              		@ frame_needed = 0, uses_anonymous_args = 0
 265              		.loc 1 96 1 is_stmt 0 view .LVU82
 266 0000 70B5     		push	{r4, r5, r6, lr}
 267              	.LCFI3:
 268              		.cfi_def_cfa_offset 16
 269              		.cfi_offset 4, -16
 270              		.cfi_offset 5, -12
 271              		.cfi_offset 6, -8
 272              		.cfi_offset 14, -4
 273 0002 8CB0     		sub	sp, sp, #48
 274              	.LCFI4:
 275              		.cfi_def_cfa_offset 64
  97:Src/usart.c   **** 
  98:Src/usart.c   ****   GPIO_InitTypeDef GPIO_InitStruct = {0};
 276              		.loc 1 98 3 is_stmt 1 view .LVU83
 277              		.loc 1 98 20 is_stmt 0 view .LVU84
 278 0004 0023     		movs	r3, #0
 279 0006 0793     		str	r3, [sp, #28]
 280 0008 0893     		str	r3, [sp, #32]
 281 000a 0993     		str	r3, [sp, #36]
 282 000c 0A93     		str	r3, [sp, #40]
 283 000e 0B93     		str	r3, [sp, #44]
  99:Src/usart.c   ****   if(uartHandle->Instance==USART1)
 284              		.loc 1 99 3 is_stmt 1 view .LVU85
 285              		.loc 1 99 16 is_stmt 0 view .LVU86
 286 0010 0368     		ldr	r3, [r0]
 287              		.loc 1 99 5 view .LVU87
 288 0012 414A     		ldr	r2, .L27
 289 0014 9342     		cmp	r3, r2
 290 0016 07D0     		beq	.L24
 100:Src/usart.c   ****   {
 101:Src/usart.c   ****   /* USER CODE BEGIN USART1_MspInit 0 */
 102:Src/usart.c   **** 
 103:Src/usart.c   ****   /* USER CODE END USART1_MspInit 0 */
 104:Src/usart.c   ****     /* USART1 clock enable */
 105:Src/usart.c   ****     __HAL_RCC_USART1_CLK_ENABLE();
 106:Src/usart.c   ****   
 107:Src/usart.c   ****     __HAL_RCC_GPIOA_CLK_ENABLE();
 108:Src/usart.c   ****     /**USART1 GPIO Configuration    
 109:Src/usart.c   ****     PA9     ------> USART1_TX
 110:Src/usart.c   ****     PA10     ------> USART1_RX 
 111:Src/usart.c   ****     */
 112:Src/usart.c   ****     GPIO_InitStruct.Pin = GPIO_PIN_9|GPIO_PIN_10;
 113:Src/usart.c   ****     GPIO_InitStruct.Mode = GPIO_MODE_AF_PP;
ARM GAS  /var/folders/8c/gyvcglfx7f97kbqb2h83mm_r0000gn/T//ccnkzXDm.s 			page 8


 114:Src/usart.c   ****     GPIO_InitStruct.Pull = GPIO_NOPULL;
 115:Src/usart.c   ****     GPIO_InitStruct.Speed = GPIO_SPEED_FREQ_HIGH;
 116:Src/usart.c   ****     GPIO_InitStruct.Alternate = GPIO_AF7_USART1;
 117:Src/usart.c   ****     HAL_GPIO_Init(GPIOA, &GPIO_InitStruct);
 118:Src/usart.c   **** 
 119:Src/usart.c   ****   /* USER CODE BEGIN USART1_MspInit 1 */
 120:Src/usart.c   **** 
 121:Src/usart.c   ****   /* USER CODE END USART1_MspInit 1 */
 122:Src/usart.c   ****   }
 123:Src/usart.c   ****   else if(uartHandle->Instance==USART2)
 291              		.loc 1 123 8 is_stmt 1 view .LVU88
 292              		.loc 1 123 10 is_stmt 0 view .LVU89
 293 0018 404A     		ldr	r2, .L27+4
 294 001a 9342     		cmp	r3, r2
 295 001c 26D0     		beq	.L25
 124:Src/usart.c   ****   {
 125:Src/usart.c   ****   /* USER CODE BEGIN USART2_MspInit 0 */
 126:Src/usart.c   **** 
 127:Src/usart.c   ****   /* USER CODE END USART2_MspInit 0 */
 128:Src/usart.c   ****     /* USART2 clock enable */
 129:Src/usart.c   ****     __HAL_RCC_USART2_CLK_ENABLE();
 130:Src/usart.c   ****   
 131:Src/usart.c   ****     __HAL_RCC_GPIOA_CLK_ENABLE();
 132:Src/usart.c   ****     __HAL_RCC_GPIOD_CLK_ENABLE();
 133:Src/usart.c   ****     /**USART2 GPIO Configuration    
 134:Src/usart.c   ****     PA3     ------> USART2_RX
 135:Src/usart.c   ****     PD5     ------> USART2_TX 
 136:Src/usart.c   ****     */
 137:Src/usart.c   ****     GPIO_InitStruct.Pin = GPIO_PIN_3;
 138:Src/usart.c   ****     GPIO_InitStruct.Mode = GPIO_MODE_AF_PP;
 139:Src/usart.c   ****     GPIO_InitStruct.Pull = GPIO_NOPULL;
 140:Src/usart.c   ****     GPIO_InitStruct.Speed = GPIO_SPEED_FREQ_HIGH;
 141:Src/usart.c   ****     GPIO_InitStruct.Alternate = GPIO_AF7_USART2;
 142:Src/usart.c   ****     HAL_GPIO_Init(GPIOA, &GPIO_InitStruct);
 143:Src/usart.c   **** 
 144:Src/usart.c   ****     GPIO_InitStruct.Pin = GPIO_PIN_5;
 145:Src/usart.c   ****     GPIO_InitStruct.Mode = GPIO_MODE_AF_PP;
 146:Src/usart.c   ****     GPIO_InitStruct.Pull = GPIO_NOPULL;
 147:Src/usart.c   ****     GPIO_InitStruct.Speed = GPIO_SPEED_FREQ_HIGH;
 148:Src/usart.c   ****     GPIO_InitStruct.Alternate = GPIO_AF7_USART2;
 149:Src/usart.c   ****     HAL_GPIO_Init(GPIOD, &GPIO_InitStruct);
 150:Src/usart.c   **** 
 151:Src/usart.c   ****   /* USER CODE BEGIN USART2_MspInit 1 */
 152:Src/usart.c   **** 
 153:Src/usart.c   ****   /* USER CODE END USART2_MspInit 1 */
 154:Src/usart.c   ****   }
 155:Src/usart.c   ****   else if(uartHandle->Instance==USART3)
 296              		.loc 1 155 8 is_stmt 1 view .LVU90
 297              		.loc 1 155 10 is_stmt 0 view .LVU91
 298 001e 404A     		ldr	r2, .L27+8
 299 0020 9342     		cmp	r3, r2
 300 0022 58D0     		beq	.L26
 301              	.LVL7:
 302              	.L19:
 156:Src/usart.c   ****   {
 157:Src/usart.c   ****   /* USER CODE BEGIN USART3_MspInit 0 */
 158:Src/usart.c   **** 
ARM GAS  /var/folders/8c/gyvcglfx7f97kbqb2h83mm_r0000gn/T//ccnkzXDm.s 			page 9


 159:Src/usart.c   ****   /* USER CODE END USART3_MspInit 0 */
 160:Src/usart.c   ****     /* USART3 clock enable */
 161:Src/usart.c   ****     __HAL_RCC_USART3_CLK_ENABLE();
 162:Src/usart.c   ****   
 163:Src/usart.c   ****     __HAL_RCC_GPIOB_CLK_ENABLE();
 164:Src/usart.c   ****     /**USART3 GPIO Configuration    
 165:Src/usart.c   ****     PB10     ------> USART3_TX
 166:Src/usart.c   ****     PB11     ------> USART3_RX 
 167:Src/usart.c   ****     */
 168:Src/usart.c   ****     GPIO_InitStruct.Pin = GPIO_PIN_10|GPIO_PIN_11;
 169:Src/usart.c   ****     GPIO_InitStruct.Mode = GPIO_MODE_AF_PP;
 170:Src/usart.c   ****     GPIO_InitStruct.Pull = GPIO_NOPULL;
 171:Src/usart.c   ****     GPIO_InitStruct.Speed = GPIO_SPEED_FREQ_HIGH;
 172:Src/usart.c   ****     GPIO_InitStruct.Alternate = GPIO_AF7_USART3;
 173:Src/usart.c   ****     HAL_GPIO_Init(GPIOB, &GPIO_InitStruct);
 174:Src/usart.c   **** 
 175:Src/usart.c   ****   /* USER CODE BEGIN USART3_MspInit 1 */
 176:Src/usart.c   **** 
 177:Src/usart.c   ****   /* USER CODE END USART3_MspInit 1 */
 178:Src/usart.c   ****   }
 179:Src/usart.c   **** }
 303              		.loc 1 179 1 view .LVU92
 304 0024 0CB0     		add	sp, sp, #48
 305              	.LCFI5:
 306              		.cfi_remember_state
 307              		.cfi_def_cfa_offset 16
 308              		@ sp needed
 309 0026 70BD     		pop	{r4, r5, r6, pc}
 310              	.LVL8:
 311              	.L24:
 312              	.LCFI6:
 313              		.cfi_restore_state
 105:Src/usart.c   ****   
 314              		.loc 1 105 5 is_stmt 1 view .LVU93
 315              	.LBB2:
 105:Src/usart.c   ****   
 316              		.loc 1 105 5 view .LVU94
 105:Src/usart.c   ****   
 317              		.loc 1 105 5 view .LVU95
 318 0028 3E4B     		ldr	r3, .L27+12
 319 002a 9A69     		ldr	r2, [r3, #24]
 320 002c 42F48042 		orr	r2, r2, #16384
 321 0030 9A61     		str	r2, [r3, #24]
 105:Src/usart.c   ****   
 322              		.loc 1 105 5 view .LVU96
 323 0032 9A69     		ldr	r2, [r3, #24]
 324 0034 02F48042 		and	r2, r2, #16384
 325 0038 0092     		str	r2, [sp]
 105:Src/usart.c   ****   
 326              		.loc 1 105 5 view .LVU97
 327 003a 009A     		ldr	r2, [sp]
 328              	.LBE2:
 107:Src/usart.c   ****     /**USART1 GPIO Configuration    
 329              		.loc 1 107 5 view .LVU98
 330              	.LBB3:
 107:Src/usart.c   ****     /**USART1 GPIO Configuration    
 331              		.loc 1 107 5 view .LVU99
ARM GAS  /var/folders/8c/gyvcglfx7f97kbqb2h83mm_r0000gn/T//ccnkzXDm.s 			page 10


 107:Src/usart.c   ****     /**USART1 GPIO Configuration    
 332              		.loc 1 107 5 view .LVU100
 333 003c 5A69     		ldr	r2, [r3, #20]
 334 003e 42F40032 		orr	r2, r2, #131072
 335 0042 5A61     		str	r2, [r3, #20]
 107:Src/usart.c   ****     /**USART1 GPIO Configuration    
 336              		.loc 1 107 5 view .LVU101
 337 0044 5B69     		ldr	r3, [r3, #20]
 338 0046 03F40033 		and	r3, r3, #131072
 339 004a 0193     		str	r3, [sp, #4]
 107:Src/usart.c   ****     /**USART1 GPIO Configuration    
 340              		.loc 1 107 5 view .LVU102
 341 004c 019B     		ldr	r3, [sp, #4]
 342              	.LBE3:
 112:Src/usart.c   ****     GPIO_InitStruct.Mode = GPIO_MODE_AF_PP;
 343              		.loc 1 112 5 view .LVU103
 112:Src/usart.c   ****     GPIO_InitStruct.Mode = GPIO_MODE_AF_PP;
 344              		.loc 1 112 25 is_stmt 0 view .LVU104
 345 004e 4FF4C063 		mov	r3, #1536
 346 0052 0793     		str	r3, [sp, #28]
 113:Src/usart.c   ****     GPIO_InitStruct.Pull = GPIO_NOPULL;
 347              		.loc 1 113 5 is_stmt 1 view .LVU105
 113:Src/usart.c   ****     GPIO_InitStruct.Pull = GPIO_NOPULL;
 348              		.loc 1 113 26 is_stmt 0 view .LVU106
 349 0054 0223     		movs	r3, #2
 350 0056 0893     		str	r3, [sp, #32]
 114:Src/usart.c   ****     GPIO_InitStruct.Speed = GPIO_SPEED_FREQ_HIGH;
 351              		.loc 1 114 5 is_stmt 1 view .LVU107
 115:Src/usart.c   ****     GPIO_InitStruct.Alternate = GPIO_AF7_USART1;
 352              		.loc 1 115 5 view .LVU108
 115:Src/usart.c   ****     GPIO_InitStruct.Alternate = GPIO_AF7_USART1;
 353              		.loc 1 115 27 is_stmt 0 view .LVU109
 354 0058 0323     		movs	r3, #3
 355 005a 0A93     		str	r3, [sp, #40]
 116:Src/usart.c   ****     HAL_GPIO_Init(GPIOA, &GPIO_InitStruct);
 356              		.loc 1 116 5 is_stmt 1 view .LVU110
 116:Src/usart.c   ****     HAL_GPIO_Init(GPIOA, &GPIO_InitStruct);
 357              		.loc 1 116 31 is_stmt 0 view .LVU111
 358 005c 0723     		movs	r3, #7
 359 005e 0B93     		str	r3, [sp, #44]
 117:Src/usart.c   **** 
 360              		.loc 1 117 5 is_stmt 1 view .LVU112
 361 0060 07A9     		add	r1, sp, #28
 362 0062 4FF09040 		mov	r0, #1207959552
 363              	.LVL9:
 117:Src/usart.c   **** 
 364              		.loc 1 117 5 is_stmt 0 view .LVU113
 365 0066 FFF7FEFF 		bl	HAL_GPIO_Init
 366              	.LVL10:
 367 006a DBE7     		b	.L19
 368              	.LVL11:
 369              	.L25:
 129:Src/usart.c   ****   
 370              		.loc 1 129 5 is_stmt 1 view .LVU114
 371              	.LBB4:
 129:Src/usart.c   ****   
 372              		.loc 1 129 5 view .LVU115
ARM GAS  /var/folders/8c/gyvcglfx7f97kbqb2h83mm_r0000gn/T//ccnkzXDm.s 			page 11


 129:Src/usart.c   ****   
 373              		.loc 1 129 5 view .LVU116
 374 006c 2D4B     		ldr	r3, .L27+12
 375 006e DA69     		ldr	r2, [r3, #28]
 376 0070 42F40032 		orr	r2, r2, #131072
 377 0074 DA61     		str	r2, [r3, #28]
 129:Src/usart.c   ****   
 378              		.loc 1 129 5 view .LVU117
 379 0076 DA69     		ldr	r2, [r3, #28]
 380 0078 02F40032 		and	r2, r2, #131072
 381 007c 0292     		str	r2, [sp, #8]
 129:Src/usart.c   ****   
 382              		.loc 1 129 5 view .LVU118
 383 007e 029A     		ldr	r2, [sp, #8]
 384              	.LBE4:
 131:Src/usart.c   ****     __HAL_RCC_GPIOD_CLK_ENABLE();
 385              		.loc 1 131 5 view .LVU119
 386              	.LBB5:
 131:Src/usart.c   ****     __HAL_RCC_GPIOD_CLK_ENABLE();
 387              		.loc 1 131 5 view .LVU120
 131:Src/usart.c   ****     __HAL_RCC_GPIOD_CLK_ENABLE();
 388              		.loc 1 131 5 view .LVU121
 389 0080 5A69     		ldr	r2, [r3, #20]
 390 0082 42F40032 		orr	r2, r2, #131072
 391 0086 5A61     		str	r2, [r3, #20]
 131:Src/usart.c   ****     __HAL_RCC_GPIOD_CLK_ENABLE();
 392              		.loc 1 131 5 view .LVU122
 393 0088 5A69     		ldr	r2, [r3, #20]
 394 008a 02F40032 		and	r2, r2, #131072
 395 008e 0392     		str	r2, [sp, #12]
 131:Src/usart.c   ****     __HAL_RCC_GPIOD_CLK_ENABLE();
 396              		.loc 1 131 5 view .LVU123
 397 0090 039A     		ldr	r2, [sp, #12]
 398              	.LBE5:
 132:Src/usart.c   ****     /**USART2 GPIO Configuration    
 399              		.loc 1 132 5 view .LVU124
 400              	.LBB6:
 132:Src/usart.c   ****     /**USART2 GPIO Configuration    
 401              		.loc 1 132 5 view .LVU125
 132:Src/usart.c   ****     /**USART2 GPIO Configuration    
 402              		.loc 1 132 5 view .LVU126
 403 0092 5A69     		ldr	r2, [r3, #20]
 404 0094 42F48012 		orr	r2, r2, #1048576
 405 0098 5A61     		str	r2, [r3, #20]
 132:Src/usart.c   ****     /**USART2 GPIO Configuration    
 406              		.loc 1 132 5 view .LVU127
 407 009a 5B69     		ldr	r3, [r3, #20]
 408 009c 03F48013 		and	r3, r3, #1048576
 409 00a0 0493     		str	r3, [sp, #16]
 132:Src/usart.c   ****     /**USART2 GPIO Configuration    
 410              		.loc 1 132 5 view .LVU128
 411 00a2 049B     		ldr	r3, [sp, #16]
 412              	.LBE6:
 137:Src/usart.c   ****     GPIO_InitStruct.Mode = GPIO_MODE_AF_PP;
 413              		.loc 1 137 5 view .LVU129
 137:Src/usart.c   ****     GPIO_InitStruct.Mode = GPIO_MODE_AF_PP;
 414              		.loc 1 137 25 is_stmt 0 view .LVU130
ARM GAS  /var/folders/8c/gyvcglfx7f97kbqb2h83mm_r0000gn/T//ccnkzXDm.s 			page 12


 415 00a4 0823     		movs	r3, #8
 416 00a6 0793     		str	r3, [sp, #28]
 138:Src/usart.c   ****     GPIO_InitStruct.Pull = GPIO_NOPULL;
 417              		.loc 1 138 5 is_stmt 1 view .LVU131
 138:Src/usart.c   ****     GPIO_InitStruct.Pull = GPIO_NOPULL;
 418              		.loc 1 138 26 is_stmt 0 view .LVU132
 419 00a8 0226     		movs	r6, #2
 420 00aa 0896     		str	r6, [sp, #32]
 139:Src/usart.c   ****     GPIO_InitStruct.Speed = GPIO_SPEED_FREQ_HIGH;
 421              		.loc 1 139 5 is_stmt 1 view .LVU133
 140:Src/usart.c   ****     GPIO_InitStruct.Alternate = GPIO_AF7_USART2;
 422              		.loc 1 140 5 view .LVU134
 140:Src/usart.c   ****     GPIO_InitStruct.Alternate = GPIO_AF7_USART2;
 423              		.loc 1 140 27 is_stmt 0 view .LVU135
 424 00ac 0325     		movs	r5, #3
 425 00ae 0A95     		str	r5, [sp, #40]
 141:Src/usart.c   ****     HAL_GPIO_Init(GPIOA, &GPIO_InitStruct);
 426              		.loc 1 141 5 is_stmt 1 view .LVU136
 141:Src/usart.c   ****     HAL_GPIO_Init(GPIOA, &GPIO_InitStruct);
 427              		.loc 1 141 31 is_stmt 0 view .LVU137
 428 00b0 0724     		movs	r4, #7
 429 00b2 0B94     		str	r4, [sp, #44]
 142:Src/usart.c   **** 
 430              		.loc 1 142 5 is_stmt 1 view .LVU138
 431 00b4 07A9     		add	r1, sp, #28
 432 00b6 4FF09040 		mov	r0, #1207959552
 433              	.LVL12:
 142:Src/usart.c   **** 
 434              		.loc 1 142 5 is_stmt 0 view .LVU139
 435 00ba FFF7FEFF 		bl	HAL_GPIO_Init
 436              	.LVL13:
 144:Src/usart.c   ****     GPIO_InitStruct.Mode = GPIO_MODE_AF_PP;
 437              		.loc 1 144 5 is_stmt 1 view .LVU140
 144:Src/usart.c   ****     GPIO_InitStruct.Mode = GPIO_MODE_AF_PP;
 438              		.loc 1 144 25 is_stmt 0 view .LVU141
 439 00be 2023     		movs	r3, #32
 440 00c0 0793     		str	r3, [sp, #28]
 145:Src/usart.c   ****     GPIO_InitStruct.Pull = GPIO_NOPULL;
 441              		.loc 1 145 5 is_stmt 1 view .LVU142
 145:Src/usart.c   ****     GPIO_InitStruct.Pull = GPIO_NOPULL;
 442              		.loc 1 145 26 is_stmt 0 view .LVU143
 443 00c2 0896     		str	r6, [sp, #32]
 146:Src/usart.c   ****     GPIO_InitStruct.Speed = GPIO_SPEED_FREQ_HIGH;
 444              		.loc 1 146 5 is_stmt 1 view .LVU144
 146:Src/usart.c   ****     GPIO_InitStruct.Speed = GPIO_SPEED_FREQ_HIGH;
 445              		.loc 1 146 26 is_stmt 0 view .LVU145
 446 00c4 0023     		movs	r3, #0
 447 00c6 0993     		str	r3, [sp, #36]
 147:Src/usart.c   ****     GPIO_InitStruct.Alternate = GPIO_AF7_USART2;
 448              		.loc 1 147 5 is_stmt 1 view .LVU146
 147:Src/usart.c   ****     GPIO_InitStruct.Alternate = GPIO_AF7_USART2;
 449              		.loc 1 147 27 is_stmt 0 view .LVU147
 450 00c8 0A95     		str	r5, [sp, #40]
 148:Src/usart.c   ****     HAL_GPIO_Init(GPIOD, &GPIO_InitStruct);
 451              		.loc 1 148 5 is_stmt 1 view .LVU148
 148:Src/usart.c   ****     HAL_GPIO_Init(GPIOD, &GPIO_InitStruct);
 452              		.loc 1 148 31 is_stmt 0 view .LVU149
ARM GAS  /var/folders/8c/gyvcglfx7f97kbqb2h83mm_r0000gn/T//ccnkzXDm.s 			page 13


 453 00ca 0B94     		str	r4, [sp, #44]
 149:Src/usart.c   **** 
 454              		.loc 1 149 5 is_stmt 1 view .LVU150
 455 00cc 07A9     		add	r1, sp, #28
 456 00ce 1648     		ldr	r0, .L27+16
 457 00d0 FFF7FEFF 		bl	HAL_GPIO_Init
 458              	.LVL14:
 459 00d4 A6E7     		b	.L19
 460              	.LVL15:
 461              	.L26:
 161:Src/usart.c   ****   
 462              		.loc 1 161 5 view .LVU151
 463              	.LBB7:
 161:Src/usart.c   ****   
 464              		.loc 1 161 5 view .LVU152
 161:Src/usart.c   ****   
 465              		.loc 1 161 5 view .LVU153
 466 00d6 134B     		ldr	r3, .L27+12
 467 00d8 DA69     		ldr	r2, [r3, #28]
 468 00da 42F48022 		orr	r2, r2, #262144
 469 00de DA61     		str	r2, [r3, #28]
 161:Src/usart.c   ****   
 470              		.loc 1 161 5 view .LVU154
 471 00e0 DA69     		ldr	r2, [r3, #28]
 472 00e2 02F48022 		and	r2, r2, #262144
 473 00e6 0592     		str	r2, [sp, #20]
 161:Src/usart.c   ****   
 474              		.loc 1 161 5 view .LVU155
 475 00e8 059A     		ldr	r2, [sp, #20]
 476              	.LBE7:
 163:Src/usart.c   ****     /**USART3 GPIO Configuration    
 477              		.loc 1 163 5 view .LVU156
 478              	.LBB8:
 163:Src/usart.c   ****     /**USART3 GPIO Configuration    
 479              		.loc 1 163 5 view .LVU157
 163:Src/usart.c   ****     /**USART3 GPIO Configuration    
 480              		.loc 1 163 5 view .LVU158
 481 00ea 5A69     		ldr	r2, [r3, #20]
 482 00ec 42F48022 		orr	r2, r2, #262144
 483 00f0 5A61     		str	r2, [r3, #20]
 163:Src/usart.c   ****     /**USART3 GPIO Configuration    
 484              		.loc 1 163 5 view .LVU159
 485 00f2 5B69     		ldr	r3, [r3, #20]
 486 00f4 03F48023 		and	r3, r3, #262144
 487 00f8 0693     		str	r3, [sp, #24]
 163:Src/usart.c   ****     /**USART3 GPIO Configuration    
 488              		.loc 1 163 5 view .LVU160
 489 00fa 069B     		ldr	r3, [sp, #24]
 490              	.LBE8:
 168:Src/usart.c   ****     GPIO_InitStruct.Mode = GPIO_MODE_AF_PP;
 491              		.loc 1 168 5 view .LVU161
 168:Src/usart.c   ****     GPIO_InitStruct.Mode = GPIO_MODE_AF_PP;
 492              		.loc 1 168 25 is_stmt 0 view .LVU162
 493 00fc 4FF44063 		mov	r3, #3072
 494 0100 0793     		str	r3, [sp, #28]
 169:Src/usart.c   ****     GPIO_InitStruct.Pull = GPIO_NOPULL;
 495              		.loc 1 169 5 is_stmt 1 view .LVU163
ARM GAS  /var/folders/8c/gyvcglfx7f97kbqb2h83mm_r0000gn/T//ccnkzXDm.s 			page 14


 169:Src/usart.c   ****     GPIO_InitStruct.Pull = GPIO_NOPULL;
 496              		.loc 1 169 26 is_stmt 0 view .LVU164
 497 0102 0223     		movs	r3, #2
 498 0104 0893     		str	r3, [sp, #32]
 170:Src/usart.c   ****     GPIO_InitStruct.Speed = GPIO_SPEED_FREQ_HIGH;
 499              		.loc 1 170 5 is_stmt 1 view .LVU165
 171:Src/usart.c   ****     GPIO_InitStruct.Alternate = GPIO_AF7_USART3;
 500              		.loc 1 171 5 view .LVU166
 171:Src/usart.c   ****     GPIO_InitStruct.Alternate = GPIO_AF7_USART3;
 501              		.loc 1 171 27 is_stmt 0 view .LVU167
 502 0106 0323     		movs	r3, #3
 503 0108 0A93     		str	r3, [sp, #40]
 172:Src/usart.c   ****     HAL_GPIO_Init(GPIOB, &GPIO_InitStruct);
 504              		.loc 1 172 5 is_stmt 1 view .LVU168
 172:Src/usart.c   ****     HAL_GPIO_Init(GPIOB, &GPIO_InitStruct);
 505              		.loc 1 172 31 is_stmt 0 view .LVU169
 506 010a 0723     		movs	r3, #7
 507 010c 0B93     		str	r3, [sp, #44]
 173:Src/usart.c   **** 
 508              		.loc 1 173 5 is_stmt 1 view .LVU170
 509 010e 07A9     		add	r1, sp, #28
 510 0110 0648     		ldr	r0, .L27+20
 511              	.LVL16:
 173:Src/usart.c   **** 
 512              		.loc 1 173 5 is_stmt 0 view .LVU171
 513 0112 FFF7FEFF 		bl	HAL_GPIO_Init
 514              	.LVL17:
 515              		.loc 1 179 1 view .LVU172
 516 0116 85E7     		b	.L19
 517              	.L28:
 518              		.align	2
 519              	.L27:
 520 0118 00380140 		.word	1073821696
 521 011c 00440040 		.word	1073759232
 522 0120 00480040 		.word	1073760256
 523 0124 00100240 		.word	1073876992
 524 0128 000C0048 		.word	1207962624
 525 012c 00040048 		.word	1207960576
 526              		.cfi_endproc
 527              	.LFE129:
 529              		.section	.text.HAL_UART_MspDeInit,"ax",%progbits
 530              		.align	1
 531              		.global	HAL_UART_MspDeInit
 532              		.syntax unified
 533              		.thumb
 534              		.thumb_func
 535              		.fpu fpv4-sp-d16
 537              	HAL_UART_MspDeInit:
 538              	.LVL18:
 539              	.LFB130:
 180:Src/usart.c   **** 
 181:Src/usart.c   **** void HAL_UART_MspDeInit(UART_HandleTypeDef* uartHandle)
 182:Src/usart.c   **** {
 540              		.loc 1 182 1 is_stmt 1 view -0
 541              		.cfi_startproc
 542              		@ args = 0, pretend = 0, frame = 0
 543              		@ frame_needed = 0, uses_anonymous_args = 0
ARM GAS  /var/folders/8c/gyvcglfx7f97kbqb2h83mm_r0000gn/T//ccnkzXDm.s 			page 15


 544              		.loc 1 182 1 is_stmt 0 view .LVU174
 545 0000 08B5     		push	{r3, lr}
 546              	.LCFI7:
 547              		.cfi_def_cfa_offset 8
 548              		.cfi_offset 3, -8
 549              		.cfi_offset 14, -4
 183:Src/usart.c   **** 
 184:Src/usart.c   ****   if(uartHandle->Instance==USART1)
 550              		.loc 1 184 3 is_stmt 1 view .LVU175
 551              		.loc 1 184 16 is_stmt 0 view .LVU176
 552 0002 0368     		ldr	r3, [r0]
 553              		.loc 1 184 5 view .LVU177
 554 0004 194A     		ldr	r2, .L37
 555 0006 9342     		cmp	r3, r2
 556 0008 06D0     		beq	.L34
 185:Src/usart.c   ****   {
 186:Src/usart.c   ****   /* USER CODE BEGIN USART1_MspDeInit 0 */
 187:Src/usart.c   **** 
 188:Src/usart.c   ****   /* USER CODE END USART1_MspDeInit 0 */
 189:Src/usart.c   ****     /* Peripheral clock disable */
 190:Src/usart.c   ****     __HAL_RCC_USART1_CLK_DISABLE();
 191:Src/usart.c   ****   
 192:Src/usart.c   ****     /**USART1 GPIO Configuration    
 193:Src/usart.c   ****     PA9     ------> USART1_TX
 194:Src/usart.c   ****     PA10     ------> USART1_RX 
 195:Src/usart.c   ****     */
 196:Src/usart.c   ****     HAL_GPIO_DeInit(GPIOA, GPIO_PIN_9|GPIO_PIN_10);
 197:Src/usart.c   **** 
 198:Src/usart.c   ****   /* USER CODE BEGIN USART1_MspDeInit 1 */
 199:Src/usart.c   **** 
 200:Src/usart.c   ****   /* USER CODE END USART1_MspDeInit 1 */
 201:Src/usart.c   ****   }
 202:Src/usart.c   ****   else if(uartHandle->Instance==USART2)
 557              		.loc 1 202 8 is_stmt 1 view .LVU178
 558              		.loc 1 202 10 is_stmt 0 view .LVU179
 559 000a 194A     		ldr	r2, .L37+4
 560 000c 9342     		cmp	r3, r2
 561 000e 10D0     		beq	.L35
 203:Src/usart.c   ****   {
 204:Src/usart.c   ****   /* USER CODE BEGIN USART2_MspDeInit 0 */
 205:Src/usart.c   **** 
 206:Src/usart.c   ****   /* USER CODE END USART2_MspDeInit 0 */
 207:Src/usart.c   ****     /* Peripheral clock disable */
 208:Src/usart.c   ****     __HAL_RCC_USART2_CLK_DISABLE();
 209:Src/usart.c   ****   
 210:Src/usart.c   ****     /**USART2 GPIO Configuration    
 211:Src/usart.c   ****     PA3     ------> USART2_RX
 212:Src/usart.c   ****     PD5     ------> USART2_TX 
 213:Src/usart.c   ****     */
 214:Src/usart.c   ****     HAL_GPIO_DeInit(GPIOA, GPIO_PIN_3);
 215:Src/usart.c   **** 
 216:Src/usart.c   ****     HAL_GPIO_DeInit(GPIOD, GPIO_PIN_5);
 217:Src/usart.c   **** 
 218:Src/usart.c   ****   /* USER CODE BEGIN USART2_MspDeInit 1 */
 219:Src/usart.c   **** 
 220:Src/usart.c   ****   /* USER CODE END USART2_MspDeInit 1 */
 221:Src/usart.c   ****   }
ARM GAS  /var/folders/8c/gyvcglfx7f97kbqb2h83mm_r0000gn/T//ccnkzXDm.s 			page 16


 222:Src/usart.c   ****   else if(uartHandle->Instance==USART3)
 562              		.loc 1 222 8 is_stmt 1 view .LVU180
 563              		.loc 1 222 10 is_stmt 0 view .LVU181
 564 0010 184A     		ldr	r2, .L37+8
 565 0012 9342     		cmp	r3, r2
 566 0014 1DD0     		beq	.L36
 567              	.LVL19:
 568              	.L29:
 223:Src/usart.c   ****   {
 224:Src/usart.c   ****   /* USER CODE BEGIN USART3_MspDeInit 0 */
 225:Src/usart.c   **** 
 226:Src/usart.c   ****   /* USER CODE END USART3_MspDeInit 0 */
 227:Src/usart.c   ****     /* Peripheral clock disable */
 228:Src/usart.c   ****     __HAL_RCC_USART3_CLK_DISABLE();
 229:Src/usart.c   ****   
 230:Src/usart.c   ****     /**USART3 GPIO Configuration    
 231:Src/usart.c   ****     PB10     ------> USART3_TX
 232:Src/usart.c   ****     PB11     ------> USART3_RX 
 233:Src/usart.c   ****     */
 234:Src/usart.c   ****     HAL_GPIO_DeInit(GPIOB, GPIO_PIN_10|GPIO_PIN_11);
 235:Src/usart.c   **** 
 236:Src/usart.c   ****   /* USER CODE BEGIN USART3_MspDeInit 1 */
 237:Src/usart.c   **** 
 238:Src/usart.c   ****   /* USER CODE END USART3_MspDeInit 1 */
 239:Src/usart.c   ****   }
 240:Src/usart.c   **** } 
 569              		.loc 1 240 1 view .LVU182
 570 0016 08BD     		pop	{r3, pc}
 571              	.LVL20:
 572              	.L34:
 190:Src/usart.c   ****   
 573              		.loc 1 190 5 is_stmt 1 view .LVU183
 574 0018 02F55842 		add	r2, r2, #55296
 575 001c 9369     		ldr	r3, [r2, #24]
 576 001e 23F48043 		bic	r3, r3, #16384
 577 0022 9361     		str	r3, [r2, #24]
 196:Src/usart.c   **** 
 578              		.loc 1 196 5 view .LVU184
 579 0024 4FF4C061 		mov	r1, #1536
 580 0028 4FF09040 		mov	r0, #1207959552
 581              	.LVL21:
 196:Src/usart.c   **** 
 582              		.loc 1 196 5 is_stmt 0 view .LVU185
 583 002c FFF7FEFF 		bl	HAL_GPIO_DeInit
 584              	.LVL22:
 585 0030 F1E7     		b	.L29
 586              	.LVL23:
 587              	.L35:
 208:Src/usart.c   ****   
 588              		.loc 1 208 5 is_stmt 1 view .LVU186
 589 0032 02F5E632 		add	r2, r2, #117760
 590 0036 D369     		ldr	r3, [r2, #28]
 591 0038 23F40033 		bic	r3, r3, #131072
 592 003c D361     		str	r3, [r2, #28]
 214:Src/usart.c   **** 
 593              		.loc 1 214 5 view .LVU187
 594 003e 0821     		movs	r1, #8
ARM GAS  /var/folders/8c/gyvcglfx7f97kbqb2h83mm_r0000gn/T//ccnkzXDm.s 			page 17


 595 0040 4FF09040 		mov	r0, #1207959552
 596              	.LVL24:
 214:Src/usart.c   **** 
 597              		.loc 1 214 5 is_stmt 0 view .LVU188
 598 0044 FFF7FEFF 		bl	HAL_GPIO_DeInit
 599              	.LVL25:
 216:Src/usart.c   **** 
 600              		.loc 1 216 5 is_stmt 1 view .LVU189
 601 0048 2021     		movs	r1, #32
 602 004a 0B48     		ldr	r0, .L37+12
 603 004c FFF7FEFF 		bl	HAL_GPIO_DeInit
 604              	.LVL26:
 605 0050 E1E7     		b	.L29
 606              	.LVL27:
 607              	.L36:
 228:Src/usart.c   ****   
 608              		.loc 1 228 5 view .LVU190
 609 0052 02F5E432 		add	r2, r2, #116736
 610 0056 D369     		ldr	r3, [r2, #28]
 611 0058 23F48023 		bic	r3, r3, #262144
 612 005c D361     		str	r3, [r2, #28]
 234:Src/usart.c   **** 
 613              		.loc 1 234 5 view .LVU191
 614 005e 4FF44061 		mov	r1, #3072
 615 0062 0648     		ldr	r0, .L37+16
 616              	.LVL28:
 234:Src/usart.c   **** 
 617              		.loc 1 234 5 is_stmt 0 view .LVU192
 618 0064 FFF7FEFF 		bl	HAL_GPIO_DeInit
 619              	.LVL29:
 620              		.loc 1 240 1 view .LVU193
 621 0068 D5E7     		b	.L29
 622              	.L38:
 623 006a 00BF     		.align	2
 624              	.L37:
 625 006c 00380140 		.word	1073821696
 626 0070 00440040 		.word	1073759232
 627 0074 00480040 		.word	1073760256
 628 0078 000C0048 		.word	1207962624
 629 007c 00040048 		.word	1207960576
 630              		.cfi_endproc
 631              	.LFE130:
 633              		.comm	huart3,112,4
 634              		.comm	huart2,112,4
 635              		.comm	huart1,112,4
 636              		.text
 637              	.Letext0:
 638              		.file 2 "/usr/local/gcc-arm-none-eabi-8-2018-q4-major/arm-none-eabi/include/machine/_default_types
 639              		.file 3 "/usr/local/gcc-arm-none-eabi-8-2018-q4-major/arm-none-eabi/include/sys/_stdint.h"
 640              		.file 4 "Drivers/CMSIS/Include/core_cm4.h"
 641              		.file 5 "Drivers/CMSIS/Device/ST/STM32F3xx/Include/system_stm32f3xx.h"
 642              		.file 6 "Drivers/CMSIS/Device/ST/STM32F3xx/Include/stm32f303xc.h"
 643              		.file 7 "/usr/local/gcc-arm-none-eabi-8-2018-q4-major/arm-none-eabi/include/sys/lock.h"
 644              		.file 8 "/usr/local/gcc-arm-none-eabi-8-2018-q4-major/arm-none-eabi/include/sys/_types.h"
 645              		.file 9 "/usr/local/gcc-arm-none-eabi-8-2018-q4-major/lib/gcc/arm-none-eabi/8.2.1/include/stddef.h
 646              		.file 10 "/usr/local/gcc-arm-none-eabi-8-2018-q4-major/arm-none-eabi/include/sys/reent.h"
 647              		.file 11 "Drivers/STM32F3xx_HAL_Driver/Inc/stm32f3xx_hal_def.h"
ARM GAS  /var/folders/8c/gyvcglfx7f97kbqb2h83mm_r0000gn/T//ccnkzXDm.s 			page 18


 648              		.file 12 "Drivers/STM32F3xx_HAL_Driver/Inc/stm32f3xx_hal_gpio.h"
 649              		.file 13 "Drivers/STM32F3xx_HAL_Driver/Inc/stm32f3xx_hal_dma.h"
 650              		.file 14 "Drivers/STM32F3xx_HAL_Driver/Inc/stm32f3xx_hal_uart.h"
 651              		.file 15 "Drivers/STM32F3xx_HAL_Driver/Inc/stm32f3xx_hal.h"
 652              		.file 16 "Inc/usart.h"
 653              		.file 17 "Inc/main.h"
ARM GAS  /var/folders/8c/gyvcglfx7f97kbqb2h83mm_r0000gn/T//ccnkzXDm.s 			page 19

